; Listing generated by Microsoft (R) Optimizing Compiler Version 19.00.24215.1 

	TITLE	E:\InfiniA-Library-3.0\com\src\comBufPool.cpp
	.686P
	.XMM
	include listing.inc
	.model	flat

INCLUDELIB MSVCRTD
INCLUDELIB OLDNAMES

PUBLIC	?g_nSizeList@@3QBHB				; g_nSizeList
CONST	SEGMENT
$SG44621 DB	'new m_nFlagArray', 00H
	ORG $+3
$SG44622 DB	'CBufPool::alloc', 00H
$SG44624 DB	'm_pChunk alloc', 00H
	ORG $+1
$SG44625 DB	'CBufPool::alloc', 00H
$SG44717 DB	'm_nFlagArray alloc', 00H
	ORG $+1
$SG44718 DB	'CSBufPool::alloc', 00H
	ORG $+3
$SG44720 DB	'm_pChunk alloc', 00H
	ORG $+1
$SG44721 DB	'CSBufPool::alloc', 00H
	ORG $+3
$SG44722 DB	'mem allock list m_nAllocCount[%d]', 00H
	ORG $+6
?g_nSizeList@@3QBHB DD 01H				; g_nSizeList
	DD	02H
	DD	04H
	DD	08H
	DD	010H
	DD	020H
	DD	040H
	DD	080H
	DD	0100H
	DD	0200H
	DD	0400H
	DD	0800H
	DD	01000H
	DD	02000H
	DD	03fdcH
	DD	08000H
	DD	010000H
	DD	020000H
	DD	040000H
	DD	080000H
	DD	0100000H
	DD	0200000H
CONST	ENDS
PUBLIC	___local_stdio_printf_options
PUBLIC	??$__vcrt_va_start_verify_argument_type@QBD@@YAXXZ ; __vcrt_va_start_verify_argument_type<char const * const>
PUBLIC	__vsnprintf_l
PUBLIC	__vsprintf_l
PUBLIC	_sprintf
PUBLIC	??0win_atomic@win32@common@@QAE@XZ		; common::win32::win_atomic::win_atomic
PUBLIC	??1win_atomic@win32@common@@QAE@XZ		; common::win32::win_atomic::~win_atomic
PUBLIC	?getCount@win_atomic@win32@common@@QAEHXZ	; common::win32::win_atomic::getCount
PUBLIC	?init@win_atomic@win32@common@@QAEXXZ		; common::win32::win_atomic::init
PUBLIC	?atomic_increment@win_atomic@win32@common@@QAEJXZ ; common::win32::win_atomic::atomic_increment
PUBLIC	?atomic_decrement@win_atomic@win32@common@@QAEJXZ ; common::win32::win_atomic::atomic_decrement
PUBLIC	?atomic_compare_exchange@win_atomic@win32@common@@QAEHHH@Z ; common::win32::win_atomic::atomic_compare_exchange
PUBLIC	??_Ewin_atomic@win32@common@@QAEPAXI@Z		; common::win32::win_atomic::`vector deleting destructor'
PUBLIC	?isBitSet_flag@@YA_NHPAD@Z			; isBitSet_flag
PUBLIC	?bitClear_flag@@YAXHPAD@Z			; bitClear_flag
PUBLIC	?bitSet_flag@@YAXHPAD@Z				; bitSet_flag
PUBLIC	?ISINCLUDE@@YA_NHH@Z				; ISINCLUDE
PUBLIC	?getSizeByIndex@@YAHH@Z				; getSizeByIndex
PUBLIC	??0CBufPool@@QAE@XZ				; CBufPool::CBufPool
PUBLIC	??1CBufPool@@QAE@XZ				; CBufPool::~CBufPool
PUBLIC	?clear@CBufPool@@QAEXXZ				; CBufPool::clear
PUBLIC	?alloc@CBufPool@@QAE_NHH@Z			; CBufPool::alloc
PUBLIC	?newMem@CBufPool@@QAEPADXZ			; CBufPool::newMem
PUBLIC	?delMem@CBufPool@@QAEXPAD@Z			; CBufPool::delMem
PUBLIC	?newMemList@CBufPool@@QAE_NH@Z			; CBufPool::newMemList
PUBLIC	?delMem@CBufPool@@QAEXPADH@Z			; CBufPool::delMem
PUBLIC	?ISINCLUDE_ADDRESS@CBufPool@@QAE_NPAD@Z		; CBufPool::ISINCLUDE_ADDRESS
PUBLIC	??0CSBufPool@@QAE@XZ				; CSBufPool::CSBufPool
PUBLIC	??1CSBufPool@@QAE@XZ				; CSBufPool::~CSBufPool
PUBLIC	?clear@CSBufPool@@QAEXXZ			; CSBufPool::clear
PUBLIC	?alloc@CSBufPool@@QAE_NHH@Z			; CSBufPool::alloc
PUBLIC	?destroy@CSBufPool@@QAEXXZ			; CSBufPool::destroy
PUBLIC	?newMem@CSBufPool@@QAEPADPAH@Z			; CSBufPool::newMem
PUBLIC	?delMem@CSBufPool@@QAE_NPAD@Z			; CSBufPool::delMem
PUBLIC	?delMemByIdx@CSBufPool@@QAE_NPADH@Z		; CSBufPool::delMemByIdx
PUBLIC	?newMemList@CSBufPool@@QAE_NH@Z			; CSBufPool::newMemList
PUBLIC	?delMem@CSBufPool@@QAE_NPADH@Z			; CSBufPool::delMem
PUBLIC	?ISINCLUDE_ADDRESS@CSBufPool@@QAE_NPAD@Z	; CSBufPool::ISINCLUDE_ADDRESS
PUBLIC	?_OptionsStorage@?1??__local_stdio_printf_options@@9@4_KA ; `__local_stdio_printf_options'::`2'::_OptionsStorage
EXTRN	??_L@YGXPAXIIP6EX0@Z1@Z:PROC			; `eh vector constructor iterator'
EXTRN	??_M@YGXPAXIIP6EX0@Z@Z:PROC			; `eh vector destructor iterator'
EXTRN	??3@YAXPAXI@Z:PROC				; operator delete
EXTRN	??_V@YAXPAXI@Z:PROC				; operator delete[]
EXTRN	_memset:PROC
EXTRN	__imp____stdio_common_vsprintf:PROC
EXTRN	__imp__calloc:PROC
EXTRN	__imp__free:PROC
EXTRN	??_U@YAPAXIABUnothrow_t@std@@@Z:PROC		; operator new[]
EXTRN	??_V@YAXPAXABUnothrow_t@std@@@Z:PROC		; operator delete[]
EXTRN	__imp__InterlockedIncrement@4:PROC
EXTRN	__imp__InterlockedDecrement@4:PROC
EXTRN	__imp__InterlockedCompareExchange@12:PROC
EXTRN	?__debugLog@CLogger@@QAAXHPBDH0ZZ:PROC		; CLogger::__debugLog
EXTRN	@__security_check_cookie@4:PROC
EXTRN	__RTC_CheckEsp:PROC
EXTRN	__RTC_InitBase:PROC
EXTRN	__RTC_Shutdown:PROC
EXTRN	___CxxFrameHandler3:PROC
EXTRN	?nothrow@std@@3Unothrow_t@1@B:BYTE		; std::nothrow
EXTRN	?g_szMessage@@3PADA:BYTE			; g_szMessage
EXTRN	?gs_cLogger@@3VCLogger@@A:BYTE			; gs_cLogger
EXTRN	___security_cookie:DWORD
;	COMDAT ?_OptionsStorage@?1??__local_stdio_printf_options@@9@4_KA
_BSS	SEGMENT
?_OptionsStorage@?1??__local_stdio_printf_options@@9@4_KA DQ 01H DUP (?) ; `__local_stdio_printf_options'::`2'::_OptionsStorage
_BSS	ENDS
;	COMDAT rtc$TMZ
rtc$TMZ	SEGMENT
__RTC_Shutdown.rtc$TMZ DD FLAT:__RTC_Shutdown
rtc$TMZ	ENDS
;	COMDAT rtc$IMZ
rtc$IMZ	SEGMENT
__RTC_InitBase.rtc$IMZ DD FLAT:__RTC_InitBase
rtc$IMZ	ENDS
xdata$x	SEGMENT
__unwindtable$?alloc@CBufPool@@QAE_NHH@Z DD 0ffffffffH
	DD	FLAT:__unwindfunclet$?alloc@CBufPool@@QAE_NHH@Z$0
__unwindtable$??0CBufPool@@QAE@XZ DD 0ffffffffH
	DD	FLAT:__unwindfunclet$??0CBufPool@@QAE@XZ$0
__ehfuncinfo$??1CSBufPool@@QAE@XZ DD 019930522H
	DD	00H
	DD	00H
	DD	2 DUP(00H)
	DD	2 DUP(00H)
	DD	00H
	DD	05H
__ehfuncinfo$?alloc@CBufPool@@QAE_NHH@Z DD 019930522H
	DD	01H
	DD	FLAT:__unwindtable$?alloc@CBufPool@@QAE_NHH@Z
	DD	2 DUP(00H)
	DD	2 DUP(00H)
	DD	00H
	DD	01H
__ehfuncinfo$??0CBufPool@@QAE@XZ DD 019930522H
	DD	01H
	DD	FLAT:__unwindtable$??0CBufPool@@QAE@XZ
	DD	2 DUP(00H)
	DD	2 DUP(00H)
	DD	00H
	DD	01H
xdata$x	ENDS
;	COMDAT xdata$x
xdata$x	SEGMENT
__ehfuncinfo$??_Ewin_atomic@win32@common@@QAEPAXI@Z DD 019930522H
	DD	00H
	DD	00H
	DD	2 DUP(00H)
	DD	2 DUP(00H)
	DD	00H
	DD	05H
xdata$x	ENDS
; Function compile flags: /Odtp /RTCsu
; File e:\infinia-library-3.0\com\include\combufpool.h
;	COMDAT ?ISINCLUDE_ADDRESS@CSBufPool@@QAE_NPAD@Z
_TEXT	SEGMENT
_this$ = -4						; size = 4
_p$ = 8							; size = 4
?ISINCLUDE_ADDRESS@CSBufPool@@QAE_NPAD@Z PROC		; CSBufPool::ISINCLUDE_ADDRESS, COMDAT
; _this$ = ecx

; 131  : 	inline bool ISINCLUDE_ADDRESS(char *p) { if (m_pChunk <= p && p <= m_pEnd) return true; return false; }

  00000	55		 push	 ebp
  00001	8b ec		 mov	 ebp, esp
  00003	51		 push	 ecx
  00004	c7 45 fc cc cc
	cc cc		 mov	 DWORD PTR [ebp-4], -858993460 ; ccccccccH
  0000b	89 4d fc	 mov	 DWORD PTR _this$[ebp], ecx
  0000e	8b 45 fc	 mov	 eax, DWORD PTR _this$[ebp]
  00011	8b 48 10	 mov	 ecx, DWORD PTR [eax+16]
  00014	3b 4d 08	 cmp	 ecx, DWORD PTR _p$[ebp]
  00017	77 0f		 ja	 SHORT $LN2@ISINCLUDE_
  00019	8b 55 fc	 mov	 edx, DWORD PTR _this$[ebp]
  0001c	8b 45 08	 mov	 eax, DWORD PTR _p$[ebp]
  0001f	3b 42 14	 cmp	 eax, DWORD PTR [edx+20]
  00022	77 04		 ja	 SHORT $LN2@ISINCLUDE_
  00024	b0 01		 mov	 al, 1
  00026	eb 02		 jmp	 SHORT $LN1@ISINCLUDE_
$LN2@ISINCLUDE_:
  00028	32 c0		 xor	 al, al
$LN1@ISINCLUDE_:
  0002a	8b e5		 mov	 esp, ebp
  0002c	5d		 pop	 ebp
  0002d	c2 04 00	 ret	 4
?ISINCLUDE_ADDRESS@CSBufPool@@QAE_NPAD@Z ENDP		; CSBufPool::ISINCLUDE_ADDRESS
_TEXT	ENDS
; Function compile flags: /Odtp /RTCsu
; File e:\infinia-library-3.0\com\src\combufpool.cpp
_TEXT	SEGMENT
_i$ = -16						; size = 4
_nIdx$ = -12						; size = 4
_nPos$ = -8						; size = 4
_this$ = -4						; size = 4
_pUsedMem$ = 8						; size = 4
_nCount$ = 12						; size = 4
?delMem@CSBufPool@@QAE_NPADH@Z PROC			; CSBufPool::delMem
; _this$ = ecx

; 365  : {

  00000	55		 push	 ebp
  00001	8b ec		 mov	 ebp, esp
  00003	83 ec 10	 sub	 esp, 16			; 00000010H
  00006	b8 cc cc cc cc	 mov	 eax, -858993460		; ccccccccH
  0000b	89 45 f0	 mov	 DWORD PTR [ebp-16], eax
  0000e	89 45 f4	 mov	 DWORD PTR [ebp-12], eax
  00011	89 45 f8	 mov	 DWORD PTR [ebp-8], eax
  00014	89 45 fc	 mov	 DWORD PTR [ebp-4], eax
  00017	89 4d fc	 mov	 DWORD PTR _this$[ebp], ecx

; 366  : 	int nPos = (int)(pUsedMem - m_pChunk);

  0001a	8b 45 fc	 mov	 eax, DWORD PTR _this$[ebp]
  0001d	8b 4d 08	 mov	 ecx, DWORD PTR _pUsedMem$[ebp]
  00020	2b 48 10	 sub	 ecx, DWORD PTR [eax+16]
  00023	89 4d f8	 mov	 DWORD PTR _nPos$[ebp], ecx

; 367  : 	int nIdx = nPos >> m_nShift;

  00026	8b 55 fc	 mov	 edx, DWORD PTR _this$[ebp]
  00029	8b 45 f8	 mov	 eax, DWORD PTR _nPos$[ebp]
  0002c	8b 4a 0c	 mov	 ecx, DWORD PTR [edx+12]
  0002f	d3 f8		 sar	 eax, cl
  00031	89 45 f4	 mov	 DWORD PTR _nIdx$[ebp], eax

; 368  : 	int i;
; 369  : 
; 370  : 	if (pUsedMem != &m_pChunk[nPos]) return false;

  00034	8b 4d fc	 mov	 ecx, DWORD PTR _this$[ebp]
  00037	8b 51 10	 mov	 edx, DWORD PTR [ecx+16]
  0003a	03 55 f8	 add	 edx, DWORD PTR _nPos$[ebp]
  0003d	39 55 08	 cmp	 DWORD PTR _pUsedMem$[ebp], edx
  00040	74 04		 je	 SHORT $LN5@delMem
  00042	32 c0		 xor	 al, al
  00044	eb 70		 jmp	 SHORT $LN1@delMem
$LN5@delMem:

; 371  : 	for (i = 0; i < nCount; i++)

  00046	c7 45 f0 00 00
	00 00		 mov	 DWORD PTR _i$[ebp], 0
  0004d	eb 09		 jmp	 SHORT $LN4@delMem
$LN2@delMem:
  0004f	8b 45 f0	 mov	 eax, DWORD PTR _i$[ebp]
  00052	83 c0 01	 add	 eax, 1
  00055	89 45 f0	 mov	 DWORD PTR _i$[ebp], eax
$LN4@delMem:
  00058	8b 4d f0	 mov	 ecx, DWORD PTR _i$[ebp]
  0005b	3b 4d 0c	 cmp	 ecx, DWORD PTR _nCount$[ebp]
  0005e	7d 54		 jge	 SHORT $LN3@delMem

; 372  : 	{
; 373  : 		if (nIdx >= m_nAllocCount) return false;

  00060	8b 55 fc	 mov	 edx, DWORD PTR _this$[ebp]
  00063	8b 45 f4	 mov	 eax, DWORD PTR _nIdx$[ebp]
  00066	3b 42 04	 cmp	 eax, DWORD PTR [edx+4]
  00069	7c 04		 jl	 SHORT $LN6@delMem
  0006b	32 c0		 xor	 al, al
  0006d	eb 47		 jmp	 SHORT $LN1@delMem
$LN6@delMem:

; 374  : 		//printf("CBufPool::delMem nPos[%d] nIdx[%d] nShift[%d] pMem[%p]\n", nPos, nIdx, nShift, pUsedMem);
; 375  : 		if (isBitSet_flag(nIdx, m_nFlagArray))

  0006f	8b 4d fc	 mov	 ecx, DWORD PTR _this$[ebp]
  00072	8b 51 08	 mov	 edx, DWORD PTR [ecx+8]
  00075	52		 push	 edx
  00076	8b 45 f4	 mov	 eax, DWORD PTR _nIdx$[ebp]
  00079	50		 push	 eax
  0007a	e8 00 00 00 00	 call	 ?isBitSet_flag@@YA_NHPAD@Z ; isBitSet_flag
  0007f	83 c4 08	 add	 esp, 8
  00082	0f b6 c8	 movzx	 ecx, al
  00085	85 c9		 test	 ecx, ecx
  00087	74 20		 je	 SHORT $LN7@delMem

; 376  : 		{
; 377  : 			bitClear_flag(nIdx, m_nFlagArray);

  00089	8b 55 fc	 mov	 edx, DWORD PTR _this$[ebp]
  0008c	8b 42 08	 mov	 eax, DWORD PTR [edx+8]
  0008f	50		 push	 eax
  00090	8b 4d f4	 mov	 ecx, DWORD PTR _nIdx$[ebp]
  00093	51		 push	 ecx
  00094	e8 00 00 00 00	 call	 ?bitClear_flag@@YAXHPAD@Z ; bitClear_flag
  00099	83 c4 08	 add	 esp, 8

; 378  : 			m_nUseCnt--;

  0009c	8b 55 fc	 mov	 edx, DWORD PTR _this$[ebp]
  0009f	8b 02		 mov	 eax, DWORD PTR [edx]
  000a1	83 e8 01	 sub	 eax, 1
  000a4	8b 4d fc	 mov	 ecx, DWORD PTR _this$[ebp]
  000a7	89 01		 mov	 DWORD PTR [ecx], eax
$LN7@delMem:

; 379  : 		}
; 380  : 		nIdx++;

  000a9	8b 55 f4	 mov	 edx, DWORD PTR _nIdx$[ebp]
  000ac	83 c2 01	 add	 edx, 1
  000af	89 55 f4	 mov	 DWORD PTR _nIdx$[ebp], edx

; 381  : 	}

  000b2	eb 9b		 jmp	 SHORT $LN2@delMem
$LN3@delMem:

; 382  : 	return true;

  000b4	b0 01		 mov	 al, 1
$LN1@delMem:

; 383  : }

  000b6	83 c4 10	 add	 esp, 16			; 00000010H
  000b9	3b ec		 cmp	 ebp, esp
  000bb	e8 00 00 00 00	 call	 __RTC_CheckEsp
  000c0	8b e5		 mov	 esp, ebp
  000c2	5d		 pop	 ebp
  000c3	c2 08 00	 ret	 8
?delMem@CSBufPool@@QAE_NPADH@Z ENDP			; CSBufPool::delMem
_TEXT	ENDS
; Function compile flags: /Odtp /RTCsu
; File e:\infinia-library-3.0\com\src\combufpool.cpp
_TEXT	SEGMENT
_nLastLoopCnt$ = -16					; size = 4
_idx$ = -12						; size = 4
_i$ = -8						; size = 4
_this$ = -4						; size = 4
_nCount$ = 8						; size = 4
?newMemList@CSBufPool@@QAE_NH@Z PROC			; CSBufPool::newMemList
; _this$ = ecx

; 333  : {

  00000	55		 push	 ebp
  00001	8b ec		 mov	 ebp, esp
  00003	83 ec 10	 sub	 esp, 16			; 00000010H
  00006	b8 cc cc cc cc	 mov	 eax, -858993460		; ccccccccH
  0000b	89 45 f0	 mov	 DWORD PTR [ebp-16], eax
  0000e	89 45 f4	 mov	 DWORD PTR [ebp-12], eax
  00011	89 45 f8	 mov	 DWORD PTR [ebp-8], eax
  00014	89 45 fc	 mov	 DWORD PTR [ebp-4], eax
  00017	89 4d fc	 mov	 DWORD PTR _this$[ebp], ecx

; 334  : 	int i;
; 335  : 	int idx = m_nUseCnt, nLastLoopCnt=0;

  0001a	8b 45 fc	 mov	 eax, DWORD PTR _this$[ebp]
  0001d	8b 08		 mov	 ecx, DWORD PTR [eax]
  0001f	89 4d f4	 mov	 DWORD PTR _idx$[ebp], ecx
  00022	c7 45 f0 00 00
	00 00		 mov	 DWORD PTR _nLastLoopCnt$[ebp], 0

; 336  : 
; 337  : 	if (m_nUseCnt == m_nAllocCount) return false;

  00029	8b 55 fc	 mov	 edx, DWORD PTR _this$[ebp]
  0002c	8b 45 fc	 mov	 eax, DWORD PTR _this$[ebp]
  0002f	8b 0a		 mov	 ecx, DWORD PTR [edx]
  00031	3b 48 04	 cmp	 ecx, DWORD PTR [eax+4]
  00034	75 07		 jne	 SHORT $LN8@newMemList
  00036	32 c0		 xor	 al, al
  00038	e9 be 00 00 00	 jmp	 $LN1@newMemList
$LN8@newMemList:

; 338  : 
; 339  : 	for (i = 0; i < nCount; i++) {

  0003d	c7 45 f8 00 00
	00 00		 mov	 DWORD PTR _i$[ebp], 0
  00044	eb 09		 jmp	 SHORT $LN4@newMemList
$LN2@newMemList:
  00046	8b 55 f8	 mov	 edx, DWORD PTR _i$[ebp]
  00049	83 c2 01	 add	 edx, 1
  0004c	89 55 f8	 mov	 DWORD PTR _i$[ebp], edx
$LN4@newMemList:
  0004f	8b 45 f8	 mov	 eax, DWORD PTR _i$[ebp]
  00052	3b 45 08	 cmp	 eax, DWORD PTR _nCount$[ebp]
  00055	7d 3f		 jge	 SHORT $LN3@newMemList

; 340  : 		if (idx >= m_nAllocCount) break;

  00057	8b 4d fc	 mov	 ecx, DWORD PTR _this$[ebp]
  0005a	8b 55 f4	 mov	 edx, DWORD PTR _idx$[ebp]
  0005d	3b 51 04	 cmp	 edx, DWORD PTR [ecx+4]
  00060	7c 02		 jl	 SHORT $LN9@newMemList
  00062	eb 32		 jmp	 SHORT $LN3@newMemList
$LN9@newMemList:

; 341  : 		if (!isBitSet_flag(idx, m_nFlagArray))

  00064	8b 45 fc	 mov	 eax, DWORD PTR _this$[ebp]
  00067	8b 48 08	 mov	 ecx, DWORD PTR [eax+8]
  0006a	51		 push	 ecx
  0006b	8b 55 f4	 mov	 edx, DWORD PTR _idx$[ebp]
  0006e	52		 push	 edx
  0006f	e8 00 00 00 00	 call	 ?isBitSet_flag@@YA_NHPAD@Z ; isBitSet_flag
  00074	83 c4 08	 add	 esp, 8
  00077	0f b6 c0	 movzx	 eax, al
  0007a	85 c0		 test	 eax, eax
  0007c	75 0b		 jne	 SHORT $LN10@newMemList

; 342  : 		{
; 343  : 			nLastLoopCnt++;

  0007e	8b 4d f0	 mov	 ecx, DWORD PTR _nLastLoopCnt$[ebp]
  00081	83 c1 01	 add	 ecx, 1
  00084	89 4d f0	 mov	 DWORD PTR _nLastLoopCnt$[ebp], ecx

; 344  : 		}
; 345  : 		else break;

  00087	eb 02		 jmp	 SHORT $LN11@newMemList
$LN10@newMemList:
  00089	eb 0b		 jmp	 SHORT $LN3@newMemList
$LN11@newMemList:

; 346  : 		idx++;

  0008b	8b 55 f4	 mov	 edx, DWORD PTR _idx$[ebp]
  0008e	83 c2 01	 add	 edx, 1
  00091	89 55 f4	 mov	 DWORD PTR _idx$[ebp], edx

; 347  : 	}

  00094	eb b0		 jmp	 SHORT $LN2@newMemList
$LN3@newMemList:

; 348  : 
; 349  : 	if (nLastLoopCnt == nCount) {

  00096	8b 45 f0	 mov	 eax, DWORD PTR _nLastLoopCnt$[ebp]
  00099	3b 45 08	 cmp	 eax, DWORD PTR _nCount$[ebp]
  0009c	75 11		 jne	 SHORT $LN12@newMemList

; 350  : 		m_nUseCnt += nCount;

  0009e	8b 4d fc	 mov	 ecx, DWORD PTR _this$[ebp]
  000a1	8b 11		 mov	 edx, DWORD PTR [ecx]
  000a3	03 55 08	 add	 edx, DWORD PTR _nCount$[ebp]
  000a6	8b 45 fc	 mov	 eax, DWORD PTR _this$[ebp]
  000a9	89 10		 mov	 DWORD PTR [eax], edx

; 351  : 		return true;

  000ab	b0 01		 mov	 al, 1
  000ad	eb 4c		 jmp	 SHORT $LN1@newMemList
$LN12@newMemList:

; 352  : 	}
; 353  : 
; 354  : 	for (idx = m_nUseCnt; idx < nLastLoopCnt; idx++) {

  000af	8b 4d fc	 mov	 ecx, DWORD PTR _this$[ebp]
  000b2	8b 11		 mov	 edx, DWORD PTR [ecx]
  000b4	89 55 f4	 mov	 DWORD PTR _idx$[ebp], edx
  000b7	eb 09		 jmp	 SHORT $LN7@newMemList
$LN5@newMemList:
  000b9	8b 45 f4	 mov	 eax, DWORD PTR _idx$[ebp]
  000bc	83 c0 01	 add	 eax, 1
  000bf	89 45 f4	 mov	 DWORD PTR _idx$[ebp], eax
$LN7@newMemList:
  000c2	8b 4d f4	 mov	 ecx, DWORD PTR _idx$[ebp]
  000c5	3b 4d f0	 cmp	 ecx, DWORD PTR _nLastLoopCnt$[ebp]
  000c8	7d 2f		 jge	 SHORT $LN6@newMemList

; 355  : 		if (isBitSet_flag(idx, m_nFlagArray))

  000ca	8b 55 fc	 mov	 edx, DWORD PTR _this$[ebp]
  000cd	8b 42 08	 mov	 eax, DWORD PTR [edx+8]
  000d0	50		 push	 eax
  000d1	8b 4d f4	 mov	 ecx, DWORD PTR _idx$[ebp]
  000d4	51		 push	 ecx
  000d5	e8 00 00 00 00	 call	 ?isBitSet_flag@@YA_NHPAD@Z ; isBitSet_flag
  000da	83 c4 08	 add	 esp, 8
  000dd	0f b6 d0	 movzx	 edx, al
  000e0	85 d2		 test	 edx, edx
  000e2	74 13		 je	 SHORT $LN13@newMemList

; 356  : 		{
; 357  : 			bitClear_flag(idx, m_nFlagArray);

  000e4	8b 45 fc	 mov	 eax, DWORD PTR _this$[ebp]
  000e7	8b 48 08	 mov	 ecx, DWORD PTR [eax+8]
  000ea	51		 push	 ecx
  000eb	8b 55 f4	 mov	 edx, DWORD PTR _idx$[ebp]
  000ee	52		 push	 edx
  000ef	e8 00 00 00 00	 call	 ?bitClear_flag@@YAXHPAD@Z ; bitClear_flag
  000f4	83 c4 08	 add	 esp, 8
$LN13@newMemList:

; 358  : 		}
; 359  : 	}

  000f7	eb c0		 jmp	 SHORT $LN5@newMemList
$LN6@newMemList:

; 360  : 	return false;

  000f9	32 c0		 xor	 al, al
$LN1@newMemList:

; 361  : }

  000fb	83 c4 10	 add	 esp, 16			; 00000010H
  000fe	3b ec		 cmp	 ebp, esp
  00100	e8 00 00 00 00	 call	 __RTC_CheckEsp
  00105	8b e5		 mov	 esp, ebp
  00107	5d		 pop	 ebp
  00108	c2 04 00	 ret	 4
?newMemList@CSBufPool@@QAE_NH@Z ENDP			; CSBufPool::newMemList
_TEXT	ENDS
; Function compile flags: /Odtp /RTCsu
; File e:\infinia-library-3.0\com\src\combufpool.cpp
_TEXT	SEGMENT
_this$ = -4						; size = 4
_pUsedMem$ = 8						; size = 4
_nIdx$ = 12						; size = 4
?delMemByIdx@CSBufPool@@QAE_NPADH@Z PROC		; CSBufPool::delMemByIdx
; _this$ = ecx

; 316  : {

  00000	55		 push	 ebp
  00001	8b ec		 mov	 ebp, esp
  00003	51		 push	 ecx
  00004	56		 push	 esi
  00005	c7 45 fc cc cc
	cc cc		 mov	 DWORD PTR [ebp-4], -858993460 ; ccccccccH
  0000c	89 4d fc	 mov	 DWORD PTR _this$[ebp], ecx

; 317  : 	if (!ISINCLUDE(nIdx, m_nAllocCount)) {

  0000f	8b 45 fc	 mov	 eax, DWORD PTR _this$[ebp]
  00012	8b 48 04	 mov	 ecx, DWORD PTR [eax+4]
  00015	51		 push	 ecx
  00016	8b 55 0c	 mov	 edx, DWORD PTR _nIdx$[ebp]
  00019	52		 push	 edx
  0001a	e8 00 00 00 00	 call	 ?ISINCLUDE@@YA_NHH@Z	; ISINCLUDE
  0001f	83 c4 08	 add	 esp, 8
  00022	0f b6 c0	 movzx	 eax, al
  00025	85 c0		 test	 eax, eax
  00027	75 1a		 jne	 SHORT $LN2@delMemById

; 318  : 		free(pUsedMem);

  00029	8b f4		 mov	 esi, esp
  0002b	8b 4d 08	 mov	 ecx, DWORD PTR _pUsedMem$[ebp]
  0002e	51		 push	 ecx
  0002f	ff 15 00 00 00
	00		 call	 DWORD PTR __imp__free
  00035	83 c4 04	 add	 esp, 4
  00038	3b f4		 cmp	 esi, esp
  0003a	e8 00 00 00 00	 call	 __RTC_CheckEsp

; 319  : 		return false;

  0003f	32 c0		 xor	 al, al
  00041	eb 3e		 jmp	 SHORT $LN1@delMemById
$LN2@delMemById:

; 320  : 	}
; 321  : 
; 322  : 	if (pUsedMem == &m_pChunk[nIdx << m_nShift]) {

  00043	8b 55 fc	 mov	 edx, DWORD PTR _this$[ebp]
  00046	8b 45 0c	 mov	 eax, DWORD PTR _nIdx$[ebp]
  00049	8b 4a 0c	 mov	 ecx, DWORD PTR [edx+12]
  0004c	d3 e0		 shl	 eax, cl
  0004e	8b 4d fc	 mov	 ecx, DWORD PTR _this$[ebp]
  00051	8b 51 10	 mov	 edx, DWORD PTR [ecx+16]
  00054	03 d0		 add	 edx, eax
  00056	39 55 08	 cmp	 DWORD PTR _pUsedMem$[ebp], edx
  00059	75 24		 jne	 SHORT $LN3@delMemById

; 323  : 		bitClear_flag(nIdx, m_nFlagArray);

  0005b	8b 45 fc	 mov	 eax, DWORD PTR _this$[ebp]
  0005e	8b 48 08	 mov	 ecx, DWORD PTR [eax+8]
  00061	51		 push	 ecx
  00062	8b 55 0c	 mov	 edx, DWORD PTR _nIdx$[ebp]
  00065	52		 push	 edx
  00066	e8 00 00 00 00	 call	 ?bitClear_flag@@YAXHPAD@Z ; bitClear_flag
  0006b	83 c4 08	 add	 esp, 8

; 324  : 		m_nUseCnt--;

  0006e	8b 45 fc	 mov	 eax, DWORD PTR _this$[ebp]
  00071	8b 08		 mov	 ecx, DWORD PTR [eax]
  00073	83 e9 01	 sub	 ecx, 1
  00076	8b 55 fc	 mov	 edx, DWORD PTR _this$[ebp]
  00079	89 0a		 mov	 DWORD PTR [edx], ecx

; 325  : 		return true;

  0007b	b0 01		 mov	 al, 1
  0007d	eb 02		 jmp	 SHORT $LN1@delMemById
$LN3@delMemById:

; 326  : 	}
; 327  : 	return false;

  0007f	32 c0		 xor	 al, al
$LN1@delMemById:

; 328  : }

  00081	5e		 pop	 esi
  00082	83 c4 04	 add	 esp, 4
  00085	3b ec		 cmp	 ebp, esp
  00087	e8 00 00 00 00	 call	 __RTC_CheckEsp
  0008c	8b e5		 mov	 esp, ebp
  0008e	5d		 pop	 ebp
  0008f	c2 08 00	 ret	 8
?delMemByIdx@CSBufPool@@QAE_NPADH@Z ENDP		; CSBufPool::delMemByIdx
_TEXT	ENDS
; Function compile flags: /Odtp /RTCsu
; File e:\infinia-library-3.0\com\src\combufpool.cpp
_TEXT	SEGMENT
_nPos$ = -8						; size = 4
_this$ = -4						; size = 4
_pUsedMem$ = 8						; size = 4
?delMem@CSBufPool@@QAE_NPAD@Z PROC			; CSBufPool::delMem
; _this$ = ecx

; 299  : {

  00000	55		 push	 ebp
  00001	8b ec		 mov	 ebp, esp
  00003	83 ec 08	 sub	 esp, 8
  00006	56		 push	 esi
  00007	c7 45 f8 cc cc
	cc cc		 mov	 DWORD PTR [ebp-8], -858993460 ; ccccccccH
  0000e	c7 45 fc cc cc
	cc cc		 mov	 DWORD PTR [ebp-4], -858993460 ; ccccccccH
  00015	89 4d fc	 mov	 DWORD PTR _this$[ebp], ecx

; 300  : 	if (!ISINCLUDE_ADDRESS(pUsedMem)) {

  00018	8b 45 08	 mov	 eax, DWORD PTR _pUsedMem$[ebp]
  0001b	50		 push	 eax
  0001c	8b 4d fc	 mov	 ecx, DWORD PTR _this$[ebp]
  0001f	e8 00 00 00 00	 call	 ?ISINCLUDE_ADDRESS@CSBufPool@@QAE_NPAD@Z ; CSBufPool::ISINCLUDE_ADDRESS
  00024	0f b6 c8	 movzx	 ecx, al
  00027	85 c9		 test	 ecx, ecx
  00029	75 1a		 jne	 SHORT $LN2@delMem

; 301  : 		free(pUsedMem);

  0002b	8b f4		 mov	 esi, esp
  0002d	8b 55 08	 mov	 edx, DWORD PTR _pUsedMem$[ebp]
  00030	52		 push	 edx
  00031	ff 15 00 00 00
	00		 call	 DWORD PTR __imp__free
  00037	83 c4 04	 add	 esp, 4
  0003a	3b f4		 cmp	 esi, esp
  0003c	e8 00 00 00 00	 call	 __RTC_CheckEsp

; 302  : 		return false;

  00041	32 c0		 xor	 al, al
  00043	eb 48		 jmp	 SHORT $LN1@delMem
$LN2@delMem:

; 303  : 	}
; 304  : 	int nPos = (int)(pUsedMem - m_pChunk);

  00045	8b 45 fc	 mov	 eax, DWORD PTR _this$[ebp]
  00048	8b 4d 08	 mov	 ecx, DWORD PTR _pUsedMem$[ebp]
  0004b	2b 48 10	 sub	 ecx, DWORD PTR [eax+16]
  0004e	89 4d f8	 mov	 DWORD PTR _nPos$[ebp], ecx

; 305  : 
; 306  : 	if (pUsedMem == &m_pChunk[nPos]) {

  00051	8b 55 fc	 mov	 edx, DWORD PTR _this$[ebp]
  00054	8b 42 10	 mov	 eax, DWORD PTR [edx+16]
  00057	03 45 f8	 add	 eax, DWORD PTR _nPos$[ebp]
  0005a	39 45 08	 cmp	 DWORD PTR _pUsedMem$[ebp], eax
  0005d	75 2c		 jne	 SHORT $LN3@delMem

; 307  : 		bitClear_flag(nPos >> m_nShift, m_nFlagArray);

  0005f	8b 4d fc	 mov	 ecx, DWORD PTR _this$[ebp]
  00062	8b 51 08	 mov	 edx, DWORD PTR [ecx+8]
  00065	52		 push	 edx
  00066	8b 45 fc	 mov	 eax, DWORD PTR _this$[ebp]
  00069	8b 55 f8	 mov	 edx, DWORD PTR _nPos$[ebp]
  0006c	8b 48 0c	 mov	 ecx, DWORD PTR [eax+12]
  0006f	d3 fa		 sar	 edx, cl
  00071	52		 push	 edx
  00072	e8 00 00 00 00	 call	 ?bitClear_flag@@YAXHPAD@Z ; bitClear_flag
  00077	83 c4 08	 add	 esp, 8

; 308  : 		m_nUseCnt--;

  0007a	8b 45 fc	 mov	 eax, DWORD PTR _this$[ebp]
  0007d	8b 08		 mov	 ecx, DWORD PTR [eax]
  0007f	83 e9 01	 sub	 ecx, 1
  00082	8b 55 fc	 mov	 edx, DWORD PTR _this$[ebp]
  00085	89 0a		 mov	 DWORD PTR [edx], ecx

; 309  : 		return true;

  00087	b0 01		 mov	 al, 1
  00089	eb 02		 jmp	 SHORT $LN1@delMem
$LN3@delMem:

; 310  : 	}
; 311  : 	return false;

  0008b	32 c0		 xor	 al, al
$LN1@delMem:

; 312  : }

  0008d	5e		 pop	 esi
  0008e	83 c4 08	 add	 esp, 8
  00091	3b ec		 cmp	 ebp, esp
  00093	e8 00 00 00 00	 call	 __RTC_CheckEsp
  00098	8b e5		 mov	 esp, ebp
  0009a	5d		 pop	 ebp
  0009b	c2 04 00	 ret	 4
?delMem@CSBufPool@@QAE_NPAD@Z ENDP			; CSBufPool::delMem
_TEXT	ENDS
; Function compile flags: /Odtp /RTCsu
; File e:\infinia-library-3.0\com\src\combufpool.cpp
_TEXT	SEGMENT
_j$ = -12						; size = 4
_i$ = -8						; size = 4
_this$ = -4						; size = 4
_pKey$ = 8						; size = 4
?newMem@CSBufPool@@QAEPADPAH@Z PROC			; CSBufPool::newMem
; _this$ = ecx

; 271  : {

  00000	55		 push	 ebp
  00001	8b ec		 mov	 ebp, esp
  00003	83 ec 0c	 sub	 esp, 12			; 0000000cH
  00006	56		 push	 esi
  00007	c7 45 f4 cc cc
	cc cc		 mov	 DWORD PTR [ebp-12], -858993460 ; ccccccccH
  0000e	c7 45 f8 cc cc
	cc cc		 mov	 DWORD PTR [ebp-8], -858993460 ; ccccccccH
  00015	c7 45 fc cc cc
	cc cc		 mov	 DWORD PTR [ebp-4], -858993460 ; ccccccccH
  0001c	89 4d fc	 mov	 DWORD PTR _this$[ebp], ecx

; 272  : 	int i = m_nUseCnt, j;

  0001f	8b 45 fc	 mov	 eax, DWORD PTR _this$[ebp]
  00022	8b 08		 mov	 ecx, DWORD PTR [eax]
  00024	89 4d f8	 mov	 DWORD PTR _i$[ebp], ecx

; 273  : 
; 274  : 	if (m_nUseCnt == m_nAllocCount) goto NEW_ALLOC;

  00027	8b 55 fc	 mov	 edx, DWORD PTR _this$[ebp]
  0002a	8b 45 fc	 mov	 eax, DWORD PTR _this$[ebp]
  0002d	8b 0a		 mov	 ecx, DWORD PTR [edx]
  0002f	3b 48 04	 cmp	 ecx, DWORD PTR [eax+4]
  00032	75 0a		 jne	 SHORT $LN5@newMem
  00034	e9 c6 00 00 00	 jmp	 $NEW_ALLOC$12
  00039	e9 c1 00 00 00	 jmp	 $NEW_ALLOC$12
$LN5@newMem:

; 275  : 
; 276  : 	for (j = 0; j < m_nAllocCount; j++) {

  0003e	c7 45 f4 00 00
	00 00		 mov	 DWORD PTR _j$[ebp], 0
  00045	eb 09		 jmp	 SHORT $LN4@newMem
$LN2@newMem:
  00047	8b 55 f4	 mov	 edx, DWORD PTR _j$[ebp]
  0004a	83 c2 01	 add	 edx, 1
  0004d	89 55 f4	 mov	 DWORD PTR _j$[ebp], edx
$LN4@newMem:
  00050	8b 45 fc	 mov	 eax, DWORD PTR _this$[ebp]
  00053	8b 4d f4	 mov	 ecx, DWORD PTR _j$[ebp]
  00056	3b 48 04	 cmp	 ecx, DWORD PTR [eax+4]
  00059	0f 8d a0 00 00
	00		 jge	 $NEW_ALLOC$12

; 277  : 		if (i >= m_nAllocCount) { i = 0; }

  0005f	8b 55 fc	 mov	 edx, DWORD PTR _this$[ebp]
  00062	8b 45 f8	 mov	 eax, DWORD PTR _i$[ebp]
  00065	3b 42 04	 cmp	 eax, DWORD PTR [edx+4]
  00068	7c 07		 jl	 SHORT $LN7@newMem
  0006a	c7 45 f8 00 00
	00 00		 mov	 DWORD PTR _i$[ebp], 0
$LN7@newMem:

; 278  : 		if (!isBitSet_flag(i, m_nFlagArray)) {

  00071	8b 4d fc	 mov	 ecx, DWORD PTR _this$[ebp]
  00074	8b 51 08	 mov	 edx, DWORD PTR [ecx+8]
  00077	52		 push	 edx
  00078	8b 45 f8	 mov	 eax, DWORD PTR _i$[ebp]
  0007b	50		 push	 eax
  0007c	e8 00 00 00 00	 call	 ?isBitSet_flag@@YA_NHPAD@Z ; isBitSet_flag
  00081	83 c4 08	 add	 esp, 8
  00084	0f b6 c8	 movzx	 ecx, al
  00087	85 c9		 test	 ecx, ecx
  00089	75 6f		 jne	 SHORT $LN8@newMem

; 279  : 			if (pKey) {

  0008b	83 7d 08 00	 cmp	 DWORD PTR _pKey$[ebp], 0
  0008f	74 08		 je	 SHORT $LN9@newMem

; 280  : 				*pKey = i;

  00091	8b 55 08	 mov	 edx, DWORD PTR _pKey$[ebp]
  00094	8b 45 f8	 mov	 eax, DWORD PTR _i$[ebp]
  00097	89 02		 mov	 DWORD PTR [edx], eax
$LN9@newMem:

; 281  : 			}
; 282  : 			m_nUseCnt++;

  00099	8b 4d fc	 mov	 ecx, DWORD PTR _this$[ebp]
  0009c	8b 11		 mov	 edx, DWORD PTR [ecx]
  0009e	83 c2 01	 add	 edx, 1
  000a1	8b 45 fc	 mov	 eax, DWORD PTR _this$[ebp]
  000a4	89 10		 mov	 DWORD PTR [eax], edx

; 283  : 			bitSet_flag(i, m_nFlagArray);

  000a6	8b 4d fc	 mov	 ecx, DWORD PTR _this$[ebp]
  000a9	8b 51 08	 mov	 edx, DWORD PTR [ecx+8]
  000ac	52		 push	 edx
  000ad	8b 45 f8	 mov	 eax, DWORD PTR _i$[ebp]
  000b0	50		 push	 eax
  000b1	e8 00 00 00 00	 call	 ?bitSet_flag@@YAXHPAD@Z	; bitSet_flag
  000b6	83 c4 08	 add	 esp, 8

; 284  : 			memset(&m_pChunk[i<<m_nShift], 0, g_nSizeList[m_nShift]);

  000b9	8b 4d fc	 mov	 ecx, DWORD PTR _this$[ebp]
  000bc	8b 51 0c	 mov	 edx, DWORD PTR [ecx+12]
  000bf	8b 04 95 00 00
	00 00		 mov	 eax, DWORD PTR ?g_nSizeList@@3QBHB[edx*4]
  000c6	50		 push	 eax
  000c7	6a 00		 push	 0
  000c9	8b 4d fc	 mov	 ecx, DWORD PTR _this$[ebp]
  000cc	8b 55 f8	 mov	 edx, DWORD PTR _i$[ebp]
  000cf	8b 49 0c	 mov	 ecx, DWORD PTR [ecx+12]
  000d2	d3 e2		 shl	 edx, cl
  000d4	8b 45 fc	 mov	 eax, DWORD PTR _this$[ebp]
  000d7	8b 48 10	 mov	 ecx, DWORD PTR [eax+16]
  000da	03 ca		 add	 ecx, edx
  000dc	51		 push	 ecx
  000dd	e8 00 00 00 00	 call	 _memset
  000e2	83 c4 0c	 add	 esp, 12			; 0000000cH

; 285  : 			return &m_pChunk[i << m_nShift];

  000e5	8b 55 fc	 mov	 edx, DWORD PTR _this$[ebp]
  000e8	8b 45 f8	 mov	 eax, DWORD PTR _i$[ebp]
  000eb	8b 4a 0c	 mov	 ecx, DWORD PTR [edx+12]
  000ee	d3 e0		 shl	 eax, cl
  000f0	8b 4d fc	 mov	 ecx, DWORD PTR _this$[ebp]
  000f3	8b 51 10	 mov	 edx, DWORD PTR [ecx+16]
  000f6	03 c2		 add	 eax, edx
  000f8	eb 36		 jmp	 SHORT $LN1@newMem
$LN8@newMem:

; 286  : 		}
; 287  : 	}

  000fa	e9 48 ff ff ff	 jmp	 $LN2@newMem
$NEW_ALLOC$12:

; 288  : 
; 289  : NEW_ALLOC:
; 290  : 	if (pKey) {

  000ff	83 7d 08 00	 cmp	 DWORD PTR _pKey$[ebp], 0
  00103	74 09		 je	 SHORT $LN10@newMem

; 291  : 		*pKey = -1;

  00105	8b 45 08	 mov	 eax, DWORD PTR _pKey$[ebp]
  00108	c7 00 ff ff ff
	ff		 mov	 DWORD PTR [eax], -1
$LN10@newMem:

; 292  : 	}
; 293  : 	return (char *)calloc(1, g_nSizeList[m_nShift]);

  0010e	8b 4d fc	 mov	 ecx, DWORD PTR _this$[ebp]
  00111	8b 51 0c	 mov	 edx, DWORD PTR [ecx+12]
  00114	8b f4		 mov	 esi, esp
  00116	8b 04 95 00 00
	00 00		 mov	 eax, DWORD PTR ?g_nSizeList@@3QBHB[edx*4]
  0011d	50		 push	 eax
  0011e	6a 01		 push	 1
  00120	ff 15 00 00 00
	00		 call	 DWORD PTR __imp__calloc
  00126	83 c4 08	 add	 esp, 8
  00129	3b f4		 cmp	 esi, esp
  0012b	e8 00 00 00 00	 call	 __RTC_CheckEsp
$LN1@newMem:

; 294  : }

  00130	5e		 pop	 esi
  00131	83 c4 0c	 add	 esp, 12			; 0000000cH
  00134	3b ec		 cmp	 ebp, esp
  00136	e8 00 00 00 00	 call	 __RTC_CheckEsp
  0013b	8b e5		 mov	 esp, ebp
  0013d	5d		 pop	 ebp
  0013e	c2 04 00	 ret	 4
?newMem@CSBufPool@@QAEPADPAH@Z ENDP			; CSBufPool::newMem
_TEXT	ENDS
; Function compile flags: /Odtp /RTCsu
; File e:\infinia-library-3.0\com\src\combufpool.cpp
_TEXT	SEGMENT
_this$ = -4						; size = 4
?destroy@CSBufPool@@QAEXXZ PROC				; CSBufPool::destroy
; _this$ = ecx

; 217  : {

  00000	55		 push	 ebp
  00001	8b ec		 mov	 ebp, esp
  00003	51		 push	 ecx
  00004	56		 push	 esi
  00005	c7 45 fc cc cc
	cc cc		 mov	 DWORD PTR [ebp-4], -858993460 ; ccccccccH
  0000c	89 4d fc	 mov	 DWORD PTR _this$[ebp], ecx

; 218  : 	if (m_pChunk) {

  0000f	8b 45 fc	 mov	 eax, DWORD PTR _this$[ebp]
  00012	83 78 10 00	 cmp	 DWORD PTR [eax+16], 0
  00016	74 23		 je	 SHORT $LN2@destroy

; 219  : 		free(m_pChunk);

  00018	8b f4		 mov	 esi, esp
  0001a	8b 4d fc	 mov	 ecx, DWORD PTR _this$[ebp]
  0001d	8b 51 10	 mov	 edx, DWORD PTR [ecx+16]
  00020	52		 push	 edx
  00021	ff 15 00 00 00
	00		 call	 DWORD PTR __imp__free
  00027	83 c4 04	 add	 esp, 4
  0002a	3b f4		 cmp	 esi, esp
  0002c	e8 00 00 00 00	 call	 __RTC_CheckEsp

; 220  : 		m_pChunk = NULL;

  00031	8b 45 fc	 mov	 eax, DWORD PTR _this$[ebp]
  00034	c7 40 10 00 00
	00 00		 mov	 DWORD PTR [eax+16], 0
$LN2@destroy:

; 221  : 	}
; 222  : 
; 223  : 	if (m_nFlagArray) {

  0003b	8b 4d fc	 mov	 ecx, DWORD PTR _this$[ebp]
  0003e	83 79 08 00	 cmp	 DWORD PTR [ecx+8], 0
  00042	74 23		 je	 SHORT $LN1@destroy

; 224  : 		free(m_nFlagArray);

  00044	8b f4		 mov	 esi, esp
  00046	8b 55 fc	 mov	 edx, DWORD PTR _this$[ebp]
  00049	8b 42 08	 mov	 eax, DWORD PTR [edx+8]
  0004c	50		 push	 eax
  0004d	ff 15 00 00 00
	00		 call	 DWORD PTR __imp__free
  00053	83 c4 04	 add	 esp, 4
  00056	3b f4		 cmp	 esi, esp
  00058	e8 00 00 00 00	 call	 __RTC_CheckEsp

; 225  : 		m_nFlagArray = NULL;

  0005d	8b 4d fc	 mov	 ecx, DWORD PTR _this$[ebp]
  00060	c7 41 08 00 00
	00 00		 mov	 DWORD PTR [ecx+8], 0
$LN1@destroy:

; 226  : 	}
; 227  : }

  00067	5e		 pop	 esi
  00068	83 c4 04	 add	 esp, 4
  0006b	3b ec		 cmp	 ebp, esp
  0006d	e8 00 00 00 00	 call	 __RTC_CheckEsp
  00072	8b e5		 mov	 esp, ebp
  00074	5d		 pop	 ebp
  00075	c3		 ret	 0
?destroy@CSBufPool@@QAEXXZ ENDP				; CSBufPool::destroy
_TEXT	ENDS
; Function compile flags: /Odtp /RTCsu
; File e:\infinia-library-3.0\com\src\combufpool.cpp
_TEXT	SEGMENT
_nFCount$ = -8						; size = 4
_this$ = -4						; size = 4
_nShift$ = 8						; size = 4
_nMaxCount$ = 12					; size = 4
?alloc@CSBufPool@@QAE_NHH@Z PROC			; CSBufPool::alloc
; _this$ = ecx

; 232  : {

  00000	55		 push	 ebp
  00001	8b ec		 mov	 ebp, esp
  00003	83 ec 08	 sub	 esp, 8
  00006	56		 push	 esi
  00007	c7 45 f8 cc cc
	cc cc		 mov	 DWORD PTR [ebp-8], -858993460 ; ccccccccH
  0000e	c7 45 fc cc cc
	cc cc		 mov	 DWORD PTR [ebp-4], -858993460 ; ccccccccH
  00015	89 4d fc	 mov	 DWORD PTR _this$[ebp], ecx

; 233  : 	int nFCount = (nMaxCount >> 3) + 1;

  00018	8b 45 0c	 mov	 eax, DWORD PTR _nMaxCount$[ebp]
  0001b	c1 f8 03	 sar	 eax, 3
  0001e	83 c0 01	 add	 eax, 1
  00021	89 45 f8	 mov	 DWORD PTR _nFCount$[ebp], eax

; 234  : 	m_nFlagArray = (char *)calloc(nFCount, sizeof(char));

  00024	8b f4		 mov	 esi, esp
  00026	6a 01		 push	 1
  00028	8b 4d f8	 mov	 ecx, DWORD PTR _nFCount$[ebp]
  0002b	51		 push	 ecx
  0002c	ff 15 00 00 00
	00		 call	 DWORD PTR __imp__calloc
  00032	83 c4 08	 add	 esp, 8
  00035	3b f4		 cmp	 esi, esp
  00037	e8 00 00 00 00	 call	 __RTC_CheckEsp
  0003c	8b 55 fc	 mov	 edx, DWORD PTR _this$[ebp]
  0003f	89 42 08	 mov	 DWORD PTR [edx+8], eax

; 235  : 
; 236  : 	if (m_nFlagArray == NULL) {

  00042	8b 45 fc	 mov	 eax, DWORD PTR _this$[ebp]
  00045	83 78 08 00	 cmp	 DWORD PTR [eax+8], 0
  00049	75 25		 jne	 SHORT $LN2@alloc

; 237  : 		gs_cLogger.DebugLog(LEVEL_ERROR, "m_nFlagArray alloc");

  0004b	68 00 00 00 00	 push	 OFFSET $SG44717
  00050	68 ed 00 00 00	 push	 237			; 000000edH
  00055	68 00 00 00 00	 push	 OFFSET $SG44718
  0005a	6a 05		 push	 5
  0005c	68 00 00 00 00	 push	 OFFSET ?gs_cLogger@@3VCLogger@@A ; gs_cLogger
  00061	e8 00 00 00 00	 call	 ?__debugLog@CLogger@@QAAXHPBDH0ZZ ; CLogger::__debugLog
  00066	83 c4 14	 add	 esp, 20			; 00000014H

; 238  : 		return false;

  00069	32 c0		 xor	 al, al
  0006b	e9 c6 00 00 00	 jmp	 $LN1@alloc
$LN2@alloc:

; 239  : 	} 
; 240  : 	m_nShift = nShift;

  00070	8b 4d fc	 mov	 ecx, DWORD PTR _this$[ebp]
  00073	8b 55 08	 mov	 edx, DWORD PTR _nShift$[ebp]
  00076	89 51 0c	 mov	 DWORD PTR [ecx+12], edx

; 241  : 	m_pChunk = (char *)calloc(nMaxCount, getSizeByIndex(m_nShift));

  00079	8b 45 fc	 mov	 eax, DWORD PTR _this$[ebp]
  0007c	8b 48 0c	 mov	 ecx, DWORD PTR [eax+12]
  0007f	51		 push	 ecx
  00080	e8 00 00 00 00	 call	 ?getSizeByIndex@@YAHH@Z	; getSizeByIndex
  00085	83 c4 04	 add	 esp, 4
  00088	8b f4		 mov	 esi, esp
  0008a	50		 push	 eax
  0008b	8b 55 0c	 mov	 edx, DWORD PTR _nMaxCount$[ebp]
  0008e	52		 push	 edx
  0008f	ff 15 00 00 00
	00		 call	 DWORD PTR __imp__calloc
  00095	83 c4 08	 add	 esp, 8
  00098	3b f4		 cmp	 esi, esp
  0009a	e8 00 00 00 00	 call	 __RTC_CheckEsp
  0009f	8b 4d fc	 mov	 ecx, DWORD PTR _this$[ebp]
  000a2	89 41 10	 mov	 DWORD PTR [ecx+16], eax

; 242  : 
; 243  : 	if (m_pChunk == NULL) {

  000a5	8b 55 fc	 mov	 edx, DWORD PTR _this$[ebp]
  000a8	83 7a 10 00	 cmp	 DWORD PTR [edx+16], 0
  000ac	75 45		 jne	 SHORT $LN3@alloc

; 244  : 		free(m_pChunk);

  000ae	8b f4		 mov	 esi, esp
  000b0	8b 45 fc	 mov	 eax, DWORD PTR _this$[ebp]
  000b3	8b 48 10	 mov	 ecx, DWORD PTR [eax+16]
  000b6	51		 push	 ecx
  000b7	ff 15 00 00 00
	00		 call	 DWORD PTR __imp__free
  000bd	83 c4 04	 add	 esp, 4
  000c0	3b f4		 cmp	 esi, esp
  000c2	e8 00 00 00 00	 call	 __RTC_CheckEsp

; 245  : 		m_pChunk = NULL;

  000c7	8b 55 fc	 mov	 edx, DWORD PTR _this$[ebp]
  000ca	c7 42 10 00 00
	00 00		 mov	 DWORD PTR [edx+16], 0

; 246  : 		gs_cLogger.DebugLog(LEVEL_ERROR, "m_pChunk alloc");

  000d1	68 00 00 00 00	 push	 OFFSET $SG44720
  000d6	68 f6 00 00 00	 push	 246			; 000000f6H
  000db	68 00 00 00 00	 push	 OFFSET $SG44721
  000e0	6a 05		 push	 5
  000e2	68 00 00 00 00	 push	 OFFSET ?gs_cLogger@@3VCLogger@@A ; gs_cLogger
  000e7	e8 00 00 00 00	 call	 ?__debugLog@CLogger@@QAAXHPBDH0ZZ ; CLogger::__debugLog
  000ec	83 c4 14	 add	 esp, 20			; 00000014H

; 247  : 		return false;

  000ef	32 c0		 xor	 al, al
  000f1	eb 43		 jmp	 SHORT $LN1@alloc
$LN3@alloc:

; 248  : 	}
; 249  : 
; 250  : 	m_nAllocCount = nMaxCount;

  000f3	8b 45 fc	 mov	 eax, DWORD PTR _this$[ebp]
  000f6	8b 4d 0c	 mov	 ecx, DWORD PTR _nMaxCount$[ebp]
  000f9	89 48 04	 mov	 DWORD PTR [eax+4], ecx

; 251  : 	m_pEnd = &m_pChunk[(m_nAllocCount - 1)<< m_nShift];

  000fc	8b 55 fc	 mov	 edx, DWORD PTR _this$[ebp]
  000ff	8b 42 04	 mov	 eax, DWORD PTR [edx+4]
  00102	83 e8 01	 sub	 eax, 1
  00105	8b 4d fc	 mov	 ecx, DWORD PTR _this$[ebp]
  00108	8b 49 0c	 mov	 ecx, DWORD PTR [ecx+12]
  0010b	d3 e0		 shl	 eax, cl
  0010d	8b 55 fc	 mov	 edx, DWORD PTR _this$[ebp]
  00110	8b 4a 10	 mov	 ecx, DWORD PTR [edx+16]
  00113	03 c8		 add	 ecx, eax
  00115	8b 55 fc	 mov	 edx, DWORD PTR _this$[ebp]
  00118	89 4a 14	 mov	 DWORD PTR [edx+20], ecx

; 252  : 	_stprintf(g_szMessage, _T("mem allock list m_nAllocCount[%d]"), m_nAllocCount);

  0011b	8b 45 fc	 mov	 eax, DWORD PTR _this$[ebp]
  0011e	8b 48 04	 mov	 ecx, DWORD PTR [eax+4]
  00121	51		 push	 ecx
  00122	68 00 00 00 00	 push	 OFFSET $SG44722
  00127	68 00 00 00 00	 push	 OFFSET ?g_szMessage@@3PADA ; g_szMessage
  0012c	e8 00 00 00 00	 call	 _sprintf
  00131	83 c4 0c	 add	 esp, 12			; 0000000cH

; 253  : 
; 254  : 	return true;

  00134	b0 01		 mov	 al, 1
$LN1@alloc:

; 255  : }

  00136	5e		 pop	 esi
  00137	83 c4 08	 add	 esp, 8
  0013a	3b ec		 cmp	 ebp, esp
  0013c	e8 00 00 00 00	 call	 __RTC_CheckEsp
  00141	8b e5		 mov	 esp, ebp
  00143	5d		 pop	 ebp
  00144	c2 08 00	 ret	 8
?alloc@CSBufPool@@QAE_NHH@Z ENDP			; CSBufPool::alloc
_TEXT	ENDS
; Function compile flags: /Odtp /RTCsu
; File e:\infinia-library-3.0\com\src\combufpool.cpp
_TEXT	SEGMENT
_this$ = -4						; size = 4
?clear@CSBufPool@@QAEXXZ PROC				; CSBufPool::clear
; _this$ = ecx

; 260  : {

  00000	55		 push	 ebp
  00001	8b ec		 mov	 ebp, esp
  00003	51		 push	 ecx
  00004	c7 45 fc cc cc
	cc cc		 mov	 DWORD PTR [ebp-4], -858993460 ; ccccccccH
  0000b	89 4d fc	 mov	 DWORD PTR _this$[ebp], ecx

; 261  : 	memset(m_nFlagArray, 0, sizeof(m_nFlagArray));

  0000e	6a 04		 push	 4
  00010	6a 00		 push	 0
  00012	8b 45 fc	 mov	 eax, DWORD PTR _this$[ebp]
  00015	8b 48 08	 mov	 ecx, DWORD PTR [eax+8]
  00018	51		 push	 ecx
  00019	e8 00 00 00 00	 call	 _memset
  0001e	83 c4 0c	 add	 esp, 12			; 0000000cH

; 262  : 	m_nUseCnt = 0;

  00021	8b 55 fc	 mov	 edx, DWORD PTR _this$[ebp]
  00024	c7 02 00 00 00
	00		 mov	 DWORD PTR [edx], 0

; 263  : 	memset(m_pChunk, 0, getSizeByIndex(m_nShift)*m_nAllocCount);

  0002a	8b 45 fc	 mov	 eax, DWORD PTR _this$[ebp]
  0002d	8b 48 0c	 mov	 ecx, DWORD PTR [eax+12]
  00030	51		 push	 ecx
  00031	e8 00 00 00 00	 call	 ?getSizeByIndex@@YAHH@Z	; getSizeByIndex
  00036	83 c4 04	 add	 esp, 4
  00039	8b 55 fc	 mov	 edx, DWORD PTR _this$[ebp]
  0003c	0f af 42 04	 imul	 eax, DWORD PTR [edx+4]
  00040	50		 push	 eax
  00041	6a 00		 push	 0
  00043	8b 45 fc	 mov	 eax, DWORD PTR _this$[ebp]
  00046	8b 48 10	 mov	 ecx, DWORD PTR [eax+16]
  00049	51		 push	 ecx
  0004a	e8 00 00 00 00	 call	 _memset
  0004f	83 c4 0c	 add	 esp, 12			; 0000000cH

; 264  : 	memset(g_szMessage, 0, sizeof(g_szMessage));

  00052	68 80 00 00 00	 push	 128			; 00000080H
  00057	6a 00		 push	 0
  00059	68 00 00 00 00	 push	 OFFSET ?g_szMessage@@3PADA ; g_szMessage
  0005e	e8 00 00 00 00	 call	 _memset
  00063	83 c4 0c	 add	 esp, 12			; 0000000cH

; 265  : }

  00066	83 c4 04	 add	 esp, 4
  00069	3b ec		 cmp	 ebp, esp
  0006b	e8 00 00 00 00	 call	 __RTC_CheckEsp
  00070	8b e5		 mov	 esp, ebp
  00072	5d		 pop	 ebp
  00073	c3		 ret	 0
?clear@CSBufPool@@QAEXXZ ENDP				; CSBufPool::clear
_TEXT	ENDS
; Function compile flags: /Odtp /RTCsu
; File e:\infinia-library-3.0\com\src\combufpool.cpp
_TEXT	SEGMENT
_this$ = -16						; size = 4
__$EHRec$ = -12						; size = 12
??1CSBufPool@@QAE@XZ PROC				; CSBufPool::~CSBufPool
; _this$ = ecx

; 211  : {

  00000	55		 push	 ebp
  00001	8b ec		 mov	 ebp, esp
  00003	6a ff		 push	 -1
  00005	68 00 00 00 00	 push	 __ehhandler$??1CSBufPool@@QAE@XZ
  0000a	64 a1 00 00 00
	00		 mov	 eax, DWORD PTR fs:0
  00010	50		 push	 eax
  00011	51		 push	 ecx
  00012	c7 45 f0 cc cc
	cc cc		 mov	 DWORD PTR [ebp-16], -858993460 ; ccccccccH
  00019	a1 00 00 00 00	 mov	 eax, DWORD PTR ___security_cookie
  0001e	33 c5		 xor	 eax, ebp
  00020	50		 push	 eax
  00021	8d 45 f4	 lea	 eax, DWORD PTR __$EHRec$[ebp]
  00024	64 a3 00 00 00
	00		 mov	 DWORD PTR fs:0, eax
  0002a	89 4d f0	 mov	 DWORD PTR _this$[ebp], ecx

; 212  : 	destroy();

  0002d	8b 4d f0	 mov	 ecx, DWORD PTR _this$[ebp]
  00030	e8 00 00 00 00	 call	 ?destroy@CSBufPool@@QAEXXZ ; CSBufPool::destroy

; 213  : }

  00035	8b 4d f4	 mov	 ecx, DWORD PTR __$EHRec$[ebp]
  00038	64 89 0d 00 00
	00 00		 mov	 DWORD PTR fs:0, ecx
  0003f	59		 pop	 ecx
  00040	83 c4 10	 add	 esp, 16			; 00000010H
  00043	3b ec		 cmp	 ebp, esp
  00045	e8 00 00 00 00	 call	 __RTC_CheckEsp
  0004a	8b e5		 mov	 esp, ebp
  0004c	5d		 pop	 ebp
  0004d	c3		 ret	 0
_TEXT	ENDS
text$x	SEGMENT
__ehhandler$??1CSBufPool@@QAE@XZ:
  00000	8b 54 24 08	 mov	 edx, DWORD PTR [esp+8]
  00004	8d 42 0c	 lea	 eax, DWORD PTR [edx+12]
  00007	8b 4a f8	 mov	 ecx, DWORD PTR [edx-8]
  0000a	33 c8		 xor	 ecx, eax
  0000c	e8 00 00 00 00	 call	 @__security_check_cookie@4
  00011	b8 00 00 00 00	 mov	 eax, OFFSET __ehfuncinfo$??1CSBufPool@@QAE@XZ
  00016	e9 00 00 00 00	 jmp	 ___CxxFrameHandler3
text$x	ENDS
??1CSBufPool@@QAE@XZ ENDP				; CSBufPool::~CSBufPool
; Function compile flags: /Odtp /RTCsu
; File e:\infinia-library-3.0\com\src\combufpool.cpp
_TEXT	SEGMENT
_this$ = -4						; size = 4
??0CSBufPool@@QAE@XZ PROC				; CSBufPool::CSBufPool
; _this$ = ecx

; 199  : {

  00000	55		 push	 ebp
  00001	8b ec		 mov	 ebp, esp
  00003	51		 push	 ecx
  00004	c7 45 fc cc cc
	cc cc		 mov	 DWORD PTR [ebp-4], -858993460 ; ccccccccH
  0000b	89 4d fc	 mov	 DWORD PTR _this$[ebp], ecx

; 200  : 	m_nAllocCount = 0;

  0000e	8b 45 fc	 mov	 eax, DWORD PTR _this$[ebp]
  00011	c7 40 04 00 00
	00 00		 mov	 DWORD PTR [eax+4], 0

; 201  : 	memset(g_szMessage, 0, LEN_MEM_MESSAGE);

  00018	68 80 00 00 00	 push	 128			; 00000080H
  0001d	6a 00		 push	 0
  0001f	68 00 00 00 00	 push	 OFFSET ?g_szMessage@@3PADA ; g_szMessage
  00024	e8 00 00 00 00	 call	 _memset
  00029	83 c4 0c	 add	 esp, 12			; 0000000cH

; 202  : 	m_pChunk = NULL;

  0002c	8b 4d fc	 mov	 ecx, DWORD PTR _this$[ebp]
  0002f	c7 41 10 00 00
	00 00		 mov	 DWORD PTR [ecx+16], 0

; 203  : 	m_nUseCnt = 0;

  00036	8b 55 fc	 mov	 edx, DWORD PTR _this$[ebp]
  00039	c7 02 00 00 00
	00		 mov	 DWORD PTR [edx], 0

; 204  : 	m_nFlagArray = NULL;

  0003f	8b 45 fc	 mov	 eax, DWORD PTR _this$[ebp]
  00042	c7 40 08 00 00
	00 00		 mov	 DWORD PTR [eax+8], 0

; 205  : 	m_pEnd = NULL;

  00049	8b 4d fc	 mov	 ecx, DWORD PTR _this$[ebp]
  0004c	c7 41 14 00 00
	00 00		 mov	 DWORD PTR [ecx+20], 0

; 206  : 	m_nShift = 0;

  00053	8b 55 fc	 mov	 edx, DWORD PTR _this$[ebp]
  00056	c7 42 0c 00 00
	00 00		 mov	 DWORD PTR [edx+12], 0

; 207  : }

  0005d	8b 45 fc	 mov	 eax, DWORD PTR _this$[ebp]
  00060	83 c4 04	 add	 esp, 4
  00063	3b ec		 cmp	 ebp, esp
  00065	e8 00 00 00 00	 call	 __RTC_CheckEsp
  0006a	8b e5		 mov	 esp, ebp
  0006c	5d		 pop	 ebp
  0006d	c3		 ret	 0
??0CSBufPool@@QAE@XZ ENDP				; CSBufPool::CSBufPool
_TEXT	ENDS
; Function compile flags: /Odtp /RTCsu
; File e:\infinia-library-3.0\com\include\combufpool.h
;	COMDAT ?ISINCLUDE_ADDRESS@CBufPool@@QAE_NPAD@Z
_TEXT	SEGMENT
_this$ = -4						; size = 4
_p$ = 8							; size = 4
?ISINCLUDE_ADDRESS@CBufPool@@QAE_NPAD@Z PROC		; CBufPool::ISINCLUDE_ADDRESS, COMDAT
; _this$ = ecx

; 81   : 	inline bool ISINCLUDE_ADDRESS(char *p) { if(m_pChunk <= p && p <= m_pEnd) return true; return false; }

  00000	55		 push	 ebp
  00001	8b ec		 mov	 ebp, esp
  00003	51		 push	 ecx
  00004	c7 45 fc cc cc
	cc cc		 mov	 DWORD PTR [ebp-4], -858993460 ; ccccccccH
  0000b	89 4d fc	 mov	 DWORD PTR _this$[ebp], ecx
  0000e	8b 45 fc	 mov	 eax, DWORD PTR _this$[ebp]
  00011	8b 48 18	 mov	 ecx, DWORD PTR [eax+24]
  00014	3b 4d 08	 cmp	 ecx, DWORD PTR _p$[ebp]
  00017	77 0f		 ja	 SHORT $LN2@ISINCLUDE_
  00019	8b 55 fc	 mov	 edx, DWORD PTR _this$[ebp]
  0001c	8b 45 08	 mov	 eax, DWORD PTR _p$[ebp]
  0001f	3b 42 1c	 cmp	 eax, DWORD PTR [edx+28]
  00022	77 04		 ja	 SHORT $LN2@ISINCLUDE_
  00024	b0 01		 mov	 al, 1
  00026	eb 02		 jmp	 SHORT $LN1@ISINCLUDE_
$LN2@ISINCLUDE_:
  00028	32 c0		 xor	 al, al
$LN1@ISINCLUDE_:
  0002a	8b e5		 mov	 esp, ebp
  0002c	5d		 pop	 ebp
  0002d	c2 04 00	 ret	 4
?ISINCLUDE_ADDRESS@CBufPool@@QAE_NPAD@Z ENDP		; CBufPool::ISINCLUDE_ADDRESS
_TEXT	ENDS
; Function compile flags: /Odtp /RTCsu
; File e:\infinia-library-3.0\com\src\combufpool.cpp
_TEXT	SEGMENT
_nIdx$ = -16						; size = 4
_nPos$ = -12						; size = 4
_i$ = -8						; size = 4
_this$ = -4						; size = 4
_pUsedMem$ = 8						; size = 4
_nCount$ = 12						; size = 4
?delMem@CBufPool@@QAEXPADH@Z PROC			; CBufPool::delMem
; _this$ = ecx

; 94   : {

  00000	55		 push	 ebp
  00001	8b ec		 mov	 ebp, esp
  00003	83 ec 10	 sub	 esp, 16			; 00000010H
  00006	b8 cc cc cc cc	 mov	 eax, -858993460		; ccccccccH
  0000b	89 45 f0	 mov	 DWORD PTR [ebp-16], eax
  0000e	89 45 f4	 mov	 DWORD PTR [ebp-12], eax
  00011	89 45 f8	 mov	 DWORD PTR [ebp-8], eax
  00014	89 45 fc	 mov	 DWORD PTR [ebp-4], eax
  00017	89 4d fc	 mov	 DWORD PTR _this$[ebp], ecx

; 95   : 	int i;
; 96   : 	int nPos = (int)(pUsedMem - m_pChunk);

  0001a	8b 45 fc	 mov	 eax, DWORD PTR _this$[ebp]
  0001d	8b 4d 08	 mov	 ecx, DWORD PTR _pUsedMem$[ebp]
  00020	2b 48 18	 sub	 ecx, DWORD PTR [eax+24]
  00023	89 4d f4	 mov	 DWORD PTR _nPos$[ebp], ecx

; 97   : 	int nIdx = nPos >> m_nShift;

  00026	8b 55 fc	 mov	 edx, DWORD PTR _this$[ebp]
  00029	8b 45 f4	 mov	 eax, DWORD PTR _nPos$[ebp]
  0002c	8b 4a 14	 mov	 ecx, DWORD PTR [edx+20]
  0002f	d3 f8		 sar	 eax, cl
  00031	89 45 f0	 mov	 DWORD PTR _nIdx$[ebp], eax

; 98   : 
; 99   : 	if (pUsedMem != &m_pChunk[nPos]) return;

  00034	8b 4d fc	 mov	 ecx, DWORD PTR _this$[ebp]
  00037	8b 51 18	 mov	 edx, DWORD PTR [ecx+24]
  0003a	03 55 f4	 add	 edx, DWORD PTR _nPos$[ebp]
  0003d	39 55 08	 cmp	 DWORD PTR _pUsedMem$[ebp], edx
  00040	74 02		 je	 SHORT $LN5@delMem
  00042	eb 6d		 jmp	 SHORT $LN1@delMem
$LN5@delMem:

; 100  : 	for (i = 0; i < nCount; i++)

  00044	c7 45 f8 00 00
	00 00		 mov	 DWORD PTR _i$[ebp], 0
  0004b	eb 09		 jmp	 SHORT $LN4@delMem
$LN2@delMem:
  0004d	8b 45 f8	 mov	 eax, DWORD PTR _i$[ebp]
  00050	83 c0 01	 add	 eax, 1
  00053	89 45 f8	 mov	 DWORD PTR _i$[ebp], eax
$LN4@delMem:
  00056	8b 4d f8	 mov	 ecx, DWORD PTR _i$[ebp]
  00059	3b 4d 0c	 cmp	 ecx, DWORD PTR _nCount$[ebp]
  0005c	7d 47		 jge	 SHORT $LN3@delMem

; 101  : 	{
; 102  : 		if (nIdx >= m_nAllocCount) return;

  0005e	8b 55 fc	 mov	 edx, DWORD PTR _this$[ebp]
  00061	8b 45 f0	 mov	 eax, DWORD PTR _nIdx$[ebp]
  00064	3b 42 10	 cmp	 eax, DWORD PTR [edx+16]
  00067	7c 02		 jl	 SHORT $LN6@delMem
  00069	eb 46		 jmp	 SHORT $LN1@delMem
$LN6@delMem:

; 103  : 		//printf("CBufPool::delMem nPos[%d] nIdx[%d] nShift[%d] pMem[%p]\n", nPos, nIdx, nShift, pUsedMem);
; 104  : 		if (m_nFlagArray[nIdx].getCount())

  0006b	8b 4d fc	 mov	 ecx, DWORD PTR _this$[ebp]
  0006e	8b 11		 mov	 edx, DWORD PTR [ecx]
  00070	8b 45 f0	 mov	 eax, DWORD PTR _nIdx$[ebp]
  00073	8d 0c 82	 lea	 ecx, DWORD PTR [edx+eax*4]
  00076	e8 00 00 00 00	 call	 ?getCount@win_atomic@win32@common@@QAEHXZ ; common::win32::win_atomic::getCount
  0007b	85 c0		 test	 eax, eax
  0007d	74 1b		 je	 SHORT $LN7@delMem

; 105  : 		{
; 106  : 			m_nFlagArray[nIdx].init();

  0007f	8b 4d fc	 mov	 ecx, DWORD PTR _this$[ebp]
  00082	8b 11		 mov	 edx, DWORD PTR [ecx]
  00084	8b 45 f0	 mov	 eax, DWORD PTR _nIdx$[ebp]
  00087	8d 0c 82	 lea	 ecx, DWORD PTR [edx+eax*4]
  0008a	e8 00 00 00 00	 call	 ?init@win_atomic@win32@common@@QAEXXZ ; common::win32::win_atomic::init

; 107  : 			m_nUseCnt.atomic_decrement();

  0008f	8b 4d fc	 mov	 ecx, DWORD PTR _this$[ebp]
  00092	83 c1 04	 add	 ecx, 4
  00095	e8 00 00 00 00	 call	 ?atomic_decrement@win_atomic@win32@common@@QAEJXZ ; common::win32::win_atomic::atomic_decrement
$LN7@delMem:

; 108  : 		}
; 109  : 		nIdx++;

  0009a	8b 4d f0	 mov	 ecx, DWORD PTR _nIdx$[ebp]
  0009d	83 c1 01	 add	 ecx, 1
  000a0	89 4d f0	 mov	 DWORD PTR _nIdx$[ebp], ecx

; 110  : 	}

  000a3	eb a8		 jmp	 SHORT $LN2@delMem
$LN3@delMem:

; 111  : 	m_nLastCount = nIdx - nCount;

  000a5	8b 55 f0	 mov	 edx, DWORD PTR _nIdx$[ebp]
  000a8	2b 55 0c	 sub	 edx, DWORD PTR _nCount$[ebp]
  000ab	8b 45 fc	 mov	 eax, DWORD PTR _this$[ebp]
  000ae	89 50 0c	 mov	 DWORD PTR [eax+12], edx
$LN1@delMem:

; 112  : }

  000b1	83 c4 10	 add	 esp, 16			; 00000010H
  000b4	3b ec		 cmp	 ebp, esp
  000b6	e8 00 00 00 00	 call	 __RTC_CheckEsp
  000bb	8b e5		 mov	 esp, ebp
  000bd	5d		 pop	 ebp
  000be	c2 08 00	 ret	 8
?delMem@CBufPool@@QAEXPADH@Z ENDP			; CBufPool::delMem
_TEXT	ENDS
; Function compile flags: /Odtp /RTCsu
; File e:\infinia-library-3.0\com\src\combufpool.cpp
_TEXT	SEGMENT
_i$ = -16						; size = 4
_nLastLoopCnt$ = -12					; size = 4
_idx$ = -8						; size = 4
_this$ = -4						; size = 4
_nCount$ = 8						; size = 4
?newMemList@CBufPool@@QAE_NH@Z PROC			; CBufPool::newMemList
; _this$ = ecx

; 152  : {

  00000	55		 push	 ebp
  00001	8b ec		 mov	 ebp, esp
  00003	83 ec 10	 sub	 esp, 16			; 00000010H
  00006	b8 cc cc cc cc	 mov	 eax, -858993460		; ccccccccH
  0000b	89 45 f0	 mov	 DWORD PTR [ebp-16], eax
  0000e	89 45 f4	 mov	 DWORD PTR [ebp-12], eax
  00011	89 45 f8	 mov	 DWORD PTR [ebp-8], eax
  00014	89 45 fc	 mov	 DWORD PTR [ebp-4], eax
  00017	89 4d fc	 mov	 DWORD PTR _this$[ebp], ecx

; 153  : 	int idx = m_nLastCount, nLastLoopCnt=0;

  0001a	8b 45 fc	 mov	 eax, DWORD PTR _this$[ebp]
  0001d	8b 48 0c	 mov	 ecx, DWORD PTR [eax+12]
  00020	89 4d f8	 mov	 DWORD PTR _idx$[ebp], ecx
  00023	c7 45 f4 00 00
	00 00		 mov	 DWORD PTR _nLastLoopCnt$[ebp], 0

; 154  : 	int i;
; 155  : 	if (m_nUseCnt.getCount()+nCount > m_nAllocCount) return false;

  0002a	8b 4d fc	 mov	 ecx, DWORD PTR _this$[ebp]
  0002d	83 c1 04	 add	 ecx, 4
  00030	e8 00 00 00 00	 call	 ?getCount@win_atomic@win32@common@@QAEHXZ ; common::win32::win_atomic::getCount
  00035	03 45 08	 add	 eax, DWORD PTR _nCount$[ebp]
  00038	8b 55 fc	 mov	 edx, DWORD PTR _this$[ebp]
  0003b	3b 42 10	 cmp	 eax, DWORD PTR [edx+16]
  0003e	7e 07		 jle	 SHORT $LN8@newMemList
  00040	32 c0		 xor	 al, al
  00042	e9 de 00 00 00	 jmp	 $LN1@newMemList
$LN8@newMemList:

; 156  : 
; 157  : 	for (i=0; i < nCount; i++) {

  00047	c7 45 f0 00 00
	00 00		 mov	 DWORD PTR _i$[ebp], 0
  0004e	eb 09		 jmp	 SHORT $LN4@newMemList
$LN2@newMemList:
  00050	8b 45 f0	 mov	 eax, DWORD PTR _i$[ebp]
  00053	83 c0 01	 add	 eax, 1
  00056	89 45 f0	 mov	 DWORD PTR _i$[ebp], eax
$LN4@newMemList:
  00059	8b 4d f0	 mov	 ecx, DWORD PTR _i$[ebp]
  0005c	3b 4d 08	 cmp	 ecx, DWORD PTR _nCount$[ebp]
  0005f	7d 60		 jge	 SHORT $LN3@newMemList

; 158  : 		if (idx >= m_nAllocCount) break;

  00061	8b 55 fc	 mov	 edx, DWORD PTR _this$[ebp]
  00064	8b 45 f8	 mov	 eax, DWORD PTR _idx$[ebp]
  00067	3b 42 10	 cmp	 eax, DWORD PTR [edx+16]
  0006a	7c 02		 jl	 SHORT $LN9@newMemList
  0006c	eb 53		 jmp	 SHORT $LN3@newMemList
$LN9@newMemList:

; 159  : 		if (!m_nFlagArray[idx].getCount())

  0006e	8b 4d fc	 mov	 ecx, DWORD PTR _this$[ebp]
  00071	8b 11		 mov	 edx, DWORD PTR [ecx]
  00073	8b 45 f8	 mov	 eax, DWORD PTR _idx$[ebp]
  00076	8d 0c 82	 lea	 ecx, DWORD PTR [edx+eax*4]
  00079	e8 00 00 00 00	 call	 ?getCount@win_atomic@win32@common@@QAEHXZ ; common::win32::win_atomic::getCount
  0007e	85 c0		 test	 eax, eax
  00080	75 32		 jne	 SHORT $LN10@newMemList

; 160  : 		{
; 161  : 			if (!m_nFlagArray[idx].atomic_compare_exchange(1, 0)) {

  00082	6a 00		 push	 0
  00084	6a 01		 push	 1
  00086	8b 4d fc	 mov	 ecx, DWORD PTR _this$[ebp]
  00089	8b 11		 mov	 edx, DWORD PTR [ecx]
  0008b	8b 45 f8	 mov	 eax, DWORD PTR _idx$[ebp]
  0008e	8d 0c 82	 lea	 ecx, DWORD PTR [edx+eax*4]
  00091	e8 00 00 00 00	 call	 ?atomic_compare_exchange@win_atomic@win32@common@@QAEHHH@Z ; common::win32::win_atomic::atomic_compare_exchange
  00096	85 c0		 test	 eax, eax
  00098	75 16		 jne	 SHORT $LN12@newMemList

; 162  : 				m_nUseCnt.atomic_increment();

  0009a	8b 4d fc	 mov	 ecx, DWORD PTR _this$[ebp]
  0009d	83 c1 04	 add	 ecx, 4
  000a0	e8 00 00 00 00	 call	 ?atomic_increment@win_atomic@win32@common@@QAEJXZ ; common::win32::win_atomic::atomic_increment

; 163  : 				nLastLoopCnt++;

  000a5	8b 4d f4	 mov	 ecx, DWORD PTR _nLastLoopCnt$[ebp]
  000a8	83 c1 01	 add	 ecx, 1
  000ab	89 4d f4	 mov	 DWORD PTR _nLastLoopCnt$[ebp], ecx

; 164  : 			}
; 165  : 			else break;

  000ae	eb 02		 jmp	 SHORT $LN13@newMemList
$LN12@newMemList:
  000b0	eb 0f		 jmp	 SHORT $LN3@newMemList
$LN13@newMemList:

; 166  : 		}
; 167  : 		else break;

  000b2	eb 02		 jmp	 SHORT $LN11@newMemList
$LN10@newMemList:
  000b4	eb 0b		 jmp	 SHORT $LN3@newMemList
$LN11@newMemList:

; 168  : 		idx++;

  000b6	8b 55 f8	 mov	 edx, DWORD PTR _idx$[ebp]
  000b9	83 c2 01	 add	 edx, 1
  000bc	89 55 f8	 mov	 DWORD PTR _idx$[ebp], edx

; 169  : 	}

  000bf	eb 8f		 jmp	 SHORT $LN2@newMemList
$LN3@newMemList:

; 170  : 
; 171  : 	if (nLastLoopCnt== nCount) {

  000c1	8b 45 f4	 mov	 eax, DWORD PTR _nLastLoopCnt$[ebp]
  000c4	3b 45 08	 cmp	 eax, DWORD PTR _nCount$[ebp]
  000c7	75 0d		 jne	 SHORT $LN14@newMemList

; 172  : 		m_nLastCount = idx;

  000c9	8b 4d fc	 mov	 ecx, DWORD PTR _this$[ebp]
  000cc	8b 55 f8	 mov	 edx, DWORD PTR _idx$[ebp]
  000cf	89 51 0c	 mov	 DWORD PTR [ecx+12], edx

; 173  : 		return true;

  000d2	b0 01		 mov	 al, 1
  000d4	eb 4f		 jmp	 SHORT $LN1@newMemList
$LN14@newMemList:

; 174  : 	}
; 175  : 
; 176  : 	for (idx = m_nLastCount; idx < nLastLoopCnt; idx++) {

  000d6	8b 45 fc	 mov	 eax, DWORD PTR _this$[ebp]
  000d9	8b 48 0c	 mov	 ecx, DWORD PTR [eax+12]
  000dc	89 4d f8	 mov	 DWORD PTR _idx$[ebp], ecx
  000df	eb 09		 jmp	 SHORT $LN7@newMemList
$LN5@newMemList:
  000e1	8b 55 f8	 mov	 edx, DWORD PTR _idx$[ebp]
  000e4	83 c2 01	 add	 edx, 1
  000e7	89 55 f8	 mov	 DWORD PTR _idx$[ebp], edx
$LN7@newMemList:
  000ea	8b 45 f8	 mov	 eax, DWORD PTR _idx$[ebp]
  000ed	3b 45 f4	 cmp	 eax, DWORD PTR _nLastLoopCnt$[ebp]
  000f0	7d 31		 jge	 SHORT $LN6@newMemList

; 177  : 		if (m_nFlagArray[idx].getCount())

  000f2	8b 4d fc	 mov	 ecx, DWORD PTR _this$[ebp]
  000f5	8b 11		 mov	 edx, DWORD PTR [ecx]
  000f7	8b 45 f8	 mov	 eax, DWORD PTR _idx$[ebp]
  000fa	8d 0c 82	 lea	 ecx, DWORD PTR [edx+eax*4]
  000fd	e8 00 00 00 00	 call	 ?getCount@win_atomic@win32@common@@QAEHXZ ; common::win32::win_atomic::getCount
  00102	85 c0		 test	 eax, eax
  00104	74 1b		 je	 SHORT $LN15@newMemList

; 178  : 		{
; 179  : 			m_nFlagArray[idx].init();

  00106	8b 4d fc	 mov	 ecx, DWORD PTR _this$[ebp]
  00109	8b 11		 mov	 edx, DWORD PTR [ecx]
  0010b	8b 45 f8	 mov	 eax, DWORD PTR _idx$[ebp]
  0010e	8d 0c 82	 lea	 ecx, DWORD PTR [edx+eax*4]
  00111	e8 00 00 00 00	 call	 ?init@win_atomic@win32@common@@QAEXXZ ; common::win32::win_atomic::init

; 180  : 			m_nUseCnt.atomic_decrement();

  00116	8b 4d fc	 mov	 ecx, DWORD PTR _this$[ebp]
  00119	83 c1 04	 add	 ecx, 4
  0011c	e8 00 00 00 00	 call	 ?atomic_decrement@win_atomic@win32@common@@QAEJXZ ; common::win32::win_atomic::atomic_decrement
$LN15@newMemList:

; 181  : 		}
; 182  : 	}

  00121	eb be		 jmp	 SHORT $LN5@newMemList
$LN6@newMemList:

; 183  : 	return false;

  00123	32 c0		 xor	 al, al
$LN1@newMemList:

; 184  : }

  00125	83 c4 10	 add	 esp, 16			; 00000010H
  00128	3b ec		 cmp	 ebp, esp
  0012a	e8 00 00 00 00	 call	 __RTC_CheckEsp
  0012f	8b e5		 mov	 esp, ebp
  00131	5d		 pop	 ebp
  00132	c2 04 00	 ret	 4
?newMemList@CBufPool@@QAE_NH@Z ENDP			; CBufPool::newMemList
_TEXT	ENDS
; Function compile flags: /Odtp /RTCsu
; File e:\infinia-library-3.0\com\src\combufpool.cpp
_TEXT	SEGMENT
_nIdx$ = -12						; size = 4
_nPos$ = -8						; size = 4
_this$ = -4						; size = 4
_pUsedMem$ = 8						; size = 4
?delMem@CBufPool@@QAEXPAD@Z PROC			; CBufPool::delMem
; _this$ = ecx

; 76   : {

  00000	55		 push	 ebp
  00001	8b ec		 mov	 ebp, esp
  00003	83 ec 0c	 sub	 esp, 12			; 0000000cH
  00006	56		 push	 esi
  00007	c7 45 f4 cc cc
	cc cc		 mov	 DWORD PTR [ebp-12], -858993460 ; ccccccccH
  0000e	c7 45 f8 cc cc
	cc cc		 mov	 DWORD PTR [ebp-8], -858993460 ; ccccccccH
  00015	c7 45 fc cc cc
	cc cc		 mov	 DWORD PTR [ebp-4], -858993460 ; ccccccccH
  0001c	89 4d fc	 mov	 DWORD PTR _this$[ebp], ecx

; 77   : 	if(!ISINCLUDE_ADDRESS(pUsedMem)) {

  0001f	8b 45 08	 mov	 eax, DWORD PTR _pUsedMem$[ebp]
  00022	50		 push	 eax
  00023	8b 4d fc	 mov	 ecx, DWORD PTR _this$[ebp]
  00026	e8 00 00 00 00	 call	 ?ISINCLUDE_ADDRESS@CBufPool@@QAE_NPAD@Z ; CBufPool::ISINCLUDE_ADDRESS
  0002b	0f b6 c8	 movzx	 ecx, al
  0002e	85 c9		 test	 ecx, ecx
  00030	75 18		 jne	 SHORT $LN2@delMem

; 78   : 		free(pUsedMem);

  00032	8b f4		 mov	 esi, esp
  00034	8b 55 08	 mov	 edx, DWORD PTR _pUsedMem$[ebp]
  00037	52		 push	 edx
  00038	ff 15 00 00 00
	00		 call	 DWORD PTR __imp__free
  0003e	83 c4 04	 add	 esp, 4
  00041	3b f4		 cmp	 esi, esp
  00043	e8 00 00 00 00	 call	 __RTC_CheckEsp

; 79   : 		//m_nOverCnt.atomic_decrement();
; 80   : 		return;

  00048	eb 4c		 jmp	 SHORT $LN1@delMem
$LN2@delMem:

; 81   : 	}
; 82   : 
; 83   : 	int nPos = (int)(pUsedMem - m_pChunk);

  0004a	8b 45 fc	 mov	 eax, DWORD PTR _this$[ebp]
  0004d	8b 4d 08	 mov	 ecx, DWORD PTR _pUsedMem$[ebp]
  00050	2b 48 18	 sub	 ecx, DWORD PTR [eax+24]
  00053	89 4d f8	 mov	 DWORD PTR _nPos$[ebp], ecx

; 84   : 	int nIdx = nPos >> m_nShift;

  00056	8b 55 fc	 mov	 edx, DWORD PTR _this$[ebp]
  00059	8b 45 f8	 mov	 eax, DWORD PTR _nPos$[ebp]
  0005c	8b 4a 14	 mov	 ecx, DWORD PTR [edx+20]
  0005f	d3 f8		 sar	 eax, cl
  00061	89 45 f4	 mov	 DWORD PTR _nIdx$[ebp], eax

; 85   : 
; 86   :     if(pUsedMem == &m_pChunk[nPos]) {

  00064	8b 4d fc	 mov	 ecx, DWORD PTR _this$[ebp]
  00067	8b 51 18	 mov	 edx, DWORD PTR [ecx+24]
  0006a	03 55 f8	 add	 edx, DWORD PTR _nPos$[ebp]
  0006d	39 55 08	 cmp	 DWORD PTR _pUsedMem$[ebp], edx
  00070	75 24		 jne	 SHORT $LN1@delMem

; 87   : 		m_nFlagArray[nIdx].init();

  00072	8b 45 fc	 mov	 eax, DWORD PTR _this$[ebp]
  00075	8b 08		 mov	 ecx, DWORD PTR [eax]
  00077	8b 55 f4	 mov	 edx, DWORD PTR _nIdx$[ebp]
  0007a	8d 0c 91	 lea	 ecx, DWORD PTR [ecx+edx*4]
  0007d	e8 00 00 00 00	 call	 ?init@win_atomic@win32@common@@QAEXXZ ; common::win32::win_atomic::init

; 88   : 		m_nUseCnt.atomic_decrement();

  00082	8b 4d fc	 mov	 ecx, DWORD PTR _this$[ebp]
  00085	83 c1 04	 add	 ecx, 4
  00088	e8 00 00 00 00	 call	 ?atomic_decrement@win_atomic@win32@common@@QAEJXZ ; common::win32::win_atomic::atomic_decrement

; 89   : 		m_nLastCount = nIdx;

  0008d	8b 45 fc	 mov	 eax, DWORD PTR _this$[ebp]
  00090	8b 4d f4	 mov	 ecx, DWORD PTR _nIdx$[ebp]
  00093	89 48 0c	 mov	 DWORD PTR [eax+12], ecx
$LN1@delMem:

; 90   : 	}
; 91   : }

  00096	5e		 pop	 esi
  00097	83 c4 0c	 add	 esp, 12			; 0000000cH
  0009a	3b ec		 cmp	 ebp, esp
  0009c	e8 00 00 00 00	 call	 __RTC_CheckEsp
  000a1	8b e5		 mov	 esp, ebp
  000a3	5d		 pop	 ebp
  000a4	c2 04 00	 ret	 4
?delMem@CBufPool@@QAEXPAD@Z ENDP			; CBufPool::delMem
_TEXT	ENDS
; Function compile flags: /Odtp /RTCsu
; File e:\infinia-library-3.0\com\src\combufpool.cpp
_TEXT	SEGMENT
_p$ = -16						; size = 4
_j$ = -12						; size = 4
_i$ = -8						; size = 4
_this$ = -4						; size = 4
?newMem@CBufPool@@QAEPADXZ PROC				; CBufPool::newMem
; _this$ = ecx

; 115  : {

  00000	55		 push	 ebp
  00001	8b ec		 mov	 ebp, esp
  00003	83 ec 10	 sub	 esp, 16			; 00000010H
  00006	56		 push	 esi
  00007	b8 cc cc cc cc	 mov	 eax, -858993460		; ccccccccH
  0000c	89 45 f0	 mov	 DWORD PTR [ebp-16], eax
  0000f	89 45 f4	 mov	 DWORD PTR [ebp-12], eax
  00012	89 45 f8	 mov	 DWORD PTR [ebp-8], eax
  00015	89 45 fc	 mov	 DWORD PTR [ebp-4], eax
  00018	89 4d fc	 mov	 DWORD PTR _this$[ebp], ecx

; 116  : 	int i= m_nLastCount,j;

  0001b	8b 45 fc	 mov	 eax, DWORD PTR _this$[ebp]
  0001e	8b 48 0c	 mov	 ecx, DWORD PTR [eax+12]
  00021	89 4d f8	 mov	 DWORD PTR _i$[ebp], ecx

; 117  : 	if(m_nUseCnt.getCount() == m_nAllocCount) goto NEW_ALLOC;

  00024	8b 4d fc	 mov	 ecx, DWORD PTR _this$[ebp]
  00027	83 c1 04	 add	 ecx, 4
  0002a	e8 00 00 00 00	 call	 ?getCount@win_atomic@win32@common@@QAEHXZ ; common::win32::win_atomic::getCount
  0002f	8b 55 fc	 mov	 edx, DWORD PTR _this$[ebp]
  00032	3b 42 10	 cmp	 eax, DWORD PTR [edx+16]
  00035	75 0a		 jne	 SHORT $LN5@newMem
  00037	e9 c7 00 00 00	 jmp	 $NEW_ALLOC$11
  0003c	e9 c2 00 00 00	 jmp	 $NEW_ALLOC$11
$LN5@newMem:

; 118  : 	
; 119  : 	for(j = 0; j < m_nAllocCount; j++)

  00041	c7 45 f4 00 00
	00 00		 mov	 DWORD PTR _j$[ebp], 0
  00048	eb 09		 jmp	 SHORT $LN4@newMem
$LN2@newMem:
  0004a	8b 45 f4	 mov	 eax, DWORD PTR _j$[ebp]
  0004d	83 c0 01	 add	 eax, 1
  00050	89 45 f4	 mov	 DWORD PTR _j$[ebp], eax
$LN4@newMem:
  00053	8b 4d fc	 mov	 ecx, DWORD PTR _this$[ebp]
  00056	8b 55 f4	 mov	 edx, DWORD PTR _j$[ebp]
  00059	3b 51 10	 cmp	 edx, DWORD PTR [ecx+16]
  0005c	0f 8d a1 00 00
	00		 jge	 $NEW_ALLOC$11

; 120  :     {
; 121  : 		if(i >= m_nAllocCount) {i = 0;} //    .  next    .

  00062	8b 45 fc	 mov	 eax, DWORD PTR _this$[ebp]
  00065	8b 4d f8	 mov	 ecx, DWORD PTR _i$[ebp]
  00068	3b 48 10	 cmp	 ecx, DWORD PTR [eax+16]
  0006b	7c 07		 jl	 SHORT $LN7@newMem
  0006d	c7 45 f8 00 00
	00 00		 mov	 DWORD PTR _i$[ebp], 0
$LN7@newMem:

; 122  : 		if(!m_nFlagArray[i].getCount()) 

  00074	8b 55 fc	 mov	 edx, DWORD PTR _this$[ebp]
  00077	8b 02		 mov	 eax, DWORD PTR [edx]
  00079	8b 4d f8	 mov	 ecx, DWORD PTR _i$[ebp]
  0007c	8d 0c 88	 lea	 ecx, DWORD PTR [eax+ecx*4]
  0007f	e8 00 00 00 00	 call	 ?getCount@win_atomic@win32@common@@QAEHXZ ; common::win32::win_atomic::getCount
  00084	85 c0		 test	 eax, eax
  00086	75 6d		 jne	 SHORT $LN8@newMem

; 123  : 		{
; 124  : 			if(!m_nFlagArray[i].atomic_compare_exchange(1,0)) 

  00088	6a 00		 push	 0
  0008a	6a 01		 push	 1
  0008c	8b 55 fc	 mov	 edx, DWORD PTR _this$[ebp]
  0008f	8b 02		 mov	 eax, DWORD PTR [edx]
  00091	8b 4d f8	 mov	 ecx, DWORD PTR _i$[ebp]
  00094	8d 0c 88	 lea	 ecx, DWORD PTR [eax+ecx*4]
  00097	e8 00 00 00 00	 call	 ?atomic_compare_exchange@win_atomic@win32@common@@QAEHHH@Z ; common::win32::win_atomic::atomic_compare_exchange
  0009c	85 c0		 test	 eax, eax
  0009e	75 55		 jne	 SHORT $LN8@newMem

; 125  : 			{
; 126  : 				m_nUseCnt.atomic_increment();

  000a0	8b 4d fc	 mov	 ecx, DWORD PTR _this$[ebp]
  000a3	83 c1 04	 add	 ecx, 4
  000a6	e8 00 00 00 00	 call	 ?atomic_increment@win_atomic@win32@common@@QAEJXZ ; common::win32::win_atomic::atomic_increment

; 127  : 				m_nLastCount=i;

  000ab	8b 55 fc	 mov	 edx, DWORD PTR _this$[ebp]
  000ae	8b 45 f8	 mov	 eax, DWORD PTR _i$[ebp]
  000b1	89 42 0c	 mov	 DWORD PTR [edx+12], eax

; 128  : 				memset(&m_pChunk[i << m_nShift], 0, g_nSizeList[m_nShift]);

  000b4	8b 4d fc	 mov	 ecx, DWORD PTR _this$[ebp]
  000b7	8b 51 14	 mov	 edx, DWORD PTR [ecx+20]
  000ba	8b 04 95 00 00
	00 00		 mov	 eax, DWORD PTR ?g_nSizeList@@3QBHB[edx*4]
  000c1	50		 push	 eax
  000c2	6a 00		 push	 0
  000c4	8b 4d fc	 mov	 ecx, DWORD PTR _this$[ebp]
  000c7	8b 55 f8	 mov	 edx, DWORD PTR _i$[ebp]
  000ca	8b 49 14	 mov	 ecx, DWORD PTR [ecx+20]
  000cd	d3 e2		 shl	 edx, cl
  000cf	8b 45 fc	 mov	 eax, DWORD PTR _this$[ebp]
  000d2	8b 48 18	 mov	 ecx, DWORD PTR [eax+24]
  000d5	03 ca		 add	 ecx, edx
  000d7	51		 push	 ecx
  000d8	e8 00 00 00 00	 call	 _memset
  000dd	83 c4 0c	 add	 esp, 12			; 0000000cH

; 129  : 				return &m_pChunk[i << m_nShift];

  000e0	8b 55 fc	 mov	 edx, DWORD PTR _this$[ebp]
  000e3	8b 45 f8	 mov	 eax, DWORD PTR _i$[ebp]
  000e6	8b 4a 14	 mov	 ecx, DWORD PTR [edx+20]
  000e9	d3 e0		 shl	 eax, cl
  000eb	8b 4d fc	 mov	 ecx, DWORD PTR _this$[ebp]
  000ee	8b 51 18	 mov	 edx, DWORD PTR [ecx+24]
  000f1	03 c2		 add	 eax, edx
  000f3	eb 36		 jmp	 SHORT $LN1@newMem
$LN8@newMem:

; 130  : 			}
; 131  : 		}
; 132  : 		i++;

  000f5	8b 45 f8	 mov	 eax, DWORD PTR _i$[ebp]
  000f8	83 c0 01	 add	 eax, 1
  000fb	89 45 f8	 mov	 DWORD PTR _i$[ebp], eax

; 133  :     }    

  000fe	e9 47 ff ff ff	 jmp	 $LN2@newMem
$NEW_ALLOC$11:

; 134  : NEW_ALLOC:
; 135  : 	//if (m_nOverMaxCnt.getCount() < m_nOverCnt.getCount()) {
; 136  : 	//	m_nOverMaxCnt.atomic_exchange(m_nOverCnt.getCount());
; 137  : 	//	gs_cLogger.DebugLog(LEVEL_WARN, "update m_nOverMaxCnt[%d]", m_nOverMaxCnt.getCount());
; 138  : 	//}
; 139  : 	char * p = (char *)calloc(1, g_nSizeList[m_nShift]);

  00103	8b 4d fc	 mov	 ecx, DWORD PTR _this$[ebp]
  00106	8b 51 14	 mov	 edx, DWORD PTR [ecx+20]
  00109	8b f4		 mov	 esi, esp
  0010b	8b 04 95 00 00
	00 00		 mov	 eax, DWORD PTR ?g_nSizeList@@3QBHB[edx*4]
  00112	50		 push	 eax
  00113	6a 01		 push	 1
  00115	ff 15 00 00 00
	00		 call	 DWORD PTR __imp__calloc
  0011b	83 c4 08	 add	 esp, 8
  0011e	3b f4		 cmp	 esi, esp
  00120	e8 00 00 00 00	 call	 __RTC_CheckEsp
  00125	89 45 f0	 mov	 DWORD PTR _p$[ebp], eax

; 140  : 	//if (p) {
; 141  : 	//	m_nOverCnt.atomic_increment();
; 142  : 	//	gs_cLogger.DebugLog(LEVEL_TRACE, "update m_nOverCnt[%d] m_nShift[%d] m_nAllocCount[%d]", m_nOverCnt.atomic_increment(), m_nShift, m_nAllocCount);
; 143  : 	//}
; 144  : 	//else {
; 145  : 	//	gs_cLogger.DebugLog(LEVEL_ERROR, "calloc has Failed");
; 146  : 	//}
; 147  : 	return p;

  00128	8b 45 f0	 mov	 eax, DWORD PTR _p$[ebp]
$LN1@newMem:

; 148  : }

  0012b	5e		 pop	 esi
  0012c	83 c4 10	 add	 esp, 16			; 00000010H
  0012f	3b ec		 cmp	 ebp, esp
  00131	e8 00 00 00 00	 call	 __RTC_CheckEsp
  00136	8b e5		 mov	 esp, ebp
  00138	5d		 pop	 ebp
  00139	c3		 ret	 0
?newMem@CBufPool@@QAEPADXZ ENDP				; CBufPool::newMem
_TEXT	ENDS
; Function compile flags: /Odtp /RTCsu
; File e:\infinia-library-3.0\com\src\combufpool.cpp
_TEXT	SEGMENT
tv165 = -44						; size = 4
tv92 = -40						; size = 4
$T2 = -36						; size = 4
$T3 = -32						; size = 4
$T4 = -28						; size = 4
$T5 = -24						; size = 4
$T6 = -20						; size = 4
_this$ = -16						; size = 4
__$EHRec$ = -12						; size = 12
_nShift$ = 8						; size = 4
_nMaxCount$ = 12					; size = 4
?alloc@CBufPool@@QAE_NHH@Z PROC				; CBufPool::alloc
; _this$ = ecx

; 33   : {

  00000	55		 push	 ebp
  00001	8b ec		 mov	 ebp, esp
  00003	6a ff		 push	 -1
  00005	68 00 00 00 00	 push	 __ehhandler$?alloc@CBufPool@@QAE_NHH@Z
  0000a	64 a1 00 00 00
	00		 mov	 eax, DWORD PTR fs:0
  00010	50		 push	 eax
  00011	83 ec 20	 sub	 esp, 32			; 00000020H
  00014	56		 push	 esi
  00015	b8 cc cc cc cc	 mov	 eax, -858993460		; ccccccccH
  0001a	89 45 d4	 mov	 DWORD PTR [ebp-44], eax
  0001d	89 45 d8	 mov	 DWORD PTR [ebp-40], eax
  00020	89 45 dc	 mov	 DWORD PTR [ebp-36], eax
  00023	89 45 e0	 mov	 DWORD PTR [ebp-32], eax
  00026	89 45 e4	 mov	 DWORD PTR [ebp-28], eax
  00029	89 45 e8	 mov	 DWORD PTR [ebp-24], eax
  0002c	89 45 ec	 mov	 DWORD PTR [ebp-20], eax
  0002f	89 45 f0	 mov	 DWORD PTR [ebp-16], eax
  00032	a1 00 00 00 00	 mov	 eax, DWORD PTR ___security_cookie
  00037	33 c5		 xor	 eax, ebp
  00039	50		 push	 eax
  0003a	8d 45 f4	 lea	 eax, DWORD PTR __$EHRec$[ebp]
  0003d	64 a3 00 00 00
	00		 mov	 DWORD PTR fs:0, eax
  00043	89 4d f0	 mov	 DWORD PTR _this$[ebp], ecx

; 34   : 	m_nFlagArray = new (std::nothrow) atomic_nr[nMaxCount];

  00046	8b 45 0c	 mov	 eax, DWORD PTR _nMaxCount$[ebp]
  00049	89 45 ec	 mov	 DWORD PTR $T6[ebp], eax
  0004c	68 00 00 00 00	 push	 OFFSET ?nothrow@std@@3Unothrow_t@1@B ; std::nothrow
  00051	33 c9		 xor	 ecx, ecx
  00053	8b 45 ec	 mov	 eax, DWORD PTR $T6[ebp]
  00056	ba 04 00 00 00	 mov	 edx, 4
  0005b	f7 e2		 mul	 edx
  0005d	0f 90 c1	 seto	 cl
  00060	f7 d9		 neg	 ecx
  00062	0b c8		 or	 ecx, eax
  00064	33 c0		 xor	 eax, eax
  00066	83 c1 04	 add	 ecx, 4
  00069	0f 92 c0	 setb	 al
  0006c	f7 d8		 neg	 eax
  0006e	0b c1		 or	 eax, ecx
  00070	50		 push	 eax
  00071	e8 00 00 00 00	 call	 ??_U@YAPAXIABUnothrow_t@std@@@Z ; operator new[]
  00076	83 c4 08	 add	 esp, 8
  00079	89 45 e4	 mov	 DWORD PTR $T4[ebp], eax
  0007c	c7 45 fc 00 00
	00 00		 mov	 DWORD PTR __$EHRec$[ebp+8], 0
  00083	83 7d e4 00	 cmp	 DWORD PTR $T4[ebp], 0
  00087	74 2f		 je	 SHORT $LN8@alloc
  00089	8b 4d e4	 mov	 ecx, DWORD PTR $T4[ebp]
  0008c	8b 55 ec	 mov	 edx, DWORD PTR $T6[ebp]
  0008f	89 11		 mov	 DWORD PTR [ecx], edx
  00091	68 00 00 00 00	 push	 OFFSET ??1win_atomic@win32@common@@QAE@XZ ; common::win32::win_atomic::~win_atomic
  00096	68 00 00 00 00	 push	 OFFSET ??0win_atomic@win32@common@@QAE@XZ ; common::win32::win_atomic::win_atomic
  0009b	8b 45 ec	 mov	 eax, DWORD PTR $T6[ebp]
  0009e	50		 push	 eax
  0009f	6a 04		 push	 4
  000a1	8b 4d e4	 mov	 ecx, DWORD PTR $T4[ebp]
  000a4	83 c1 04	 add	 ecx, 4
  000a7	51		 push	 ecx
  000a8	e8 00 00 00 00	 call	 ??_L@YGXPAXIIP6EX0@Z1@Z
  000ad	8b 55 e4	 mov	 edx, DWORD PTR $T4[ebp]
  000b0	83 c2 04	 add	 edx, 4
  000b3	89 55 d8	 mov	 DWORD PTR tv92[ebp], edx
  000b6	eb 07		 jmp	 SHORT $LN9@alloc
$LN8@alloc:
  000b8	c7 45 d8 00 00
	00 00		 mov	 DWORD PTR tv92[ebp], 0
$LN9@alloc:
  000bf	8b 45 d8	 mov	 eax, DWORD PTR tv92[ebp]
  000c2	89 45 e8	 mov	 DWORD PTR $T5[ebp], eax
  000c5	c7 45 fc ff ff
	ff ff		 mov	 DWORD PTR __$EHRec$[ebp+8], -1
  000cc	8b 4d f0	 mov	 ecx, DWORD PTR _this$[ebp]
  000cf	8b 55 e8	 mov	 edx, DWORD PTR $T5[ebp]
  000d2	89 11		 mov	 DWORD PTR [ecx], edx

; 35   : 	if(m_nFlagArray == NULL) {

  000d4	8b 45 f0	 mov	 eax, DWORD PTR _this$[ebp]
  000d7	83 38 00	 cmp	 DWORD PTR [eax], 0
  000da	75 22		 jne	 SHORT $LN5@alloc

; 36   : 		gs_cLogger.DebugLog(LEVEL_ERROR, "new m_nFlagArray");

  000dc	68 00 00 00 00	 push	 OFFSET $SG44621
  000e1	6a 24		 push	 36			; 00000024H
  000e3	68 00 00 00 00	 push	 OFFSET $SG44622
  000e8	6a 05		 push	 5
  000ea	68 00 00 00 00	 push	 OFFSET ?gs_cLogger@@3VCLogger@@A ; gs_cLogger
  000ef	e8 00 00 00 00	 call	 ?__debugLog@CLogger@@QAAXHPBDH0ZZ ; CLogger::__debugLog
  000f4	83 c4 14	 add	 esp, 20			; 00000014H

; 37   : 		return false;

  000f7	32 c0		 xor	 al, al
  000f9	e9 07 01 00 00	 jmp	 $LN1@alloc
$LN5@alloc:

; 38   : 	}
; 39   : 	for (m_nLastCount = 0; m_nLastCount < nMaxCount; m_nLastCount++)

  000fe	8b 4d f0	 mov	 ecx, DWORD PTR _this$[ebp]
  00101	c7 41 0c 00 00
	00 00		 mov	 DWORD PTR [ecx+12], 0
  00108	eb 0f		 jmp	 SHORT $LN4@alloc
$LN2@alloc:
  0010a	8b 55 f0	 mov	 edx, DWORD PTR _this$[ebp]
  0010d	8b 42 0c	 mov	 eax, DWORD PTR [edx+12]
  00110	83 c0 01	 add	 eax, 1
  00113	8b 4d f0	 mov	 ecx, DWORD PTR _this$[ebp]
  00116	89 41 0c	 mov	 DWORD PTR [ecx+12], eax
$LN4@alloc:
  00119	8b 55 f0	 mov	 edx, DWORD PTR _this$[ebp]
  0011c	8b 42 0c	 mov	 eax, DWORD PTR [edx+12]
  0011f	3b 45 0c	 cmp	 eax, DWORD PTR _nMaxCount$[ebp]
  00122	7d 15		 jge	 SHORT $LN3@alloc

; 40   : 	{
; 41   : 		m_nFlagArray[m_nLastCount].init();

  00124	8b 4d f0	 mov	 ecx, DWORD PTR _this$[ebp]
  00127	8b 51 0c	 mov	 edx, DWORD PTR [ecx+12]
  0012a	8b 45 f0	 mov	 eax, DWORD PTR _this$[ebp]
  0012d	8b 08		 mov	 ecx, DWORD PTR [eax]
  0012f	8d 0c 91	 lea	 ecx, DWORD PTR [ecx+edx*4]
  00132	e8 00 00 00 00	 call	 ?init@win_atomic@win32@common@@QAEXXZ ; common::win32::win_atomic::init

; 42   : 	}

  00137	eb d1		 jmp	 SHORT $LN2@alloc
$LN3@alloc:

; 43   : 
; 44   : 	m_pChunk = (char *)calloc(nMaxCount, getSizeByIndex(nShift));

  00139	8b 55 08	 mov	 edx, DWORD PTR _nShift$[ebp]
  0013c	52		 push	 edx
  0013d	e8 00 00 00 00	 call	 ?getSizeByIndex@@YAHH@Z	; getSizeByIndex
  00142	83 c4 04	 add	 esp, 4
  00145	8b f4		 mov	 esi, esp
  00147	50		 push	 eax
  00148	8b 45 0c	 mov	 eax, DWORD PTR _nMaxCount$[ebp]
  0014b	50		 push	 eax
  0014c	ff 15 00 00 00
	00		 call	 DWORD PTR __imp__calloc
  00152	83 c4 08	 add	 esp, 8
  00155	3b f4		 cmp	 esi, esp
  00157	e8 00 00 00 00	 call	 __RTC_CheckEsp
  0015c	8b 4d f0	 mov	 ecx, DWORD PTR _this$[ebp]
  0015f	89 41 18	 mov	 DWORD PTR [ecx+24], eax

; 45   : 
; 46   :     if(m_pChunk == NULL) {

  00162	8b 55 f0	 mov	 edx, DWORD PTR _this$[ebp]
  00165	83 7a 18 00	 cmp	 DWORD PTR [edx+24], 0
  00169	75 52		 jne	 SHORT $LN6@alloc

; 47   : 		gs_cLogger.DebugLog(LEVEL_ERROR, "m_pChunk alloc");

  0016b	68 00 00 00 00	 push	 OFFSET $SG44624
  00170	6a 2f		 push	 47			; 0000002fH
  00172	68 00 00 00 00	 push	 OFFSET $SG44625
  00177	6a 05		 push	 5
  00179	68 00 00 00 00	 push	 OFFSET ?gs_cLogger@@3VCLogger@@A ; gs_cLogger
  0017e	e8 00 00 00 00	 call	 ?__debugLog@CLogger@@QAAXHPBDH0ZZ ; CLogger::__debugLog
  00183	83 c4 14	 add	 esp, 20			; 00000014H

; 48   : 		delete[] m_nFlagArray;

  00186	8b 45 f0	 mov	 eax, DWORD PTR _this$[ebp]
  00189	8b 08		 mov	 ecx, DWORD PTR [eax]
  0018b	89 4d dc	 mov	 DWORD PTR $T2[ebp], ecx
  0018e	8b 55 dc	 mov	 edx, DWORD PTR $T2[ebp]
  00191	89 55 e0	 mov	 DWORD PTR $T3[ebp], edx
  00194	83 7d e0 00	 cmp	 DWORD PTR $T3[ebp], 0
  00198	74 0f		 je	 SHORT $LN10@alloc
  0019a	6a 03		 push	 3
  0019c	8b 4d e0	 mov	 ecx, DWORD PTR $T3[ebp]
  0019f	e8 00 00 00 00	 call	 ??_Ewin_atomic@win32@common@@QAEPAXI@Z
  001a4	89 45 d4	 mov	 DWORD PTR tv165[ebp], eax
  001a7	eb 07		 jmp	 SHORT $LN11@alloc
$LN10@alloc:
  001a9	c7 45 d4 00 00
	00 00		 mov	 DWORD PTR tv165[ebp], 0
$LN11@alloc:

; 49   : 		m_nFlagArray = NULL;

  001b0	8b 45 f0	 mov	 eax, DWORD PTR _this$[ebp]
  001b3	c7 00 00 00 00
	00		 mov	 DWORD PTR [eax], 0

; 50   : 		return false;

  001b9	32 c0		 xor	 al, al
  001bb	eb 48		 jmp	 SHORT $LN1@alloc
$LN6@alloc:

; 51   :     }
; 52   : 
; 53   :     m_nAllocCount   = nMaxCount;

  001bd	8b 4d f0	 mov	 ecx, DWORD PTR _this$[ebp]
  001c0	8b 55 0c	 mov	 edx, DWORD PTR _nMaxCount$[ebp]
  001c3	89 51 10	 mov	 DWORD PTR [ecx+16], edx

; 54   : 	m_nLastCount = 0;

  001c6	8b 45 f0	 mov	 eax, DWORD PTR _this$[ebp]
  001c9	c7 40 0c 00 00
	00 00		 mov	 DWORD PTR [eax+12], 0

; 55   : 	m_nUseCnt.init();

  001d0	8b 4d f0	 mov	 ecx, DWORD PTR _this$[ebp]
  001d3	83 c1 04	 add	 ecx, 4
  001d6	e8 00 00 00 00	 call	 ?init@win_atomic@win32@common@@QAEXXZ ; common::win32::win_atomic::init

; 56   : 	m_nShift = nShift;

  001db	8b 4d f0	 mov	 ecx, DWORD PTR _this$[ebp]
  001de	8b 55 08	 mov	 edx, DWORD PTR _nShift$[ebp]
  001e1	89 51 14	 mov	 DWORD PTR [ecx+20], edx

; 57   : 	m_pEnd = &m_pChunk[(m_nAllocCount-1)<< m_nShift];

  001e4	8b 45 f0	 mov	 eax, DWORD PTR _this$[ebp]
  001e7	8b 50 10	 mov	 edx, DWORD PTR [eax+16]
  001ea	83 ea 01	 sub	 edx, 1
  001ed	8b 45 f0	 mov	 eax, DWORD PTR _this$[ebp]
  001f0	8b 48 14	 mov	 ecx, DWORD PTR [eax+20]
  001f3	d3 e2		 shl	 edx, cl
  001f5	8b 4d f0	 mov	 ecx, DWORD PTR _this$[ebp]
  001f8	8b 41 18	 mov	 eax, DWORD PTR [ecx+24]
  001fb	03 c2		 add	 eax, edx
  001fd	8b 4d f0	 mov	 ecx, DWORD PTR _this$[ebp]
  00200	89 41 1c	 mov	 DWORD PTR [ecx+28], eax

; 58   : 	return true;

  00203	b0 01		 mov	 al, 1
$LN1@alloc:

; 59   : }

  00205	8b 4d f4	 mov	 ecx, DWORD PTR __$EHRec$[ebp]
  00208	64 89 0d 00 00
	00 00		 mov	 DWORD PTR fs:0, ecx
  0020f	59		 pop	 ecx
  00210	5e		 pop	 esi
  00211	83 c4 2c	 add	 esp, 44			; 0000002cH
  00214	3b ec		 cmp	 ebp, esp
  00216	e8 00 00 00 00	 call	 __RTC_CheckEsp
  0021b	8b e5		 mov	 esp, ebp
  0021d	5d		 pop	 ebp
  0021e	c2 08 00	 ret	 8
_TEXT	ENDS
text$x	SEGMENT
__unwindfunclet$?alloc@CBufPool@@QAE_NHH@Z$0:
  00000	68 00 00 00 00	 push	 OFFSET ?nothrow@std@@3Unothrow_t@1@B ; std::nothrow
  00005	8b 45 e4	 mov	 eax, DWORD PTR $T4[ebp]
  00008	50		 push	 eax
  00009	e8 00 00 00 00	 call	 ??_V@YAXPAXABUnothrow_t@std@@@Z ; operator delete[]
  0000e	83 c4 08	 add	 esp, 8
  00011	c3		 ret	 0
__ehhandler$?alloc@CBufPool@@QAE_NHH@Z:
  00012	8b 54 24 08	 mov	 edx, DWORD PTR [esp+8]
  00016	8d 42 0c	 lea	 eax, DWORD PTR [edx+12]
  00019	8b 4a d8	 mov	 ecx, DWORD PTR [edx-40]
  0001c	33 c8		 xor	 ecx, eax
  0001e	e8 00 00 00 00	 call	 @__security_check_cookie@4
  00023	b8 00 00 00 00	 mov	 eax, OFFSET __ehfuncinfo$?alloc@CBufPool@@QAE_NHH@Z
  00028	e9 00 00 00 00	 jmp	 ___CxxFrameHandler3
text$x	ENDS
?alloc@CBufPool@@QAE_NHH@Z ENDP				; CBufPool::alloc
; Function compile flags: /Odtp /RTCsu
; File e:\infinia-library-3.0\com\src\combufpool.cpp
_TEXT	SEGMENT
_i$ = -8						; size = 4
_this$ = -4						; size = 4
?clear@CBufPool@@QAEXXZ PROC				; CBufPool::clear
; _this$ = ecx

; 63   : {

  00000	55		 push	 ebp
  00001	8b ec		 mov	 ebp, esp
  00003	83 ec 08	 sub	 esp, 8
  00006	c7 45 f8 cc cc
	cc cc		 mov	 DWORD PTR [ebp-8], -858993460 ; ccccccccH
  0000d	c7 45 fc cc cc
	cc cc		 mov	 DWORD PTR [ebp-4], -858993460 ; ccccccccH
  00014	89 4d fc	 mov	 DWORD PTR _this$[ebp], ecx

; 64   : 	int i;
; 65   : 	m_nUseCnt.init();

  00017	8b 4d fc	 mov	 ecx, DWORD PTR _this$[ebp]
  0001a	83 c1 04	 add	 ecx, 4
  0001d	e8 00 00 00 00	 call	 ?init@win_atomic@win32@common@@QAEXXZ ; common::win32::win_atomic::init

; 66   : 	m_nLastCount = 0;

  00022	8b 45 fc	 mov	 eax, DWORD PTR _this$[ebp]
  00025	c7 40 0c 00 00
	00 00		 mov	 DWORD PTR [eax+12], 0

; 67   : 	for(i = 0; i < m_nAllocCount; i++)

  0002c	c7 45 f8 00 00
	00 00		 mov	 DWORD PTR _i$[ebp], 0
  00033	eb 09		 jmp	 SHORT $LN4@clear
$LN2@clear:
  00035	8b 4d f8	 mov	 ecx, DWORD PTR _i$[ebp]
  00038	83 c1 01	 add	 ecx, 1
  0003b	89 4d f8	 mov	 DWORD PTR _i$[ebp], ecx
$LN4@clear:
  0003e	8b 55 fc	 mov	 edx, DWORD PTR _this$[ebp]
  00041	8b 45 f8	 mov	 eax, DWORD PTR _i$[ebp]
  00044	3b 42 10	 cmp	 eax, DWORD PTR [edx+16]
  00047	7d 12		 jge	 SHORT $LN3@clear

; 68   : 	{
; 69   : 		m_nFlagArray[i].init();

  00049	8b 4d fc	 mov	 ecx, DWORD PTR _this$[ebp]
  0004c	8b 11		 mov	 edx, DWORD PTR [ecx]
  0004e	8b 45 f8	 mov	 eax, DWORD PTR _i$[ebp]
  00051	8d 0c 82	 lea	 ecx, DWORD PTR [edx+eax*4]
  00054	e8 00 00 00 00	 call	 ?init@win_atomic@win32@common@@QAEXXZ ; common::win32::win_atomic::init

; 70   : 	}

  00059	eb da		 jmp	 SHORT $LN2@clear
$LN3@clear:

; 71   : 	memset(m_pChunk, 0, getSizeByIndex(m_nShift)*m_nAllocCount);

  0005b	8b 4d fc	 mov	 ecx, DWORD PTR _this$[ebp]
  0005e	8b 51 14	 mov	 edx, DWORD PTR [ecx+20]
  00061	52		 push	 edx
  00062	e8 00 00 00 00	 call	 ?getSizeByIndex@@YAHH@Z	; getSizeByIndex
  00067	83 c4 04	 add	 esp, 4
  0006a	8b 4d fc	 mov	 ecx, DWORD PTR _this$[ebp]
  0006d	0f af 41 10	 imul	 eax, DWORD PTR [ecx+16]
  00071	50		 push	 eax
  00072	6a 00		 push	 0
  00074	8b 55 fc	 mov	 edx, DWORD PTR _this$[ebp]
  00077	8b 42 18	 mov	 eax, DWORD PTR [edx+24]
  0007a	50		 push	 eax
  0007b	e8 00 00 00 00	 call	 _memset
  00080	83 c4 0c	 add	 esp, 12			; 0000000cH

; 72   : }

  00083	83 c4 08	 add	 esp, 8
  00086	3b ec		 cmp	 ebp, esp
  00088	e8 00 00 00 00	 call	 __RTC_CheckEsp
  0008d	8b e5		 mov	 esp, ebp
  0008f	5d		 pop	 ebp
  00090	c3		 ret	 0
?clear@CBufPool@@QAEXXZ ENDP				; CBufPool::clear
_TEXT	ENDS
; Function compile flags: /Odtp /RTCsu
; File e:\infinia-library-3.0\com\src\combufpool.cpp
_TEXT	SEGMENT
tv80 = -16						; size = 4
$T1 = -12						; size = 4
$T2 = -8						; size = 4
_this$ = -4						; size = 4
??1CBufPool@@QAE@XZ PROC				; CBufPool::~CBufPool
; _this$ = ecx

; 20   : {

  00000	55		 push	 ebp
  00001	8b ec		 mov	 ebp, esp
  00003	83 ec 10	 sub	 esp, 16			; 00000010H
  00006	56		 push	 esi
  00007	b8 cc cc cc cc	 mov	 eax, -858993460		; ccccccccH
  0000c	89 45 f0	 mov	 DWORD PTR [ebp-16], eax
  0000f	89 45 f4	 mov	 DWORD PTR [ebp-12], eax
  00012	89 45 f8	 mov	 DWORD PTR [ebp-8], eax
  00015	89 45 fc	 mov	 DWORD PTR [ebp-4], eax
  00018	89 4d fc	 mov	 DWORD PTR _this$[ebp], ecx

; 21   :     if(m_pChunk) {

  0001b	8b 45 fc	 mov	 eax, DWORD PTR _this$[ebp]
  0001e	83 78 18 00	 cmp	 DWORD PTR [eax+24], 0
  00022	74 23		 je	 SHORT $LN2@CBufPool

; 22   :         free(m_pChunk);

  00024	8b f4		 mov	 esi, esp
  00026	8b 4d fc	 mov	 ecx, DWORD PTR _this$[ebp]
  00029	8b 51 18	 mov	 edx, DWORD PTR [ecx+24]
  0002c	52		 push	 edx
  0002d	ff 15 00 00 00
	00		 call	 DWORD PTR __imp__free
  00033	83 c4 04	 add	 esp, 4
  00036	3b f4		 cmp	 esi, esp
  00038	e8 00 00 00 00	 call	 __RTC_CheckEsp

; 23   :         m_pChunk = NULL;

  0003d	8b 45 fc	 mov	 eax, DWORD PTR _this$[ebp]
  00040	c7 40 18 00 00
	00 00		 mov	 DWORD PTR [eax+24], 0
$LN2@CBufPool:

; 24   :     }
; 25   : 
; 26   :     if(m_nFlagArray) {

  00047	8b 4d fc	 mov	 ecx, DWORD PTR _this$[ebp]
  0004a	83 39 00	 cmp	 DWORD PTR [ecx], 0
  0004d	74 33		 je	 SHORT $LN1@CBufPool

; 27   :         delete [] m_nFlagArray;

  0004f	8b 55 fc	 mov	 edx, DWORD PTR _this$[ebp]
  00052	8b 02		 mov	 eax, DWORD PTR [edx]
  00054	89 45 f4	 mov	 DWORD PTR $T1[ebp], eax
  00057	8b 4d f4	 mov	 ecx, DWORD PTR $T1[ebp]
  0005a	89 4d f8	 mov	 DWORD PTR $T2[ebp], ecx
  0005d	83 7d f8 00	 cmp	 DWORD PTR $T2[ebp], 0
  00061	74 0f		 je	 SHORT $LN5@CBufPool
  00063	6a 03		 push	 3
  00065	8b 4d f8	 mov	 ecx, DWORD PTR $T2[ebp]
  00068	e8 00 00 00 00	 call	 ??_Ewin_atomic@win32@common@@QAEPAXI@Z
  0006d	89 45 f0	 mov	 DWORD PTR tv80[ebp], eax
  00070	eb 07		 jmp	 SHORT $LN6@CBufPool
$LN5@CBufPool:
  00072	c7 45 f0 00 00
	00 00		 mov	 DWORD PTR tv80[ebp], 0
$LN6@CBufPool:

; 28   :         m_nFlagArray = NULL;

  00079	8b 55 fc	 mov	 edx, DWORD PTR _this$[ebp]
  0007c	c7 02 00 00 00
	00		 mov	 DWORD PTR [edx], 0
$LN1@CBufPool:

; 29   :     }	
; 30   : }

  00082	8b 4d fc	 mov	 ecx, DWORD PTR _this$[ebp]
  00085	83 c1 08	 add	 ecx, 8
  00088	e8 00 00 00 00	 call	 ??1win_atomic@win32@common@@QAE@XZ ; common::win32::win_atomic::~win_atomic
  0008d	8b 4d fc	 mov	 ecx, DWORD PTR _this$[ebp]
  00090	83 c1 04	 add	 ecx, 4
  00093	e8 00 00 00 00	 call	 ??1win_atomic@win32@common@@QAE@XZ ; common::win32::win_atomic::~win_atomic
  00098	5e		 pop	 esi
  00099	83 c4 10	 add	 esp, 16			; 00000010H
  0009c	3b ec		 cmp	 ebp, esp
  0009e	e8 00 00 00 00	 call	 __RTC_CheckEsp
  000a3	8b e5		 mov	 esp, ebp
  000a5	5d		 pop	 ebp
  000a6	c3		 ret	 0
??1CBufPool@@QAE@XZ ENDP				; CBufPool::~CBufPool
_TEXT	ENDS
; Function compile flags: /Odtp /RTCsu
; File e:\infinia-library-3.0\com\src\combufpool.cpp
_TEXT	SEGMENT
_this$ = -16						; size = 4
__$EHRec$ = -12						; size = 12
??0CBufPool@@QAE@XZ PROC				; CBufPool::CBufPool
; _this$ = ecx

; 7    : {

  00000	55		 push	 ebp
  00001	8b ec		 mov	 ebp, esp
  00003	6a ff		 push	 -1
  00005	68 00 00 00 00	 push	 __ehhandler$??0CBufPool@@QAE@XZ
  0000a	64 a1 00 00 00
	00		 mov	 eax, DWORD PTR fs:0
  00010	50		 push	 eax
  00011	51		 push	 ecx
  00012	c7 45 f0 cc cc
	cc cc		 mov	 DWORD PTR [ebp-16], -858993460 ; ccccccccH
  00019	a1 00 00 00 00	 mov	 eax, DWORD PTR ___security_cookie
  0001e	33 c5		 xor	 eax, ebp
  00020	50		 push	 eax
  00021	8d 45 f4	 lea	 eax, DWORD PTR __$EHRec$[ebp]
  00024	64 a3 00 00 00
	00		 mov	 DWORD PTR fs:0, eax
  0002a	89 4d f0	 mov	 DWORD PTR _this$[ebp], ecx
  0002d	8b 4d f0	 mov	 ecx, DWORD PTR _this$[ebp]
  00030	83 c1 04	 add	 ecx, 4
  00033	e8 00 00 00 00	 call	 ??0win_atomic@win32@common@@QAE@XZ ; common::win32::win_atomic::win_atomic
  00038	c7 45 fc 00 00
	00 00		 mov	 DWORD PTR __$EHRec$[ebp+8], 0
  0003f	8b 4d f0	 mov	 ecx, DWORD PTR _this$[ebp]
  00042	83 c1 08	 add	 ecx, 8
  00045	e8 00 00 00 00	 call	 ??0win_atomic@win32@common@@QAE@XZ ; common::win32::win_atomic::win_atomic

; 8    : 	m_nAllocCount = 0;

  0004a	8b 45 f0	 mov	 eax, DWORD PTR _this$[ebp]
  0004d	c7 40 10 00 00
	00 00		 mov	 DWORD PTR [eax+16], 0

; 9    : 	m_nLastCount = 0;

  00054	8b 4d f0	 mov	 ecx, DWORD PTR _this$[ebp]
  00057	c7 41 0c 00 00
	00 00		 mov	 DWORD PTR [ecx+12], 0

; 10   : 	memset(g_szMessage, 0 ,LEN_MEM_MESSAGE); 

  0005e	68 80 00 00 00	 push	 128			; 00000080H
  00063	6a 00		 push	 0
  00065	68 00 00 00 00	 push	 OFFSET ?g_szMessage@@3PADA ; g_szMessage
  0006a	e8 00 00 00 00	 call	 _memset
  0006f	83 c4 0c	 add	 esp, 12			; 0000000cH

; 11   : 	m_pChunk = NULL;

  00072	8b 55 f0	 mov	 edx, DWORD PTR _this$[ebp]
  00075	c7 42 18 00 00
	00 00		 mov	 DWORD PTR [edx+24], 0

; 12   : 	m_nFlagArray = NULL;

  0007c	8b 45 f0	 mov	 eax, DWORD PTR _this$[ebp]
  0007f	c7 00 00 00 00
	00		 mov	 DWORD PTR [eax], 0

; 13   : 	m_nShift = 0;

  00085	8b 4d f0	 mov	 ecx, DWORD PTR _this$[ebp]
  00088	c7 41 14 00 00
	00 00		 mov	 DWORD PTR [ecx+20], 0

; 14   : 	m_pEnd = NULL;

  0008f	8b 55 f0	 mov	 edx, DWORD PTR _this$[ebp]
  00092	c7 42 1c 00 00
	00 00		 mov	 DWORD PTR [edx+28], 0

; 15   : 	//m_nOverCnt.init();
; 16   : 	//m_nOverMaxCnt.init();
; 17   : }

  00099	c7 45 fc ff ff
	ff ff		 mov	 DWORD PTR __$EHRec$[ebp+8], -1
  000a0	8b 45 f0	 mov	 eax, DWORD PTR _this$[ebp]
  000a3	8b 4d f4	 mov	 ecx, DWORD PTR __$EHRec$[ebp]
  000a6	64 89 0d 00 00
	00 00		 mov	 DWORD PTR fs:0, ecx
  000ad	59		 pop	 ecx
  000ae	83 c4 10	 add	 esp, 16			; 00000010H
  000b1	3b ec		 cmp	 ebp, esp
  000b3	e8 00 00 00 00	 call	 __RTC_CheckEsp
  000b8	8b e5		 mov	 esp, ebp
  000ba	5d		 pop	 ebp
  000bb	c3		 ret	 0
_TEXT	ENDS
text$x	SEGMENT
__unwindfunclet$??0CBufPool@@QAE@XZ$0:
  00000	8b 4d f0	 mov	 ecx, DWORD PTR _this$[ebp]
  00003	83 c1 04	 add	 ecx, 4
  00006	e9 00 00 00 00	 jmp	 ??1win_atomic@win32@common@@QAE@XZ ; common::win32::win_atomic::~win_atomic
__ehhandler$??0CBufPool@@QAE@XZ:
  0000b	8b 54 24 08	 mov	 edx, DWORD PTR [esp+8]
  0000f	8d 42 0c	 lea	 eax, DWORD PTR [edx+12]
  00012	8b 4a f8	 mov	 ecx, DWORD PTR [edx-8]
  00015	33 c8		 xor	 ecx, eax
  00017	e8 00 00 00 00	 call	 @__security_check_cookie@4
  0001c	b8 00 00 00 00	 mov	 eax, OFFSET __ehfuncinfo$??0CBufPool@@QAE@XZ
  00021	e9 00 00 00 00	 jmp	 ___CxxFrameHandler3
text$x	ENDS
??0CBufPool@@QAE@XZ ENDP				; CBufPool::CBufPool
; Function compile flags: /Odtp /RTCsu
; File e:\infinia-library-3.0\com\include\combufpool.h
;	COMDAT ?getSizeByIndex@@YAHH@Z
_TEXT	SEGMENT
_nIdx$ = 8						; size = 4
?getSizeByIndex@@YAHH@Z PROC				; getSizeByIndex, COMDAT

; 52   : inline int getSizeByIndex(int nIdx) { return g_nSizeList[nIdx]; }

  00000	55		 push	 ebp
  00001	8b ec		 mov	 ebp, esp
  00003	8b 45 08	 mov	 eax, DWORD PTR _nIdx$[ebp]
  00006	8b 04 85 00 00
	00 00		 mov	 eax, DWORD PTR ?g_nSizeList@@3QBHB[eax*4]
  0000d	5d		 pop	 ebp
  0000e	c3		 ret	 0
?getSizeByIndex@@YAHH@Z ENDP				; getSizeByIndex
_TEXT	ENDS
; Function compile flags: /Odtp /RTCsu
; File e:\infinia-library-3.0\com\include\comtypes.h
;	COMDAT ?ISINCLUDE@@YA_NHH@Z
_TEXT	SEGMENT
_i$ = 8							; size = 4
_max$ = 12						; size = 4
?ISINCLUDE@@YA_NHH@Z PROC				; ISINCLUDE, COMDAT

; 322  : inline bool ISINCLUDE(int i, int max) { if (0 <= i && i < max) return true; return false; }

  00000	55		 push	 ebp
  00001	8b ec		 mov	 ebp, esp
  00003	83 7d 08 00	 cmp	 DWORD PTR _i$[ebp], 0
  00007	7c 0c		 jl	 SHORT $LN2@ISINCLUDE
  00009	8b 45 08	 mov	 eax, DWORD PTR _i$[ebp]
  0000c	3b 45 0c	 cmp	 eax, DWORD PTR _max$[ebp]
  0000f	7d 04		 jge	 SHORT $LN2@ISINCLUDE
  00011	b0 01		 mov	 al, 1
  00013	eb 02		 jmp	 SHORT $LN1@ISINCLUDE
$LN2@ISINCLUDE:
  00015	32 c0		 xor	 al, al
$LN1@ISINCLUDE:
  00017	5d		 pop	 ebp
  00018	c3		 ret	 0
?ISINCLUDE@@YA_NHH@Z ENDP				; ISINCLUDE
_TEXT	ENDS
; Function compile flags: /Odtp /RTCsu
; File e:\infinia-library-3.0\com\include\comtypes.h
;	COMDAT ?bitSet_flag@@YAXHPAD@Z
_TEXT	SEGMENT
_n$ = 8							; size = 4
_p$ = 12						; size = 4
?bitSet_flag@@YAXHPAD@Z PROC				; bitSet_flag, COMDAT

; 316  : inline void bitSet_flag(int n, char *p) {  p[n >> 3] |= (n & 7); }

  00000	55		 push	 ebp
  00001	8b ec		 mov	 ebp, esp
  00003	8b 45 08	 mov	 eax, DWORD PTR _n$[ebp]
  00006	c1 f8 03	 sar	 eax, 3
  00009	8b 4d 08	 mov	 ecx, DWORD PTR _n$[ebp]
  0000c	83 e1 07	 and	 ecx, 7
  0000f	8b 55 0c	 mov	 edx, DWORD PTR _p$[ebp]
  00012	0f be 04 02	 movsx	 eax, BYTE PTR [edx+eax]
  00016	0b c1		 or	 eax, ecx
  00018	8b 4d 08	 mov	 ecx, DWORD PTR _n$[ebp]
  0001b	c1 f9 03	 sar	 ecx, 3
  0001e	8b 55 0c	 mov	 edx, DWORD PTR _p$[ebp]
  00021	88 04 0a	 mov	 BYTE PTR [edx+ecx], al
  00024	5d		 pop	 ebp
  00025	c3		 ret	 0
?bitSet_flag@@YAXHPAD@Z ENDP				; bitSet_flag
_TEXT	ENDS
; Function compile flags: /Odtp /RTCsu
; File e:\infinia-library-3.0\com\include\comtypes.h
;	COMDAT ?bitClear_flag@@YAXHPAD@Z
_TEXT	SEGMENT
_n$ = 8							; size = 4
_p$ = 12						; size = 4
?bitClear_flag@@YAXHPAD@Z PROC				; bitClear_flag, COMDAT

; 315  : inline void bitClear_flag(int n, char *p) {  p[n >> 3] &= ~(n & 7); }

  00000	55		 push	 ebp
  00001	8b ec		 mov	 ebp, esp
  00003	8b 45 08	 mov	 eax, DWORD PTR _n$[ebp]
  00006	c1 f8 03	 sar	 eax, 3
  00009	8b 4d 08	 mov	 ecx, DWORD PTR _n$[ebp]
  0000c	83 e1 07	 and	 ecx, 7
  0000f	f7 d1		 not	 ecx
  00011	8b 55 0c	 mov	 edx, DWORD PTR _p$[ebp]
  00014	0f be 04 02	 movsx	 eax, BYTE PTR [edx+eax]
  00018	23 c1		 and	 eax, ecx
  0001a	8b 4d 08	 mov	 ecx, DWORD PTR _n$[ebp]
  0001d	c1 f9 03	 sar	 ecx, 3
  00020	8b 55 0c	 mov	 edx, DWORD PTR _p$[ebp]
  00023	88 04 0a	 mov	 BYTE PTR [edx+ecx], al
  00026	5d		 pop	 ebp
  00027	c3		 ret	 0
?bitClear_flag@@YAXHPAD@Z ENDP				; bitClear_flag
_TEXT	ENDS
; Function compile flags: /Odtp /RTCsu
; File e:\infinia-library-3.0\com\include\comtypes.h
;	COMDAT ?isBitSet_flag@@YA_NHPAD@Z
_TEXT	SEGMENT
tv71 = -1						; size = 1
_n$ = 8							; size = 4
_p$ = 12						; size = 4
?isBitSet_flag@@YA_NHPAD@Z PROC				; isBitSet_flag, COMDAT

; 314  : inline bool isBitSet_flag(int n, char *p) { return p[n >> 3] & (n & 7)?true:false; }  // 8bit char   .

  00000	55		 push	 ebp
  00001	8b ec		 mov	 ebp, esp
  00003	51		 push	 ecx
  00004	c7 45 fc cc cc
	cc cc		 mov	 DWORD PTR [ebp-4], -858993460 ; ccccccccH
  0000b	8b 45 08	 mov	 eax, DWORD PTR _n$[ebp]
  0000e	c1 f8 03	 sar	 eax, 3
  00011	8b 4d 0c	 mov	 ecx, DWORD PTR _p$[ebp]
  00014	0f be 14 01	 movsx	 edx, BYTE PTR [ecx+eax]
  00018	8b 45 08	 mov	 eax, DWORD PTR _n$[ebp]
  0001b	83 e0 07	 and	 eax, 7
  0001e	23 d0		 and	 edx, eax
  00020	74 06		 je	 SHORT $LN3@isBitSet_f
  00022	c6 45 ff 01	 mov	 BYTE PTR tv71[ebp], 1
  00026	eb 04		 jmp	 SHORT $LN4@isBitSet_f
$LN3@isBitSet_f:
  00028	c6 45 ff 00	 mov	 BYTE PTR tv71[ebp], 0
$LN4@isBitSet_f:
  0002c	8a 45 ff	 mov	 al, BYTE PTR tv71[ebp]
  0002f	8b e5		 mov	 esp, ebp
  00031	5d		 pop	 ebp
  00032	c3		 ret	 0
?isBitSet_flag@@YA_NHPAD@Z ENDP				; isBitSet_flag
_TEXT	ENDS
; Function compile flags: /Odtp /RTCsu
;	COMDAT ??_Ewin_atomic@win32@common@@QAEPAXI@Z
_TEXT	SEGMENT
_this$ = -16						; size = 4
__$EHRec$ = -12						; size = 12
___flags$ = 8						; size = 4
??_Ewin_atomic@win32@common@@QAEPAXI@Z PROC		; common::win32::win_atomic::`vector deleting destructor', COMDAT
; _this$ = ecx
  00000	55		 push	 ebp
  00001	8b ec		 mov	 ebp, esp
  00003	6a ff		 push	 -1
  00005	68 00 00 00 00	 push	 __ehhandler$??_Ewin_atomic@win32@common@@QAEPAXI@Z
  0000a	64 a1 00 00 00
	00		 mov	 eax, DWORD PTR fs:0
  00010	50		 push	 eax
  00011	51		 push	 ecx
  00012	c7 45 f0 cc cc
	cc cc		 mov	 DWORD PTR [ebp-16], -858993460 ; ccccccccH
  00019	a1 00 00 00 00	 mov	 eax, DWORD PTR ___security_cookie
  0001e	33 c5		 xor	 eax, ebp
  00020	50		 push	 eax
  00021	8d 45 f4	 lea	 eax, DWORD PTR __$EHRec$[ebp]
  00024	64 a3 00 00 00
	00		 mov	 DWORD PTR fs:0, eax
  0002a	89 4d f0	 mov	 DWORD PTR _this$[ebp], ecx
  0002d	8b 45 08	 mov	 eax, DWORD PTR ___flags$[ebp]
  00030	83 e0 02	 and	 eax, 2
  00033	74 44		 je	 SHORT $LN2@vector
  00035	68 00 00 00 00	 push	 OFFSET ??1win_atomic@win32@common@@QAE@XZ ; common::win32::win_atomic::~win_atomic
  0003a	8b 4d f0	 mov	 ecx, DWORD PTR _this$[ebp]
  0003d	8b 51 fc	 mov	 edx, DWORD PTR [ecx-4]
  00040	52		 push	 edx
  00041	6a 04		 push	 4
  00043	8b 45 f0	 mov	 eax, DWORD PTR _this$[ebp]
  00046	50		 push	 eax
  00047	e8 00 00 00 00	 call	 ??_M@YGXPAXIIP6EX0@Z@Z
  0004c	8b 4d 08	 mov	 ecx, DWORD PTR ___flags$[ebp]
  0004f	83 e1 01	 and	 ecx, 1
  00052	74 1d		 je	 SHORT $LN3@vector
  00054	8b 55 f0	 mov	 edx, DWORD PTR _this$[ebp]
  00057	8b 42 fc	 mov	 eax, DWORD PTR [edx-4]
  0005a	8d 0c 85 04 00
	00 00		 lea	 ecx, DWORD PTR [eax*4+4]
  00061	51		 push	 ecx
  00062	8b 55 f0	 mov	 edx, DWORD PTR _this$[ebp]
  00065	83 ea 04	 sub	 edx, 4
  00068	52		 push	 edx
  00069	e8 00 00 00 00	 call	 ??_V@YAXPAXI@Z		; operator delete[]
  0006e	83 c4 08	 add	 esp, 8
$LN3@vector:
  00071	8b 45 f0	 mov	 eax, DWORD PTR _this$[ebp]
  00074	83 e8 04	 sub	 eax, 4
  00077	eb 21		 jmp	 SHORT $LN5@vector
$LN2@vector:
  00079	8b 4d f0	 mov	 ecx, DWORD PTR _this$[ebp]
  0007c	e8 00 00 00 00	 call	 ??1win_atomic@win32@common@@QAE@XZ ; common::win32::win_atomic::~win_atomic
  00081	8b 45 08	 mov	 eax, DWORD PTR ___flags$[ebp]
  00084	83 e0 01	 and	 eax, 1
  00087	74 0e		 je	 SHORT $LN4@vector
  00089	6a 04		 push	 4
  0008b	8b 4d f0	 mov	 ecx, DWORD PTR _this$[ebp]
  0008e	51		 push	 ecx
  0008f	e8 00 00 00 00	 call	 ??3@YAXPAXI@Z		; operator delete
  00094	83 c4 08	 add	 esp, 8
$LN4@vector:
  00097	8b 45 f0	 mov	 eax, DWORD PTR _this$[ebp]
$LN5@vector:
  0009a	8b 4d f4	 mov	 ecx, DWORD PTR __$EHRec$[ebp]
  0009d	64 89 0d 00 00
	00 00		 mov	 DWORD PTR fs:0, ecx
  000a4	59		 pop	 ecx
  000a5	83 c4 10	 add	 esp, 16			; 00000010H
  000a8	3b ec		 cmp	 ebp, esp
  000aa	e8 00 00 00 00	 call	 __RTC_CheckEsp
  000af	8b e5		 mov	 esp, ebp
  000b1	5d		 pop	 ebp
  000b2	c2 04 00	 ret	 4
_TEXT	ENDS
;	COMDAT text$x
text$x	SEGMENT
__ehhandler$??_Ewin_atomic@win32@common@@QAEPAXI@Z:
  00000	8b 54 24 08	 mov	 edx, DWORD PTR [esp+8]
  00004	8d 42 0c	 lea	 eax, DWORD PTR [edx+12]
  00007	8b 4a f8	 mov	 ecx, DWORD PTR [edx-8]
  0000a	33 c8		 xor	 ecx, eax
  0000c	e8 00 00 00 00	 call	 @__security_check_cookie@4
  00011	b8 00 00 00 00	 mov	 eax, OFFSET __ehfuncinfo$??_Ewin_atomic@win32@common@@QAEPAXI@Z
  00016	e9 00 00 00 00	 jmp	 ___CxxFrameHandler3
text$x	ENDS
??_Ewin_atomic@win32@common@@QAEPAXI@Z ENDP		; common::win32::win_atomic::`vector deleting destructor'
; Function compile flags: /Odtp /RTCsu
; File e:\infinia-library-3.0\com\include\com\win32\win32_mtsync.h
;	COMDAT ?atomic_compare_exchange@win_atomic@win32@common@@QAEHHH@Z
_TEXT	SEGMENT
_this$ = -4						; size = 4
_nExchange$ = 8						; size = 4
_nComperand$ = 12					; size = 4
?atomic_compare_exchange@win_atomic@win32@common@@QAEHHH@Z PROC ; common::win32::win_atomic::atomic_compare_exchange, COMDAT
; _this$ = ecx

; 99   : 	inline int atomic_compare_exchange(int nExchange, int nComperand) {return (int)InterlockedCompareExchange(&m_count, nExchange, nComperand);} // return long

  00000	55		 push	 ebp
  00001	8b ec		 mov	 ebp, esp
  00003	51		 push	 ecx
  00004	56		 push	 esi
  00005	c7 45 fc cc cc
	cc cc		 mov	 DWORD PTR [ebp-4], -858993460 ; ccccccccH
  0000c	89 4d fc	 mov	 DWORD PTR _this$[ebp], ecx
  0000f	8b f4		 mov	 esi, esp
  00011	8b 45 0c	 mov	 eax, DWORD PTR _nComperand$[ebp]
  00014	50		 push	 eax
  00015	8b 4d 08	 mov	 ecx, DWORD PTR _nExchange$[ebp]
  00018	51		 push	 ecx
  00019	8b 55 fc	 mov	 edx, DWORD PTR _this$[ebp]
  0001c	52		 push	 edx
  0001d	ff 15 00 00 00
	00		 call	 DWORD PTR __imp__InterlockedCompareExchange@12
  00023	3b f4		 cmp	 esi, esp
  00025	e8 00 00 00 00	 call	 __RTC_CheckEsp
  0002a	5e		 pop	 esi
  0002b	83 c4 04	 add	 esp, 4
  0002e	3b ec		 cmp	 ebp, esp
  00030	e8 00 00 00 00	 call	 __RTC_CheckEsp
  00035	8b e5		 mov	 esp, ebp
  00037	5d		 pop	 ebp
  00038	c2 08 00	 ret	 8
?atomic_compare_exchange@win_atomic@win32@common@@QAEHHH@Z ENDP ; common::win32::win_atomic::atomic_compare_exchange
_TEXT	ENDS
; Function compile flags: /Odtp /RTCsu
; File e:\infinia-library-3.0\com\include\com\win32\win32_mtsync.h
;	COMDAT ?atomic_decrement@win_atomic@win32@common@@QAEJXZ
_TEXT	SEGMENT
_this$ = -4						; size = 4
?atomic_decrement@win_atomic@win32@common@@QAEJXZ PROC	; common::win32::win_atomic::atomic_decrement, COMDAT
; _this$ = ecx

; 98   : 	inline long atomic_decrement() { return InterlockedDecrement(&m_count);}

  00000	55		 push	 ebp
  00001	8b ec		 mov	 ebp, esp
  00003	51		 push	 ecx
  00004	56		 push	 esi
  00005	c7 45 fc cc cc
	cc cc		 mov	 DWORD PTR [ebp-4], -858993460 ; ccccccccH
  0000c	89 4d fc	 mov	 DWORD PTR _this$[ebp], ecx
  0000f	8b 45 fc	 mov	 eax, DWORD PTR _this$[ebp]
  00012	8b f4		 mov	 esi, esp
  00014	50		 push	 eax
  00015	ff 15 00 00 00
	00		 call	 DWORD PTR __imp__InterlockedDecrement@4
  0001b	3b f4		 cmp	 esi, esp
  0001d	e8 00 00 00 00	 call	 __RTC_CheckEsp
  00022	5e		 pop	 esi
  00023	83 c4 04	 add	 esp, 4
  00026	3b ec		 cmp	 ebp, esp
  00028	e8 00 00 00 00	 call	 __RTC_CheckEsp
  0002d	8b e5		 mov	 esp, ebp
  0002f	5d		 pop	 ebp
  00030	c3		 ret	 0
?atomic_decrement@win_atomic@win32@common@@QAEJXZ ENDP	; common::win32::win_atomic::atomic_decrement
_TEXT	ENDS
; Function compile flags: /Odtp /RTCsu
; File e:\infinia-library-3.0\com\include\com\win32\win32_mtsync.h
;	COMDAT ?atomic_increment@win_atomic@win32@common@@QAEJXZ
_TEXT	SEGMENT
_this$ = -4						; size = 4
?atomic_increment@win_atomic@win32@common@@QAEJXZ PROC	; common::win32::win_atomic::atomic_increment, COMDAT
; _this$ = ecx

; 97   : 	inline long atomic_increment() { return InterlockedIncrement(&m_count);}

  00000	55		 push	 ebp
  00001	8b ec		 mov	 ebp, esp
  00003	51		 push	 ecx
  00004	56		 push	 esi
  00005	c7 45 fc cc cc
	cc cc		 mov	 DWORD PTR [ebp-4], -858993460 ; ccccccccH
  0000c	89 4d fc	 mov	 DWORD PTR _this$[ebp], ecx
  0000f	8b 45 fc	 mov	 eax, DWORD PTR _this$[ebp]
  00012	8b f4		 mov	 esi, esp
  00014	50		 push	 eax
  00015	ff 15 00 00 00
	00		 call	 DWORD PTR __imp__InterlockedIncrement@4
  0001b	3b f4		 cmp	 esi, esp
  0001d	e8 00 00 00 00	 call	 __RTC_CheckEsp
  00022	5e		 pop	 esi
  00023	83 c4 04	 add	 esp, 4
  00026	3b ec		 cmp	 ebp, esp
  00028	e8 00 00 00 00	 call	 __RTC_CheckEsp
  0002d	8b e5		 mov	 esp, ebp
  0002f	5d		 pop	 ebp
  00030	c3		 ret	 0
?atomic_increment@win_atomic@win32@common@@QAEJXZ ENDP	; common::win32::win_atomic::atomic_increment
_TEXT	ENDS
; Function compile flags: /Odtp /RTCsu
; File e:\infinia-library-3.0\com\include\com\win32\win32_mtsync.h
;	COMDAT ?init@win_atomic@win32@common@@QAEXXZ
_TEXT	SEGMENT
_this$ = -4						; size = 4
?init@win_atomic@win32@common@@QAEXXZ PROC		; common::win32::win_atomic::init, COMDAT
; _this$ = ecx

; 94   : 	inline void init() { m_count = 0; }

  00000	55		 push	 ebp
  00001	8b ec		 mov	 ebp, esp
  00003	51		 push	 ecx
  00004	c7 45 fc cc cc
	cc cc		 mov	 DWORD PTR [ebp-4], -858993460 ; ccccccccH
  0000b	89 4d fc	 mov	 DWORD PTR _this$[ebp], ecx
  0000e	8b 45 fc	 mov	 eax, DWORD PTR _this$[ebp]
  00011	c7 00 00 00 00
	00		 mov	 DWORD PTR [eax], 0
  00017	8b e5		 mov	 esp, ebp
  00019	5d		 pop	 ebp
  0001a	c3		 ret	 0
?init@win_atomic@win32@common@@QAEXXZ ENDP		; common::win32::win_atomic::init
_TEXT	ENDS
; Function compile flags: /Odtp /RTCsu
; File e:\infinia-library-3.0\com\include\com\win32\win32_mtsync.h
;	COMDAT ?getCount@win_atomic@win32@common@@QAEHXZ
_TEXT	SEGMENT
_this$ = -4						; size = 4
?getCount@win_atomic@win32@common@@QAEHXZ PROC		; common::win32::win_atomic::getCount, COMDAT
; _this$ = ecx

; 91   : 	inline int getCount() { return (int)m_count; }

  00000	55		 push	 ebp
  00001	8b ec		 mov	 ebp, esp
  00003	51		 push	 ecx
  00004	c7 45 fc cc cc
	cc cc		 mov	 DWORD PTR [ebp-4], -858993460 ; ccccccccH
  0000b	89 4d fc	 mov	 DWORD PTR _this$[ebp], ecx
  0000e	8b 45 fc	 mov	 eax, DWORD PTR _this$[ebp]
  00011	8b 00		 mov	 eax, DWORD PTR [eax]
  00013	8b e5		 mov	 esp, ebp
  00015	5d		 pop	 ebp
  00016	c3		 ret	 0
?getCount@win_atomic@win32@common@@QAEHXZ ENDP		; common::win32::win_atomic::getCount
_TEXT	ENDS
; Function compile flags: /Odtp /RTCsu
; File e:\infinia-library-3.0\com\include\com\win32\win32_mtsync.h
;	COMDAT ??1win_atomic@win32@common@@QAE@XZ
_TEXT	SEGMENT
_this$ = -4						; size = 4
??1win_atomic@win32@common@@QAE@XZ PROC			; common::win32::win_atomic::~win_atomic, COMDAT
; _this$ = ecx

; 88   : 	~win_atomic() {}

  00000	55		 push	 ebp
  00001	8b ec		 mov	 ebp, esp
  00003	51		 push	 ecx
  00004	c7 45 fc cc cc
	cc cc		 mov	 DWORD PTR [ebp-4], -858993460 ; ccccccccH
  0000b	89 4d fc	 mov	 DWORD PTR _this$[ebp], ecx
  0000e	8b e5		 mov	 esp, ebp
  00010	5d		 pop	 ebp
  00011	c3		 ret	 0
??1win_atomic@win32@common@@QAE@XZ ENDP			; common::win32::win_atomic::~win_atomic
_TEXT	ENDS
; Function compile flags: /Odtp /RTCsu
; File e:\infinia-library-3.0\com\include\com\win32\win32_mtsync.h
;	COMDAT ??0win_atomic@win32@common@@QAE@XZ
_TEXT	SEGMENT
_this$ = -4						; size = 4
??0win_atomic@win32@common@@QAE@XZ PROC			; common::win32::win_atomic::win_atomic, COMDAT
; _this$ = ecx

; 87   : 	win_atomic() {m_count = 0;}

  00000	55		 push	 ebp
  00001	8b ec		 mov	 ebp, esp
  00003	51		 push	 ecx
  00004	c7 45 fc cc cc
	cc cc		 mov	 DWORD PTR [ebp-4], -858993460 ; ccccccccH
  0000b	89 4d fc	 mov	 DWORD PTR _this$[ebp], ecx
  0000e	8b 45 fc	 mov	 eax, DWORD PTR _this$[ebp]
  00011	c7 00 00 00 00
	00		 mov	 DWORD PTR [eax], 0
  00017	8b 45 fc	 mov	 eax, DWORD PTR _this$[ebp]
  0001a	8b e5		 mov	 esp, ebp
  0001c	5d		 pop	 ebp
  0001d	c3		 ret	 0
??0win_atomic@win32@common@@QAE@XZ ENDP			; common::win32::win_atomic::win_atomic
_TEXT	ENDS
; Function compile flags: /Odtp /RTCsu
; File c:\program files (x86)\windows kits\10\include\10.0.10240.0\ucrt\stdio.h
;	COMDAT _sprintf
_TEXT	SEGMENT
__ArgList$ = -8						; size = 4
__Result$ = -4						; size = 4
__Buffer$ = 8						; size = 4
__Format$ = 12						; size = 4
_sprintf PROC						; COMDAT

; 1776 : {

  00000	55		 push	 ebp
  00001	8b ec		 mov	 ebp, esp
  00003	83 ec 08	 sub	 esp, 8
  00006	c7 45 f8 cc cc
	cc cc		 mov	 DWORD PTR [ebp-8], -858993460 ; ccccccccH
  0000d	c7 45 fc cc cc
	cc cc		 mov	 DWORD PTR [ebp-4], -858993460 ; ccccccccH

; 1777 :     int _Result;
; 1778 :     va_list _ArgList;
; 1779 :     __crt_va_start(_ArgList, _Format);

  00014	e8 00 00 00 00	 call	 ??$__vcrt_va_start_verify_argument_type@QBD@@YAXXZ ; __vcrt_va_start_verify_argument_type<char const * const>
  00019	8d 45 10	 lea	 eax, DWORD PTR __Format$[ebp+4]
  0001c	89 45 f8	 mov	 DWORD PTR __ArgList$[ebp], eax

; 1780 : 
; 1781 :     #pragma warning(push)
; 1782 :     #pragma warning(disable: 4996) // Deprecation
; 1783 :     _Result = _vsprintf_l(_Buffer, _Format, NULL, _ArgList);

  0001f	8b 4d f8	 mov	 ecx, DWORD PTR __ArgList$[ebp]
  00022	51		 push	 ecx
  00023	6a 00		 push	 0
  00025	8b 55 0c	 mov	 edx, DWORD PTR __Format$[ebp]
  00028	52		 push	 edx
  00029	8b 45 08	 mov	 eax, DWORD PTR __Buffer$[ebp]
  0002c	50		 push	 eax
  0002d	e8 00 00 00 00	 call	 __vsprintf_l
  00032	83 c4 10	 add	 esp, 16			; 00000010H
  00035	89 45 fc	 mov	 DWORD PTR __Result$[ebp], eax

; 1784 :     #pragma warning(pop)
; 1785 : 
; 1786 :     __crt_va_end(_ArgList);

  00038	c7 45 f8 00 00
	00 00		 mov	 DWORD PTR __ArgList$[ebp], 0

; 1787 :     return _Result;

  0003f	8b 45 fc	 mov	 eax, DWORD PTR __Result$[ebp]

; 1788 : }

  00042	83 c4 08	 add	 esp, 8
  00045	3b ec		 cmp	 ebp, esp
  00047	e8 00 00 00 00	 call	 __RTC_CheckEsp
  0004c	8b e5		 mov	 esp, ebp
  0004e	5d		 pop	 ebp
  0004f	c3		 ret	 0
_sprintf ENDP
_TEXT	ENDS
; Function compile flags: /Odtp /RTCsu
; File c:\program files (x86)\windows kits\10\include\10.0.10240.0\ucrt\stdio.h
;	COMDAT __vsprintf_l
_TEXT	SEGMENT
__Buffer$ = 8						; size = 4
__Format$ = 12						; size = 4
__Locale$ = 16						; size = 4
__ArgList$ = 20						; size = 4
__vsprintf_l PROC					; COMDAT

; 1455 : {

  00000	55		 push	 ebp
  00001	8b ec		 mov	 ebp, esp

; 1456 :     #pragma warning(push)
; 1457 :     #pragma warning(disable: 4996) // Deprecation
; 1458 :     return _vsnprintf_l(_Buffer, (size_t)-1, _Format, _Locale, _ArgList);

  00003	8b 45 14	 mov	 eax, DWORD PTR __ArgList$[ebp]
  00006	50		 push	 eax
  00007	8b 4d 10	 mov	 ecx, DWORD PTR __Locale$[ebp]
  0000a	51		 push	 ecx
  0000b	8b 55 0c	 mov	 edx, DWORD PTR __Format$[ebp]
  0000e	52		 push	 edx
  0000f	6a ff		 push	 -1
  00011	8b 45 08	 mov	 eax, DWORD PTR __Buffer$[ebp]
  00014	50		 push	 eax
  00015	e8 00 00 00 00	 call	 __vsnprintf_l
  0001a	83 c4 14	 add	 esp, 20			; 00000014H

; 1459 :     #pragma warning(pop)
; 1460 : }

  0001d	3b ec		 cmp	 ebp, esp
  0001f	e8 00 00 00 00	 call	 __RTC_CheckEsp
  00024	5d		 pop	 ebp
  00025	c3		 ret	 0
__vsprintf_l ENDP
_TEXT	ENDS
; Function compile flags: /Odtp /RTCsu
; File c:\program files (x86)\windows kits\10\include\10.0.10240.0\ucrt\stdio.h
;	COMDAT __vsnprintf_l
_TEXT	SEGMENT
tv74 = -8						; size = 4
__Result$ = -4						; size = 4
__Buffer$ = 8						; size = 4
__BufferCount$ = 12					; size = 4
__Format$ = 16						; size = 4
__Locale$ = 20						; size = 4
__ArgList$ = 24						; size = 4
__vsnprintf_l PROC					; COMDAT

; 1385 : {

  00000	55		 push	 ebp
  00001	8b ec		 mov	 ebp, esp
  00003	83 ec 08	 sub	 esp, 8
  00006	56		 push	 esi
  00007	c7 45 f8 cc cc
	cc cc		 mov	 DWORD PTR [ebp-8], -858993460 ; ccccccccH
  0000e	c7 45 fc cc cc
	cc cc		 mov	 DWORD PTR [ebp-4], -858993460 ; ccccccccH

; 1386 :     int const _Result = __stdio_common_vsprintf(

  00015	8b f4		 mov	 esi, esp
  00017	8b 45 18	 mov	 eax, DWORD PTR __ArgList$[ebp]
  0001a	50		 push	 eax
  0001b	8b 4d 14	 mov	 ecx, DWORD PTR __Locale$[ebp]
  0001e	51		 push	 ecx
  0001f	8b 55 10	 mov	 edx, DWORD PTR __Format$[ebp]
  00022	52		 push	 edx
  00023	8b 45 0c	 mov	 eax, DWORD PTR __BufferCount$[ebp]
  00026	50		 push	 eax
  00027	8b 4d 08	 mov	 ecx, DWORD PTR __Buffer$[ebp]
  0002a	51		 push	 ecx
  0002b	e8 00 00 00 00	 call	 ___local_stdio_printf_options
  00030	8b 10		 mov	 edx, DWORD PTR [eax]
  00032	83 ca 01	 or	 edx, 1
  00035	8b 40 04	 mov	 eax, DWORD PTR [eax+4]
  00038	50		 push	 eax
  00039	52		 push	 edx
  0003a	ff 15 00 00 00
	00		 call	 DWORD PTR __imp____stdio_common_vsprintf
  00040	83 c4 1c	 add	 esp, 28			; 0000001cH
  00043	3b f4		 cmp	 esi, esp
  00045	e8 00 00 00 00	 call	 __RTC_CheckEsp
  0004a	89 45 fc	 mov	 DWORD PTR __Result$[ebp], eax

; 1387 :         _CRT_INTERNAL_LOCAL_PRINTF_OPTIONS | _CRT_INTERNAL_PRINTF_LEGACY_VSPRINTF_NULL_TERMINATION,
; 1388 :         _Buffer, _BufferCount, _Format, _Locale, _ArgList);
; 1389 : 
; 1390 :     return _Result < 0 ? -1 : _Result;

  0004d	83 7d fc 00	 cmp	 DWORD PTR __Result$[ebp], 0
  00051	7d 09		 jge	 SHORT $LN3@vsnprintf_
  00053	c7 45 f8 ff ff
	ff ff		 mov	 DWORD PTR tv74[ebp], -1
  0005a	eb 06		 jmp	 SHORT $LN4@vsnprintf_
$LN3@vsnprintf_:
  0005c	8b 4d fc	 mov	 ecx, DWORD PTR __Result$[ebp]
  0005f	89 4d f8	 mov	 DWORD PTR tv74[ebp], ecx
$LN4@vsnprintf_:
  00062	8b 45 f8	 mov	 eax, DWORD PTR tv74[ebp]

; 1391 : }

  00065	5e		 pop	 esi
  00066	83 c4 08	 add	 esp, 8
  00069	3b ec		 cmp	 ebp, esp
  0006b	e8 00 00 00 00	 call	 __RTC_CheckEsp
  00070	8b e5		 mov	 esp, ebp
  00072	5d		 pop	 ebp
  00073	c3		 ret	 0
__vsnprintf_l ENDP
_TEXT	ENDS
; Function compile flags: /Odtp /RTCsu
; File c:\program files (x86)\microsoft visual studio 14.0\vc\include\vadefs.h
;	COMDAT ??$__vcrt_va_start_verify_argument_type@QBD@@YAXXZ
_TEXT	SEGMENT
??$__vcrt_va_start_verify_argument_type@QBD@@YAXXZ PROC	; __vcrt_va_start_verify_argument_type<char const * const>, COMDAT

; 144  :         {

  00000	55		 push	 ebp
  00001	8b ec		 mov	 ebp, esp

; 145  :             static_assert(!__vcrt_va_list_is_reference<_Ty>::__the_value, "va_start argument must not have reference type and must not be parenthesized");
; 146  :         }

  00003	5d		 pop	 ebp
  00004	c3		 ret	 0
??$__vcrt_va_start_verify_argument_type@QBD@@YAXXZ ENDP	; __vcrt_va_start_verify_argument_type<char const * const>
_TEXT	ENDS
; Function compile flags: /Odtp /RTCsu
; File c:\program files (x86)\windows kits\10\include\10.0.10240.0\ucrt\corecrt_stdio_config.h
;	COMDAT ___local_stdio_printf_options
_TEXT	SEGMENT
___local_stdio_printf_options PROC			; COMDAT

; 73   : {

  00000	55		 push	 ebp
  00001	8b ec		 mov	 ebp, esp

; 74   :     static unsigned __int64 _OptionsStorage;
; 75   :     return &_OptionsStorage;

  00003	b8 00 00 00 00	 mov	 eax, OFFSET ?_OptionsStorage@?1??__local_stdio_printf_options@@9@4_KA ; `__local_stdio_printf_options'::`2'::_OptionsStorage

; 76   : }

  00008	5d		 pop	 ebp
  00009	c3		 ret	 0
___local_stdio_printf_options ENDP
_TEXT	ENDS
END
