; Listing generated by Microsoft (R) Optimizing Compiler Version 19.00.24215.1 

	TITLE	E:\InfiniA-Library-3.0\com\src\comCore.cpp
	.686P
	.XMM
	include listing.inc
	.model	flat

INCLUDELIB MSVCRTD
INCLUDELIB OLDNAMES

PUBLIC	?gs_pCore@@3PAVCCoreList@@A			; gs_pCore
PUBLIC	?gs_today_time@@3USTTodayTime@@A		; gs_today_time
_BSS	SEGMENT
?gs_pCore@@3PAVCCoreList@@A DD 01H DUP (?)		; gs_pCore
?gs_today_time@@3USTTodayTime@@A DB 01cH DUP (?)	; gs_today_time
_BSS	ENDS
CONST	SEGMENT
$SG47110 DB	'i[%d] m_nMax[%d]', 00H
	ORG $+3
$SG46093 DB	'CCoreList::initDefaultPool', 00H
	ORG $+1
$SG46094 DB	'gs_pMMgr->alloc() has Failed!!!', 00H
$SG47121 DB	'pList calloc is NULL', 00H
	ORG $+3
$SG46128 DB	'LIST_COUNT', 00H
	ORG $+1
$SG46133 DB	'CCoreList::initComThread', 00H
	ORG $+3
$SG46134 DB	'm_pThreadList = new CTList<CComThread>() is NULL', 00H
	ORG $+3
$SG46137 DB	'CCoreList::initComThread', 00H
	ORG $+3
$SG46138 DB	'new (std::nothrow) CComThread() is NULL', 00H
$SG46140 DB	'CCoreList::initComThread', 00H
	ORG $+3
$SG46141 DB	'm_pThreadList->push_back', 00H
	ORG $+3
$SG47181 DB	'i[%d] m_nMax[%d]', 00H
	ORG $+3
$SG47192 DB	'pList calloc is NULL', 00H
	ORG $+3
$SG46170 DB	'LIST_COUNT', 00H
	ORG $+1
$SG46175 DB	'm_pWriterList->alloc nCnt[%d]', 00H
	ORG $+2
$SG46176 DB	'CCoreList::initLogWriter', 00H
	ORG $+3
$SG46179 DB	'[seq:%d] new (std::nothrow) CSTLogger() is NULL', 00H
$SG46180 DB	'CCoreList::initLogWriter', 00H
	ORG $+3
$SG46184 DB	'[seq:%d] pWriter->init', 00H
	ORG $+1
$SG46185 DB	'CCoreList::initLogWriter', 00H
	ORG $+3
$SG46187 DB	'[seq:%d] pWriter->push_back', 00H
$SG46188 DB	'CCoreList::initLogWriter', 00H
	ORG $+3
$SG46224 DB	'LIST_COUNT', 00H
	ORG $+1
$SG47252 DB	'i[%d] m_nMax[%d]', 00H
	ORG $+3
$SG46229 DB	'new (std::nothrow) CTList<CScheduler>() is NULL', 00H
$SG46230 DB	'CCoreList::initScheduler', 00H
	ORG $+3
$SG46232 DB	'm_pSchedulerList->alloc nCnt[%d]', 00H
	ORG $+3
$SG46233 DB	'CCoreList::initScheduler', 00H
	ORG $+3
$SG46234 DB	'TIME_POOL_MAX', 00H
	ORG $+2
$SG46237 DB	'has Failed!! m_pIntervalPool.alloc(%d)', 0aH, 00H
$SG47263 DB	'pList calloc is NULL', 00H
	ORG $+3
$SG46240 DB	'[seq:%d] new (std::nothrow) CScheduler() is NULL', 00H
	ORG $+3
$SG46241 DB	'CCoreList::initScheduler', 00H
	ORG $+3
$SG46243 DB	'[seq:%d] pScheduler->init', 00H
	ORG $+2
$SG46244 DB	'CCoreList::initScheduler', 00H
	ORG $+3
$SG46246 DB	'[seq:%d] pScheduler->push_back', 00H
	ORG $+1
$SG46247 DB	'CCoreList::initScheduler', 00H
	ORG $+3
$SG46276 DB	'LIST_COUNT', 00H
	ORG $+1
$SG46280 DB	'has Failed!! m_pEventThreadList = new CTList<CComQueueTh'
	DB	'read>()', 0aH, 00H
	ORG $+3
$SG46281 DB	'EVENT_POOL_MAX', 00H
	ORG $+1
$SG46284 DB	'has Failed!! m_pEventPool.alloc(%d)', 0aH, 00H
	ORG $+3
$SG47310 DB	'atomic_nr[%d] is NULL', 00H
	ORG $+2
$SG46289 DB	'has Failed!! [seq:%d] pEventThread->init()', 0aH, 00H
$SG46287 DB	'has Failed!! [seq:%d] pEventThread = new (std::nothrow) '
	DB	'CComQueueThread()', 0aH, 00H
	ORG $+1
$SG47315 DB	'm_pChunk is NULL [%d]', 00H
	ORG $+2
$SG46309 DB	'pLogger is NULL! [%s:%s]', 00H
	ORG $+3
$SG46291 DB	'has Failed!! [seq:%d] m_pEventThreadList->setNewObj(pSch'
	DB	'eduler)', 0aH, 00H
	ORG $+3
$SG46310 DB	'CCoreList::initLogger', 00H
	ORG $+2
$SG46313 DB	'pLogger->initConfig has Failed!!![%s:%s]', 00H
	ORG $+3
$SG46314 DB	'CCoreList::initLogger', 00H
	ORG $+2
$SG46317 DB	'pWriter is NULL!!![%s:%s] [nSTLNo:%d]', 00H
	ORG $+2
$SG46318 DB	'CCoreList::initLogger', 00H
	ORG $+2
$SG46325 DB	'CCoreList::initLogger', 00H
	ORG $+2
$SG46327 DB	'pWriter is NULL!!![nSTLNo:%d]', 0aH, 00H
	ORG $+1
$SG46328 DB	'CCoreList::initLogger', 00H
	ORG $+2
$SG46338 DB	'pWriter is NULL! pLogger[nSTLNo:%d]', 00H
$SG46339 DB	'CCoreList::setLoggerEnable', 00H
	ORG $+1
$SG46349 DB	'pWriter is NULL! pLogger[nSTLNo:%d]', 00H
$SG46350 DB	'CCoreList::setLoggerDisable', 00H
$SG47386 DB	'atomic_nr[%d] is NULL', 00H
	ORG $+2
$SG47391 DB	'm_pChunk is NULL [%d]', 00H
	ORG $+2
$SG45357 DB	'CComThread::start', 00H
	ORG $+2
$SG45358 DB	'm_fpLoopProc is NULL', 00H
	ORG $+3
$SG45360 DB	'CComThread::start', 00H
	ORG $+2
$SG45361 DB	'0 > m_stInfo.nIdx', 00H
	ORG $+2
$SG45364 DB	'CComThread::start', 00H
	ORG $+2
$SG45365 DB	'THREAD_CREATE has Failed', 00H
	ORG $+3
$SG46428 DB	'[lastIdx:%d] new CComThread', 00H
$SG46429 DB	'CCoreList::addComThread', 00H
$SG46432 DB	'[lastIdx:%d] pComThread->init()', 00H
$SG46433 DB	'CCoreList::addComThread', 00H
$SG46436 DB	'[idx:%d] m_pThreadList->push_back()', 00H
$SG46437 DB	'CCoreList::addComThread', 00H
$SG46440 DB	'[idx:%d] pComThread->start()', 00H
	ORG $+3
$SG46441 DB	'CCoreList::addComThread', 00H
$SG46474 DB	'CCoreList::addLogWriter', 00H
$SG46475 DB	'pWriter = new (std::nothrow) CSTLogger()', 00H
	ORG $+3
$SG46477 DB	'[idx:%d] pWriter->push_back(pWriter)', 00H
	ORG $+3
$SG46478 DB	'CCoreList::addLogWriter', 00H
$SG46481 DB	'pWriter->init(nCount:%d, idx:%d)', 00H
	ORG $+3
$SG46482 DB	'CCoreList::addLogWriter', 00H
$SG46485 DB	'[idx:%d] pWriter->start()!', 00H
	ORG $+1
$SG46486 DB	'CCoreList::addLogWriter', 00H
$SG45463 DB	'%s_%d', 00H
	ORG $+2
$SG45464 DB	'LIST_COUNT', 00H
	ORG $+1
$SG46512 DB	'CCoreList::addScheduler', 00H
$SG46513 DB	'pScheduler = new (std::nothrow) CScheduler()', 00H
	ORG $+3
$SG46515 DB	'[idx:%d] pScheduler->push_back(pWriter)', 00H
$SG46516 DB	'CCoreList::addScheduler', 00H
$SG46519 DB	'pScheduler->init(nCount:%d, millisecWait:%d, idx:%d)', 00H
	ORG $+3
$SG46520 DB	'CCoreList::addScheduler', 00H
$SG46523 DB	'[idx:%d] pScheduler->start()', 00H
	ORG $+3
$SG46524 DB	'CCoreList::addScheduler', 00H
$SG45501 DB	'CSTLogger::start', 00H
	ORG $+3
$SG45502 DB	'm_cThread.init', 00H
	ORG $+1
$SG45504 DB	'CSTLogger::start', 00H
	ORG $+3
$SG45505 DB	'm_cThread.start', 00H
$SG45506 DB	'CSTLogger::start()', 0aH, 00H
$SG46549 DB	'CCoreList::addQueueThread', 00H
	ORG $+2
$SG46550 DB	'FAIL! pEventThread = new (std::nothrow) CComQueueThread('
	DB	')', 00H
	ORG $+2
$SG46552 DB	'[idx:%d] m_pEventThreadList->push_back(pEventThread)', 00H
	ORG $+3
$SG46553 DB	'CCoreList::addQueueThread', 00H
	ORG $+2
$SG45530 DB	'Logger is already Enabled!', 00H
	ORG $+1
$SG46556 DB	'pEventThread->init(nCount:%d, idx:%d)', 00H
	ORG $+2
$SG46557 DB	'CCoreList::addQueueThread', 00H
	ORG $+2
$SG45535 DB	'CSTLogger::procLoggerEnable', 00H
$SG46560 DB	'[idx:%d] pEventThread->start()! ', 00H
	ORG $+3
$SG45536 DB	'Logger has not Initialized!', 00H
$SG46561 DB	'CCoreList::addQueueThread', 00H
	ORG $+2
$SG45539 DB	'Logger already exist!', 0aH, 00H
	ORG $+1
$SG45541 DB	'm_pLoggerList->push_back failed!', 0aH, 00H
	ORG $+2
$SG45542 DB	'[%s] procLoggerEnable', 0aH, 00H
	ORG $+1
$SG45553 DB	'writeCount[%d] [%s] porcLoggerDisable', 0aH, 00H
	ORG $+1
$SG46581 DB	'm_pThreadList->alloc(%d)', 00H
	ORG $+3
$SG46582 DB	'CCoreList::initComThread', 00H
	ORG $+3
$SG46597 DB	'm_pWriterList->alloc(%d)', 00H
	ORG $+3
$SG46598 DB	'CCoreList::initLogWriter', 00H
	ORG $+3
$SG46616 DB	'm_pSchedulerList->alloc(%d)', 00H
$SG46617 DB	'CCoreList::initScheduler', 00H
	ORG $+3
$SG46622 DB	'has Failed!! m_pIntervalPool->alloc(%d)', 0aH, 00H
	ORG $+3
$SG46623 DB	'CCoreList::initScheduler', 00H
	ORG $+3
$SG45611 DB	'%s_%d', 00H
	ORG $+2
$SG45612 DB	'LIST_COUNT', 00H
	ORG $+1
$SG45614 DB	'TIME_WAIT', 00H
	ORG $+2
$SG45617 DB	'has Failed!! m_pTimeList->alloc(%d)', 0aH, 00H
	ORG $+3
$SG46647 DB	'm_pEventThreadList->alloc(%d)', 00H
	ORG $+2
$SG46648 DB	'CCoreList::initQueueThread', 00H
	ORG $+1
$SG46653 DB	'has Failed!! m_pEventPool->alloc(%d)', 0aH, 00H
	ORG $+2
$SG46654 DB	'CCoreList::initQueueThread', 00H
	ORG $+1
$SG45639 DB	'has Failed!! m_pTimeList->alloc(%d)', 0aH, 00H
	ORG $+3
$SG45645 DB	'CScheduler::start', 00H
	ORG $+2
$SG45646 DB	'm_cThread.init', 00H
	ORG $+1
$SG45648 DB	'CScheduler::start', 00H
	ORG $+2
$SG45649 DB	'm_cThread.start', 00H
$SG45686 DB	'%s_%d', 00H
	ORG $+2
$SG45687 DB	'LIST_COUNT', 00H
	ORG $+1
$SG45689 DB	'has Failed!! m_sLogQueue.alloc(%d)', 0aH, 00H
$SG45696 DB	'has Failed!! m_sLogQueue.alloc(%d)', 0aH, 00H
$SG45702 DB	'CComQueueThread::start', 00H
	ORG $+1
$SG45703 DB	'm_cThread.init', 00H
	ORG $+1
$SG45705 DB	'CComQueueThread::start', 00H
	ORG $+1
$SG45706 DB	'm_cThread.start', 00H
$SG45729 DB	'CCoreList::CCoreList', 00H
	ORG $+3
$SG45730 DB	'gs_pMMgr alloc has Failed!!!', 00H
	ORG $+3
$SG45732 DB	'CCoreList::CCoreList', 00H
	ORG $+3
$SG45733 DB	'initSystemFile() has Failed!!!', 00H
	ORG $+1
$SG45735 DB	'CCoreList::CCoreList', 00H
	ORG $+3
$SG45736 DB	'start() has Failed!!!', 00H
	ORG $+2
$SG46861 DB	' del FAIL! i[%d] m_nMax[%d]', 00H
$SG46872 DB	'pList calloc is NULL', 00H
	ORG $+3
$SG46967 DB	'FULL! m_nMaxCount[%d]', 00H
	ORG $+2
$SG46968 DB	'CMemList<struct STIntervalInfo>::add', 00H
	ORG $+3
$SG46979 DB	'CMemList<struct STIntervalInfo>::del', 00H
	ORG $+3
$SG46980 DB	'can''t find obj', 00H
	ORG $+1
$SG47039 DB	'i[%d] m_nMax[%d]', 00H
	ORG $+3
$SG47050 DB	'pList calloc is NULL', 00H
	ORG $+3
$SG46032 DB	'IDX_BUF_32', 00H
	ORG $+1
$SG46033 DB	'MPOOL', 00H
	ORG $+2
$SG46036 DB	'IDX_BUF_2', 00H
	ORG $+2
$SG46037 DB	'MPOOL', 00H
	ORG $+2
$SG46038 DB	'IDX_BUF_%d', 00H
	ORG $+1
$SG46039 DB	'MPOOL', 00H
	ORG $+2
$SG46040 DB	'IDX_BUF_%d', 00H
	ORG $+1
$SG46041 DB	'MPOOL', 00H
	ORG $+2
$SG46042 DB	'IDX_BUF_%dk', 00H
$SG46043 DB	'MPOOL', 00H
	ORG $+2
$SG46044 DB	'IDX_BUF_%dk', 00H
$SG46045 DB	'MPOOL', 00H
	ORG $+2
$SG46046 DB	'IDX_BUF_512k', 00H
	ORG $+3
$SG46047 DB	'MPOOL', 00H
	ORG $+2
$SG46048 DB	'IDX_BUF_1m', 00H
	ORG $+1
$SG46049 DB	'MPOOL', 00H
	ORG $+2
$SG46050 DB	'IDX_BUF_2m', 00H
	ORG $+1
$SG46051 DB	'MPOOL', 00H
	ORG $+2
$SG46053 DB	'CCoreList::initSystemFile', 00H
	ORG $+2
$SG46054 DB	'gs_pMMgr->alloc() has Failed!!!', 00H
$SG46056 DB	'COMTHREAD', 00H
	ORG $+2
$SG46058 DB	'LOG_WRITER', 00H
	ORG $+1
$SG46060 DB	'SCHEDULER', 00H
	ORG $+2
$SG46062 DB	'EVENTPROC', 00H
	ORG $+2
$SG46064 DB	'CCoreList::initSystemFile', 00H
	ORG $+2
$SG46065 DB	'gs_DTEManager.initConfig has Failed!!!', 00H
	ORG $+1
$SG46067 DB	'LOG', 00H
$SG46068 DB	'CCoreList::initSystemFile', 00H
	ORG $+2
$SG46069 DB	'initLogger has Failed!!!', 00H
CONST	ENDS
PUBLIC	___local_stdio_printf_options
PUBLIC	__vfprintf_l
PUBLIC	??$__vcrt_va_start_verify_argument_type@QBD@@YAXXZ ; __vcrt_va_start_verify_argument_type<char const * const>
PUBLIC	_printf
PUBLIC	__vsnprintf_l
PUBLIC	__vsprintf_l
PUBLIC	_sprintf
PUBLIC	??1abstract_condition@common@@UAE@XZ		; common::abstract_condition::~abstract_condition
PUBLIC	??0abstract_condition@common@@QAE@XZ		; common::abstract_condition::abstract_condition
PUBLIC	??_Gabstract_condition@common@@UAEPAXI@Z	; common::abstract_condition::`scalar deleting destructor'
PUBLIC	??0condition@win32@common@@QAE@XZ		; common::win32::condition::condition
PUBLIC	??1condition@win32@common@@UAE@XZ		; common::win32::condition::~condition
PUBLIC	?signal@condition@win32@common@@UAEXXZ		; common::win32::condition::signal
PUBLIC	?signal_all@condition@win32@common@@UAEXXZ	; common::win32::condition::signal_all
PUBLIC	?wait@condition@win32@common@@QAE_NHPAVcritical_section@23@@Z ; common::win32::condition::wait
PUBLIC	??_Gcondition@win32@common@@UAEPAXI@Z		; common::win32::condition::`scalar deleting destructor'
PUBLIC	??0win_atomic@win32@common@@QAE@XZ		; common::win32::win_atomic::win_atomic
PUBLIC	??1win_atomic@win32@common@@QAE@XZ		; common::win32::win_atomic::~win_atomic
PUBLIC	?getCount@win_atomic@win32@common@@QAEHXZ	; common::win32::win_atomic::getCount
PUBLIC	?setCount@win_atomic@win32@common@@QAEXH@Z	; common::win32::win_atomic::setCount
PUBLIC	?init@win_atomic@win32@common@@QAEXXZ		; common::win32::win_atomic::init
PUBLIC	?atomic_increment@win_atomic@win32@common@@QAEJXZ ; common::win32::win_atomic::atomic_increment
PUBLIC	?atomic_decrement@win_atomic@win32@common@@QAEJXZ ; common::win32::win_atomic::atomic_decrement
PUBLIC	?atomic_compare_exchange@win_atomic@win32@common@@QAEHHH@Z ; common::win32::win_atomic::atomic_compare_exchange
PUBLIC	??_Ewin_atomic@win32@common@@QAEPAXI@Z		; common::win32::win_atomic::`vector deleting destructor'
PUBLIC	?ISABLETODELETE@@YA_NW4E_ALLOC_TYPE@@@Z		; ISABLETODELETE
PUBLIC	?ISINCLUDE@@YA_NHH@Z				; ISINCLUDE
PUBLIC	?comGlobalErrorProc@@YAXPADPBDH@Z		; comGlobalErrorProc
PUBLIC	?__autoclassinit2@CQueueS@@QAEXI@Z		; CQueueS::__autoclassinit2
PUBLIC	??_GCQueueS@@QAEPAXI@Z				; CQueueS::`scalar deleting destructor'
PUBLIC	?Year@CDateTime@@QAEHXZ				; CDateTime::Year
PUBLIC	?Month@CDateTime@@QAEHXZ			; CDateTime::Month
PUBLIC	?Mday@CDateTime@@QAEHXZ				; CDateTime::Mday
PUBLIC	?Hour@CDateTime@@QAEHXZ				; CDateTime::Hour
PUBLIC	?Minute@CDateTime@@QAEHXZ			; CDateTime::Minute
PUBLIC	?Sec@CDateTime@@QAEHXZ				; CDateTime::Sec
PUBLIC	?getIndex@@YAHH@Z				; getIndex
PUBLIC	?newBuf@CMemManager@@QAEPADH@Z			; CMemManager::newBuf
PUBLIC	?delBuf@CMemManager@@QAEXPADH@Z			; CMemManager::delBuf
PUBLIC	?addLogSize@CLogger@@QAEXH@Z			; CLogger::addLogSize
PUBLIC	?getSTLNo@CLogger@@QAEHXZ			; CLogger::getSTLNo
PUBLIC	?setLogFlag@CLogger@@QAEXW4E_LOG_FLAG@@@Z	; CLogger::setLogFlag
PUBLIC	?clearLogFlag@CLogger@@QAEXW4E_LOG_FLAG@@@Z	; CLogger::clearLogFlag
PUBLIC	?isLogFlag@CLogger@@QAE_NW4E_LOG_FLAG@@@Z	; CLogger::isLogFlag
PUBLIC	?pop@CLogger@@QAEPADXZ				; CLogger::pop
PUBLIC	?getLogName@CLogger@@QAEPADXZ			; CLogger::getLogName
PUBLIC	?setCondition@CLogger@@QAEXPAVcondition@win32@common@@@Z ; CLogger::setCondition
PUBLIC	??_GCLogger@@QAEPAXI@Z				; CLogger::`scalar deleting destructor'
PUBLIC	??_ECLogger@@QAEPAXI@Z				; CLogger::`vector deleting destructor'
PUBLIC	??0STThreadInfo@@QAE@XZ				; STThreadInfo::STThreadInfo
PUBLIC	??1STThreadInfo@@QAE@XZ				; STThreadInfo::~STThreadInfo
PUBLIC	??0CComThread@@QAE@XZ				; CComThread::CComThread
PUBLIC	??1CComThread@@QAE@XZ				; CComThread::~CComThread
PUBLIC	?init@CComThread@@QAE_NP6AXPAUSTThreadInfo@@@ZPAXH2@Z ; CComThread::init
PUBLIC	?start@CComThread@@QAE_NXZ			; CComThread::start
PUBLIC	?quit@CComThread@@QAE_NXZ			; CComThread::quit
PUBLIC	?ProcThread@CComThread@@SGKPAX@Z		; CComThread::ProcThread
PUBLIC	?setIdx@CComThread@@QAEXH@Z			; CComThread::setIdx
PUBLIC	?bActive@CComThread@@QAE_NXZ			; CComThread::bActive
PUBLIC	?sendSignal@CComThread@@QAEXXZ			; CComThread::sendSignal
PUBLIC	??_GCComThread@@QAEPAXI@Z			; CComThread::`scalar deleting destructor'
PUBLIC	??_ECComThread@@QAEPAXI@Z			; CComThread::`vector deleting destructor'
PUBLIC	?loggerLoop@@YAXPAUSTThreadInfo@@@Z		; loggerLoop
PUBLIC	??0CSTLogger@@QAE@XZ				; CSTLogger::CSTLogger
PUBLIC	??1CSTLogger@@QAE@XZ				; CSTLogger::~CSTLogger
PUBLIC	?initConfig@CSTLogger@@QAE_NPADH0@Z		; CSTLogger::initConfig
PUBLIC	?init@CSTLogger@@QAE_NHH@Z			; CSTLogger::init
PUBLIC	?start@CSTLogger@@QAE_NXZ			; CSTLogger::start
PUBLIC	?quit@CSTLogger@@QAE_NXZ			; CSTLogger::quit
PUBLIC	?IsCommand@CSTLogger@@QAE_NXZ			; CSTLogger::IsCommand
PUBLIC	?GetQueue@CSTLogger@@QAEXXZ			; CSTLogger::GetQueue
PUBLIC	?TimeProc@CSTLogger@@QAEXXZ			; CSTLogger::TimeProc
PUBLIC	?procLoggerEnable@CSTLogger@@QAEXPAVCLogger@@@Z	; CSTLogger::procLoggerEnable
PUBLIC	?porcLoggerDisable@CSTLogger@@QAEXPAVCLogger@@@Z ; CSTLogger::porcLoggerDisable
PUBLIC	?pushCommand@CSTLogger@@QAE_NPAUSTLCommand@@@Z	; CSTLogger::pushCommand
PUBLIC	?_init@CSTLogger@@AAE_NH@Z			; CSTLogger::_init
PUBLIC	??_GCSTLogger@@QAEPAXI@Z			; CSTLogger::`scalar deleting destructor'
PUBLIC	??_ECSTLogger@@QAEPAXI@Z			; CSTLogger::`vector deleting destructor'
PUBLIC	?schedulerLoop@@YAXPAUSTThreadInfo@@@Z		; schedulerLoop
PUBLIC	??0CScheduler@@QAE@XZ				; CScheduler::CScheduler
PUBLIC	??1CScheduler@@QAE@XZ				; CScheduler::~CScheduler
PUBLIC	?initConfig@CScheduler@@QAE_NPADH0@Z		; CScheduler::initConfig
PUBLIC	?init@CScheduler@@QAE_NHHH@Z			; CScheduler::init
PUBLIC	?start@CScheduler@@QAE_NXZ			; CScheduler::start
PUBLIC	?quit@CScheduler@@QAE_NXZ			; CScheduler::quit
PUBLIC	?timeNext@CScheduler@@QAEPAUSTIntervalInfo@@PAH@Z ; CScheduler::timeNext
PUBLIC	?deleteTime@CScheduler@@QAE_NPAUSTIntervalInfo@@@Z ; CScheduler::deleteTime
PUBLIC	?addTime@CScheduler@@QAEHPAUSTIntervalInfo@@@Z	; CScheduler::addTime
PUBLIC	?getMilliSecHalf@CScheduler@@QAEHXZ		; CScheduler::getMilliSecHalf
PUBLIC	?setGoal@CScheduler@@QAEXXZ			; CScheduler::setGoal
PUBLIC	?getGoal@CScheduler@@QAEIXZ			; CScheduler::getGoal
PUBLIC	??_GCScheduler@@QAEPAXI@Z			; CScheduler::`scalar deleting destructor'
PUBLIC	??_ECScheduler@@QAEPAXI@Z			; CScheduler::`vector deleting destructor'
PUBLIC	??0?$CMemList@USTIntervalInfo@@@@QAE@XZ		; CMemList<STIntervalInfo>::CMemList<STIntervalInfo>
PUBLIC	??1?$CMemList@USTIntervalInfo@@@@QAE@XZ		; CMemList<STIntervalInfo>::~CMemList<STIntervalInfo>
PUBLIC	?alloc@?$CMemList@USTIntervalInfo@@@@QAEHHW4E_ALLOC_TYPE@@@Z ; CMemList<STIntervalInfo>::alloc
PUBLIC	?getNext@?$CMemList@USTIntervalInfo@@@@QAEPAUSTIntervalInfo@@PAH@Z ; CMemList<STIntervalInfo>::getNext
PUBLIC	?add@?$CMemList@USTIntervalInfo@@@@QAEHPAUSTIntervalInfo@@@Z ; CMemList<STIntervalInfo>::add
PUBLIC	?del@?$CMemList@USTIntervalInfo@@@@QAE_NPAUSTIntervalInfo@@@Z ; CMemList<STIntervalInfo>::del
PUBLIC	?_del@?$CMemList@USTIntervalInfo@@@@AAEXH@Z	; CMemList<STIntervalInfo>::_del
PUBLIC	?__autoclassinit2@?$CMemList@USTIntervalInfo@@@@QAEXI@Z ; CMemList<STIntervalInfo>::__autoclassinit2
PUBLIC	??_G?$CMemList@USTIntervalInfo@@@@QAEPAXI@Z	; CMemList<STIntervalInfo>::`scalar deleting destructor'
PUBLIC	?eventThreadLoop@@YAXPAUSTThreadInfo@@@Z	; eventThreadLoop
PUBLIC	??0CComQueueThread@@QAE@XZ			; CComQueueThread::CComQueueThread
PUBLIC	??1CComQueueThread@@QAE@XZ			; CComQueueThread::~CComQueueThread
PUBLIC	?initConfig@CComQueueThread@@QAE_NPADH0@Z	; CComQueueThread::initConfig
PUBLIC	?init@CComQueueThread@@QAE_NHH@Z		; CComQueueThread::init
PUBLIC	?start@CComQueueThread@@QAE_NXZ			; CComQueueThread::start
PUBLIC	?quit@CComQueueThread@@QAE_NXZ			; CComQueueThread::quit
PUBLIC	?putQueue@CComQueueThread@@QAE_NPAUSTEvent@@@Z	; CComQueueThread::putQueue
PUBLIC	?getEvent@CComQueueThread@@QAEPAUSTEvent@@XZ	; CComQueueThread::getEvent
PUBLIC	??_GCComQueueThread@@QAEPAXI@Z			; CComQueueThread::`scalar deleting destructor'
PUBLIC	??_ECComQueueThread@@QAEPAXI@Z			; CComQueueThread::`vector deleting destructor'
PUBLIC	??0CCoreList@@QAE@XZ				; CCoreList::CCoreList
PUBLIC	??1CCoreList@@QAE@XZ				; CCoreList::~CCoreList
PUBLIC	?initSystemFile@CCoreList@@QAE_NXZ		; CCoreList::initSystemFile
PUBLIC	?initDefaultPool@CCoreList@@QAE_NHHH@Z		; CCoreList::initDefaultPool
PUBLIC	?initLogger@CCoreList@@QAE_NPAVCLogger@@PAD1@Z	; CCoreList::initLogger
PUBLIC	?initLogger@CCoreList@@QAE_NPAVCLogger@@@Z	; CCoreList::initLogger
PUBLIC	?setLoggerEnable@CCoreList@@QAE_NPAVCLogger@@@Z	; CCoreList::setLoggerEnable
PUBLIC	?setLoggerDisable@CCoreList@@QAE_NPAVCLogger@@@Z ; CCoreList::setLoggerDisable
PUBLIC	?start@CCoreList@@QAE_NXZ			; CCoreList::start
PUBLIC	?destroy@CCoreList@@QAEXXZ			; CCoreList::destroy
PUBLIC	?delEvent@CCoreList@@QAE_NPAUSTEvent@@@Z	; CCoreList::delEvent
PUBLIC	?putEvent@CCoreList@@QAE_NPAUSTEvent@@@Z	; CCoreList::putEvent
PUBLIC	?putTimer@CCoreList@@QAE_NPAUSTIntervalInfo@@@Z	; CCoreList::putTimer
PUBLIC	?addComThread@CCoreList@@QAEHP6AXPAUSTThreadInfo@@@ZPAXH2@Z ; CCoreList::addComThread
PUBLIC	?delComThread@CCoreList@@QAE_NH@Z		; CCoreList::delComThread
PUBLIC	?addLogWriter@CCoreList@@QAEHH@Z		; CCoreList::addLogWriter
PUBLIC	?addScheduler@CCoreList@@QAEHHH@Z		; CCoreList::addScheduler
PUBLIC	?addQueueThread@CCoreList@@QAEHH@Z		; CCoreList::addQueueThread
PUBLIC	?initComThread@CCoreList@@QAE_NPAD0@Z		; CCoreList::initComThread
PUBLIC	?initLogWriter@CCoreList@@QAE_NPAD0_N@Z		; CCoreList::initLogWriter
PUBLIC	?initScheduler@CCoreList@@QAE_NPAD0@Z		; CCoreList::initScheduler
PUBLIC	?initQueueThread@CCoreList@@QAE_NPAD0@Z		; CCoreList::initQueueThread
PUBLIC	?initComThread@CCoreList@@QAE_NH@Z		; CCoreList::initComThread
PUBLIC	?initLogWriter@CCoreList@@QAE_NH@Z		; CCoreList::initLogWriter
PUBLIC	?initScheduler@CCoreList@@QAE_NHH@Z		; CCoreList::initScheduler
PUBLIC	?initQueueThread@CCoreList@@QAE_NHH@Z		; CCoreList::initQueueThread
PUBLIC	?setListAllocType@CCoreList@@QAEXW4E_ALLOC_TYPE@@W4E_SYS_LIST_TYPE@@@Z ; CCoreList::setListAllocType
PUBLIC	??0?$CMemPool@USTIntervalInfo@@@@QAE@XZ		; CMemPool<STIntervalInfo>::CMemPool<STIntervalInfo>
PUBLIC	??1?$CMemPool@USTIntervalInfo@@@@QAE@XZ		; CMemPool<STIntervalInfo>::~CMemPool<STIntervalInfo>
PUBLIC	?clear@?$CMemPool@USTIntervalInfo@@@@QAEXXZ	; CMemPool<STIntervalInfo>::clear
PUBLIC	?alloc@?$CMemPool@USTIntervalInfo@@@@QAEHHW4E_ALLOC_TYPE@@@Z ; CMemPool<STIntervalInfo>::alloc
PUBLIC	?__autoclassinit2@?$CMemPool@USTIntervalInfo@@@@QAEXI@Z ; CMemPool<STIntervalInfo>::__autoclassinit2
PUBLIC	??_G?$CMemPool@USTIntervalInfo@@@@QAEPAXI@Z	; CMemPool<STIntervalInfo>::`scalar deleting destructor'
PUBLIC	??0?$CMemPool@USTEvent@@@@QAE@XZ		; CMemPool<STEvent>::CMemPool<STEvent>
PUBLIC	??1?$CMemPool@USTEvent@@@@QAE@XZ		; CMemPool<STEvent>::~CMemPool<STEvent>
PUBLIC	?clear@?$CMemPool@USTEvent@@@@QAEXXZ		; CMemPool<STEvent>::clear
PUBLIC	?alloc@?$CMemPool@USTEvent@@@@QAEHHW4E_ALLOC_TYPE@@@Z ; CMemPool<STEvent>::alloc
PUBLIC	?delMem@?$CMemPool@USTEvent@@@@QAE_NPAUSTEvent@@@Z ; CMemPool<STEvent>::delMem
PUBLIC	?__autoclassinit2@?$CMemPool@USTEvent@@@@QAEXI@Z ; CMemPool<STEvent>::__autoclassinit2
PUBLIC	??_G?$CMemPool@USTEvent@@@@QAEPAXI@Z		; CMemPool<STEvent>::`scalar deleting destructor'
PUBLIC	??0?$CTList@VCLogger@@@@QAE@XZ			; CTList<CLogger>::CTList<CLogger>
PUBLIC	??1?$CTList@VCLogger@@@@QAE@XZ			; CTList<CLogger>::~CTList<CLogger>
PUBLIC	?alloc@?$CTList@VCLogger@@@@QAEHHW4E_ALLOC_TYPE@@@Z ; CTList<CLogger>::alloc
PUBLIC	?push_back@?$CTList@VCLogger@@@@QAE_NPAVCLogger@@PAH@Z ; CTList<CLogger>::push_back
PUBLIC	?IsExist@?$CTList@VCLogger@@@@QAE_NPAVCLogger@@@Z ; CTList<CLogger>::IsExist
PUBLIC	?del@?$CTList@VCLogger@@@@QAE_NPAVCLogger@@@Z	; CTList<CLogger>::del
PUBLIC	?getNext@?$CTList@VCLogger@@@@QAEPAVCLogger@@PAH@Z ; CTList<CLogger>::getNext
PUBLIC	?__alloc@?$CTList@VCLogger@@@@AAEHH@Z		; CTList<CLogger>::__alloc
PUBLIC	?_DEL@?$CTList@VCLogger@@@@AAEXH@Z		; CTList<CLogger>::_DEL
PUBLIC	?__autoclassinit2@?$CTList@VCLogger@@@@QAEXI@Z	; CTList<CLogger>::__autoclassinit2
PUBLIC	??_G?$CTList@VCLogger@@@@QAEPAXI@Z		; CTList<CLogger>::`scalar deleting destructor'
PUBLIC	??0?$CTList@VCSTLogger@@@@QAE@XZ		; CTList<CSTLogger>::CTList<CSTLogger>
PUBLIC	??1?$CTList@VCSTLogger@@@@QAE@XZ		; CTList<CSTLogger>::~CTList<CSTLogger>
PUBLIC	?alloc@?$CTList@VCSTLogger@@@@QAEHHW4E_ALLOC_TYPE@@@Z ; CTList<CSTLogger>::alloc
PUBLIC	?push_back@?$CTList@VCSTLogger@@@@QAE_NPAVCSTLogger@@PAH@Z ; CTList<CSTLogger>::push_back
PUBLIC	?del@?$CTList@VCSTLogger@@@@QAE_NH@Z		; CTList<CSTLogger>::del
PUBLIC	?getObj@?$CTList@VCSTLogger@@@@QAEPAVCSTLogger@@H@Z ; CTList<CSTLogger>::getObj
PUBLIC	?getNext@?$CTList@VCSTLogger@@@@QAEPAVCSTLogger@@PAH@Z ; CTList<CSTLogger>::getNext
PUBLIC	?size@?$CTList@VCSTLogger@@@@QAEHXZ		; CTList<CSTLogger>::size
PUBLIC	?setObjAllocType@?$CTList@VCSTLogger@@@@QAEXW4E_ALLOC_TYPE@@@Z ; CTList<CSTLogger>::setObjAllocType
PUBLIC	?__alloc@?$CTList@VCSTLogger@@@@AAEHH@Z		; CTList<CSTLogger>::__alloc
PUBLIC	?_DEL@?$CTList@VCSTLogger@@@@AAEXH@Z		; CTList<CSTLogger>::_DEL
PUBLIC	?__autoclassinit2@?$CTList@VCSTLogger@@@@QAEXI@Z ; CTList<CSTLogger>::__autoclassinit2
PUBLIC	??_G?$CTList@VCSTLogger@@@@QAEPAXI@Z		; CTList<CSTLogger>::`scalar deleting destructor'
PUBLIC	??0?$CTList@VCScheduler@@@@QAE@XZ		; CTList<CScheduler>::CTList<CScheduler>
PUBLIC	??1?$CTList@VCScheduler@@@@QAE@XZ		; CTList<CScheduler>::~CTList<CScheduler>
PUBLIC	?alloc@?$CTList@VCScheduler@@@@QAEHHW4E_ALLOC_TYPE@@@Z ; CTList<CScheduler>::alloc
PUBLIC	?push_back@?$CTList@VCScheduler@@@@QAE_NPAVCScheduler@@PAH@Z ; CTList<CScheduler>::push_back
PUBLIC	?del@?$CTList@VCScheduler@@@@QAE_NH@Z		; CTList<CScheduler>::del
PUBLIC	?getObj@?$CTList@VCScheduler@@@@QAEPAVCScheduler@@H@Z ; CTList<CScheduler>::getObj
PUBLIC	?getNext@?$CTList@VCScheduler@@@@QAEPAVCScheduler@@PAH@Z ; CTList<CScheduler>::getNext
PUBLIC	?size@?$CTList@VCScheduler@@@@QAEHXZ		; CTList<CScheduler>::size
PUBLIC	?setObjAllocType@?$CTList@VCScheduler@@@@QAEXW4E_ALLOC_TYPE@@@Z ; CTList<CScheduler>::setObjAllocType
PUBLIC	?__alloc@?$CTList@VCScheduler@@@@AAEHH@Z	; CTList<CScheduler>::__alloc
PUBLIC	?_DEL@?$CTList@VCScheduler@@@@AAEXH@Z		; CTList<CScheduler>::_DEL
PUBLIC	?__autoclassinit2@?$CTList@VCScheduler@@@@QAEXI@Z ; CTList<CScheduler>::__autoclassinit2
PUBLIC	??_G?$CTList@VCScheduler@@@@QAEPAXI@Z		; CTList<CScheduler>::`scalar deleting destructor'
PUBLIC	??0?$CTList@VCComThread@@@@QAE@XZ		; CTList<CComThread>::CTList<CComThread>
PUBLIC	??1?$CTList@VCComThread@@@@QAE@XZ		; CTList<CComThread>::~CTList<CComThread>
PUBLIC	?alloc@?$CTList@VCComThread@@@@QAEHHW4E_ALLOC_TYPE@@@Z ; CTList<CComThread>::alloc
PUBLIC	?push_back@?$CTList@VCComThread@@@@QAE_NPAVCComThread@@PAH@Z ; CTList<CComThread>::push_back
PUBLIC	?del@?$CTList@VCComThread@@@@QAE_NH@Z		; CTList<CComThread>::del
PUBLIC	?getObj@?$CTList@VCComThread@@@@QAEPAVCComThread@@H@Z ; CTList<CComThread>::getObj
PUBLIC	?getNext@?$CTList@VCComThread@@@@QAEPAVCComThread@@PAH@Z ; CTList<CComThread>::getNext
PUBLIC	?size@?$CTList@VCComThread@@@@QAEHXZ		; CTList<CComThread>::size
PUBLIC	?lastIdx@?$CTList@VCComThread@@@@QAEHXZ		; CTList<CComThread>::lastIdx
PUBLIC	?setObjAllocType@?$CTList@VCComThread@@@@QAEXW4E_ALLOC_TYPE@@@Z ; CTList<CComThread>::setObjAllocType
PUBLIC	?__alloc@?$CTList@VCComThread@@@@AAEHH@Z	; CTList<CComThread>::__alloc
PUBLIC	?_DEL@?$CTList@VCComThread@@@@AAEXH@Z		; CTList<CComThread>::_DEL
PUBLIC	?__autoclassinit2@?$CTList@VCComThread@@@@QAEXI@Z ; CTList<CComThread>::__autoclassinit2
PUBLIC	??_G?$CTList@VCComThread@@@@QAEPAXI@Z		; CTList<CComThread>::`scalar deleting destructor'
PUBLIC	??0?$CTList@VCComQueueThread@@@@QAE@XZ		; CTList<CComQueueThread>::CTList<CComQueueThread>
PUBLIC	??1?$CTList@VCComQueueThread@@@@QAE@XZ		; CTList<CComQueueThread>::~CTList<CComQueueThread>
PUBLIC	?alloc@?$CTList@VCComQueueThread@@@@QAEHHW4E_ALLOC_TYPE@@@Z ; CTList<CComQueueThread>::alloc
PUBLIC	?push_back@?$CTList@VCComQueueThread@@@@QAE_NPAVCComQueueThread@@PAH@Z ; CTList<CComQueueThread>::push_back
PUBLIC	?del@?$CTList@VCComQueueThread@@@@QAE_NH@Z	; CTList<CComQueueThread>::del
PUBLIC	?getObj@?$CTList@VCComQueueThread@@@@QAEPAVCComQueueThread@@H@Z ; CTList<CComQueueThread>::getObj
PUBLIC	?getNext@?$CTList@VCComQueueThread@@@@QAEPAVCComQueueThread@@PAH@Z ; CTList<CComQueueThread>::getNext
PUBLIC	?size@?$CTList@VCComQueueThread@@@@QAEHXZ	; CTList<CComQueueThread>::size
PUBLIC	?setObjAllocType@?$CTList@VCComQueueThread@@@@QAEXW4E_ALLOC_TYPE@@@Z ; CTList<CComQueueThread>::setObjAllocType
PUBLIC	?__alloc@?$CTList@VCComQueueThread@@@@AAEHH@Z	; CTList<CComQueueThread>::__alloc
PUBLIC	?_DEL@?$CTList@VCComQueueThread@@@@AAEXH@Z	; CTList<CComQueueThread>::_DEL
PUBLIC	?__autoclassinit2@?$CTList@VCComQueueThread@@@@QAEXI@Z ; CTList<CComQueueThread>::__autoclassinit2
PUBLIC	??_G?$CTList@VCComQueueThread@@@@QAEPAXI@Z	; CTList<CComQueueThread>::`scalar deleting destructor'
PUBLIC	?_OptionsStorage@?1??__local_stdio_printf_options@@9@4_KA ; `__local_stdio_printf_options'::`2'::_OptionsStorage
PUBLIC	??_7abstract_condition@common@@6B@		; common::abstract_condition::`vftable'
PUBLIC	??_7condition@win32@common@@6B@			; common::win32::condition::`vftable'
PUBLIC	??_C@_0BD@KEHDJCKJ@ERROR?$CB?5?$FL?$CFs?3?$CFd?$FN?5?$CFs?6?$AA@ ; `string'
PUBLIC	??_R4abstract_condition@common@@6B@		; common::abstract_condition::`RTTI Complete Object Locator'
PUBLIC	??_R0?AVabstract_condition@common@@@8		; common::abstract_condition `RTTI Type Descriptor'
PUBLIC	??_R3abstract_condition@common@@8		; common::abstract_condition::`RTTI Class Hierarchy Descriptor'
PUBLIC	??_R2abstract_condition@common@@8		; common::abstract_condition::`RTTI Base Class Array'
PUBLIC	??_R1A@?0A@EA@abstract_condition@common@@8	; common::abstract_condition::`RTTI Base Class Descriptor at (0,-1,0,64)'
PUBLIC	??_R4condition@win32@common@@6B@		; common::win32::condition::`RTTI Complete Object Locator'
PUBLIC	??_R0?AVcondition@win32@common@@@8		; common::win32::condition `RTTI Type Descriptor'
PUBLIC	??_R3condition@win32@common@@8			; common::win32::condition::`RTTI Class Hierarchy Descriptor'
PUBLIC	??_R2condition@win32@common@@8			; common::win32::condition::`RTTI Base Class Array'
PUBLIC	??_R1A@?0A@EA@condition@win32@common@@8		; common::win32::condition::`RTTI Base Class Descriptor at (0,-1,0,64)'
EXTRN	??_L@YGXPAXIIP6EX0@Z1@Z:PROC			; `eh vector constructor iterator'
EXTRN	??_M@YGXPAXIIP6EX0@Z@Z:PROC			; `eh vector destructor iterator'
EXTRN	__purecall:PROC
EXTRN	??2@YAPAXI@Z:PROC				; operator new
EXTRN	??3@YAXPAXI@Z:PROC				; operator delete
EXTRN	??_V@YAXPAX@Z:PROC				; operator delete[]
EXTRN	??_V@YAXPAXI@Z:PROC				; operator delete[]
EXTRN	_memcpy:PROC
EXTRN	_memset:PROC
EXTRN	_strlen:PROC
EXTRN	?initSystem@CEnv@@SAHPAD@Z:PROC			; CEnv::initSystem
EXTRN	__imp____acrt_iob_func:PROC
EXTRN	__imp____stdio_common_vfprintf:PROC
EXTRN	__imp____stdio_common_vsprintf:PROC
EXTRN	__imp__calloc:PROC
EXTRN	__imp__free:PROC
EXTRN	__imp__exit:PROC
EXTRN	__imp__abort:PROC
EXTRN	__imp__atoi:PROC
EXTRN	??2@YAPAXIABUnothrow_t@std@@@Z:PROC		; operator new
EXTRN	??_U@YAPAXIABUnothrow_t@std@@@Z:PROC		; operator new[]
EXTRN	??3@YAXPAXABUnothrow_t@std@@@Z:PROC		; operator delete
EXTRN	??_V@YAXPAXABUnothrow_t@std@@@Z:PROC		; operator delete[]
EXTRN	__imp__InterlockedIncrement@4:PROC
EXTRN	__imp__InterlockedDecrement@4:PROC
EXTRN	__imp__InterlockedCompareExchange@12:PROC
EXTRN	__imp__CreateThread@24:PROC
EXTRN	__imp__SetEvent@4:PROC
EXTRN	__imp__ResetEvent@4:PROC
EXTRN	__imp__WaitForSingleObject@8:PROC
EXTRN	__imp__CloseHandle@4:PROC
EXTRN	__imp__GetTickCount@0:PROC
EXTRN	__imp__CreateEventA@16:PROC
EXTRN	__imp__GetPrivateProfileIntA@16:PROC
EXTRN	??_Eabstract_condition@common@@UAEPAXI@Z:PROC	; common::abstract_condition::`vector deleting destructor'
EXTRN	??_Econdition@win32@common@@UAEPAXI@Z:PROC	; common::win32::condition::`vector deleting destructor'
EXTRN	??0CQueueS@@QAE@XZ:PROC				; CQueueS::CQueueS
EXTRN	??1CQueueS@@QAE@XZ:PROC				; CQueueS::~CQueueS
EXTRN	?alloc@CQueueS@@QAE_NHW4E_ALLOC_TYPE@@@Z:PROC	; CQueueS::alloc
EXTRN	?push@CQueueS@@QAE_NPAX@Z:PROC			; CQueueS::push
EXTRN	?pop@CQueueS@@QAEPAXXZ:PROC			; CQueueS::pop
EXTRN	??0CDateTime@@QAE@W4DT_TYPE@@W4TZ_TYPE@@@Z:PROC	; CDateTime::CDateTime
EXTRN	??1CDateTime@@QAE@XZ:PROC			; CDateTime::~CDateTime
EXTRN	?DateString@CDateTime@@QAEPBDD@Z:PROC		; CDateTime::DateString
EXTRN	??0CMemManager@@QAE@XZ:PROC			; CMemManager::CMemManager
EXTRN	?init@CMemManager@@QAEXPAUSTBufConf@@@Z:PROC	; CMemManager::init
EXTRN	?alloc@CMemManager@@QAE_NXZ:PROC		; CMemManager::alloc
EXTRN	?delBufByIndex@CMemManager@@QAEXPADH@Z:PROC	; CMemManager::delBufByIndex
EXTRN	?__newBuf@CMemManager@@AAEPADHI@Z:PROC		; CMemManager::__newBuf
EXTRN	?initConfig@CTimeExpManager@@QAE_NPAD@Z:PROC	; CTimeExpManager::initConfig
EXTRN	??1CLogger@@QAE@XZ:PROC				; CLogger::~CLogger
EXTRN	?initConfig@CLogger@@QAE?AW4E_LOG_INIT_RES@@PAD0@Z:PROC ; CLogger::initConfig
EXTRN	?OpenLogger@CLogger@@QAEXXZ:PROC		; CLogger::OpenLogger
EXTRN	?LogPrint@CLogger@@QAEXPAD@Z:PROC		; CLogger::LogPrint
EXTRN	?disable@CLogger@@QAEXXZ:PROC			; CLogger::disable
EXTRN	?checkChangeProc@CLogger@@QAEXH@Z:PROC		; CLogger::checkChangeProc
EXTRN	@_RTC_CheckStackVars@8:PROC
EXTRN	@__security_check_cookie@4:PROC
EXTRN	__RTC_CheckEsp:PROC
EXTRN	__RTC_InitBase:PROC
EXTRN	__RTC_Shutdown:PROC
EXTRN	___CxxFrameHandler3:PROC
EXTRN	_memset:PROC
EXTRN	?nothrow@std@@3Unothrow_t@1@B:BYTE		; std::nothrow
EXTRN	?g_pSystem@@3PADA:DWORD				; g_pSystem
EXTRN	?g_szSystemError@@3PADA:BYTE			; g_szSystemError
EXTRN	?g_szMessage@@3PADA:BYTE			; g_szMessage
EXTRN	?gs_pMMgr@@3PAVCMemManager@@A:DWORD		; gs_pMMgr
EXTRN	?gs_cLogger@@3VCLogger@@A:BYTE			; gs_cLogger
EXTRN	?gs_DTEManager@@3VCTimeExpManager@@A:DWORD	; gs_DTEManager
EXTRN	??_7type_info@@6B@:QWORD			; type_info::`vftable'
EXTRN	___security_cookie:DWORD
EXTRN	__fltused:DWORD
;	COMDAT ?_OptionsStorage@?1??__local_stdio_printf_options@@9@4_KA
_BSS	SEGMENT
?_OptionsStorage@?1??__local_stdio_printf_options@@9@4_KA DQ 01H DUP (?) ; `__local_stdio_printf_options'::`2'::_OptionsStorage
_BSS	ENDS
;	COMDAT rtc$TMZ
rtc$TMZ	SEGMENT
__RTC_Shutdown.rtc$TMZ DD FLAT:__RTC_Shutdown
rtc$TMZ	ENDS
;	COMDAT rtc$IMZ
rtc$IMZ	SEGMENT
__RTC_InitBase.rtc$IMZ DD FLAT:__RTC_InitBase
rtc$IMZ	ENDS
;	COMDAT ??_R1A@?0A@EA@condition@win32@common@@8
rdata$r	SEGMENT
??_R1A@?0A@EA@condition@win32@common@@8 DD FLAT:??_R0?AVcondition@win32@common@@@8 ; common::win32::condition::`RTTI Base Class Descriptor at (0,-1,0,64)'
	DD	01H
	DD	00H
	DD	0ffffffffH
	DD	00H
	DD	040H
	DD	FLAT:??_R3condition@win32@common@@8
rdata$r	ENDS
;	COMDAT ??_R2condition@win32@common@@8
rdata$r	SEGMENT
??_R2condition@win32@common@@8 DD FLAT:??_R1A@?0A@EA@condition@win32@common@@8 ; common::win32::condition::`RTTI Base Class Array'
	DD	FLAT:??_R1A@?0A@EA@abstract_condition@common@@8
rdata$r	ENDS
;	COMDAT ??_R3condition@win32@common@@8
rdata$r	SEGMENT
??_R3condition@win32@common@@8 DD 00H			; common::win32::condition::`RTTI Class Hierarchy Descriptor'
	DD	00H
	DD	02H
	DD	FLAT:??_R2condition@win32@common@@8
rdata$r	ENDS
;	COMDAT ??_R0?AVcondition@win32@common@@@8
data$r	SEGMENT
??_R0?AVcondition@win32@common@@@8 DD FLAT:??_7type_info@@6B@ ; common::win32::condition `RTTI Type Descriptor'
	DD	00H
	DB	'.?AVcondition@win32@common@@', 00H
data$r	ENDS
;	COMDAT ??_R4condition@win32@common@@6B@
rdata$r	SEGMENT
??_R4condition@win32@common@@6B@ DD 00H			; common::win32::condition::`RTTI Complete Object Locator'
	DD	00H
	DD	00H
	DD	FLAT:??_R0?AVcondition@win32@common@@@8
	DD	FLAT:??_R3condition@win32@common@@8
rdata$r	ENDS
;	COMDAT ??_R1A@?0A@EA@abstract_condition@common@@8
rdata$r	SEGMENT
??_R1A@?0A@EA@abstract_condition@common@@8 DD FLAT:??_R0?AVabstract_condition@common@@@8 ; common::abstract_condition::`RTTI Base Class Descriptor at (0,-1,0,64)'
	DD	00H
	DD	00H
	DD	0ffffffffH
	DD	00H
	DD	040H
	DD	FLAT:??_R3abstract_condition@common@@8
rdata$r	ENDS
;	COMDAT ??_R2abstract_condition@common@@8
rdata$r	SEGMENT
??_R2abstract_condition@common@@8 DD FLAT:??_R1A@?0A@EA@abstract_condition@common@@8 ; common::abstract_condition::`RTTI Base Class Array'
rdata$r	ENDS
;	COMDAT ??_R3abstract_condition@common@@8
rdata$r	SEGMENT
??_R3abstract_condition@common@@8 DD 00H		; common::abstract_condition::`RTTI Class Hierarchy Descriptor'
	DD	00H
	DD	01H
	DD	FLAT:??_R2abstract_condition@common@@8
rdata$r	ENDS
;	COMDAT ??_R0?AVabstract_condition@common@@@8
data$r	SEGMENT
??_R0?AVabstract_condition@common@@@8 DD FLAT:??_7type_info@@6B@ ; common::abstract_condition `RTTI Type Descriptor'
	DD	00H
	DB	'.?AVabstract_condition@common@@', 00H
data$r	ENDS
;	COMDAT ??_R4abstract_condition@common@@6B@
rdata$r	SEGMENT
??_R4abstract_condition@common@@6B@ DD 00H		; common::abstract_condition::`RTTI Complete Object Locator'
	DD	00H
	DD	00H
	DD	FLAT:??_R0?AVabstract_condition@common@@@8
	DD	FLAT:??_R3abstract_condition@common@@8
rdata$r	ENDS
;	COMDAT ??_C@_0BD@KEHDJCKJ@ERROR?$CB?5?$FL?$CFs?3?$CFd?$FN?5?$CFs?6?$AA@
CONST	SEGMENT
??_C@_0BD@KEHDJCKJ@ERROR?$CB?5?$FL?$CFs?3?$CFd?$FN?5?$CFs?6?$AA@ DB 'ERRO'
	DB	'R! [%s:%d] %s', 0aH, 00H			; `string'
CONST	ENDS
;	COMDAT ??_7condition@win32@common@@6B@
CONST	SEGMENT
??_7condition@win32@common@@6B@ DD FLAT:??_R4condition@win32@common@@6B@ ; common::win32::condition::`vftable'
	DD	FLAT:??_Econdition@win32@common@@UAEPAXI@Z
	DD	FLAT:?signal@condition@win32@common@@UAEXXZ
	DD	FLAT:?signal_all@condition@win32@common@@UAEXXZ
CONST	ENDS
;	COMDAT ??_7abstract_condition@common@@6B@
CONST	SEGMENT
??_7abstract_condition@common@@6B@ DD FLAT:??_R4abstract_condition@common@@6B@ ; common::abstract_condition::`vftable'
	DD	FLAT:??_Eabstract_condition@common@@UAEPAXI@Z
	DD	FLAT:__purecall
	DD	FLAT:__purecall
CONST	ENDS
;	COMDAT xdata$x
xdata$x	SEGMENT
__ehfuncinfo$??1?$CTList@VCComQueueThread@@@@QAE@XZ DD 019930522H
	DD	00H
	DD	00H
	DD	2 DUP(00H)
	DD	2 DUP(00H)
	DD	00H
	DD	05H
xdata$x	ENDS
;	COMDAT xdata$x
xdata$x	SEGMENT
__ehfuncinfo$??1?$CTList@VCComThread@@@@QAE@XZ DD 019930522H
	DD	00H
	DD	00H
	DD	2 DUP(00H)
	DD	2 DUP(00H)
	DD	00H
	DD	05H
xdata$x	ENDS
;	COMDAT xdata$x
xdata$x	SEGMENT
__ehfuncinfo$??1?$CTList@VCScheduler@@@@QAE@XZ DD 019930522H
	DD	00H
	DD	00H
	DD	2 DUP(00H)
	DD	2 DUP(00H)
	DD	00H
	DD	05H
xdata$x	ENDS
;	COMDAT xdata$x
xdata$x	SEGMENT
__ehfuncinfo$??1?$CTList@VCSTLogger@@@@QAE@XZ DD 019930522H
	DD	00H
	DD	00H
	DD	2 DUP(00H)
	DD	2 DUP(00H)
	DD	00H
	DD	05H
xdata$x	ENDS
;	COMDAT xdata$x
xdata$x	SEGMENT
__ehfuncinfo$??1?$CTList@VCLogger@@@@QAE@XZ DD 019930522H
	DD	00H
	DD	00H
	DD	2 DUP(00H)
	DD	2 DUP(00H)
	DD	00H
	DD	05H
xdata$x	ENDS
;	COMDAT xdata$x
xdata$x	SEGMENT
__unwindtable$?alloc@?$CMemPool@USTEvent@@@@QAEHHW4E_ALLOC_TYPE@@@Z DD 0ffffffffH
	DD	FLAT:__unwindfunclet$?alloc@?$CMemPool@USTEvent@@@@QAEHHW4E_ALLOC_TYPE@@@Z$0
__ehfuncinfo$?alloc@?$CMemPool@USTEvent@@@@QAEHHW4E_ALLOC_TYPE@@@Z DD 019930522H
	DD	01H
	DD	FLAT:__unwindtable$?alloc@?$CMemPool@USTEvent@@@@QAEHHW4E_ALLOC_TYPE@@@Z
	DD	2 DUP(00H)
	DD	2 DUP(00H)
	DD	00H
	DD	01H
xdata$x	ENDS
;	COMDAT xdata$x
xdata$x	SEGMENT
__unwindtable$?alloc@?$CMemPool@USTIntervalInfo@@@@QAEHHW4E_ALLOC_TYPE@@@Z DD 0ffffffffH
	DD	FLAT:__unwindfunclet$?alloc@?$CMemPool@USTIntervalInfo@@@@QAEHHW4E_ALLOC_TYPE@@@Z$0
__ehfuncinfo$?alloc@?$CMemPool@USTIntervalInfo@@@@QAEHHW4E_ALLOC_TYPE@@@Z DD 019930522H
	DD	01H
	DD	FLAT:__unwindtable$?alloc@?$CMemPool@USTIntervalInfo@@@@QAEHHW4E_ALLOC_TYPE@@@Z
	DD	2 DUP(00H)
	DD	2 DUP(00H)
	DD	00H
	DD	01H
xdata$x	ENDS
;	COMDAT xdata$x
xdata$x	SEGMENT
__ehfuncinfo$??_ECComQueueThread@@QAEPAXI@Z DD 019930522H
	DD	00H
	DD	00H
	DD	2 DUP(00H)
	DD	2 DUP(00H)
	DD	00H
	DD	05H
xdata$x	ENDS
;	COMDAT xdata$x
xdata$x	SEGMENT
__unwindtable$?alloc@?$CMemList@USTIntervalInfo@@@@QAEHHW4E_ALLOC_TYPE@@@Z DD 0ffffffffH
	DD	FLAT:__unwindfunclet$?alloc@?$CMemList@USTIntervalInfo@@@@QAEHHW4E_ALLOC_TYPE@@@Z$0
__ehfuncinfo$?alloc@?$CMemList@USTIntervalInfo@@@@QAEHHW4E_ALLOC_TYPE@@@Z DD 019930522H
	DD	01H
	DD	FLAT:__unwindtable$?alloc@?$CMemList@USTIntervalInfo@@@@QAEHHW4E_ALLOC_TYPE@@@Z
	DD	2 DUP(00H)
	DD	2 DUP(00H)
	DD	00H
	DD	01H
xdata$x	ENDS
;	COMDAT xdata$x
xdata$x	SEGMENT
__ehfuncinfo$??1?$CMemList@USTIntervalInfo@@@@QAE@XZ DD 019930522H
	DD	00H
	DD	00H
	DD	2 DUP(00H)
	DD	2 DUP(00H)
	DD	00H
	DD	05H
xdata$x	ENDS
;	COMDAT xdata$x
xdata$x	SEGMENT
__unwindtable$??0?$CMemList@USTIntervalInfo@@@@QAE@XZ DD 0ffffffffH
	DD	FLAT:__unwindfunclet$??0?$CMemList@USTIntervalInfo@@@@QAE@XZ$0
__ehfuncinfo$??0?$CMemList@USTIntervalInfo@@@@QAE@XZ DD 019930522H
	DD	01H
	DD	FLAT:__unwindtable$??0?$CMemList@USTIntervalInfo@@@@QAE@XZ
	DD	2 DUP(00H)
	DD	2 DUP(00H)
	DD	00H
	DD	01H
xdata$x	ENDS
;	COMDAT xdata$x
xdata$x	SEGMENT
__ehfuncinfo$??_ECScheduler@@QAEPAXI@Z DD 019930522H
	DD	00H
	DD	00H
	DD	2 DUP(00H)
	DD	2 DUP(00H)
	DD	00H
	DD	05H
xdata$x	ENDS
;	COMDAT xdata$x
xdata$x	SEGMENT
__ehfuncinfo$??_ECSTLogger@@QAEPAXI@Z DD 019930522H
	DD	00H
	DD	00H
	DD	2 DUP(00H)
	DD	2 DUP(00H)
	DD	00H
	DD	05H
xdata$x	ENDS
;	COMDAT xdata$x
xdata$x	SEGMENT
__ehfuncinfo$??_ECComThread@@QAEPAXI@Z DD 019930522H
	DD	00H
	DD	00H
	DD	2 DUP(00H)
	DD	2 DUP(00H)
	DD	00H
	DD	05H
xdata$x	ENDS
xdata$x	SEGMENT
__unwindtable$?initLogWriter@CCoreList@@QAE_NH@Z DD 0ffffffffH
	DD	FLAT:__unwindfunclet$?initLogWriter@CCoreList@@QAE_NH@Z$0
__unwindtable$?initComThread@CCoreList@@QAE_NH@Z DD 0ffffffffH
	DD	FLAT:__unwindfunclet$?initComThread@CCoreList@@QAE_NH@Z$0
__unwindtable$?addQueueThread@CCoreList@@QAEHH@Z DD 0ffffffffH
	DD	FLAT:__unwindfunclet$?addQueueThread@CCoreList@@QAEHH@Z$3
__unwindtable$?addScheduler@CCoreList@@QAEHHH@Z DD 0ffffffffH
	DD	FLAT:__unwindfunclet$?addScheduler@CCoreList@@QAEHHH@Z$3
__unwindtable$?addLogWriter@CCoreList@@QAEHH@Z DD 0ffffffffH
	DD	FLAT:__unwindfunclet$?addLogWriter@CCoreList@@QAEHH@Z$3
__unwindtable$?addComThread@CCoreList@@QAEHP6AXPAUSTThreadInfo@@@ZPAXH2@Z DD 0ffffffffH
	DD	FLAT:__unwindfunclet$?addComThread@CCoreList@@QAEHP6AXPAUSTThreadInfo@@@ZPAXH2@Z$4
__unwindtable$?start@CCoreList@@QAE_NXZ DD 0ffffffffH
	DD	FLAT:__unwindfunclet$?start@CCoreList@@QAE_NXZ$4
__unwindtable$??0CCoreList@@QAE@XZ DD 0ffffffffH
	DD	FLAT:__unwindfunclet$??0CCoreList@@QAE@XZ$0
__unwindtable$??0CComQueueThread@@QAE@XZ DD 0ffffffffH
	DD	FLAT:__unwindfunclet$??0CComQueueThread@@QAE@XZ$0
__unwindtable$?init@CScheduler@@QAE_NHHH@Z DD 0ffffffffH
	DD	FLAT:__unwindfunclet$?init@CScheduler@@QAE_NHHH@Z$0
__unwindtable$?initConfig@CScheduler@@QAE_NPADH0@Z DD 0ffffffffH
	DD	FLAT:__unwindfunclet$?initConfig@CScheduler@@QAE_NPADH0@Z$0
__unwindtable$?TimeProc@CSTLogger@@QAEXXZ DD 0ffffffffH
	DD	FLAT:__unwindfunclet$?TimeProc@CSTLogger@@QAEXXZ$0
__unwindtable$?initQueueThread@CCoreList@@QAE_NHH@Z DD 0ffffffffH
	DD	FLAT:__unwindfunclet$?initQueueThread@CCoreList@@QAE_NHH@Z$0
	DD	0ffffffffH
	DD	FLAT:__unwindfunclet$?initQueueThread@CCoreList@@QAE_NHH@Z$1
__unwindtable$?initScheduler@CCoreList@@QAE_NHH@Z DD 0ffffffffH
	DD	FLAT:__unwindfunclet$?initScheduler@CCoreList@@QAE_NHH@Z$0
	DD	0ffffffffH
	DD	FLAT:__unwindfunclet$?initScheduler@CCoreList@@QAE_NHH@Z$1
__unwindtable$?initLogWriter@CCoreList@@QAE_NPAD0_N@Z DD 0ffffffffH
	DD	FLAT:__unwindfunclet$?initLogWriter@CCoreList@@QAE_NPAD0_N@Z$0
	DD	0ffffffffH
	DD	FLAT:__unwindfunclet$?initLogWriter@CCoreList@@QAE_NPAD0_N@Z$1
__unwindtable$?initComThread@CCoreList@@QAE_NPAD0@Z DD 0ffffffffH
	DD	FLAT:__unwindfunclet$?initComThread@CCoreList@@QAE_NPAD0@Z$0
	DD	0ffffffffH
	DD	FLAT:__unwindfunclet$?initComThread@CCoreList@@QAE_NPAD0@Z$1
__unwindtable$?_init@CSTLogger@@AAE_NH@Z DD 0ffffffffH
	DD	FLAT:__unwindfunclet$?_init@CSTLogger@@AAE_NH@Z$0
	DD	0ffffffffH
	DD	FLAT:__unwindfunclet$?_init@CSTLogger@@AAE_NH@Z$1
__unwindtable$?initQueueThread@CCoreList@@QAE_NPAD0@Z DD 0ffffffffH
	DD	FLAT:__unwindfunclet$?initQueueThread@CCoreList@@QAE_NPAD0@Z$0
	DD	0ffffffffH
	DD	FLAT:__unwindfunclet$?initQueueThread@CCoreList@@QAE_NPAD0@Z$1
	DD	0ffffffffH
	DD	FLAT:__unwindfunclet$?initQueueThread@CCoreList@@QAE_NPAD0@Z$2
__unwindtable$?initScheduler@CCoreList@@QAE_NPAD0@Z DD 0ffffffffH
	DD	FLAT:__unwindfunclet$?initScheduler@CCoreList@@QAE_NPAD0@Z$0
	DD	0ffffffffH
	DD	FLAT:__unwindfunclet$?initScheduler@CCoreList@@QAE_NPAD0@Z$1
	DD	0ffffffffH
	DD	FLAT:__unwindfunclet$?initScheduler@CCoreList@@QAE_NPAD0@Z$2
__ehfuncinfo$?initQueueThread@CCoreList@@QAE_NHH@Z DD 019930522H
	DD	02H
	DD	FLAT:__unwindtable$?initQueueThread@CCoreList@@QAE_NHH@Z
	DD	2 DUP(00H)
	DD	2 DUP(00H)
	DD	00H
	DD	01H
__ehfuncinfo$?initScheduler@CCoreList@@QAE_NHH@Z DD 019930522H
	DD	02H
	DD	FLAT:__unwindtable$?initScheduler@CCoreList@@QAE_NHH@Z
	DD	2 DUP(00H)
	DD	2 DUP(00H)
	DD	00H
	DD	01H
__ehfuncinfo$?initLogWriter@CCoreList@@QAE_NH@Z DD 019930522H
	DD	01H
	DD	FLAT:__unwindtable$?initLogWriter@CCoreList@@QAE_NH@Z
	DD	2 DUP(00H)
	DD	2 DUP(00H)
	DD	00H
	DD	01H
__ehfuncinfo$?initComThread@CCoreList@@QAE_NH@Z DD 019930522H
	DD	01H
	DD	FLAT:__unwindtable$?initComThread@CCoreList@@QAE_NH@Z
	DD	2 DUP(00H)
	DD	2 DUP(00H)
	DD	00H
	DD	01H
__ehfuncinfo$?initQueueThread@CCoreList@@QAE_NPAD0@Z DD 019930522H
	DD	03H
	DD	FLAT:__unwindtable$?initQueueThread@CCoreList@@QAE_NPAD0@Z
	DD	2 DUP(00H)
	DD	2 DUP(00H)
	DD	00H
	DD	01H
__ehfuncinfo$?initScheduler@CCoreList@@QAE_NPAD0@Z DD 019930522H
	DD	03H
	DD	FLAT:__unwindtable$?initScheduler@CCoreList@@QAE_NPAD0@Z
	DD	2 DUP(00H)
	DD	2 DUP(00H)
	DD	00H
	DD	01H
__ehfuncinfo$?initLogWriter@CCoreList@@QAE_NPAD0_N@Z DD 019930522H
	DD	02H
	DD	FLAT:__unwindtable$?initLogWriter@CCoreList@@QAE_NPAD0_N@Z
	DD	2 DUP(00H)
	DD	2 DUP(00H)
	DD	00H
	DD	01H
__ehfuncinfo$?initComThread@CCoreList@@QAE_NPAD0@Z DD 019930522H
	DD	02H
	DD	FLAT:__unwindtable$?initComThread@CCoreList@@QAE_NPAD0@Z
	DD	2 DUP(00H)
	DD	2 DUP(00H)
	DD	00H
	DD	01H
__ehfuncinfo$?addQueueThread@CCoreList@@QAEHH@Z DD 019930522H
	DD	01H
	DD	FLAT:__unwindtable$?addQueueThread@CCoreList@@QAEHH@Z
	DD	2 DUP(00H)
	DD	2 DUP(00H)
	DD	00H
	DD	01H
__ehfuncinfo$?addScheduler@CCoreList@@QAEHHH@Z DD 019930522H
	DD	01H
	DD	FLAT:__unwindtable$?addScheduler@CCoreList@@QAEHHH@Z
	DD	2 DUP(00H)
	DD	2 DUP(00H)
	DD	00H
	DD	01H
__ehfuncinfo$?addLogWriter@CCoreList@@QAEHH@Z DD 019930522H
	DD	01H
	DD	FLAT:__unwindtable$?addLogWriter@CCoreList@@QAEHH@Z
	DD	2 DUP(00H)
	DD	2 DUP(00H)
	DD	00H
	DD	01H
__ehfuncinfo$?addComThread@CCoreList@@QAEHP6AXPAUSTThreadInfo@@@ZPAXH2@Z DD 019930522H
	DD	01H
	DD	FLAT:__unwindtable$?addComThread@CCoreList@@QAEHP6AXPAUSTThreadInfo@@@ZPAXH2@Z
	DD	2 DUP(00H)
	DD	2 DUP(00H)
	DD	00H
	DD	01H
__ehfuncinfo$?start@CCoreList@@QAE_NXZ DD 019930522H
	DD	01H
	DD	FLAT:__unwindtable$?start@CCoreList@@QAE_NXZ
	DD	2 DUP(00H)
	DD	2 DUP(00H)
	DD	00H
	DD	01H
__ehfuncinfo$??1CCoreList@@QAE@XZ DD 019930522H
	DD	00H
	DD	00H
	DD	2 DUP(00H)
	DD	2 DUP(00H)
	DD	00H
	DD	05H
__ehfuncinfo$??0CCoreList@@QAE@XZ DD 019930522H
	DD	01H
	DD	FLAT:__unwindtable$??0CCoreList@@QAE@XZ
	DD	2 DUP(00H)
	DD	2 DUP(00H)
	DD	00H
	DD	01H
__ehfuncinfo$??1CComQueueThread@@QAE@XZ DD 019930522H
	DD	00H
	DD	00H
	DD	2 DUP(00H)
	DD	2 DUP(00H)
	DD	00H
	DD	05H
__ehfuncinfo$??0CComQueueThread@@QAE@XZ DD 019930522H
	DD	01H
	DD	FLAT:__unwindtable$??0CComQueueThread@@QAE@XZ
	DD	2 DUP(00H)
	DD	2 DUP(00H)
	DD	00H
	DD	01H
__ehfuncinfo$?init@CScheduler@@QAE_NHHH@Z DD 019930522H
	DD	01H
	DD	FLAT:__unwindtable$?init@CScheduler@@QAE_NHHH@Z
	DD	2 DUP(00H)
	DD	2 DUP(00H)
	DD	00H
	DD	01H
__ehfuncinfo$?initConfig@CScheduler@@QAE_NPADH0@Z DD 019930522H
	DD	01H
	DD	FLAT:__unwindtable$?initConfig@CScheduler@@QAE_NPADH0@Z
	DD	2 DUP(00H)
	DD	2 DUP(00H)
	DD	00H
	DD	01H
__ehfuncinfo$??1CScheduler@@QAE@XZ DD 019930522H
	DD	00H
	DD	00H
	DD	2 DUP(00H)
	DD	2 DUP(00H)
	DD	00H
	DD	05H
__ehfuncinfo$?_init@CSTLogger@@AAE_NH@Z DD 019930522H
	DD	02H
	DD	FLAT:__unwindtable$?_init@CSTLogger@@AAE_NH@Z
	DD	2 DUP(00H)
	DD	2 DUP(00H)
	DD	00H
	DD	01H
__ehfuncinfo$?TimeProc@CSTLogger@@QAEXXZ DD 019930522H
	DD	01H
	DD	FLAT:__unwindtable$?TimeProc@CSTLogger@@QAEXXZ
	DD	2 DUP(00H)
	DD	2 DUP(00H)
	DD	00H
	DD	01H
__ehfuncinfo$??1CSTLogger@@QAE@XZ DD 019930522H
	DD	00H
	DD	00H
	DD	2 DUP(00H)
	DD	2 DUP(00H)
	DD	00H
	DD	05H
__ehfuncinfo$??1CComThread@@QAE@XZ DD 019930522H
	DD	00H
	DD	00H
	DD	2 DUP(00H)
	DD	2 DUP(00H)
	DD	00H
	DD	05H
xdata$x	ENDS
;	COMDAT xdata$x
xdata$x	SEGMENT
__ehfuncinfo$??_ECLogger@@QAEPAXI@Z DD 019930522H
	DD	00H
	DD	00H
	DD	2 DUP(00H)
	DD	2 DUP(00H)
	DD	00H
	DD	05H
xdata$x	ENDS
;	COMDAT xdata$x
xdata$x	SEGMENT
__ehfuncinfo$??_Ewin_atomic@win32@common@@QAEPAXI@Z DD 019930522H
	DD	00H
	DD	00H
	DD	2 DUP(00H)
	DD	2 DUP(00H)
	DD	00H
	DD	05H
xdata$x	ENDS
; Function compile flags: /Odtp /RTCsu
;	COMDAT ??_G?$CTList@VCComQueueThread@@@@QAEPAXI@Z
_TEXT	SEGMENT
_this$ = -4						; size = 4
___flags$ = 8						; size = 4
??_G?$CTList@VCComQueueThread@@@@QAEPAXI@Z PROC		; CTList<CComQueueThread>::`scalar deleting destructor', COMDAT
; _this$ = ecx
  00000	55		 push	 ebp
  00001	8b ec		 mov	 ebp, esp
  00003	51		 push	 ecx
  00004	c7 45 fc cc cc
	cc cc		 mov	 DWORD PTR [ebp-4], -858993460 ; ccccccccH
  0000b	89 4d fc	 mov	 DWORD PTR _this$[ebp], ecx
  0000e	8b 4d fc	 mov	 ecx, DWORD PTR _this$[ebp]
  00011	e8 00 00 00 00	 call	 ??1?$CTList@VCComQueueThread@@@@QAE@XZ ; CTList<CComQueueThread>::~CTList<CComQueueThread>
  00016	8b 45 08	 mov	 eax, DWORD PTR ___flags$[ebp]
  00019	83 e0 01	 and	 eax, 1
  0001c	74 0e		 je	 SHORT $LN2@scalar
  0001e	6a 18		 push	 24			; 00000018H
  00020	8b 4d fc	 mov	 ecx, DWORD PTR _this$[ebp]
  00023	51		 push	 ecx
  00024	e8 00 00 00 00	 call	 ??3@YAXPAXI@Z		; operator delete
  00029	83 c4 08	 add	 esp, 8
$LN2@scalar:
  0002c	8b 45 fc	 mov	 eax, DWORD PTR _this$[ebp]
  0002f	83 c4 04	 add	 esp, 4
  00032	3b ec		 cmp	 ebp, esp
  00034	e8 00 00 00 00	 call	 __RTC_CheckEsp
  00039	8b e5		 mov	 esp, ebp
  0003b	5d		 pop	 ebp
  0003c	c2 04 00	 ret	 4
??_G?$CTList@VCComQueueThread@@@@QAEPAXI@Z ENDP		; CTList<CComQueueThread>::`scalar deleting destructor'
_TEXT	ENDS
; Function compile flags: /Odtp /RTCsu
;	COMDAT ?__autoclassinit2@?$CTList@VCComQueueThread@@@@QAEXI@Z
_TEXT	SEGMENT
_this$ = -4						; size = 4
_classSize$ = 8						; size = 4
?__autoclassinit2@?$CTList@VCComQueueThread@@@@QAEXI@Z PROC ; CTList<CComQueueThread>::__autoclassinit2, COMDAT
; _this$ = ecx
  00000	55		 push	 ebp
  00001	8b ec		 mov	 ebp, esp
  00003	51		 push	 ecx
  00004	c7 45 fc cc cc
	cc cc		 mov	 DWORD PTR [ebp-4], -858993460 ; ccccccccH
  0000b	89 4d fc	 mov	 DWORD PTR _this$[ebp], ecx
  0000e	8b 45 08	 mov	 eax, DWORD PTR _classSize$[ebp]
  00011	50		 push	 eax
  00012	6a 00		 push	 0
  00014	8b 4d fc	 mov	 ecx, DWORD PTR _this$[ebp]
  00017	51		 push	 ecx
  00018	e8 00 00 00 00	 call	 _memset
  0001d	83 c4 0c	 add	 esp, 12			; 0000000cH
  00020	83 c4 04	 add	 esp, 4
  00023	3b ec		 cmp	 ebp, esp
  00025	e8 00 00 00 00	 call	 __RTC_CheckEsp
  0002a	8b e5		 mov	 esp, ebp
  0002c	5d		 pop	 ebp
  0002d	c2 04 00	 ret	 4
?__autoclassinit2@?$CTList@VCComQueueThread@@@@QAEXI@Z ENDP ; CTList<CComQueueThread>::__autoclassinit2
_TEXT	ENDS
; Function compile flags: /Odtp /RTCsu
; File e:\infinia-library-3.0\com\include\comtlist.h
;	COMDAT ?_DEL@?$CTList@VCComQueueThread@@@@AAEXH@Z
_TEXT	SEGMENT
_this$ = -4						; size = 4
_i$ = 8							; size = 4
?_DEL@?$CTList@VCComQueueThread@@@@AAEXH@Z PROC		; CTList<CComQueueThread>::_DEL, COMDAT
; _this$ = ecx

; 360  : 	inline void _DEL(int i) { m_pArray[i] = 0; m_nUse--; m_nDelIdx = i; }

  00000	55		 push	 ebp
  00001	8b ec		 mov	 ebp, esp
  00003	51		 push	 ecx
  00004	c7 45 fc cc cc
	cc cc		 mov	 DWORD PTR [ebp-4], -858993460 ; ccccccccH
  0000b	89 4d fc	 mov	 DWORD PTR _this$[ebp], ecx
  0000e	8b 45 fc	 mov	 eax, DWORD PTR _this$[ebp]
  00011	8b 08		 mov	 ecx, DWORD PTR [eax]
  00013	8b 55 08	 mov	 edx, DWORD PTR _i$[ebp]
  00016	c7 04 91 00 00
	00 00		 mov	 DWORD PTR [ecx+edx*4], 0
  0001d	8b 45 fc	 mov	 eax, DWORD PTR _this$[ebp]
  00020	8b 48 04	 mov	 ecx, DWORD PTR [eax+4]
  00023	83 e9 01	 sub	 ecx, 1
  00026	8b 55 fc	 mov	 edx, DWORD PTR _this$[ebp]
  00029	89 4a 04	 mov	 DWORD PTR [edx+4], ecx
  0002c	8b 45 fc	 mov	 eax, DWORD PTR _this$[ebp]
  0002f	8b 4d 08	 mov	 ecx, DWORD PTR _i$[ebp]
  00032	89 48 0c	 mov	 DWORD PTR [eax+12], ecx
  00035	8b e5		 mov	 esp, ebp
  00037	5d		 pop	 ebp
  00038	c2 04 00	 ret	 4
?_DEL@?$CTList@VCComQueueThread@@@@AAEXH@Z ENDP		; CTList<CComQueueThread>::_DEL
_TEXT	ENDS
; Function compile flags: /Odtp /RTCsu
; File e:\infinia-library-3.0\com\include\comtlist.h
;	COMDAT ?__alloc@?$CTList@VCComQueueThread@@@@AAEHH@Z
_TEXT	SEGMENT
_pList$ = -8						; size = 4
_this$ = -4						; size = 4
_nMaxCount$ = 8						; size = 4
?__alloc@?$CTList@VCComQueueThread@@@@AAEHH@Z PROC	; CTList<CComQueueThread>::__alloc, COMDAT
; _this$ = ecx

; 402  : {

  00000	55		 push	 ebp
  00001	8b ec		 mov	 ebp, esp
  00003	83 ec 08	 sub	 esp, 8
  00006	56		 push	 esi
  00007	c7 45 f8 cc cc
	cc cc		 mov	 DWORD PTR [ebp-8], -858993460 ; ccccccccH
  0000e	c7 45 fc cc cc
	cc cc		 mov	 DWORD PTR [ebp-4], -858993460 ; ccccccccH
  00015	89 4d fc	 mov	 DWORD PTR _this$[ebp], ecx

; 403  : 	T** pList = (T**)calloc(nMaxCount, sizeof(T*));

  00018	8b f4		 mov	 esi, esp
  0001a	6a 04		 push	 4
  0001c	8b 45 08	 mov	 eax, DWORD PTR _nMaxCount$[ebp]
  0001f	50		 push	 eax
  00020	ff 15 00 00 00
	00		 call	 DWORD PTR __imp__calloc
  00026	83 c4 08	 add	 esp, 8
  00029	3b f4		 cmp	 esi, esp
  0002b	e8 00 00 00 00	 call	 __RTC_CheckEsp
  00030	89 45 f8	 mov	 DWORD PTR _pList$[ebp], eax

; 404  : 	if (!pList) {

  00033	83 7d f8 00	 cmp	 DWORD PTR _pList$[ebp], 0
  00037	75 16		 jne	 SHORT $LN2@alloc

; 405  : 		_stprintf(g_szMessage, "pList calloc is NULL");

  00039	68 00 00 00 00	 push	 OFFSET $SG47263
  0003e	68 00 00 00 00	 push	 OFFSET ?g_szMessage@@3PADA ; g_szMessage
  00043	e8 00 00 00 00	 call	 _sprintf
  00048	83 c4 08	 add	 esp, 8

; 406  : 		return 0;

  0004b	33 c0		 xor	 eax, eax
  0004d	eb 47		 jmp	 SHORT $LN1@alloc
$LN2@alloc:

; 407  : 	}
; 408  : 	//_stprintf(g_szMessage, _T("CTList::__alloc list m_nMaxCount[%d]"), nMaxCount);
; 409  : 	if (m_pArray) {

  0004f	8b 4d fc	 mov	 ecx, DWORD PTR _this$[ebp]
  00052	83 39 00	 cmp	 DWORD PTR [ecx], 0
  00055	74 34		 je	 SHORT $LN3@alloc

; 410  : 		memcpy(pList, m_pArray, m_nMax * sizeof(T*));

  00057	8b 55 fc	 mov	 edx, DWORD PTR _this$[ebp]
  0005a	8b 42 10	 mov	 eax, DWORD PTR [edx+16]
  0005d	c1 e0 02	 shl	 eax, 2
  00060	50		 push	 eax
  00061	8b 4d fc	 mov	 ecx, DWORD PTR _this$[ebp]
  00064	8b 11		 mov	 edx, DWORD PTR [ecx]
  00066	52		 push	 edx
  00067	8b 45 f8	 mov	 eax, DWORD PTR _pList$[ebp]
  0006a	50		 push	 eax
  0006b	e8 00 00 00 00	 call	 _memcpy
  00070	83 c4 0c	 add	 esp, 12			; 0000000cH

; 411  : 		free(m_pArray);

  00073	8b f4		 mov	 esi, esp
  00075	8b 4d fc	 mov	 ecx, DWORD PTR _this$[ebp]
  00078	8b 11		 mov	 edx, DWORD PTR [ecx]
  0007a	52		 push	 edx
  0007b	ff 15 00 00 00
	00		 call	 DWORD PTR __imp__free
  00081	83 c4 04	 add	 esp, 4
  00084	3b f4		 cmp	 esi, esp
  00086	e8 00 00 00 00	 call	 __RTC_CheckEsp
$LN3@alloc:

; 412  : 	}
; 413  : 	m_pArray = pList;

  0008b	8b 45 fc	 mov	 eax, DWORD PTR _this$[ebp]
  0008e	8b 4d f8	 mov	 ecx, DWORD PTR _pList$[ebp]
  00091	89 08		 mov	 DWORD PTR [eax], ecx

; 414  : 	return nMaxCount;

  00093	8b 45 08	 mov	 eax, DWORD PTR _nMaxCount$[ebp]
$LN1@alloc:

; 415  : }

  00096	5e		 pop	 esi
  00097	83 c4 08	 add	 esp, 8
  0009a	3b ec		 cmp	 ebp, esp
  0009c	e8 00 00 00 00	 call	 __RTC_CheckEsp
  000a1	8b e5		 mov	 esp, ebp
  000a3	5d		 pop	 ebp
  000a4	c2 04 00	 ret	 4
?__alloc@?$CTList@VCComQueueThread@@@@AAEHH@Z ENDP	; CTList<CComQueueThread>::__alloc
_TEXT	ENDS
; Function compile flags: /Odtp /RTCsu
; File e:\infinia-library-3.0\com\include\comtlist.h
;	COMDAT ?setObjAllocType@?$CTList@VCComQueueThread@@@@QAEXW4E_ALLOC_TYPE@@@Z
_TEXT	SEGMENT
_this$ = -4						; size = 4
_type$ = 8						; size = 4
?setObjAllocType@?$CTList@VCComQueueThread@@@@QAEXW4E_ALLOC_TYPE@@@Z PROC ; CTList<CComQueueThread>::setObjAllocType, COMDAT
; _this$ = ecx

; 350  : 	inline void setObjAllocType(E_ALLOC_TYPE type) { m_nObjAllocType = type; }

  00000	55		 push	 ebp
  00001	8b ec		 mov	 ebp, esp
  00003	51		 push	 ecx
  00004	c7 45 fc cc cc
	cc cc		 mov	 DWORD PTR [ebp-4], -858993460 ; ccccccccH
  0000b	89 4d fc	 mov	 DWORD PTR _this$[ebp], ecx
  0000e	8b 45 fc	 mov	 eax, DWORD PTR _this$[ebp]
  00011	8b 4d 08	 mov	 ecx, DWORD PTR _type$[ebp]
  00014	89 48 14	 mov	 DWORD PTR [eax+20], ecx
  00017	8b e5		 mov	 esp, ebp
  00019	5d		 pop	 ebp
  0001a	c2 04 00	 ret	 4
?setObjAllocType@?$CTList@VCComQueueThread@@@@QAEXW4E_ALLOC_TYPE@@@Z ENDP ; CTList<CComQueueThread>::setObjAllocType
_TEXT	ENDS
; Function compile flags: /Odtp /RTCsu
; File e:\infinia-library-3.0\com\include\comtlist.h
;	COMDAT ?size@?$CTList@VCComQueueThread@@@@QAEHXZ
_TEXT	SEGMENT
_this$ = -4						; size = 4
?size@?$CTList@VCComQueueThread@@@@QAEHXZ PROC		; CTList<CComQueueThread>::size, COMDAT
; _this$ = ecx

; 347  : 	inline int  size() { return m_nUse; }

  00000	55		 push	 ebp
  00001	8b ec		 mov	 ebp, esp
  00003	51		 push	 ecx
  00004	c7 45 fc cc cc
	cc cc		 mov	 DWORD PTR [ebp-4], -858993460 ; ccccccccH
  0000b	89 4d fc	 mov	 DWORD PTR _this$[ebp], ecx
  0000e	8b 45 fc	 mov	 eax, DWORD PTR _this$[ebp]
  00011	8b 40 04	 mov	 eax, DWORD PTR [eax+4]
  00014	8b e5		 mov	 esp, ebp
  00016	5d		 pop	 ebp
  00017	c3		 ret	 0
?size@?$CTList@VCComQueueThread@@@@QAEHXZ ENDP		; CTList<CComQueueThread>::size
_TEXT	ENDS
; Function compile flags: /Odtp /RTCsu
; File e:\infinia-library-3.0\com\include\comtlist.h
;	COMDAT ?getNext@?$CTList@VCComQueueThread@@@@QAEPAVCComQueueThread@@PAH@Z
_TEXT	SEGMENT
_this$ = -4						; size = 4
_pIdx$ = 8						; size = 4
?getNext@?$CTList@VCComQueueThread@@@@QAEPAVCComQueueThread@@PAH@Z PROC ; CTList<CComQueueThread>::getNext, COMDAT
; _this$ = ecx

; 334  : 	inline T* getNext(int *pIdx) {

  00000	55		 push	 ebp
  00001	8b ec		 mov	 ebp, esp
  00003	51		 push	 ecx
  00004	c7 45 fc cc cc
	cc cc		 mov	 DWORD PTR [ebp-4], -858993460 ; ccccccccH
  0000b	89 4d fc	 mov	 DWORD PTR _this$[ebp], ecx

; 335  : 		for (*pIdx; *pIdx < m_nMax; (*pIdx)++) {

  0000e	eb 0d		 jmp	 SHORT $LN4@getNext
$LN2@getNext:
  00010	8b 45 08	 mov	 eax, DWORD PTR _pIdx$[ebp]
  00013	8b 08		 mov	 ecx, DWORD PTR [eax]
  00015	83 c1 01	 add	 ecx, 1
  00018	8b 55 08	 mov	 edx, DWORD PTR _pIdx$[ebp]
  0001b	89 0a		 mov	 DWORD PTR [edx], ecx
$LN4@getNext:
  0001d	8b 45 08	 mov	 eax, DWORD PTR _pIdx$[ebp]
  00020	8b 4d fc	 mov	 ecx, DWORD PTR _this$[ebp]
  00023	8b 10		 mov	 edx, DWORD PTR [eax]
  00025	3b 51 10	 cmp	 edx, DWORD PTR [ecx+16]
  00028	7d 21		 jge	 SHORT $LN3@getNext

; 336  : 			if (m_pArray[*pIdx]) { return m_pArray[*pIdx]; }

  0002a	8b 45 08	 mov	 eax, DWORD PTR _pIdx$[ebp]
  0002d	8b 08		 mov	 ecx, DWORD PTR [eax]
  0002f	8b 55 fc	 mov	 edx, DWORD PTR _this$[ebp]
  00032	8b 02		 mov	 eax, DWORD PTR [edx]
  00034	83 3c 88 00	 cmp	 DWORD PTR [eax+ecx*4], 0
  00038	74 0f		 je	 SHORT $LN5@getNext
  0003a	8b 4d 08	 mov	 ecx, DWORD PTR _pIdx$[ebp]
  0003d	8b 11		 mov	 edx, DWORD PTR [ecx]
  0003f	8b 45 fc	 mov	 eax, DWORD PTR _this$[ebp]
  00042	8b 08		 mov	 ecx, DWORD PTR [eax]
  00044	8b 04 91	 mov	 eax, DWORD PTR [ecx+edx*4]
  00047	eb 04		 jmp	 SHORT $LN1@getNext
$LN5@getNext:

; 337  : 		}

  00049	eb c5		 jmp	 SHORT $LN2@getNext
$LN3@getNext:

; 338  : 		return NULL;

  0004b	33 c0		 xor	 eax, eax
$LN1@getNext:

; 339  : 	}

  0004d	8b e5		 mov	 esp, ebp
  0004f	5d		 pop	 ebp
  00050	c2 04 00	 ret	 4
?getNext@?$CTList@VCComQueueThread@@@@QAEPAVCComQueueThread@@PAH@Z ENDP ; CTList<CComQueueThread>::getNext
_TEXT	ENDS
; Function compile flags: /Odtp /RTCsu
; File e:\infinia-library-3.0\com\include\comtlist.h
;	COMDAT ?getObj@?$CTList@VCComQueueThread@@@@QAEPAVCComQueueThread@@H@Z
_TEXT	SEGMENT
_this$ = -4						; size = 4
_i$ = 8							; size = 4
?getObj@?$CTList@VCComQueueThread@@@@QAEPAVCComQueueThread@@H@Z PROC ; CTList<CComQueueThread>::getObj, COMDAT
; _this$ = ecx

; 332  : 	inline T* getObj(int i) { if (ISINCLUDE(i, m_nMax)) return m_pArray[i]; return NULL; }

  00000	55		 push	 ebp
  00001	8b ec		 mov	 ebp, esp
  00003	51		 push	 ecx
  00004	c7 45 fc cc cc
	cc cc		 mov	 DWORD PTR [ebp-4], -858993460 ; ccccccccH
  0000b	89 4d fc	 mov	 DWORD PTR _this$[ebp], ecx
  0000e	8b 45 fc	 mov	 eax, DWORD PTR _this$[ebp]
  00011	8b 48 10	 mov	 ecx, DWORD PTR [eax+16]
  00014	51		 push	 ecx
  00015	8b 55 08	 mov	 edx, DWORD PTR _i$[ebp]
  00018	52		 push	 edx
  00019	e8 00 00 00 00	 call	 ?ISINCLUDE@@YA_NHH@Z	; ISINCLUDE
  0001e	83 c4 08	 add	 esp, 8
  00021	0f b6 c0	 movzx	 eax, al
  00024	85 c0		 test	 eax, eax
  00026	74 0d		 je	 SHORT $LN2@getObj
  00028	8b 4d fc	 mov	 ecx, DWORD PTR _this$[ebp]
  0002b	8b 11		 mov	 edx, DWORD PTR [ecx]
  0002d	8b 45 08	 mov	 eax, DWORD PTR _i$[ebp]
  00030	8b 04 82	 mov	 eax, DWORD PTR [edx+eax*4]
  00033	eb 02		 jmp	 SHORT $LN1@getObj
$LN2@getObj:
  00035	33 c0		 xor	 eax, eax
$LN1@getObj:
  00037	83 c4 04	 add	 esp, 4
  0003a	3b ec		 cmp	 ebp, esp
  0003c	e8 00 00 00 00	 call	 __RTC_CheckEsp
  00041	8b e5		 mov	 esp, ebp
  00043	5d		 pop	 ebp
  00044	c2 04 00	 ret	 4
?getObj@?$CTList@VCComQueueThread@@@@QAEPAVCComQueueThread@@H@Z ENDP ; CTList<CComQueueThread>::getObj
_TEXT	ENDS
; Function compile flags: /Odtp /RTCsu
; File e:\infinia-library-3.0\com\include\comtlist.h
;	COMDAT ?del@?$CTList@VCComQueueThread@@@@QAE_NH@Z
_TEXT	SEGMENT
_this$ = -4						; size = 4
_i$ = 8							; size = 4
?del@?$CTList@VCComQueueThread@@@@QAE_NH@Z PROC		; CTList<CComQueueThread>::del, COMDAT
; _this$ = ecx

; 523  : {

  00000	55		 push	 ebp
  00001	8b ec		 mov	 ebp, esp
  00003	51		 push	 ecx
  00004	c7 45 fc cc cc
	cc cc		 mov	 DWORD PTR [ebp-4], -858993460 ; ccccccccH
  0000b	89 4d fc	 mov	 DWORD PTR _this$[ebp], ecx

; 524  : 	if (!ISINCLUDE(i, m_nMax)) {

  0000e	8b 45 fc	 mov	 eax, DWORD PTR _this$[ebp]
  00011	8b 48 10	 mov	 ecx, DWORD PTR [eax+16]
  00014	51		 push	 ecx
  00015	8b 55 08	 mov	 edx, DWORD PTR _i$[ebp]
  00018	52		 push	 edx
  00019	e8 00 00 00 00	 call	 ?ISINCLUDE@@YA_NHH@Z	; ISINCLUDE
  0001e	83 c4 08	 add	 esp, 8
  00021	0f b6 c0	 movzx	 eax, al
  00024	85 c0		 test	 eax, eax
  00026	75 21		 jne	 SHORT $LN2@del

; 525  : 		_stprintf(g_szMessage, "i[%d] m_nMax[%d]", i, m_nMax);

  00028	8b 4d fc	 mov	 ecx, DWORD PTR _this$[ebp]
  0002b	8b 51 10	 mov	 edx, DWORD PTR [ecx+16]
  0002e	52		 push	 edx
  0002f	8b 45 08	 mov	 eax, DWORD PTR _i$[ebp]
  00032	50		 push	 eax
  00033	68 00 00 00 00	 push	 OFFSET $SG47252
  00038	68 00 00 00 00	 push	 OFFSET ?g_szMessage@@3PADA ; g_szMessage
  0003d	e8 00 00 00 00	 call	 _sprintf
  00042	83 c4 10	 add	 esp, 16			; 00000010H

; 526  : 		return false;

  00045	32 c0		 xor	 al, al
  00047	eb 0e		 jmp	 SHORT $LN1@del
$LN2@del:

; 527  : 	}
; 528  : 	_DEL(i);

  00049	8b 4d 08	 mov	 ecx, DWORD PTR _i$[ebp]
  0004c	51		 push	 ecx
  0004d	8b 4d fc	 mov	 ecx, DWORD PTR _this$[ebp]
  00050	e8 00 00 00 00	 call	 ?_DEL@?$CTList@VCComQueueThread@@@@AAEXH@Z ; CTList<CComQueueThread>::_DEL

; 529  : 	//_stprintf(g_szMessage, _T("CMemList::del i[%d] m_nLast[%d] m_nCurCount[%d]"), i, m_nLast, m_nUse);
; 530  : 	return true;

  00055	b0 01		 mov	 al, 1
$LN1@del:

; 531  : }

  00057	83 c4 04	 add	 esp, 4
  0005a	3b ec		 cmp	 ebp, esp
  0005c	e8 00 00 00 00	 call	 __RTC_CheckEsp
  00061	8b e5		 mov	 esp, ebp
  00063	5d		 pop	 ebp
  00064	c2 04 00	 ret	 4
?del@?$CTList@VCComQueueThread@@@@QAE_NH@Z ENDP		; CTList<CComQueueThread>::del
_TEXT	ENDS
; Function compile flags: /Odtp /RTCsu
; File e:\infinia-library-3.0\com\include\comtlist.h
;	COMDAT ?push_back@?$CTList@VCComQueueThread@@@@QAE_NPAVCComQueueThread@@PAH@Z
_TEXT	SEGMENT
_i$ = -12						; size = 4
_nIdx$ = -8						; size = 4
_this$ = -4						; size = 4
_Obj$ = 8						; size = 4
_pIdx$ = 12						; size = 4
?push_back@?$CTList@VCComQueueThread@@@@QAE_NPAVCComQueueThread@@PAH@Z PROC ; CTList<CComQueueThread>::push_back, COMDAT
; _this$ = ecx

; 472  : {

  00000	55		 push	 ebp
  00001	8b ec		 mov	 ebp, esp
  00003	83 ec 0c	 sub	 esp, 12			; 0000000cH
  00006	c7 45 f4 cc cc
	cc cc		 mov	 DWORD PTR [ebp-12], -858993460 ; ccccccccH
  0000d	c7 45 f8 cc cc
	cc cc		 mov	 DWORD PTR [ebp-8], -858993460 ; ccccccccH
  00014	c7 45 fc cc cc
	cc cc		 mov	 DWORD PTR [ebp-4], -858993460 ; ccccccccH
  0001b	89 4d fc	 mov	 DWORD PTR _this$[ebp], ecx

; 473  : 	int nIdx, i;
; 474  : 
; 475  : 	if (m_nUse >= m_nMax) {

  0001e	8b 45 fc	 mov	 eax, DWORD PTR _this$[ebp]
  00021	8b 4d fc	 mov	 ecx, DWORD PTR _this$[ebp]
  00024	8b 50 04	 mov	 edx, DWORD PTR [eax+4]
  00027	3b 51 10	 cmp	 edx, DWORD PTR [ecx+16]
  0002a	7c 39		 jl	 SHORT $LN5@push_back

; 476  : 		if (!__alloc(m_nMax + TLIST_ADD_SIZE)) return false;

  0002c	8b 45 fc	 mov	 eax, DWORD PTR _this$[ebp]
  0002f	8b 48 10	 mov	 ecx, DWORD PTR [eax+16]
  00032	83 c1 40	 add	 ecx, 64			; 00000040H
  00035	51		 push	 ecx
  00036	8b 4d fc	 mov	 ecx, DWORD PTR _this$[ebp]
  00039	e8 00 00 00 00	 call	 ?__alloc@?$CTList@VCComQueueThread@@@@AAEHH@Z ; CTList<CComQueueThread>::__alloc
  0003e	85 c0		 test	 eax, eax
  00040	75 07		 jne	 SHORT $LN6@push_back
  00042	32 c0		 xor	 al, al
  00044	e9 cf 00 00 00	 jmp	 $LN1@push_back
$LN6@push_back:

; 477  : 		nIdx = m_nMax;

  00049	8b 55 fc	 mov	 edx, DWORD PTR _this$[ebp]
  0004c	8b 42 10	 mov	 eax, DWORD PTR [edx+16]
  0004f	89 45 f8	 mov	 DWORD PTR _nIdx$[ebp], eax

; 478  : 		m_nMax += TLIST_ADD_SIZE;

  00052	8b 4d fc	 mov	 ecx, DWORD PTR _this$[ebp]
  00055	8b 51 10	 mov	 edx, DWORD PTR [ecx+16]
  00058	83 c2 40	 add	 edx, 64			; 00000040H
  0005b	8b 45 fc	 mov	 eax, DWORD PTR _this$[ebp]
  0005e	89 50 10	 mov	 DWORD PTR [eax+16], edx

; 479  : 		goto ADD_SUCCESS;

  00061	eb 79		 jmp	 SHORT $ADD_SUCCESS$15
  00063	eb 77		 jmp	 SHORT $ADD_SUCCESS$15
$LN5@push_back:

; 480  : 	}
; 481  : 
; 482  : 	if (!m_pArray[m_nLast]) { nIdx = m_nLast;  goto ADD_SUCCESS; }

  00065	8b 4d fc	 mov	 ecx, DWORD PTR _this$[ebp]
  00068	8b 51 08	 mov	 edx, DWORD PTR [ecx+8]
  0006b	8b 45 fc	 mov	 eax, DWORD PTR _this$[ebp]
  0006e	8b 08		 mov	 ecx, DWORD PTR [eax]
  00070	83 3c 91 00	 cmp	 DWORD PTR [ecx+edx*4], 0
  00074	75 0d		 jne	 SHORT $LN8@push_back
  00076	8b 55 fc	 mov	 edx, DWORD PTR _this$[ebp]
  00079	8b 42 08	 mov	 eax, DWORD PTR [edx+8]
  0007c	89 45 f8	 mov	 DWORD PTR _nIdx$[ebp], eax
  0007f	eb 5b		 jmp	 SHORT $ADD_SUCCESS$15
  00081	eb 59		 jmp	 SHORT $ADD_SUCCESS$15
$LN8@push_back:

; 483  : 
; 484  : 	nIdx = m_nLast;

  00083	8b 4d fc	 mov	 ecx, DWORD PTR _this$[ebp]
  00086	8b 51 08	 mov	 edx, DWORD PTR [ecx+8]
  00089	89 55 f8	 mov	 DWORD PTR _nIdx$[ebp], edx

; 485  : 	for (i = 0; i < m_nMax; i++)

  0008c	c7 45 f4 00 00
	00 00		 mov	 DWORD PTR _i$[ebp], 0
  00093	eb 09		 jmp	 SHORT $LN4@push_back
$LN2@push_back:
  00095	8b 45 f4	 mov	 eax, DWORD PTR _i$[ebp]
  00098	83 c0 01	 add	 eax, 1
  0009b	89 45 f4	 mov	 DWORD PTR _i$[ebp], eax
$LN4@push_back:
  0009e	8b 4d fc	 mov	 ecx, DWORD PTR _this$[ebp]
  000a1	8b 55 f4	 mov	 edx, DWORD PTR _i$[ebp]
  000a4	3b 51 10	 cmp	 edx, DWORD PTR [ecx+16]
  000a7	7d 2f		 jge	 SHORT $LN3@push_back

; 486  : 	{
; 487  : 		if (nIdx >= m_nMax) nIdx = 0;

  000a9	8b 45 fc	 mov	 eax, DWORD PTR _this$[ebp]
  000ac	8b 4d f8	 mov	 ecx, DWORD PTR _nIdx$[ebp]
  000af	3b 48 10	 cmp	 ecx, DWORD PTR [eax+16]
  000b2	7c 07		 jl	 SHORT $LN10@push_back
  000b4	c7 45 f8 00 00
	00 00		 mov	 DWORD PTR _nIdx$[ebp], 0
$LN10@push_back:

; 488  : 		if (!m_pArray[nIdx]) {

  000bb	8b 55 fc	 mov	 edx, DWORD PTR _this$[ebp]
  000be	8b 02		 mov	 eax, DWORD PTR [edx]
  000c0	8b 4d f8	 mov	 ecx, DWORD PTR _nIdx$[ebp]
  000c3	83 3c 88 00	 cmp	 DWORD PTR [eax+ecx*4], 0
  000c7	75 04		 jne	 SHORT $LN11@push_back

; 489  : 			goto ADD_SUCCESS;

  000c9	eb 11		 jmp	 SHORT $ADD_SUCCESS$15
  000cb	eb 0f		 jmp	 SHORT $ADD_SUCCESS$15
$LN11@push_back:

; 490  : 		}
; 491  : 		nIdx++;

  000cd	8b 55 f8	 mov	 edx, DWORD PTR _nIdx$[ebp]
  000d0	83 c2 01	 add	 edx, 1
  000d3	89 55 f8	 mov	 DWORD PTR _nIdx$[ebp], edx

; 492  : 	}

  000d6	eb bd		 jmp	 SHORT $LN2@push_back
$LN3@push_back:

; 493  : 	//_stprintf(m_szMessage, _T("add FAIL! m_nLast[%d] m_nCurCount[%d] m_nMax[%d]"), m_nLast, m_nUse, m_nMax);
; 494  : 	return false;

  000d8	32 c0		 xor	 al, al
  000da	eb 3c		 jmp	 SHORT $LN1@push_back
$ADD_SUCCESS$15:

; 495  : 
; 496  : ADD_SUCCESS:
; 497  : 	m_nUse++;

  000dc	8b 45 fc	 mov	 eax, DWORD PTR _this$[ebp]
  000df	8b 48 04	 mov	 ecx, DWORD PTR [eax+4]
  000e2	83 c1 01	 add	 ecx, 1
  000e5	8b 55 fc	 mov	 edx, DWORD PTR _this$[ebp]
  000e8	89 4a 04	 mov	 DWORD PTR [edx+4], ecx

; 498  : 	m_pArray[nIdx] = Obj;

  000eb	8b 45 fc	 mov	 eax, DWORD PTR _this$[ebp]
  000ee	8b 08		 mov	 ecx, DWORD PTR [eax]
  000f0	8b 55 f8	 mov	 edx, DWORD PTR _nIdx$[ebp]
  000f3	8b 45 08	 mov	 eax, DWORD PTR _Obj$[ebp]
  000f6	89 04 91	 mov	 DWORD PTR [ecx+edx*4], eax

; 499  : 	m_nLast++;

  000f9	8b 4d fc	 mov	 ecx, DWORD PTR _this$[ebp]
  000fc	8b 51 08	 mov	 edx, DWORD PTR [ecx+8]
  000ff	83 c2 01	 add	 edx, 1
  00102	8b 45 fc	 mov	 eax, DWORD PTR _this$[ebp]
  00105	89 50 08	 mov	 DWORD PTR [eax+8], edx

; 500  : 	//_stprintf(g_szMessage, _T("CMemList::add i[%d] m_nLast[%d] m_nCurCount[%d]"), nIdx, m_nLast, m_nUse);
; 501  : 	if (pIdx) *pIdx = nIdx;

  00108	83 7d 0c 00	 cmp	 DWORD PTR _pIdx$[ebp], 0
  0010c	74 08		 je	 SHORT $LN13@push_back
  0010e	8b 4d 0c	 mov	 ecx, DWORD PTR _pIdx$[ebp]
  00111	8b 55 f8	 mov	 edx, DWORD PTR _nIdx$[ebp]
  00114	89 11		 mov	 DWORD PTR [ecx], edx
$LN13@push_back:

; 502  : 	return true;

  00116	b0 01		 mov	 al, 1
$LN1@push_back:

; 503  : }

  00118	83 c4 0c	 add	 esp, 12			; 0000000cH
  0011b	3b ec		 cmp	 ebp, esp
  0011d	e8 00 00 00 00	 call	 __RTC_CheckEsp
  00122	8b e5		 mov	 esp, ebp
  00124	5d		 pop	 ebp
  00125	c2 08 00	 ret	 8
?push_back@?$CTList@VCComQueueThread@@@@QAE_NPAVCComQueueThread@@PAH@Z ENDP ; CTList<CComQueueThread>::push_back
_TEXT	ENDS
; Function compile flags: /Odtp /RTCsu
; File e:\infinia-library-3.0\com\include\comtlist.h
;	COMDAT ?alloc@?$CTList@VCComQueueThread@@@@QAEHHW4E_ALLOC_TYPE@@@Z
_TEXT	SEGMENT
_this$ = -4						; size = 4
_nMaxCount$ = 8						; size = 4
_type$ = 12						; size = 4
?alloc@?$CTList@VCComQueueThread@@@@QAEHHW4E_ALLOC_TYPE@@@Z PROC ; CTList<CComQueueThread>::alloc, COMDAT
; _this$ = ecx

; 326  : 	int alloc(int nMaxCount, E_ALLOC_TYPE type = eAlloc_Type_new) { m_nObjAllocType = type;  m_nMax = __alloc(nMaxCount); return m_nMax; }

  00000	55		 push	 ebp
  00001	8b ec		 mov	 ebp, esp
  00003	51		 push	 ecx
  00004	c7 45 fc cc cc
	cc cc		 mov	 DWORD PTR [ebp-4], -858993460 ; ccccccccH
  0000b	89 4d fc	 mov	 DWORD PTR _this$[ebp], ecx
  0000e	8b 45 fc	 mov	 eax, DWORD PTR _this$[ebp]
  00011	8b 4d 0c	 mov	 ecx, DWORD PTR _type$[ebp]
  00014	89 48 14	 mov	 DWORD PTR [eax+20], ecx
  00017	8b 55 08	 mov	 edx, DWORD PTR _nMaxCount$[ebp]
  0001a	52		 push	 edx
  0001b	8b 4d fc	 mov	 ecx, DWORD PTR _this$[ebp]
  0001e	e8 00 00 00 00	 call	 ?__alloc@?$CTList@VCComQueueThread@@@@AAEHH@Z ; CTList<CComQueueThread>::__alloc
  00023	8b 4d fc	 mov	 ecx, DWORD PTR _this$[ebp]
  00026	89 41 10	 mov	 DWORD PTR [ecx+16], eax
  00029	8b 55 fc	 mov	 edx, DWORD PTR _this$[ebp]
  0002c	8b 42 10	 mov	 eax, DWORD PTR [edx+16]
  0002f	83 c4 04	 add	 esp, 4
  00032	3b ec		 cmp	 ebp, esp
  00034	e8 00 00 00 00	 call	 __RTC_CheckEsp
  00039	8b e5		 mov	 esp, ebp
  0003b	5d		 pop	 ebp
  0003c	c2 08 00	 ret	 8
?alloc@?$CTList@VCComQueueThread@@@@QAEHHW4E_ALLOC_TYPE@@@Z ENDP ; CTList<CComQueueThread>::alloc
_TEXT	ENDS
; Function compile flags: /Odtp /RTCsu
; File e:\infinia-library-3.0\com\include\comtlist.h
;	COMDAT ??1?$CTList@VCComQueueThread@@@@QAE@XZ
_TEXT	SEGMENT
tv94 = -64						; size = 4
tv82 = -60						; size = 4
tv77 = -56						; size = 4
$T2 = -52						; size = 4
$T3 = -48						; size = 4
$T4 = -44						; size = 4
$T5 = -40						; size = 4
_p$6 = -36						; size = 4
_idx$7 = -28						; size = 4
_this$ = -20						; size = 4
__$ArrayPad$ = -16					; size = 4
__$EHRec$ = -12						; size = 12
??1?$CTList@VCComQueueThread@@@@QAE@XZ PROC		; CTList<CComQueueThread>::~CTList<CComQueueThread>, COMDAT
; _this$ = ecx

; 376  : {

  00000	55		 push	 ebp
  00001	8b ec		 mov	 ebp, esp
  00003	6a ff		 push	 -1
  00005	68 00 00 00 00	 push	 __ehhandler$??1?$CTList@VCComQueueThread@@@@QAE@XZ
  0000a	64 a1 00 00 00
	00		 mov	 eax, DWORD PTR fs:0
  00010	50		 push	 eax
  00011	83 ec 34	 sub	 esp, 52			; 00000034H
  00014	56		 push	 esi
  00015	57		 push	 edi
  00016	51		 push	 ecx
  00017	8d 7d c0	 lea	 edi, DWORD PTR [ebp-64]
  0001a	b9 0d 00 00 00	 mov	 ecx, 13			; 0000000dH
  0001f	b8 cc cc cc cc	 mov	 eax, -858993460		; ccccccccH
  00024	f3 ab		 rep stosd
  00026	59		 pop	 ecx
  00027	a1 00 00 00 00	 mov	 eax, DWORD PTR ___security_cookie
  0002c	33 c5		 xor	 eax, ebp
  0002e	89 45 f0	 mov	 DWORD PTR __$ArrayPad$[ebp], eax
  00031	50		 push	 eax
  00032	8d 45 f4	 lea	 eax, DWORD PTR __$EHRec$[ebp]
  00035	64 a3 00 00 00
	00		 mov	 DWORD PTR fs:0, eax
  0003b	89 4d ec	 mov	 DWORD PTR _this$[ebp], ecx

; 377  : 	if (!m_pArray) return;

  0003e	8b 45 ec	 mov	 eax, DWORD PTR _this$[ebp]
  00041	83 38 00	 cmp	 DWORD PTR [eax], 0
  00044	75 05		 jne	 SHORT $LN6@CTList
  00046	e9 31 01 00 00	 jmp	 $LN15@CTList
$LN6@CTList:

; 378  : 
; 379  : 	if (ISABLETODELETE(m_nObjAllocType)) {

  0004b	8b 4d ec	 mov	 ecx, DWORD PTR _this$[ebp]
  0004e	8b 51 14	 mov	 edx, DWORD PTR [ecx+20]
  00051	52		 push	 edx
  00052	e8 00 00 00 00	 call	 ?ISABLETODELETE@@YA_NW4E_ALLOC_TYPE@@@Z ; ISABLETODELETE
  00057	83 c4 04	 add	 esp, 4
  0005a	0f b6 c0	 movzx	 eax, al
  0005d	85 c0		 test	 eax, eax
  0005f	0f 84 ee 00 00
	00		 je	 $LN7@CTList

; 380  : 		int idx = 0;

  00065	c7 45 e4 00 00
	00 00		 mov	 DWORD PTR _idx$7[ebp], 0

; 381  : 		T *p = getNext(&idx);

  0006c	8d 4d e4	 lea	 ecx, DWORD PTR _idx$7[ebp]
  0006f	51		 push	 ecx
  00070	8b 4d ec	 mov	 ecx, DWORD PTR _this$[ebp]
  00073	e8 00 00 00 00	 call	 ?getNext@?$CTList@VCComQueueThread@@@@QAEPAVCComQueueThread@@PAH@Z ; CTList<CComQueueThread>::getNext
  00078	89 45 dc	 mov	 DWORD PTR _p$6[ebp], eax
$LN2@CTList:

; 382  : 		while (p) {

  0007b	83 7d dc 00	 cmp	 DWORD PTR _p$6[ebp], 0
  0007f	0f 84 ce 00 00
	00		 je	 $LN7@CTList

; 383  : 			idx++;

  00085	8b 55 e4	 mov	 edx, DWORD PTR _idx$7[ebp]
  00088	83 c2 01	 add	 edx, 1
  0008b	89 55 e4	 mov	 DWORD PTR _idx$7[ebp], edx

; 384  : 			switch (m_nObjAllocType) {

  0008e	8b 45 ec	 mov	 eax, DWORD PTR _this$[ebp]
  00091	8b 48 14	 mov	 ecx, DWORD PTR [eax+20]
  00094	89 4d c8	 mov	 DWORD PTR tv77[ebp], ecx
  00097	8b 55 c8	 mov	 edx, DWORD PTR tv77[ebp]
  0009a	83 ea 02	 sub	 edx, 2
  0009d	89 55 c8	 mov	 DWORD PTR tv77[ebp], edx
  000a0	83 7d c8 03	 cmp	 DWORD PTR tv77[ebp], 3
  000a4	0f 87 95 00 00
	00		 ja	 $LN4@CTList
  000aa	8b 45 c8	 mov	 eax, DWORD PTR tv77[ebp]
  000ad	ff 24 85 00 00
	00 00		 jmp	 DWORD PTR $LN24@CTList[eax*4]
$LN8@CTList:

; 385  : 				case eAlloc_Type_new		:	delete p; break;

  000b4	8b 4d dc	 mov	 ecx, DWORD PTR _p$6[ebp]
  000b7	89 4d d4	 mov	 DWORD PTR $T4[ebp], ecx
  000ba	8b 55 d4	 mov	 edx, DWORD PTR $T4[ebp]
  000bd	89 55 d8	 mov	 DWORD PTR $T5[ebp], edx
  000c0	83 7d d8 00	 cmp	 DWORD PTR $T5[ebp], 0
  000c4	74 0f		 je	 SHORT $LN16@CTList
  000c6	6a 01		 push	 1
  000c8	8b 4d d8	 mov	 ecx, DWORD PTR $T5[ebp]
  000cb	e8 00 00 00 00	 call	 ??_GCComQueueThread@@QAEPAXI@Z
  000d0	89 45 c4	 mov	 DWORD PTR tv82[ebp], eax
  000d3	eb 07		 jmp	 SHORT $LN17@CTList
$LN16@CTList:
  000d5	c7 45 c4 00 00
	00 00		 mov	 DWORD PTR tv82[ebp], 0
$LN17@CTList:
  000dc	eb 61		 jmp	 SHORT $LN4@CTList
$LN9@CTList:

; 386  : 				case eAlloc_Type_alloc		:	free(p); break;

  000de	8b f4		 mov	 esi, esp
  000e0	8b 45 dc	 mov	 eax, DWORD PTR _p$6[ebp]
  000e3	50		 push	 eax
  000e4	ff 15 00 00 00
	00		 call	 DWORD PTR __imp__free
  000ea	83 c4 04	 add	 esp, 4
  000ed	3b f4		 cmp	 esi, esp
  000ef	e8 00 00 00 00	 call	 __RTC_CheckEsp
  000f4	eb 49		 jmp	 SHORT $LN4@CTList
$LN10@CTList:

; 387  : 				case eAlloc_Type_BufPool	:	gs_pMMgr->delBuf((char *)p, STRING_SIZE((TCHAR *)p)); break;

  000f6	8b 4d dc	 mov	 ecx, DWORD PTR _p$6[ebp]
  000f9	51		 push	 ecx
  000fa	e8 00 00 00 00	 call	 _strlen
  000ff	83 c4 04	 add	 esp, 4
  00102	83 c0 01	 add	 eax, 1
  00105	50		 push	 eax
  00106	8b 55 dc	 mov	 edx, DWORD PTR _p$6[ebp]
  00109	52		 push	 edx
  0010a	8b 0d 00 00 00
	00		 mov	 ecx, DWORD PTR ?gs_pMMgr@@3PAVCMemManager@@A ; gs_pMMgr
  00110	e8 00 00 00 00	 call	 ?delBuf@CMemManager@@QAEXPADH@Z ; CMemManager::delBuf
  00115	eb 28		 jmp	 SHORT $LN4@CTList
$LN11@CTList:

; 388  : 				case eAlloc_Type_newArray	:	delete[] p; break;

  00117	8b 45 dc	 mov	 eax, DWORD PTR _p$6[ebp]
  0011a	89 45 cc	 mov	 DWORD PTR $T2[ebp], eax
  0011d	8b 4d cc	 mov	 ecx, DWORD PTR $T2[ebp]
  00120	89 4d d0	 mov	 DWORD PTR $T3[ebp], ecx
  00123	83 7d d0 00	 cmp	 DWORD PTR $T3[ebp], 0
  00127	74 0f		 je	 SHORT $LN18@CTList
  00129	6a 03		 push	 3
  0012b	8b 4d d0	 mov	 ecx, DWORD PTR $T3[ebp]
  0012e	e8 00 00 00 00	 call	 ??_ECComQueueThread@@QAEPAXI@Z
  00133	89 45 c0	 mov	 DWORD PTR tv94[ebp], eax
  00136	eb 07		 jmp	 SHORT $LN4@CTList
$LN18@CTList:
  00138	c7 45 c0 00 00
	00 00		 mov	 DWORD PTR tv94[ebp], 0
$LN4@CTList:

; 389  : 				case eAlloc_Type_none		:	break;
; 390  : 				case eAlloc_Type_MemPool	:	break;
; 391  : 			}
; 392  : 			p = getNext(&idx);

  0013f	8d 55 e4	 lea	 edx, DWORD PTR _idx$7[ebp]
  00142	52		 push	 edx
  00143	8b 4d ec	 mov	 ecx, DWORD PTR _this$[ebp]
  00146	e8 00 00 00 00	 call	 ?getNext@?$CTList@VCComQueueThread@@@@QAEPAVCComQueueThread@@PAH@Z ; CTList<CComQueueThread>::getNext
  0014b	89 45 dc	 mov	 DWORD PTR _p$6[ebp], eax

; 393  : 		}

  0014e	e9 28 ff ff ff	 jmp	 $LN2@CTList
$LN7@CTList:

; 394  : 	}
; 395  : 
; 396  : 	if (m_pArray)	free(m_pArray);

  00153	8b 45 ec	 mov	 eax, DWORD PTR _this$[ebp]
  00156	83 38 00	 cmp	 DWORD PTR [eax], 0
  00159	74 18		 je	 SHORT $LN14@CTList
  0015b	8b f4		 mov	 esi, esp
  0015d	8b 4d ec	 mov	 ecx, DWORD PTR _this$[ebp]
  00160	8b 11		 mov	 edx, DWORD PTR [ecx]
  00162	52		 push	 edx
  00163	ff 15 00 00 00
	00		 call	 DWORD PTR __imp__free
  00169	83 c4 04	 add	 esp, 4
  0016c	3b f4		 cmp	 esi, esp
  0016e	e8 00 00 00 00	 call	 __RTC_CheckEsp
$LN14@CTList:

; 397  : 	m_pArray = 0;

  00173	8b 45 ec	 mov	 eax, DWORD PTR _this$[ebp]
  00176	c7 00 00 00 00
	00		 mov	 DWORD PTR [eax], 0
$LN15@CTList:

; 398  : }

  0017c	52		 push	 edx
  0017d	8b cd		 mov	 ecx, ebp
  0017f	50		 push	 eax
  00180	8d 15 00 00 00
	00		 lea	 edx, DWORD PTR $LN23@CTList
  00186	e8 00 00 00 00	 call	 @_RTC_CheckStackVars@8
  0018b	58		 pop	 eax
  0018c	5a		 pop	 edx
  0018d	8b 4d f4	 mov	 ecx, DWORD PTR __$EHRec$[ebp]
  00190	64 89 0d 00 00
	00 00		 mov	 DWORD PTR fs:0, ecx
  00197	59		 pop	 ecx
  00198	5f		 pop	 edi
  00199	5e		 pop	 esi
  0019a	8b 4d f0	 mov	 ecx, DWORD PTR __$ArrayPad$[ebp]
  0019d	33 cd		 xor	 ecx, ebp
  0019f	e8 00 00 00 00	 call	 @__security_check_cookie@4
  001a4	83 c4 40	 add	 esp, 64			; 00000040H
  001a7	3b ec		 cmp	 ebp, esp
  001a9	e8 00 00 00 00	 call	 __RTC_CheckEsp
  001ae	8b e5		 mov	 esp, ebp
  001b0	5d		 pop	 ebp
  001b1	c3		 ret	 0
  001b2	66 90		 npad	 2
$LN23@CTList:
  001b4	01 00 00 00	 DD	 1
  001b8	00 00 00 00	 DD	 $LN22@CTList
$LN22@CTList:
  001bc	e4 ff ff ff	 DD	 -28			; ffffffe4H
  001c0	04 00 00 00	 DD	 4
  001c4	00 00 00 00	 DD	 $LN20@CTList
$LN20@CTList:
  001c8	69		 DB	 105			; 00000069H
  001c9	64		 DB	 100			; 00000064H
  001ca	78		 DB	 120			; 00000078H
  001cb	00		 DB	 0
$LN24@CTList:
  001cc	00 00 00 00	 DD	 $LN8@CTList
  001d0	00 00 00 00	 DD	 $LN9@CTList
  001d4	00 00 00 00	 DD	 $LN10@CTList
  001d8	00 00 00 00	 DD	 $LN11@CTList
_TEXT	ENDS
;	COMDAT text$x
text$x	SEGMENT
__ehhandler$??1?$CTList@VCComQueueThread@@@@QAE@XZ:
  00000	8b 54 24 08	 mov	 edx, DWORD PTR [esp+8]
  00004	8d 42 0c	 lea	 eax, DWORD PTR [edx+12]
  00007	8b 4a c0	 mov	 ecx, DWORD PTR [edx-64]
  0000a	33 c8		 xor	 ecx, eax
  0000c	e8 00 00 00 00	 call	 @__security_check_cookie@4
  00011	8b 4a fc	 mov	 ecx, DWORD PTR [edx-4]
  00014	33 c8		 xor	 ecx, eax
  00016	e8 00 00 00 00	 call	 @__security_check_cookie@4
  0001b	b8 00 00 00 00	 mov	 eax, OFFSET __ehfuncinfo$??1?$CTList@VCComQueueThread@@@@QAE@XZ
  00020	e9 00 00 00 00	 jmp	 ___CxxFrameHandler3
text$x	ENDS
??1?$CTList@VCComQueueThread@@@@QAE@XZ ENDP		; CTList<CComQueueThread>::~CTList<CComQueueThread>
; Function compile flags: /Odtp /RTCsu
; File e:\infinia-library-3.0\com\include\comtlist.h
;	COMDAT ??0?$CTList@VCComQueueThread@@@@QAE@XZ
_TEXT	SEGMENT
_this$ = -4						; size = 4
??0?$CTList@VCComQueueThread@@@@QAE@XZ PROC		; CTList<CComQueueThread>::CTList<CComQueueThread>, COMDAT
; _this$ = ecx

; 365  : {

  00000	55		 push	 ebp
  00001	8b ec		 mov	 ebp, esp
  00003	51		 push	 ecx
  00004	c7 45 fc cc cc
	cc cc		 mov	 DWORD PTR [ebp-4], -858993460 ; ccccccccH
  0000b	89 4d fc	 mov	 DWORD PTR _this$[ebp], ecx

; 366  : 	m_pArray = NULL;

  0000e	8b 45 fc	 mov	 eax, DWORD PTR _this$[ebp]
  00011	c7 00 00 00 00
	00		 mov	 DWORD PTR [eax], 0

; 367  : 	m_nUse = 0;

  00017	8b 4d fc	 mov	 ecx, DWORD PTR _this$[ebp]
  0001a	c7 41 04 00 00
	00 00		 mov	 DWORD PTR [ecx+4], 0

; 368  : 	m_nLast = 0;

  00021	8b 55 fc	 mov	 edx, DWORD PTR _this$[ebp]
  00024	c7 42 08 00 00
	00 00		 mov	 DWORD PTR [edx+8], 0

; 369  : 	m_nDelIdx = 0;

  0002b	8b 45 fc	 mov	 eax, DWORD PTR _this$[ebp]
  0002e	c7 40 0c 00 00
	00 00		 mov	 DWORD PTR [eax+12], 0

; 370  : 	m_nMax = 0;

  00035	8b 4d fc	 mov	 ecx, DWORD PTR _this$[ebp]
  00038	c7 41 10 00 00
	00 00		 mov	 DWORD PTR [ecx+16], 0

; 371  : 	m_nObjAllocType = eAlloc_Type_none;

  0003f	8b 55 fc	 mov	 edx, DWORD PTR _this$[ebp]
  00042	c7 42 14 00 00
	00 00		 mov	 DWORD PTR [edx+20], 0

; 372  : }

  00049	8b 45 fc	 mov	 eax, DWORD PTR _this$[ebp]
  0004c	8b e5		 mov	 esp, ebp
  0004e	5d		 pop	 ebp
  0004f	c3		 ret	 0
??0?$CTList@VCComQueueThread@@@@QAE@XZ ENDP		; CTList<CComQueueThread>::CTList<CComQueueThread>
_TEXT	ENDS
; Function compile flags: /Odtp /RTCsu
;	COMDAT ??_G?$CTList@VCComThread@@@@QAEPAXI@Z
_TEXT	SEGMENT
_this$ = -4						; size = 4
___flags$ = 8						; size = 4
??_G?$CTList@VCComThread@@@@QAEPAXI@Z PROC		; CTList<CComThread>::`scalar deleting destructor', COMDAT
; _this$ = ecx
  00000	55		 push	 ebp
  00001	8b ec		 mov	 ebp, esp
  00003	51		 push	 ecx
  00004	c7 45 fc cc cc
	cc cc		 mov	 DWORD PTR [ebp-4], -858993460 ; ccccccccH
  0000b	89 4d fc	 mov	 DWORD PTR _this$[ebp], ecx
  0000e	8b 4d fc	 mov	 ecx, DWORD PTR _this$[ebp]
  00011	e8 00 00 00 00	 call	 ??1?$CTList@VCComThread@@@@QAE@XZ ; CTList<CComThread>::~CTList<CComThread>
  00016	8b 45 08	 mov	 eax, DWORD PTR ___flags$[ebp]
  00019	83 e0 01	 and	 eax, 1
  0001c	74 0e		 je	 SHORT $LN2@scalar
  0001e	6a 18		 push	 24			; 00000018H
  00020	8b 4d fc	 mov	 ecx, DWORD PTR _this$[ebp]
  00023	51		 push	 ecx
  00024	e8 00 00 00 00	 call	 ??3@YAXPAXI@Z		; operator delete
  00029	83 c4 08	 add	 esp, 8
$LN2@scalar:
  0002c	8b 45 fc	 mov	 eax, DWORD PTR _this$[ebp]
  0002f	83 c4 04	 add	 esp, 4
  00032	3b ec		 cmp	 ebp, esp
  00034	e8 00 00 00 00	 call	 __RTC_CheckEsp
  00039	8b e5		 mov	 esp, ebp
  0003b	5d		 pop	 ebp
  0003c	c2 04 00	 ret	 4
??_G?$CTList@VCComThread@@@@QAEPAXI@Z ENDP		; CTList<CComThread>::`scalar deleting destructor'
_TEXT	ENDS
; Function compile flags: /Odtp /RTCsu
;	COMDAT ?__autoclassinit2@?$CTList@VCComThread@@@@QAEXI@Z
_TEXT	SEGMENT
_this$ = -4						; size = 4
_classSize$ = 8						; size = 4
?__autoclassinit2@?$CTList@VCComThread@@@@QAEXI@Z PROC	; CTList<CComThread>::__autoclassinit2, COMDAT
; _this$ = ecx
  00000	55		 push	 ebp
  00001	8b ec		 mov	 ebp, esp
  00003	51		 push	 ecx
  00004	c7 45 fc cc cc
	cc cc		 mov	 DWORD PTR [ebp-4], -858993460 ; ccccccccH
  0000b	89 4d fc	 mov	 DWORD PTR _this$[ebp], ecx
  0000e	8b 45 08	 mov	 eax, DWORD PTR _classSize$[ebp]
  00011	50		 push	 eax
  00012	6a 00		 push	 0
  00014	8b 4d fc	 mov	 ecx, DWORD PTR _this$[ebp]
  00017	51		 push	 ecx
  00018	e8 00 00 00 00	 call	 _memset
  0001d	83 c4 0c	 add	 esp, 12			; 0000000cH
  00020	83 c4 04	 add	 esp, 4
  00023	3b ec		 cmp	 ebp, esp
  00025	e8 00 00 00 00	 call	 __RTC_CheckEsp
  0002a	8b e5		 mov	 esp, ebp
  0002c	5d		 pop	 ebp
  0002d	c2 04 00	 ret	 4
?__autoclassinit2@?$CTList@VCComThread@@@@QAEXI@Z ENDP	; CTList<CComThread>::__autoclassinit2
_TEXT	ENDS
; Function compile flags: /Odtp /RTCsu
; File e:\infinia-library-3.0\com\include\comtlist.h
;	COMDAT ?_DEL@?$CTList@VCComThread@@@@AAEXH@Z
_TEXT	SEGMENT
_this$ = -4						; size = 4
_i$ = 8							; size = 4
?_DEL@?$CTList@VCComThread@@@@AAEXH@Z PROC		; CTList<CComThread>::_DEL, COMDAT
; _this$ = ecx

; 360  : 	inline void _DEL(int i) { m_pArray[i] = 0; m_nUse--; m_nDelIdx = i; }

  00000	55		 push	 ebp
  00001	8b ec		 mov	 ebp, esp
  00003	51		 push	 ecx
  00004	c7 45 fc cc cc
	cc cc		 mov	 DWORD PTR [ebp-4], -858993460 ; ccccccccH
  0000b	89 4d fc	 mov	 DWORD PTR _this$[ebp], ecx
  0000e	8b 45 fc	 mov	 eax, DWORD PTR _this$[ebp]
  00011	8b 08		 mov	 ecx, DWORD PTR [eax]
  00013	8b 55 08	 mov	 edx, DWORD PTR _i$[ebp]
  00016	c7 04 91 00 00
	00 00		 mov	 DWORD PTR [ecx+edx*4], 0
  0001d	8b 45 fc	 mov	 eax, DWORD PTR _this$[ebp]
  00020	8b 48 04	 mov	 ecx, DWORD PTR [eax+4]
  00023	83 e9 01	 sub	 ecx, 1
  00026	8b 55 fc	 mov	 edx, DWORD PTR _this$[ebp]
  00029	89 4a 04	 mov	 DWORD PTR [edx+4], ecx
  0002c	8b 45 fc	 mov	 eax, DWORD PTR _this$[ebp]
  0002f	8b 4d 08	 mov	 ecx, DWORD PTR _i$[ebp]
  00032	89 48 0c	 mov	 DWORD PTR [eax+12], ecx
  00035	8b e5		 mov	 esp, ebp
  00037	5d		 pop	 ebp
  00038	c2 04 00	 ret	 4
?_DEL@?$CTList@VCComThread@@@@AAEXH@Z ENDP		; CTList<CComThread>::_DEL
_TEXT	ENDS
; Function compile flags: /Odtp /RTCsu
; File e:\infinia-library-3.0\com\include\comtlist.h
;	COMDAT ?__alloc@?$CTList@VCComThread@@@@AAEHH@Z
_TEXT	SEGMENT
_pList$ = -8						; size = 4
_this$ = -4						; size = 4
_nMaxCount$ = 8						; size = 4
?__alloc@?$CTList@VCComThread@@@@AAEHH@Z PROC		; CTList<CComThread>::__alloc, COMDAT
; _this$ = ecx

; 402  : {

  00000	55		 push	 ebp
  00001	8b ec		 mov	 ebp, esp
  00003	83 ec 08	 sub	 esp, 8
  00006	56		 push	 esi
  00007	c7 45 f8 cc cc
	cc cc		 mov	 DWORD PTR [ebp-8], -858993460 ; ccccccccH
  0000e	c7 45 fc cc cc
	cc cc		 mov	 DWORD PTR [ebp-4], -858993460 ; ccccccccH
  00015	89 4d fc	 mov	 DWORD PTR _this$[ebp], ecx

; 403  : 	T** pList = (T**)calloc(nMaxCount, sizeof(T*));

  00018	8b f4		 mov	 esi, esp
  0001a	6a 04		 push	 4
  0001c	8b 45 08	 mov	 eax, DWORD PTR _nMaxCount$[ebp]
  0001f	50		 push	 eax
  00020	ff 15 00 00 00
	00		 call	 DWORD PTR __imp__calloc
  00026	83 c4 08	 add	 esp, 8
  00029	3b f4		 cmp	 esi, esp
  0002b	e8 00 00 00 00	 call	 __RTC_CheckEsp
  00030	89 45 f8	 mov	 DWORD PTR _pList$[ebp], eax

; 404  : 	if (!pList) {

  00033	83 7d f8 00	 cmp	 DWORD PTR _pList$[ebp], 0
  00037	75 16		 jne	 SHORT $LN2@alloc

; 405  : 		_stprintf(g_szMessage, "pList calloc is NULL");

  00039	68 00 00 00 00	 push	 OFFSET $SG47192
  0003e	68 00 00 00 00	 push	 OFFSET ?g_szMessage@@3PADA ; g_szMessage
  00043	e8 00 00 00 00	 call	 _sprintf
  00048	83 c4 08	 add	 esp, 8

; 406  : 		return 0;

  0004b	33 c0		 xor	 eax, eax
  0004d	eb 47		 jmp	 SHORT $LN1@alloc
$LN2@alloc:

; 407  : 	}
; 408  : 	//_stprintf(g_szMessage, _T("CTList::__alloc list m_nMaxCount[%d]"), nMaxCount);
; 409  : 	if (m_pArray) {

  0004f	8b 4d fc	 mov	 ecx, DWORD PTR _this$[ebp]
  00052	83 39 00	 cmp	 DWORD PTR [ecx], 0
  00055	74 34		 je	 SHORT $LN3@alloc

; 410  : 		memcpy(pList, m_pArray, m_nMax * sizeof(T*));

  00057	8b 55 fc	 mov	 edx, DWORD PTR _this$[ebp]
  0005a	8b 42 10	 mov	 eax, DWORD PTR [edx+16]
  0005d	c1 e0 02	 shl	 eax, 2
  00060	50		 push	 eax
  00061	8b 4d fc	 mov	 ecx, DWORD PTR _this$[ebp]
  00064	8b 11		 mov	 edx, DWORD PTR [ecx]
  00066	52		 push	 edx
  00067	8b 45 f8	 mov	 eax, DWORD PTR _pList$[ebp]
  0006a	50		 push	 eax
  0006b	e8 00 00 00 00	 call	 _memcpy
  00070	83 c4 0c	 add	 esp, 12			; 0000000cH

; 411  : 		free(m_pArray);

  00073	8b f4		 mov	 esi, esp
  00075	8b 4d fc	 mov	 ecx, DWORD PTR _this$[ebp]
  00078	8b 11		 mov	 edx, DWORD PTR [ecx]
  0007a	52		 push	 edx
  0007b	ff 15 00 00 00
	00		 call	 DWORD PTR __imp__free
  00081	83 c4 04	 add	 esp, 4
  00084	3b f4		 cmp	 esi, esp
  00086	e8 00 00 00 00	 call	 __RTC_CheckEsp
$LN3@alloc:

; 412  : 	}
; 413  : 	m_pArray = pList;

  0008b	8b 45 fc	 mov	 eax, DWORD PTR _this$[ebp]
  0008e	8b 4d f8	 mov	 ecx, DWORD PTR _pList$[ebp]
  00091	89 08		 mov	 DWORD PTR [eax], ecx

; 414  : 	return nMaxCount;

  00093	8b 45 08	 mov	 eax, DWORD PTR _nMaxCount$[ebp]
$LN1@alloc:

; 415  : }

  00096	5e		 pop	 esi
  00097	83 c4 08	 add	 esp, 8
  0009a	3b ec		 cmp	 ebp, esp
  0009c	e8 00 00 00 00	 call	 __RTC_CheckEsp
  000a1	8b e5		 mov	 esp, ebp
  000a3	5d		 pop	 ebp
  000a4	c2 04 00	 ret	 4
?__alloc@?$CTList@VCComThread@@@@AAEHH@Z ENDP		; CTList<CComThread>::__alloc
_TEXT	ENDS
; Function compile flags: /Odtp /RTCsu
; File e:\infinia-library-3.0\com\include\comtlist.h
;	COMDAT ?setObjAllocType@?$CTList@VCComThread@@@@QAEXW4E_ALLOC_TYPE@@@Z
_TEXT	SEGMENT
_this$ = -4						; size = 4
_type$ = 8						; size = 4
?setObjAllocType@?$CTList@VCComThread@@@@QAEXW4E_ALLOC_TYPE@@@Z PROC ; CTList<CComThread>::setObjAllocType, COMDAT
; _this$ = ecx

; 350  : 	inline void setObjAllocType(E_ALLOC_TYPE type) { m_nObjAllocType = type; }

  00000	55		 push	 ebp
  00001	8b ec		 mov	 ebp, esp
  00003	51		 push	 ecx
  00004	c7 45 fc cc cc
	cc cc		 mov	 DWORD PTR [ebp-4], -858993460 ; ccccccccH
  0000b	89 4d fc	 mov	 DWORD PTR _this$[ebp], ecx
  0000e	8b 45 fc	 mov	 eax, DWORD PTR _this$[ebp]
  00011	8b 4d 08	 mov	 ecx, DWORD PTR _type$[ebp]
  00014	89 48 14	 mov	 DWORD PTR [eax+20], ecx
  00017	8b e5		 mov	 esp, ebp
  00019	5d		 pop	 ebp
  0001a	c2 04 00	 ret	 4
?setObjAllocType@?$CTList@VCComThread@@@@QAEXW4E_ALLOC_TYPE@@@Z ENDP ; CTList<CComThread>::setObjAllocType
_TEXT	ENDS
; Function compile flags: /Odtp /RTCsu
; File e:\infinia-library-3.0\com\include\comtlist.h
;	COMDAT ?lastIdx@?$CTList@VCComThread@@@@QAEHXZ
_TEXT	SEGMENT
_this$ = -4						; size = 4
?lastIdx@?$CTList@VCComThread@@@@QAEHXZ PROC		; CTList<CComThread>::lastIdx, COMDAT
; _this$ = ecx

; 348  : 	inline int  lastIdx() { return m_nLast; }

  00000	55		 push	 ebp
  00001	8b ec		 mov	 ebp, esp
  00003	51		 push	 ecx
  00004	c7 45 fc cc cc
	cc cc		 mov	 DWORD PTR [ebp-4], -858993460 ; ccccccccH
  0000b	89 4d fc	 mov	 DWORD PTR _this$[ebp], ecx
  0000e	8b 45 fc	 mov	 eax, DWORD PTR _this$[ebp]
  00011	8b 40 08	 mov	 eax, DWORD PTR [eax+8]
  00014	8b e5		 mov	 esp, ebp
  00016	5d		 pop	 ebp
  00017	c3		 ret	 0
?lastIdx@?$CTList@VCComThread@@@@QAEHXZ ENDP		; CTList<CComThread>::lastIdx
_TEXT	ENDS
; Function compile flags: /Odtp /RTCsu
; File e:\infinia-library-3.0\com\include\comtlist.h
;	COMDAT ?size@?$CTList@VCComThread@@@@QAEHXZ
_TEXT	SEGMENT
_this$ = -4						; size = 4
?size@?$CTList@VCComThread@@@@QAEHXZ PROC		; CTList<CComThread>::size, COMDAT
; _this$ = ecx

; 347  : 	inline int  size() { return m_nUse; }

  00000	55		 push	 ebp
  00001	8b ec		 mov	 ebp, esp
  00003	51		 push	 ecx
  00004	c7 45 fc cc cc
	cc cc		 mov	 DWORD PTR [ebp-4], -858993460 ; ccccccccH
  0000b	89 4d fc	 mov	 DWORD PTR _this$[ebp], ecx
  0000e	8b 45 fc	 mov	 eax, DWORD PTR _this$[ebp]
  00011	8b 40 04	 mov	 eax, DWORD PTR [eax+4]
  00014	8b e5		 mov	 esp, ebp
  00016	5d		 pop	 ebp
  00017	c3		 ret	 0
?size@?$CTList@VCComThread@@@@QAEHXZ ENDP		; CTList<CComThread>::size
_TEXT	ENDS
; Function compile flags: /Odtp /RTCsu
; File e:\infinia-library-3.0\com\include\comtlist.h
;	COMDAT ?getNext@?$CTList@VCComThread@@@@QAEPAVCComThread@@PAH@Z
_TEXT	SEGMENT
_this$ = -4						; size = 4
_pIdx$ = 8						; size = 4
?getNext@?$CTList@VCComThread@@@@QAEPAVCComThread@@PAH@Z PROC ; CTList<CComThread>::getNext, COMDAT
; _this$ = ecx

; 334  : 	inline T* getNext(int *pIdx) {

  00000	55		 push	 ebp
  00001	8b ec		 mov	 ebp, esp
  00003	51		 push	 ecx
  00004	c7 45 fc cc cc
	cc cc		 mov	 DWORD PTR [ebp-4], -858993460 ; ccccccccH
  0000b	89 4d fc	 mov	 DWORD PTR _this$[ebp], ecx

; 335  : 		for (*pIdx; *pIdx < m_nMax; (*pIdx)++) {

  0000e	eb 0d		 jmp	 SHORT $LN4@getNext
$LN2@getNext:
  00010	8b 45 08	 mov	 eax, DWORD PTR _pIdx$[ebp]
  00013	8b 08		 mov	 ecx, DWORD PTR [eax]
  00015	83 c1 01	 add	 ecx, 1
  00018	8b 55 08	 mov	 edx, DWORD PTR _pIdx$[ebp]
  0001b	89 0a		 mov	 DWORD PTR [edx], ecx
$LN4@getNext:
  0001d	8b 45 08	 mov	 eax, DWORD PTR _pIdx$[ebp]
  00020	8b 4d fc	 mov	 ecx, DWORD PTR _this$[ebp]
  00023	8b 10		 mov	 edx, DWORD PTR [eax]
  00025	3b 51 10	 cmp	 edx, DWORD PTR [ecx+16]
  00028	7d 21		 jge	 SHORT $LN3@getNext

; 336  : 			if (m_pArray[*pIdx]) { return m_pArray[*pIdx]; }

  0002a	8b 45 08	 mov	 eax, DWORD PTR _pIdx$[ebp]
  0002d	8b 08		 mov	 ecx, DWORD PTR [eax]
  0002f	8b 55 fc	 mov	 edx, DWORD PTR _this$[ebp]
  00032	8b 02		 mov	 eax, DWORD PTR [edx]
  00034	83 3c 88 00	 cmp	 DWORD PTR [eax+ecx*4], 0
  00038	74 0f		 je	 SHORT $LN5@getNext
  0003a	8b 4d 08	 mov	 ecx, DWORD PTR _pIdx$[ebp]
  0003d	8b 11		 mov	 edx, DWORD PTR [ecx]
  0003f	8b 45 fc	 mov	 eax, DWORD PTR _this$[ebp]
  00042	8b 08		 mov	 ecx, DWORD PTR [eax]
  00044	8b 04 91	 mov	 eax, DWORD PTR [ecx+edx*4]
  00047	eb 04		 jmp	 SHORT $LN1@getNext
$LN5@getNext:

; 337  : 		}

  00049	eb c5		 jmp	 SHORT $LN2@getNext
$LN3@getNext:

; 338  : 		return NULL;

  0004b	33 c0		 xor	 eax, eax
$LN1@getNext:

; 339  : 	}

  0004d	8b e5		 mov	 esp, ebp
  0004f	5d		 pop	 ebp
  00050	c2 04 00	 ret	 4
?getNext@?$CTList@VCComThread@@@@QAEPAVCComThread@@PAH@Z ENDP ; CTList<CComThread>::getNext
_TEXT	ENDS
; Function compile flags: /Odtp /RTCsu
; File e:\infinia-library-3.0\com\include\comtlist.h
;	COMDAT ?getObj@?$CTList@VCComThread@@@@QAEPAVCComThread@@H@Z
_TEXT	SEGMENT
_this$ = -4						; size = 4
_i$ = 8							; size = 4
?getObj@?$CTList@VCComThread@@@@QAEPAVCComThread@@H@Z PROC ; CTList<CComThread>::getObj, COMDAT
; _this$ = ecx

; 332  : 	inline T* getObj(int i) { if (ISINCLUDE(i, m_nMax)) return m_pArray[i]; return NULL; }

  00000	55		 push	 ebp
  00001	8b ec		 mov	 ebp, esp
  00003	51		 push	 ecx
  00004	c7 45 fc cc cc
	cc cc		 mov	 DWORD PTR [ebp-4], -858993460 ; ccccccccH
  0000b	89 4d fc	 mov	 DWORD PTR _this$[ebp], ecx
  0000e	8b 45 fc	 mov	 eax, DWORD PTR _this$[ebp]
  00011	8b 48 10	 mov	 ecx, DWORD PTR [eax+16]
  00014	51		 push	 ecx
  00015	8b 55 08	 mov	 edx, DWORD PTR _i$[ebp]
  00018	52		 push	 edx
  00019	e8 00 00 00 00	 call	 ?ISINCLUDE@@YA_NHH@Z	; ISINCLUDE
  0001e	83 c4 08	 add	 esp, 8
  00021	0f b6 c0	 movzx	 eax, al
  00024	85 c0		 test	 eax, eax
  00026	74 0d		 je	 SHORT $LN2@getObj
  00028	8b 4d fc	 mov	 ecx, DWORD PTR _this$[ebp]
  0002b	8b 11		 mov	 edx, DWORD PTR [ecx]
  0002d	8b 45 08	 mov	 eax, DWORD PTR _i$[ebp]
  00030	8b 04 82	 mov	 eax, DWORD PTR [edx+eax*4]
  00033	eb 02		 jmp	 SHORT $LN1@getObj
$LN2@getObj:
  00035	33 c0		 xor	 eax, eax
$LN1@getObj:
  00037	83 c4 04	 add	 esp, 4
  0003a	3b ec		 cmp	 ebp, esp
  0003c	e8 00 00 00 00	 call	 __RTC_CheckEsp
  00041	8b e5		 mov	 esp, ebp
  00043	5d		 pop	 ebp
  00044	c2 04 00	 ret	 4
?getObj@?$CTList@VCComThread@@@@QAEPAVCComThread@@H@Z ENDP ; CTList<CComThread>::getObj
_TEXT	ENDS
; Function compile flags: /Odtp /RTCsu
; File e:\infinia-library-3.0\com\include\comtlist.h
;	COMDAT ?del@?$CTList@VCComThread@@@@QAE_NH@Z
_TEXT	SEGMENT
_this$ = -4						; size = 4
_i$ = 8							; size = 4
?del@?$CTList@VCComThread@@@@QAE_NH@Z PROC		; CTList<CComThread>::del, COMDAT
; _this$ = ecx

; 523  : {

  00000	55		 push	 ebp
  00001	8b ec		 mov	 ebp, esp
  00003	51		 push	 ecx
  00004	c7 45 fc cc cc
	cc cc		 mov	 DWORD PTR [ebp-4], -858993460 ; ccccccccH
  0000b	89 4d fc	 mov	 DWORD PTR _this$[ebp], ecx

; 524  : 	if (!ISINCLUDE(i, m_nMax)) {

  0000e	8b 45 fc	 mov	 eax, DWORD PTR _this$[ebp]
  00011	8b 48 10	 mov	 ecx, DWORD PTR [eax+16]
  00014	51		 push	 ecx
  00015	8b 55 08	 mov	 edx, DWORD PTR _i$[ebp]
  00018	52		 push	 edx
  00019	e8 00 00 00 00	 call	 ?ISINCLUDE@@YA_NHH@Z	; ISINCLUDE
  0001e	83 c4 08	 add	 esp, 8
  00021	0f b6 c0	 movzx	 eax, al
  00024	85 c0		 test	 eax, eax
  00026	75 21		 jne	 SHORT $LN2@del

; 525  : 		_stprintf(g_szMessage, "i[%d] m_nMax[%d]", i, m_nMax);

  00028	8b 4d fc	 mov	 ecx, DWORD PTR _this$[ebp]
  0002b	8b 51 10	 mov	 edx, DWORD PTR [ecx+16]
  0002e	52		 push	 edx
  0002f	8b 45 08	 mov	 eax, DWORD PTR _i$[ebp]
  00032	50		 push	 eax
  00033	68 00 00 00 00	 push	 OFFSET $SG47181
  00038	68 00 00 00 00	 push	 OFFSET ?g_szMessage@@3PADA ; g_szMessage
  0003d	e8 00 00 00 00	 call	 _sprintf
  00042	83 c4 10	 add	 esp, 16			; 00000010H

; 526  : 		return false;

  00045	32 c0		 xor	 al, al
  00047	eb 0e		 jmp	 SHORT $LN1@del
$LN2@del:

; 527  : 	}
; 528  : 	_DEL(i);

  00049	8b 4d 08	 mov	 ecx, DWORD PTR _i$[ebp]
  0004c	51		 push	 ecx
  0004d	8b 4d fc	 mov	 ecx, DWORD PTR _this$[ebp]
  00050	e8 00 00 00 00	 call	 ?_DEL@?$CTList@VCComThread@@@@AAEXH@Z ; CTList<CComThread>::_DEL

; 529  : 	//_stprintf(g_szMessage, _T("CMemList::del i[%d] m_nLast[%d] m_nCurCount[%d]"), i, m_nLast, m_nUse);
; 530  : 	return true;

  00055	b0 01		 mov	 al, 1
$LN1@del:

; 531  : }

  00057	83 c4 04	 add	 esp, 4
  0005a	3b ec		 cmp	 ebp, esp
  0005c	e8 00 00 00 00	 call	 __RTC_CheckEsp
  00061	8b e5		 mov	 esp, ebp
  00063	5d		 pop	 ebp
  00064	c2 04 00	 ret	 4
?del@?$CTList@VCComThread@@@@QAE_NH@Z ENDP		; CTList<CComThread>::del
_TEXT	ENDS
; Function compile flags: /Odtp /RTCsu
; File e:\infinia-library-3.0\com\include\comtlist.h
;	COMDAT ?push_back@?$CTList@VCComThread@@@@QAE_NPAVCComThread@@PAH@Z
_TEXT	SEGMENT
_i$ = -12						; size = 4
_nIdx$ = -8						; size = 4
_this$ = -4						; size = 4
_Obj$ = 8						; size = 4
_pIdx$ = 12						; size = 4
?push_back@?$CTList@VCComThread@@@@QAE_NPAVCComThread@@PAH@Z PROC ; CTList<CComThread>::push_back, COMDAT
; _this$ = ecx

; 472  : {

  00000	55		 push	 ebp
  00001	8b ec		 mov	 ebp, esp
  00003	83 ec 0c	 sub	 esp, 12			; 0000000cH
  00006	c7 45 f4 cc cc
	cc cc		 mov	 DWORD PTR [ebp-12], -858993460 ; ccccccccH
  0000d	c7 45 f8 cc cc
	cc cc		 mov	 DWORD PTR [ebp-8], -858993460 ; ccccccccH
  00014	c7 45 fc cc cc
	cc cc		 mov	 DWORD PTR [ebp-4], -858993460 ; ccccccccH
  0001b	89 4d fc	 mov	 DWORD PTR _this$[ebp], ecx

; 473  : 	int nIdx, i;
; 474  : 
; 475  : 	if (m_nUse >= m_nMax) {

  0001e	8b 45 fc	 mov	 eax, DWORD PTR _this$[ebp]
  00021	8b 4d fc	 mov	 ecx, DWORD PTR _this$[ebp]
  00024	8b 50 04	 mov	 edx, DWORD PTR [eax+4]
  00027	3b 51 10	 cmp	 edx, DWORD PTR [ecx+16]
  0002a	7c 39		 jl	 SHORT $LN5@push_back

; 476  : 		if (!__alloc(m_nMax + TLIST_ADD_SIZE)) return false;

  0002c	8b 45 fc	 mov	 eax, DWORD PTR _this$[ebp]
  0002f	8b 48 10	 mov	 ecx, DWORD PTR [eax+16]
  00032	83 c1 40	 add	 ecx, 64			; 00000040H
  00035	51		 push	 ecx
  00036	8b 4d fc	 mov	 ecx, DWORD PTR _this$[ebp]
  00039	e8 00 00 00 00	 call	 ?__alloc@?$CTList@VCComThread@@@@AAEHH@Z ; CTList<CComThread>::__alloc
  0003e	85 c0		 test	 eax, eax
  00040	75 07		 jne	 SHORT $LN6@push_back
  00042	32 c0		 xor	 al, al
  00044	e9 cf 00 00 00	 jmp	 $LN1@push_back
$LN6@push_back:

; 477  : 		nIdx = m_nMax;

  00049	8b 55 fc	 mov	 edx, DWORD PTR _this$[ebp]
  0004c	8b 42 10	 mov	 eax, DWORD PTR [edx+16]
  0004f	89 45 f8	 mov	 DWORD PTR _nIdx$[ebp], eax

; 478  : 		m_nMax += TLIST_ADD_SIZE;

  00052	8b 4d fc	 mov	 ecx, DWORD PTR _this$[ebp]
  00055	8b 51 10	 mov	 edx, DWORD PTR [ecx+16]
  00058	83 c2 40	 add	 edx, 64			; 00000040H
  0005b	8b 45 fc	 mov	 eax, DWORD PTR _this$[ebp]
  0005e	89 50 10	 mov	 DWORD PTR [eax+16], edx

; 479  : 		goto ADD_SUCCESS;

  00061	eb 79		 jmp	 SHORT $ADD_SUCCESS$15
  00063	eb 77		 jmp	 SHORT $ADD_SUCCESS$15
$LN5@push_back:

; 480  : 	}
; 481  : 
; 482  : 	if (!m_pArray[m_nLast]) { nIdx = m_nLast;  goto ADD_SUCCESS; }

  00065	8b 4d fc	 mov	 ecx, DWORD PTR _this$[ebp]
  00068	8b 51 08	 mov	 edx, DWORD PTR [ecx+8]
  0006b	8b 45 fc	 mov	 eax, DWORD PTR _this$[ebp]
  0006e	8b 08		 mov	 ecx, DWORD PTR [eax]
  00070	83 3c 91 00	 cmp	 DWORD PTR [ecx+edx*4], 0
  00074	75 0d		 jne	 SHORT $LN8@push_back
  00076	8b 55 fc	 mov	 edx, DWORD PTR _this$[ebp]
  00079	8b 42 08	 mov	 eax, DWORD PTR [edx+8]
  0007c	89 45 f8	 mov	 DWORD PTR _nIdx$[ebp], eax
  0007f	eb 5b		 jmp	 SHORT $ADD_SUCCESS$15
  00081	eb 59		 jmp	 SHORT $ADD_SUCCESS$15
$LN8@push_back:

; 483  : 
; 484  : 	nIdx = m_nLast;

  00083	8b 4d fc	 mov	 ecx, DWORD PTR _this$[ebp]
  00086	8b 51 08	 mov	 edx, DWORD PTR [ecx+8]
  00089	89 55 f8	 mov	 DWORD PTR _nIdx$[ebp], edx

; 485  : 	for (i = 0; i < m_nMax; i++)

  0008c	c7 45 f4 00 00
	00 00		 mov	 DWORD PTR _i$[ebp], 0
  00093	eb 09		 jmp	 SHORT $LN4@push_back
$LN2@push_back:
  00095	8b 45 f4	 mov	 eax, DWORD PTR _i$[ebp]
  00098	83 c0 01	 add	 eax, 1
  0009b	89 45 f4	 mov	 DWORD PTR _i$[ebp], eax
$LN4@push_back:
  0009e	8b 4d fc	 mov	 ecx, DWORD PTR _this$[ebp]
  000a1	8b 55 f4	 mov	 edx, DWORD PTR _i$[ebp]
  000a4	3b 51 10	 cmp	 edx, DWORD PTR [ecx+16]
  000a7	7d 2f		 jge	 SHORT $LN3@push_back

; 486  : 	{
; 487  : 		if (nIdx >= m_nMax) nIdx = 0;

  000a9	8b 45 fc	 mov	 eax, DWORD PTR _this$[ebp]
  000ac	8b 4d f8	 mov	 ecx, DWORD PTR _nIdx$[ebp]
  000af	3b 48 10	 cmp	 ecx, DWORD PTR [eax+16]
  000b2	7c 07		 jl	 SHORT $LN10@push_back
  000b4	c7 45 f8 00 00
	00 00		 mov	 DWORD PTR _nIdx$[ebp], 0
$LN10@push_back:

; 488  : 		if (!m_pArray[nIdx]) {

  000bb	8b 55 fc	 mov	 edx, DWORD PTR _this$[ebp]
  000be	8b 02		 mov	 eax, DWORD PTR [edx]
  000c0	8b 4d f8	 mov	 ecx, DWORD PTR _nIdx$[ebp]
  000c3	83 3c 88 00	 cmp	 DWORD PTR [eax+ecx*4], 0
  000c7	75 04		 jne	 SHORT $LN11@push_back

; 489  : 			goto ADD_SUCCESS;

  000c9	eb 11		 jmp	 SHORT $ADD_SUCCESS$15
  000cb	eb 0f		 jmp	 SHORT $ADD_SUCCESS$15
$LN11@push_back:

; 490  : 		}
; 491  : 		nIdx++;

  000cd	8b 55 f8	 mov	 edx, DWORD PTR _nIdx$[ebp]
  000d0	83 c2 01	 add	 edx, 1
  000d3	89 55 f8	 mov	 DWORD PTR _nIdx$[ebp], edx

; 492  : 	}

  000d6	eb bd		 jmp	 SHORT $LN2@push_back
$LN3@push_back:

; 493  : 	//_stprintf(m_szMessage, _T("add FAIL! m_nLast[%d] m_nCurCount[%d] m_nMax[%d]"), m_nLast, m_nUse, m_nMax);
; 494  : 	return false;

  000d8	32 c0		 xor	 al, al
  000da	eb 3c		 jmp	 SHORT $LN1@push_back
$ADD_SUCCESS$15:

; 495  : 
; 496  : ADD_SUCCESS:
; 497  : 	m_nUse++;

  000dc	8b 45 fc	 mov	 eax, DWORD PTR _this$[ebp]
  000df	8b 48 04	 mov	 ecx, DWORD PTR [eax+4]
  000e2	83 c1 01	 add	 ecx, 1
  000e5	8b 55 fc	 mov	 edx, DWORD PTR _this$[ebp]
  000e8	89 4a 04	 mov	 DWORD PTR [edx+4], ecx

; 498  : 	m_pArray[nIdx] = Obj;

  000eb	8b 45 fc	 mov	 eax, DWORD PTR _this$[ebp]
  000ee	8b 08		 mov	 ecx, DWORD PTR [eax]
  000f0	8b 55 f8	 mov	 edx, DWORD PTR _nIdx$[ebp]
  000f3	8b 45 08	 mov	 eax, DWORD PTR _Obj$[ebp]
  000f6	89 04 91	 mov	 DWORD PTR [ecx+edx*4], eax

; 499  : 	m_nLast++;

  000f9	8b 4d fc	 mov	 ecx, DWORD PTR _this$[ebp]
  000fc	8b 51 08	 mov	 edx, DWORD PTR [ecx+8]
  000ff	83 c2 01	 add	 edx, 1
  00102	8b 45 fc	 mov	 eax, DWORD PTR _this$[ebp]
  00105	89 50 08	 mov	 DWORD PTR [eax+8], edx

; 500  : 	//_stprintf(g_szMessage, _T("CMemList::add i[%d] m_nLast[%d] m_nCurCount[%d]"), nIdx, m_nLast, m_nUse);
; 501  : 	if (pIdx) *pIdx = nIdx;

  00108	83 7d 0c 00	 cmp	 DWORD PTR _pIdx$[ebp], 0
  0010c	74 08		 je	 SHORT $LN13@push_back
  0010e	8b 4d 0c	 mov	 ecx, DWORD PTR _pIdx$[ebp]
  00111	8b 55 f8	 mov	 edx, DWORD PTR _nIdx$[ebp]
  00114	89 11		 mov	 DWORD PTR [ecx], edx
$LN13@push_back:

; 502  : 	return true;

  00116	b0 01		 mov	 al, 1
$LN1@push_back:

; 503  : }

  00118	83 c4 0c	 add	 esp, 12			; 0000000cH
  0011b	3b ec		 cmp	 ebp, esp
  0011d	e8 00 00 00 00	 call	 __RTC_CheckEsp
  00122	8b e5		 mov	 esp, ebp
  00124	5d		 pop	 ebp
  00125	c2 08 00	 ret	 8
?push_back@?$CTList@VCComThread@@@@QAE_NPAVCComThread@@PAH@Z ENDP ; CTList<CComThread>::push_back
_TEXT	ENDS
; Function compile flags: /Odtp /RTCsu
; File e:\infinia-library-3.0\com\include\comtlist.h
;	COMDAT ?alloc@?$CTList@VCComThread@@@@QAEHHW4E_ALLOC_TYPE@@@Z
_TEXT	SEGMENT
_this$ = -4						; size = 4
_nMaxCount$ = 8						; size = 4
_type$ = 12						; size = 4
?alloc@?$CTList@VCComThread@@@@QAEHHW4E_ALLOC_TYPE@@@Z PROC ; CTList<CComThread>::alloc, COMDAT
; _this$ = ecx

; 326  : 	int alloc(int nMaxCount, E_ALLOC_TYPE type = eAlloc_Type_new) { m_nObjAllocType = type;  m_nMax = __alloc(nMaxCount); return m_nMax; }

  00000	55		 push	 ebp
  00001	8b ec		 mov	 ebp, esp
  00003	51		 push	 ecx
  00004	c7 45 fc cc cc
	cc cc		 mov	 DWORD PTR [ebp-4], -858993460 ; ccccccccH
  0000b	89 4d fc	 mov	 DWORD PTR _this$[ebp], ecx
  0000e	8b 45 fc	 mov	 eax, DWORD PTR _this$[ebp]
  00011	8b 4d 0c	 mov	 ecx, DWORD PTR _type$[ebp]
  00014	89 48 14	 mov	 DWORD PTR [eax+20], ecx
  00017	8b 55 08	 mov	 edx, DWORD PTR _nMaxCount$[ebp]
  0001a	52		 push	 edx
  0001b	8b 4d fc	 mov	 ecx, DWORD PTR _this$[ebp]
  0001e	e8 00 00 00 00	 call	 ?__alloc@?$CTList@VCComThread@@@@AAEHH@Z ; CTList<CComThread>::__alloc
  00023	8b 4d fc	 mov	 ecx, DWORD PTR _this$[ebp]
  00026	89 41 10	 mov	 DWORD PTR [ecx+16], eax
  00029	8b 55 fc	 mov	 edx, DWORD PTR _this$[ebp]
  0002c	8b 42 10	 mov	 eax, DWORD PTR [edx+16]
  0002f	83 c4 04	 add	 esp, 4
  00032	3b ec		 cmp	 ebp, esp
  00034	e8 00 00 00 00	 call	 __RTC_CheckEsp
  00039	8b e5		 mov	 esp, ebp
  0003b	5d		 pop	 ebp
  0003c	c2 08 00	 ret	 8
?alloc@?$CTList@VCComThread@@@@QAEHHW4E_ALLOC_TYPE@@@Z ENDP ; CTList<CComThread>::alloc
_TEXT	ENDS
; Function compile flags: /Odtp /RTCsu
; File e:\infinia-library-3.0\com\include\comtlist.h
;	COMDAT ??1?$CTList@VCComThread@@@@QAE@XZ
_TEXT	SEGMENT
tv94 = -64						; size = 4
tv82 = -60						; size = 4
tv77 = -56						; size = 4
$T2 = -52						; size = 4
$T3 = -48						; size = 4
$T4 = -44						; size = 4
$T5 = -40						; size = 4
_p$6 = -36						; size = 4
_idx$7 = -28						; size = 4
_this$ = -20						; size = 4
__$ArrayPad$ = -16					; size = 4
__$EHRec$ = -12						; size = 12
??1?$CTList@VCComThread@@@@QAE@XZ PROC			; CTList<CComThread>::~CTList<CComThread>, COMDAT
; _this$ = ecx

; 376  : {

  00000	55		 push	 ebp
  00001	8b ec		 mov	 ebp, esp
  00003	6a ff		 push	 -1
  00005	68 00 00 00 00	 push	 __ehhandler$??1?$CTList@VCComThread@@@@QAE@XZ
  0000a	64 a1 00 00 00
	00		 mov	 eax, DWORD PTR fs:0
  00010	50		 push	 eax
  00011	83 ec 34	 sub	 esp, 52			; 00000034H
  00014	56		 push	 esi
  00015	57		 push	 edi
  00016	51		 push	 ecx
  00017	8d 7d c0	 lea	 edi, DWORD PTR [ebp-64]
  0001a	b9 0d 00 00 00	 mov	 ecx, 13			; 0000000dH
  0001f	b8 cc cc cc cc	 mov	 eax, -858993460		; ccccccccH
  00024	f3 ab		 rep stosd
  00026	59		 pop	 ecx
  00027	a1 00 00 00 00	 mov	 eax, DWORD PTR ___security_cookie
  0002c	33 c5		 xor	 eax, ebp
  0002e	89 45 f0	 mov	 DWORD PTR __$ArrayPad$[ebp], eax
  00031	50		 push	 eax
  00032	8d 45 f4	 lea	 eax, DWORD PTR __$EHRec$[ebp]
  00035	64 a3 00 00 00
	00		 mov	 DWORD PTR fs:0, eax
  0003b	89 4d ec	 mov	 DWORD PTR _this$[ebp], ecx

; 377  : 	if (!m_pArray) return;

  0003e	8b 45 ec	 mov	 eax, DWORD PTR _this$[ebp]
  00041	83 38 00	 cmp	 DWORD PTR [eax], 0
  00044	75 05		 jne	 SHORT $LN6@CTList
  00046	e9 31 01 00 00	 jmp	 $LN15@CTList
$LN6@CTList:

; 378  : 
; 379  : 	if (ISABLETODELETE(m_nObjAllocType)) {

  0004b	8b 4d ec	 mov	 ecx, DWORD PTR _this$[ebp]
  0004e	8b 51 14	 mov	 edx, DWORD PTR [ecx+20]
  00051	52		 push	 edx
  00052	e8 00 00 00 00	 call	 ?ISABLETODELETE@@YA_NW4E_ALLOC_TYPE@@@Z ; ISABLETODELETE
  00057	83 c4 04	 add	 esp, 4
  0005a	0f b6 c0	 movzx	 eax, al
  0005d	85 c0		 test	 eax, eax
  0005f	0f 84 ee 00 00
	00		 je	 $LN7@CTList

; 380  : 		int idx = 0;

  00065	c7 45 e4 00 00
	00 00		 mov	 DWORD PTR _idx$7[ebp], 0

; 381  : 		T *p = getNext(&idx);

  0006c	8d 4d e4	 lea	 ecx, DWORD PTR _idx$7[ebp]
  0006f	51		 push	 ecx
  00070	8b 4d ec	 mov	 ecx, DWORD PTR _this$[ebp]
  00073	e8 00 00 00 00	 call	 ?getNext@?$CTList@VCComThread@@@@QAEPAVCComThread@@PAH@Z ; CTList<CComThread>::getNext
  00078	89 45 dc	 mov	 DWORD PTR _p$6[ebp], eax
$LN2@CTList:

; 382  : 		while (p) {

  0007b	83 7d dc 00	 cmp	 DWORD PTR _p$6[ebp], 0
  0007f	0f 84 ce 00 00
	00		 je	 $LN7@CTList

; 383  : 			idx++;

  00085	8b 55 e4	 mov	 edx, DWORD PTR _idx$7[ebp]
  00088	83 c2 01	 add	 edx, 1
  0008b	89 55 e4	 mov	 DWORD PTR _idx$7[ebp], edx

; 384  : 			switch (m_nObjAllocType) {

  0008e	8b 45 ec	 mov	 eax, DWORD PTR _this$[ebp]
  00091	8b 48 14	 mov	 ecx, DWORD PTR [eax+20]
  00094	89 4d c8	 mov	 DWORD PTR tv77[ebp], ecx
  00097	8b 55 c8	 mov	 edx, DWORD PTR tv77[ebp]
  0009a	83 ea 02	 sub	 edx, 2
  0009d	89 55 c8	 mov	 DWORD PTR tv77[ebp], edx
  000a0	83 7d c8 03	 cmp	 DWORD PTR tv77[ebp], 3
  000a4	0f 87 95 00 00
	00		 ja	 $LN4@CTList
  000aa	8b 45 c8	 mov	 eax, DWORD PTR tv77[ebp]
  000ad	ff 24 85 00 00
	00 00		 jmp	 DWORD PTR $LN24@CTList[eax*4]
$LN8@CTList:

; 385  : 				case eAlloc_Type_new		:	delete p; break;

  000b4	8b 4d dc	 mov	 ecx, DWORD PTR _p$6[ebp]
  000b7	89 4d d4	 mov	 DWORD PTR $T4[ebp], ecx
  000ba	8b 55 d4	 mov	 edx, DWORD PTR $T4[ebp]
  000bd	89 55 d8	 mov	 DWORD PTR $T5[ebp], edx
  000c0	83 7d d8 00	 cmp	 DWORD PTR $T5[ebp], 0
  000c4	74 0f		 je	 SHORT $LN16@CTList
  000c6	6a 01		 push	 1
  000c8	8b 4d d8	 mov	 ecx, DWORD PTR $T5[ebp]
  000cb	e8 00 00 00 00	 call	 ??_GCComThread@@QAEPAXI@Z
  000d0	89 45 c4	 mov	 DWORD PTR tv82[ebp], eax
  000d3	eb 07		 jmp	 SHORT $LN17@CTList
$LN16@CTList:
  000d5	c7 45 c4 00 00
	00 00		 mov	 DWORD PTR tv82[ebp], 0
$LN17@CTList:
  000dc	eb 61		 jmp	 SHORT $LN4@CTList
$LN9@CTList:

; 386  : 				case eAlloc_Type_alloc		:	free(p); break;

  000de	8b f4		 mov	 esi, esp
  000e0	8b 45 dc	 mov	 eax, DWORD PTR _p$6[ebp]
  000e3	50		 push	 eax
  000e4	ff 15 00 00 00
	00		 call	 DWORD PTR __imp__free
  000ea	83 c4 04	 add	 esp, 4
  000ed	3b f4		 cmp	 esi, esp
  000ef	e8 00 00 00 00	 call	 __RTC_CheckEsp
  000f4	eb 49		 jmp	 SHORT $LN4@CTList
$LN10@CTList:

; 387  : 				case eAlloc_Type_BufPool	:	gs_pMMgr->delBuf((char *)p, STRING_SIZE((TCHAR *)p)); break;

  000f6	8b 4d dc	 mov	 ecx, DWORD PTR _p$6[ebp]
  000f9	51		 push	 ecx
  000fa	e8 00 00 00 00	 call	 _strlen
  000ff	83 c4 04	 add	 esp, 4
  00102	83 c0 01	 add	 eax, 1
  00105	50		 push	 eax
  00106	8b 55 dc	 mov	 edx, DWORD PTR _p$6[ebp]
  00109	52		 push	 edx
  0010a	8b 0d 00 00 00
	00		 mov	 ecx, DWORD PTR ?gs_pMMgr@@3PAVCMemManager@@A ; gs_pMMgr
  00110	e8 00 00 00 00	 call	 ?delBuf@CMemManager@@QAEXPADH@Z ; CMemManager::delBuf
  00115	eb 28		 jmp	 SHORT $LN4@CTList
$LN11@CTList:

; 388  : 				case eAlloc_Type_newArray	:	delete[] p; break;

  00117	8b 45 dc	 mov	 eax, DWORD PTR _p$6[ebp]
  0011a	89 45 cc	 mov	 DWORD PTR $T2[ebp], eax
  0011d	8b 4d cc	 mov	 ecx, DWORD PTR $T2[ebp]
  00120	89 4d d0	 mov	 DWORD PTR $T3[ebp], ecx
  00123	83 7d d0 00	 cmp	 DWORD PTR $T3[ebp], 0
  00127	74 0f		 je	 SHORT $LN18@CTList
  00129	6a 03		 push	 3
  0012b	8b 4d d0	 mov	 ecx, DWORD PTR $T3[ebp]
  0012e	e8 00 00 00 00	 call	 ??_ECComThread@@QAEPAXI@Z
  00133	89 45 c0	 mov	 DWORD PTR tv94[ebp], eax
  00136	eb 07		 jmp	 SHORT $LN4@CTList
$LN18@CTList:
  00138	c7 45 c0 00 00
	00 00		 mov	 DWORD PTR tv94[ebp], 0
$LN4@CTList:

; 389  : 				case eAlloc_Type_none		:	break;
; 390  : 				case eAlloc_Type_MemPool	:	break;
; 391  : 			}
; 392  : 			p = getNext(&idx);

  0013f	8d 55 e4	 lea	 edx, DWORD PTR _idx$7[ebp]
  00142	52		 push	 edx
  00143	8b 4d ec	 mov	 ecx, DWORD PTR _this$[ebp]
  00146	e8 00 00 00 00	 call	 ?getNext@?$CTList@VCComThread@@@@QAEPAVCComThread@@PAH@Z ; CTList<CComThread>::getNext
  0014b	89 45 dc	 mov	 DWORD PTR _p$6[ebp], eax

; 393  : 		}

  0014e	e9 28 ff ff ff	 jmp	 $LN2@CTList
$LN7@CTList:

; 394  : 	}
; 395  : 
; 396  : 	if (m_pArray)	free(m_pArray);

  00153	8b 45 ec	 mov	 eax, DWORD PTR _this$[ebp]
  00156	83 38 00	 cmp	 DWORD PTR [eax], 0
  00159	74 18		 je	 SHORT $LN14@CTList
  0015b	8b f4		 mov	 esi, esp
  0015d	8b 4d ec	 mov	 ecx, DWORD PTR _this$[ebp]
  00160	8b 11		 mov	 edx, DWORD PTR [ecx]
  00162	52		 push	 edx
  00163	ff 15 00 00 00
	00		 call	 DWORD PTR __imp__free
  00169	83 c4 04	 add	 esp, 4
  0016c	3b f4		 cmp	 esi, esp
  0016e	e8 00 00 00 00	 call	 __RTC_CheckEsp
$LN14@CTList:

; 397  : 	m_pArray = 0;

  00173	8b 45 ec	 mov	 eax, DWORD PTR _this$[ebp]
  00176	c7 00 00 00 00
	00		 mov	 DWORD PTR [eax], 0
$LN15@CTList:

; 398  : }

  0017c	52		 push	 edx
  0017d	8b cd		 mov	 ecx, ebp
  0017f	50		 push	 eax
  00180	8d 15 00 00 00
	00		 lea	 edx, DWORD PTR $LN23@CTList
  00186	e8 00 00 00 00	 call	 @_RTC_CheckStackVars@8
  0018b	58		 pop	 eax
  0018c	5a		 pop	 edx
  0018d	8b 4d f4	 mov	 ecx, DWORD PTR __$EHRec$[ebp]
  00190	64 89 0d 00 00
	00 00		 mov	 DWORD PTR fs:0, ecx
  00197	59		 pop	 ecx
  00198	5f		 pop	 edi
  00199	5e		 pop	 esi
  0019a	8b 4d f0	 mov	 ecx, DWORD PTR __$ArrayPad$[ebp]
  0019d	33 cd		 xor	 ecx, ebp
  0019f	e8 00 00 00 00	 call	 @__security_check_cookie@4
  001a4	83 c4 40	 add	 esp, 64			; 00000040H
  001a7	3b ec		 cmp	 ebp, esp
  001a9	e8 00 00 00 00	 call	 __RTC_CheckEsp
  001ae	8b e5		 mov	 esp, ebp
  001b0	5d		 pop	 ebp
  001b1	c3		 ret	 0
  001b2	66 90		 npad	 2
$LN23@CTList:
  001b4	01 00 00 00	 DD	 1
  001b8	00 00 00 00	 DD	 $LN22@CTList
$LN22@CTList:
  001bc	e4 ff ff ff	 DD	 -28			; ffffffe4H
  001c0	04 00 00 00	 DD	 4
  001c4	00 00 00 00	 DD	 $LN20@CTList
$LN20@CTList:
  001c8	69		 DB	 105			; 00000069H
  001c9	64		 DB	 100			; 00000064H
  001ca	78		 DB	 120			; 00000078H
  001cb	00		 DB	 0
$LN24@CTList:
  001cc	00 00 00 00	 DD	 $LN8@CTList
  001d0	00 00 00 00	 DD	 $LN9@CTList
  001d4	00 00 00 00	 DD	 $LN10@CTList
  001d8	00 00 00 00	 DD	 $LN11@CTList
_TEXT	ENDS
;	COMDAT text$x
text$x	SEGMENT
__ehhandler$??1?$CTList@VCComThread@@@@QAE@XZ:
  00000	8b 54 24 08	 mov	 edx, DWORD PTR [esp+8]
  00004	8d 42 0c	 lea	 eax, DWORD PTR [edx+12]
  00007	8b 4a c0	 mov	 ecx, DWORD PTR [edx-64]
  0000a	33 c8		 xor	 ecx, eax
  0000c	e8 00 00 00 00	 call	 @__security_check_cookie@4
  00011	8b 4a fc	 mov	 ecx, DWORD PTR [edx-4]
  00014	33 c8		 xor	 ecx, eax
  00016	e8 00 00 00 00	 call	 @__security_check_cookie@4
  0001b	b8 00 00 00 00	 mov	 eax, OFFSET __ehfuncinfo$??1?$CTList@VCComThread@@@@QAE@XZ
  00020	e9 00 00 00 00	 jmp	 ___CxxFrameHandler3
text$x	ENDS
??1?$CTList@VCComThread@@@@QAE@XZ ENDP			; CTList<CComThread>::~CTList<CComThread>
; Function compile flags: /Odtp /RTCsu
; File e:\infinia-library-3.0\com\include\comtlist.h
;	COMDAT ??0?$CTList@VCComThread@@@@QAE@XZ
_TEXT	SEGMENT
_this$ = -4						; size = 4
??0?$CTList@VCComThread@@@@QAE@XZ PROC			; CTList<CComThread>::CTList<CComThread>, COMDAT
; _this$ = ecx

; 365  : {

  00000	55		 push	 ebp
  00001	8b ec		 mov	 ebp, esp
  00003	51		 push	 ecx
  00004	c7 45 fc cc cc
	cc cc		 mov	 DWORD PTR [ebp-4], -858993460 ; ccccccccH
  0000b	89 4d fc	 mov	 DWORD PTR _this$[ebp], ecx

; 366  : 	m_pArray = NULL;

  0000e	8b 45 fc	 mov	 eax, DWORD PTR _this$[ebp]
  00011	c7 00 00 00 00
	00		 mov	 DWORD PTR [eax], 0

; 367  : 	m_nUse = 0;

  00017	8b 4d fc	 mov	 ecx, DWORD PTR _this$[ebp]
  0001a	c7 41 04 00 00
	00 00		 mov	 DWORD PTR [ecx+4], 0

; 368  : 	m_nLast = 0;

  00021	8b 55 fc	 mov	 edx, DWORD PTR _this$[ebp]
  00024	c7 42 08 00 00
	00 00		 mov	 DWORD PTR [edx+8], 0

; 369  : 	m_nDelIdx = 0;

  0002b	8b 45 fc	 mov	 eax, DWORD PTR _this$[ebp]
  0002e	c7 40 0c 00 00
	00 00		 mov	 DWORD PTR [eax+12], 0

; 370  : 	m_nMax = 0;

  00035	8b 4d fc	 mov	 ecx, DWORD PTR _this$[ebp]
  00038	c7 41 10 00 00
	00 00		 mov	 DWORD PTR [ecx+16], 0

; 371  : 	m_nObjAllocType = eAlloc_Type_none;

  0003f	8b 55 fc	 mov	 edx, DWORD PTR _this$[ebp]
  00042	c7 42 14 00 00
	00 00		 mov	 DWORD PTR [edx+20], 0

; 372  : }

  00049	8b 45 fc	 mov	 eax, DWORD PTR _this$[ebp]
  0004c	8b e5		 mov	 esp, ebp
  0004e	5d		 pop	 ebp
  0004f	c3		 ret	 0
??0?$CTList@VCComThread@@@@QAE@XZ ENDP			; CTList<CComThread>::CTList<CComThread>
_TEXT	ENDS
; Function compile flags: /Odtp /RTCsu
;	COMDAT ??_G?$CTList@VCScheduler@@@@QAEPAXI@Z
_TEXT	SEGMENT
_this$ = -4						; size = 4
___flags$ = 8						; size = 4
??_G?$CTList@VCScheduler@@@@QAEPAXI@Z PROC		; CTList<CScheduler>::`scalar deleting destructor', COMDAT
; _this$ = ecx
  00000	55		 push	 ebp
  00001	8b ec		 mov	 ebp, esp
  00003	51		 push	 ecx
  00004	c7 45 fc cc cc
	cc cc		 mov	 DWORD PTR [ebp-4], -858993460 ; ccccccccH
  0000b	89 4d fc	 mov	 DWORD PTR _this$[ebp], ecx
  0000e	8b 4d fc	 mov	 ecx, DWORD PTR _this$[ebp]
  00011	e8 00 00 00 00	 call	 ??1?$CTList@VCScheduler@@@@QAE@XZ ; CTList<CScheduler>::~CTList<CScheduler>
  00016	8b 45 08	 mov	 eax, DWORD PTR ___flags$[ebp]
  00019	83 e0 01	 and	 eax, 1
  0001c	74 0e		 je	 SHORT $LN2@scalar
  0001e	6a 18		 push	 24			; 00000018H
  00020	8b 4d fc	 mov	 ecx, DWORD PTR _this$[ebp]
  00023	51		 push	 ecx
  00024	e8 00 00 00 00	 call	 ??3@YAXPAXI@Z		; operator delete
  00029	83 c4 08	 add	 esp, 8
$LN2@scalar:
  0002c	8b 45 fc	 mov	 eax, DWORD PTR _this$[ebp]
  0002f	83 c4 04	 add	 esp, 4
  00032	3b ec		 cmp	 ebp, esp
  00034	e8 00 00 00 00	 call	 __RTC_CheckEsp
  00039	8b e5		 mov	 esp, ebp
  0003b	5d		 pop	 ebp
  0003c	c2 04 00	 ret	 4
??_G?$CTList@VCScheduler@@@@QAEPAXI@Z ENDP		; CTList<CScheduler>::`scalar deleting destructor'
_TEXT	ENDS
; Function compile flags: /Odtp /RTCsu
;	COMDAT ?__autoclassinit2@?$CTList@VCScheduler@@@@QAEXI@Z
_TEXT	SEGMENT
_this$ = -4						; size = 4
_classSize$ = 8						; size = 4
?__autoclassinit2@?$CTList@VCScheduler@@@@QAEXI@Z PROC	; CTList<CScheduler>::__autoclassinit2, COMDAT
; _this$ = ecx
  00000	55		 push	 ebp
  00001	8b ec		 mov	 ebp, esp
  00003	51		 push	 ecx
  00004	c7 45 fc cc cc
	cc cc		 mov	 DWORD PTR [ebp-4], -858993460 ; ccccccccH
  0000b	89 4d fc	 mov	 DWORD PTR _this$[ebp], ecx
  0000e	8b 45 08	 mov	 eax, DWORD PTR _classSize$[ebp]
  00011	50		 push	 eax
  00012	6a 00		 push	 0
  00014	8b 4d fc	 mov	 ecx, DWORD PTR _this$[ebp]
  00017	51		 push	 ecx
  00018	e8 00 00 00 00	 call	 _memset
  0001d	83 c4 0c	 add	 esp, 12			; 0000000cH
  00020	83 c4 04	 add	 esp, 4
  00023	3b ec		 cmp	 ebp, esp
  00025	e8 00 00 00 00	 call	 __RTC_CheckEsp
  0002a	8b e5		 mov	 esp, ebp
  0002c	5d		 pop	 ebp
  0002d	c2 04 00	 ret	 4
?__autoclassinit2@?$CTList@VCScheduler@@@@QAEXI@Z ENDP	; CTList<CScheduler>::__autoclassinit2
_TEXT	ENDS
; Function compile flags: /Odtp /RTCsu
; File e:\infinia-library-3.0\com\include\comtlist.h
;	COMDAT ?_DEL@?$CTList@VCScheduler@@@@AAEXH@Z
_TEXT	SEGMENT
_this$ = -4						; size = 4
_i$ = 8							; size = 4
?_DEL@?$CTList@VCScheduler@@@@AAEXH@Z PROC		; CTList<CScheduler>::_DEL, COMDAT
; _this$ = ecx

; 360  : 	inline void _DEL(int i) { m_pArray[i] = 0; m_nUse--; m_nDelIdx = i; }

  00000	55		 push	 ebp
  00001	8b ec		 mov	 ebp, esp
  00003	51		 push	 ecx
  00004	c7 45 fc cc cc
	cc cc		 mov	 DWORD PTR [ebp-4], -858993460 ; ccccccccH
  0000b	89 4d fc	 mov	 DWORD PTR _this$[ebp], ecx
  0000e	8b 45 fc	 mov	 eax, DWORD PTR _this$[ebp]
  00011	8b 08		 mov	 ecx, DWORD PTR [eax]
  00013	8b 55 08	 mov	 edx, DWORD PTR _i$[ebp]
  00016	c7 04 91 00 00
	00 00		 mov	 DWORD PTR [ecx+edx*4], 0
  0001d	8b 45 fc	 mov	 eax, DWORD PTR _this$[ebp]
  00020	8b 48 04	 mov	 ecx, DWORD PTR [eax+4]
  00023	83 e9 01	 sub	 ecx, 1
  00026	8b 55 fc	 mov	 edx, DWORD PTR _this$[ebp]
  00029	89 4a 04	 mov	 DWORD PTR [edx+4], ecx
  0002c	8b 45 fc	 mov	 eax, DWORD PTR _this$[ebp]
  0002f	8b 4d 08	 mov	 ecx, DWORD PTR _i$[ebp]
  00032	89 48 0c	 mov	 DWORD PTR [eax+12], ecx
  00035	8b e5		 mov	 esp, ebp
  00037	5d		 pop	 ebp
  00038	c2 04 00	 ret	 4
?_DEL@?$CTList@VCScheduler@@@@AAEXH@Z ENDP		; CTList<CScheduler>::_DEL
_TEXT	ENDS
; Function compile flags: /Odtp /RTCsu
; File e:\infinia-library-3.0\com\include\comtlist.h
;	COMDAT ?__alloc@?$CTList@VCScheduler@@@@AAEHH@Z
_TEXT	SEGMENT
_pList$ = -8						; size = 4
_this$ = -4						; size = 4
_nMaxCount$ = 8						; size = 4
?__alloc@?$CTList@VCScheduler@@@@AAEHH@Z PROC		; CTList<CScheduler>::__alloc, COMDAT
; _this$ = ecx

; 402  : {

  00000	55		 push	 ebp
  00001	8b ec		 mov	 ebp, esp
  00003	83 ec 08	 sub	 esp, 8
  00006	56		 push	 esi
  00007	c7 45 f8 cc cc
	cc cc		 mov	 DWORD PTR [ebp-8], -858993460 ; ccccccccH
  0000e	c7 45 fc cc cc
	cc cc		 mov	 DWORD PTR [ebp-4], -858993460 ; ccccccccH
  00015	89 4d fc	 mov	 DWORD PTR _this$[ebp], ecx

; 403  : 	T** pList = (T**)calloc(nMaxCount, sizeof(T*));

  00018	8b f4		 mov	 esi, esp
  0001a	6a 04		 push	 4
  0001c	8b 45 08	 mov	 eax, DWORD PTR _nMaxCount$[ebp]
  0001f	50		 push	 eax
  00020	ff 15 00 00 00
	00		 call	 DWORD PTR __imp__calloc
  00026	83 c4 08	 add	 esp, 8
  00029	3b f4		 cmp	 esi, esp
  0002b	e8 00 00 00 00	 call	 __RTC_CheckEsp
  00030	89 45 f8	 mov	 DWORD PTR _pList$[ebp], eax

; 404  : 	if (!pList) {

  00033	83 7d f8 00	 cmp	 DWORD PTR _pList$[ebp], 0
  00037	75 16		 jne	 SHORT $LN2@alloc

; 405  : 		_stprintf(g_szMessage, "pList calloc is NULL");

  00039	68 00 00 00 00	 push	 OFFSET $SG47121
  0003e	68 00 00 00 00	 push	 OFFSET ?g_szMessage@@3PADA ; g_szMessage
  00043	e8 00 00 00 00	 call	 _sprintf
  00048	83 c4 08	 add	 esp, 8

; 406  : 		return 0;

  0004b	33 c0		 xor	 eax, eax
  0004d	eb 47		 jmp	 SHORT $LN1@alloc
$LN2@alloc:

; 407  : 	}
; 408  : 	//_stprintf(g_szMessage, _T("CTList::__alloc list m_nMaxCount[%d]"), nMaxCount);
; 409  : 	if (m_pArray) {

  0004f	8b 4d fc	 mov	 ecx, DWORD PTR _this$[ebp]
  00052	83 39 00	 cmp	 DWORD PTR [ecx], 0
  00055	74 34		 je	 SHORT $LN3@alloc

; 410  : 		memcpy(pList, m_pArray, m_nMax * sizeof(T*));

  00057	8b 55 fc	 mov	 edx, DWORD PTR _this$[ebp]
  0005a	8b 42 10	 mov	 eax, DWORD PTR [edx+16]
  0005d	c1 e0 02	 shl	 eax, 2
  00060	50		 push	 eax
  00061	8b 4d fc	 mov	 ecx, DWORD PTR _this$[ebp]
  00064	8b 11		 mov	 edx, DWORD PTR [ecx]
  00066	52		 push	 edx
  00067	8b 45 f8	 mov	 eax, DWORD PTR _pList$[ebp]
  0006a	50		 push	 eax
  0006b	e8 00 00 00 00	 call	 _memcpy
  00070	83 c4 0c	 add	 esp, 12			; 0000000cH

; 411  : 		free(m_pArray);

  00073	8b f4		 mov	 esi, esp
  00075	8b 4d fc	 mov	 ecx, DWORD PTR _this$[ebp]
  00078	8b 11		 mov	 edx, DWORD PTR [ecx]
  0007a	52		 push	 edx
  0007b	ff 15 00 00 00
	00		 call	 DWORD PTR __imp__free
  00081	83 c4 04	 add	 esp, 4
  00084	3b f4		 cmp	 esi, esp
  00086	e8 00 00 00 00	 call	 __RTC_CheckEsp
$LN3@alloc:

; 412  : 	}
; 413  : 	m_pArray = pList;

  0008b	8b 45 fc	 mov	 eax, DWORD PTR _this$[ebp]
  0008e	8b 4d f8	 mov	 ecx, DWORD PTR _pList$[ebp]
  00091	89 08		 mov	 DWORD PTR [eax], ecx

; 414  : 	return nMaxCount;

  00093	8b 45 08	 mov	 eax, DWORD PTR _nMaxCount$[ebp]
$LN1@alloc:

; 415  : }

  00096	5e		 pop	 esi
  00097	83 c4 08	 add	 esp, 8
  0009a	3b ec		 cmp	 ebp, esp
  0009c	e8 00 00 00 00	 call	 __RTC_CheckEsp
  000a1	8b e5		 mov	 esp, ebp
  000a3	5d		 pop	 ebp
  000a4	c2 04 00	 ret	 4
?__alloc@?$CTList@VCScheduler@@@@AAEHH@Z ENDP		; CTList<CScheduler>::__alloc
_TEXT	ENDS
; Function compile flags: /Odtp /RTCsu
; File e:\infinia-library-3.0\com\include\comtlist.h
;	COMDAT ?setObjAllocType@?$CTList@VCScheduler@@@@QAEXW4E_ALLOC_TYPE@@@Z
_TEXT	SEGMENT
_this$ = -4						; size = 4
_type$ = 8						; size = 4
?setObjAllocType@?$CTList@VCScheduler@@@@QAEXW4E_ALLOC_TYPE@@@Z PROC ; CTList<CScheduler>::setObjAllocType, COMDAT
; _this$ = ecx

; 350  : 	inline void setObjAllocType(E_ALLOC_TYPE type) { m_nObjAllocType = type; }

  00000	55		 push	 ebp
  00001	8b ec		 mov	 ebp, esp
  00003	51		 push	 ecx
  00004	c7 45 fc cc cc
	cc cc		 mov	 DWORD PTR [ebp-4], -858993460 ; ccccccccH
  0000b	89 4d fc	 mov	 DWORD PTR _this$[ebp], ecx
  0000e	8b 45 fc	 mov	 eax, DWORD PTR _this$[ebp]
  00011	8b 4d 08	 mov	 ecx, DWORD PTR _type$[ebp]
  00014	89 48 14	 mov	 DWORD PTR [eax+20], ecx
  00017	8b e5		 mov	 esp, ebp
  00019	5d		 pop	 ebp
  0001a	c2 04 00	 ret	 4
?setObjAllocType@?$CTList@VCScheduler@@@@QAEXW4E_ALLOC_TYPE@@@Z ENDP ; CTList<CScheduler>::setObjAllocType
_TEXT	ENDS
; Function compile flags: /Odtp /RTCsu
; File e:\infinia-library-3.0\com\include\comtlist.h
;	COMDAT ?size@?$CTList@VCScheduler@@@@QAEHXZ
_TEXT	SEGMENT
_this$ = -4						; size = 4
?size@?$CTList@VCScheduler@@@@QAEHXZ PROC		; CTList<CScheduler>::size, COMDAT
; _this$ = ecx

; 347  : 	inline int  size() { return m_nUse; }

  00000	55		 push	 ebp
  00001	8b ec		 mov	 ebp, esp
  00003	51		 push	 ecx
  00004	c7 45 fc cc cc
	cc cc		 mov	 DWORD PTR [ebp-4], -858993460 ; ccccccccH
  0000b	89 4d fc	 mov	 DWORD PTR _this$[ebp], ecx
  0000e	8b 45 fc	 mov	 eax, DWORD PTR _this$[ebp]
  00011	8b 40 04	 mov	 eax, DWORD PTR [eax+4]
  00014	8b e5		 mov	 esp, ebp
  00016	5d		 pop	 ebp
  00017	c3		 ret	 0
?size@?$CTList@VCScheduler@@@@QAEHXZ ENDP		; CTList<CScheduler>::size
_TEXT	ENDS
; Function compile flags: /Odtp /RTCsu
; File e:\infinia-library-3.0\com\include\comtlist.h
;	COMDAT ?getNext@?$CTList@VCScheduler@@@@QAEPAVCScheduler@@PAH@Z
_TEXT	SEGMENT
_this$ = -4						; size = 4
_pIdx$ = 8						; size = 4
?getNext@?$CTList@VCScheduler@@@@QAEPAVCScheduler@@PAH@Z PROC ; CTList<CScheduler>::getNext, COMDAT
; _this$ = ecx

; 334  : 	inline T* getNext(int *pIdx) {

  00000	55		 push	 ebp
  00001	8b ec		 mov	 ebp, esp
  00003	51		 push	 ecx
  00004	c7 45 fc cc cc
	cc cc		 mov	 DWORD PTR [ebp-4], -858993460 ; ccccccccH
  0000b	89 4d fc	 mov	 DWORD PTR _this$[ebp], ecx

; 335  : 		for (*pIdx; *pIdx < m_nMax; (*pIdx)++) {

  0000e	eb 0d		 jmp	 SHORT $LN4@getNext
$LN2@getNext:
  00010	8b 45 08	 mov	 eax, DWORD PTR _pIdx$[ebp]
  00013	8b 08		 mov	 ecx, DWORD PTR [eax]
  00015	83 c1 01	 add	 ecx, 1
  00018	8b 55 08	 mov	 edx, DWORD PTR _pIdx$[ebp]
  0001b	89 0a		 mov	 DWORD PTR [edx], ecx
$LN4@getNext:
  0001d	8b 45 08	 mov	 eax, DWORD PTR _pIdx$[ebp]
  00020	8b 4d fc	 mov	 ecx, DWORD PTR _this$[ebp]
  00023	8b 10		 mov	 edx, DWORD PTR [eax]
  00025	3b 51 10	 cmp	 edx, DWORD PTR [ecx+16]
  00028	7d 21		 jge	 SHORT $LN3@getNext

; 336  : 			if (m_pArray[*pIdx]) { return m_pArray[*pIdx]; }

  0002a	8b 45 08	 mov	 eax, DWORD PTR _pIdx$[ebp]
  0002d	8b 08		 mov	 ecx, DWORD PTR [eax]
  0002f	8b 55 fc	 mov	 edx, DWORD PTR _this$[ebp]
  00032	8b 02		 mov	 eax, DWORD PTR [edx]
  00034	83 3c 88 00	 cmp	 DWORD PTR [eax+ecx*4], 0
  00038	74 0f		 je	 SHORT $LN5@getNext
  0003a	8b 4d 08	 mov	 ecx, DWORD PTR _pIdx$[ebp]
  0003d	8b 11		 mov	 edx, DWORD PTR [ecx]
  0003f	8b 45 fc	 mov	 eax, DWORD PTR _this$[ebp]
  00042	8b 08		 mov	 ecx, DWORD PTR [eax]
  00044	8b 04 91	 mov	 eax, DWORD PTR [ecx+edx*4]
  00047	eb 04		 jmp	 SHORT $LN1@getNext
$LN5@getNext:

; 337  : 		}

  00049	eb c5		 jmp	 SHORT $LN2@getNext
$LN3@getNext:

; 338  : 		return NULL;

  0004b	33 c0		 xor	 eax, eax
$LN1@getNext:

; 339  : 	}

  0004d	8b e5		 mov	 esp, ebp
  0004f	5d		 pop	 ebp
  00050	c2 04 00	 ret	 4
?getNext@?$CTList@VCScheduler@@@@QAEPAVCScheduler@@PAH@Z ENDP ; CTList<CScheduler>::getNext
_TEXT	ENDS
; Function compile flags: /Odtp /RTCsu
; File e:\infinia-library-3.0\com\include\comtlist.h
;	COMDAT ?getObj@?$CTList@VCScheduler@@@@QAEPAVCScheduler@@H@Z
_TEXT	SEGMENT
_this$ = -4						; size = 4
_i$ = 8							; size = 4
?getObj@?$CTList@VCScheduler@@@@QAEPAVCScheduler@@H@Z PROC ; CTList<CScheduler>::getObj, COMDAT
; _this$ = ecx

; 332  : 	inline T* getObj(int i) { if (ISINCLUDE(i, m_nMax)) return m_pArray[i]; return NULL; }

  00000	55		 push	 ebp
  00001	8b ec		 mov	 ebp, esp
  00003	51		 push	 ecx
  00004	c7 45 fc cc cc
	cc cc		 mov	 DWORD PTR [ebp-4], -858993460 ; ccccccccH
  0000b	89 4d fc	 mov	 DWORD PTR _this$[ebp], ecx
  0000e	8b 45 fc	 mov	 eax, DWORD PTR _this$[ebp]
  00011	8b 48 10	 mov	 ecx, DWORD PTR [eax+16]
  00014	51		 push	 ecx
  00015	8b 55 08	 mov	 edx, DWORD PTR _i$[ebp]
  00018	52		 push	 edx
  00019	e8 00 00 00 00	 call	 ?ISINCLUDE@@YA_NHH@Z	; ISINCLUDE
  0001e	83 c4 08	 add	 esp, 8
  00021	0f b6 c0	 movzx	 eax, al
  00024	85 c0		 test	 eax, eax
  00026	74 0d		 je	 SHORT $LN2@getObj
  00028	8b 4d fc	 mov	 ecx, DWORD PTR _this$[ebp]
  0002b	8b 11		 mov	 edx, DWORD PTR [ecx]
  0002d	8b 45 08	 mov	 eax, DWORD PTR _i$[ebp]
  00030	8b 04 82	 mov	 eax, DWORD PTR [edx+eax*4]
  00033	eb 02		 jmp	 SHORT $LN1@getObj
$LN2@getObj:
  00035	33 c0		 xor	 eax, eax
$LN1@getObj:
  00037	83 c4 04	 add	 esp, 4
  0003a	3b ec		 cmp	 ebp, esp
  0003c	e8 00 00 00 00	 call	 __RTC_CheckEsp
  00041	8b e5		 mov	 esp, ebp
  00043	5d		 pop	 ebp
  00044	c2 04 00	 ret	 4
?getObj@?$CTList@VCScheduler@@@@QAEPAVCScheduler@@H@Z ENDP ; CTList<CScheduler>::getObj
_TEXT	ENDS
; Function compile flags: /Odtp /RTCsu
; File e:\infinia-library-3.0\com\include\comtlist.h
;	COMDAT ?del@?$CTList@VCScheduler@@@@QAE_NH@Z
_TEXT	SEGMENT
_this$ = -4						; size = 4
_i$ = 8							; size = 4
?del@?$CTList@VCScheduler@@@@QAE_NH@Z PROC		; CTList<CScheduler>::del, COMDAT
; _this$ = ecx

; 523  : {

  00000	55		 push	 ebp
  00001	8b ec		 mov	 ebp, esp
  00003	51		 push	 ecx
  00004	c7 45 fc cc cc
	cc cc		 mov	 DWORD PTR [ebp-4], -858993460 ; ccccccccH
  0000b	89 4d fc	 mov	 DWORD PTR _this$[ebp], ecx

; 524  : 	if (!ISINCLUDE(i, m_nMax)) {

  0000e	8b 45 fc	 mov	 eax, DWORD PTR _this$[ebp]
  00011	8b 48 10	 mov	 ecx, DWORD PTR [eax+16]
  00014	51		 push	 ecx
  00015	8b 55 08	 mov	 edx, DWORD PTR _i$[ebp]
  00018	52		 push	 edx
  00019	e8 00 00 00 00	 call	 ?ISINCLUDE@@YA_NHH@Z	; ISINCLUDE
  0001e	83 c4 08	 add	 esp, 8
  00021	0f b6 c0	 movzx	 eax, al
  00024	85 c0		 test	 eax, eax
  00026	75 21		 jne	 SHORT $LN2@del

; 525  : 		_stprintf(g_szMessage, "i[%d] m_nMax[%d]", i, m_nMax);

  00028	8b 4d fc	 mov	 ecx, DWORD PTR _this$[ebp]
  0002b	8b 51 10	 mov	 edx, DWORD PTR [ecx+16]
  0002e	52		 push	 edx
  0002f	8b 45 08	 mov	 eax, DWORD PTR _i$[ebp]
  00032	50		 push	 eax
  00033	68 00 00 00 00	 push	 OFFSET $SG47110
  00038	68 00 00 00 00	 push	 OFFSET ?g_szMessage@@3PADA ; g_szMessage
  0003d	e8 00 00 00 00	 call	 _sprintf
  00042	83 c4 10	 add	 esp, 16			; 00000010H

; 526  : 		return false;

  00045	32 c0		 xor	 al, al
  00047	eb 0e		 jmp	 SHORT $LN1@del
$LN2@del:

; 527  : 	}
; 528  : 	_DEL(i);

  00049	8b 4d 08	 mov	 ecx, DWORD PTR _i$[ebp]
  0004c	51		 push	 ecx
  0004d	8b 4d fc	 mov	 ecx, DWORD PTR _this$[ebp]
  00050	e8 00 00 00 00	 call	 ?_DEL@?$CTList@VCScheduler@@@@AAEXH@Z ; CTList<CScheduler>::_DEL

; 529  : 	//_stprintf(g_szMessage, _T("CMemList::del i[%d] m_nLast[%d] m_nCurCount[%d]"), i, m_nLast, m_nUse);
; 530  : 	return true;

  00055	b0 01		 mov	 al, 1
$LN1@del:

; 531  : }

  00057	83 c4 04	 add	 esp, 4
  0005a	3b ec		 cmp	 ebp, esp
  0005c	e8 00 00 00 00	 call	 __RTC_CheckEsp
  00061	8b e5		 mov	 esp, ebp
  00063	5d		 pop	 ebp
  00064	c2 04 00	 ret	 4
?del@?$CTList@VCScheduler@@@@QAE_NH@Z ENDP		; CTList<CScheduler>::del
_TEXT	ENDS
; Function compile flags: /Odtp /RTCsu
; File e:\infinia-library-3.0\com\include\comtlist.h
;	COMDAT ?push_back@?$CTList@VCScheduler@@@@QAE_NPAVCScheduler@@PAH@Z
_TEXT	SEGMENT
_i$ = -12						; size = 4
_nIdx$ = -8						; size = 4
_this$ = -4						; size = 4
_Obj$ = 8						; size = 4
_pIdx$ = 12						; size = 4
?push_back@?$CTList@VCScheduler@@@@QAE_NPAVCScheduler@@PAH@Z PROC ; CTList<CScheduler>::push_back, COMDAT
; _this$ = ecx

; 472  : {

  00000	55		 push	 ebp
  00001	8b ec		 mov	 ebp, esp
  00003	83 ec 0c	 sub	 esp, 12			; 0000000cH
  00006	c7 45 f4 cc cc
	cc cc		 mov	 DWORD PTR [ebp-12], -858993460 ; ccccccccH
  0000d	c7 45 f8 cc cc
	cc cc		 mov	 DWORD PTR [ebp-8], -858993460 ; ccccccccH
  00014	c7 45 fc cc cc
	cc cc		 mov	 DWORD PTR [ebp-4], -858993460 ; ccccccccH
  0001b	89 4d fc	 mov	 DWORD PTR _this$[ebp], ecx

; 473  : 	int nIdx, i;
; 474  : 
; 475  : 	if (m_nUse >= m_nMax) {

  0001e	8b 45 fc	 mov	 eax, DWORD PTR _this$[ebp]
  00021	8b 4d fc	 mov	 ecx, DWORD PTR _this$[ebp]
  00024	8b 50 04	 mov	 edx, DWORD PTR [eax+4]
  00027	3b 51 10	 cmp	 edx, DWORD PTR [ecx+16]
  0002a	7c 39		 jl	 SHORT $LN5@push_back

; 476  : 		if (!__alloc(m_nMax + TLIST_ADD_SIZE)) return false;

  0002c	8b 45 fc	 mov	 eax, DWORD PTR _this$[ebp]
  0002f	8b 48 10	 mov	 ecx, DWORD PTR [eax+16]
  00032	83 c1 40	 add	 ecx, 64			; 00000040H
  00035	51		 push	 ecx
  00036	8b 4d fc	 mov	 ecx, DWORD PTR _this$[ebp]
  00039	e8 00 00 00 00	 call	 ?__alloc@?$CTList@VCScheduler@@@@AAEHH@Z ; CTList<CScheduler>::__alloc
  0003e	85 c0		 test	 eax, eax
  00040	75 07		 jne	 SHORT $LN6@push_back
  00042	32 c0		 xor	 al, al
  00044	e9 cf 00 00 00	 jmp	 $LN1@push_back
$LN6@push_back:

; 477  : 		nIdx = m_nMax;

  00049	8b 55 fc	 mov	 edx, DWORD PTR _this$[ebp]
  0004c	8b 42 10	 mov	 eax, DWORD PTR [edx+16]
  0004f	89 45 f8	 mov	 DWORD PTR _nIdx$[ebp], eax

; 478  : 		m_nMax += TLIST_ADD_SIZE;

  00052	8b 4d fc	 mov	 ecx, DWORD PTR _this$[ebp]
  00055	8b 51 10	 mov	 edx, DWORD PTR [ecx+16]
  00058	83 c2 40	 add	 edx, 64			; 00000040H
  0005b	8b 45 fc	 mov	 eax, DWORD PTR _this$[ebp]
  0005e	89 50 10	 mov	 DWORD PTR [eax+16], edx

; 479  : 		goto ADD_SUCCESS;

  00061	eb 79		 jmp	 SHORT $ADD_SUCCESS$15
  00063	eb 77		 jmp	 SHORT $ADD_SUCCESS$15
$LN5@push_back:

; 480  : 	}
; 481  : 
; 482  : 	if (!m_pArray[m_nLast]) { nIdx = m_nLast;  goto ADD_SUCCESS; }

  00065	8b 4d fc	 mov	 ecx, DWORD PTR _this$[ebp]
  00068	8b 51 08	 mov	 edx, DWORD PTR [ecx+8]
  0006b	8b 45 fc	 mov	 eax, DWORD PTR _this$[ebp]
  0006e	8b 08		 mov	 ecx, DWORD PTR [eax]
  00070	83 3c 91 00	 cmp	 DWORD PTR [ecx+edx*4], 0
  00074	75 0d		 jne	 SHORT $LN8@push_back
  00076	8b 55 fc	 mov	 edx, DWORD PTR _this$[ebp]
  00079	8b 42 08	 mov	 eax, DWORD PTR [edx+8]
  0007c	89 45 f8	 mov	 DWORD PTR _nIdx$[ebp], eax
  0007f	eb 5b		 jmp	 SHORT $ADD_SUCCESS$15
  00081	eb 59		 jmp	 SHORT $ADD_SUCCESS$15
$LN8@push_back:

; 483  : 
; 484  : 	nIdx = m_nLast;

  00083	8b 4d fc	 mov	 ecx, DWORD PTR _this$[ebp]
  00086	8b 51 08	 mov	 edx, DWORD PTR [ecx+8]
  00089	89 55 f8	 mov	 DWORD PTR _nIdx$[ebp], edx

; 485  : 	for (i = 0; i < m_nMax; i++)

  0008c	c7 45 f4 00 00
	00 00		 mov	 DWORD PTR _i$[ebp], 0
  00093	eb 09		 jmp	 SHORT $LN4@push_back
$LN2@push_back:
  00095	8b 45 f4	 mov	 eax, DWORD PTR _i$[ebp]
  00098	83 c0 01	 add	 eax, 1
  0009b	89 45 f4	 mov	 DWORD PTR _i$[ebp], eax
$LN4@push_back:
  0009e	8b 4d fc	 mov	 ecx, DWORD PTR _this$[ebp]
  000a1	8b 55 f4	 mov	 edx, DWORD PTR _i$[ebp]
  000a4	3b 51 10	 cmp	 edx, DWORD PTR [ecx+16]
  000a7	7d 2f		 jge	 SHORT $LN3@push_back

; 486  : 	{
; 487  : 		if (nIdx >= m_nMax) nIdx = 0;

  000a9	8b 45 fc	 mov	 eax, DWORD PTR _this$[ebp]
  000ac	8b 4d f8	 mov	 ecx, DWORD PTR _nIdx$[ebp]
  000af	3b 48 10	 cmp	 ecx, DWORD PTR [eax+16]
  000b2	7c 07		 jl	 SHORT $LN10@push_back
  000b4	c7 45 f8 00 00
	00 00		 mov	 DWORD PTR _nIdx$[ebp], 0
$LN10@push_back:

; 488  : 		if (!m_pArray[nIdx]) {

  000bb	8b 55 fc	 mov	 edx, DWORD PTR _this$[ebp]
  000be	8b 02		 mov	 eax, DWORD PTR [edx]
  000c0	8b 4d f8	 mov	 ecx, DWORD PTR _nIdx$[ebp]
  000c3	83 3c 88 00	 cmp	 DWORD PTR [eax+ecx*4], 0
  000c7	75 04		 jne	 SHORT $LN11@push_back

; 489  : 			goto ADD_SUCCESS;

  000c9	eb 11		 jmp	 SHORT $ADD_SUCCESS$15
  000cb	eb 0f		 jmp	 SHORT $ADD_SUCCESS$15
$LN11@push_back:

; 490  : 		}
; 491  : 		nIdx++;

  000cd	8b 55 f8	 mov	 edx, DWORD PTR _nIdx$[ebp]
  000d0	83 c2 01	 add	 edx, 1
  000d3	89 55 f8	 mov	 DWORD PTR _nIdx$[ebp], edx

; 492  : 	}

  000d6	eb bd		 jmp	 SHORT $LN2@push_back
$LN3@push_back:

; 493  : 	//_stprintf(m_szMessage, _T("add FAIL! m_nLast[%d] m_nCurCount[%d] m_nMax[%d]"), m_nLast, m_nUse, m_nMax);
; 494  : 	return false;

  000d8	32 c0		 xor	 al, al
  000da	eb 3c		 jmp	 SHORT $LN1@push_back
$ADD_SUCCESS$15:

; 495  : 
; 496  : ADD_SUCCESS:
; 497  : 	m_nUse++;

  000dc	8b 45 fc	 mov	 eax, DWORD PTR _this$[ebp]
  000df	8b 48 04	 mov	 ecx, DWORD PTR [eax+4]
  000e2	83 c1 01	 add	 ecx, 1
  000e5	8b 55 fc	 mov	 edx, DWORD PTR _this$[ebp]
  000e8	89 4a 04	 mov	 DWORD PTR [edx+4], ecx

; 498  : 	m_pArray[nIdx] = Obj;

  000eb	8b 45 fc	 mov	 eax, DWORD PTR _this$[ebp]
  000ee	8b 08		 mov	 ecx, DWORD PTR [eax]
  000f0	8b 55 f8	 mov	 edx, DWORD PTR _nIdx$[ebp]
  000f3	8b 45 08	 mov	 eax, DWORD PTR _Obj$[ebp]
  000f6	89 04 91	 mov	 DWORD PTR [ecx+edx*4], eax

; 499  : 	m_nLast++;

  000f9	8b 4d fc	 mov	 ecx, DWORD PTR _this$[ebp]
  000fc	8b 51 08	 mov	 edx, DWORD PTR [ecx+8]
  000ff	83 c2 01	 add	 edx, 1
  00102	8b 45 fc	 mov	 eax, DWORD PTR _this$[ebp]
  00105	89 50 08	 mov	 DWORD PTR [eax+8], edx

; 500  : 	//_stprintf(g_szMessage, _T("CMemList::add i[%d] m_nLast[%d] m_nCurCount[%d]"), nIdx, m_nLast, m_nUse);
; 501  : 	if (pIdx) *pIdx = nIdx;

  00108	83 7d 0c 00	 cmp	 DWORD PTR _pIdx$[ebp], 0
  0010c	74 08		 je	 SHORT $LN13@push_back
  0010e	8b 4d 0c	 mov	 ecx, DWORD PTR _pIdx$[ebp]
  00111	8b 55 f8	 mov	 edx, DWORD PTR _nIdx$[ebp]
  00114	89 11		 mov	 DWORD PTR [ecx], edx
$LN13@push_back:

; 502  : 	return true;

  00116	b0 01		 mov	 al, 1
$LN1@push_back:

; 503  : }

  00118	83 c4 0c	 add	 esp, 12			; 0000000cH
  0011b	3b ec		 cmp	 ebp, esp
  0011d	e8 00 00 00 00	 call	 __RTC_CheckEsp
  00122	8b e5		 mov	 esp, ebp
  00124	5d		 pop	 ebp
  00125	c2 08 00	 ret	 8
?push_back@?$CTList@VCScheduler@@@@QAE_NPAVCScheduler@@PAH@Z ENDP ; CTList<CScheduler>::push_back
_TEXT	ENDS
; Function compile flags: /Odtp /RTCsu
; File e:\infinia-library-3.0\com\include\comtlist.h
;	COMDAT ?alloc@?$CTList@VCScheduler@@@@QAEHHW4E_ALLOC_TYPE@@@Z
_TEXT	SEGMENT
_this$ = -4						; size = 4
_nMaxCount$ = 8						; size = 4
_type$ = 12						; size = 4
?alloc@?$CTList@VCScheduler@@@@QAEHHW4E_ALLOC_TYPE@@@Z PROC ; CTList<CScheduler>::alloc, COMDAT
; _this$ = ecx

; 326  : 	int alloc(int nMaxCount, E_ALLOC_TYPE type = eAlloc_Type_new) { m_nObjAllocType = type;  m_nMax = __alloc(nMaxCount); return m_nMax; }

  00000	55		 push	 ebp
  00001	8b ec		 mov	 ebp, esp
  00003	51		 push	 ecx
  00004	c7 45 fc cc cc
	cc cc		 mov	 DWORD PTR [ebp-4], -858993460 ; ccccccccH
  0000b	89 4d fc	 mov	 DWORD PTR _this$[ebp], ecx
  0000e	8b 45 fc	 mov	 eax, DWORD PTR _this$[ebp]
  00011	8b 4d 0c	 mov	 ecx, DWORD PTR _type$[ebp]
  00014	89 48 14	 mov	 DWORD PTR [eax+20], ecx
  00017	8b 55 08	 mov	 edx, DWORD PTR _nMaxCount$[ebp]
  0001a	52		 push	 edx
  0001b	8b 4d fc	 mov	 ecx, DWORD PTR _this$[ebp]
  0001e	e8 00 00 00 00	 call	 ?__alloc@?$CTList@VCScheduler@@@@AAEHH@Z ; CTList<CScheduler>::__alloc
  00023	8b 4d fc	 mov	 ecx, DWORD PTR _this$[ebp]
  00026	89 41 10	 mov	 DWORD PTR [ecx+16], eax
  00029	8b 55 fc	 mov	 edx, DWORD PTR _this$[ebp]
  0002c	8b 42 10	 mov	 eax, DWORD PTR [edx+16]
  0002f	83 c4 04	 add	 esp, 4
  00032	3b ec		 cmp	 ebp, esp
  00034	e8 00 00 00 00	 call	 __RTC_CheckEsp
  00039	8b e5		 mov	 esp, ebp
  0003b	5d		 pop	 ebp
  0003c	c2 08 00	 ret	 8
?alloc@?$CTList@VCScheduler@@@@QAEHHW4E_ALLOC_TYPE@@@Z ENDP ; CTList<CScheduler>::alloc
_TEXT	ENDS
; Function compile flags: /Odtp /RTCsu
; File e:\infinia-library-3.0\com\include\comtlist.h
;	COMDAT ??1?$CTList@VCScheduler@@@@QAE@XZ
_TEXT	SEGMENT
tv94 = -64						; size = 4
tv82 = -60						; size = 4
tv77 = -56						; size = 4
$T2 = -52						; size = 4
$T3 = -48						; size = 4
$T4 = -44						; size = 4
$T5 = -40						; size = 4
_p$6 = -36						; size = 4
_idx$7 = -28						; size = 4
_this$ = -20						; size = 4
__$ArrayPad$ = -16					; size = 4
__$EHRec$ = -12						; size = 12
??1?$CTList@VCScheduler@@@@QAE@XZ PROC			; CTList<CScheduler>::~CTList<CScheduler>, COMDAT
; _this$ = ecx

; 376  : {

  00000	55		 push	 ebp
  00001	8b ec		 mov	 ebp, esp
  00003	6a ff		 push	 -1
  00005	68 00 00 00 00	 push	 __ehhandler$??1?$CTList@VCScheduler@@@@QAE@XZ
  0000a	64 a1 00 00 00
	00		 mov	 eax, DWORD PTR fs:0
  00010	50		 push	 eax
  00011	83 ec 34	 sub	 esp, 52			; 00000034H
  00014	56		 push	 esi
  00015	57		 push	 edi
  00016	51		 push	 ecx
  00017	8d 7d c0	 lea	 edi, DWORD PTR [ebp-64]
  0001a	b9 0d 00 00 00	 mov	 ecx, 13			; 0000000dH
  0001f	b8 cc cc cc cc	 mov	 eax, -858993460		; ccccccccH
  00024	f3 ab		 rep stosd
  00026	59		 pop	 ecx
  00027	a1 00 00 00 00	 mov	 eax, DWORD PTR ___security_cookie
  0002c	33 c5		 xor	 eax, ebp
  0002e	89 45 f0	 mov	 DWORD PTR __$ArrayPad$[ebp], eax
  00031	50		 push	 eax
  00032	8d 45 f4	 lea	 eax, DWORD PTR __$EHRec$[ebp]
  00035	64 a3 00 00 00
	00		 mov	 DWORD PTR fs:0, eax
  0003b	89 4d ec	 mov	 DWORD PTR _this$[ebp], ecx

; 377  : 	if (!m_pArray) return;

  0003e	8b 45 ec	 mov	 eax, DWORD PTR _this$[ebp]
  00041	83 38 00	 cmp	 DWORD PTR [eax], 0
  00044	75 05		 jne	 SHORT $LN6@CTList
  00046	e9 31 01 00 00	 jmp	 $LN15@CTList
$LN6@CTList:

; 378  : 
; 379  : 	if (ISABLETODELETE(m_nObjAllocType)) {

  0004b	8b 4d ec	 mov	 ecx, DWORD PTR _this$[ebp]
  0004e	8b 51 14	 mov	 edx, DWORD PTR [ecx+20]
  00051	52		 push	 edx
  00052	e8 00 00 00 00	 call	 ?ISABLETODELETE@@YA_NW4E_ALLOC_TYPE@@@Z ; ISABLETODELETE
  00057	83 c4 04	 add	 esp, 4
  0005a	0f b6 c0	 movzx	 eax, al
  0005d	85 c0		 test	 eax, eax
  0005f	0f 84 ee 00 00
	00		 je	 $LN7@CTList

; 380  : 		int idx = 0;

  00065	c7 45 e4 00 00
	00 00		 mov	 DWORD PTR _idx$7[ebp], 0

; 381  : 		T *p = getNext(&idx);

  0006c	8d 4d e4	 lea	 ecx, DWORD PTR _idx$7[ebp]
  0006f	51		 push	 ecx
  00070	8b 4d ec	 mov	 ecx, DWORD PTR _this$[ebp]
  00073	e8 00 00 00 00	 call	 ?getNext@?$CTList@VCScheduler@@@@QAEPAVCScheduler@@PAH@Z ; CTList<CScheduler>::getNext
  00078	89 45 dc	 mov	 DWORD PTR _p$6[ebp], eax
$LN2@CTList:

; 382  : 		while (p) {

  0007b	83 7d dc 00	 cmp	 DWORD PTR _p$6[ebp], 0
  0007f	0f 84 ce 00 00
	00		 je	 $LN7@CTList

; 383  : 			idx++;

  00085	8b 55 e4	 mov	 edx, DWORD PTR _idx$7[ebp]
  00088	83 c2 01	 add	 edx, 1
  0008b	89 55 e4	 mov	 DWORD PTR _idx$7[ebp], edx

; 384  : 			switch (m_nObjAllocType) {

  0008e	8b 45 ec	 mov	 eax, DWORD PTR _this$[ebp]
  00091	8b 48 14	 mov	 ecx, DWORD PTR [eax+20]
  00094	89 4d c8	 mov	 DWORD PTR tv77[ebp], ecx
  00097	8b 55 c8	 mov	 edx, DWORD PTR tv77[ebp]
  0009a	83 ea 02	 sub	 edx, 2
  0009d	89 55 c8	 mov	 DWORD PTR tv77[ebp], edx
  000a0	83 7d c8 03	 cmp	 DWORD PTR tv77[ebp], 3
  000a4	0f 87 95 00 00
	00		 ja	 $LN4@CTList
  000aa	8b 45 c8	 mov	 eax, DWORD PTR tv77[ebp]
  000ad	ff 24 85 00 00
	00 00		 jmp	 DWORD PTR $LN24@CTList[eax*4]
$LN8@CTList:

; 385  : 				case eAlloc_Type_new		:	delete p; break;

  000b4	8b 4d dc	 mov	 ecx, DWORD PTR _p$6[ebp]
  000b7	89 4d d4	 mov	 DWORD PTR $T4[ebp], ecx
  000ba	8b 55 d4	 mov	 edx, DWORD PTR $T4[ebp]
  000bd	89 55 d8	 mov	 DWORD PTR $T5[ebp], edx
  000c0	83 7d d8 00	 cmp	 DWORD PTR $T5[ebp], 0
  000c4	74 0f		 je	 SHORT $LN16@CTList
  000c6	6a 01		 push	 1
  000c8	8b 4d d8	 mov	 ecx, DWORD PTR $T5[ebp]
  000cb	e8 00 00 00 00	 call	 ??_GCScheduler@@QAEPAXI@Z
  000d0	89 45 c4	 mov	 DWORD PTR tv82[ebp], eax
  000d3	eb 07		 jmp	 SHORT $LN17@CTList
$LN16@CTList:
  000d5	c7 45 c4 00 00
	00 00		 mov	 DWORD PTR tv82[ebp], 0
$LN17@CTList:
  000dc	eb 61		 jmp	 SHORT $LN4@CTList
$LN9@CTList:

; 386  : 				case eAlloc_Type_alloc		:	free(p); break;

  000de	8b f4		 mov	 esi, esp
  000e0	8b 45 dc	 mov	 eax, DWORD PTR _p$6[ebp]
  000e3	50		 push	 eax
  000e4	ff 15 00 00 00
	00		 call	 DWORD PTR __imp__free
  000ea	83 c4 04	 add	 esp, 4
  000ed	3b f4		 cmp	 esi, esp
  000ef	e8 00 00 00 00	 call	 __RTC_CheckEsp
  000f4	eb 49		 jmp	 SHORT $LN4@CTList
$LN10@CTList:

; 387  : 				case eAlloc_Type_BufPool	:	gs_pMMgr->delBuf((char *)p, STRING_SIZE((TCHAR *)p)); break;

  000f6	8b 4d dc	 mov	 ecx, DWORD PTR _p$6[ebp]
  000f9	51		 push	 ecx
  000fa	e8 00 00 00 00	 call	 _strlen
  000ff	83 c4 04	 add	 esp, 4
  00102	83 c0 01	 add	 eax, 1
  00105	50		 push	 eax
  00106	8b 55 dc	 mov	 edx, DWORD PTR _p$6[ebp]
  00109	52		 push	 edx
  0010a	8b 0d 00 00 00
	00		 mov	 ecx, DWORD PTR ?gs_pMMgr@@3PAVCMemManager@@A ; gs_pMMgr
  00110	e8 00 00 00 00	 call	 ?delBuf@CMemManager@@QAEXPADH@Z ; CMemManager::delBuf
  00115	eb 28		 jmp	 SHORT $LN4@CTList
$LN11@CTList:

; 388  : 				case eAlloc_Type_newArray	:	delete[] p; break;

  00117	8b 45 dc	 mov	 eax, DWORD PTR _p$6[ebp]
  0011a	89 45 cc	 mov	 DWORD PTR $T2[ebp], eax
  0011d	8b 4d cc	 mov	 ecx, DWORD PTR $T2[ebp]
  00120	89 4d d0	 mov	 DWORD PTR $T3[ebp], ecx
  00123	83 7d d0 00	 cmp	 DWORD PTR $T3[ebp], 0
  00127	74 0f		 je	 SHORT $LN18@CTList
  00129	6a 03		 push	 3
  0012b	8b 4d d0	 mov	 ecx, DWORD PTR $T3[ebp]
  0012e	e8 00 00 00 00	 call	 ??_ECScheduler@@QAEPAXI@Z
  00133	89 45 c0	 mov	 DWORD PTR tv94[ebp], eax
  00136	eb 07		 jmp	 SHORT $LN4@CTList
$LN18@CTList:
  00138	c7 45 c0 00 00
	00 00		 mov	 DWORD PTR tv94[ebp], 0
$LN4@CTList:

; 389  : 				case eAlloc_Type_none		:	break;
; 390  : 				case eAlloc_Type_MemPool	:	break;
; 391  : 			}
; 392  : 			p = getNext(&idx);

  0013f	8d 55 e4	 lea	 edx, DWORD PTR _idx$7[ebp]
  00142	52		 push	 edx
  00143	8b 4d ec	 mov	 ecx, DWORD PTR _this$[ebp]
  00146	e8 00 00 00 00	 call	 ?getNext@?$CTList@VCScheduler@@@@QAEPAVCScheduler@@PAH@Z ; CTList<CScheduler>::getNext
  0014b	89 45 dc	 mov	 DWORD PTR _p$6[ebp], eax

; 393  : 		}

  0014e	e9 28 ff ff ff	 jmp	 $LN2@CTList
$LN7@CTList:

; 394  : 	}
; 395  : 
; 396  : 	if (m_pArray)	free(m_pArray);

  00153	8b 45 ec	 mov	 eax, DWORD PTR _this$[ebp]
  00156	83 38 00	 cmp	 DWORD PTR [eax], 0
  00159	74 18		 je	 SHORT $LN14@CTList
  0015b	8b f4		 mov	 esi, esp
  0015d	8b 4d ec	 mov	 ecx, DWORD PTR _this$[ebp]
  00160	8b 11		 mov	 edx, DWORD PTR [ecx]
  00162	52		 push	 edx
  00163	ff 15 00 00 00
	00		 call	 DWORD PTR __imp__free
  00169	83 c4 04	 add	 esp, 4
  0016c	3b f4		 cmp	 esi, esp
  0016e	e8 00 00 00 00	 call	 __RTC_CheckEsp
$LN14@CTList:

; 397  : 	m_pArray = 0;

  00173	8b 45 ec	 mov	 eax, DWORD PTR _this$[ebp]
  00176	c7 00 00 00 00
	00		 mov	 DWORD PTR [eax], 0
$LN15@CTList:

; 398  : }

  0017c	52		 push	 edx
  0017d	8b cd		 mov	 ecx, ebp
  0017f	50		 push	 eax
  00180	8d 15 00 00 00
	00		 lea	 edx, DWORD PTR $LN23@CTList
  00186	e8 00 00 00 00	 call	 @_RTC_CheckStackVars@8
  0018b	58		 pop	 eax
  0018c	5a		 pop	 edx
  0018d	8b 4d f4	 mov	 ecx, DWORD PTR __$EHRec$[ebp]
  00190	64 89 0d 00 00
	00 00		 mov	 DWORD PTR fs:0, ecx
  00197	59		 pop	 ecx
  00198	5f		 pop	 edi
  00199	5e		 pop	 esi
  0019a	8b 4d f0	 mov	 ecx, DWORD PTR __$ArrayPad$[ebp]
  0019d	33 cd		 xor	 ecx, ebp
  0019f	e8 00 00 00 00	 call	 @__security_check_cookie@4
  001a4	83 c4 40	 add	 esp, 64			; 00000040H
  001a7	3b ec		 cmp	 ebp, esp
  001a9	e8 00 00 00 00	 call	 __RTC_CheckEsp
  001ae	8b e5		 mov	 esp, ebp
  001b0	5d		 pop	 ebp
  001b1	c3		 ret	 0
  001b2	66 90		 npad	 2
$LN23@CTList:
  001b4	01 00 00 00	 DD	 1
  001b8	00 00 00 00	 DD	 $LN22@CTList
$LN22@CTList:
  001bc	e4 ff ff ff	 DD	 -28			; ffffffe4H
  001c0	04 00 00 00	 DD	 4
  001c4	00 00 00 00	 DD	 $LN20@CTList
$LN20@CTList:
  001c8	69		 DB	 105			; 00000069H
  001c9	64		 DB	 100			; 00000064H
  001ca	78		 DB	 120			; 00000078H
  001cb	00		 DB	 0
$LN24@CTList:
  001cc	00 00 00 00	 DD	 $LN8@CTList
  001d0	00 00 00 00	 DD	 $LN9@CTList
  001d4	00 00 00 00	 DD	 $LN10@CTList
  001d8	00 00 00 00	 DD	 $LN11@CTList
_TEXT	ENDS
;	COMDAT text$x
text$x	SEGMENT
__ehhandler$??1?$CTList@VCScheduler@@@@QAE@XZ:
  00000	8b 54 24 08	 mov	 edx, DWORD PTR [esp+8]
  00004	8d 42 0c	 lea	 eax, DWORD PTR [edx+12]
  00007	8b 4a c0	 mov	 ecx, DWORD PTR [edx-64]
  0000a	33 c8		 xor	 ecx, eax
  0000c	e8 00 00 00 00	 call	 @__security_check_cookie@4
  00011	8b 4a fc	 mov	 ecx, DWORD PTR [edx-4]
  00014	33 c8		 xor	 ecx, eax
  00016	e8 00 00 00 00	 call	 @__security_check_cookie@4
  0001b	b8 00 00 00 00	 mov	 eax, OFFSET __ehfuncinfo$??1?$CTList@VCScheduler@@@@QAE@XZ
  00020	e9 00 00 00 00	 jmp	 ___CxxFrameHandler3
text$x	ENDS
??1?$CTList@VCScheduler@@@@QAE@XZ ENDP			; CTList<CScheduler>::~CTList<CScheduler>
; Function compile flags: /Odtp /RTCsu
; File e:\infinia-library-3.0\com\include\comtlist.h
;	COMDAT ??0?$CTList@VCScheduler@@@@QAE@XZ
_TEXT	SEGMENT
_this$ = -4						; size = 4
??0?$CTList@VCScheduler@@@@QAE@XZ PROC			; CTList<CScheduler>::CTList<CScheduler>, COMDAT
; _this$ = ecx

; 365  : {

  00000	55		 push	 ebp
  00001	8b ec		 mov	 ebp, esp
  00003	51		 push	 ecx
  00004	c7 45 fc cc cc
	cc cc		 mov	 DWORD PTR [ebp-4], -858993460 ; ccccccccH
  0000b	89 4d fc	 mov	 DWORD PTR _this$[ebp], ecx

; 366  : 	m_pArray = NULL;

  0000e	8b 45 fc	 mov	 eax, DWORD PTR _this$[ebp]
  00011	c7 00 00 00 00
	00		 mov	 DWORD PTR [eax], 0

; 367  : 	m_nUse = 0;

  00017	8b 4d fc	 mov	 ecx, DWORD PTR _this$[ebp]
  0001a	c7 41 04 00 00
	00 00		 mov	 DWORD PTR [ecx+4], 0

; 368  : 	m_nLast = 0;

  00021	8b 55 fc	 mov	 edx, DWORD PTR _this$[ebp]
  00024	c7 42 08 00 00
	00 00		 mov	 DWORD PTR [edx+8], 0

; 369  : 	m_nDelIdx = 0;

  0002b	8b 45 fc	 mov	 eax, DWORD PTR _this$[ebp]
  0002e	c7 40 0c 00 00
	00 00		 mov	 DWORD PTR [eax+12], 0

; 370  : 	m_nMax = 0;

  00035	8b 4d fc	 mov	 ecx, DWORD PTR _this$[ebp]
  00038	c7 41 10 00 00
	00 00		 mov	 DWORD PTR [ecx+16], 0

; 371  : 	m_nObjAllocType = eAlloc_Type_none;

  0003f	8b 55 fc	 mov	 edx, DWORD PTR _this$[ebp]
  00042	c7 42 14 00 00
	00 00		 mov	 DWORD PTR [edx+20], 0

; 372  : }

  00049	8b 45 fc	 mov	 eax, DWORD PTR _this$[ebp]
  0004c	8b e5		 mov	 esp, ebp
  0004e	5d		 pop	 ebp
  0004f	c3		 ret	 0
??0?$CTList@VCScheduler@@@@QAE@XZ ENDP			; CTList<CScheduler>::CTList<CScheduler>
_TEXT	ENDS
; Function compile flags: /Odtp /RTCsu
;	COMDAT ??_G?$CTList@VCSTLogger@@@@QAEPAXI@Z
_TEXT	SEGMENT
_this$ = -4						; size = 4
___flags$ = 8						; size = 4
??_G?$CTList@VCSTLogger@@@@QAEPAXI@Z PROC		; CTList<CSTLogger>::`scalar deleting destructor', COMDAT
; _this$ = ecx
  00000	55		 push	 ebp
  00001	8b ec		 mov	 ebp, esp
  00003	51		 push	 ecx
  00004	c7 45 fc cc cc
	cc cc		 mov	 DWORD PTR [ebp-4], -858993460 ; ccccccccH
  0000b	89 4d fc	 mov	 DWORD PTR _this$[ebp], ecx
  0000e	8b 4d fc	 mov	 ecx, DWORD PTR _this$[ebp]
  00011	e8 00 00 00 00	 call	 ??1?$CTList@VCSTLogger@@@@QAE@XZ ; CTList<CSTLogger>::~CTList<CSTLogger>
  00016	8b 45 08	 mov	 eax, DWORD PTR ___flags$[ebp]
  00019	83 e0 01	 and	 eax, 1
  0001c	74 0e		 je	 SHORT $LN2@scalar
  0001e	6a 18		 push	 24			; 00000018H
  00020	8b 4d fc	 mov	 ecx, DWORD PTR _this$[ebp]
  00023	51		 push	 ecx
  00024	e8 00 00 00 00	 call	 ??3@YAXPAXI@Z		; operator delete
  00029	83 c4 08	 add	 esp, 8
$LN2@scalar:
  0002c	8b 45 fc	 mov	 eax, DWORD PTR _this$[ebp]
  0002f	83 c4 04	 add	 esp, 4
  00032	3b ec		 cmp	 ebp, esp
  00034	e8 00 00 00 00	 call	 __RTC_CheckEsp
  00039	8b e5		 mov	 esp, ebp
  0003b	5d		 pop	 ebp
  0003c	c2 04 00	 ret	 4
??_G?$CTList@VCSTLogger@@@@QAEPAXI@Z ENDP		; CTList<CSTLogger>::`scalar deleting destructor'
_TEXT	ENDS
; Function compile flags: /Odtp /RTCsu
;	COMDAT ?__autoclassinit2@?$CTList@VCSTLogger@@@@QAEXI@Z
_TEXT	SEGMENT
_this$ = -4						; size = 4
_classSize$ = 8						; size = 4
?__autoclassinit2@?$CTList@VCSTLogger@@@@QAEXI@Z PROC	; CTList<CSTLogger>::__autoclassinit2, COMDAT
; _this$ = ecx
  00000	55		 push	 ebp
  00001	8b ec		 mov	 ebp, esp
  00003	51		 push	 ecx
  00004	c7 45 fc cc cc
	cc cc		 mov	 DWORD PTR [ebp-4], -858993460 ; ccccccccH
  0000b	89 4d fc	 mov	 DWORD PTR _this$[ebp], ecx
  0000e	8b 45 08	 mov	 eax, DWORD PTR _classSize$[ebp]
  00011	50		 push	 eax
  00012	6a 00		 push	 0
  00014	8b 4d fc	 mov	 ecx, DWORD PTR _this$[ebp]
  00017	51		 push	 ecx
  00018	e8 00 00 00 00	 call	 _memset
  0001d	83 c4 0c	 add	 esp, 12			; 0000000cH
  00020	83 c4 04	 add	 esp, 4
  00023	3b ec		 cmp	 ebp, esp
  00025	e8 00 00 00 00	 call	 __RTC_CheckEsp
  0002a	8b e5		 mov	 esp, ebp
  0002c	5d		 pop	 ebp
  0002d	c2 04 00	 ret	 4
?__autoclassinit2@?$CTList@VCSTLogger@@@@QAEXI@Z ENDP	; CTList<CSTLogger>::__autoclassinit2
_TEXT	ENDS
; Function compile flags: /Odtp /RTCsu
; File e:\infinia-library-3.0\com\include\comtlist.h
;	COMDAT ?_DEL@?$CTList@VCSTLogger@@@@AAEXH@Z
_TEXT	SEGMENT
_this$ = -4						; size = 4
_i$ = 8							; size = 4
?_DEL@?$CTList@VCSTLogger@@@@AAEXH@Z PROC		; CTList<CSTLogger>::_DEL, COMDAT
; _this$ = ecx

; 360  : 	inline void _DEL(int i) { m_pArray[i] = 0; m_nUse--; m_nDelIdx = i; }

  00000	55		 push	 ebp
  00001	8b ec		 mov	 ebp, esp
  00003	51		 push	 ecx
  00004	c7 45 fc cc cc
	cc cc		 mov	 DWORD PTR [ebp-4], -858993460 ; ccccccccH
  0000b	89 4d fc	 mov	 DWORD PTR _this$[ebp], ecx
  0000e	8b 45 fc	 mov	 eax, DWORD PTR _this$[ebp]
  00011	8b 08		 mov	 ecx, DWORD PTR [eax]
  00013	8b 55 08	 mov	 edx, DWORD PTR _i$[ebp]
  00016	c7 04 91 00 00
	00 00		 mov	 DWORD PTR [ecx+edx*4], 0
  0001d	8b 45 fc	 mov	 eax, DWORD PTR _this$[ebp]
  00020	8b 48 04	 mov	 ecx, DWORD PTR [eax+4]
  00023	83 e9 01	 sub	 ecx, 1
  00026	8b 55 fc	 mov	 edx, DWORD PTR _this$[ebp]
  00029	89 4a 04	 mov	 DWORD PTR [edx+4], ecx
  0002c	8b 45 fc	 mov	 eax, DWORD PTR _this$[ebp]
  0002f	8b 4d 08	 mov	 ecx, DWORD PTR _i$[ebp]
  00032	89 48 0c	 mov	 DWORD PTR [eax+12], ecx
  00035	8b e5		 mov	 esp, ebp
  00037	5d		 pop	 ebp
  00038	c2 04 00	 ret	 4
?_DEL@?$CTList@VCSTLogger@@@@AAEXH@Z ENDP		; CTList<CSTLogger>::_DEL
_TEXT	ENDS
; Function compile flags: /Odtp /RTCsu
; File e:\infinia-library-3.0\com\include\comtlist.h
;	COMDAT ?__alloc@?$CTList@VCSTLogger@@@@AAEHH@Z
_TEXT	SEGMENT
_pList$ = -8						; size = 4
_this$ = -4						; size = 4
_nMaxCount$ = 8						; size = 4
?__alloc@?$CTList@VCSTLogger@@@@AAEHH@Z PROC		; CTList<CSTLogger>::__alloc, COMDAT
; _this$ = ecx

; 402  : {

  00000	55		 push	 ebp
  00001	8b ec		 mov	 ebp, esp
  00003	83 ec 08	 sub	 esp, 8
  00006	56		 push	 esi
  00007	c7 45 f8 cc cc
	cc cc		 mov	 DWORD PTR [ebp-8], -858993460 ; ccccccccH
  0000e	c7 45 fc cc cc
	cc cc		 mov	 DWORD PTR [ebp-4], -858993460 ; ccccccccH
  00015	89 4d fc	 mov	 DWORD PTR _this$[ebp], ecx

; 403  : 	T** pList = (T**)calloc(nMaxCount, sizeof(T*));

  00018	8b f4		 mov	 esi, esp
  0001a	6a 04		 push	 4
  0001c	8b 45 08	 mov	 eax, DWORD PTR _nMaxCount$[ebp]
  0001f	50		 push	 eax
  00020	ff 15 00 00 00
	00		 call	 DWORD PTR __imp__calloc
  00026	83 c4 08	 add	 esp, 8
  00029	3b f4		 cmp	 esi, esp
  0002b	e8 00 00 00 00	 call	 __RTC_CheckEsp
  00030	89 45 f8	 mov	 DWORD PTR _pList$[ebp], eax

; 404  : 	if (!pList) {

  00033	83 7d f8 00	 cmp	 DWORD PTR _pList$[ebp], 0
  00037	75 16		 jne	 SHORT $LN2@alloc

; 405  : 		_stprintf(g_szMessage, "pList calloc is NULL");

  00039	68 00 00 00 00	 push	 OFFSET $SG47050
  0003e	68 00 00 00 00	 push	 OFFSET ?g_szMessage@@3PADA ; g_szMessage
  00043	e8 00 00 00 00	 call	 _sprintf
  00048	83 c4 08	 add	 esp, 8

; 406  : 		return 0;

  0004b	33 c0		 xor	 eax, eax
  0004d	eb 47		 jmp	 SHORT $LN1@alloc
$LN2@alloc:

; 407  : 	}
; 408  : 	//_stprintf(g_szMessage, _T("CTList::__alloc list m_nMaxCount[%d]"), nMaxCount);
; 409  : 	if (m_pArray) {

  0004f	8b 4d fc	 mov	 ecx, DWORD PTR _this$[ebp]
  00052	83 39 00	 cmp	 DWORD PTR [ecx], 0
  00055	74 34		 je	 SHORT $LN3@alloc

; 410  : 		memcpy(pList, m_pArray, m_nMax * sizeof(T*));

  00057	8b 55 fc	 mov	 edx, DWORD PTR _this$[ebp]
  0005a	8b 42 10	 mov	 eax, DWORD PTR [edx+16]
  0005d	c1 e0 02	 shl	 eax, 2
  00060	50		 push	 eax
  00061	8b 4d fc	 mov	 ecx, DWORD PTR _this$[ebp]
  00064	8b 11		 mov	 edx, DWORD PTR [ecx]
  00066	52		 push	 edx
  00067	8b 45 f8	 mov	 eax, DWORD PTR _pList$[ebp]
  0006a	50		 push	 eax
  0006b	e8 00 00 00 00	 call	 _memcpy
  00070	83 c4 0c	 add	 esp, 12			; 0000000cH

; 411  : 		free(m_pArray);

  00073	8b f4		 mov	 esi, esp
  00075	8b 4d fc	 mov	 ecx, DWORD PTR _this$[ebp]
  00078	8b 11		 mov	 edx, DWORD PTR [ecx]
  0007a	52		 push	 edx
  0007b	ff 15 00 00 00
	00		 call	 DWORD PTR __imp__free
  00081	83 c4 04	 add	 esp, 4
  00084	3b f4		 cmp	 esi, esp
  00086	e8 00 00 00 00	 call	 __RTC_CheckEsp
$LN3@alloc:

; 412  : 	}
; 413  : 	m_pArray = pList;

  0008b	8b 45 fc	 mov	 eax, DWORD PTR _this$[ebp]
  0008e	8b 4d f8	 mov	 ecx, DWORD PTR _pList$[ebp]
  00091	89 08		 mov	 DWORD PTR [eax], ecx

; 414  : 	return nMaxCount;

  00093	8b 45 08	 mov	 eax, DWORD PTR _nMaxCount$[ebp]
$LN1@alloc:

; 415  : }

  00096	5e		 pop	 esi
  00097	83 c4 08	 add	 esp, 8
  0009a	3b ec		 cmp	 ebp, esp
  0009c	e8 00 00 00 00	 call	 __RTC_CheckEsp
  000a1	8b e5		 mov	 esp, ebp
  000a3	5d		 pop	 ebp
  000a4	c2 04 00	 ret	 4
?__alloc@?$CTList@VCSTLogger@@@@AAEHH@Z ENDP		; CTList<CSTLogger>::__alloc
_TEXT	ENDS
; Function compile flags: /Odtp /RTCsu
; File e:\infinia-library-3.0\com\include\comtlist.h
;	COMDAT ?setObjAllocType@?$CTList@VCSTLogger@@@@QAEXW4E_ALLOC_TYPE@@@Z
_TEXT	SEGMENT
_this$ = -4						; size = 4
_type$ = 8						; size = 4
?setObjAllocType@?$CTList@VCSTLogger@@@@QAEXW4E_ALLOC_TYPE@@@Z PROC ; CTList<CSTLogger>::setObjAllocType, COMDAT
; _this$ = ecx

; 350  : 	inline void setObjAllocType(E_ALLOC_TYPE type) { m_nObjAllocType = type; }

  00000	55		 push	 ebp
  00001	8b ec		 mov	 ebp, esp
  00003	51		 push	 ecx
  00004	c7 45 fc cc cc
	cc cc		 mov	 DWORD PTR [ebp-4], -858993460 ; ccccccccH
  0000b	89 4d fc	 mov	 DWORD PTR _this$[ebp], ecx
  0000e	8b 45 fc	 mov	 eax, DWORD PTR _this$[ebp]
  00011	8b 4d 08	 mov	 ecx, DWORD PTR _type$[ebp]
  00014	89 48 14	 mov	 DWORD PTR [eax+20], ecx
  00017	8b e5		 mov	 esp, ebp
  00019	5d		 pop	 ebp
  0001a	c2 04 00	 ret	 4
?setObjAllocType@?$CTList@VCSTLogger@@@@QAEXW4E_ALLOC_TYPE@@@Z ENDP ; CTList<CSTLogger>::setObjAllocType
_TEXT	ENDS
; Function compile flags: /Odtp /RTCsu
; File e:\infinia-library-3.0\com\include\comtlist.h
;	COMDAT ?size@?$CTList@VCSTLogger@@@@QAEHXZ
_TEXT	SEGMENT
_this$ = -4						; size = 4
?size@?$CTList@VCSTLogger@@@@QAEHXZ PROC		; CTList<CSTLogger>::size, COMDAT
; _this$ = ecx

; 347  : 	inline int  size() { return m_nUse; }

  00000	55		 push	 ebp
  00001	8b ec		 mov	 ebp, esp
  00003	51		 push	 ecx
  00004	c7 45 fc cc cc
	cc cc		 mov	 DWORD PTR [ebp-4], -858993460 ; ccccccccH
  0000b	89 4d fc	 mov	 DWORD PTR _this$[ebp], ecx
  0000e	8b 45 fc	 mov	 eax, DWORD PTR _this$[ebp]
  00011	8b 40 04	 mov	 eax, DWORD PTR [eax+4]
  00014	8b e5		 mov	 esp, ebp
  00016	5d		 pop	 ebp
  00017	c3		 ret	 0
?size@?$CTList@VCSTLogger@@@@QAEHXZ ENDP		; CTList<CSTLogger>::size
_TEXT	ENDS
; Function compile flags: /Odtp /RTCsu
; File e:\infinia-library-3.0\com\include\comtlist.h
;	COMDAT ?getNext@?$CTList@VCSTLogger@@@@QAEPAVCSTLogger@@PAH@Z
_TEXT	SEGMENT
_this$ = -4						; size = 4
_pIdx$ = 8						; size = 4
?getNext@?$CTList@VCSTLogger@@@@QAEPAVCSTLogger@@PAH@Z PROC ; CTList<CSTLogger>::getNext, COMDAT
; _this$ = ecx

; 334  : 	inline T* getNext(int *pIdx) {

  00000	55		 push	 ebp
  00001	8b ec		 mov	 ebp, esp
  00003	51		 push	 ecx
  00004	c7 45 fc cc cc
	cc cc		 mov	 DWORD PTR [ebp-4], -858993460 ; ccccccccH
  0000b	89 4d fc	 mov	 DWORD PTR _this$[ebp], ecx

; 335  : 		for (*pIdx; *pIdx < m_nMax; (*pIdx)++) {

  0000e	eb 0d		 jmp	 SHORT $LN4@getNext
$LN2@getNext:
  00010	8b 45 08	 mov	 eax, DWORD PTR _pIdx$[ebp]
  00013	8b 08		 mov	 ecx, DWORD PTR [eax]
  00015	83 c1 01	 add	 ecx, 1
  00018	8b 55 08	 mov	 edx, DWORD PTR _pIdx$[ebp]
  0001b	89 0a		 mov	 DWORD PTR [edx], ecx
$LN4@getNext:
  0001d	8b 45 08	 mov	 eax, DWORD PTR _pIdx$[ebp]
  00020	8b 4d fc	 mov	 ecx, DWORD PTR _this$[ebp]
  00023	8b 10		 mov	 edx, DWORD PTR [eax]
  00025	3b 51 10	 cmp	 edx, DWORD PTR [ecx+16]
  00028	7d 21		 jge	 SHORT $LN3@getNext

; 336  : 			if (m_pArray[*pIdx]) { return m_pArray[*pIdx]; }

  0002a	8b 45 08	 mov	 eax, DWORD PTR _pIdx$[ebp]
  0002d	8b 08		 mov	 ecx, DWORD PTR [eax]
  0002f	8b 55 fc	 mov	 edx, DWORD PTR _this$[ebp]
  00032	8b 02		 mov	 eax, DWORD PTR [edx]
  00034	83 3c 88 00	 cmp	 DWORD PTR [eax+ecx*4], 0
  00038	74 0f		 je	 SHORT $LN5@getNext
  0003a	8b 4d 08	 mov	 ecx, DWORD PTR _pIdx$[ebp]
  0003d	8b 11		 mov	 edx, DWORD PTR [ecx]
  0003f	8b 45 fc	 mov	 eax, DWORD PTR _this$[ebp]
  00042	8b 08		 mov	 ecx, DWORD PTR [eax]
  00044	8b 04 91	 mov	 eax, DWORD PTR [ecx+edx*4]
  00047	eb 04		 jmp	 SHORT $LN1@getNext
$LN5@getNext:

; 337  : 		}

  00049	eb c5		 jmp	 SHORT $LN2@getNext
$LN3@getNext:

; 338  : 		return NULL;

  0004b	33 c0		 xor	 eax, eax
$LN1@getNext:

; 339  : 	}

  0004d	8b e5		 mov	 esp, ebp
  0004f	5d		 pop	 ebp
  00050	c2 04 00	 ret	 4
?getNext@?$CTList@VCSTLogger@@@@QAEPAVCSTLogger@@PAH@Z ENDP ; CTList<CSTLogger>::getNext
_TEXT	ENDS
; Function compile flags: /Odtp /RTCsu
; File e:\infinia-library-3.0\com\include\comtlist.h
;	COMDAT ?getObj@?$CTList@VCSTLogger@@@@QAEPAVCSTLogger@@H@Z
_TEXT	SEGMENT
_this$ = -4						; size = 4
_i$ = 8							; size = 4
?getObj@?$CTList@VCSTLogger@@@@QAEPAVCSTLogger@@H@Z PROC ; CTList<CSTLogger>::getObj, COMDAT
; _this$ = ecx

; 332  : 	inline T* getObj(int i) { if (ISINCLUDE(i, m_nMax)) return m_pArray[i]; return NULL; }

  00000	55		 push	 ebp
  00001	8b ec		 mov	 ebp, esp
  00003	51		 push	 ecx
  00004	c7 45 fc cc cc
	cc cc		 mov	 DWORD PTR [ebp-4], -858993460 ; ccccccccH
  0000b	89 4d fc	 mov	 DWORD PTR _this$[ebp], ecx
  0000e	8b 45 fc	 mov	 eax, DWORD PTR _this$[ebp]
  00011	8b 48 10	 mov	 ecx, DWORD PTR [eax+16]
  00014	51		 push	 ecx
  00015	8b 55 08	 mov	 edx, DWORD PTR _i$[ebp]
  00018	52		 push	 edx
  00019	e8 00 00 00 00	 call	 ?ISINCLUDE@@YA_NHH@Z	; ISINCLUDE
  0001e	83 c4 08	 add	 esp, 8
  00021	0f b6 c0	 movzx	 eax, al
  00024	85 c0		 test	 eax, eax
  00026	74 0d		 je	 SHORT $LN2@getObj
  00028	8b 4d fc	 mov	 ecx, DWORD PTR _this$[ebp]
  0002b	8b 11		 mov	 edx, DWORD PTR [ecx]
  0002d	8b 45 08	 mov	 eax, DWORD PTR _i$[ebp]
  00030	8b 04 82	 mov	 eax, DWORD PTR [edx+eax*4]
  00033	eb 02		 jmp	 SHORT $LN1@getObj
$LN2@getObj:
  00035	33 c0		 xor	 eax, eax
$LN1@getObj:
  00037	83 c4 04	 add	 esp, 4
  0003a	3b ec		 cmp	 ebp, esp
  0003c	e8 00 00 00 00	 call	 __RTC_CheckEsp
  00041	8b e5		 mov	 esp, ebp
  00043	5d		 pop	 ebp
  00044	c2 04 00	 ret	 4
?getObj@?$CTList@VCSTLogger@@@@QAEPAVCSTLogger@@H@Z ENDP ; CTList<CSTLogger>::getObj
_TEXT	ENDS
; Function compile flags: /Odtp /RTCsu
; File e:\infinia-library-3.0\com\include\comtlist.h
;	COMDAT ?del@?$CTList@VCSTLogger@@@@QAE_NH@Z
_TEXT	SEGMENT
_this$ = -4						; size = 4
_i$ = 8							; size = 4
?del@?$CTList@VCSTLogger@@@@QAE_NH@Z PROC		; CTList<CSTLogger>::del, COMDAT
; _this$ = ecx

; 523  : {

  00000	55		 push	 ebp
  00001	8b ec		 mov	 ebp, esp
  00003	51		 push	 ecx
  00004	c7 45 fc cc cc
	cc cc		 mov	 DWORD PTR [ebp-4], -858993460 ; ccccccccH
  0000b	89 4d fc	 mov	 DWORD PTR _this$[ebp], ecx

; 524  : 	if (!ISINCLUDE(i, m_nMax)) {

  0000e	8b 45 fc	 mov	 eax, DWORD PTR _this$[ebp]
  00011	8b 48 10	 mov	 ecx, DWORD PTR [eax+16]
  00014	51		 push	 ecx
  00015	8b 55 08	 mov	 edx, DWORD PTR _i$[ebp]
  00018	52		 push	 edx
  00019	e8 00 00 00 00	 call	 ?ISINCLUDE@@YA_NHH@Z	; ISINCLUDE
  0001e	83 c4 08	 add	 esp, 8
  00021	0f b6 c0	 movzx	 eax, al
  00024	85 c0		 test	 eax, eax
  00026	75 21		 jne	 SHORT $LN2@del

; 525  : 		_stprintf(g_szMessage, "i[%d] m_nMax[%d]", i, m_nMax);

  00028	8b 4d fc	 mov	 ecx, DWORD PTR _this$[ebp]
  0002b	8b 51 10	 mov	 edx, DWORD PTR [ecx+16]
  0002e	52		 push	 edx
  0002f	8b 45 08	 mov	 eax, DWORD PTR _i$[ebp]
  00032	50		 push	 eax
  00033	68 00 00 00 00	 push	 OFFSET $SG47039
  00038	68 00 00 00 00	 push	 OFFSET ?g_szMessage@@3PADA ; g_szMessage
  0003d	e8 00 00 00 00	 call	 _sprintf
  00042	83 c4 10	 add	 esp, 16			; 00000010H

; 526  : 		return false;

  00045	32 c0		 xor	 al, al
  00047	eb 0e		 jmp	 SHORT $LN1@del
$LN2@del:

; 527  : 	}
; 528  : 	_DEL(i);

  00049	8b 4d 08	 mov	 ecx, DWORD PTR _i$[ebp]
  0004c	51		 push	 ecx
  0004d	8b 4d fc	 mov	 ecx, DWORD PTR _this$[ebp]
  00050	e8 00 00 00 00	 call	 ?_DEL@?$CTList@VCSTLogger@@@@AAEXH@Z ; CTList<CSTLogger>::_DEL

; 529  : 	//_stprintf(g_szMessage, _T("CMemList::del i[%d] m_nLast[%d] m_nCurCount[%d]"), i, m_nLast, m_nUse);
; 530  : 	return true;

  00055	b0 01		 mov	 al, 1
$LN1@del:

; 531  : }

  00057	83 c4 04	 add	 esp, 4
  0005a	3b ec		 cmp	 ebp, esp
  0005c	e8 00 00 00 00	 call	 __RTC_CheckEsp
  00061	8b e5		 mov	 esp, ebp
  00063	5d		 pop	 ebp
  00064	c2 04 00	 ret	 4
?del@?$CTList@VCSTLogger@@@@QAE_NH@Z ENDP		; CTList<CSTLogger>::del
_TEXT	ENDS
; Function compile flags: /Odtp /RTCsu
; File e:\infinia-library-3.0\com\include\comtlist.h
;	COMDAT ?push_back@?$CTList@VCSTLogger@@@@QAE_NPAVCSTLogger@@PAH@Z
_TEXT	SEGMENT
_i$ = -12						; size = 4
_nIdx$ = -8						; size = 4
_this$ = -4						; size = 4
_Obj$ = 8						; size = 4
_pIdx$ = 12						; size = 4
?push_back@?$CTList@VCSTLogger@@@@QAE_NPAVCSTLogger@@PAH@Z PROC ; CTList<CSTLogger>::push_back, COMDAT
; _this$ = ecx

; 472  : {

  00000	55		 push	 ebp
  00001	8b ec		 mov	 ebp, esp
  00003	83 ec 0c	 sub	 esp, 12			; 0000000cH
  00006	c7 45 f4 cc cc
	cc cc		 mov	 DWORD PTR [ebp-12], -858993460 ; ccccccccH
  0000d	c7 45 f8 cc cc
	cc cc		 mov	 DWORD PTR [ebp-8], -858993460 ; ccccccccH
  00014	c7 45 fc cc cc
	cc cc		 mov	 DWORD PTR [ebp-4], -858993460 ; ccccccccH
  0001b	89 4d fc	 mov	 DWORD PTR _this$[ebp], ecx

; 473  : 	int nIdx, i;
; 474  : 
; 475  : 	if (m_nUse >= m_nMax) {

  0001e	8b 45 fc	 mov	 eax, DWORD PTR _this$[ebp]
  00021	8b 4d fc	 mov	 ecx, DWORD PTR _this$[ebp]
  00024	8b 50 04	 mov	 edx, DWORD PTR [eax+4]
  00027	3b 51 10	 cmp	 edx, DWORD PTR [ecx+16]
  0002a	7c 39		 jl	 SHORT $LN5@push_back

; 476  : 		if (!__alloc(m_nMax + TLIST_ADD_SIZE)) return false;

  0002c	8b 45 fc	 mov	 eax, DWORD PTR _this$[ebp]
  0002f	8b 48 10	 mov	 ecx, DWORD PTR [eax+16]
  00032	83 c1 40	 add	 ecx, 64			; 00000040H
  00035	51		 push	 ecx
  00036	8b 4d fc	 mov	 ecx, DWORD PTR _this$[ebp]
  00039	e8 00 00 00 00	 call	 ?__alloc@?$CTList@VCSTLogger@@@@AAEHH@Z ; CTList<CSTLogger>::__alloc
  0003e	85 c0		 test	 eax, eax
  00040	75 07		 jne	 SHORT $LN6@push_back
  00042	32 c0		 xor	 al, al
  00044	e9 cf 00 00 00	 jmp	 $LN1@push_back
$LN6@push_back:

; 477  : 		nIdx = m_nMax;

  00049	8b 55 fc	 mov	 edx, DWORD PTR _this$[ebp]
  0004c	8b 42 10	 mov	 eax, DWORD PTR [edx+16]
  0004f	89 45 f8	 mov	 DWORD PTR _nIdx$[ebp], eax

; 478  : 		m_nMax += TLIST_ADD_SIZE;

  00052	8b 4d fc	 mov	 ecx, DWORD PTR _this$[ebp]
  00055	8b 51 10	 mov	 edx, DWORD PTR [ecx+16]
  00058	83 c2 40	 add	 edx, 64			; 00000040H
  0005b	8b 45 fc	 mov	 eax, DWORD PTR _this$[ebp]
  0005e	89 50 10	 mov	 DWORD PTR [eax+16], edx

; 479  : 		goto ADD_SUCCESS;

  00061	eb 79		 jmp	 SHORT $ADD_SUCCESS$15
  00063	eb 77		 jmp	 SHORT $ADD_SUCCESS$15
$LN5@push_back:

; 480  : 	}
; 481  : 
; 482  : 	if (!m_pArray[m_nLast]) { nIdx = m_nLast;  goto ADD_SUCCESS; }

  00065	8b 4d fc	 mov	 ecx, DWORD PTR _this$[ebp]
  00068	8b 51 08	 mov	 edx, DWORD PTR [ecx+8]
  0006b	8b 45 fc	 mov	 eax, DWORD PTR _this$[ebp]
  0006e	8b 08		 mov	 ecx, DWORD PTR [eax]
  00070	83 3c 91 00	 cmp	 DWORD PTR [ecx+edx*4], 0
  00074	75 0d		 jne	 SHORT $LN8@push_back
  00076	8b 55 fc	 mov	 edx, DWORD PTR _this$[ebp]
  00079	8b 42 08	 mov	 eax, DWORD PTR [edx+8]
  0007c	89 45 f8	 mov	 DWORD PTR _nIdx$[ebp], eax
  0007f	eb 5b		 jmp	 SHORT $ADD_SUCCESS$15
  00081	eb 59		 jmp	 SHORT $ADD_SUCCESS$15
$LN8@push_back:

; 483  : 
; 484  : 	nIdx = m_nLast;

  00083	8b 4d fc	 mov	 ecx, DWORD PTR _this$[ebp]
  00086	8b 51 08	 mov	 edx, DWORD PTR [ecx+8]
  00089	89 55 f8	 mov	 DWORD PTR _nIdx$[ebp], edx

; 485  : 	for (i = 0; i < m_nMax; i++)

  0008c	c7 45 f4 00 00
	00 00		 mov	 DWORD PTR _i$[ebp], 0
  00093	eb 09		 jmp	 SHORT $LN4@push_back
$LN2@push_back:
  00095	8b 45 f4	 mov	 eax, DWORD PTR _i$[ebp]
  00098	83 c0 01	 add	 eax, 1
  0009b	89 45 f4	 mov	 DWORD PTR _i$[ebp], eax
$LN4@push_back:
  0009e	8b 4d fc	 mov	 ecx, DWORD PTR _this$[ebp]
  000a1	8b 55 f4	 mov	 edx, DWORD PTR _i$[ebp]
  000a4	3b 51 10	 cmp	 edx, DWORD PTR [ecx+16]
  000a7	7d 2f		 jge	 SHORT $LN3@push_back

; 486  : 	{
; 487  : 		if (nIdx >= m_nMax) nIdx = 0;

  000a9	8b 45 fc	 mov	 eax, DWORD PTR _this$[ebp]
  000ac	8b 4d f8	 mov	 ecx, DWORD PTR _nIdx$[ebp]
  000af	3b 48 10	 cmp	 ecx, DWORD PTR [eax+16]
  000b2	7c 07		 jl	 SHORT $LN10@push_back
  000b4	c7 45 f8 00 00
	00 00		 mov	 DWORD PTR _nIdx$[ebp], 0
$LN10@push_back:

; 488  : 		if (!m_pArray[nIdx]) {

  000bb	8b 55 fc	 mov	 edx, DWORD PTR _this$[ebp]
  000be	8b 02		 mov	 eax, DWORD PTR [edx]
  000c0	8b 4d f8	 mov	 ecx, DWORD PTR _nIdx$[ebp]
  000c3	83 3c 88 00	 cmp	 DWORD PTR [eax+ecx*4], 0
  000c7	75 04		 jne	 SHORT $LN11@push_back

; 489  : 			goto ADD_SUCCESS;

  000c9	eb 11		 jmp	 SHORT $ADD_SUCCESS$15
  000cb	eb 0f		 jmp	 SHORT $ADD_SUCCESS$15
$LN11@push_back:

; 490  : 		}
; 491  : 		nIdx++;

  000cd	8b 55 f8	 mov	 edx, DWORD PTR _nIdx$[ebp]
  000d0	83 c2 01	 add	 edx, 1
  000d3	89 55 f8	 mov	 DWORD PTR _nIdx$[ebp], edx

; 492  : 	}

  000d6	eb bd		 jmp	 SHORT $LN2@push_back
$LN3@push_back:

; 493  : 	//_stprintf(m_szMessage, _T("add FAIL! m_nLast[%d] m_nCurCount[%d] m_nMax[%d]"), m_nLast, m_nUse, m_nMax);
; 494  : 	return false;

  000d8	32 c0		 xor	 al, al
  000da	eb 3c		 jmp	 SHORT $LN1@push_back
$ADD_SUCCESS$15:

; 495  : 
; 496  : ADD_SUCCESS:
; 497  : 	m_nUse++;

  000dc	8b 45 fc	 mov	 eax, DWORD PTR _this$[ebp]
  000df	8b 48 04	 mov	 ecx, DWORD PTR [eax+4]
  000e2	83 c1 01	 add	 ecx, 1
  000e5	8b 55 fc	 mov	 edx, DWORD PTR _this$[ebp]
  000e8	89 4a 04	 mov	 DWORD PTR [edx+4], ecx

; 498  : 	m_pArray[nIdx] = Obj;

  000eb	8b 45 fc	 mov	 eax, DWORD PTR _this$[ebp]
  000ee	8b 08		 mov	 ecx, DWORD PTR [eax]
  000f0	8b 55 f8	 mov	 edx, DWORD PTR _nIdx$[ebp]
  000f3	8b 45 08	 mov	 eax, DWORD PTR _Obj$[ebp]
  000f6	89 04 91	 mov	 DWORD PTR [ecx+edx*4], eax

; 499  : 	m_nLast++;

  000f9	8b 4d fc	 mov	 ecx, DWORD PTR _this$[ebp]
  000fc	8b 51 08	 mov	 edx, DWORD PTR [ecx+8]
  000ff	83 c2 01	 add	 edx, 1
  00102	8b 45 fc	 mov	 eax, DWORD PTR _this$[ebp]
  00105	89 50 08	 mov	 DWORD PTR [eax+8], edx

; 500  : 	//_stprintf(g_szMessage, _T("CMemList::add i[%d] m_nLast[%d] m_nCurCount[%d]"), nIdx, m_nLast, m_nUse);
; 501  : 	if (pIdx) *pIdx = nIdx;

  00108	83 7d 0c 00	 cmp	 DWORD PTR _pIdx$[ebp], 0
  0010c	74 08		 je	 SHORT $LN13@push_back
  0010e	8b 4d 0c	 mov	 ecx, DWORD PTR _pIdx$[ebp]
  00111	8b 55 f8	 mov	 edx, DWORD PTR _nIdx$[ebp]
  00114	89 11		 mov	 DWORD PTR [ecx], edx
$LN13@push_back:

; 502  : 	return true;

  00116	b0 01		 mov	 al, 1
$LN1@push_back:

; 503  : }

  00118	83 c4 0c	 add	 esp, 12			; 0000000cH
  0011b	3b ec		 cmp	 ebp, esp
  0011d	e8 00 00 00 00	 call	 __RTC_CheckEsp
  00122	8b e5		 mov	 esp, ebp
  00124	5d		 pop	 ebp
  00125	c2 08 00	 ret	 8
?push_back@?$CTList@VCSTLogger@@@@QAE_NPAVCSTLogger@@PAH@Z ENDP ; CTList<CSTLogger>::push_back
_TEXT	ENDS
; Function compile flags: /Odtp /RTCsu
; File e:\infinia-library-3.0\com\include\comtlist.h
;	COMDAT ?alloc@?$CTList@VCSTLogger@@@@QAEHHW4E_ALLOC_TYPE@@@Z
_TEXT	SEGMENT
_this$ = -4						; size = 4
_nMaxCount$ = 8						; size = 4
_type$ = 12						; size = 4
?alloc@?$CTList@VCSTLogger@@@@QAEHHW4E_ALLOC_TYPE@@@Z PROC ; CTList<CSTLogger>::alloc, COMDAT
; _this$ = ecx

; 326  : 	int alloc(int nMaxCount, E_ALLOC_TYPE type = eAlloc_Type_new) { m_nObjAllocType = type;  m_nMax = __alloc(nMaxCount); return m_nMax; }

  00000	55		 push	 ebp
  00001	8b ec		 mov	 ebp, esp
  00003	51		 push	 ecx
  00004	c7 45 fc cc cc
	cc cc		 mov	 DWORD PTR [ebp-4], -858993460 ; ccccccccH
  0000b	89 4d fc	 mov	 DWORD PTR _this$[ebp], ecx
  0000e	8b 45 fc	 mov	 eax, DWORD PTR _this$[ebp]
  00011	8b 4d 0c	 mov	 ecx, DWORD PTR _type$[ebp]
  00014	89 48 14	 mov	 DWORD PTR [eax+20], ecx
  00017	8b 55 08	 mov	 edx, DWORD PTR _nMaxCount$[ebp]
  0001a	52		 push	 edx
  0001b	8b 4d fc	 mov	 ecx, DWORD PTR _this$[ebp]
  0001e	e8 00 00 00 00	 call	 ?__alloc@?$CTList@VCSTLogger@@@@AAEHH@Z ; CTList<CSTLogger>::__alloc
  00023	8b 4d fc	 mov	 ecx, DWORD PTR _this$[ebp]
  00026	89 41 10	 mov	 DWORD PTR [ecx+16], eax
  00029	8b 55 fc	 mov	 edx, DWORD PTR _this$[ebp]
  0002c	8b 42 10	 mov	 eax, DWORD PTR [edx+16]
  0002f	83 c4 04	 add	 esp, 4
  00032	3b ec		 cmp	 ebp, esp
  00034	e8 00 00 00 00	 call	 __RTC_CheckEsp
  00039	8b e5		 mov	 esp, ebp
  0003b	5d		 pop	 ebp
  0003c	c2 08 00	 ret	 8
?alloc@?$CTList@VCSTLogger@@@@QAEHHW4E_ALLOC_TYPE@@@Z ENDP ; CTList<CSTLogger>::alloc
_TEXT	ENDS
; Function compile flags: /Odtp /RTCsu
; File e:\infinia-library-3.0\com\include\comtlist.h
;	COMDAT ??1?$CTList@VCSTLogger@@@@QAE@XZ
_TEXT	SEGMENT
tv94 = -64						; size = 4
tv82 = -60						; size = 4
tv77 = -56						; size = 4
$T2 = -52						; size = 4
$T3 = -48						; size = 4
$T4 = -44						; size = 4
$T5 = -40						; size = 4
_p$6 = -36						; size = 4
_idx$7 = -28						; size = 4
_this$ = -20						; size = 4
__$ArrayPad$ = -16					; size = 4
__$EHRec$ = -12						; size = 12
??1?$CTList@VCSTLogger@@@@QAE@XZ PROC			; CTList<CSTLogger>::~CTList<CSTLogger>, COMDAT
; _this$ = ecx

; 376  : {

  00000	55		 push	 ebp
  00001	8b ec		 mov	 ebp, esp
  00003	6a ff		 push	 -1
  00005	68 00 00 00 00	 push	 __ehhandler$??1?$CTList@VCSTLogger@@@@QAE@XZ
  0000a	64 a1 00 00 00
	00		 mov	 eax, DWORD PTR fs:0
  00010	50		 push	 eax
  00011	83 ec 34	 sub	 esp, 52			; 00000034H
  00014	56		 push	 esi
  00015	57		 push	 edi
  00016	51		 push	 ecx
  00017	8d 7d c0	 lea	 edi, DWORD PTR [ebp-64]
  0001a	b9 0d 00 00 00	 mov	 ecx, 13			; 0000000dH
  0001f	b8 cc cc cc cc	 mov	 eax, -858993460		; ccccccccH
  00024	f3 ab		 rep stosd
  00026	59		 pop	 ecx
  00027	a1 00 00 00 00	 mov	 eax, DWORD PTR ___security_cookie
  0002c	33 c5		 xor	 eax, ebp
  0002e	89 45 f0	 mov	 DWORD PTR __$ArrayPad$[ebp], eax
  00031	50		 push	 eax
  00032	8d 45 f4	 lea	 eax, DWORD PTR __$EHRec$[ebp]
  00035	64 a3 00 00 00
	00		 mov	 DWORD PTR fs:0, eax
  0003b	89 4d ec	 mov	 DWORD PTR _this$[ebp], ecx

; 377  : 	if (!m_pArray) return;

  0003e	8b 45 ec	 mov	 eax, DWORD PTR _this$[ebp]
  00041	83 38 00	 cmp	 DWORD PTR [eax], 0
  00044	75 05		 jne	 SHORT $LN6@CTList
  00046	e9 31 01 00 00	 jmp	 $LN15@CTList
$LN6@CTList:

; 378  : 
; 379  : 	if (ISABLETODELETE(m_nObjAllocType)) {

  0004b	8b 4d ec	 mov	 ecx, DWORD PTR _this$[ebp]
  0004e	8b 51 14	 mov	 edx, DWORD PTR [ecx+20]
  00051	52		 push	 edx
  00052	e8 00 00 00 00	 call	 ?ISABLETODELETE@@YA_NW4E_ALLOC_TYPE@@@Z ; ISABLETODELETE
  00057	83 c4 04	 add	 esp, 4
  0005a	0f b6 c0	 movzx	 eax, al
  0005d	85 c0		 test	 eax, eax
  0005f	0f 84 ee 00 00
	00		 je	 $LN7@CTList

; 380  : 		int idx = 0;

  00065	c7 45 e4 00 00
	00 00		 mov	 DWORD PTR _idx$7[ebp], 0

; 381  : 		T *p = getNext(&idx);

  0006c	8d 4d e4	 lea	 ecx, DWORD PTR _idx$7[ebp]
  0006f	51		 push	 ecx
  00070	8b 4d ec	 mov	 ecx, DWORD PTR _this$[ebp]
  00073	e8 00 00 00 00	 call	 ?getNext@?$CTList@VCSTLogger@@@@QAEPAVCSTLogger@@PAH@Z ; CTList<CSTLogger>::getNext
  00078	89 45 dc	 mov	 DWORD PTR _p$6[ebp], eax
$LN2@CTList:

; 382  : 		while (p) {

  0007b	83 7d dc 00	 cmp	 DWORD PTR _p$6[ebp], 0
  0007f	0f 84 ce 00 00
	00		 je	 $LN7@CTList

; 383  : 			idx++;

  00085	8b 55 e4	 mov	 edx, DWORD PTR _idx$7[ebp]
  00088	83 c2 01	 add	 edx, 1
  0008b	89 55 e4	 mov	 DWORD PTR _idx$7[ebp], edx

; 384  : 			switch (m_nObjAllocType) {

  0008e	8b 45 ec	 mov	 eax, DWORD PTR _this$[ebp]
  00091	8b 48 14	 mov	 ecx, DWORD PTR [eax+20]
  00094	89 4d c8	 mov	 DWORD PTR tv77[ebp], ecx
  00097	8b 55 c8	 mov	 edx, DWORD PTR tv77[ebp]
  0009a	83 ea 02	 sub	 edx, 2
  0009d	89 55 c8	 mov	 DWORD PTR tv77[ebp], edx
  000a0	83 7d c8 03	 cmp	 DWORD PTR tv77[ebp], 3
  000a4	0f 87 95 00 00
	00		 ja	 $LN4@CTList
  000aa	8b 45 c8	 mov	 eax, DWORD PTR tv77[ebp]
  000ad	ff 24 85 00 00
	00 00		 jmp	 DWORD PTR $LN24@CTList[eax*4]
$LN8@CTList:

; 385  : 				case eAlloc_Type_new		:	delete p; break;

  000b4	8b 4d dc	 mov	 ecx, DWORD PTR _p$6[ebp]
  000b7	89 4d d4	 mov	 DWORD PTR $T4[ebp], ecx
  000ba	8b 55 d4	 mov	 edx, DWORD PTR $T4[ebp]
  000bd	89 55 d8	 mov	 DWORD PTR $T5[ebp], edx
  000c0	83 7d d8 00	 cmp	 DWORD PTR $T5[ebp], 0
  000c4	74 0f		 je	 SHORT $LN16@CTList
  000c6	6a 01		 push	 1
  000c8	8b 4d d8	 mov	 ecx, DWORD PTR $T5[ebp]
  000cb	e8 00 00 00 00	 call	 ??_GCSTLogger@@QAEPAXI@Z
  000d0	89 45 c4	 mov	 DWORD PTR tv82[ebp], eax
  000d3	eb 07		 jmp	 SHORT $LN17@CTList
$LN16@CTList:
  000d5	c7 45 c4 00 00
	00 00		 mov	 DWORD PTR tv82[ebp], 0
$LN17@CTList:
  000dc	eb 61		 jmp	 SHORT $LN4@CTList
$LN9@CTList:

; 386  : 				case eAlloc_Type_alloc		:	free(p); break;

  000de	8b f4		 mov	 esi, esp
  000e0	8b 45 dc	 mov	 eax, DWORD PTR _p$6[ebp]
  000e3	50		 push	 eax
  000e4	ff 15 00 00 00
	00		 call	 DWORD PTR __imp__free
  000ea	83 c4 04	 add	 esp, 4
  000ed	3b f4		 cmp	 esi, esp
  000ef	e8 00 00 00 00	 call	 __RTC_CheckEsp
  000f4	eb 49		 jmp	 SHORT $LN4@CTList
$LN10@CTList:

; 387  : 				case eAlloc_Type_BufPool	:	gs_pMMgr->delBuf((char *)p, STRING_SIZE((TCHAR *)p)); break;

  000f6	8b 4d dc	 mov	 ecx, DWORD PTR _p$6[ebp]
  000f9	51		 push	 ecx
  000fa	e8 00 00 00 00	 call	 _strlen
  000ff	83 c4 04	 add	 esp, 4
  00102	83 c0 01	 add	 eax, 1
  00105	50		 push	 eax
  00106	8b 55 dc	 mov	 edx, DWORD PTR _p$6[ebp]
  00109	52		 push	 edx
  0010a	8b 0d 00 00 00
	00		 mov	 ecx, DWORD PTR ?gs_pMMgr@@3PAVCMemManager@@A ; gs_pMMgr
  00110	e8 00 00 00 00	 call	 ?delBuf@CMemManager@@QAEXPADH@Z ; CMemManager::delBuf
  00115	eb 28		 jmp	 SHORT $LN4@CTList
$LN11@CTList:

; 388  : 				case eAlloc_Type_newArray	:	delete[] p; break;

  00117	8b 45 dc	 mov	 eax, DWORD PTR _p$6[ebp]
  0011a	89 45 cc	 mov	 DWORD PTR $T2[ebp], eax
  0011d	8b 4d cc	 mov	 ecx, DWORD PTR $T2[ebp]
  00120	89 4d d0	 mov	 DWORD PTR $T3[ebp], ecx
  00123	83 7d d0 00	 cmp	 DWORD PTR $T3[ebp], 0
  00127	74 0f		 je	 SHORT $LN18@CTList
  00129	6a 03		 push	 3
  0012b	8b 4d d0	 mov	 ecx, DWORD PTR $T3[ebp]
  0012e	e8 00 00 00 00	 call	 ??_ECSTLogger@@QAEPAXI@Z
  00133	89 45 c0	 mov	 DWORD PTR tv94[ebp], eax
  00136	eb 07		 jmp	 SHORT $LN4@CTList
$LN18@CTList:
  00138	c7 45 c0 00 00
	00 00		 mov	 DWORD PTR tv94[ebp], 0
$LN4@CTList:

; 389  : 				case eAlloc_Type_none		:	break;
; 390  : 				case eAlloc_Type_MemPool	:	break;
; 391  : 			}
; 392  : 			p = getNext(&idx);

  0013f	8d 55 e4	 lea	 edx, DWORD PTR _idx$7[ebp]
  00142	52		 push	 edx
  00143	8b 4d ec	 mov	 ecx, DWORD PTR _this$[ebp]
  00146	e8 00 00 00 00	 call	 ?getNext@?$CTList@VCSTLogger@@@@QAEPAVCSTLogger@@PAH@Z ; CTList<CSTLogger>::getNext
  0014b	89 45 dc	 mov	 DWORD PTR _p$6[ebp], eax

; 393  : 		}

  0014e	e9 28 ff ff ff	 jmp	 $LN2@CTList
$LN7@CTList:

; 394  : 	}
; 395  : 
; 396  : 	if (m_pArray)	free(m_pArray);

  00153	8b 45 ec	 mov	 eax, DWORD PTR _this$[ebp]
  00156	83 38 00	 cmp	 DWORD PTR [eax], 0
  00159	74 18		 je	 SHORT $LN14@CTList
  0015b	8b f4		 mov	 esi, esp
  0015d	8b 4d ec	 mov	 ecx, DWORD PTR _this$[ebp]
  00160	8b 11		 mov	 edx, DWORD PTR [ecx]
  00162	52		 push	 edx
  00163	ff 15 00 00 00
	00		 call	 DWORD PTR __imp__free
  00169	83 c4 04	 add	 esp, 4
  0016c	3b f4		 cmp	 esi, esp
  0016e	e8 00 00 00 00	 call	 __RTC_CheckEsp
$LN14@CTList:

; 397  : 	m_pArray = 0;

  00173	8b 45 ec	 mov	 eax, DWORD PTR _this$[ebp]
  00176	c7 00 00 00 00
	00		 mov	 DWORD PTR [eax], 0
$LN15@CTList:

; 398  : }

  0017c	52		 push	 edx
  0017d	8b cd		 mov	 ecx, ebp
  0017f	50		 push	 eax
  00180	8d 15 00 00 00
	00		 lea	 edx, DWORD PTR $LN23@CTList
  00186	e8 00 00 00 00	 call	 @_RTC_CheckStackVars@8
  0018b	58		 pop	 eax
  0018c	5a		 pop	 edx
  0018d	8b 4d f4	 mov	 ecx, DWORD PTR __$EHRec$[ebp]
  00190	64 89 0d 00 00
	00 00		 mov	 DWORD PTR fs:0, ecx
  00197	59		 pop	 ecx
  00198	5f		 pop	 edi
  00199	5e		 pop	 esi
  0019a	8b 4d f0	 mov	 ecx, DWORD PTR __$ArrayPad$[ebp]
  0019d	33 cd		 xor	 ecx, ebp
  0019f	e8 00 00 00 00	 call	 @__security_check_cookie@4
  001a4	83 c4 40	 add	 esp, 64			; 00000040H
  001a7	3b ec		 cmp	 ebp, esp
  001a9	e8 00 00 00 00	 call	 __RTC_CheckEsp
  001ae	8b e5		 mov	 esp, ebp
  001b0	5d		 pop	 ebp
  001b1	c3		 ret	 0
  001b2	66 90		 npad	 2
$LN23@CTList:
  001b4	01 00 00 00	 DD	 1
  001b8	00 00 00 00	 DD	 $LN22@CTList
$LN22@CTList:
  001bc	e4 ff ff ff	 DD	 -28			; ffffffe4H
  001c0	04 00 00 00	 DD	 4
  001c4	00 00 00 00	 DD	 $LN20@CTList
$LN20@CTList:
  001c8	69		 DB	 105			; 00000069H
  001c9	64		 DB	 100			; 00000064H
  001ca	78		 DB	 120			; 00000078H
  001cb	00		 DB	 0
$LN24@CTList:
  001cc	00 00 00 00	 DD	 $LN8@CTList
  001d0	00 00 00 00	 DD	 $LN9@CTList
  001d4	00 00 00 00	 DD	 $LN10@CTList
  001d8	00 00 00 00	 DD	 $LN11@CTList
_TEXT	ENDS
;	COMDAT text$x
text$x	SEGMENT
__ehhandler$??1?$CTList@VCSTLogger@@@@QAE@XZ:
  00000	8b 54 24 08	 mov	 edx, DWORD PTR [esp+8]
  00004	8d 42 0c	 lea	 eax, DWORD PTR [edx+12]
  00007	8b 4a c0	 mov	 ecx, DWORD PTR [edx-64]
  0000a	33 c8		 xor	 ecx, eax
  0000c	e8 00 00 00 00	 call	 @__security_check_cookie@4
  00011	8b 4a fc	 mov	 ecx, DWORD PTR [edx-4]
  00014	33 c8		 xor	 ecx, eax
  00016	e8 00 00 00 00	 call	 @__security_check_cookie@4
  0001b	b8 00 00 00 00	 mov	 eax, OFFSET __ehfuncinfo$??1?$CTList@VCSTLogger@@@@QAE@XZ
  00020	e9 00 00 00 00	 jmp	 ___CxxFrameHandler3
text$x	ENDS
??1?$CTList@VCSTLogger@@@@QAE@XZ ENDP			; CTList<CSTLogger>::~CTList<CSTLogger>
; Function compile flags: /Odtp /RTCsu
; File e:\infinia-library-3.0\com\include\comtlist.h
;	COMDAT ??0?$CTList@VCSTLogger@@@@QAE@XZ
_TEXT	SEGMENT
_this$ = -4						; size = 4
??0?$CTList@VCSTLogger@@@@QAE@XZ PROC			; CTList<CSTLogger>::CTList<CSTLogger>, COMDAT
; _this$ = ecx

; 365  : {

  00000	55		 push	 ebp
  00001	8b ec		 mov	 ebp, esp
  00003	51		 push	 ecx
  00004	c7 45 fc cc cc
	cc cc		 mov	 DWORD PTR [ebp-4], -858993460 ; ccccccccH
  0000b	89 4d fc	 mov	 DWORD PTR _this$[ebp], ecx

; 366  : 	m_pArray = NULL;

  0000e	8b 45 fc	 mov	 eax, DWORD PTR _this$[ebp]
  00011	c7 00 00 00 00
	00		 mov	 DWORD PTR [eax], 0

; 367  : 	m_nUse = 0;

  00017	8b 4d fc	 mov	 ecx, DWORD PTR _this$[ebp]
  0001a	c7 41 04 00 00
	00 00		 mov	 DWORD PTR [ecx+4], 0

; 368  : 	m_nLast = 0;

  00021	8b 55 fc	 mov	 edx, DWORD PTR _this$[ebp]
  00024	c7 42 08 00 00
	00 00		 mov	 DWORD PTR [edx+8], 0

; 369  : 	m_nDelIdx = 0;

  0002b	8b 45 fc	 mov	 eax, DWORD PTR _this$[ebp]
  0002e	c7 40 0c 00 00
	00 00		 mov	 DWORD PTR [eax+12], 0

; 370  : 	m_nMax = 0;

  00035	8b 4d fc	 mov	 ecx, DWORD PTR _this$[ebp]
  00038	c7 41 10 00 00
	00 00		 mov	 DWORD PTR [ecx+16], 0

; 371  : 	m_nObjAllocType = eAlloc_Type_none;

  0003f	8b 55 fc	 mov	 edx, DWORD PTR _this$[ebp]
  00042	c7 42 14 00 00
	00 00		 mov	 DWORD PTR [edx+20], 0

; 372  : }

  00049	8b 45 fc	 mov	 eax, DWORD PTR _this$[ebp]
  0004c	8b e5		 mov	 esp, ebp
  0004e	5d		 pop	 ebp
  0004f	c3		 ret	 0
??0?$CTList@VCSTLogger@@@@QAE@XZ ENDP			; CTList<CSTLogger>::CTList<CSTLogger>
_TEXT	ENDS
; Function compile flags: /Odtp /RTCsu
;	COMDAT ??_G?$CTList@VCLogger@@@@QAEPAXI@Z
_TEXT	SEGMENT
_this$ = -4						; size = 4
___flags$ = 8						; size = 4
??_G?$CTList@VCLogger@@@@QAEPAXI@Z PROC			; CTList<CLogger>::`scalar deleting destructor', COMDAT
; _this$ = ecx
  00000	55		 push	 ebp
  00001	8b ec		 mov	 ebp, esp
  00003	51		 push	 ecx
  00004	c7 45 fc cc cc
	cc cc		 mov	 DWORD PTR [ebp-4], -858993460 ; ccccccccH
  0000b	89 4d fc	 mov	 DWORD PTR _this$[ebp], ecx
  0000e	8b 4d fc	 mov	 ecx, DWORD PTR _this$[ebp]
  00011	e8 00 00 00 00	 call	 ??1?$CTList@VCLogger@@@@QAE@XZ ; CTList<CLogger>::~CTList<CLogger>
  00016	8b 45 08	 mov	 eax, DWORD PTR ___flags$[ebp]
  00019	83 e0 01	 and	 eax, 1
  0001c	74 0e		 je	 SHORT $LN2@scalar
  0001e	6a 18		 push	 24			; 00000018H
  00020	8b 4d fc	 mov	 ecx, DWORD PTR _this$[ebp]
  00023	51		 push	 ecx
  00024	e8 00 00 00 00	 call	 ??3@YAXPAXI@Z		; operator delete
  00029	83 c4 08	 add	 esp, 8
$LN2@scalar:
  0002c	8b 45 fc	 mov	 eax, DWORD PTR _this$[ebp]
  0002f	83 c4 04	 add	 esp, 4
  00032	3b ec		 cmp	 ebp, esp
  00034	e8 00 00 00 00	 call	 __RTC_CheckEsp
  00039	8b e5		 mov	 esp, ebp
  0003b	5d		 pop	 ebp
  0003c	c2 04 00	 ret	 4
??_G?$CTList@VCLogger@@@@QAEPAXI@Z ENDP			; CTList<CLogger>::`scalar deleting destructor'
_TEXT	ENDS
; Function compile flags: /Odtp /RTCsu
;	COMDAT ?__autoclassinit2@?$CTList@VCLogger@@@@QAEXI@Z
_TEXT	SEGMENT
_this$ = -4						; size = 4
_classSize$ = 8						; size = 4
?__autoclassinit2@?$CTList@VCLogger@@@@QAEXI@Z PROC	; CTList<CLogger>::__autoclassinit2, COMDAT
; _this$ = ecx
  00000	55		 push	 ebp
  00001	8b ec		 mov	 ebp, esp
  00003	51		 push	 ecx
  00004	c7 45 fc cc cc
	cc cc		 mov	 DWORD PTR [ebp-4], -858993460 ; ccccccccH
  0000b	89 4d fc	 mov	 DWORD PTR _this$[ebp], ecx
  0000e	8b 45 08	 mov	 eax, DWORD PTR _classSize$[ebp]
  00011	50		 push	 eax
  00012	6a 00		 push	 0
  00014	8b 4d fc	 mov	 ecx, DWORD PTR _this$[ebp]
  00017	51		 push	 ecx
  00018	e8 00 00 00 00	 call	 _memset
  0001d	83 c4 0c	 add	 esp, 12			; 0000000cH
  00020	83 c4 04	 add	 esp, 4
  00023	3b ec		 cmp	 ebp, esp
  00025	e8 00 00 00 00	 call	 __RTC_CheckEsp
  0002a	8b e5		 mov	 esp, ebp
  0002c	5d		 pop	 ebp
  0002d	c2 04 00	 ret	 4
?__autoclassinit2@?$CTList@VCLogger@@@@QAEXI@Z ENDP	; CTList<CLogger>::__autoclassinit2
_TEXT	ENDS
; Function compile flags: /Odtp /RTCsu
; File e:\infinia-library-3.0\com\include\comtlist.h
;	COMDAT ?_DEL@?$CTList@VCLogger@@@@AAEXH@Z
_TEXT	SEGMENT
_this$ = -4						; size = 4
_i$ = 8							; size = 4
?_DEL@?$CTList@VCLogger@@@@AAEXH@Z PROC			; CTList<CLogger>::_DEL, COMDAT
; _this$ = ecx

; 360  : 	inline void _DEL(int i) { m_pArray[i] = 0; m_nUse--; m_nDelIdx = i; }

  00000	55		 push	 ebp
  00001	8b ec		 mov	 ebp, esp
  00003	51		 push	 ecx
  00004	c7 45 fc cc cc
	cc cc		 mov	 DWORD PTR [ebp-4], -858993460 ; ccccccccH
  0000b	89 4d fc	 mov	 DWORD PTR _this$[ebp], ecx
  0000e	8b 45 fc	 mov	 eax, DWORD PTR _this$[ebp]
  00011	8b 08		 mov	 ecx, DWORD PTR [eax]
  00013	8b 55 08	 mov	 edx, DWORD PTR _i$[ebp]
  00016	c7 04 91 00 00
	00 00		 mov	 DWORD PTR [ecx+edx*4], 0
  0001d	8b 45 fc	 mov	 eax, DWORD PTR _this$[ebp]
  00020	8b 48 04	 mov	 ecx, DWORD PTR [eax+4]
  00023	83 e9 01	 sub	 ecx, 1
  00026	8b 55 fc	 mov	 edx, DWORD PTR _this$[ebp]
  00029	89 4a 04	 mov	 DWORD PTR [edx+4], ecx
  0002c	8b 45 fc	 mov	 eax, DWORD PTR _this$[ebp]
  0002f	8b 4d 08	 mov	 ecx, DWORD PTR _i$[ebp]
  00032	89 48 0c	 mov	 DWORD PTR [eax+12], ecx
  00035	8b e5		 mov	 esp, ebp
  00037	5d		 pop	 ebp
  00038	c2 04 00	 ret	 4
?_DEL@?$CTList@VCLogger@@@@AAEXH@Z ENDP			; CTList<CLogger>::_DEL
_TEXT	ENDS
; Function compile flags: /Odtp /RTCsu
; File e:\infinia-library-3.0\com\include\comtlist.h
;	COMDAT ?__alloc@?$CTList@VCLogger@@@@AAEHH@Z
_TEXT	SEGMENT
_pList$ = -8						; size = 4
_this$ = -4						; size = 4
_nMaxCount$ = 8						; size = 4
?__alloc@?$CTList@VCLogger@@@@AAEHH@Z PROC		; CTList<CLogger>::__alloc, COMDAT
; _this$ = ecx

; 402  : {

  00000	55		 push	 ebp
  00001	8b ec		 mov	 ebp, esp
  00003	83 ec 08	 sub	 esp, 8
  00006	56		 push	 esi
  00007	c7 45 f8 cc cc
	cc cc		 mov	 DWORD PTR [ebp-8], -858993460 ; ccccccccH
  0000e	c7 45 fc cc cc
	cc cc		 mov	 DWORD PTR [ebp-4], -858993460 ; ccccccccH
  00015	89 4d fc	 mov	 DWORD PTR _this$[ebp], ecx

; 403  : 	T** pList = (T**)calloc(nMaxCount, sizeof(T*));

  00018	8b f4		 mov	 esi, esp
  0001a	6a 04		 push	 4
  0001c	8b 45 08	 mov	 eax, DWORD PTR _nMaxCount$[ebp]
  0001f	50		 push	 eax
  00020	ff 15 00 00 00
	00		 call	 DWORD PTR __imp__calloc
  00026	83 c4 08	 add	 esp, 8
  00029	3b f4		 cmp	 esi, esp
  0002b	e8 00 00 00 00	 call	 __RTC_CheckEsp
  00030	89 45 f8	 mov	 DWORD PTR _pList$[ebp], eax

; 404  : 	if (!pList) {

  00033	83 7d f8 00	 cmp	 DWORD PTR _pList$[ebp], 0
  00037	75 16		 jne	 SHORT $LN2@alloc

; 405  : 		_stprintf(g_szMessage, "pList calloc is NULL");

  00039	68 00 00 00 00	 push	 OFFSET $SG46872
  0003e	68 00 00 00 00	 push	 OFFSET ?g_szMessage@@3PADA ; g_szMessage
  00043	e8 00 00 00 00	 call	 _sprintf
  00048	83 c4 08	 add	 esp, 8

; 406  : 		return 0;

  0004b	33 c0		 xor	 eax, eax
  0004d	eb 47		 jmp	 SHORT $LN1@alloc
$LN2@alloc:

; 407  : 	}
; 408  : 	//_stprintf(g_szMessage, _T("CTList::__alloc list m_nMaxCount[%d]"), nMaxCount);
; 409  : 	if (m_pArray) {

  0004f	8b 4d fc	 mov	 ecx, DWORD PTR _this$[ebp]
  00052	83 39 00	 cmp	 DWORD PTR [ecx], 0
  00055	74 34		 je	 SHORT $LN3@alloc

; 410  : 		memcpy(pList, m_pArray, m_nMax * sizeof(T*));

  00057	8b 55 fc	 mov	 edx, DWORD PTR _this$[ebp]
  0005a	8b 42 10	 mov	 eax, DWORD PTR [edx+16]
  0005d	c1 e0 02	 shl	 eax, 2
  00060	50		 push	 eax
  00061	8b 4d fc	 mov	 ecx, DWORD PTR _this$[ebp]
  00064	8b 11		 mov	 edx, DWORD PTR [ecx]
  00066	52		 push	 edx
  00067	8b 45 f8	 mov	 eax, DWORD PTR _pList$[ebp]
  0006a	50		 push	 eax
  0006b	e8 00 00 00 00	 call	 _memcpy
  00070	83 c4 0c	 add	 esp, 12			; 0000000cH

; 411  : 		free(m_pArray);

  00073	8b f4		 mov	 esi, esp
  00075	8b 4d fc	 mov	 ecx, DWORD PTR _this$[ebp]
  00078	8b 11		 mov	 edx, DWORD PTR [ecx]
  0007a	52		 push	 edx
  0007b	ff 15 00 00 00
	00		 call	 DWORD PTR __imp__free
  00081	83 c4 04	 add	 esp, 4
  00084	3b f4		 cmp	 esi, esp
  00086	e8 00 00 00 00	 call	 __RTC_CheckEsp
$LN3@alloc:

; 412  : 	}
; 413  : 	m_pArray = pList;

  0008b	8b 45 fc	 mov	 eax, DWORD PTR _this$[ebp]
  0008e	8b 4d f8	 mov	 ecx, DWORD PTR _pList$[ebp]
  00091	89 08		 mov	 DWORD PTR [eax], ecx

; 414  : 	return nMaxCount;

  00093	8b 45 08	 mov	 eax, DWORD PTR _nMaxCount$[ebp]
$LN1@alloc:

; 415  : }

  00096	5e		 pop	 esi
  00097	83 c4 08	 add	 esp, 8
  0009a	3b ec		 cmp	 ebp, esp
  0009c	e8 00 00 00 00	 call	 __RTC_CheckEsp
  000a1	8b e5		 mov	 esp, ebp
  000a3	5d		 pop	 ebp
  000a4	c2 04 00	 ret	 4
?__alloc@?$CTList@VCLogger@@@@AAEHH@Z ENDP		; CTList<CLogger>::__alloc
_TEXT	ENDS
; Function compile flags: /Odtp /RTCsu
; File e:\infinia-library-3.0\com\include\comtlist.h
;	COMDAT ?getNext@?$CTList@VCLogger@@@@QAEPAVCLogger@@PAH@Z
_TEXT	SEGMENT
_this$ = -4						; size = 4
_pIdx$ = 8						; size = 4
?getNext@?$CTList@VCLogger@@@@QAEPAVCLogger@@PAH@Z PROC	; CTList<CLogger>::getNext, COMDAT
; _this$ = ecx

; 334  : 	inline T* getNext(int *pIdx) {

  00000	55		 push	 ebp
  00001	8b ec		 mov	 ebp, esp
  00003	51		 push	 ecx
  00004	c7 45 fc cc cc
	cc cc		 mov	 DWORD PTR [ebp-4], -858993460 ; ccccccccH
  0000b	89 4d fc	 mov	 DWORD PTR _this$[ebp], ecx

; 335  : 		for (*pIdx; *pIdx < m_nMax; (*pIdx)++) {

  0000e	eb 0d		 jmp	 SHORT $LN4@getNext
$LN2@getNext:
  00010	8b 45 08	 mov	 eax, DWORD PTR _pIdx$[ebp]
  00013	8b 08		 mov	 ecx, DWORD PTR [eax]
  00015	83 c1 01	 add	 ecx, 1
  00018	8b 55 08	 mov	 edx, DWORD PTR _pIdx$[ebp]
  0001b	89 0a		 mov	 DWORD PTR [edx], ecx
$LN4@getNext:
  0001d	8b 45 08	 mov	 eax, DWORD PTR _pIdx$[ebp]
  00020	8b 4d fc	 mov	 ecx, DWORD PTR _this$[ebp]
  00023	8b 10		 mov	 edx, DWORD PTR [eax]
  00025	3b 51 10	 cmp	 edx, DWORD PTR [ecx+16]
  00028	7d 21		 jge	 SHORT $LN3@getNext

; 336  : 			if (m_pArray[*pIdx]) { return m_pArray[*pIdx]; }

  0002a	8b 45 08	 mov	 eax, DWORD PTR _pIdx$[ebp]
  0002d	8b 08		 mov	 ecx, DWORD PTR [eax]
  0002f	8b 55 fc	 mov	 edx, DWORD PTR _this$[ebp]
  00032	8b 02		 mov	 eax, DWORD PTR [edx]
  00034	83 3c 88 00	 cmp	 DWORD PTR [eax+ecx*4], 0
  00038	74 0f		 je	 SHORT $LN5@getNext
  0003a	8b 4d 08	 mov	 ecx, DWORD PTR _pIdx$[ebp]
  0003d	8b 11		 mov	 edx, DWORD PTR [ecx]
  0003f	8b 45 fc	 mov	 eax, DWORD PTR _this$[ebp]
  00042	8b 08		 mov	 ecx, DWORD PTR [eax]
  00044	8b 04 91	 mov	 eax, DWORD PTR [ecx+edx*4]
  00047	eb 04		 jmp	 SHORT $LN1@getNext
$LN5@getNext:

; 337  : 		}

  00049	eb c5		 jmp	 SHORT $LN2@getNext
$LN3@getNext:

; 338  : 		return NULL;

  0004b	33 c0		 xor	 eax, eax
$LN1@getNext:

; 339  : 	}

  0004d	8b e5		 mov	 esp, ebp
  0004f	5d		 pop	 ebp
  00050	c2 04 00	 ret	 4
?getNext@?$CTList@VCLogger@@@@QAEPAVCLogger@@PAH@Z ENDP	; CTList<CLogger>::getNext
_TEXT	ENDS
; Function compile flags: /Odtp /RTCsu
; File e:\infinia-library-3.0\com\include\comtlist.h
;	COMDAT ?del@?$CTList@VCLogger@@@@QAE_NPAVCLogger@@@Z
_TEXT	SEGMENT
_i$ = -8						; size = 4
_this$ = -4						; size = 4
_p$ = 8							; size = 4
?del@?$CTList@VCLogger@@@@QAE_NPAVCLogger@@@Z PROC	; CTList<CLogger>::del, COMDAT
; _this$ = ecx

; 508  : {

  00000	55		 push	 ebp
  00001	8b ec		 mov	 ebp, esp
  00003	83 ec 08	 sub	 esp, 8
  00006	c7 45 f8 cc cc
	cc cc		 mov	 DWORD PTR [ebp-8], -858993460 ; ccccccccH
  0000d	c7 45 fc cc cc
	cc cc		 mov	 DWORD PTR [ebp-4], -858993460 ; ccccccccH
  00014	89 4d fc	 mov	 DWORD PTR _this$[ebp], ecx

; 509  : 	int i;
; 510  : 	for (i = 0; i < m_nMax; i++) {

  00017	c7 45 f8 00 00
	00 00		 mov	 DWORD PTR _i$[ebp], 0
  0001e	eb 09		 jmp	 SHORT $LN4@del
$LN2@del:
  00020	8b 45 f8	 mov	 eax, DWORD PTR _i$[ebp]
  00023	83 c0 01	 add	 eax, 1
  00026	89 45 f8	 mov	 DWORD PTR _i$[ebp], eax
$LN4@del:
  00029	8b 4d fc	 mov	 ecx, DWORD PTR _this$[ebp]
  0002c	8b 55 f8	 mov	 edx, DWORD PTR _i$[ebp]
  0002f	3b 51 10	 cmp	 edx, DWORD PTR [ecx+16]
  00032	7d 22		 jge	 SHORT $LN3@del

; 511  : 		if (m_pArray[i] == p) {

  00034	8b 45 fc	 mov	 eax, DWORD PTR _this$[ebp]
  00037	8b 08		 mov	 ecx, DWORD PTR [eax]
  00039	8b 55 f8	 mov	 edx, DWORD PTR _i$[ebp]
  0003c	8b 04 91	 mov	 eax, DWORD PTR [ecx+edx*4]
  0003f	3b 45 08	 cmp	 eax, DWORD PTR _p$[ebp]
  00042	75 10		 jne	 SHORT $LN5@del

; 512  : 			_DEL(i);

  00044	8b 4d f8	 mov	 ecx, DWORD PTR _i$[ebp]
  00047	51		 push	 ecx
  00048	8b 4d fc	 mov	 ecx, DWORD PTR _this$[ebp]
  0004b	e8 00 00 00 00	 call	 ?_DEL@?$CTList@VCLogger@@@@AAEXH@Z ; CTList<CLogger>::_DEL

; 513  : 			//_stprintf(g_szMessage, _T("CMemList::del i[%d] m_nLast[%d] m_nCurCount[%d]"), i, m_nLast, m_nUse);
; 514  : 			return true;

  00050	b0 01		 mov	 al, 1
  00052	eb 21		 jmp	 SHORT $LN1@del
$LN5@del:

; 515  : 		}
; 516  : 	}

  00054	eb ca		 jmp	 SHORT $LN2@del
$LN3@del:

; 517  : 	_stprintf(g_szMessage, " del FAIL! i[%d] m_nMax[%d]", i, m_nMax);

  00056	8b 55 fc	 mov	 edx, DWORD PTR _this$[ebp]
  00059	8b 42 10	 mov	 eax, DWORD PTR [edx+16]
  0005c	50		 push	 eax
  0005d	8b 4d f8	 mov	 ecx, DWORD PTR _i$[ebp]
  00060	51		 push	 ecx
  00061	68 00 00 00 00	 push	 OFFSET $SG46861
  00066	68 00 00 00 00	 push	 OFFSET ?g_szMessage@@3PADA ; g_szMessage
  0006b	e8 00 00 00 00	 call	 _sprintf
  00070	83 c4 10	 add	 esp, 16			; 00000010H

; 518  : 	return false;

  00073	32 c0		 xor	 al, al
$LN1@del:

; 519  : }

  00075	83 c4 08	 add	 esp, 8
  00078	3b ec		 cmp	 ebp, esp
  0007a	e8 00 00 00 00	 call	 __RTC_CheckEsp
  0007f	8b e5		 mov	 esp, ebp
  00081	5d		 pop	 ebp
  00082	c2 04 00	 ret	 4
?del@?$CTList@VCLogger@@@@QAE_NPAVCLogger@@@Z ENDP	; CTList<CLogger>::del
_TEXT	ENDS
; Function compile flags: /Odtp /RTCsu
; File e:\infinia-library-3.0\com\include\comtlist.h
;	COMDAT ?IsExist@?$CTList@VCLogger@@@@QAE_NPAVCLogger@@@Z
_TEXT	SEGMENT
_i$ = -8						; size = 4
_this$ = -4						; size = 4
_p$ = 8							; size = 4
?IsExist@?$CTList@VCLogger@@@@QAE_NPAVCLogger@@@Z PROC	; CTList<CLogger>::IsExist, COMDAT
; _this$ = ecx

; 457  : {

  00000	55		 push	 ebp
  00001	8b ec		 mov	 ebp, esp
  00003	83 ec 08	 sub	 esp, 8
  00006	c7 45 f8 cc cc
	cc cc		 mov	 DWORD PTR [ebp-8], -858993460 ; ccccccccH
  0000d	c7 45 fc cc cc
	cc cc		 mov	 DWORD PTR [ebp-4], -858993460 ; ccccccccH
  00014	89 4d fc	 mov	 DWORD PTR _this$[ebp], ecx

; 458  : 	int i;
; 459  : 	for (i = 0; i < m_nMax; i++)

  00017	c7 45 f8 00 00
	00 00		 mov	 DWORD PTR _i$[ebp], 0
  0001e	eb 09		 jmp	 SHORT $LN4@IsExist
$LN2@IsExist:
  00020	8b 45 f8	 mov	 eax, DWORD PTR _i$[ebp]
  00023	83 c0 01	 add	 eax, 1
  00026	89 45 f8	 mov	 DWORD PTR _i$[ebp], eax
$LN4@IsExist:
  00029	8b 4d fc	 mov	 ecx, DWORD PTR _this$[ebp]
  0002c	8b 55 f8	 mov	 edx, DWORD PTR _i$[ebp]
  0002f	3b 51 10	 cmp	 edx, DWORD PTR [ecx+16]
  00032	7d 24		 jge	 SHORT $LN3@IsExist

; 460  : 	{
; 461  : 		if (m_pArray[i]) {

  00034	8b 45 fc	 mov	 eax, DWORD PTR _this$[ebp]
  00037	8b 08		 mov	 ecx, DWORD PTR [eax]
  00039	8b 55 f8	 mov	 edx, DWORD PTR _i$[ebp]
  0003c	83 3c 91 00	 cmp	 DWORD PTR [ecx+edx*4], 0
  00040	74 14		 je	 SHORT $LN5@IsExist

; 462  : 			if (m_pArray[i] == p) {

  00042	8b 45 fc	 mov	 eax, DWORD PTR _this$[ebp]
  00045	8b 08		 mov	 ecx, DWORD PTR [eax]
  00047	8b 55 f8	 mov	 edx, DWORD PTR _i$[ebp]
  0004a	8b 04 91	 mov	 eax, DWORD PTR [ecx+edx*4]
  0004d	3b 45 08	 cmp	 eax, DWORD PTR _p$[ebp]
  00050	75 04		 jne	 SHORT $LN5@IsExist

; 463  : 				return true;

  00052	b0 01		 mov	 al, 1
  00054	eb 04		 jmp	 SHORT $LN1@IsExist
$LN5@IsExist:

; 464  : 			}
; 465  : 		}
; 466  : 	}

  00056	eb c8		 jmp	 SHORT $LN2@IsExist
$LN3@IsExist:

; 467  : 	return false;

  00058	32 c0		 xor	 al, al
$LN1@IsExist:

; 468  : }

  0005a	8b e5		 mov	 esp, ebp
  0005c	5d		 pop	 ebp
  0005d	c2 04 00	 ret	 4
?IsExist@?$CTList@VCLogger@@@@QAE_NPAVCLogger@@@Z ENDP	; CTList<CLogger>::IsExist
_TEXT	ENDS
; Function compile flags: /Odtp /RTCsu
; File e:\infinia-library-3.0\com\include\comtlist.h
;	COMDAT ?push_back@?$CTList@VCLogger@@@@QAE_NPAVCLogger@@PAH@Z
_TEXT	SEGMENT
_i$ = -12						; size = 4
_nIdx$ = -8						; size = 4
_this$ = -4						; size = 4
_Obj$ = 8						; size = 4
_pIdx$ = 12						; size = 4
?push_back@?$CTList@VCLogger@@@@QAE_NPAVCLogger@@PAH@Z PROC ; CTList<CLogger>::push_back, COMDAT
; _this$ = ecx

; 472  : {

  00000	55		 push	 ebp
  00001	8b ec		 mov	 ebp, esp
  00003	83 ec 0c	 sub	 esp, 12			; 0000000cH
  00006	c7 45 f4 cc cc
	cc cc		 mov	 DWORD PTR [ebp-12], -858993460 ; ccccccccH
  0000d	c7 45 f8 cc cc
	cc cc		 mov	 DWORD PTR [ebp-8], -858993460 ; ccccccccH
  00014	c7 45 fc cc cc
	cc cc		 mov	 DWORD PTR [ebp-4], -858993460 ; ccccccccH
  0001b	89 4d fc	 mov	 DWORD PTR _this$[ebp], ecx

; 473  : 	int nIdx, i;
; 474  : 
; 475  : 	if (m_nUse >= m_nMax) {

  0001e	8b 45 fc	 mov	 eax, DWORD PTR _this$[ebp]
  00021	8b 4d fc	 mov	 ecx, DWORD PTR _this$[ebp]
  00024	8b 50 04	 mov	 edx, DWORD PTR [eax+4]
  00027	3b 51 10	 cmp	 edx, DWORD PTR [ecx+16]
  0002a	7c 39		 jl	 SHORT $LN5@push_back

; 476  : 		if (!__alloc(m_nMax + TLIST_ADD_SIZE)) return false;

  0002c	8b 45 fc	 mov	 eax, DWORD PTR _this$[ebp]
  0002f	8b 48 10	 mov	 ecx, DWORD PTR [eax+16]
  00032	83 c1 40	 add	 ecx, 64			; 00000040H
  00035	51		 push	 ecx
  00036	8b 4d fc	 mov	 ecx, DWORD PTR _this$[ebp]
  00039	e8 00 00 00 00	 call	 ?__alloc@?$CTList@VCLogger@@@@AAEHH@Z ; CTList<CLogger>::__alloc
  0003e	85 c0		 test	 eax, eax
  00040	75 07		 jne	 SHORT $LN6@push_back
  00042	32 c0		 xor	 al, al
  00044	e9 cf 00 00 00	 jmp	 $LN1@push_back
$LN6@push_back:

; 477  : 		nIdx = m_nMax;

  00049	8b 55 fc	 mov	 edx, DWORD PTR _this$[ebp]
  0004c	8b 42 10	 mov	 eax, DWORD PTR [edx+16]
  0004f	89 45 f8	 mov	 DWORD PTR _nIdx$[ebp], eax

; 478  : 		m_nMax += TLIST_ADD_SIZE;

  00052	8b 4d fc	 mov	 ecx, DWORD PTR _this$[ebp]
  00055	8b 51 10	 mov	 edx, DWORD PTR [ecx+16]
  00058	83 c2 40	 add	 edx, 64			; 00000040H
  0005b	8b 45 fc	 mov	 eax, DWORD PTR _this$[ebp]
  0005e	89 50 10	 mov	 DWORD PTR [eax+16], edx

; 479  : 		goto ADD_SUCCESS;

  00061	eb 79		 jmp	 SHORT $ADD_SUCCESS$15
  00063	eb 77		 jmp	 SHORT $ADD_SUCCESS$15
$LN5@push_back:

; 480  : 	}
; 481  : 
; 482  : 	if (!m_pArray[m_nLast]) { nIdx = m_nLast;  goto ADD_SUCCESS; }

  00065	8b 4d fc	 mov	 ecx, DWORD PTR _this$[ebp]
  00068	8b 51 08	 mov	 edx, DWORD PTR [ecx+8]
  0006b	8b 45 fc	 mov	 eax, DWORD PTR _this$[ebp]
  0006e	8b 08		 mov	 ecx, DWORD PTR [eax]
  00070	83 3c 91 00	 cmp	 DWORD PTR [ecx+edx*4], 0
  00074	75 0d		 jne	 SHORT $LN8@push_back
  00076	8b 55 fc	 mov	 edx, DWORD PTR _this$[ebp]
  00079	8b 42 08	 mov	 eax, DWORD PTR [edx+8]
  0007c	89 45 f8	 mov	 DWORD PTR _nIdx$[ebp], eax
  0007f	eb 5b		 jmp	 SHORT $ADD_SUCCESS$15
  00081	eb 59		 jmp	 SHORT $ADD_SUCCESS$15
$LN8@push_back:

; 483  : 
; 484  : 	nIdx = m_nLast;

  00083	8b 4d fc	 mov	 ecx, DWORD PTR _this$[ebp]
  00086	8b 51 08	 mov	 edx, DWORD PTR [ecx+8]
  00089	89 55 f8	 mov	 DWORD PTR _nIdx$[ebp], edx

; 485  : 	for (i = 0; i < m_nMax; i++)

  0008c	c7 45 f4 00 00
	00 00		 mov	 DWORD PTR _i$[ebp], 0
  00093	eb 09		 jmp	 SHORT $LN4@push_back
$LN2@push_back:
  00095	8b 45 f4	 mov	 eax, DWORD PTR _i$[ebp]
  00098	83 c0 01	 add	 eax, 1
  0009b	89 45 f4	 mov	 DWORD PTR _i$[ebp], eax
$LN4@push_back:
  0009e	8b 4d fc	 mov	 ecx, DWORD PTR _this$[ebp]
  000a1	8b 55 f4	 mov	 edx, DWORD PTR _i$[ebp]
  000a4	3b 51 10	 cmp	 edx, DWORD PTR [ecx+16]
  000a7	7d 2f		 jge	 SHORT $LN3@push_back

; 486  : 	{
; 487  : 		if (nIdx >= m_nMax) nIdx = 0;

  000a9	8b 45 fc	 mov	 eax, DWORD PTR _this$[ebp]
  000ac	8b 4d f8	 mov	 ecx, DWORD PTR _nIdx$[ebp]
  000af	3b 48 10	 cmp	 ecx, DWORD PTR [eax+16]
  000b2	7c 07		 jl	 SHORT $LN10@push_back
  000b4	c7 45 f8 00 00
	00 00		 mov	 DWORD PTR _nIdx$[ebp], 0
$LN10@push_back:

; 488  : 		if (!m_pArray[nIdx]) {

  000bb	8b 55 fc	 mov	 edx, DWORD PTR _this$[ebp]
  000be	8b 02		 mov	 eax, DWORD PTR [edx]
  000c0	8b 4d f8	 mov	 ecx, DWORD PTR _nIdx$[ebp]
  000c3	83 3c 88 00	 cmp	 DWORD PTR [eax+ecx*4], 0
  000c7	75 04		 jne	 SHORT $LN11@push_back

; 489  : 			goto ADD_SUCCESS;

  000c9	eb 11		 jmp	 SHORT $ADD_SUCCESS$15
  000cb	eb 0f		 jmp	 SHORT $ADD_SUCCESS$15
$LN11@push_back:

; 490  : 		}
; 491  : 		nIdx++;

  000cd	8b 55 f8	 mov	 edx, DWORD PTR _nIdx$[ebp]
  000d0	83 c2 01	 add	 edx, 1
  000d3	89 55 f8	 mov	 DWORD PTR _nIdx$[ebp], edx

; 492  : 	}

  000d6	eb bd		 jmp	 SHORT $LN2@push_back
$LN3@push_back:

; 493  : 	//_stprintf(m_szMessage, _T("add FAIL! m_nLast[%d] m_nCurCount[%d] m_nMax[%d]"), m_nLast, m_nUse, m_nMax);
; 494  : 	return false;

  000d8	32 c0		 xor	 al, al
  000da	eb 3c		 jmp	 SHORT $LN1@push_back
$ADD_SUCCESS$15:

; 495  : 
; 496  : ADD_SUCCESS:
; 497  : 	m_nUse++;

  000dc	8b 45 fc	 mov	 eax, DWORD PTR _this$[ebp]
  000df	8b 48 04	 mov	 ecx, DWORD PTR [eax+4]
  000e2	83 c1 01	 add	 ecx, 1
  000e5	8b 55 fc	 mov	 edx, DWORD PTR _this$[ebp]
  000e8	89 4a 04	 mov	 DWORD PTR [edx+4], ecx

; 498  : 	m_pArray[nIdx] = Obj;

  000eb	8b 45 fc	 mov	 eax, DWORD PTR _this$[ebp]
  000ee	8b 08		 mov	 ecx, DWORD PTR [eax]
  000f0	8b 55 f8	 mov	 edx, DWORD PTR _nIdx$[ebp]
  000f3	8b 45 08	 mov	 eax, DWORD PTR _Obj$[ebp]
  000f6	89 04 91	 mov	 DWORD PTR [ecx+edx*4], eax

; 499  : 	m_nLast++;

  000f9	8b 4d fc	 mov	 ecx, DWORD PTR _this$[ebp]
  000fc	8b 51 08	 mov	 edx, DWORD PTR [ecx+8]
  000ff	83 c2 01	 add	 edx, 1
  00102	8b 45 fc	 mov	 eax, DWORD PTR _this$[ebp]
  00105	89 50 08	 mov	 DWORD PTR [eax+8], edx

; 500  : 	//_stprintf(g_szMessage, _T("CMemList::add i[%d] m_nLast[%d] m_nCurCount[%d]"), nIdx, m_nLast, m_nUse);
; 501  : 	if (pIdx) *pIdx = nIdx;

  00108	83 7d 0c 00	 cmp	 DWORD PTR _pIdx$[ebp], 0
  0010c	74 08		 je	 SHORT $LN13@push_back
  0010e	8b 4d 0c	 mov	 ecx, DWORD PTR _pIdx$[ebp]
  00111	8b 55 f8	 mov	 edx, DWORD PTR _nIdx$[ebp]
  00114	89 11		 mov	 DWORD PTR [ecx], edx
$LN13@push_back:

; 502  : 	return true;

  00116	b0 01		 mov	 al, 1
$LN1@push_back:

; 503  : }

  00118	83 c4 0c	 add	 esp, 12			; 0000000cH
  0011b	3b ec		 cmp	 ebp, esp
  0011d	e8 00 00 00 00	 call	 __RTC_CheckEsp
  00122	8b e5		 mov	 esp, ebp
  00124	5d		 pop	 ebp
  00125	c2 08 00	 ret	 8
?push_back@?$CTList@VCLogger@@@@QAE_NPAVCLogger@@PAH@Z ENDP ; CTList<CLogger>::push_back
_TEXT	ENDS
; Function compile flags: /Odtp /RTCsu
; File e:\infinia-library-3.0\com\include\comtlist.h
;	COMDAT ?alloc@?$CTList@VCLogger@@@@QAEHHW4E_ALLOC_TYPE@@@Z
_TEXT	SEGMENT
_this$ = -4						; size = 4
_nMaxCount$ = 8						; size = 4
_type$ = 12						; size = 4
?alloc@?$CTList@VCLogger@@@@QAEHHW4E_ALLOC_TYPE@@@Z PROC ; CTList<CLogger>::alloc, COMDAT
; _this$ = ecx

; 326  : 	int alloc(int nMaxCount, E_ALLOC_TYPE type = eAlloc_Type_new) { m_nObjAllocType = type;  m_nMax = __alloc(nMaxCount); return m_nMax; }

  00000	55		 push	 ebp
  00001	8b ec		 mov	 ebp, esp
  00003	51		 push	 ecx
  00004	c7 45 fc cc cc
	cc cc		 mov	 DWORD PTR [ebp-4], -858993460 ; ccccccccH
  0000b	89 4d fc	 mov	 DWORD PTR _this$[ebp], ecx
  0000e	8b 45 fc	 mov	 eax, DWORD PTR _this$[ebp]
  00011	8b 4d 0c	 mov	 ecx, DWORD PTR _type$[ebp]
  00014	89 48 14	 mov	 DWORD PTR [eax+20], ecx
  00017	8b 55 08	 mov	 edx, DWORD PTR _nMaxCount$[ebp]
  0001a	52		 push	 edx
  0001b	8b 4d fc	 mov	 ecx, DWORD PTR _this$[ebp]
  0001e	e8 00 00 00 00	 call	 ?__alloc@?$CTList@VCLogger@@@@AAEHH@Z ; CTList<CLogger>::__alloc
  00023	8b 4d fc	 mov	 ecx, DWORD PTR _this$[ebp]
  00026	89 41 10	 mov	 DWORD PTR [ecx+16], eax
  00029	8b 55 fc	 mov	 edx, DWORD PTR _this$[ebp]
  0002c	8b 42 10	 mov	 eax, DWORD PTR [edx+16]
  0002f	83 c4 04	 add	 esp, 4
  00032	3b ec		 cmp	 ebp, esp
  00034	e8 00 00 00 00	 call	 __RTC_CheckEsp
  00039	8b e5		 mov	 esp, ebp
  0003b	5d		 pop	 ebp
  0003c	c2 08 00	 ret	 8
?alloc@?$CTList@VCLogger@@@@QAEHHW4E_ALLOC_TYPE@@@Z ENDP ; CTList<CLogger>::alloc
_TEXT	ENDS
; Function compile flags: /Odtp /RTCsu
; File e:\infinia-library-3.0\com\include\comtlist.h
;	COMDAT ??1?$CTList@VCLogger@@@@QAE@XZ
_TEXT	SEGMENT
tv94 = -64						; size = 4
tv82 = -60						; size = 4
tv77 = -56						; size = 4
$T2 = -52						; size = 4
$T3 = -48						; size = 4
$T4 = -44						; size = 4
$T5 = -40						; size = 4
_p$6 = -36						; size = 4
_idx$7 = -28						; size = 4
_this$ = -20						; size = 4
__$ArrayPad$ = -16					; size = 4
__$EHRec$ = -12						; size = 12
??1?$CTList@VCLogger@@@@QAE@XZ PROC			; CTList<CLogger>::~CTList<CLogger>, COMDAT
; _this$ = ecx

; 376  : {

  00000	55		 push	 ebp
  00001	8b ec		 mov	 ebp, esp
  00003	6a ff		 push	 -1
  00005	68 00 00 00 00	 push	 __ehhandler$??1?$CTList@VCLogger@@@@QAE@XZ
  0000a	64 a1 00 00 00
	00		 mov	 eax, DWORD PTR fs:0
  00010	50		 push	 eax
  00011	83 ec 34	 sub	 esp, 52			; 00000034H
  00014	56		 push	 esi
  00015	57		 push	 edi
  00016	51		 push	 ecx
  00017	8d 7d c0	 lea	 edi, DWORD PTR [ebp-64]
  0001a	b9 0d 00 00 00	 mov	 ecx, 13			; 0000000dH
  0001f	b8 cc cc cc cc	 mov	 eax, -858993460		; ccccccccH
  00024	f3 ab		 rep stosd
  00026	59		 pop	 ecx
  00027	a1 00 00 00 00	 mov	 eax, DWORD PTR ___security_cookie
  0002c	33 c5		 xor	 eax, ebp
  0002e	89 45 f0	 mov	 DWORD PTR __$ArrayPad$[ebp], eax
  00031	50		 push	 eax
  00032	8d 45 f4	 lea	 eax, DWORD PTR __$EHRec$[ebp]
  00035	64 a3 00 00 00
	00		 mov	 DWORD PTR fs:0, eax
  0003b	89 4d ec	 mov	 DWORD PTR _this$[ebp], ecx

; 377  : 	if (!m_pArray) return;

  0003e	8b 45 ec	 mov	 eax, DWORD PTR _this$[ebp]
  00041	83 38 00	 cmp	 DWORD PTR [eax], 0
  00044	75 05		 jne	 SHORT $LN6@CTList
  00046	e9 31 01 00 00	 jmp	 $LN15@CTList
$LN6@CTList:

; 378  : 
; 379  : 	if (ISABLETODELETE(m_nObjAllocType)) {

  0004b	8b 4d ec	 mov	 ecx, DWORD PTR _this$[ebp]
  0004e	8b 51 14	 mov	 edx, DWORD PTR [ecx+20]
  00051	52		 push	 edx
  00052	e8 00 00 00 00	 call	 ?ISABLETODELETE@@YA_NW4E_ALLOC_TYPE@@@Z ; ISABLETODELETE
  00057	83 c4 04	 add	 esp, 4
  0005a	0f b6 c0	 movzx	 eax, al
  0005d	85 c0		 test	 eax, eax
  0005f	0f 84 ee 00 00
	00		 je	 $LN7@CTList

; 380  : 		int idx = 0;

  00065	c7 45 e4 00 00
	00 00		 mov	 DWORD PTR _idx$7[ebp], 0

; 381  : 		T *p = getNext(&idx);

  0006c	8d 4d e4	 lea	 ecx, DWORD PTR _idx$7[ebp]
  0006f	51		 push	 ecx
  00070	8b 4d ec	 mov	 ecx, DWORD PTR _this$[ebp]
  00073	e8 00 00 00 00	 call	 ?getNext@?$CTList@VCLogger@@@@QAEPAVCLogger@@PAH@Z ; CTList<CLogger>::getNext
  00078	89 45 dc	 mov	 DWORD PTR _p$6[ebp], eax
$LN2@CTList:

; 382  : 		while (p) {

  0007b	83 7d dc 00	 cmp	 DWORD PTR _p$6[ebp], 0
  0007f	0f 84 ce 00 00
	00		 je	 $LN7@CTList

; 383  : 			idx++;

  00085	8b 55 e4	 mov	 edx, DWORD PTR _idx$7[ebp]
  00088	83 c2 01	 add	 edx, 1
  0008b	89 55 e4	 mov	 DWORD PTR _idx$7[ebp], edx

; 384  : 			switch (m_nObjAllocType) {

  0008e	8b 45 ec	 mov	 eax, DWORD PTR _this$[ebp]
  00091	8b 48 14	 mov	 ecx, DWORD PTR [eax+20]
  00094	89 4d c8	 mov	 DWORD PTR tv77[ebp], ecx
  00097	8b 55 c8	 mov	 edx, DWORD PTR tv77[ebp]
  0009a	83 ea 02	 sub	 edx, 2
  0009d	89 55 c8	 mov	 DWORD PTR tv77[ebp], edx
  000a0	83 7d c8 03	 cmp	 DWORD PTR tv77[ebp], 3
  000a4	0f 87 95 00 00
	00		 ja	 $LN4@CTList
  000aa	8b 45 c8	 mov	 eax, DWORD PTR tv77[ebp]
  000ad	ff 24 85 00 00
	00 00		 jmp	 DWORD PTR $LN24@CTList[eax*4]
$LN8@CTList:

; 385  : 				case eAlloc_Type_new		:	delete p; break;

  000b4	8b 4d dc	 mov	 ecx, DWORD PTR _p$6[ebp]
  000b7	89 4d d4	 mov	 DWORD PTR $T4[ebp], ecx
  000ba	8b 55 d4	 mov	 edx, DWORD PTR $T4[ebp]
  000bd	89 55 d8	 mov	 DWORD PTR $T5[ebp], edx
  000c0	83 7d d8 00	 cmp	 DWORD PTR $T5[ebp], 0
  000c4	74 0f		 je	 SHORT $LN16@CTList
  000c6	6a 01		 push	 1
  000c8	8b 4d d8	 mov	 ecx, DWORD PTR $T5[ebp]
  000cb	e8 00 00 00 00	 call	 ??_GCLogger@@QAEPAXI@Z
  000d0	89 45 c4	 mov	 DWORD PTR tv82[ebp], eax
  000d3	eb 07		 jmp	 SHORT $LN17@CTList
$LN16@CTList:
  000d5	c7 45 c4 00 00
	00 00		 mov	 DWORD PTR tv82[ebp], 0
$LN17@CTList:
  000dc	eb 61		 jmp	 SHORT $LN4@CTList
$LN9@CTList:

; 386  : 				case eAlloc_Type_alloc		:	free(p); break;

  000de	8b f4		 mov	 esi, esp
  000e0	8b 45 dc	 mov	 eax, DWORD PTR _p$6[ebp]
  000e3	50		 push	 eax
  000e4	ff 15 00 00 00
	00		 call	 DWORD PTR __imp__free
  000ea	83 c4 04	 add	 esp, 4
  000ed	3b f4		 cmp	 esi, esp
  000ef	e8 00 00 00 00	 call	 __RTC_CheckEsp
  000f4	eb 49		 jmp	 SHORT $LN4@CTList
$LN10@CTList:

; 387  : 				case eAlloc_Type_BufPool	:	gs_pMMgr->delBuf((char *)p, STRING_SIZE((TCHAR *)p)); break;

  000f6	8b 4d dc	 mov	 ecx, DWORD PTR _p$6[ebp]
  000f9	51		 push	 ecx
  000fa	e8 00 00 00 00	 call	 _strlen
  000ff	83 c4 04	 add	 esp, 4
  00102	83 c0 01	 add	 eax, 1
  00105	50		 push	 eax
  00106	8b 55 dc	 mov	 edx, DWORD PTR _p$6[ebp]
  00109	52		 push	 edx
  0010a	8b 0d 00 00 00
	00		 mov	 ecx, DWORD PTR ?gs_pMMgr@@3PAVCMemManager@@A ; gs_pMMgr
  00110	e8 00 00 00 00	 call	 ?delBuf@CMemManager@@QAEXPADH@Z ; CMemManager::delBuf
  00115	eb 28		 jmp	 SHORT $LN4@CTList
$LN11@CTList:

; 388  : 				case eAlloc_Type_newArray	:	delete[] p; break;

  00117	8b 45 dc	 mov	 eax, DWORD PTR _p$6[ebp]
  0011a	89 45 cc	 mov	 DWORD PTR $T2[ebp], eax
  0011d	8b 4d cc	 mov	 ecx, DWORD PTR $T2[ebp]
  00120	89 4d d0	 mov	 DWORD PTR $T3[ebp], ecx
  00123	83 7d d0 00	 cmp	 DWORD PTR $T3[ebp], 0
  00127	74 0f		 je	 SHORT $LN18@CTList
  00129	6a 03		 push	 3
  0012b	8b 4d d0	 mov	 ecx, DWORD PTR $T3[ebp]
  0012e	e8 00 00 00 00	 call	 ??_ECLogger@@QAEPAXI@Z
  00133	89 45 c0	 mov	 DWORD PTR tv94[ebp], eax
  00136	eb 07		 jmp	 SHORT $LN4@CTList
$LN18@CTList:
  00138	c7 45 c0 00 00
	00 00		 mov	 DWORD PTR tv94[ebp], 0
$LN4@CTList:

; 389  : 				case eAlloc_Type_none		:	break;
; 390  : 				case eAlloc_Type_MemPool	:	break;
; 391  : 			}
; 392  : 			p = getNext(&idx);

  0013f	8d 55 e4	 lea	 edx, DWORD PTR _idx$7[ebp]
  00142	52		 push	 edx
  00143	8b 4d ec	 mov	 ecx, DWORD PTR _this$[ebp]
  00146	e8 00 00 00 00	 call	 ?getNext@?$CTList@VCLogger@@@@QAEPAVCLogger@@PAH@Z ; CTList<CLogger>::getNext
  0014b	89 45 dc	 mov	 DWORD PTR _p$6[ebp], eax

; 393  : 		}

  0014e	e9 28 ff ff ff	 jmp	 $LN2@CTList
$LN7@CTList:

; 394  : 	}
; 395  : 
; 396  : 	if (m_pArray)	free(m_pArray);

  00153	8b 45 ec	 mov	 eax, DWORD PTR _this$[ebp]
  00156	83 38 00	 cmp	 DWORD PTR [eax], 0
  00159	74 18		 je	 SHORT $LN14@CTList
  0015b	8b f4		 mov	 esi, esp
  0015d	8b 4d ec	 mov	 ecx, DWORD PTR _this$[ebp]
  00160	8b 11		 mov	 edx, DWORD PTR [ecx]
  00162	52		 push	 edx
  00163	ff 15 00 00 00
	00		 call	 DWORD PTR __imp__free
  00169	83 c4 04	 add	 esp, 4
  0016c	3b f4		 cmp	 esi, esp
  0016e	e8 00 00 00 00	 call	 __RTC_CheckEsp
$LN14@CTList:

; 397  : 	m_pArray = 0;

  00173	8b 45 ec	 mov	 eax, DWORD PTR _this$[ebp]
  00176	c7 00 00 00 00
	00		 mov	 DWORD PTR [eax], 0
$LN15@CTList:

; 398  : }

  0017c	52		 push	 edx
  0017d	8b cd		 mov	 ecx, ebp
  0017f	50		 push	 eax
  00180	8d 15 00 00 00
	00		 lea	 edx, DWORD PTR $LN23@CTList
  00186	e8 00 00 00 00	 call	 @_RTC_CheckStackVars@8
  0018b	58		 pop	 eax
  0018c	5a		 pop	 edx
  0018d	8b 4d f4	 mov	 ecx, DWORD PTR __$EHRec$[ebp]
  00190	64 89 0d 00 00
	00 00		 mov	 DWORD PTR fs:0, ecx
  00197	59		 pop	 ecx
  00198	5f		 pop	 edi
  00199	5e		 pop	 esi
  0019a	8b 4d f0	 mov	 ecx, DWORD PTR __$ArrayPad$[ebp]
  0019d	33 cd		 xor	 ecx, ebp
  0019f	e8 00 00 00 00	 call	 @__security_check_cookie@4
  001a4	83 c4 40	 add	 esp, 64			; 00000040H
  001a7	3b ec		 cmp	 ebp, esp
  001a9	e8 00 00 00 00	 call	 __RTC_CheckEsp
  001ae	8b e5		 mov	 esp, ebp
  001b0	5d		 pop	 ebp
  001b1	c3		 ret	 0
  001b2	66 90		 npad	 2
$LN23@CTList:
  001b4	01 00 00 00	 DD	 1
  001b8	00 00 00 00	 DD	 $LN22@CTList
$LN22@CTList:
  001bc	e4 ff ff ff	 DD	 -28			; ffffffe4H
  001c0	04 00 00 00	 DD	 4
  001c4	00 00 00 00	 DD	 $LN20@CTList
$LN20@CTList:
  001c8	69		 DB	 105			; 00000069H
  001c9	64		 DB	 100			; 00000064H
  001ca	78		 DB	 120			; 00000078H
  001cb	00		 DB	 0
$LN24@CTList:
  001cc	00 00 00 00	 DD	 $LN8@CTList
  001d0	00 00 00 00	 DD	 $LN9@CTList
  001d4	00 00 00 00	 DD	 $LN10@CTList
  001d8	00 00 00 00	 DD	 $LN11@CTList
_TEXT	ENDS
;	COMDAT text$x
text$x	SEGMENT
__ehhandler$??1?$CTList@VCLogger@@@@QAE@XZ:
  00000	8b 54 24 08	 mov	 edx, DWORD PTR [esp+8]
  00004	8d 42 0c	 lea	 eax, DWORD PTR [edx+12]
  00007	8b 4a c0	 mov	 ecx, DWORD PTR [edx-64]
  0000a	33 c8		 xor	 ecx, eax
  0000c	e8 00 00 00 00	 call	 @__security_check_cookie@4
  00011	8b 4a fc	 mov	 ecx, DWORD PTR [edx-4]
  00014	33 c8		 xor	 ecx, eax
  00016	e8 00 00 00 00	 call	 @__security_check_cookie@4
  0001b	b8 00 00 00 00	 mov	 eax, OFFSET __ehfuncinfo$??1?$CTList@VCLogger@@@@QAE@XZ
  00020	e9 00 00 00 00	 jmp	 ___CxxFrameHandler3
text$x	ENDS
??1?$CTList@VCLogger@@@@QAE@XZ ENDP			; CTList<CLogger>::~CTList<CLogger>
; Function compile flags: /Odtp /RTCsu
; File e:\infinia-library-3.0\com\include\comtlist.h
;	COMDAT ??0?$CTList@VCLogger@@@@QAE@XZ
_TEXT	SEGMENT
_this$ = -4						; size = 4
??0?$CTList@VCLogger@@@@QAE@XZ PROC			; CTList<CLogger>::CTList<CLogger>, COMDAT
; _this$ = ecx

; 365  : {

  00000	55		 push	 ebp
  00001	8b ec		 mov	 ebp, esp
  00003	51		 push	 ecx
  00004	c7 45 fc cc cc
	cc cc		 mov	 DWORD PTR [ebp-4], -858993460 ; ccccccccH
  0000b	89 4d fc	 mov	 DWORD PTR _this$[ebp], ecx

; 366  : 	m_pArray = NULL;

  0000e	8b 45 fc	 mov	 eax, DWORD PTR _this$[ebp]
  00011	c7 00 00 00 00
	00		 mov	 DWORD PTR [eax], 0

; 367  : 	m_nUse = 0;

  00017	8b 4d fc	 mov	 ecx, DWORD PTR _this$[ebp]
  0001a	c7 41 04 00 00
	00 00		 mov	 DWORD PTR [ecx+4], 0

; 368  : 	m_nLast = 0;

  00021	8b 55 fc	 mov	 edx, DWORD PTR _this$[ebp]
  00024	c7 42 08 00 00
	00 00		 mov	 DWORD PTR [edx+8], 0

; 369  : 	m_nDelIdx = 0;

  0002b	8b 45 fc	 mov	 eax, DWORD PTR _this$[ebp]
  0002e	c7 40 0c 00 00
	00 00		 mov	 DWORD PTR [eax+12], 0

; 370  : 	m_nMax = 0;

  00035	8b 4d fc	 mov	 ecx, DWORD PTR _this$[ebp]
  00038	c7 41 10 00 00
	00 00		 mov	 DWORD PTR [ecx+16], 0

; 371  : 	m_nObjAllocType = eAlloc_Type_none;

  0003f	8b 55 fc	 mov	 edx, DWORD PTR _this$[ebp]
  00042	c7 42 14 00 00
	00 00		 mov	 DWORD PTR [edx+20], 0

; 372  : }

  00049	8b 45 fc	 mov	 eax, DWORD PTR _this$[ebp]
  0004c	8b e5		 mov	 esp, ebp
  0004e	5d		 pop	 ebp
  0004f	c3		 ret	 0
??0?$CTList@VCLogger@@@@QAE@XZ ENDP			; CTList<CLogger>::CTList<CLogger>
_TEXT	ENDS
; Function compile flags: /Odtp /RTCsu
;	COMDAT ??_G?$CMemPool@USTEvent@@@@QAEPAXI@Z
_TEXT	SEGMENT
_this$ = -4						; size = 4
___flags$ = 8						; size = 4
??_G?$CMemPool@USTEvent@@@@QAEPAXI@Z PROC		; CMemPool<STEvent>::`scalar deleting destructor', COMDAT
; _this$ = ecx
  00000	55		 push	 ebp
  00001	8b ec		 mov	 ebp, esp
  00003	51		 push	 ecx
  00004	c7 45 fc cc cc
	cc cc		 mov	 DWORD PTR [ebp-4], -858993460 ; ccccccccH
  0000b	89 4d fc	 mov	 DWORD PTR _this$[ebp], ecx
  0000e	8b 4d fc	 mov	 ecx, DWORD PTR _this$[ebp]
  00011	e8 00 00 00 00	 call	 ??1?$CMemPool@USTEvent@@@@QAE@XZ ; CMemPool<STEvent>::~CMemPool<STEvent>
  00016	8b 45 08	 mov	 eax, DWORD PTR ___flags$[ebp]
  00019	83 e0 01	 and	 eax, 1
  0001c	74 0e		 je	 SHORT $LN2@scalar
  0001e	6a 18		 push	 24			; 00000018H
  00020	8b 4d fc	 mov	 ecx, DWORD PTR _this$[ebp]
  00023	51		 push	 ecx
  00024	e8 00 00 00 00	 call	 ??3@YAXPAXI@Z		; operator delete
  00029	83 c4 08	 add	 esp, 8
$LN2@scalar:
  0002c	8b 45 fc	 mov	 eax, DWORD PTR _this$[ebp]
  0002f	83 c4 04	 add	 esp, 4
  00032	3b ec		 cmp	 ebp, esp
  00034	e8 00 00 00 00	 call	 __RTC_CheckEsp
  00039	8b e5		 mov	 esp, ebp
  0003b	5d		 pop	 ebp
  0003c	c2 04 00	 ret	 4
??_G?$CMemPool@USTEvent@@@@QAEPAXI@Z ENDP		; CMemPool<STEvent>::`scalar deleting destructor'
_TEXT	ENDS
; Function compile flags: /Odtp /RTCsu
;	COMDAT ?__autoclassinit2@?$CMemPool@USTEvent@@@@QAEXI@Z
_TEXT	SEGMENT
_this$ = -4						; size = 4
_classSize$ = 8						; size = 4
?__autoclassinit2@?$CMemPool@USTEvent@@@@QAEXI@Z PROC	; CMemPool<STEvent>::__autoclassinit2, COMDAT
; _this$ = ecx
  00000	55		 push	 ebp
  00001	8b ec		 mov	 ebp, esp
  00003	51		 push	 ecx
  00004	c7 45 fc cc cc
	cc cc		 mov	 DWORD PTR [ebp-4], -858993460 ; ccccccccH
  0000b	89 4d fc	 mov	 DWORD PTR _this$[ebp], ecx
  0000e	8b 45 08	 mov	 eax, DWORD PTR _classSize$[ebp]
  00011	50		 push	 eax
  00012	6a 00		 push	 0
  00014	8b 4d fc	 mov	 ecx, DWORD PTR _this$[ebp]
  00017	51		 push	 ecx
  00018	e8 00 00 00 00	 call	 _memset
  0001d	83 c4 0c	 add	 esp, 12			; 0000000cH
  00020	83 c4 04	 add	 esp, 4
  00023	3b ec		 cmp	 ebp, esp
  00025	e8 00 00 00 00	 call	 __RTC_CheckEsp
  0002a	8b e5		 mov	 esp, ebp
  0002c	5d		 pop	 ebp
  0002d	c2 04 00	 ret	 4
?__autoclassinit2@?$CMemPool@USTEvent@@@@QAEXI@Z ENDP	; CMemPool<STEvent>::__autoclassinit2
_TEXT	ENDS
; Function compile flags: /Odtp /RTCsu
; File e:\infinia-library-3.0\com\include\commempool.h
;	COMDAT ?delMem@?$CMemPool@USTEvent@@@@QAE_NPAUSTEvent@@@Z
_TEXT	SEGMENT
tv84 = -20						; size = 4
tv80 = -16						; size = 4
$T1 = -12						; size = 4
_nIdx$ = -8						; size = 4
_this$ = -4						; size = 4
_pUsedMem$ = 8						; size = 4
?delMem@?$CMemPool@USTEvent@@@@QAE_NPAUSTEvent@@@Z PROC	; CMemPool<STEvent>::delMem, COMDAT
; _this$ = ecx

; 207  : {

  00000	55		 push	 ebp
  00001	8b ec		 mov	 ebp, esp
  00003	83 ec 14	 sub	 esp, 20			; 00000014H
  00006	56		 push	 esi
  00007	b8 cc cc cc cc	 mov	 eax, -858993460		; ccccccccH
  0000c	89 45 ec	 mov	 DWORD PTR [ebp-20], eax
  0000f	89 45 f0	 mov	 DWORD PTR [ebp-16], eax
  00012	89 45 f4	 mov	 DWORD PTR [ebp-12], eax
  00015	89 45 f8	 mov	 DWORD PTR [ebp-8], eax
  00018	89 45 fc	 mov	 DWORD PTR [ebp-4], eax
  0001b	89 4d fc	 mov	 DWORD PTR _this$[ebp], ecx

; 208  : 	int nIdx = int(pUsedMem - m_pChunk);

  0001e	8b 45 fc	 mov	 eax, DWORD PTR _this$[ebp]
  00021	8b 4d 08	 mov	 ecx, DWORD PTR _pUsedMem$[ebp]
  00024	2b 48 14	 sub	 ecx, DWORD PTR [eax+20]
  00027	8b c1		 mov	 eax, ecx
  00029	99		 cdq
  0002a	b9 14 00 00 00	 mov	 ecx, 20			; 00000014H
  0002f	f7 f9		 idiv	 ecx
  00031	89 45 f8	 mov	 DWORD PTR _nIdx$[ebp], eax

; 209  : 
; 210  : 	if (ISINCLUDE(nIdx, m_nAllocCount)) {

  00034	8b 55 fc	 mov	 edx, DWORD PTR _this$[ebp]
  00037	8b 42 0c	 mov	 eax, DWORD PTR [edx+12]
  0003a	50		 push	 eax
  0003b	8b 4d f8	 mov	 ecx, DWORD PTR _nIdx$[ebp]
  0003e	51		 push	 ecx
  0003f	e8 00 00 00 00	 call	 ?ISINCLUDE@@YA_NHH@Z	; ISINCLUDE
  00044	83 c4 08	 add	 esp, 8
  00047	0f b6 d0	 movzx	 edx, al
  0004a	85 d2		 test	 edx, edx
  0004c	74 1f		 je	 SHORT $LN4@delMem

; 211  : 		m_nFlagArray[nIdx].init();

  0004e	8b 45 fc	 mov	 eax, DWORD PTR _this$[ebp]
  00051	8b 08		 mov	 ecx, DWORD PTR [eax]
  00053	8b 55 f8	 mov	 edx, DWORD PTR _nIdx$[ebp]
  00056	8d 0c 91	 lea	 ecx, DWORD PTR [ecx+edx*4]
  00059	e8 00 00 00 00	 call	 ?init@win_atomic@win32@common@@QAEXXZ ; common::win32::win_atomic::init

; 212  : 		m_nUseCnt.atomic_decrement();

  0005e	8b 4d fc	 mov	 ecx, DWORD PTR _this$[ebp]
  00061	83 c1 04	 add	 ecx, 4
  00064	e8 00 00 00 00	 call	 ?atomic_decrement@win_atomic@win32@common@@QAEJXZ ; common::win32::win_atomic::atomic_decrement

; 213  : 		return true;

  00069	b0 01		 mov	 al, 1
  0006b	eb 67		 jmp	 SHORT $LN1@delMem
$LN4@delMem:

; 214  : 	}
; 215  : 	switch (m_nObjAllocType) {

  0006d	8b 45 fc	 mov	 eax, DWORD PTR _this$[ebp]
  00070	8b 48 10	 mov	 ecx, DWORD PTR [eax+16]
  00073	89 4d f0	 mov	 DWORD PTR tv80[ebp], ecx
  00076	83 7d f0 02	 cmp	 DWORD PTR tv80[ebp], 2
  0007a	74 0e		 je	 SHORT $LN5@delMem
  0007c	83 7d f0 03	 cmp	 DWORD PTR tv80[ebp], 3
  00080	74 3a		 je	 SHORT $LN6@delMem
  00082	83 7d f0 05	 cmp	 DWORD PTR tv80[ebp], 5
  00086	74 02		 je	 SHORT $LN5@delMem
  00088	eb 48		 jmp	 SHORT $LN2@delMem
$LN5@delMem:

; 216  : 	case eAlloc_Type_new:
; 217  : 	case eAlloc_Type_newArray:	delete pUsedMem; break;

  0008a	8b 55 08	 mov	 edx, DWORD PTR _pUsedMem$[ebp]
  0008d	89 55 f4	 mov	 DWORD PTR $T1[ebp], edx
  00090	6a 14		 push	 20			; 00000014H
  00092	8b 45 f4	 mov	 eax, DWORD PTR $T1[ebp]
  00095	50		 push	 eax
  00096	e8 00 00 00 00	 call	 ??3@YAXPAXI@Z		; operator delete
  0009b	83 c4 08	 add	 esp, 8
  0009e	83 7d f4 00	 cmp	 DWORD PTR $T1[ebp], 0
  000a2	75 09		 jne	 SHORT $LN8@delMem
  000a4	c7 45 ec 00 00
	00 00		 mov	 DWORD PTR tv84[ebp], 0
  000ab	eb 0d		 jmp	 SHORT $LN9@delMem
$LN8@delMem:
  000ad	c7 45 08 23 81
	00 00		 mov	 DWORD PTR _pUsedMem$[ebp], 33059 ; 00008123H
  000b4	8b 4d 08	 mov	 ecx, DWORD PTR _pUsedMem$[ebp]
  000b7	89 4d ec	 mov	 DWORD PTR tv84[ebp], ecx
$LN9@delMem:
  000ba	eb 16		 jmp	 SHORT $LN2@delMem
$LN6@delMem:

; 218  : 	case eAlloc_Type_alloc:	free(pUsedMem); break;

  000bc	8b f4		 mov	 esi, esp
  000be	8b 55 08	 mov	 edx, DWORD PTR _pUsedMem$[ebp]
  000c1	52		 push	 edx
  000c2	ff 15 00 00 00
	00		 call	 DWORD PTR __imp__free
  000c8	83 c4 04	 add	 esp, 4
  000cb	3b f4		 cmp	 esi, esp
  000cd	e8 00 00 00 00	 call	 __RTC_CheckEsp
$LN2@delMem:

; 219  : 	}
; 220  : 	return false;

  000d2	32 c0		 xor	 al, al
$LN1@delMem:

; 221  : }

  000d4	5e		 pop	 esi
  000d5	83 c4 14	 add	 esp, 20			; 00000014H
  000d8	3b ec		 cmp	 ebp, esp
  000da	e8 00 00 00 00	 call	 __RTC_CheckEsp
  000df	8b e5		 mov	 esp, ebp
  000e1	5d		 pop	 ebp
  000e2	c2 04 00	 ret	 4
?delMem@?$CMemPool@USTEvent@@@@QAE_NPAUSTEvent@@@Z ENDP	; CMemPool<STEvent>::delMem
_TEXT	ENDS
; Function compile flags: /Odtp /RTCsu
; File e:\infinia-library-3.0\com\include\commempool.h
;	COMDAT ?alloc@?$CMemPool@USTEvent@@@@QAEHHW4E_ALLOC_TYPE@@@Z
_TEXT	SEGMENT
tv164 = -52						; size = 4
tv131 = -48						; size = 4
tv92 = -44						; size = 4
$T2 = -40						; size = 4
$T3 = -36						; size = 4
$T4 = -32						; size = 4
$T5 = -28						; size = 4
$T6 = -24						; size = 4
$T7 = -20						; size = 4
_this$ = -16						; size = 4
__$EHRec$ = -12						; size = 12
_nMaxCount$ = 8						; size = 4
_Alloc_Type$ = 12					; size = 4
?alloc@?$CMemPool@USTEvent@@@@QAEHHW4E_ALLOC_TYPE@@@Z PROC ; CMemPool<STEvent>::alloc, COMDAT
; _this$ = ecx

; 95   : {

  00000	55		 push	 ebp
  00001	8b ec		 mov	 ebp, esp
  00003	6a ff		 push	 -1
  00005	68 00 00 00 00	 push	 __ehhandler$?alloc@?$CMemPool@USTEvent@@@@QAEHHW4E_ALLOC_TYPE@@@Z
  0000a	64 a1 00 00 00
	00		 mov	 eax, DWORD PTR fs:0
  00010	50		 push	 eax
  00011	83 ec 28	 sub	 esp, 40			; 00000028H
  00014	56		 push	 esi
  00015	57		 push	 edi
  00016	51		 push	 ecx
  00017	8d 7d cc	 lea	 edi, DWORD PTR [ebp-52]
  0001a	b9 0a 00 00 00	 mov	 ecx, 10			; 0000000aH
  0001f	b8 cc cc cc cc	 mov	 eax, -858993460		; ccccccccH
  00024	f3 ab		 rep stosd
  00026	59		 pop	 ecx
  00027	a1 00 00 00 00	 mov	 eax, DWORD PTR ___security_cookie
  0002c	33 c5		 xor	 eax, ebp
  0002e	50		 push	 eax
  0002f	8d 45 f4	 lea	 eax, DWORD PTR __$EHRec$[ebp]
  00032	64 a3 00 00 00
	00		 mov	 DWORD PTR fs:0, eax
  00038	89 4d f0	 mov	 DWORD PTR _this$[ebp], ecx

; 96   : 	m_nFlagArray = new (std::nothrow) atomic_nr[nMaxCount];

  0003b	8b 45 08	 mov	 eax, DWORD PTR _nMaxCount$[ebp]
  0003e	89 45 ec	 mov	 DWORD PTR $T7[ebp], eax
  00041	68 00 00 00 00	 push	 OFFSET ?nothrow@std@@3Unothrow_t@1@B ; std::nothrow
  00046	33 c9		 xor	 ecx, ecx
  00048	8b 45 ec	 mov	 eax, DWORD PTR $T7[ebp]
  0004b	ba 04 00 00 00	 mov	 edx, 4
  00050	f7 e2		 mul	 edx
  00052	0f 90 c1	 seto	 cl
  00055	f7 d9		 neg	 ecx
  00057	0b c8		 or	 ecx, eax
  00059	33 c0		 xor	 eax, eax
  0005b	83 c1 04	 add	 ecx, 4
  0005e	0f 92 c0	 setb	 al
  00061	f7 d8		 neg	 eax
  00063	0b c1		 or	 eax, ecx
  00065	50		 push	 eax
  00066	e8 00 00 00 00	 call	 ??_U@YAPAXIABUnothrow_t@std@@@Z ; operator new[]
  0006b	83 c4 08	 add	 esp, 8
  0006e	89 45 e4	 mov	 DWORD PTR $T5[ebp], eax
  00071	c7 45 fc 00 00
	00 00		 mov	 DWORD PTR __$EHRec$[ebp+8], 0
  00078	83 7d e4 00	 cmp	 DWORD PTR $T5[ebp], 0
  0007c	74 2f		 je	 SHORT $LN10@alloc
  0007e	8b 4d e4	 mov	 ecx, DWORD PTR $T5[ebp]
  00081	8b 55 ec	 mov	 edx, DWORD PTR $T7[ebp]
  00084	89 11		 mov	 DWORD PTR [ecx], edx
  00086	68 00 00 00 00	 push	 OFFSET ??1win_atomic@win32@common@@QAE@XZ ; common::win32::win_atomic::~win_atomic
  0008b	68 00 00 00 00	 push	 OFFSET ??0win_atomic@win32@common@@QAE@XZ ; common::win32::win_atomic::win_atomic
  00090	8b 45 ec	 mov	 eax, DWORD PTR $T7[ebp]
  00093	50		 push	 eax
  00094	6a 04		 push	 4
  00096	8b 4d e4	 mov	 ecx, DWORD PTR $T5[ebp]
  00099	83 c1 04	 add	 ecx, 4
  0009c	51		 push	 ecx
  0009d	e8 00 00 00 00	 call	 ??_L@YGXPAXIIP6EX0@Z1@Z
  000a2	8b 55 e4	 mov	 edx, DWORD PTR $T5[ebp]
  000a5	83 c2 04	 add	 edx, 4
  000a8	89 55 d4	 mov	 DWORD PTR tv92[ebp], edx
  000ab	eb 07		 jmp	 SHORT $LN11@alloc
$LN10@alloc:
  000ad	c7 45 d4 00 00
	00 00		 mov	 DWORD PTR tv92[ebp], 0
$LN11@alloc:
  000b4	8b 45 d4	 mov	 eax, DWORD PTR tv92[ebp]
  000b7	89 45 e8	 mov	 DWORD PTR $T6[ebp], eax
  000ba	c7 45 fc ff ff
	ff ff		 mov	 DWORD PTR __$EHRec$[ebp+8], -1
  000c1	8b 4d f0	 mov	 ecx, DWORD PTR _this$[ebp]
  000c4	8b 55 e8	 mov	 edx, DWORD PTR $T6[ebp]
  000c7	89 11		 mov	 DWORD PTR [ecx], edx

; 97   : 	
; 98   : 	if(!m_nFlagArray) {

  000c9	8b 45 f0	 mov	 eax, DWORD PTR _this$[ebp]
  000cc	83 38 00	 cmp	 DWORD PTR [eax], 0
  000cf	75 1d		 jne	 SHORT $LN4@alloc

; 99   : 		_stprintf(g_szMessage, _T("atomic_nr[%d] is NULL"), nMaxCount);

  000d1	8b 4d 08	 mov	 ecx, DWORD PTR _nMaxCount$[ebp]
  000d4	51		 push	 ecx
  000d5	68 00 00 00 00	 push	 OFFSET $SG47386
  000da	68 00 00 00 00	 push	 OFFSET ?g_szMessage@@3PADA ; g_szMessage
  000df	e8 00 00 00 00	 call	 _sprintf
  000e4	83 c4 0c	 add	 esp, 12			; 0000000cH

; 100  : 		return 0;

  000e7	33 c0		 xor	 eax, eax
  000e9	e9 df 00 00 00	 jmp	 $LN1@alloc
$LN4@alloc:

; 101  : 	}
; 102  : 
; 103  : 	m_nObjAllocType = Alloc_Type;

  000ee	8b 55 f0	 mov	 edx, DWORD PTR _this$[ebp]
  000f1	8b 45 0c	 mov	 eax, DWORD PTR _Alloc_Type$[ebp]
  000f4	89 42 10	 mov	 DWORD PTR [edx+16], eax

; 104  : 
; 105  : 	switch (m_nObjAllocType) {

  000f7	8b 4d f0	 mov	 ecx, DWORD PTR _this$[ebp]
  000fa	8b 51 10	 mov	 edx, DWORD PTR [ecx+16]
  000fd	89 55 d0	 mov	 DWORD PTR tv131[ebp], edx
  00100	83 7d d0 02	 cmp	 DWORD PTR tv131[ebp], 2
  00104	74 0e		 je	 SHORT $LN5@alloc
  00106	83 7d d0 03	 cmp	 DWORD PTR tv131[ebp], 3
  0010a	74 37		 je	 SHORT $LN6@alloc
  0010c	83 7d d0 05	 cmp	 DWORD PTR tv131[ebp], 5
  00110	74 02		 je	 SHORT $LN5@alloc
  00112	eb 4d		 jmp	 SHORT $LN2@alloc
$LN5@alloc:

; 106  : 	case eAlloc_Type_new		:
; 107  : 	case eAlloc_Type_newArray	:	m_pChunk = new (std::nothrow) MEMTYPE[nMaxCount]; break;

  00114	68 00 00 00 00	 push	 OFFSET ?nothrow@std@@3Unothrow_t@1@B ; std::nothrow
  00119	33 c9		 xor	 ecx, ecx
  0011b	8b 45 08	 mov	 eax, DWORD PTR _nMaxCount$[ebp]
  0011e	ba 14 00 00 00	 mov	 edx, 20			; 00000014H
  00123	f7 e2		 mul	 edx
  00125	0f 90 c1	 seto	 cl
  00128	f7 d9		 neg	 ecx
  0012a	0b c8		 or	 ecx, eax
  0012c	51		 push	 ecx
  0012d	e8 00 00 00 00	 call	 ??_U@YAPAXIABUnothrow_t@std@@@Z ; operator new[]
  00132	83 c4 08	 add	 esp, 8
  00135	89 45 e0	 mov	 DWORD PTR $T4[ebp], eax
  00138	8b 45 f0	 mov	 eax, DWORD PTR _this$[ebp]
  0013b	8b 4d e0	 mov	 ecx, DWORD PTR $T4[ebp]
  0013e	89 48 14	 mov	 DWORD PTR [eax+20], ecx
  00141	eb 1e		 jmp	 SHORT $LN2@alloc
$LN6@alloc:

; 108  : 	case eAlloc_Type_alloc		:	m_pChunk = (MEMTYPE *)calloc(nMaxCount, sizeof(MEMTYPE)); break;

  00143	8b f4		 mov	 esi, esp
  00145	6a 14		 push	 20			; 00000014H
  00147	8b 55 08	 mov	 edx, DWORD PTR _nMaxCount$[ebp]
  0014a	52		 push	 edx
  0014b	ff 15 00 00 00
	00		 call	 DWORD PTR __imp__calloc
  00151	83 c4 08	 add	 esp, 8
  00154	3b f4		 cmp	 esi, esp
  00156	e8 00 00 00 00	 call	 __RTC_CheckEsp
  0015b	8b 4d f0	 mov	 ecx, DWORD PTR _this$[ebp]
  0015e	89 41 14	 mov	 DWORD PTR [ecx+20], eax
$LN2@alloc:

; 109  : 	default: break;
; 110  : 	}
; 111  : 
; 112  : 
; 113  :     if(!m_pChunk) {

  00161	8b 55 f0	 mov	 edx, DWORD PTR _this$[ebp]
  00164	83 7a 14 00	 cmp	 DWORD PTR [edx+20], 0
  00168	75 4d		 jne	 SHORT $LN8@alloc

; 114  : 		_stprintf(g_szMessage, _T("m_pChunk is NULL [%d]"), nMaxCount);

  0016a	8b 45 08	 mov	 eax, DWORD PTR _nMaxCount$[ebp]
  0016d	50		 push	 eax
  0016e	68 00 00 00 00	 push	 OFFSET $SG47391
  00173	68 00 00 00 00	 push	 OFFSET ?g_szMessage@@3PADA ; g_szMessage
  00178	e8 00 00 00 00	 call	 _sprintf
  0017d	83 c4 0c	 add	 esp, 12			; 0000000cH

; 115  : 		delete[] m_nFlagArray;

  00180	8b 4d f0	 mov	 ecx, DWORD PTR _this$[ebp]
  00183	8b 11		 mov	 edx, DWORD PTR [ecx]
  00185	89 55 d8	 mov	 DWORD PTR $T2[ebp], edx
  00188	8b 45 d8	 mov	 eax, DWORD PTR $T2[ebp]
  0018b	89 45 dc	 mov	 DWORD PTR $T3[ebp], eax
  0018e	83 7d dc 00	 cmp	 DWORD PTR $T3[ebp], 0
  00192	74 0f		 je	 SHORT $LN12@alloc
  00194	6a 03		 push	 3
  00196	8b 4d dc	 mov	 ecx, DWORD PTR $T3[ebp]
  00199	e8 00 00 00 00	 call	 ??_Ewin_atomic@win32@common@@QAEPAXI@Z
  0019e	89 45 cc	 mov	 DWORD PTR tv164[ebp], eax
  001a1	eb 07		 jmp	 SHORT $LN13@alloc
$LN12@alloc:
  001a3	c7 45 cc 00 00
	00 00		 mov	 DWORD PTR tv164[ebp], 0
$LN13@alloc:

; 116  : 		m_nFlagArray = NULL;

  001aa	8b 4d f0	 mov	 ecx, DWORD PTR _this$[ebp]
  001ad	c7 01 00 00 00
	00		 mov	 DWORD PTR [ecx], 0

; 117  : 		return 0;

  001b3	33 c0		 xor	 eax, eax
  001b5	eb 16		 jmp	 SHORT $LN1@alloc
$LN8@alloc:

; 118  :     }
; 119  : 
; 120  :     m_nAllocCount   = nMaxCount;

  001b7	8b 55 f0	 mov	 edx, DWORD PTR _this$[ebp]
  001ba	8b 45 08	 mov	 eax, DWORD PTR _nMaxCount$[ebp]
  001bd	89 42 0c	 mov	 DWORD PTR [edx+12], eax

; 121  : 	clear();

  001c0	8b 4d f0	 mov	 ecx, DWORD PTR _this$[ebp]
  001c3	e8 00 00 00 00	 call	 ?clear@?$CMemPool@USTEvent@@@@QAEXXZ ; CMemPool<STEvent>::clear

; 122  : 	//_stprintf(m_szMessage, _T("mem allock list m_nAllocCount[%d]"), m_nAllocCount);
; 123  : 	return 1;

  001c8	b8 01 00 00 00	 mov	 eax, 1
$LN1@alloc:

; 124  : }

  001cd	8b 4d f4	 mov	 ecx, DWORD PTR __$EHRec$[ebp]
  001d0	64 89 0d 00 00
	00 00		 mov	 DWORD PTR fs:0, ecx
  001d7	59		 pop	 ecx
  001d8	5f		 pop	 edi
  001d9	5e		 pop	 esi
  001da	83 c4 34	 add	 esp, 52			; 00000034H
  001dd	3b ec		 cmp	 ebp, esp
  001df	e8 00 00 00 00	 call	 __RTC_CheckEsp
  001e4	8b e5		 mov	 esp, ebp
  001e6	5d		 pop	 ebp
  001e7	c2 08 00	 ret	 8
_TEXT	ENDS
;	COMDAT text$x
text$x	SEGMENT
__unwindfunclet$?alloc@?$CMemPool@USTEvent@@@@QAEHHW4E_ALLOC_TYPE@@@Z$0:
  00000	68 00 00 00 00	 push	 OFFSET ?nothrow@std@@3Unothrow_t@1@B ; std::nothrow
  00005	8b 45 e4	 mov	 eax, DWORD PTR $T5[ebp]
  00008	50		 push	 eax
  00009	e8 00 00 00 00	 call	 ??_V@YAXPAXABUnothrow_t@std@@@Z ; operator delete[]
  0000e	83 c4 08	 add	 esp, 8
  00011	c3		 ret	 0
__ehhandler$?alloc@?$CMemPool@USTEvent@@@@QAEHHW4E_ALLOC_TYPE@@@Z:
  00012	8b 54 24 08	 mov	 edx, DWORD PTR [esp+8]
  00016	8d 42 0c	 lea	 eax, DWORD PTR [edx+12]
  00019	8b 4a cc	 mov	 ecx, DWORD PTR [edx-52]
  0001c	33 c8		 xor	 ecx, eax
  0001e	e8 00 00 00 00	 call	 @__security_check_cookie@4
  00023	b8 00 00 00 00	 mov	 eax, OFFSET __ehfuncinfo$?alloc@?$CMemPool@USTEvent@@@@QAEHHW4E_ALLOC_TYPE@@@Z
  00028	e9 00 00 00 00	 jmp	 ___CxxFrameHandler3
text$x	ENDS
?alloc@?$CMemPool@USTEvent@@@@QAEHHW4E_ALLOC_TYPE@@@Z ENDP ; CMemPool<STEvent>::alloc
; Function compile flags: /Odtp /RTCsu
; File e:\infinia-library-3.0\com\include\commempool.h
;	COMDAT ?clear@?$CMemPool@USTEvent@@@@QAEXXZ
_TEXT	SEGMENT
_i$ = -8						; size = 4
_this$ = -4						; size = 4
?clear@?$CMemPool@USTEvent@@@@QAEXXZ PROC		; CMemPool<STEvent>::clear, COMDAT
; _this$ = ecx

; 130  : {

  00000	55		 push	 ebp
  00001	8b ec		 mov	 ebp, esp
  00003	83 ec 08	 sub	 esp, 8
  00006	c7 45 f8 cc cc
	cc cc		 mov	 DWORD PTR [ebp-8], -858993460 ; ccccccccH
  0000d	c7 45 fc cc cc
	cc cc		 mov	 DWORD PTR [ebp-4], -858993460 ; ccccccccH
  00014	89 4d fc	 mov	 DWORD PTR _this$[ebp], ecx

; 131  : 	int i;
; 132  : 	m_nUseCnt.init();

  00017	8b 4d fc	 mov	 ecx, DWORD PTR _this$[ebp]
  0001a	83 c1 04	 add	 ecx, 4
  0001d	e8 00 00 00 00	 call	 ?init@win_atomic@win32@common@@QAEXXZ ; common::win32::win_atomic::init

; 133  : 	m_nLastCount = 0;

  00022	8b 45 fc	 mov	 eax, DWORD PTR _this$[ebp]
  00025	c7 40 08 00 00
	00 00		 mov	 DWORD PTR [eax+8], 0

; 134  : 	for(i = 0; i < m_nAllocCount; i++)

  0002c	c7 45 f8 00 00
	00 00		 mov	 DWORD PTR _i$[ebp], 0
  00033	eb 09		 jmp	 SHORT $LN4@clear
$LN2@clear:
  00035	8b 4d f8	 mov	 ecx, DWORD PTR _i$[ebp]
  00038	83 c1 01	 add	 ecx, 1
  0003b	89 4d f8	 mov	 DWORD PTR _i$[ebp], ecx
$LN4@clear:
  0003e	8b 55 fc	 mov	 edx, DWORD PTR _this$[ebp]
  00041	8b 45 f8	 mov	 eax, DWORD PTR _i$[ebp]
  00044	3b 42 0c	 cmp	 eax, DWORD PTR [edx+12]
  00047	7d 12		 jge	 SHORT $LN1@clear

; 135  : 	{
; 136  : 		m_nFlagArray[i].init();

  00049	8b 4d fc	 mov	 ecx, DWORD PTR _this$[ebp]
  0004c	8b 11		 mov	 edx, DWORD PTR [ecx]
  0004e	8b 45 f8	 mov	 eax, DWORD PTR _i$[ebp]
  00051	8d 0c 82	 lea	 ecx, DWORD PTR [edx+eax*4]
  00054	e8 00 00 00 00	 call	 ?init@win_atomic@win32@common@@QAEXXZ ; common::win32::win_atomic::init

; 137  : 	}

  00059	eb da		 jmp	 SHORT $LN2@clear
$LN1@clear:

; 138  : }

  0005b	83 c4 08	 add	 esp, 8
  0005e	3b ec		 cmp	 ebp, esp
  00060	e8 00 00 00 00	 call	 __RTC_CheckEsp
  00065	8b e5		 mov	 esp, ebp
  00067	5d		 pop	 ebp
  00068	c3		 ret	 0
?clear@?$CMemPool@USTEvent@@@@QAEXXZ ENDP		; CMemPool<STEvent>::clear
_TEXT	ENDS
; Function compile flags: /Odtp /RTCsu
; File e:\infinia-library-3.0\com\include\commempool.h
;	COMDAT ??1?$CMemPool@USTEvent@@@@QAE@XZ
_TEXT	SEGMENT
tv78 = -24						; size = 4
tv73 = -20						; size = 4
$T1 = -16						; size = 4
$T2 = -12						; size = 4
$T3 = -8						; size = 4
_this$ = -4						; size = 4
??1?$CMemPool@USTEvent@@@@QAE@XZ PROC			; CMemPool<STEvent>::~CMemPool<STEvent>, COMDAT
; _this$ = ecx

; 75   : {

  00000	55		 push	 ebp
  00001	8b ec		 mov	 ebp, esp
  00003	83 ec 18	 sub	 esp, 24			; 00000018H
  00006	56		 push	 esi
  00007	b8 cc cc cc cc	 mov	 eax, -858993460		; ccccccccH
  0000c	89 45 e8	 mov	 DWORD PTR [ebp-24], eax
  0000f	89 45 ec	 mov	 DWORD PTR [ebp-20], eax
  00012	89 45 f0	 mov	 DWORD PTR [ebp-16], eax
  00015	89 45 f4	 mov	 DWORD PTR [ebp-12], eax
  00018	89 45 f8	 mov	 DWORD PTR [ebp-8], eax
  0001b	89 45 fc	 mov	 DWORD PTR [ebp-4], eax
  0001e	89 4d fc	 mov	 DWORD PTR _this$[ebp], ecx

; 76   : 	if (m_nFlagArray) {

  00021	8b 45 fc	 mov	 eax, DWORD PTR _this$[ebp]
  00024	83 38 00	 cmp	 DWORD PTR [eax], 0
  00027	74 33		 je	 SHORT $LN4@CMemPool

; 77   : 		delete[] m_nFlagArray;

  00029	8b 4d fc	 mov	 ecx, DWORD PTR _this$[ebp]
  0002c	8b 11		 mov	 edx, DWORD PTR [ecx]
  0002e	89 55 f4	 mov	 DWORD PTR $T2[ebp], edx
  00031	8b 45 f4	 mov	 eax, DWORD PTR $T2[ebp]
  00034	89 45 f8	 mov	 DWORD PTR $T3[ebp], eax
  00037	83 7d f8 00	 cmp	 DWORD PTR $T3[ebp], 0
  0003b	74 0f		 je	 SHORT $LN9@CMemPool
  0003d	6a 03		 push	 3
  0003f	8b 4d f8	 mov	 ecx, DWORD PTR $T3[ebp]
  00042	e8 00 00 00 00	 call	 ??_Ewin_atomic@win32@common@@QAEPAXI@Z
  00047	89 45 ec	 mov	 DWORD PTR tv73[ebp], eax
  0004a	eb 07		 jmp	 SHORT $LN10@CMemPool
$LN9@CMemPool:
  0004c	c7 45 ec 00 00
	00 00		 mov	 DWORD PTR tv73[ebp], 0
$LN10@CMemPool:

; 78   : 		m_nFlagArray = NULL;

  00053	8b 4d fc	 mov	 ecx, DWORD PTR _this$[ebp]
  00056	c7 01 00 00 00
	00		 mov	 DWORD PTR [ecx], 0
$LN4@CMemPool:

; 79   : 	}
; 80   : 	
; 81   : 	if(m_pChunk) {

  0005c	8b 55 fc	 mov	 edx, DWORD PTR _this$[ebp]
  0005f	83 7a 14 00	 cmp	 DWORD PTR [edx+20], 0
  00063	74 57		 je	 SHORT $LN1@CMemPool

; 82   : 		switch (m_nObjAllocType) {

  00065	8b 45 fc	 mov	 eax, DWORD PTR _this$[ebp]
  00068	8b 48 10	 mov	 ecx, DWORD PTR [eax+16]
  0006b	89 4d e8	 mov	 DWORD PTR tv78[ebp], ecx
  0006e	83 7d e8 02	 cmp	 DWORD PTR tv78[ebp], 2
  00072	74 0e		 je	 SHORT $LN6@CMemPool
  00074	83 7d e8 03	 cmp	 DWORD PTR tv78[ebp], 3
  00078	74 1f		 je	 SHORT $LN7@CMemPool
  0007a	83 7d e8 05	 cmp	 DWORD PTR tv78[ebp], 5
  0007e	74 02		 je	 SHORT $LN6@CMemPool
  00080	eb 30		 jmp	 SHORT $LN2@CMemPool
$LN6@CMemPool:

; 83   : 		case eAlloc_Type_new:		
; 84   : 		case eAlloc_Type_newArray:	delete[] m_pChunk; break;

  00082	8b 55 fc	 mov	 edx, DWORD PTR _this$[ebp]
  00085	8b 42 14	 mov	 eax, DWORD PTR [edx+20]
  00088	89 45 f0	 mov	 DWORD PTR $T1[ebp], eax
  0008b	8b 4d f0	 mov	 ecx, DWORD PTR $T1[ebp]
  0008e	51		 push	 ecx
  0008f	e8 00 00 00 00	 call	 ??_V@YAXPAX@Z		; operator delete[]
  00094	83 c4 04	 add	 esp, 4
  00097	eb 19		 jmp	 SHORT $LN2@CMemPool
$LN7@CMemPool:

; 85   : 		case eAlloc_Type_alloc:		free(m_pChunk); break;

  00099	8b f4		 mov	 esi, esp
  0009b	8b 55 fc	 mov	 edx, DWORD PTR _this$[ebp]
  0009e	8b 42 14	 mov	 eax, DWORD PTR [edx+20]
  000a1	50		 push	 eax
  000a2	ff 15 00 00 00
	00		 call	 DWORD PTR __imp__free
  000a8	83 c4 04	 add	 esp, 4
  000ab	3b f4		 cmp	 esi, esp
  000ad	e8 00 00 00 00	 call	 __RTC_CheckEsp
$LN2@CMemPool:

; 86   : 		}
; 87   : 		
; 88   : 		m_pChunk = NULL;

  000b2	8b 4d fc	 mov	 ecx, DWORD PTR _this$[ebp]
  000b5	c7 41 14 00 00
	00 00		 mov	 DWORD PTR [ecx+20], 0
$LN1@CMemPool:

; 89   : 	}
; 90   : 
; 91   : }

  000bc	8b 4d fc	 mov	 ecx, DWORD PTR _this$[ebp]
  000bf	83 c1 04	 add	 ecx, 4
  000c2	e8 00 00 00 00	 call	 ??1win_atomic@win32@common@@QAE@XZ ; common::win32::win_atomic::~win_atomic
  000c7	5e		 pop	 esi
  000c8	83 c4 18	 add	 esp, 24			; 00000018H
  000cb	3b ec		 cmp	 ebp, esp
  000cd	e8 00 00 00 00	 call	 __RTC_CheckEsp
  000d2	8b e5		 mov	 esp, ebp
  000d4	5d		 pop	 ebp
  000d5	c3		 ret	 0
??1?$CMemPool@USTEvent@@@@QAE@XZ ENDP			; CMemPool<STEvent>::~CMemPool<STEvent>
_TEXT	ENDS
; Function compile flags: /Odtp /RTCsu
; File e:\infinia-library-3.0\com\include\commempool.h
;	COMDAT ??0?$CMemPool@USTEvent@@@@QAE@XZ
_TEXT	SEGMENT
_this$ = -4						; size = 4
??0?$CMemPool@USTEvent@@@@QAE@XZ PROC			; CMemPool<STEvent>::CMemPool<STEvent>, COMDAT
; _this$ = ecx

; 64   : {

  00000	55		 push	 ebp
  00001	8b ec		 mov	 ebp, esp
  00003	51		 push	 ecx
  00004	c7 45 fc cc cc
	cc cc		 mov	 DWORD PTR [ebp-4], -858993460 ; ccccccccH
  0000b	89 4d fc	 mov	 DWORD PTR _this$[ebp], ecx
  0000e	8b 4d fc	 mov	 ecx, DWORD PTR _this$[ebp]
  00011	83 c1 04	 add	 ecx, 4
  00014	e8 00 00 00 00	 call	 ??0win_atomic@win32@common@@QAE@XZ ; common::win32::win_atomic::win_atomic

; 65   : 	m_nAllocCount = 0;

  00019	8b 45 fc	 mov	 eax, DWORD PTR _this$[ebp]
  0001c	c7 40 0c 00 00
	00 00		 mov	 DWORD PTR [eax+12], 0

; 66   : 	m_nLastCount = 0;

  00023	8b 4d fc	 mov	 ecx, DWORD PTR _this$[ebp]
  00026	c7 41 08 00 00
	00 00		 mov	 DWORD PTR [ecx+8], 0

; 67   : 	//memset(m_szMessage, 0 ,LEN_MEM_MESSAGE);
; 68   : 	m_pChunk = NULL;

  0002d	8b 55 fc	 mov	 edx, DWORD PTR _this$[ebp]
  00030	c7 42 14 00 00
	00 00		 mov	 DWORD PTR [edx+20], 0

; 69   : 	m_nFlagArray = NULL;

  00037	8b 45 fc	 mov	 eax, DWORD PTR _this$[ebp]
  0003a	c7 00 00 00 00
	00		 mov	 DWORD PTR [eax], 0

; 70   : 	m_nObjAllocType = eAlloc_Type_none;

  00040	8b 4d fc	 mov	 ecx, DWORD PTR _this$[ebp]
  00043	c7 41 10 00 00
	00 00		 mov	 DWORD PTR [ecx+16], 0

; 71   : }

  0004a	8b 45 fc	 mov	 eax, DWORD PTR _this$[ebp]
  0004d	83 c4 04	 add	 esp, 4
  00050	3b ec		 cmp	 ebp, esp
  00052	e8 00 00 00 00	 call	 __RTC_CheckEsp
  00057	8b e5		 mov	 esp, ebp
  00059	5d		 pop	 ebp
  0005a	c3		 ret	 0
??0?$CMemPool@USTEvent@@@@QAE@XZ ENDP			; CMemPool<STEvent>::CMemPool<STEvent>
_TEXT	ENDS
; Function compile flags: /Odtp /RTCsu
;	COMDAT ??_G?$CMemPool@USTIntervalInfo@@@@QAEPAXI@Z
_TEXT	SEGMENT
_this$ = -4						; size = 4
___flags$ = 8						; size = 4
??_G?$CMemPool@USTIntervalInfo@@@@QAEPAXI@Z PROC	; CMemPool<STIntervalInfo>::`scalar deleting destructor', COMDAT
; _this$ = ecx
  00000	55		 push	 ebp
  00001	8b ec		 mov	 ebp, esp
  00003	51		 push	 ecx
  00004	c7 45 fc cc cc
	cc cc		 mov	 DWORD PTR [ebp-4], -858993460 ; ccccccccH
  0000b	89 4d fc	 mov	 DWORD PTR _this$[ebp], ecx
  0000e	8b 4d fc	 mov	 ecx, DWORD PTR _this$[ebp]
  00011	e8 00 00 00 00	 call	 ??1?$CMemPool@USTIntervalInfo@@@@QAE@XZ ; CMemPool<STIntervalInfo>::~CMemPool<STIntervalInfo>
  00016	8b 45 08	 mov	 eax, DWORD PTR ___flags$[ebp]
  00019	83 e0 01	 and	 eax, 1
  0001c	74 0e		 je	 SHORT $LN2@scalar
  0001e	6a 18		 push	 24			; 00000018H
  00020	8b 4d fc	 mov	 ecx, DWORD PTR _this$[ebp]
  00023	51		 push	 ecx
  00024	e8 00 00 00 00	 call	 ??3@YAXPAXI@Z		; operator delete
  00029	83 c4 08	 add	 esp, 8
$LN2@scalar:
  0002c	8b 45 fc	 mov	 eax, DWORD PTR _this$[ebp]
  0002f	83 c4 04	 add	 esp, 4
  00032	3b ec		 cmp	 ebp, esp
  00034	e8 00 00 00 00	 call	 __RTC_CheckEsp
  00039	8b e5		 mov	 esp, ebp
  0003b	5d		 pop	 ebp
  0003c	c2 04 00	 ret	 4
??_G?$CMemPool@USTIntervalInfo@@@@QAEPAXI@Z ENDP	; CMemPool<STIntervalInfo>::`scalar deleting destructor'
_TEXT	ENDS
; Function compile flags: /Odtp /RTCsu
;	COMDAT ?__autoclassinit2@?$CMemPool@USTIntervalInfo@@@@QAEXI@Z
_TEXT	SEGMENT
_this$ = -4						; size = 4
_classSize$ = 8						; size = 4
?__autoclassinit2@?$CMemPool@USTIntervalInfo@@@@QAEXI@Z PROC ; CMemPool<STIntervalInfo>::__autoclassinit2, COMDAT
; _this$ = ecx
  00000	55		 push	 ebp
  00001	8b ec		 mov	 ebp, esp
  00003	51		 push	 ecx
  00004	c7 45 fc cc cc
	cc cc		 mov	 DWORD PTR [ebp-4], -858993460 ; ccccccccH
  0000b	89 4d fc	 mov	 DWORD PTR _this$[ebp], ecx
  0000e	8b 45 08	 mov	 eax, DWORD PTR _classSize$[ebp]
  00011	50		 push	 eax
  00012	6a 00		 push	 0
  00014	8b 4d fc	 mov	 ecx, DWORD PTR _this$[ebp]
  00017	51		 push	 ecx
  00018	e8 00 00 00 00	 call	 _memset
  0001d	83 c4 0c	 add	 esp, 12			; 0000000cH
  00020	83 c4 04	 add	 esp, 4
  00023	3b ec		 cmp	 ebp, esp
  00025	e8 00 00 00 00	 call	 __RTC_CheckEsp
  0002a	8b e5		 mov	 esp, ebp
  0002c	5d		 pop	 ebp
  0002d	c2 04 00	 ret	 4
?__autoclassinit2@?$CMemPool@USTIntervalInfo@@@@QAEXI@Z ENDP ; CMemPool<STIntervalInfo>::__autoclassinit2
_TEXT	ENDS
; Function compile flags: /Odtp /RTCsu
; File e:\infinia-library-3.0\com\include\commempool.h
;	COMDAT ?alloc@?$CMemPool@USTIntervalInfo@@@@QAEHHW4E_ALLOC_TYPE@@@Z
_TEXT	SEGMENT
tv164 = -52						; size = 4
tv131 = -48						; size = 4
tv92 = -44						; size = 4
$T2 = -40						; size = 4
$T3 = -36						; size = 4
$T4 = -32						; size = 4
$T5 = -28						; size = 4
$T6 = -24						; size = 4
$T7 = -20						; size = 4
_this$ = -16						; size = 4
__$EHRec$ = -12						; size = 12
_nMaxCount$ = 8						; size = 4
_Alloc_Type$ = 12					; size = 4
?alloc@?$CMemPool@USTIntervalInfo@@@@QAEHHW4E_ALLOC_TYPE@@@Z PROC ; CMemPool<STIntervalInfo>::alloc, COMDAT
; _this$ = ecx

; 95   : {

  00000	55		 push	 ebp
  00001	8b ec		 mov	 ebp, esp
  00003	6a ff		 push	 -1
  00005	68 00 00 00 00	 push	 __ehhandler$?alloc@?$CMemPool@USTIntervalInfo@@@@QAEHHW4E_ALLOC_TYPE@@@Z
  0000a	64 a1 00 00 00
	00		 mov	 eax, DWORD PTR fs:0
  00010	50		 push	 eax
  00011	83 ec 28	 sub	 esp, 40			; 00000028H
  00014	56		 push	 esi
  00015	57		 push	 edi
  00016	51		 push	 ecx
  00017	8d 7d cc	 lea	 edi, DWORD PTR [ebp-52]
  0001a	b9 0a 00 00 00	 mov	 ecx, 10			; 0000000aH
  0001f	b8 cc cc cc cc	 mov	 eax, -858993460		; ccccccccH
  00024	f3 ab		 rep stosd
  00026	59		 pop	 ecx
  00027	a1 00 00 00 00	 mov	 eax, DWORD PTR ___security_cookie
  0002c	33 c5		 xor	 eax, ebp
  0002e	50		 push	 eax
  0002f	8d 45 f4	 lea	 eax, DWORD PTR __$EHRec$[ebp]
  00032	64 a3 00 00 00
	00		 mov	 DWORD PTR fs:0, eax
  00038	89 4d f0	 mov	 DWORD PTR _this$[ebp], ecx

; 96   : 	m_nFlagArray = new (std::nothrow) atomic_nr[nMaxCount];

  0003b	8b 45 08	 mov	 eax, DWORD PTR _nMaxCount$[ebp]
  0003e	89 45 ec	 mov	 DWORD PTR $T7[ebp], eax
  00041	68 00 00 00 00	 push	 OFFSET ?nothrow@std@@3Unothrow_t@1@B ; std::nothrow
  00046	33 c9		 xor	 ecx, ecx
  00048	8b 45 ec	 mov	 eax, DWORD PTR $T7[ebp]
  0004b	ba 04 00 00 00	 mov	 edx, 4
  00050	f7 e2		 mul	 edx
  00052	0f 90 c1	 seto	 cl
  00055	f7 d9		 neg	 ecx
  00057	0b c8		 or	 ecx, eax
  00059	33 c0		 xor	 eax, eax
  0005b	83 c1 04	 add	 ecx, 4
  0005e	0f 92 c0	 setb	 al
  00061	f7 d8		 neg	 eax
  00063	0b c1		 or	 eax, ecx
  00065	50		 push	 eax
  00066	e8 00 00 00 00	 call	 ??_U@YAPAXIABUnothrow_t@std@@@Z ; operator new[]
  0006b	83 c4 08	 add	 esp, 8
  0006e	89 45 e4	 mov	 DWORD PTR $T5[ebp], eax
  00071	c7 45 fc 00 00
	00 00		 mov	 DWORD PTR __$EHRec$[ebp+8], 0
  00078	83 7d e4 00	 cmp	 DWORD PTR $T5[ebp], 0
  0007c	74 2f		 je	 SHORT $LN10@alloc
  0007e	8b 4d e4	 mov	 ecx, DWORD PTR $T5[ebp]
  00081	8b 55 ec	 mov	 edx, DWORD PTR $T7[ebp]
  00084	89 11		 mov	 DWORD PTR [ecx], edx
  00086	68 00 00 00 00	 push	 OFFSET ??1win_atomic@win32@common@@QAE@XZ ; common::win32::win_atomic::~win_atomic
  0008b	68 00 00 00 00	 push	 OFFSET ??0win_atomic@win32@common@@QAE@XZ ; common::win32::win_atomic::win_atomic
  00090	8b 45 ec	 mov	 eax, DWORD PTR $T7[ebp]
  00093	50		 push	 eax
  00094	6a 04		 push	 4
  00096	8b 4d e4	 mov	 ecx, DWORD PTR $T5[ebp]
  00099	83 c1 04	 add	 ecx, 4
  0009c	51		 push	 ecx
  0009d	e8 00 00 00 00	 call	 ??_L@YGXPAXIIP6EX0@Z1@Z
  000a2	8b 55 e4	 mov	 edx, DWORD PTR $T5[ebp]
  000a5	83 c2 04	 add	 edx, 4
  000a8	89 55 d4	 mov	 DWORD PTR tv92[ebp], edx
  000ab	eb 07		 jmp	 SHORT $LN11@alloc
$LN10@alloc:
  000ad	c7 45 d4 00 00
	00 00		 mov	 DWORD PTR tv92[ebp], 0
$LN11@alloc:
  000b4	8b 45 d4	 mov	 eax, DWORD PTR tv92[ebp]
  000b7	89 45 e8	 mov	 DWORD PTR $T6[ebp], eax
  000ba	c7 45 fc ff ff
	ff ff		 mov	 DWORD PTR __$EHRec$[ebp+8], -1
  000c1	8b 4d f0	 mov	 ecx, DWORD PTR _this$[ebp]
  000c4	8b 55 e8	 mov	 edx, DWORD PTR $T6[ebp]
  000c7	89 11		 mov	 DWORD PTR [ecx], edx

; 97   : 	
; 98   : 	if(!m_nFlagArray) {

  000c9	8b 45 f0	 mov	 eax, DWORD PTR _this$[ebp]
  000cc	83 38 00	 cmp	 DWORD PTR [eax], 0
  000cf	75 1d		 jne	 SHORT $LN4@alloc

; 99   : 		_stprintf(g_szMessage, _T("atomic_nr[%d] is NULL"), nMaxCount);

  000d1	8b 4d 08	 mov	 ecx, DWORD PTR _nMaxCount$[ebp]
  000d4	51		 push	 ecx
  000d5	68 00 00 00 00	 push	 OFFSET $SG47310
  000da	68 00 00 00 00	 push	 OFFSET ?g_szMessage@@3PADA ; g_szMessage
  000df	e8 00 00 00 00	 call	 _sprintf
  000e4	83 c4 0c	 add	 esp, 12			; 0000000cH

; 100  : 		return 0;

  000e7	33 c0		 xor	 eax, eax
  000e9	e9 df 00 00 00	 jmp	 $LN1@alloc
$LN4@alloc:

; 101  : 	}
; 102  : 
; 103  : 	m_nObjAllocType = Alloc_Type;

  000ee	8b 55 f0	 mov	 edx, DWORD PTR _this$[ebp]
  000f1	8b 45 0c	 mov	 eax, DWORD PTR _Alloc_Type$[ebp]
  000f4	89 42 10	 mov	 DWORD PTR [edx+16], eax

; 104  : 
; 105  : 	switch (m_nObjAllocType) {

  000f7	8b 4d f0	 mov	 ecx, DWORD PTR _this$[ebp]
  000fa	8b 51 10	 mov	 edx, DWORD PTR [ecx+16]
  000fd	89 55 d0	 mov	 DWORD PTR tv131[ebp], edx
  00100	83 7d d0 02	 cmp	 DWORD PTR tv131[ebp], 2
  00104	74 0e		 je	 SHORT $LN5@alloc
  00106	83 7d d0 03	 cmp	 DWORD PTR tv131[ebp], 3
  0010a	74 37		 je	 SHORT $LN6@alloc
  0010c	83 7d d0 05	 cmp	 DWORD PTR tv131[ebp], 5
  00110	74 02		 je	 SHORT $LN5@alloc
  00112	eb 4d		 jmp	 SHORT $LN2@alloc
$LN5@alloc:

; 106  : 	case eAlloc_Type_new		:
; 107  : 	case eAlloc_Type_newArray	:	m_pChunk = new (std::nothrow) MEMTYPE[nMaxCount]; break;

  00114	68 00 00 00 00	 push	 OFFSET ?nothrow@std@@3Unothrow_t@1@B ; std::nothrow
  00119	33 c9		 xor	 ecx, ecx
  0011b	8b 45 08	 mov	 eax, DWORD PTR _nMaxCount$[ebp]
  0011e	ba 1c 00 00 00	 mov	 edx, 28			; 0000001cH
  00123	f7 e2		 mul	 edx
  00125	0f 90 c1	 seto	 cl
  00128	f7 d9		 neg	 ecx
  0012a	0b c8		 or	 ecx, eax
  0012c	51		 push	 ecx
  0012d	e8 00 00 00 00	 call	 ??_U@YAPAXIABUnothrow_t@std@@@Z ; operator new[]
  00132	83 c4 08	 add	 esp, 8
  00135	89 45 e0	 mov	 DWORD PTR $T4[ebp], eax
  00138	8b 45 f0	 mov	 eax, DWORD PTR _this$[ebp]
  0013b	8b 4d e0	 mov	 ecx, DWORD PTR $T4[ebp]
  0013e	89 48 14	 mov	 DWORD PTR [eax+20], ecx
  00141	eb 1e		 jmp	 SHORT $LN2@alloc
$LN6@alloc:

; 108  : 	case eAlloc_Type_alloc		:	m_pChunk = (MEMTYPE *)calloc(nMaxCount, sizeof(MEMTYPE)); break;

  00143	8b f4		 mov	 esi, esp
  00145	6a 1c		 push	 28			; 0000001cH
  00147	8b 55 08	 mov	 edx, DWORD PTR _nMaxCount$[ebp]
  0014a	52		 push	 edx
  0014b	ff 15 00 00 00
	00		 call	 DWORD PTR __imp__calloc
  00151	83 c4 08	 add	 esp, 8
  00154	3b f4		 cmp	 esi, esp
  00156	e8 00 00 00 00	 call	 __RTC_CheckEsp
  0015b	8b 4d f0	 mov	 ecx, DWORD PTR _this$[ebp]
  0015e	89 41 14	 mov	 DWORD PTR [ecx+20], eax
$LN2@alloc:

; 109  : 	default: break;
; 110  : 	}
; 111  : 
; 112  : 
; 113  :     if(!m_pChunk) {

  00161	8b 55 f0	 mov	 edx, DWORD PTR _this$[ebp]
  00164	83 7a 14 00	 cmp	 DWORD PTR [edx+20], 0
  00168	75 4d		 jne	 SHORT $LN8@alloc

; 114  : 		_stprintf(g_szMessage, _T("m_pChunk is NULL [%d]"), nMaxCount);

  0016a	8b 45 08	 mov	 eax, DWORD PTR _nMaxCount$[ebp]
  0016d	50		 push	 eax
  0016e	68 00 00 00 00	 push	 OFFSET $SG47315
  00173	68 00 00 00 00	 push	 OFFSET ?g_szMessage@@3PADA ; g_szMessage
  00178	e8 00 00 00 00	 call	 _sprintf
  0017d	83 c4 0c	 add	 esp, 12			; 0000000cH

; 115  : 		delete[] m_nFlagArray;

  00180	8b 4d f0	 mov	 ecx, DWORD PTR _this$[ebp]
  00183	8b 11		 mov	 edx, DWORD PTR [ecx]
  00185	89 55 d8	 mov	 DWORD PTR $T2[ebp], edx
  00188	8b 45 d8	 mov	 eax, DWORD PTR $T2[ebp]
  0018b	89 45 dc	 mov	 DWORD PTR $T3[ebp], eax
  0018e	83 7d dc 00	 cmp	 DWORD PTR $T3[ebp], 0
  00192	74 0f		 je	 SHORT $LN12@alloc
  00194	6a 03		 push	 3
  00196	8b 4d dc	 mov	 ecx, DWORD PTR $T3[ebp]
  00199	e8 00 00 00 00	 call	 ??_Ewin_atomic@win32@common@@QAEPAXI@Z
  0019e	89 45 cc	 mov	 DWORD PTR tv164[ebp], eax
  001a1	eb 07		 jmp	 SHORT $LN13@alloc
$LN12@alloc:
  001a3	c7 45 cc 00 00
	00 00		 mov	 DWORD PTR tv164[ebp], 0
$LN13@alloc:

; 116  : 		m_nFlagArray = NULL;

  001aa	8b 4d f0	 mov	 ecx, DWORD PTR _this$[ebp]
  001ad	c7 01 00 00 00
	00		 mov	 DWORD PTR [ecx], 0

; 117  : 		return 0;

  001b3	33 c0		 xor	 eax, eax
  001b5	eb 16		 jmp	 SHORT $LN1@alloc
$LN8@alloc:

; 118  :     }
; 119  : 
; 120  :     m_nAllocCount   = nMaxCount;

  001b7	8b 55 f0	 mov	 edx, DWORD PTR _this$[ebp]
  001ba	8b 45 08	 mov	 eax, DWORD PTR _nMaxCount$[ebp]
  001bd	89 42 0c	 mov	 DWORD PTR [edx+12], eax

; 121  : 	clear();

  001c0	8b 4d f0	 mov	 ecx, DWORD PTR _this$[ebp]
  001c3	e8 00 00 00 00	 call	 ?clear@?$CMemPool@USTIntervalInfo@@@@QAEXXZ ; CMemPool<STIntervalInfo>::clear

; 122  : 	//_stprintf(m_szMessage, _T("mem allock list m_nAllocCount[%d]"), m_nAllocCount);
; 123  : 	return 1;

  001c8	b8 01 00 00 00	 mov	 eax, 1
$LN1@alloc:

; 124  : }

  001cd	8b 4d f4	 mov	 ecx, DWORD PTR __$EHRec$[ebp]
  001d0	64 89 0d 00 00
	00 00		 mov	 DWORD PTR fs:0, ecx
  001d7	59		 pop	 ecx
  001d8	5f		 pop	 edi
  001d9	5e		 pop	 esi
  001da	83 c4 34	 add	 esp, 52			; 00000034H
  001dd	3b ec		 cmp	 ebp, esp
  001df	e8 00 00 00 00	 call	 __RTC_CheckEsp
  001e4	8b e5		 mov	 esp, ebp
  001e6	5d		 pop	 ebp
  001e7	c2 08 00	 ret	 8
_TEXT	ENDS
;	COMDAT text$x
text$x	SEGMENT
__unwindfunclet$?alloc@?$CMemPool@USTIntervalInfo@@@@QAEHHW4E_ALLOC_TYPE@@@Z$0:
  00000	68 00 00 00 00	 push	 OFFSET ?nothrow@std@@3Unothrow_t@1@B ; std::nothrow
  00005	8b 45 e4	 mov	 eax, DWORD PTR $T5[ebp]
  00008	50		 push	 eax
  00009	e8 00 00 00 00	 call	 ??_V@YAXPAXABUnothrow_t@std@@@Z ; operator delete[]
  0000e	83 c4 08	 add	 esp, 8
  00011	c3		 ret	 0
__ehhandler$?alloc@?$CMemPool@USTIntervalInfo@@@@QAEHHW4E_ALLOC_TYPE@@@Z:
  00012	8b 54 24 08	 mov	 edx, DWORD PTR [esp+8]
  00016	8d 42 0c	 lea	 eax, DWORD PTR [edx+12]
  00019	8b 4a cc	 mov	 ecx, DWORD PTR [edx-52]
  0001c	33 c8		 xor	 ecx, eax
  0001e	e8 00 00 00 00	 call	 @__security_check_cookie@4
  00023	b8 00 00 00 00	 mov	 eax, OFFSET __ehfuncinfo$?alloc@?$CMemPool@USTIntervalInfo@@@@QAEHHW4E_ALLOC_TYPE@@@Z
  00028	e9 00 00 00 00	 jmp	 ___CxxFrameHandler3
text$x	ENDS
?alloc@?$CMemPool@USTIntervalInfo@@@@QAEHHW4E_ALLOC_TYPE@@@Z ENDP ; CMemPool<STIntervalInfo>::alloc
; Function compile flags: /Odtp /RTCsu
; File e:\infinia-library-3.0\com\include\commempool.h
;	COMDAT ?clear@?$CMemPool@USTIntervalInfo@@@@QAEXXZ
_TEXT	SEGMENT
_i$ = -8						; size = 4
_this$ = -4						; size = 4
?clear@?$CMemPool@USTIntervalInfo@@@@QAEXXZ PROC	; CMemPool<STIntervalInfo>::clear, COMDAT
; _this$ = ecx

; 130  : {

  00000	55		 push	 ebp
  00001	8b ec		 mov	 ebp, esp
  00003	83 ec 08	 sub	 esp, 8
  00006	c7 45 f8 cc cc
	cc cc		 mov	 DWORD PTR [ebp-8], -858993460 ; ccccccccH
  0000d	c7 45 fc cc cc
	cc cc		 mov	 DWORD PTR [ebp-4], -858993460 ; ccccccccH
  00014	89 4d fc	 mov	 DWORD PTR _this$[ebp], ecx

; 131  : 	int i;
; 132  : 	m_nUseCnt.init();

  00017	8b 4d fc	 mov	 ecx, DWORD PTR _this$[ebp]
  0001a	83 c1 04	 add	 ecx, 4
  0001d	e8 00 00 00 00	 call	 ?init@win_atomic@win32@common@@QAEXXZ ; common::win32::win_atomic::init

; 133  : 	m_nLastCount = 0;

  00022	8b 45 fc	 mov	 eax, DWORD PTR _this$[ebp]
  00025	c7 40 08 00 00
	00 00		 mov	 DWORD PTR [eax+8], 0

; 134  : 	for(i = 0; i < m_nAllocCount; i++)

  0002c	c7 45 f8 00 00
	00 00		 mov	 DWORD PTR _i$[ebp], 0
  00033	eb 09		 jmp	 SHORT $LN4@clear
$LN2@clear:
  00035	8b 4d f8	 mov	 ecx, DWORD PTR _i$[ebp]
  00038	83 c1 01	 add	 ecx, 1
  0003b	89 4d f8	 mov	 DWORD PTR _i$[ebp], ecx
$LN4@clear:
  0003e	8b 55 fc	 mov	 edx, DWORD PTR _this$[ebp]
  00041	8b 45 f8	 mov	 eax, DWORD PTR _i$[ebp]
  00044	3b 42 0c	 cmp	 eax, DWORD PTR [edx+12]
  00047	7d 12		 jge	 SHORT $LN1@clear

; 135  : 	{
; 136  : 		m_nFlagArray[i].init();

  00049	8b 4d fc	 mov	 ecx, DWORD PTR _this$[ebp]
  0004c	8b 11		 mov	 edx, DWORD PTR [ecx]
  0004e	8b 45 f8	 mov	 eax, DWORD PTR _i$[ebp]
  00051	8d 0c 82	 lea	 ecx, DWORD PTR [edx+eax*4]
  00054	e8 00 00 00 00	 call	 ?init@win_atomic@win32@common@@QAEXXZ ; common::win32::win_atomic::init

; 137  : 	}

  00059	eb da		 jmp	 SHORT $LN2@clear
$LN1@clear:

; 138  : }

  0005b	83 c4 08	 add	 esp, 8
  0005e	3b ec		 cmp	 ebp, esp
  00060	e8 00 00 00 00	 call	 __RTC_CheckEsp
  00065	8b e5		 mov	 esp, ebp
  00067	5d		 pop	 ebp
  00068	c3		 ret	 0
?clear@?$CMemPool@USTIntervalInfo@@@@QAEXXZ ENDP	; CMemPool<STIntervalInfo>::clear
_TEXT	ENDS
; Function compile flags: /Odtp /RTCsu
; File e:\infinia-library-3.0\com\include\commempool.h
;	COMDAT ??1?$CMemPool@USTIntervalInfo@@@@QAE@XZ
_TEXT	SEGMENT
tv78 = -24						; size = 4
tv73 = -20						; size = 4
$T1 = -16						; size = 4
$T2 = -12						; size = 4
$T3 = -8						; size = 4
_this$ = -4						; size = 4
??1?$CMemPool@USTIntervalInfo@@@@QAE@XZ PROC		; CMemPool<STIntervalInfo>::~CMemPool<STIntervalInfo>, COMDAT
; _this$ = ecx

; 75   : {

  00000	55		 push	 ebp
  00001	8b ec		 mov	 ebp, esp
  00003	83 ec 18	 sub	 esp, 24			; 00000018H
  00006	56		 push	 esi
  00007	b8 cc cc cc cc	 mov	 eax, -858993460		; ccccccccH
  0000c	89 45 e8	 mov	 DWORD PTR [ebp-24], eax
  0000f	89 45 ec	 mov	 DWORD PTR [ebp-20], eax
  00012	89 45 f0	 mov	 DWORD PTR [ebp-16], eax
  00015	89 45 f4	 mov	 DWORD PTR [ebp-12], eax
  00018	89 45 f8	 mov	 DWORD PTR [ebp-8], eax
  0001b	89 45 fc	 mov	 DWORD PTR [ebp-4], eax
  0001e	89 4d fc	 mov	 DWORD PTR _this$[ebp], ecx

; 76   : 	if (m_nFlagArray) {

  00021	8b 45 fc	 mov	 eax, DWORD PTR _this$[ebp]
  00024	83 38 00	 cmp	 DWORD PTR [eax], 0
  00027	74 33		 je	 SHORT $LN4@CMemPool

; 77   : 		delete[] m_nFlagArray;

  00029	8b 4d fc	 mov	 ecx, DWORD PTR _this$[ebp]
  0002c	8b 11		 mov	 edx, DWORD PTR [ecx]
  0002e	89 55 f4	 mov	 DWORD PTR $T2[ebp], edx
  00031	8b 45 f4	 mov	 eax, DWORD PTR $T2[ebp]
  00034	89 45 f8	 mov	 DWORD PTR $T3[ebp], eax
  00037	83 7d f8 00	 cmp	 DWORD PTR $T3[ebp], 0
  0003b	74 0f		 je	 SHORT $LN9@CMemPool
  0003d	6a 03		 push	 3
  0003f	8b 4d f8	 mov	 ecx, DWORD PTR $T3[ebp]
  00042	e8 00 00 00 00	 call	 ??_Ewin_atomic@win32@common@@QAEPAXI@Z
  00047	89 45 ec	 mov	 DWORD PTR tv73[ebp], eax
  0004a	eb 07		 jmp	 SHORT $LN10@CMemPool
$LN9@CMemPool:
  0004c	c7 45 ec 00 00
	00 00		 mov	 DWORD PTR tv73[ebp], 0
$LN10@CMemPool:

; 78   : 		m_nFlagArray = NULL;

  00053	8b 4d fc	 mov	 ecx, DWORD PTR _this$[ebp]
  00056	c7 01 00 00 00
	00		 mov	 DWORD PTR [ecx], 0
$LN4@CMemPool:

; 79   : 	}
; 80   : 	
; 81   : 	if(m_pChunk) {

  0005c	8b 55 fc	 mov	 edx, DWORD PTR _this$[ebp]
  0005f	83 7a 14 00	 cmp	 DWORD PTR [edx+20], 0
  00063	74 57		 je	 SHORT $LN1@CMemPool

; 82   : 		switch (m_nObjAllocType) {

  00065	8b 45 fc	 mov	 eax, DWORD PTR _this$[ebp]
  00068	8b 48 10	 mov	 ecx, DWORD PTR [eax+16]
  0006b	89 4d e8	 mov	 DWORD PTR tv78[ebp], ecx
  0006e	83 7d e8 02	 cmp	 DWORD PTR tv78[ebp], 2
  00072	74 0e		 je	 SHORT $LN6@CMemPool
  00074	83 7d e8 03	 cmp	 DWORD PTR tv78[ebp], 3
  00078	74 1f		 je	 SHORT $LN7@CMemPool
  0007a	83 7d e8 05	 cmp	 DWORD PTR tv78[ebp], 5
  0007e	74 02		 je	 SHORT $LN6@CMemPool
  00080	eb 30		 jmp	 SHORT $LN2@CMemPool
$LN6@CMemPool:

; 83   : 		case eAlloc_Type_new:		
; 84   : 		case eAlloc_Type_newArray:	delete[] m_pChunk; break;

  00082	8b 55 fc	 mov	 edx, DWORD PTR _this$[ebp]
  00085	8b 42 14	 mov	 eax, DWORD PTR [edx+20]
  00088	89 45 f0	 mov	 DWORD PTR $T1[ebp], eax
  0008b	8b 4d f0	 mov	 ecx, DWORD PTR $T1[ebp]
  0008e	51		 push	 ecx
  0008f	e8 00 00 00 00	 call	 ??_V@YAXPAX@Z		; operator delete[]
  00094	83 c4 04	 add	 esp, 4
  00097	eb 19		 jmp	 SHORT $LN2@CMemPool
$LN7@CMemPool:

; 85   : 		case eAlloc_Type_alloc:		free(m_pChunk); break;

  00099	8b f4		 mov	 esi, esp
  0009b	8b 55 fc	 mov	 edx, DWORD PTR _this$[ebp]
  0009e	8b 42 14	 mov	 eax, DWORD PTR [edx+20]
  000a1	50		 push	 eax
  000a2	ff 15 00 00 00
	00		 call	 DWORD PTR __imp__free
  000a8	83 c4 04	 add	 esp, 4
  000ab	3b f4		 cmp	 esi, esp
  000ad	e8 00 00 00 00	 call	 __RTC_CheckEsp
$LN2@CMemPool:

; 86   : 		}
; 87   : 		
; 88   : 		m_pChunk = NULL;

  000b2	8b 4d fc	 mov	 ecx, DWORD PTR _this$[ebp]
  000b5	c7 41 14 00 00
	00 00		 mov	 DWORD PTR [ecx+20], 0
$LN1@CMemPool:

; 89   : 	}
; 90   : 
; 91   : }

  000bc	8b 4d fc	 mov	 ecx, DWORD PTR _this$[ebp]
  000bf	83 c1 04	 add	 ecx, 4
  000c2	e8 00 00 00 00	 call	 ??1win_atomic@win32@common@@QAE@XZ ; common::win32::win_atomic::~win_atomic
  000c7	5e		 pop	 esi
  000c8	83 c4 18	 add	 esp, 24			; 00000018H
  000cb	3b ec		 cmp	 ebp, esp
  000cd	e8 00 00 00 00	 call	 __RTC_CheckEsp
  000d2	8b e5		 mov	 esp, ebp
  000d4	5d		 pop	 ebp
  000d5	c3		 ret	 0
??1?$CMemPool@USTIntervalInfo@@@@QAE@XZ ENDP		; CMemPool<STIntervalInfo>::~CMemPool<STIntervalInfo>
_TEXT	ENDS
; Function compile flags: /Odtp /RTCsu
; File e:\infinia-library-3.0\com\include\commempool.h
;	COMDAT ??0?$CMemPool@USTIntervalInfo@@@@QAE@XZ
_TEXT	SEGMENT
_this$ = -4						; size = 4
??0?$CMemPool@USTIntervalInfo@@@@QAE@XZ PROC		; CMemPool<STIntervalInfo>::CMemPool<STIntervalInfo>, COMDAT
; _this$ = ecx

; 64   : {

  00000	55		 push	 ebp
  00001	8b ec		 mov	 ebp, esp
  00003	51		 push	 ecx
  00004	c7 45 fc cc cc
	cc cc		 mov	 DWORD PTR [ebp-4], -858993460 ; ccccccccH
  0000b	89 4d fc	 mov	 DWORD PTR _this$[ebp], ecx
  0000e	8b 4d fc	 mov	 ecx, DWORD PTR _this$[ebp]
  00011	83 c1 04	 add	 ecx, 4
  00014	e8 00 00 00 00	 call	 ??0win_atomic@win32@common@@QAE@XZ ; common::win32::win_atomic::win_atomic

; 65   : 	m_nAllocCount = 0;

  00019	8b 45 fc	 mov	 eax, DWORD PTR _this$[ebp]
  0001c	c7 40 0c 00 00
	00 00		 mov	 DWORD PTR [eax+12], 0

; 66   : 	m_nLastCount = 0;

  00023	8b 4d fc	 mov	 ecx, DWORD PTR _this$[ebp]
  00026	c7 41 08 00 00
	00 00		 mov	 DWORD PTR [ecx+8], 0

; 67   : 	//memset(m_szMessage, 0 ,LEN_MEM_MESSAGE);
; 68   : 	m_pChunk = NULL;

  0002d	8b 55 fc	 mov	 edx, DWORD PTR _this$[ebp]
  00030	c7 42 14 00 00
	00 00		 mov	 DWORD PTR [edx+20], 0

; 69   : 	m_nFlagArray = NULL;

  00037	8b 45 fc	 mov	 eax, DWORD PTR _this$[ebp]
  0003a	c7 00 00 00 00
	00		 mov	 DWORD PTR [eax], 0

; 70   : 	m_nObjAllocType = eAlloc_Type_none;

  00040	8b 4d fc	 mov	 ecx, DWORD PTR _this$[ebp]
  00043	c7 41 10 00 00
	00 00		 mov	 DWORD PTR [ecx+16], 0

; 71   : }

  0004a	8b 45 fc	 mov	 eax, DWORD PTR _this$[ebp]
  0004d	83 c4 04	 add	 esp, 4
  00050	3b ec		 cmp	 ebp, esp
  00052	e8 00 00 00 00	 call	 __RTC_CheckEsp
  00057	8b e5		 mov	 esp, ebp
  00059	5d		 pop	 ebp
  0005a	c3		 ret	 0
??0?$CMemPool@USTIntervalInfo@@@@QAE@XZ ENDP		; CMemPool<STIntervalInfo>::CMemPool<STIntervalInfo>
_TEXT	ENDS
; Function compile flags: /Odtp /RTCsu
; File e:\infinia-library-3.0\com\src\comcore.cpp
_TEXT	SEGMENT
tv64 = -8						; size = 4
_this$ = -4						; size = 4
_type$ = 8						; size = 4
_eListType$ = 12					; size = 4
?setListAllocType@CCoreList@@QAEXW4E_ALLOC_TYPE@@W4E_SYS_LIST_TYPE@@@Z PROC ; CCoreList::setListAllocType
; _this$ = ecx

; 640  : {

  00000	55		 push	 ebp
  00001	8b ec		 mov	 ebp, esp
  00003	83 ec 08	 sub	 esp, 8
  00006	c7 45 f8 cc cc
	cc cc		 mov	 DWORD PTR [ebp-8], -858993460 ; ccccccccH
  0000d	c7 45 fc cc cc
	cc cc		 mov	 DWORD PTR [ebp-4], -858993460 ; ccccccccH
  00014	89 4d fc	 mov	 DWORD PTR _this$[ebp], ecx

; 641  : 	switch (eListType)

  00017	8b 45 0c	 mov	 eax, DWORD PTR _eListType$[ebp]
  0001a	89 45 f8	 mov	 DWORD PTR tv64[ebp], eax
  0001d	8b 4d f8	 mov	 ecx, DWORD PTR tv64[ebp]
  00020	83 e9 01	 sub	 ecx, 1
  00023	89 4d f8	 mov	 DWORD PTR tv64[ebp], ecx
  00026	83 7d f8 03	 cmp	 DWORD PTR tv64[ebp], 3
  0002a	77 4b		 ja	 SHORT $LN1@setListAll
  0002c	8b 55 f8	 mov	 edx, DWORD PTR tv64[ebp]
  0002f	ff 24 95 00 00
	00 00		 jmp	 DWORD PTR $LN9@setListAll[edx*4]
$LN4@setListAll:

; 642  : 	{
; 643  : 	case e_TYPE_THREAD: m_pThreadList->setObjAllocType(type);

  00036	8b 45 08	 mov	 eax, DWORD PTR _type$[ebp]
  00039	50		 push	 eax
  0003a	8b 4d fc	 mov	 ecx, DWORD PTR _this$[ebp]
  0003d	8b 49 08	 mov	 ecx, DWORD PTR [ecx+8]
  00040	e8 00 00 00 00	 call	 ?setObjAllocType@?$CTList@VCComThread@@@@QAEXW4E_ALLOC_TYPE@@@Z ; CTList<CComThread>::setObjAllocType

; 644  : 		break;

  00045	eb 30		 jmp	 SHORT $LN1@setListAll
$LN5@setListAll:

; 645  : 	case e_TYPE_THREADQUEUE: m_pEventThreadList->setObjAllocType(type);

  00047	8b 55 08	 mov	 edx, DWORD PTR _type$[ebp]
  0004a	52		 push	 edx
  0004b	8b 45 fc	 mov	 eax, DWORD PTR _this$[ebp]
  0004e	8b 48 0c	 mov	 ecx, DWORD PTR [eax+12]
  00051	e8 00 00 00 00	 call	 ?setObjAllocType@?$CTList@VCComQueueThread@@@@QAEXW4E_ALLOC_TYPE@@@Z ; CTList<CComQueueThread>::setObjAllocType

; 646  : 		break;

  00056	eb 1f		 jmp	 SHORT $LN1@setListAll
$LN6@setListAll:

; 647  : 	case e_TYPE_THREADSCHEDULER: m_pSchedulerList->setObjAllocType(type);

  00058	8b 4d 08	 mov	 ecx, DWORD PTR _type$[ebp]
  0005b	51		 push	 ecx
  0005c	8b 55 fc	 mov	 edx, DWORD PTR _this$[ebp]
  0005f	8b 4a 04	 mov	 ecx, DWORD PTR [edx+4]
  00062	e8 00 00 00 00	 call	 ?setObjAllocType@?$CTList@VCScheduler@@@@QAEXW4E_ALLOC_TYPE@@@Z ; CTList<CScheduler>::setObjAllocType

; 648  : 		break;

  00067	eb 0e		 jmp	 SHORT $LN1@setListAll
$LN7@setListAll:

; 649  : 	case e_TYPE_THREADWRITER: m_pWriterList->setObjAllocType(type);

  00069	8b 45 08	 mov	 eax, DWORD PTR _type$[ebp]
  0006c	50		 push	 eax
  0006d	8b 4d fc	 mov	 ecx, DWORD PTR _this$[ebp]
  00070	8b 09		 mov	 ecx, DWORD PTR [ecx]
  00072	e8 00 00 00 00	 call	 ?setObjAllocType@?$CTList@VCSTLogger@@@@QAEXW4E_ALLOC_TYPE@@@Z ; CTList<CSTLogger>::setObjAllocType
$LN1@setListAll:

; 650  : 		break;
; 651  : 	}
; 652  : }

  00077	83 c4 08	 add	 esp, 8
  0007a	3b ec		 cmp	 ebp, esp
  0007c	e8 00 00 00 00	 call	 __RTC_CheckEsp
  00081	8b e5		 mov	 esp, ebp
  00083	5d		 pop	 ebp
  00084	c2 08 00	 ret	 8
  00087	90		 npad	 1
$LN9@setListAll:
  00088	00 00 00 00	 DD	 $LN4@setListAll
  0008c	00 00 00 00	 DD	 $LN5@setListAll
  00090	00 00 00 00	 DD	 $LN6@setListAll
  00094	00 00 00 00	 DD	 $LN7@setListAll
?setListAllocType@CCoreList@@QAEXW4E_ALLOC_TYPE@@W4E_SYS_LIST_TYPE@@@Z ENDP ; CCoreList::setListAllocType
_TEXT	ENDS
; Function compile flags: /Odtp /RTCsu
; File e:\infinia-library-3.0\com\src\comcore.cpp
_TEXT	SEGMENT
tv143 = -180						; size = 4
tv80 = -176						; size = 4
$T2 = -172						; size = 4
$T3 = -168						; size = 4
$T4 = -164						; size = 4
$T5 = -160						; size = 4
_szErrorMsg$ = -152					; size = 128
_this$ = -20						; size = 4
__$ArrayPad$ = -16					; size = 4
__$EHRec$ = -12						; size = 12
_nThreadCount$ = 8					; size = 4
_nQueuePoolCount$ = 12					; size = 4
?initQueueThread@CCoreList@@QAE_NHH@Z PROC		; CCoreList::initQueueThread
; _this$ = ecx

; 1237 : {

  00000	55		 push	 ebp
  00001	8b ec		 mov	 ebp, esp
  00003	6a ff		 push	 -1
  00005	68 00 00 00 00	 push	 __ehhandler$?initQueueThread@CCoreList@@QAE_NHH@Z
  0000a	64 a1 00 00 00
	00		 mov	 eax, DWORD PTR fs:0
  00010	50		 push	 eax
  00011	81 ec a8 00 00
	00		 sub	 esp, 168		; 000000a8H
  00017	57		 push	 edi
  00018	51		 push	 ecx
  00019	8d bd 4c ff ff
	ff		 lea	 edi, DWORD PTR [ebp-180]
  0001f	b9 2a 00 00 00	 mov	 ecx, 42			; 0000002aH
  00024	b8 cc cc cc cc	 mov	 eax, -858993460		; ccccccccH
  00029	f3 ab		 rep stosd
  0002b	59		 pop	 ecx
  0002c	a1 00 00 00 00	 mov	 eax, DWORD PTR ___security_cookie
  00031	33 c5		 xor	 eax, ebp
  00033	89 45 f0	 mov	 DWORD PTR __$ArrayPad$[ebp], eax
  00036	50		 push	 eax
  00037	8d 45 f4	 lea	 eax, DWORD PTR __$EHRec$[ebp]
  0003a	64 a3 00 00 00
	00		 mov	 DWORD PTR fs:0, eax
  00040	89 4d ec	 mov	 DWORD PTR _this$[ebp], ecx

; 1238 : 	char szErrorMsg[128];
; 1239 : 	if (!m_pEventThreadList) {

  00043	8b 45 ec	 mov	 eax, DWORD PTR _this$[ebp]
  00046	83 78 0c 00	 cmp	 DWORD PTR [eax+12], 0
  0004a	0f 85 bc 00 00
	00		 jne	 $LN2@initQueueT

; 1240 : 		m_pEventThreadList = new CTList<CComQueueThread>();

  00050	6a 18		 push	 24			; 00000018H
  00052	e8 00 00 00 00	 call	 ??2@YAPAXI@Z		; operator new
  00057	83 c4 04	 add	 esp, 4
  0005a	89 85 5c ff ff
	ff		 mov	 DWORD PTR $T4[ebp], eax
  00060	c7 45 fc 00 00
	00 00		 mov	 DWORD PTR __$EHRec$[ebp+8], 0
  00067	83 bd 5c ff ff
	ff 00		 cmp	 DWORD PTR $T4[ebp], 0
  0006e	74 20		 je	 SHORT $LN8@initQueueT
  00070	6a 18		 push	 24			; 00000018H
  00072	8b 8d 5c ff ff
	ff		 mov	 ecx, DWORD PTR $T4[ebp]
  00078	e8 00 00 00 00	 call	 ?__autoclassinit2@?$CTList@VCComQueueThread@@@@QAEXI@Z
  0007d	8b 8d 5c ff ff
	ff		 mov	 ecx, DWORD PTR $T4[ebp]
  00083	e8 00 00 00 00	 call	 ??0?$CTList@VCComQueueThread@@@@QAE@XZ ; CTList<CComQueueThread>::CTList<CComQueueThread>
  00088	89 85 50 ff ff
	ff		 mov	 DWORD PTR tv80[ebp], eax
  0008e	eb 0a		 jmp	 SHORT $LN9@initQueueT
$LN8@initQueueT:
  00090	c7 85 50 ff ff
	ff 00 00 00 00	 mov	 DWORD PTR tv80[ebp], 0
$LN9@initQueueT:
  0009a	8b 8d 50 ff ff
	ff		 mov	 ecx, DWORD PTR tv80[ebp]
  000a0	89 8d 60 ff ff
	ff		 mov	 DWORD PTR $T5[ebp], ecx
  000a6	c7 45 fc ff ff
	ff ff		 mov	 DWORD PTR __$EHRec$[ebp+8], -1
  000ad	8b 55 ec	 mov	 edx, DWORD PTR _this$[ebp]
  000b0	8b 85 60 ff ff
	ff		 mov	 eax, DWORD PTR $T5[ebp]
  000b6	89 42 0c	 mov	 DWORD PTR [edx+12], eax

; 1241 : 		if (!m_pEventThreadList->alloc(nThreadCount+LIST_ADD_COUNT, eAlloc_Type_none)) {

  000b9	6a 00		 push	 0
  000bb	8b 4d 08	 mov	 ecx, DWORD PTR _nThreadCount$[ebp]
  000be	83 c1 0a	 add	 ecx, 10			; 0000000aH
  000c1	51		 push	 ecx
  000c2	8b 55 ec	 mov	 edx, DWORD PTR _this$[ebp]
  000c5	8b 4a 0c	 mov	 ecx, DWORD PTR [edx+12]
  000c8	e8 00 00 00 00	 call	 ?alloc@?$CTList@VCComQueueThread@@@@QAEHHW4E_ALLOC_TYPE@@@Z ; CTList<CComQueueThread>::alloc
  000cd	85 c0		 test	 eax, eax
  000cf	75 3b		 jne	 SHORT $LN2@initQueueT

; 1242 : 			sprintf(szErrorMsg, "m_pEventThreadList->alloc(%d)", nThreadCount + LIST_ADD_COUNT);

  000d1	8b 45 08	 mov	 eax, DWORD PTR _nThreadCount$[ebp]
  000d4	83 c0 0a	 add	 eax, 10			; 0000000aH
  000d7	50		 push	 eax
  000d8	68 00 00 00 00	 push	 OFFSET $SG46647
  000dd	8d 8d 68 ff ff
	ff		 lea	 ecx, DWORD PTR _szErrorMsg$[ebp]
  000e3	51		 push	 ecx
  000e4	e8 00 00 00 00	 call	 _sprintf
  000e9	83 c4 0c	 add	 esp, 12			; 0000000cH

; 1243 : 			comErrorPrint(szErrorMsg);

  000ec	68 db 04 00 00	 push	 1243			; 000004dbH
  000f1	68 00 00 00 00	 push	 OFFSET $SG46648
  000f6	8d 95 68 ff ff
	ff		 lea	 edx, DWORD PTR _szErrorMsg$[ebp]
  000fc	52		 push	 edx
  000fd	e8 00 00 00 00	 call	 ?comGlobalErrorProc@@YAXPADPBDH@Z ; comGlobalErrorProc
  00102	83 c4 0c	 add	 esp, 12			; 0000000cH

; 1244 : 			return false;

  00105	32 c0		 xor	 al, al
  00107	e9 cc 00 00 00	 jmp	 $LN1@initQueueT
$LN2@initQueueT:

; 1245 : 		}
; 1246 : 	}
; 1247 : 	if (nQueuePoolCount)

  0010c	83 7d 0c 00	 cmp	 DWORD PTR _nQueuePoolCount$[ebp], 0
  00110	0f 84 c0 00 00
	00		 je	 $LN4@initQueueT

; 1248 : 	{
; 1249 : 		if (!m_pEventPool) {

  00116	8b 45 ec	 mov	 eax, DWORD PTR _this$[ebp]
  00119	83 78 14 00	 cmp	 DWORD PTR [eax+20], 0
  0011d	0f 85 b3 00 00
	00		 jne	 $LN4@initQueueT

; 1250 : 			m_pEventPool = new CMemPool<STEvent>();

  00123	6a 18		 push	 24			; 00000018H
  00125	e8 00 00 00 00	 call	 ??2@YAPAXI@Z		; operator new
  0012a	83 c4 04	 add	 esp, 4
  0012d	89 85 54 ff ff
	ff		 mov	 DWORD PTR $T2[ebp], eax
  00133	c7 45 fc 01 00
	00 00		 mov	 DWORD PTR __$EHRec$[ebp+8], 1
  0013a	83 bd 54 ff ff
	ff 00		 cmp	 DWORD PTR $T2[ebp], 0
  00141	74 20		 je	 SHORT $LN10@initQueueT
  00143	6a 18		 push	 24			; 00000018H
  00145	8b 8d 54 ff ff
	ff		 mov	 ecx, DWORD PTR $T2[ebp]
  0014b	e8 00 00 00 00	 call	 ?__autoclassinit2@?$CMemPool@USTEvent@@@@QAEXI@Z
  00150	8b 8d 54 ff ff
	ff		 mov	 ecx, DWORD PTR $T2[ebp]
  00156	e8 00 00 00 00	 call	 ??0?$CMemPool@USTEvent@@@@QAE@XZ ; CMemPool<STEvent>::CMemPool<STEvent>
  0015b	89 85 4c ff ff
	ff		 mov	 DWORD PTR tv143[ebp], eax
  00161	eb 0a		 jmp	 SHORT $LN11@initQueueT
$LN10@initQueueT:
  00163	c7 85 4c ff ff
	ff 00 00 00 00	 mov	 DWORD PTR tv143[ebp], 0
$LN11@initQueueT:
  0016d	8b 8d 4c ff ff
	ff		 mov	 ecx, DWORD PTR tv143[ebp]
  00173	89 8d 58 ff ff
	ff		 mov	 DWORD PTR $T3[ebp], ecx
  00179	c7 45 fc ff ff
	ff ff		 mov	 DWORD PTR __$EHRec$[ebp+8], -1
  00180	8b 55 ec	 mov	 edx, DWORD PTR _this$[ebp]
  00183	8b 85 58 ff ff
	ff		 mov	 eax, DWORD PTR $T3[ebp]
  00189	89 42 14	 mov	 DWORD PTR [edx+20], eax

; 1251 : 			if (!m_pEventPool->alloc(nQueuePoolCount, eAlloc_Type_alloc)) {

  0018c	6a 03		 push	 3
  0018e	8b 4d 0c	 mov	 ecx, DWORD PTR _nQueuePoolCount$[ebp]
  00191	51		 push	 ecx
  00192	8b 55 ec	 mov	 edx, DWORD PTR _this$[ebp]
  00195	8b 4a 14	 mov	 ecx, DWORD PTR [edx+20]
  00198	e8 00 00 00 00	 call	 ?alloc@?$CMemPool@USTEvent@@@@QAEHHW4E_ALLOC_TYPE@@@Z ; CMemPool<STEvent>::alloc
  0019d	85 c0		 test	 eax, eax
  0019f	75 35		 jne	 SHORT $LN4@initQueueT

; 1252 : 				sprintf(szErrorMsg, "has Failed!! m_pEventPool->alloc(%d)\n", nQueuePoolCount);

  001a1	8b 45 0c	 mov	 eax, DWORD PTR _nQueuePoolCount$[ebp]
  001a4	50		 push	 eax
  001a5	68 00 00 00 00	 push	 OFFSET $SG46653
  001aa	8d 8d 68 ff ff
	ff		 lea	 ecx, DWORD PTR _szErrorMsg$[ebp]
  001b0	51		 push	 ecx
  001b1	e8 00 00 00 00	 call	 _sprintf
  001b6	83 c4 0c	 add	 esp, 12			; 0000000cH

; 1253 : 				comErrorPrint(szErrorMsg);

  001b9	68 e5 04 00 00	 push	 1253			; 000004e5H
  001be	68 00 00 00 00	 push	 OFFSET $SG46654
  001c3	8d 95 68 ff ff
	ff		 lea	 edx, DWORD PTR _szErrorMsg$[ebp]
  001c9	52		 push	 edx
  001ca	e8 00 00 00 00	 call	 ?comGlobalErrorProc@@YAXPADPBDH@Z ; comGlobalErrorProc
  001cf	83 c4 0c	 add	 esp, 12			; 0000000cH

; 1254 : 				return false;

  001d2	32 c0		 xor	 al, al
  001d4	eb 02		 jmp	 SHORT $LN1@initQueueT
$LN4@initQueueT:

; 1255 : 			}
; 1256 : 		}
; 1257 : 
; 1258 : 	}
; 1259 : 	return true;

  001d6	b0 01		 mov	 al, 1
$LN1@initQueueT:

; 1260 : }

  001d8	52		 push	 edx
  001d9	8b cd		 mov	 ecx, ebp
  001db	50		 push	 eax
  001dc	8d 15 00 00 00
	00		 lea	 edx, DWORD PTR $LN17@initQueueT
  001e2	e8 00 00 00 00	 call	 @_RTC_CheckStackVars@8
  001e7	58		 pop	 eax
  001e8	5a		 pop	 edx
  001e9	8b 4d f4	 mov	 ecx, DWORD PTR __$EHRec$[ebp]
  001ec	64 89 0d 00 00
	00 00		 mov	 DWORD PTR fs:0, ecx
  001f3	59		 pop	 ecx
  001f4	5f		 pop	 edi
  001f5	8b 4d f0	 mov	 ecx, DWORD PTR __$ArrayPad$[ebp]
  001f8	33 cd		 xor	 ecx, ebp
  001fa	e8 00 00 00 00	 call	 @__security_check_cookie@4
  001ff	81 c4 b4 00 00
	00		 add	 esp, 180		; 000000b4H
  00205	3b ec		 cmp	 ebp, esp
  00207	e8 00 00 00 00	 call	 __RTC_CheckEsp
  0020c	8b e5		 mov	 esp, ebp
  0020e	5d		 pop	 ebp
  0020f	c2 08 00	 ret	 8
  00212	66 90		 npad	 2
$LN17@initQueueT:
  00214	01 00 00 00	 DD	 1
  00218	00 00 00 00	 DD	 $LN16@initQueueT
$LN16@initQueueT:
  0021c	68 ff ff ff	 DD	 -152			; ffffff68H
  00220	80 00 00 00	 DD	 128			; 00000080H
  00224	00 00 00 00	 DD	 $LN14@initQueueT
$LN14@initQueueT:
  00228	73		 DB	 115			; 00000073H
  00229	7a		 DB	 122			; 0000007aH
  0022a	45		 DB	 69			; 00000045H
  0022b	72		 DB	 114			; 00000072H
  0022c	72		 DB	 114			; 00000072H
  0022d	6f		 DB	 111			; 0000006fH
  0022e	72		 DB	 114			; 00000072H
  0022f	4d		 DB	 77			; 0000004dH
  00230	73		 DB	 115			; 00000073H
  00231	67		 DB	 103			; 00000067H
  00232	00		 DB	 0
_TEXT	ENDS
text$x	SEGMENT
__unwindfunclet$?initQueueThread@CCoreList@@QAE_NHH@Z$0:
  00000	6a 18		 push	 24			; 00000018H
  00002	8b 85 5c ff ff
	ff		 mov	 eax, DWORD PTR $T4[ebp]
  00008	50		 push	 eax
  00009	e8 00 00 00 00	 call	 ??3@YAXPAXI@Z		; operator delete
  0000e	83 c4 08	 add	 esp, 8
  00011	c3		 ret	 0
__unwindfunclet$?initQueueThread@CCoreList@@QAE_NHH@Z$1:
  00012	6a 18		 push	 24			; 00000018H
  00014	8b 85 54 ff ff
	ff		 mov	 eax, DWORD PTR $T2[ebp]
  0001a	50		 push	 eax
  0001b	e8 00 00 00 00	 call	 ??3@YAXPAXI@Z		; operator delete
  00020	83 c4 08	 add	 esp, 8
  00023	c3		 ret	 0
__ehhandler$?initQueueThread@CCoreList@@QAE_NHH@Z:
  00024	8b 54 24 08	 mov	 edx, DWORD PTR [esp+8]
  00028	8d 42 0c	 lea	 eax, DWORD PTR [edx+12]
  0002b	8b 8a 50 ff ff
	ff		 mov	 ecx, DWORD PTR [edx-176]
  00031	33 c8		 xor	 ecx, eax
  00033	e8 00 00 00 00	 call	 @__security_check_cookie@4
  00038	8b 4a fc	 mov	 ecx, DWORD PTR [edx-4]
  0003b	33 c8		 xor	 ecx, eax
  0003d	e8 00 00 00 00	 call	 @__security_check_cookie@4
  00042	b8 00 00 00 00	 mov	 eax, OFFSET __ehfuncinfo$?initQueueThread@CCoreList@@QAE_NHH@Z
  00047	e9 00 00 00 00	 jmp	 ___CxxFrameHandler3
text$x	ENDS
?initQueueThread@CCoreList@@QAE_NHH@Z ENDP		; CCoreList::initQueueThread
; Function compile flags: /Odtp /RTCsu
; File e:\infinia-library-3.0\com\src\comcore.cpp
_TEXT	SEGMENT
tv143 = -180						; size = 4
tv80 = -176						; size = 4
$T2 = -172						; size = 4
$T3 = -168						; size = 4
$T4 = -164						; size = 4
$T5 = -160						; size = 4
_szErrorMsg$ = -152					; size = 128
_this$ = -20						; size = 4
__$ArrayPad$ = -16					; size = 4
__$EHRec$ = -12						; size = 12
_nThreadCount$ = 8					; size = 4
_nSchedulerPoolCount$ = 12				; size = 4
?initScheduler@CCoreList@@QAE_NHH@Z PROC		; CCoreList::initScheduler
; _this$ = ecx

; 1213 : {

  00000	55		 push	 ebp
  00001	8b ec		 mov	 ebp, esp
  00003	6a ff		 push	 -1
  00005	68 00 00 00 00	 push	 __ehhandler$?initScheduler@CCoreList@@QAE_NHH@Z
  0000a	64 a1 00 00 00
	00		 mov	 eax, DWORD PTR fs:0
  00010	50		 push	 eax
  00011	81 ec a8 00 00
	00		 sub	 esp, 168		; 000000a8H
  00017	57		 push	 edi
  00018	51		 push	 ecx
  00019	8d bd 4c ff ff
	ff		 lea	 edi, DWORD PTR [ebp-180]
  0001f	b9 2a 00 00 00	 mov	 ecx, 42			; 0000002aH
  00024	b8 cc cc cc cc	 mov	 eax, -858993460		; ccccccccH
  00029	f3 ab		 rep stosd
  0002b	59		 pop	 ecx
  0002c	a1 00 00 00 00	 mov	 eax, DWORD PTR ___security_cookie
  00031	33 c5		 xor	 eax, ebp
  00033	89 45 f0	 mov	 DWORD PTR __$ArrayPad$[ebp], eax
  00036	50		 push	 eax
  00037	8d 45 f4	 lea	 eax, DWORD PTR __$EHRec$[ebp]
  0003a	64 a3 00 00 00
	00		 mov	 DWORD PTR fs:0, eax
  00040	89 4d ec	 mov	 DWORD PTR _this$[ebp], ecx

; 1214 : 	char szErrorMsg[128];
; 1215 : 	if (!m_pSchedulerList) {

  00043	8b 45 ec	 mov	 eax, DWORD PTR _this$[ebp]
  00046	83 78 04 00	 cmp	 DWORD PTR [eax+4], 0
  0004a	0f 85 bc 00 00
	00		 jne	 $LN2@initSchedu

; 1216 : 		m_pSchedulerList = new CTList<CScheduler>();

  00050	6a 18		 push	 24			; 00000018H
  00052	e8 00 00 00 00	 call	 ??2@YAPAXI@Z		; operator new
  00057	83 c4 04	 add	 esp, 4
  0005a	89 85 5c ff ff
	ff		 mov	 DWORD PTR $T4[ebp], eax
  00060	c7 45 fc 00 00
	00 00		 mov	 DWORD PTR __$EHRec$[ebp+8], 0
  00067	83 bd 5c ff ff
	ff 00		 cmp	 DWORD PTR $T4[ebp], 0
  0006e	74 20		 je	 SHORT $LN8@initSchedu
  00070	6a 18		 push	 24			; 00000018H
  00072	8b 8d 5c ff ff
	ff		 mov	 ecx, DWORD PTR $T4[ebp]
  00078	e8 00 00 00 00	 call	 ?__autoclassinit2@?$CTList@VCScheduler@@@@QAEXI@Z
  0007d	8b 8d 5c ff ff
	ff		 mov	 ecx, DWORD PTR $T4[ebp]
  00083	e8 00 00 00 00	 call	 ??0?$CTList@VCScheduler@@@@QAE@XZ ; CTList<CScheduler>::CTList<CScheduler>
  00088	89 85 50 ff ff
	ff		 mov	 DWORD PTR tv80[ebp], eax
  0008e	eb 0a		 jmp	 SHORT $LN9@initSchedu
$LN8@initSchedu:
  00090	c7 85 50 ff ff
	ff 00 00 00 00	 mov	 DWORD PTR tv80[ebp], 0
$LN9@initSchedu:
  0009a	8b 8d 50 ff ff
	ff		 mov	 ecx, DWORD PTR tv80[ebp]
  000a0	89 8d 60 ff ff
	ff		 mov	 DWORD PTR $T5[ebp], ecx
  000a6	c7 45 fc ff ff
	ff ff		 mov	 DWORD PTR __$EHRec$[ebp+8], -1
  000ad	8b 55 ec	 mov	 edx, DWORD PTR _this$[ebp]
  000b0	8b 85 60 ff ff
	ff		 mov	 eax, DWORD PTR $T5[ebp]
  000b6	89 42 04	 mov	 DWORD PTR [edx+4], eax

; 1217 : 		if (!m_pSchedulerList->alloc(nThreadCount + LIST_ADD_COUNT, eAlloc_Type_none)) {

  000b9	6a 00		 push	 0
  000bb	8b 4d 08	 mov	 ecx, DWORD PTR _nThreadCount$[ebp]
  000be	83 c1 0a	 add	 ecx, 10			; 0000000aH
  000c1	51		 push	 ecx
  000c2	8b 55 ec	 mov	 edx, DWORD PTR _this$[ebp]
  000c5	8b 4a 04	 mov	 ecx, DWORD PTR [edx+4]
  000c8	e8 00 00 00 00	 call	 ?alloc@?$CTList@VCScheduler@@@@QAEHHW4E_ALLOC_TYPE@@@Z ; CTList<CScheduler>::alloc
  000cd	85 c0		 test	 eax, eax
  000cf	75 3b		 jne	 SHORT $LN2@initSchedu

; 1218 : 			sprintf(szErrorMsg, "m_pSchedulerList->alloc(%d)", nThreadCount + LIST_ADD_COUNT);

  000d1	8b 45 08	 mov	 eax, DWORD PTR _nThreadCount$[ebp]
  000d4	83 c0 0a	 add	 eax, 10			; 0000000aH
  000d7	50		 push	 eax
  000d8	68 00 00 00 00	 push	 OFFSET $SG46616
  000dd	8d 8d 68 ff ff
	ff		 lea	 ecx, DWORD PTR _szErrorMsg$[ebp]
  000e3	51		 push	 ecx
  000e4	e8 00 00 00 00	 call	 _sprintf
  000e9	83 c4 0c	 add	 esp, 12			; 0000000cH

; 1219 : 			comErrorPrint(szErrorMsg);

  000ec	68 c3 04 00 00	 push	 1219			; 000004c3H
  000f1	68 00 00 00 00	 push	 OFFSET $SG46617
  000f6	8d 95 68 ff ff
	ff		 lea	 edx, DWORD PTR _szErrorMsg$[ebp]
  000fc	52		 push	 edx
  000fd	e8 00 00 00 00	 call	 ?comGlobalErrorProc@@YAXPADPBDH@Z ; comGlobalErrorProc
  00102	83 c4 0c	 add	 esp, 12			; 0000000cH

; 1220 : 			return false;

  00105	32 c0		 xor	 al, al
  00107	e9 cc 00 00 00	 jmp	 $LN1@initSchedu
$LN2@initSchedu:

; 1221 : 		}
; 1222 : 	}
; 1223 : 	if (nSchedulerPoolCount) {

  0010c	83 7d 0c 00	 cmp	 DWORD PTR _nSchedulerPoolCount$[ebp], 0
  00110	0f 84 c0 00 00
	00		 je	 $LN4@initSchedu

; 1224 : 		if (!m_pIntervalPool) {

  00116	8b 45 ec	 mov	 eax, DWORD PTR _this$[ebp]
  00119	83 78 10 00	 cmp	 DWORD PTR [eax+16], 0
  0011d	0f 85 b3 00 00
	00		 jne	 $LN4@initSchedu

; 1225 : 			m_pIntervalPool = new CMemPool<STIntervalInfo>();

  00123	6a 18		 push	 24			; 00000018H
  00125	e8 00 00 00 00	 call	 ??2@YAPAXI@Z		; operator new
  0012a	83 c4 04	 add	 esp, 4
  0012d	89 85 54 ff ff
	ff		 mov	 DWORD PTR $T2[ebp], eax
  00133	c7 45 fc 01 00
	00 00		 mov	 DWORD PTR __$EHRec$[ebp+8], 1
  0013a	83 bd 54 ff ff
	ff 00		 cmp	 DWORD PTR $T2[ebp], 0
  00141	74 20		 je	 SHORT $LN10@initSchedu
  00143	6a 18		 push	 24			; 00000018H
  00145	8b 8d 54 ff ff
	ff		 mov	 ecx, DWORD PTR $T2[ebp]
  0014b	e8 00 00 00 00	 call	 ?__autoclassinit2@?$CMemPool@USTIntervalInfo@@@@QAEXI@Z
  00150	8b 8d 54 ff ff
	ff		 mov	 ecx, DWORD PTR $T2[ebp]
  00156	e8 00 00 00 00	 call	 ??0?$CMemPool@USTIntervalInfo@@@@QAE@XZ ; CMemPool<STIntervalInfo>::CMemPool<STIntervalInfo>
  0015b	89 85 4c ff ff
	ff		 mov	 DWORD PTR tv143[ebp], eax
  00161	eb 0a		 jmp	 SHORT $LN11@initSchedu
$LN10@initSchedu:
  00163	c7 85 4c ff ff
	ff 00 00 00 00	 mov	 DWORD PTR tv143[ebp], 0
$LN11@initSchedu:
  0016d	8b 8d 4c ff ff
	ff		 mov	 ecx, DWORD PTR tv143[ebp]
  00173	89 8d 58 ff ff
	ff		 mov	 DWORD PTR $T3[ebp], ecx
  00179	c7 45 fc ff ff
	ff ff		 mov	 DWORD PTR __$EHRec$[ebp+8], -1
  00180	8b 55 ec	 mov	 edx, DWORD PTR _this$[ebp]
  00183	8b 85 58 ff ff
	ff		 mov	 eax, DWORD PTR $T3[ebp]
  00189	89 42 10	 mov	 DWORD PTR [edx+16], eax

; 1226 : 			if (!m_pIntervalPool->alloc(nSchedulerPoolCount, eAlloc_Type_alloc)) {

  0018c	6a 03		 push	 3
  0018e	8b 4d 0c	 mov	 ecx, DWORD PTR _nSchedulerPoolCount$[ebp]
  00191	51		 push	 ecx
  00192	8b 55 ec	 mov	 edx, DWORD PTR _this$[ebp]
  00195	8b 4a 10	 mov	 ecx, DWORD PTR [edx+16]
  00198	e8 00 00 00 00	 call	 ?alloc@?$CMemPool@USTIntervalInfo@@@@QAEHHW4E_ALLOC_TYPE@@@Z ; CMemPool<STIntervalInfo>::alloc
  0019d	85 c0		 test	 eax, eax
  0019f	75 35		 jne	 SHORT $LN4@initSchedu

; 1227 : 				sprintf(szErrorMsg, "has Failed!! m_pIntervalPool->alloc(%d)\n", nSchedulerPoolCount);

  001a1	8b 45 0c	 mov	 eax, DWORD PTR _nSchedulerPoolCount$[ebp]
  001a4	50		 push	 eax
  001a5	68 00 00 00 00	 push	 OFFSET $SG46622
  001aa	8d 8d 68 ff ff
	ff		 lea	 ecx, DWORD PTR _szErrorMsg$[ebp]
  001b0	51		 push	 ecx
  001b1	e8 00 00 00 00	 call	 _sprintf
  001b6	83 c4 0c	 add	 esp, 12			; 0000000cH

; 1228 : 				comErrorPrint(szErrorMsg);

  001b9	68 cc 04 00 00	 push	 1228			; 000004ccH
  001be	68 00 00 00 00	 push	 OFFSET $SG46623
  001c3	8d 95 68 ff ff
	ff		 lea	 edx, DWORD PTR _szErrorMsg$[ebp]
  001c9	52		 push	 edx
  001ca	e8 00 00 00 00	 call	 ?comGlobalErrorProc@@YAXPADPBDH@Z ; comGlobalErrorProc
  001cf	83 c4 0c	 add	 esp, 12			; 0000000cH

; 1229 : 				return false;

  001d2	32 c0		 xor	 al, al
  001d4	eb 02		 jmp	 SHORT $LN1@initSchedu
$LN4@initSchedu:

; 1230 : 			}
; 1231 : 		}
; 1232 : 	}
; 1233 : 	return true;

  001d6	b0 01		 mov	 al, 1
$LN1@initSchedu:

; 1234 : }

  001d8	52		 push	 edx
  001d9	8b cd		 mov	 ecx, ebp
  001db	50		 push	 eax
  001dc	8d 15 00 00 00
	00		 lea	 edx, DWORD PTR $LN17@initSchedu
  001e2	e8 00 00 00 00	 call	 @_RTC_CheckStackVars@8
  001e7	58		 pop	 eax
  001e8	5a		 pop	 edx
  001e9	8b 4d f4	 mov	 ecx, DWORD PTR __$EHRec$[ebp]
  001ec	64 89 0d 00 00
	00 00		 mov	 DWORD PTR fs:0, ecx
  001f3	59		 pop	 ecx
  001f4	5f		 pop	 edi
  001f5	8b 4d f0	 mov	 ecx, DWORD PTR __$ArrayPad$[ebp]
  001f8	33 cd		 xor	 ecx, ebp
  001fa	e8 00 00 00 00	 call	 @__security_check_cookie@4
  001ff	81 c4 b4 00 00
	00		 add	 esp, 180		; 000000b4H
  00205	3b ec		 cmp	 ebp, esp
  00207	e8 00 00 00 00	 call	 __RTC_CheckEsp
  0020c	8b e5		 mov	 esp, ebp
  0020e	5d		 pop	 ebp
  0020f	c2 08 00	 ret	 8
  00212	66 90		 npad	 2
$LN17@initSchedu:
  00214	01 00 00 00	 DD	 1
  00218	00 00 00 00	 DD	 $LN16@initSchedu
$LN16@initSchedu:
  0021c	68 ff ff ff	 DD	 -152			; ffffff68H
  00220	80 00 00 00	 DD	 128			; 00000080H
  00224	00 00 00 00	 DD	 $LN14@initSchedu
$LN14@initSchedu:
  00228	73		 DB	 115			; 00000073H
  00229	7a		 DB	 122			; 0000007aH
  0022a	45		 DB	 69			; 00000045H
  0022b	72		 DB	 114			; 00000072H
  0022c	72		 DB	 114			; 00000072H
  0022d	6f		 DB	 111			; 0000006fH
  0022e	72		 DB	 114			; 00000072H
  0022f	4d		 DB	 77			; 0000004dH
  00230	73		 DB	 115			; 00000073H
  00231	67		 DB	 103			; 00000067H
  00232	00		 DB	 0
_TEXT	ENDS
text$x	SEGMENT
__unwindfunclet$?initScheduler@CCoreList@@QAE_NHH@Z$0:
  00000	6a 18		 push	 24			; 00000018H
  00002	8b 85 5c ff ff
	ff		 mov	 eax, DWORD PTR $T4[ebp]
  00008	50		 push	 eax
  00009	e8 00 00 00 00	 call	 ??3@YAXPAXI@Z		; operator delete
  0000e	83 c4 08	 add	 esp, 8
  00011	c3		 ret	 0
__unwindfunclet$?initScheduler@CCoreList@@QAE_NHH@Z$1:
  00012	6a 18		 push	 24			; 00000018H
  00014	8b 85 54 ff ff
	ff		 mov	 eax, DWORD PTR $T2[ebp]
  0001a	50		 push	 eax
  0001b	e8 00 00 00 00	 call	 ??3@YAXPAXI@Z		; operator delete
  00020	83 c4 08	 add	 esp, 8
  00023	c3		 ret	 0
__ehhandler$?initScheduler@CCoreList@@QAE_NHH@Z:
  00024	8b 54 24 08	 mov	 edx, DWORD PTR [esp+8]
  00028	8d 42 0c	 lea	 eax, DWORD PTR [edx+12]
  0002b	8b 8a 50 ff ff
	ff		 mov	 ecx, DWORD PTR [edx-176]
  00031	33 c8		 xor	 ecx, eax
  00033	e8 00 00 00 00	 call	 @__security_check_cookie@4
  00038	8b 4a fc	 mov	 ecx, DWORD PTR [edx-4]
  0003b	33 c8		 xor	 ecx, eax
  0003d	e8 00 00 00 00	 call	 @__security_check_cookie@4
  00042	b8 00 00 00 00	 mov	 eax, OFFSET __ehfuncinfo$?initScheduler@CCoreList@@QAE_NHH@Z
  00047	e9 00 00 00 00	 jmp	 ___CxxFrameHandler3
text$x	ENDS
?initScheduler@CCoreList@@QAE_NHH@Z ENDP		; CCoreList::initScheduler
; Function compile flags: /Odtp /RTCsu
; File e:\infinia-library-3.0\com\src\comcore.cpp
_TEXT	SEGMENT
tv79 = -168						; size = 4
$T2 = -164						; size = 4
$T3 = -160						; size = 4
_szErrorMsg$ = -152					; size = 128
_this$ = -20						; size = 4
__$ArrayPad$ = -16					; size = 4
__$EHRec$ = -12						; size = 12
_nThreadCount$ = 8					; size = 4
?initLogWriter@CCoreList@@QAE_NH@Z PROC			; CCoreList::initLogWriter
; _this$ = ecx

; 1200 : {

  00000	55		 push	 ebp
  00001	8b ec		 mov	 ebp, esp
  00003	6a ff		 push	 -1
  00005	68 00 00 00 00	 push	 __ehhandler$?initLogWriter@CCoreList@@QAE_NH@Z
  0000a	64 a1 00 00 00
	00		 mov	 eax, DWORD PTR fs:0
  00010	50		 push	 eax
  00011	81 ec 9c 00 00
	00		 sub	 esp, 156		; 0000009cH
  00017	57		 push	 edi
  00018	51		 push	 ecx
  00019	8d bd 58 ff ff
	ff		 lea	 edi, DWORD PTR [ebp-168]
  0001f	b9 27 00 00 00	 mov	 ecx, 39			; 00000027H
  00024	b8 cc cc cc cc	 mov	 eax, -858993460		; ccccccccH
  00029	f3 ab		 rep stosd
  0002b	59		 pop	 ecx
  0002c	a1 00 00 00 00	 mov	 eax, DWORD PTR ___security_cookie
  00031	33 c5		 xor	 eax, ebp
  00033	89 45 f0	 mov	 DWORD PTR __$ArrayPad$[ebp], eax
  00036	50		 push	 eax
  00037	8d 45 f4	 lea	 eax, DWORD PTR __$EHRec$[ebp]
  0003a	64 a3 00 00 00
	00		 mov	 DWORD PTR fs:0, eax
  00040	89 4d ec	 mov	 DWORD PTR _this$[ebp], ecx

; 1201 : 	char szErrorMsg[128];
; 1202 : 	if (!m_pWriterList) {

  00043	8b 45 ec	 mov	 eax, DWORD PTR _this$[ebp]
  00046	83 38 00	 cmp	 DWORD PTR [eax], 0
  00049	0f 85 af 00 00
	00		 jne	 $LN2@initLogWri

; 1203 : 		m_pWriterList = new (std::nothrow) CTList<CSTLogger>();

  0004f	68 00 00 00 00	 push	 OFFSET ?nothrow@std@@3Unothrow_t@1@B ; std::nothrow
  00054	6a 18		 push	 24			; 00000018H
  00056	e8 00 00 00 00	 call	 ??2@YAPAXIABUnothrow_t@std@@@Z ; operator new
  0005b	83 c4 08	 add	 esp, 8
  0005e	89 85 5c ff ff
	ff		 mov	 DWORD PTR $T2[ebp], eax
  00064	c7 45 fc 00 00
	00 00		 mov	 DWORD PTR __$EHRec$[ebp+8], 0
  0006b	83 bd 5c ff ff
	ff 00		 cmp	 DWORD PTR $T2[ebp], 0
  00072	74 13		 je	 SHORT $LN5@initLogWri
  00074	8b 8d 5c ff ff
	ff		 mov	 ecx, DWORD PTR $T2[ebp]
  0007a	e8 00 00 00 00	 call	 ??0?$CTList@VCSTLogger@@@@QAE@XZ ; CTList<CSTLogger>::CTList<CSTLogger>
  0007f	89 85 58 ff ff
	ff		 mov	 DWORD PTR tv79[ebp], eax
  00085	eb 0a		 jmp	 SHORT $LN6@initLogWri
$LN5@initLogWri:
  00087	c7 85 58 ff ff
	ff 00 00 00 00	 mov	 DWORD PTR tv79[ebp], 0
$LN6@initLogWri:
  00091	8b 8d 58 ff ff
	ff		 mov	 ecx, DWORD PTR tv79[ebp]
  00097	89 8d 60 ff ff
	ff		 mov	 DWORD PTR $T3[ebp], ecx
  0009d	c7 45 fc ff ff
	ff ff		 mov	 DWORD PTR __$EHRec$[ebp+8], -1
  000a4	8b 55 ec	 mov	 edx, DWORD PTR _this$[ebp]
  000a7	8b 85 60 ff ff
	ff		 mov	 eax, DWORD PTR $T3[ebp]
  000ad	89 02		 mov	 DWORD PTR [edx], eax

; 1204 : 		if (!m_pWriterList->alloc(nThreadCount + LIST_ADD_COUNT, eAlloc_Type_none)) {

  000af	6a 00		 push	 0
  000b1	8b 4d 08	 mov	 ecx, DWORD PTR _nThreadCount$[ebp]
  000b4	83 c1 0a	 add	 ecx, 10			; 0000000aH
  000b7	51		 push	 ecx
  000b8	8b 55 ec	 mov	 edx, DWORD PTR _this$[ebp]
  000bb	8b 0a		 mov	 ecx, DWORD PTR [edx]
  000bd	e8 00 00 00 00	 call	 ?alloc@?$CTList@VCSTLogger@@@@QAEHHW4E_ALLOC_TYPE@@@Z ; CTList<CSTLogger>::alloc
  000c2	85 c0		 test	 eax, eax
  000c4	75 38		 jne	 SHORT $LN2@initLogWri

; 1205 : 			sprintf(szErrorMsg, "m_pWriterList->alloc(%d)", nThreadCount + LIST_ADD_COUNT);

  000c6	8b 45 08	 mov	 eax, DWORD PTR _nThreadCount$[ebp]
  000c9	83 c0 0a	 add	 eax, 10			; 0000000aH
  000cc	50		 push	 eax
  000cd	68 00 00 00 00	 push	 OFFSET $SG46597
  000d2	8d 8d 68 ff ff
	ff		 lea	 ecx, DWORD PTR _szErrorMsg$[ebp]
  000d8	51		 push	 ecx
  000d9	e8 00 00 00 00	 call	 _sprintf
  000de	83 c4 0c	 add	 esp, 12			; 0000000cH

; 1206 : 			comErrorPrint(szErrorMsg);

  000e1	68 b6 04 00 00	 push	 1206			; 000004b6H
  000e6	68 00 00 00 00	 push	 OFFSET $SG46598
  000eb	8d 95 68 ff ff
	ff		 lea	 edx, DWORD PTR _szErrorMsg$[ebp]
  000f1	52		 push	 edx
  000f2	e8 00 00 00 00	 call	 ?comGlobalErrorProc@@YAXPADPBDH@Z ; comGlobalErrorProc
  000f7	83 c4 0c	 add	 esp, 12			; 0000000cH

; 1207 : 			return false;

  000fa	32 c0		 xor	 al, al
  000fc	eb 02		 jmp	 SHORT $LN1@initLogWri
$LN2@initLogWri:

; 1208 : 		}
; 1209 : 	}
; 1210 : 	return true;

  000fe	b0 01		 mov	 al, 1
$LN1@initLogWri:

; 1211 : }

  00100	52		 push	 edx
  00101	8b cd		 mov	 ecx, ebp
  00103	50		 push	 eax
  00104	8d 15 00 00 00
	00		 lea	 edx, DWORD PTR $LN11@initLogWri
  0010a	e8 00 00 00 00	 call	 @_RTC_CheckStackVars@8
  0010f	58		 pop	 eax
  00110	5a		 pop	 edx
  00111	8b 4d f4	 mov	 ecx, DWORD PTR __$EHRec$[ebp]
  00114	64 89 0d 00 00
	00 00		 mov	 DWORD PTR fs:0, ecx
  0011b	59		 pop	 ecx
  0011c	5f		 pop	 edi
  0011d	8b 4d f0	 mov	 ecx, DWORD PTR __$ArrayPad$[ebp]
  00120	33 cd		 xor	 ecx, ebp
  00122	e8 00 00 00 00	 call	 @__security_check_cookie@4
  00127	81 c4 a8 00 00
	00		 add	 esp, 168		; 000000a8H
  0012d	3b ec		 cmp	 ebp, esp
  0012f	e8 00 00 00 00	 call	 __RTC_CheckEsp
  00134	8b e5		 mov	 esp, ebp
  00136	5d		 pop	 ebp
  00137	c2 04 00	 ret	 4
  0013a	66 90		 npad	 2
$LN11@initLogWri:
  0013c	01 00 00 00	 DD	 1
  00140	00 00 00 00	 DD	 $LN10@initLogWri
$LN10@initLogWri:
  00144	68 ff ff ff	 DD	 -152			; ffffff68H
  00148	80 00 00 00	 DD	 128			; 00000080H
  0014c	00 00 00 00	 DD	 $LN8@initLogWri
$LN8@initLogWri:
  00150	73		 DB	 115			; 00000073H
  00151	7a		 DB	 122			; 0000007aH
  00152	45		 DB	 69			; 00000045H
  00153	72		 DB	 114			; 00000072H
  00154	72		 DB	 114			; 00000072H
  00155	6f		 DB	 111			; 0000006fH
  00156	72		 DB	 114			; 00000072H
  00157	4d		 DB	 77			; 0000004dH
  00158	73		 DB	 115			; 00000073H
  00159	67		 DB	 103			; 00000067H
  0015a	00		 DB	 0
_TEXT	ENDS
text$x	SEGMENT
__unwindfunclet$?initLogWriter@CCoreList@@QAE_NH@Z$0:
  00000	68 00 00 00 00	 push	 OFFSET ?nothrow@std@@3Unothrow_t@1@B ; std::nothrow
  00005	8b 85 5c ff ff
	ff		 mov	 eax, DWORD PTR $T2[ebp]
  0000b	50		 push	 eax
  0000c	e8 00 00 00 00	 call	 ??3@YAXPAXABUnothrow_t@std@@@Z ; operator delete
  00011	83 c4 08	 add	 esp, 8
  00014	c3		 ret	 0
__ehhandler$?initLogWriter@CCoreList@@QAE_NH@Z:
  00015	8b 54 24 08	 mov	 edx, DWORD PTR [esp+8]
  00019	8d 42 0c	 lea	 eax, DWORD PTR [edx+12]
  0001c	8b 8a 5c ff ff
	ff		 mov	 ecx, DWORD PTR [edx-164]
  00022	33 c8		 xor	 ecx, eax
  00024	e8 00 00 00 00	 call	 @__security_check_cookie@4
  00029	8b 4a fc	 mov	 ecx, DWORD PTR [edx-4]
  0002c	33 c8		 xor	 ecx, eax
  0002e	e8 00 00 00 00	 call	 @__security_check_cookie@4
  00033	b8 00 00 00 00	 mov	 eax, OFFSET __ehfuncinfo$?initLogWriter@CCoreList@@QAE_NH@Z
  00038	e9 00 00 00 00	 jmp	 ___CxxFrameHandler3
text$x	ENDS
?initLogWriter@CCoreList@@QAE_NH@Z ENDP			; CCoreList::initLogWriter
; Function compile flags: /Odtp /RTCsu
; File e:\infinia-library-3.0\com\src\comcore.cpp
_TEXT	SEGMENT
tv79 = -168						; size = 4
$T2 = -164						; size = 4
$T3 = -160						; size = 4
_szErrorMsg$ = -152					; size = 128
_this$ = -20						; size = 4
__$ArrayPad$ = -16					; size = 4
__$EHRec$ = -12						; size = 12
_nThreadCount$ = 8					; size = 4
?initComThread@CCoreList@@QAE_NH@Z PROC			; CCoreList::initComThread
; _this$ = ecx

; 1186 : {

  00000	55		 push	 ebp
  00001	8b ec		 mov	 ebp, esp
  00003	6a ff		 push	 -1
  00005	68 00 00 00 00	 push	 __ehhandler$?initComThread@CCoreList@@QAE_NH@Z
  0000a	64 a1 00 00 00
	00		 mov	 eax, DWORD PTR fs:0
  00010	50		 push	 eax
  00011	81 ec 9c 00 00
	00		 sub	 esp, 156		; 0000009cH
  00017	57		 push	 edi
  00018	51		 push	 ecx
  00019	8d bd 58 ff ff
	ff		 lea	 edi, DWORD PTR [ebp-168]
  0001f	b9 27 00 00 00	 mov	 ecx, 39			; 00000027H
  00024	b8 cc cc cc cc	 mov	 eax, -858993460		; ccccccccH
  00029	f3 ab		 rep stosd
  0002b	59		 pop	 ecx
  0002c	a1 00 00 00 00	 mov	 eax, DWORD PTR ___security_cookie
  00031	33 c5		 xor	 eax, ebp
  00033	89 45 f0	 mov	 DWORD PTR __$ArrayPad$[ebp], eax
  00036	50		 push	 eax
  00037	8d 45 f4	 lea	 eax, DWORD PTR __$EHRec$[ebp]
  0003a	64 a3 00 00 00
	00		 mov	 DWORD PTR fs:0, eax
  00040	89 4d ec	 mov	 DWORD PTR _this$[ebp], ecx

; 1187 : 	char szErrorMsg[128];
; 1188 : 
; 1189 : 	if (!m_pThreadList) {

  00043	8b 45 ec	 mov	 eax, DWORD PTR _this$[ebp]
  00046	83 78 08 00	 cmp	 DWORD PTR [eax+8], 0
  0004a	0f 85 b1 00 00
	00		 jne	 $LN2@initComThr

; 1190 : 		m_pThreadList = new (std::nothrow) CTList<CComThread>();

  00050	68 00 00 00 00	 push	 OFFSET ?nothrow@std@@3Unothrow_t@1@B ; std::nothrow
  00055	6a 18		 push	 24			; 00000018H
  00057	e8 00 00 00 00	 call	 ??2@YAPAXIABUnothrow_t@std@@@Z ; operator new
  0005c	83 c4 08	 add	 esp, 8
  0005f	89 85 5c ff ff
	ff		 mov	 DWORD PTR $T2[ebp], eax
  00065	c7 45 fc 00 00
	00 00		 mov	 DWORD PTR __$EHRec$[ebp+8], 0
  0006c	83 bd 5c ff ff
	ff 00		 cmp	 DWORD PTR $T2[ebp], 0
  00073	74 13		 je	 SHORT $LN5@initComThr
  00075	8b 8d 5c ff ff
	ff		 mov	 ecx, DWORD PTR $T2[ebp]
  0007b	e8 00 00 00 00	 call	 ??0?$CTList@VCComThread@@@@QAE@XZ ; CTList<CComThread>::CTList<CComThread>
  00080	89 85 58 ff ff
	ff		 mov	 DWORD PTR tv79[ebp], eax
  00086	eb 0a		 jmp	 SHORT $LN6@initComThr
$LN5@initComThr:
  00088	c7 85 58 ff ff
	ff 00 00 00 00	 mov	 DWORD PTR tv79[ebp], 0
$LN6@initComThr:
  00092	8b 8d 58 ff ff
	ff		 mov	 ecx, DWORD PTR tv79[ebp]
  00098	89 8d 60 ff ff
	ff		 mov	 DWORD PTR $T3[ebp], ecx
  0009e	c7 45 fc ff ff
	ff ff		 mov	 DWORD PTR __$EHRec$[ebp+8], -1
  000a5	8b 55 ec	 mov	 edx, DWORD PTR _this$[ebp]
  000a8	8b 85 60 ff ff
	ff		 mov	 eax, DWORD PTR $T3[ebp]
  000ae	89 42 08	 mov	 DWORD PTR [edx+8], eax

; 1191 : 		if (!m_pThreadList->alloc(nThreadCount + LIST_ADD_COUNT, eAlloc_Type_none)) {

  000b1	6a 00		 push	 0
  000b3	8b 4d 08	 mov	 ecx, DWORD PTR _nThreadCount$[ebp]
  000b6	83 c1 0a	 add	 ecx, 10			; 0000000aH
  000b9	51		 push	 ecx
  000ba	8b 55 ec	 mov	 edx, DWORD PTR _this$[ebp]
  000bd	8b 4a 08	 mov	 ecx, DWORD PTR [edx+8]
  000c0	e8 00 00 00 00	 call	 ?alloc@?$CTList@VCComThread@@@@QAEHHW4E_ALLOC_TYPE@@@Z ; CTList<CComThread>::alloc
  000c5	85 c0		 test	 eax, eax
  000c7	75 38		 jne	 SHORT $LN2@initComThr

; 1192 : 			sprintf(szErrorMsg, "m_pThreadList->alloc(%d)", nThreadCount + LIST_ADD_COUNT);

  000c9	8b 45 08	 mov	 eax, DWORD PTR _nThreadCount$[ebp]
  000cc	83 c0 0a	 add	 eax, 10			; 0000000aH
  000cf	50		 push	 eax
  000d0	68 00 00 00 00	 push	 OFFSET $SG46581
  000d5	8d 8d 68 ff ff
	ff		 lea	 ecx, DWORD PTR _szErrorMsg$[ebp]
  000db	51		 push	 ecx
  000dc	e8 00 00 00 00	 call	 _sprintf
  000e1	83 c4 0c	 add	 esp, 12			; 0000000cH

; 1193 : 			comErrorPrint(szErrorMsg);

  000e4	68 a9 04 00 00	 push	 1193			; 000004a9H
  000e9	68 00 00 00 00	 push	 OFFSET $SG46582
  000ee	8d 95 68 ff ff
	ff		 lea	 edx, DWORD PTR _szErrorMsg$[ebp]
  000f4	52		 push	 edx
  000f5	e8 00 00 00 00	 call	 ?comGlobalErrorProc@@YAXPADPBDH@Z ; comGlobalErrorProc
  000fa	83 c4 0c	 add	 esp, 12			; 0000000cH

; 1194 : 			return false;

  000fd	32 c0		 xor	 al, al
  000ff	eb 02		 jmp	 SHORT $LN1@initComThr
$LN2@initComThr:

; 1195 : 		}
; 1196 : 	}
; 1197 : 	return true;

  00101	b0 01		 mov	 al, 1
$LN1@initComThr:

; 1198 : }

  00103	52		 push	 edx
  00104	8b cd		 mov	 ecx, ebp
  00106	50		 push	 eax
  00107	8d 15 00 00 00
	00		 lea	 edx, DWORD PTR $LN11@initComThr
  0010d	e8 00 00 00 00	 call	 @_RTC_CheckStackVars@8
  00112	58		 pop	 eax
  00113	5a		 pop	 edx
  00114	8b 4d f4	 mov	 ecx, DWORD PTR __$EHRec$[ebp]
  00117	64 89 0d 00 00
	00 00		 mov	 DWORD PTR fs:0, ecx
  0011e	59		 pop	 ecx
  0011f	5f		 pop	 edi
  00120	8b 4d f0	 mov	 ecx, DWORD PTR __$ArrayPad$[ebp]
  00123	33 cd		 xor	 ecx, ebp
  00125	e8 00 00 00 00	 call	 @__security_check_cookie@4
  0012a	81 c4 a8 00 00
	00		 add	 esp, 168		; 000000a8H
  00130	3b ec		 cmp	 ebp, esp
  00132	e8 00 00 00 00	 call	 __RTC_CheckEsp
  00137	8b e5		 mov	 esp, ebp
  00139	5d		 pop	 ebp
  0013a	c2 04 00	 ret	 4
  0013d	0f 1f 00	 npad	 3
$LN11@initComThr:
  00140	01 00 00 00	 DD	 1
  00144	00 00 00 00	 DD	 $LN10@initComThr
$LN10@initComThr:
  00148	68 ff ff ff	 DD	 -152			; ffffff68H
  0014c	80 00 00 00	 DD	 128			; 00000080H
  00150	00 00 00 00	 DD	 $LN8@initComThr
$LN8@initComThr:
  00154	73		 DB	 115			; 00000073H
  00155	7a		 DB	 122			; 0000007aH
  00156	45		 DB	 69			; 00000045H
  00157	72		 DB	 114			; 00000072H
  00158	72		 DB	 114			; 00000072H
  00159	6f		 DB	 111			; 0000006fH
  0015a	72		 DB	 114			; 00000072H
  0015b	4d		 DB	 77			; 0000004dH
  0015c	73		 DB	 115			; 00000073H
  0015d	67		 DB	 103			; 00000067H
  0015e	00		 DB	 0
_TEXT	ENDS
text$x	SEGMENT
__unwindfunclet$?initComThread@CCoreList@@QAE_NH@Z$0:
  00000	68 00 00 00 00	 push	 OFFSET ?nothrow@std@@3Unothrow_t@1@B ; std::nothrow
  00005	8b 85 5c ff ff
	ff		 mov	 eax, DWORD PTR $T2[ebp]
  0000b	50		 push	 eax
  0000c	e8 00 00 00 00	 call	 ??3@YAXPAXABUnothrow_t@std@@@Z ; operator delete
  00011	83 c4 08	 add	 esp, 8
  00014	c3		 ret	 0
__ehhandler$?initComThread@CCoreList@@QAE_NH@Z:
  00015	8b 54 24 08	 mov	 edx, DWORD PTR [esp+8]
  00019	8d 42 0c	 lea	 eax, DWORD PTR [edx+12]
  0001c	8b 8a 5c ff ff
	ff		 mov	 ecx, DWORD PTR [edx-164]
  00022	33 c8		 xor	 ecx, eax
  00024	e8 00 00 00 00	 call	 @__security_check_cookie@4
  00029	8b 4a fc	 mov	 ecx, DWORD PTR [edx-4]
  0002c	33 c8		 xor	 ecx, eax
  0002e	e8 00 00 00 00	 call	 @__security_check_cookie@4
  00033	b8 00 00 00 00	 mov	 eax, OFFSET __ehfuncinfo$?initComThread@CCoreList@@QAE_NH@Z
  00038	e9 00 00 00 00	 jmp	 ___CxxFrameHandler3
text$x	ENDS
?initComThread@CCoreList@@QAE_NH@Z ENDP			; CCoreList::initComThread
; Function compile flags: /Odtp /RTCsu
; File e:\infinia-library-3.0\com\src\comcore.cpp
_TEXT	SEGMENT
tv167 = -88						; size = 4
tv145 = -84						; size = 4
tv84 = -80						; size = 4
$T2 = -76						; size = 4
$T3 = -72						; size = 4
$T4 = -68						; size = 4
$T5 = -64						; size = 4
$T6 = -60						; size = 4
$T7 = -56						; size = 4
_pEventThread$ = -52					; size = 4
_nTmp$ = -48						; size = 4
_idx$ = -40						; size = 4
_nMax$ = -32						; size = 4
_i$ = -28						; size = 4
_nCount$ = -24						; size = 4
_this$ = -20						; size = 4
__$ArrayPad$ = -16					; size = 4
__$EHRec$ = -12						; size = 12
_pConfigFile$ = 8					; size = 4
_pSection$ = 12						; size = 4
?initQueueThread@CCoreList@@QAE_NPAD0@Z PROC		; CCoreList::initQueueThread
; _this$ = ecx

; 787  : {

  00000	55		 push	 ebp
  00001	8b ec		 mov	 ebp, esp
  00003	6a ff		 push	 -1
  00005	68 00 00 00 00	 push	 __ehhandler$?initQueueThread@CCoreList@@QAE_NPAD0@Z
  0000a	64 a1 00 00 00
	00		 mov	 eax, DWORD PTR fs:0
  00010	50		 push	 eax
  00011	83 ec 4c	 sub	 esp, 76			; 0000004cH
  00014	56		 push	 esi
  00015	57		 push	 edi
  00016	51		 push	 ecx
  00017	8d 7d a8	 lea	 edi, DWORD PTR [ebp-88]
  0001a	b9 13 00 00 00	 mov	 ecx, 19			; 00000013H
  0001f	b8 cc cc cc cc	 mov	 eax, -858993460		; ccccccccH
  00024	f3 ab		 rep stosd
  00026	59		 pop	 ecx
  00027	a1 00 00 00 00	 mov	 eax, DWORD PTR ___security_cookie
  0002c	33 c5		 xor	 eax, ebp
  0002e	89 45 f0	 mov	 DWORD PTR __$ArrayPad$[ebp], eax
  00031	50		 push	 eax
  00032	8d 45 f4	 lea	 eax, DWORD PTR __$EHRec$[ebp]
  00035	64 a3 00 00 00
	00		 mov	 DWORD PTR fs:0, eax
  0003b	89 4d ec	 mov	 DWORD PTR _this$[ebp], ecx

; 788  : 	int nCount, i, nMax, idx, nTmp;
; 789  : 	CComQueueThread *pEventThread;
; 790  : 	nCount = GetPrivateProfileInt(pSection, _T("LIST_COUNT"), 0, pConfigFile);

  0003e	8b f4		 mov	 esi, esp
  00040	8b 45 08	 mov	 eax, DWORD PTR _pConfigFile$[ebp]
  00043	50		 push	 eax
  00044	6a 00		 push	 0
  00046	68 00 00 00 00	 push	 OFFSET $SG46276
  0004b	8b 4d 0c	 mov	 ecx, DWORD PTR _pSection$[ebp]
  0004e	51		 push	 ecx
  0004f	ff 15 00 00 00
	00		 call	 DWORD PTR __imp__GetPrivateProfileIntA@16
  00055	3b f4		 cmp	 esi, esp
  00057	e8 00 00 00 00	 call	 __RTC_CheckEsp
  0005c	89 45 e8	 mov	 DWORD PTR _nCount$[ebp], eax

; 791  : 	if (nCount)

  0005f	83 7d e8 00	 cmp	 DWORD PTR _nCount$[ebp], 0
  00063	0f 84 11 02 00
	00		 je	 $LN5@initQueueT

; 792  : 	{
; 793  : 		m_pEventThreadList = new CTList<CComQueueThread>();

  00069	6a 18		 push	 24			; 00000018H
  0006b	e8 00 00 00 00	 call	 ??2@YAPAXI@Z		; operator new
  00070	83 c4 04	 add	 esp, 4
  00073	89 45 c4	 mov	 DWORD PTR $T6[ebp], eax
  00076	c7 45 fc 00 00
	00 00		 mov	 DWORD PTR __$EHRec$[ebp+8], 0
  0007d	83 7d c4 00	 cmp	 DWORD PTR $T6[ebp], 0
  00081	74 17		 je	 SHORT $LN12@initQueueT
  00083	6a 18		 push	 24			; 00000018H
  00085	8b 4d c4	 mov	 ecx, DWORD PTR $T6[ebp]
  00088	e8 00 00 00 00	 call	 ?__autoclassinit2@?$CTList@VCComQueueThread@@@@QAEXI@Z
  0008d	8b 4d c4	 mov	 ecx, DWORD PTR $T6[ebp]
  00090	e8 00 00 00 00	 call	 ??0?$CTList@VCComQueueThread@@@@QAE@XZ ; CTList<CComQueueThread>::CTList<CComQueueThread>
  00095	89 45 b0	 mov	 DWORD PTR tv84[ebp], eax
  00098	eb 07		 jmp	 SHORT $LN13@initQueueT
$LN12@initQueueT:
  0009a	c7 45 b0 00 00
	00 00		 mov	 DWORD PTR tv84[ebp], 0
$LN13@initQueueT:
  000a1	8b 55 b0	 mov	 edx, DWORD PTR tv84[ebp]
  000a4	89 55 c8	 mov	 DWORD PTR $T7[ebp], edx
  000a7	c7 45 fc ff ff
	ff ff		 mov	 DWORD PTR __$EHRec$[ebp+8], -1
  000ae	8b 45 ec	 mov	 eax, DWORD PTR _this$[ebp]
  000b1	8b 4d c8	 mov	 ecx, DWORD PTR $T7[ebp]
  000b4	89 48 0c	 mov	 DWORD PTR [eax+12], ecx

; 794  : 		if (!m_pEventThreadList->alloc(nCount + LIST_ADD_COUNT, eAlloc_Type_none)) {

  000b7	6a 00		 push	 0
  000b9	8b 55 e8	 mov	 edx, DWORD PTR _nCount$[ebp]
  000bc	83 c2 0a	 add	 edx, 10			; 0000000aH
  000bf	52		 push	 edx
  000c0	8b 45 ec	 mov	 eax, DWORD PTR _this$[ebp]
  000c3	8b 48 0c	 mov	 ecx, DWORD PTR [eax+12]
  000c6	e8 00 00 00 00	 call	 ?alloc@?$CTList@VCComQueueThread@@@@QAEHHW4E_ALLOC_TYPE@@@Z ; CTList<CComQueueThread>::alloc
  000cb	85 c0		 test	 eax, eax
  000cd	75 14		 jne	 SHORT $LN6@initQueueT

; 795  : 			printf("has Failed!! m_pEventThreadList = new CTList<CComQueueThread>()\n");

  000cf	68 00 00 00 00	 push	 OFFSET $SG46280
  000d4	e8 00 00 00 00	 call	 _printf
  000d9	83 c4 04	 add	 esp, 4

; 796  : 			return false;

  000dc	32 c0		 xor	 al, al
  000de	e9 99 01 00 00	 jmp	 $LN1@initQueueT
$LN6@initQueueT:

; 797  : 		}
; 798  : 		nTmp = nCount * 20;

  000e3	6b 4d e8 14	 imul	 ecx, DWORD PTR _nCount$[ebp], 20
  000e7	89 4d d0	 mov	 DWORD PTR _nTmp$[ebp], ecx

; 799  : 		nMax = GetPrivateProfileInt(pSection, _T("EVENT_POOL_MAX"), nTmp, pConfigFile) + CORE_PLUS_POOL_COUNT;

  000ea	8b f4		 mov	 esi, esp
  000ec	8b 55 08	 mov	 edx, DWORD PTR _pConfigFile$[ebp]
  000ef	52		 push	 edx
  000f0	8b 45 d0	 mov	 eax, DWORD PTR _nTmp$[ebp]
  000f3	50		 push	 eax
  000f4	68 00 00 00 00	 push	 OFFSET $SG46281
  000f9	8b 4d 0c	 mov	 ecx, DWORD PTR _pSection$[ebp]
  000fc	51		 push	 ecx
  000fd	ff 15 00 00 00
	00		 call	 DWORD PTR __imp__GetPrivateProfileIntA@16
  00103	3b f4		 cmp	 esi, esp
  00105	e8 00 00 00 00	 call	 __RTC_CheckEsp
  0010a	83 c0 0a	 add	 eax, 10			; 0000000aH
  0010d	89 45 e0	 mov	 DWORD PTR _nMax$[ebp], eax

; 800  : 		m_pEventPool = new CMemPool<STEvent>();

  00110	6a 18		 push	 24			; 00000018H
  00112	e8 00 00 00 00	 call	 ??2@YAPAXI@Z		; operator new
  00117	83 c4 04	 add	 esp, 4
  0011a	89 45 bc	 mov	 DWORD PTR $T4[ebp], eax
  0011d	c7 45 fc 01 00
	00 00		 mov	 DWORD PTR __$EHRec$[ebp+8], 1
  00124	83 7d bc 00	 cmp	 DWORD PTR $T4[ebp], 0
  00128	74 17		 je	 SHORT $LN14@initQueueT
  0012a	6a 18		 push	 24			; 00000018H
  0012c	8b 4d bc	 mov	 ecx, DWORD PTR $T4[ebp]
  0012f	e8 00 00 00 00	 call	 ?__autoclassinit2@?$CMemPool@USTEvent@@@@QAEXI@Z
  00134	8b 4d bc	 mov	 ecx, DWORD PTR $T4[ebp]
  00137	e8 00 00 00 00	 call	 ??0?$CMemPool@USTEvent@@@@QAE@XZ ; CMemPool<STEvent>::CMemPool<STEvent>
  0013c	89 45 ac	 mov	 DWORD PTR tv145[ebp], eax
  0013f	eb 07		 jmp	 SHORT $LN15@initQueueT
$LN14@initQueueT:
  00141	c7 45 ac 00 00
	00 00		 mov	 DWORD PTR tv145[ebp], 0
$LN15@initQueueT:
  00148	8b 55 ac	 mov	 edx, DWORD PTR tv145[ebp]
  0014b	89 55 c0	 mov	 DWORD PTR $T5[ebp], edx
  0014e	c7 45 fc ff ff
	ff ff		 mov	 DWORD PTR __$EHRec$[ebp+8], -1
  00155	8b 45 ec	 mov	 eax, DWORD PTR _this$[ebp]
  00158	8b 4d c0	 mov	 ecx, DWORD PTR $T5[ebp]
  0015b	89 48 14	 mov	 DWORD PTR [eax+20], ecx

; 801  : 		if (!m_pEventPool->alloc(nMax, eAlloc_Type_alloc)) {

  0015e	6a 03		 push	 3
  00160	8b 55 e0	 mov	 edx, DWORD PTR _nMax$[ebp]
  00163	52		 push	 edx
  00164	8b 45 ec	 mov	 eax, DWORD PTR _this$[ebp]
  00167	8b 48 14	 mov	 ecx, DWORD PTR [eax+20]
  0016a	e8 00 00 00 00	 call	 ?alloc@?$CMemPool@USTEvent@@@@QAEHHW4E_ALLOC_TYPE@@@Z ; CMemPool<STEvent>::alloc
  0016f	85 c0		 test	 eax, eax
  00171	75 18		 jne	 SHORT $LN7@initQueueT

; 802  : 			printf("has Failed!! m_pEventPool.alloc(%d)\n", nMax);

  00173	8b 4d e0	 mov	 ecx, DWORD PTR _nMax$[ebp]
  00176	51		 push	 ecx
  00177	68 00 00 00 00	 push	 OFFSET $SG46284
  0017c	e8 00 00 00 00	 call	 _printf
  00181	83 c4 08	 add	 esp, 8

; 803  : 			return false;

  00184	32 c0		 xor	 al, al
  00186	e9 f1 00 00 00	 jmp	 $LN1@initQueueT
$LN7@initQueueT:

; 804  : 		}
; 805  : 		for (i = 0; i < nCount; i++) {

  0018b	c7 45 e4 00 00
	00 00		 mov	 DWORD PTR _i$[ebp], 0
  00192	eb 09		 jmp	 SHORT $LN4@initQueueT
$LN2@initQueueT:
  00194	8b 55 e4	 mov	 edx, DWORD PTR _i$[ebp]
  00197	83 c2 01	 add	 edx, 1
  0019a	89 55 e4	 mov	 DWORD PTR _i$[ebp], edx
$LN4@initQueueT:
  0019d	8b 45 e4	 mov	 eax, DWORD PTR _i$[ebp]
  001a0	3b 45 e8	 cmp	 eax, DWORD PTR _nCount$[ebp]
  001a3	0f 8d d1 00 00
	00		 jge	 $LN5@initQueueT

; 806  : 			pEventThread = new (std::nothrow) CComQueueThread();

  001a9	68 00 00 00 00	 push	 OFFSET ?nothrow@std@@3Unothrow_t@1@B ; std::nothrow
  001ae	6a 68		 push	 104			; 00000068H
  001b0	e8 00 00 00 00	 call	 ??2@YAPAXIABUnothrow_t@std@@@Z ; operator new
  001b5	83 c4 08	 add	 esp, 8
  001b8	89 45 b4	 mov	 DWORD PTR $T2[ebp], eax
  001bb	c7 45 fc 02 00
	00 00		 mov	 DWORD PTR __$EHRec$[ebp+8], 2
  001c2	83 7d b4 00	 cmp	 DWORD PTR $T2[ebp], 0
  001c6	74 0d		 je	 SHORT $LN16@initQueueT
  001c8	8b 4d b4	 mov	 ecx, DWORD PTR $T2[ebp]
  001cb	e8 00 00 00 00	 call	 ??0CComQueueThread@@QAE@XZ ; CComQueueThread::CComQueueThread
  001d0	89 45 a8	 mov	 DWORD PTR tv167[ebp], eax
  001d3	eb 07		 jmp	 SHORT $LN17@initQueueT
$LN16@initQueueT:
  001d5	c7 45 a8 00 00
	00 00		 mov	 DWORD PTR tv167[ebp], 0
$LN17@initQueueT:
  001dc	8b 4d a8	 mov	 ecx, DWORD PTR tv167[ebp]
  001df	89 4d b8	 mov	 DWORD PTR $T3[ebp], ecx
  001e2	c7 45 fc ff ff
	ff ff		 mov	 DWORD PTR __$EHRec$[ebp+8], -1
  001e9	8b 55 b8	 mov	 edx, DWORD PTR $T3[ebp]
  001ec	89 55 cc	 mov	 DWORD PTR _pEventThread$[ebp], edx

; 807  : 			if (!pEventThread) {

  001ef	83 7d cc 00	 cmp	 DWORD PTR _pEventThread$[ebp], 0
  001f3	75 15		 jne	 SHORT $LN8@initQueueT

; 808  : 				printf("has Failed!! [seq:%d] pEventThread = new (std::nothrow) CComQueueThread()\n", i);

  001f5	8b 45 e4	 mov	 eax, DWORD PTR _i$[ebp]
  001f8	50		 push	 eax
  001f9	68 00 00 00 00	 push	 OFFSET $SG46287
  001fe	e8 00 00 00 00	 call	 _printf
  00203	83 c4 08	 add	 esp, 8

; 809  : 				return false;

  00206	32 c0		 xor	 al, al
  00208	eb 72		 jmp	 SHORT $LN1@initQueueT
$LN8@initQueueT:

; 810  : 			}
; 811  : 			if (!pEventThread->initConfig(pConfigFile, i, pSection)) {

  0020a	8b 4d 0c	 mov	 ecx, DWORD PTR _pSection$[ebp]
  0020d	51		 push	 ecx
  0020e	8b 55 e4	 mov	 edx, DWORD PTR _i$[ebp]
  00211	52		 push	 edx
  00212	8b 45 08	 mov	 eax, DWORD PTR _pConfigFile$[ebp]
  00215	50		 push	 eax
  00216	8b 4d cc	 mov	 ecx, DWORD PTR _pEventThread$[ebp]
  00219	e8 00 00 00 00	 call	 ?initConfig@CComQueueThread@@QAE_NPADH0@Z ; CComQueueThread::initConfig
  0021e	0f b6 c8	 movzx	 ecx, al
  00221	85 c9		 test	 ecx, ecx
  00223	75 15		 jne	 SHORT $LN9@initQueueT

; 812  : 				printf("has Failed!! [seq:%d] pEventThread->init()\n", i);

  00225	8b 55 e4	 mov	 edx, DWORD PTR _i$[ebp]
  00228	52		 push	 edx
  00229	68 00 00 00 00	 push	 OFFSET $SG46289
  0022e	e8 00 00 00 00	 call	 _printf
  00233	83 c4 08	 add	 esp, 8

; 813  : 				return false;

  00236	32 c0		 xor	 al, al
  00238	eb 42		 jmp	 SHORT $LN1@initQueueT
$LN9@initQueueT:

; 814  : 			}
; 815  : 
; 816  : 			if (!m_pEventThreadList->push_back(pEventThread, &idx)) {

  0023a	8d 45 d8	 lea	 eax, DWORD PTR _idx$[ebp]
  0023d	50		 push	 eax
  0023e	8b 4d cc	 mov	 ecx, DWORD PTR _pEventThread$[ebp]
  00241	51		 push	 ecx
  00242	8b 55 ec	 mov	 edx, DWORD PTR _this$[ebp]
  00245	8b 4a 0c	 mov	 ecx, DWORD PTR [edx+12]
  00248	e8 00 00 00 00	 call	 ?push_back@?$CTList@VCComQueueThread@@@@QAE_NPAVCComQueueThread@@PAH@Z ; CTList<CComQueueThread>::push_back
  0024d	0f b6 c0	 movzx	 eax, al
  00250	85 c0		 test	 eax, eax
  00252	75 15		 jne	 SHORT $LN10@initQueueT

; 817  : 				printf("has Failed!! [seq:%d] m_pEventThreadList->setNewObj(pScheduler)\n", i);

  00254	8b 4d e4	 mov	 ecx, DWORD PTR _i$[ebp]
  00257	51		 push	 ecx
  00258	68 00 00 00 00	 push	 OFFSET $SG46291
  0025d	e8 00 00 00 00	 call	 _printf
  00262	83 c4 08	 add	 esp, 8

; 818  : 				return false;

  00265	32 c0		 xor	 al, al
  00267	eb 13		 jmp	 SHORT $LN1@initQueueT
$LN10@initQueueT:

; 819  : 			}
; 820  : 			pEventThread->m_cThread.setIdx(idx);

  00269	8b 55 d8	 mov	 edx, DWORD PTR _idx$[ebp]
  0026c	52		 push	 edx
  0026d	8b 4d cc	 mov	 ecx, DWORD PTR _pEventThread$[ebp]
  00270	e8 00 00 00 00	 call	 ?setIdx@CComThread@@QAEXH@Z ; CComThread::setIdx

; 821  : 		}

  00275	e9 1a ff ff ff	 jmp	 $LN2@initQueueT
$LN5@initQueueT:

; 822  : 	}
; 823  : 	return true;

  0027a	b0 01		 mov	 al, 1
$LN1@initQueueT:

; 824  : }

  0027c	52		 push	 edx
  0027d	8b cd		 mov	 ecx, ebp
  0027f	50		 push	 eax
  00280	8d 15 00 00 00
	00		 lea	 edx, DWORD PTR $LN24@initQueueT
  00286	e8 00 00 00 00	 call	 @_RTC_CheckStackVars@8
  0028b	58		 pop	 eax
  0028c	5a		 pop	 edx
  0028d	8b 4d f4	 mov	 ecx, DWORD PTR __$EHRec$[ebp]
  00290	64 89 0d 00 00
	00 00		 mov	 DWORD PTR fs:0, ecx
  00297	59		 pop	 ecx
  00298	5f		 pop	 edi
  00299	5e		 pop	 esi
  0029a	8b 4d f0	 mov	 ecx, DWORD PTR __$ArrayPad$[ebp]
  0029d	33 cd		 xor	 ecx, ebp
  0029f	e8 00 00 00 00	 call	 @__security_check_cookie@4
  002a4	83 c4 58	 add	 esp, 88			; 00000058H
  002a7	3b ec		 cmp	 ebp, esp
  002a9	e8 00 00 00 00	 call	 __RTC_CheckEsp
  002ae	8b e5		 mov	 esp, ebp
  002b0	5d		 pop	 ebp
  002b1	c2 08 00	 ret	 8
$LN24@initQueueT:
  002b4	01 00 00 00	 DD	 1
  002b8	00 00 00 00	 DD	 $LN23@initQueueT
$LN23@initQueueT:
  002bc	d8 ff ff ff	 DD	 -40			; ffffffd8H
  002c0	04 00 00 00	 DD	 4
  002c4	00 00 00 00	 DD	 $LN21@initQueueT
$LN21@initQueueT:
  002c8	69		 DB	 105			; 00000069H
  002c9	64		 DB	 100			; 00000064H
  002ca	78		 DB	 120			; 00000078H
  002cb	00		 DB	 0
_TEXT	ENDS
text$x	SEGMENT
__unwindfunclet$?initQueueThread@CCoreList@@QAE_NPAD0@Z$0:
  00000	6a 18		 push	 24			; 00000018H
  00002	8b 45 c4	 mov	 eax, DWORD PTR $T6[ebp]
  00005	50		 push	 eax
  00006	e8 00 00 00 00	 call	 ??3@YAXPAXI@Z		; operator delete
  0000b	83 c4 08	 add	 esp, 8
  0000e	c3		 ret	 0
__unwindfunclet$?initQueueThread@CCoreList@@QAE_NPAD0@Z$1:
  0000f	6a 18		 push	 24			; 00000018H
  00011	8b 45 bc	 mov	 eax, DWORD PTR $T4[ebp]
  00014	50		 push	 eax
  00015	e8 00 00 00 00	 call	 ??3@YAXPAXI@Z		; operator delete
  0001a	83 c4 08	 add	 esp, 8
  0001d	c3		 ret	 0
__unwindfunclet$?initQueueThread@CCoreList@@QAE_NPAD0@Z$2:
  0001e	68 00 00 00 00	 push	 OFFSET ?nothrow@std@@3Unothrow_t@1@B ; std::nothrow
  00023	8b 45 b4	 mov	 eax, DWORD PTR $T2[ebp]
  00026	50		 push	 eax
  00027	e8 00 00 00 00	 call	 ??3@YAXPAXABUnothrow_t@std@@@Z ; operator delete
  0002c	83 c4 08	 add	 esp, 8
  0002f	c3		 ret	 0
__ehhandler$?initQueueThread@CCoreList@@QAE_NPAD0@Z:
  00030	8b 54 24 08	 mov	 edx, DWORD PTR [esp+8]
  00034	8d 42 0c	 lea	 eax, DWORD PTR [edx+12]
  00037	8b 4a a8	 mov	 ecx, DWORD PTR [edx-88]
  0003a	33 c8		 xor	 ecx, eax
  0003c	e8 00 00 00 00	 call	 @__security_check_cookie@4
  00041	8b 4a fc	 mov	 ecx, DWORD PTR [edx-4]
  00044	33 c8		 xor	 ecx, eax
  00046	e8 00 00 00 00	 call	 @__security_check_cookie@4
  0004b	b8 00 00 00 00	 mov	 eax, OFFSET __ehfuncinfo$?initQueueThread@CCoreList@@QAE_NPAD0@Z
  00050	e9 00 00 00 00	 jmp	 ___CxxFrameHandler3
text$x	ENDS
?initQueueThread@CCoreList@@QAE_NPAD0@Z ENDP		; CCoreList::initQueueThread
; Function compile flags: /Odtp /RTCsu
; File e:\infinia-library-3.0\com\src\comcore.cpp
_TEXT	SEGMENT
tv179 = -220						; size = 4
tv157 = -216						; size = 4
tv85 = -212						; size = 4
$T2 = -208						; size = 4
$T3 = -204						; size = 4
$T4 = -200						; size = 4
$T5 = -196						; size = 4
$T6 = -192						; size = 4
$T7 = -188						; size = 4
_szErrorMsg$ = -180					; size = 128
_pScheduler$ = -48					; size = 4
_idx$ = -40						; size = 4
_nMax$ = -32						; size = 4
_i$ = -28						; size = 4
_nCount$ = -24						; size = 4
_this$ = -20						; size = 4
__$ArrayPad$ = -16					; size = 4
__$EHRec$ = -12						; size = 12
_pConfigFile$ = 8					; size = 4
_pSection$ = 12						; size = 4
?initScheduler@CCoreList@@QAE_NPAD0@Z PROC		; CCoreList::initScheduler
; _this$ = ecx

; 734  : {

  00000	55		 push	 ebp
  00001	8b ec		 mov	 ebp, esp
  00003	6a ff		 push	 -1
  00005	68 00 00 00 00	 push	 __ehhandler$?initScheduler@CCoreList@@QAE_NPAD0@Z
  0000a	64 a1 00 00 00
	00		 mov	 eax, DWORD PTR fs:0
  00010	50		 push	 eax
  00011	81 ec d0 00 00
	00		 sub	 esp, 208		; 000000d0H
  00017	56		 push	 esi
  00018	57		 push	 edi
  00019	51		 push	 ecx
  0001a	8d bd 24 ff ff
	ff		 lea	 edi, DWORD PTR [ebp-220]
  00020	b9 34 00 00 00	 mov	 ecx, 52			; 00000034H
  00025	b8 cc cc cc cc	 mov	 eax, -858993460		; ccccccccH
  0002a	f3 ab		 rep stosd
  0002c	59		 pop	 ecx
  0002d	a1 00 00 00 00	 mov	 eax, DWORD PTR ___security_cookie
  00032	33 c5		 xor	 eax, ebp
  00034	89 45 f0	 mov	 DWORD PTR __$ArrayPad$[ebp], eax
  00037	50		 push	 eax
  00038	8d 45 f4	 lea	 eax, DWORD PTR __$EHRec$[ebp]
  0003b	64 a3 00 00 00
	00		 mov	 DWORD PTR fs:0, eax
  00041	89 4d ec	 mov	 DWORD PTR _this$[ebp], ecx

; 735  : 	int nCount, i, nMax, idx;
; 736  : 	CScheduler *pScheduler;
; 737  : 	char szErrorMsg[128];
; 738  : 	// scheduler
; 739  : 	nCount = GetPrivateProfileInt(pSection, _T("LIST_COUNT"), 0, pConfigFile);

  00044	8b f4		 mov	 esi, esp
  00046	8b 45 08	 mov	 eax, DWORD PTR _pConfigFile$[ebp]
  00049	50		 push	 eax
  0004a	6a 00		 push	 0
  0004c	68 00 00 00 00	 push	 OFFSET $SG46224
  00051	8b 4d 0c	 mov	 ecx, DWORD PTR _pSection$[ebp]
  00054	51		 push	 ecx
  00055	ff 15 00 00 00
	00		 call	 DWORD PTR __imp__GetPrivateProfileIntA@16
  0005b	3b f4		 cmp	 esi, esp
  0005d	e8 00 00 00 00	 call	 __RTC_CheckEsp
  00062	89 45 e8	 mov	 DWORD PTR _nCount$[ebp], eax

; 740  : 	if (nCount) {

  00065	83 7d e8 00	 cmp	 DWORD PTR _nCount$[ebp], 0
  00069	0f 84 1a 03 00
	00		 je	 $LN5@initSchedu

; 741  : 		if (!m_pSchedulerList) {

  0006f	8b 55 ec	 mov	 edx, DWORD PTR _this$[ebp]
  00072	83 7a 04 00	 cmp	 DWORD PTR [edx+4], 0
  00076	0f 85 f1 00 00
	00		 jne	 $LN6@initSchedu

; 742  : 			m_pSchedulerList = new (std::nothrow) CTList<CScheduler>();

  0007c	68 00 00 00 00	 push	 OFFSET ?nothrow@std@@3Unothrow_t@1@B ; std::nothrow
  00081	6a 18		 push	 24			; 00000018H
  00083	e8 00 00 00 00	 call	 ??2@YAPAXIABUnothrow_t@std@@@Z ; operator new
  00088	83 c4 08	 add	 esp, 8
  0008b	89 85 40 ff ff
	ff		 mov	 DWORD PTR $T6[ebp], eax
  00091	c7 45 fc 00 00
	00 00		 mov	 DWORD PTR __$EHRec$[ebp+8], 0
  00098	83 bd 40 ff ff
	ff 00		 cmp	 DWORD PTR $T6[ebp], 0
  0009f	74 13		 je	 SHORT $LN14@initSchedu
  000a1	8b 8d 40 ff ff
	ff		 mov	 ecx, DWORD PTR $T6[ebp]
  000a7	e8 00 00 00 00	 call	 ??0?$CTList@VCScheduler@@@@QAE@XZ ; CTList<CScheduler>::CTList<CScheduler>
  000ac	89 85 2c ff ff
	ff		 mov	 DWORD PTR tv85[ebp], eax
  000b2	eb 0a		 jmp	 SHORT $LN15@initSchedu
$LN14@initSchedu:
  000b4	c7 85 2c ff ff
	ff 00 00 00 00	 mov	 DWORD PTR tv85[ebp], 0
$LN15@initSchedu:
  000be	8b 85 2c ff ff
	ff		 mov	 eax, DWORD PTR tv85[ebp]
  000c4	89 85 44 ff ff
	ff		 mov	 DWORD PTR $T7[ebp], eax
  000ca	c7 45 fc ff ff
	ff ff		 mov	 DWORD PTR __$EHRec$[ebp+8], -1
  000d1	8b 4d ec	 mov	 ecx, DWORD PTR _this$[ebp]
  000d4	8b 95 44 ff ff
	ff		 mov	 edx, DWORD PTR $T7[ebp]
  000da	89 51 04	 mov	 DWORD PTR [ecx+4], edx

; 743  : 			if (!m_pSchedulerList) {

  000dd	8b 45 ec	 mov	 eax, DWORD PTR _this$[ebp]
  000e0	83 78 04 00	 cmp	 DWORD PTR [eax+4], 0
  000e4	75 34		 jne	 SHORT $LN7@initSchedu

; 744  : 				sprintf(szErrorMsg, "new (std::nothrow) CTList<CScheduler>() is NULL");

  000e6	68 00 00 00 00	 push	 OFFSET $SG46229
  000eb	8d 8d 4c ff ff
	ff		 lea	 ecx, DWORD PTR _szErrorMsg$[ebp]
  000f1	51		 push	 ecx
  000f2	e8 00 00 00 00	 call	 _sprintf
  000f7	83 c4 08	 add	 esp, 8

; 745  : 				comErrorPrint(szErrorMsg);

  000fa	68 e9 02 00 00	 push	 745			; 000002e9H
  000ff	68 00 00 00 00	 push	 OFFSET $SG46230
  00104	8d 95 4c ff ff
	ff		 lea	 edx, DWORD PTR _szErrorMsg$[ebp]
  0010a	52		 push	 edx
  0010b	e8 00 00 00 00	 call	 ?comGlobalErrorProc@@YAXPADPBDH@Z ; comGlobalErrorProc
  00110	83 c4 0c	 add	 esp, 12			; 0000000cH

; 746  : 				return false;

  00113	32 c0		 xor	 al, al
  00115	e9 71 02 00 00	 jmp	 $LN1@initSchedu
$LN7@initSchedu:

; 747  : 			}
; 748  : 			if (!m_pSchedulerList->alloc(nCount + LIST_ADD_COUNT, eAlloc_Type_none)) {

  0011a	6a 00		 push	 0
  0011c	8b 45 e8	 mov	 eax, DWORD PTR _nCount$[ebp]
  0011f	83 c0 0a	 add	 eax, 10			; 0000000aH
  00122	50		 push	 eax
  00123	8b 4d ec	 mov	 ecx, DWORD PTR _this$[ebp]
  00126	8b 49 04	 mov	 ecx, DWORD PTR [ecx+4]
  00129	e8 00 00 00 00	 call	 ?alloc@?$CTList@VCScheduler@@@@QAEHHW4E_ALLOC_TYPE@@@Z ; CTList<CScheduler>::alloc
  0012e	85 c0		 test	 eax, eax
  00130	75 3b		 jne	 SHORT $LN6@initSchedu

; 749  : 				sprintf(szErrorMsg, "m_pSchedulerList->alloc nCnt[%d]", nCount + LIST_ADD_COUNT);

  00132	8b 55 e8	 mov	 edx, DWORD PTR _nCount$[ebp]
  00135	83 c2 0a	 add	 edx, 10			; 0000000aH
  00138	52		 push	 edx
  00139	68 00 00 00 00	 push	 OFFSET $SG46232
  0013e	8d 85 4c ff ff
	ff		 lea	 eax, DWORD PTR _szErrorMsg$[ebp]
  00144	50		 push	 eax
  00145	e8 00 00 00 00	 call	 _sprintf
  0014a	83 c4 0c	 add	 esp, 12			; 0000000cH

; 750  : 				comErrorPrint(szErrorMsg);

  0014d	68 ee 02 00 00	 push	 750			; 000002eeH
  00152	68 00 00 00 00	 push	 OFFSET $SG46233
  00157	8d 8d 4c ff ff
	ff		 lea	 ecx, DWORD PTR _szErrorMsg$[ebp]
  0015d	51		 push	 ecx
  0015e	e8 00 00 00 00	 call	 ?comGlobalErrorProc@@YAXPADPBDH@Z ; comGlobalErrorProc
  00163	83 c4 0c	 add	 esp, 12			; 0000000cH

; 751  : 				return false;

  00166	32 c0		 xor	 al, al
  00168	e9 1e 02 00 00	 jmp	 $LN1@initSchedu
$LN6@initSchedu:

; 752  : 			}
; 753  : 		}
; 754  : 
; 755  : 		nMax = GetPrivateProfileInt(pSection, _T("TIME_POOL_MAX"), 0, pConfigFile) + CORE_PLUS_POOL_COUNT;

  0016d	8b f4		 mov	 esi, esp
  0016f	8b 55 08	 mov	 edx, DWORD PTR _pConfigFile$[ebp]
  00172	52		 push	 edx
  00173	6a 00		 push	 0
  00175	68 00 00 00 00	 push	 OFFSET $SG46234
  0017a	8b 45 0c	 mov	 eax, DWORD PTR _pSection$[ebp]
  0017d	50		 push	 eax
  0017e	ff 15 00 00 00
	00		 call	 DWORD PTR __imp__GetPrivateProfileIntA@16
  00184	3b f4		 cmp	 esi, esp
  00186	e8 00 00 00 00	 call	 __RTC_CheckEsp
  0018b	83 c0 0a	 add	 eax, 10			; 0000000aH
  0018e	89 45 e0	 mov	 DWORD PTR _nMax$[ebp], eax

; 756  : 		m_pIntervalPool = new (std::nothrow) CMemPool<STIntervalInfo>();

  00191	68 00 00 00 00	 push	 OFFSET ?nothrow@std@@3Unothrow_t@1@B ; std::nothrow
  00196	6a 18		 push	 24			; 00000018H
  00198	e8 00 00 00 00	 call	 ??2@YAPAXIABUnothrow_t@std@@@Z ; operator new
  0019d	83 c4 08	 add	 esp, 8
  001a0	89 85 38 ff ff
	ff		 mov	 DWORD PTR $T4[ebp], eax
  001a6	c7 45 fc 01 00
	00 00		 mov	 DWORD PTR __$EHRec$[ebp+8], 1
  001ad	83 bd 38 ff ff
	ff 00		 cmp	 DWORD PTR $T4[ebp], 0
  001b4	74 13		 je	 SHORT $LN16@initSchedu
  001b6	8b 8d 38 ff ff
	ff		 mov	 ecx, DWORD PTR $T4[ebp]
  001bc	e8 00 00 00 00	 call	 ??0?$CMemPool@USTIntervalInfo@@@@QAE@XZ ; CMemPool<STIntervalInfo>::CMemPool<STIntervalInfo>
  001c1	89 85 28 ff ff
	ff		 mov	 DWORD PTR tv157[ebp], eax
  001c7	eb 0a		 jmp	 SHORT $LN17@initSchedu
$LN16@initSchedu:
  001c9	c7 85 28 ff ff
	ff 00 00 00 00	 mov	 DWORD PTR tv157[ebp], 0
$LN17@initSchedu:
  001d3	8b 8d 28 ff ff
	ff		 mov	 ecx, DWORD PTR tv157[ebp]
  001d9	89 8d 3c ff ff
	ff		 mov	 DWORD PTR $T5[ebp], ecx
  001df	c7 45 fc ff ff
	ff ff		 mov	 DWORD PTR __$EHRec$[ebp+8], -1
  001e6	8b 55 ec	 mov	 edx, DWORD PTR _this$[ebp]
  001e9	8b 85 3c ff ff
	ff		 mov	 eax, DWORD PTR $T5[ebp]
  001ef	89 42 10	 mov	 DWORD PTR [edx+16], eax

; 757  : 		if (!m_pIntervalPool->alloc(nMax, eAlloc_Type_alloc)) {

  001f2	6a 03		 push	 3
  001f4	8b 4d e0	 mov	 ecx, DWORD PTR _nMax$[ebp]
  001f7	51		 push	 ecx
  001f8	8b 55 ec	 mov	 edx, DWORD PTR _this$[ebp]
  001fb	8b 4a 10	 mov	 ecx, DWORD PTR [edx+16]
  001fe	e8 00 00 00 00	 call	 ?alloc@?$CMemPool@USTIntervalInfo@@@@QAEHHW4E_ALLOC_TYPE@@@Z ; CMemPool<STIntervalInfo>::alloc
  00203	85 c0		 test	 eax, eax
  00205	75 18		 jne	 SHORT $LN9@initSchedu

; 758  : 			printf("has Failed!! m_pIntervalPool.alloc(%d)\n", nMax);

  00207	8b 45 e0	 mov	 eax, DWORD PTR _nMax$[ebp]
  0020a	50		 push	 eax
  0020b	68 00 00 00 00	 push	 OFFSET $SG46237
  00210	e8 00 00 00 00	 call	 _printf
  00215	83 c4 08	 add	 esp, 8

; 759  : 			return false;

  00218	32 c0		 xor	 al, al
  0021a	e9 6c 01 00 00	 jmp	 $LN1@initSchedu
$LN9@initSchedu:

; 760  : 		}
; 761  : 
; 762  : 		for (i = 0; i < nCount; i++) {

  0021f	c7 45 e4 00 00
	00 00		 mov	 DWORD PTR _i$[ebp], 0
  00226	eb 09		 jmp	 SHORT $LN4@initSchedu
$LN2@initSchedu:
  00228	8b 4d e4	 mov	 ecx, DWORD PTR _i$[ebp]
  0022b	83 c1 01	 add	 ecx, 1
  0022e	89 4d e4	 mov	 DWORD PTR _i$[ebp], ecx
$LN4@initSchedu:
  00231	8b 55 e4	 mov	 edx, DWORD PTR _i$[ebp]
  00234	3b 55 e8	 cmp	 edx, DWORD PTR _nCount$[ebp]
  00237	0f 8d 4c 01 00
	00		 jge	 $LN5@initSchedu

; 763  : 			pScheduler = new (std::nothrow) CScheduler();

  0023d	68 00 00 00 00	 push	 OFFSET ?nothrow@std@@3Unothrow_t@1@B ; std::nothrow
  00242	6a 38		 push	 56			; 00000038H
  00244	e8 00 00 00 00	 call	 ??2@YAPAXIABUnothrow_t@std@@@Z ; operator new
  00249	83 c4 08	 add	 esp, 8
  0024c	89 85 30 ff ff
	ff		 mov	 DWORD PTR $T2[ebp], eax
  00252	c7 45 fc 02 00
	00 00		 mov	 DWORD PTR __$EHRec$[ebp+8], 2
  00259	83 bd 30 ff ff
	ff 00		 cmp	 DWORD PTR $T2[ebp], 0
  00260	74 13		 je	 SHORT $LN18@initSchedu
  00262	8b 8d 30 ff ff
	ff		 mov	 ecx, DWORD PTR $T2[ebp]
  00268	e8 00 00 00 00	 call	 ??0CScheduler@@QAE@XZ	; CScheduler::CScheduler
  0026d	89 85 24 ff ff
	ff		 mov	 DWORD PTR tv179[ebp], eax
  00273	eb 0a		 jmp	 SHORT $LN19@initSchedu
$LN18@initSchedu:
  00275	c7 85 24 ff ff
	ff 00 00 00 00	 mov	 DWORD PTR tv179[ebp], 0
$LN19@initSchedu:
  0027f	8b 85 24 ff ff
	ff		 mov	 eax, DWORD PTR tv179[ebp]
  00285	89 85 34 ff ff
	ff		 mov	 DWORD PTR $T3[ebp], eax
  0028b	c7 45 fc ff ff
	ff ff		 mov	 DWORD PTR __$EHRec$[ebp+8], -1
  00292	8b 8d 34 ff ff
	ff		 mov	 ecx, DWORD PTR $T3[ebp]
  00298	89 4d d0	 mov	 DWORD PTR _pScheduler$[ebp], ecx

; 764  : 			if (!pScheduler) {

  0029b	83 7d d0 00	 cmp	 DWORD PTR _pScheduler$[ebp], 0
  0029f	75 38		 jne	 SHORT $LN10@initSchedu

; 765  : 				sprintf(szErrorMsg, "[seq:%d] new (std::nothrow) CScheduler() is NULL", i);

  002a1	8b 55 e4	 mov	 edx, DWORD PTR _i$[ebp]
  002a4	52		 push	 edx
  002a5	68 00 00 00 00	 push	 OFFSET $SG46240
  002aa	8d 85 4c ff ff
	ff		 lea	 eax, DWORD PTR _szErrorMsg$[ebp]
  002b0	50		 push	 eax
  002b1	e8 00 00 00 00	 call	 _sprintf
  002b6	83 c4 0c	 add	 esp, 12			; 0000000cH

; 766  : 				comErrorPrint(szErrorMsg);

  002b9	68 fe 02 00 00	 push	 766			; 000002feH
  002be	68 00 00 00 00	 push	 OFFSET $SG46241
  002c3	8d 8d 4c ff ff
	ff		 lea	 ecx, DWORD PTR _szErrorMsg$[ebp]
  002c9	51		 push	 ecx
  002ca	e8 00 00 00 00	 call	 ?comGlobalErrorProc@@YAXPADPBDH@Z ; comGlobalErrorProc
  002cf	83 c4 0c	 add	 esp, 12			; 0000000cH

; 767  : 				return false;

  002d2	32 c0		 xor	 al, al
  002d4	e9 b2 00 00 00	 jmp	 $LN1@initSchedu
$LN10@initSchedu:

; 768  : 			}
; 769  : 			if (!pScheduler->initConfig(pConfigFile, i, pSection)) {

  002d9	8b 55 0c	 mov	 edx, DWORD PTR _pSection$[ebp]
  002dc	52		 push	 edx
  002dd	8b 45 e4	 mov	 eax, DWORD PTR _i$[ebp]
  002e0	50		 push	 eax
  002e1	8b 4d 08	 mov	 ecx, DWORD PTR _pConfigFile$[ebp]
  002e4	51		 push	 ecx
  002e5	8b 4d d0	 mov	 ecx, DWORD PTR _pScheduler$[ebp]
  002e8	e8 00 00 00 00	 call	 ?initConfig@CScheduler@@QAE_NPADH0@Z ; CScheduler::initConfig
  002ed	0f b6 d0	 movzx	 edx, al
  002f0	85 d2		 test	 edx, edx
  002f2	75 35		 jne	 SHORT $LN11@initSchedu

; 770  : 				sprintf(szErrorMsg, "[seq:%d] pScheduler->init", i);

  002f4	8b 45 e4	 mov	 eax, DWORD PTR _i$[ebp]
  002f7	50		 push	 eax
  002f8	68 00 00 00 00	 push	 OFFSET $SG46243
  002fd	8d 8d 4c ff ff
	ff		 lea	 ecx, DWORD PTR _szErrorMsg$[ebp]
  00303	51		 push	 ecx
  00304	e8 00 00 00 00	 call	 _sprintf
  00309	83 c4 0c	 add	 esp, 12			; 0000000cH

; 771  : 				comErrorPrint(szErrorMsg);

  0030c	68 03 03 00 00	 push	 771			; 00000303H
  00311	68 00 00 00 00	 push	 OFFSET $SG46244
  00316	8d 95 4c ff ff
	ff		 lea	 edx, DWORD PTR _szErrorMsg$[ebp]
  0031c	52		 push	 edx
  0031d	e8 00 00 00 00	 call	 ?comGlobalErrorProc@@YAXPADPBDH@Z ; comGlobalErrorProc
  00322	83 c4 0c	 add	 esp, 12			; 0000000cH

; 772  : 				return false;

  00325	32 c0		 xor	 al, al
  00327	eb 62		 jmp	 SHORT $LN1@initSchedu
$LN11@initSchedu:

; 773  : 			}
; 774  : 			if (!m_pSchedulerList->push_back(pScheduler, &idx)) {

  00329	8d 45 d8	 lea	 eax, DWORD PTR _idx$[ebp]
  0032c	50		 push	 eax
  0032d	8b 4d d0	 mov	 ecx, DWORD PTR _pScheduler$[ebp]
  00330	51		 push	 ecx
  00331	8b 55 ec	 mov	 edx, DWORD PTR _this$[ebp]
  00334	8b 4a 04	 mov	 ecx, DWORD PTR [edx+4]
  00337	e8 00 00 00 00	 call	 ?push_back@?$CTList@VCScheduler@@@@QAE_NPAVCScheduler@@PAH@Z ; CTList<CScheduler>::push_back
  0033c	0f b6 c0	 movzx	 eax, al
  0033f	85 c0		 test	 eax, eax
  00341	75 35		 jne	 SHORT $LN12@initSchedu

; 775  : 				sprintf(szErrorMsg, "[seq:%d] pScheduler->push_back", idx);

  00343	8b 4d d8	 mov	 ecx, DWORD PTR _idx$[ebp]
  00346	51		 push	 ecx
  00347	68 00 00 00 00	 push	 OFFSET $SG46246
  0034c	8d 95 4c ff ff
	ff		 lea	 edx, DWORD PTR _szErrorMsg$[ebp]
  00352	52		 push	 edx
  00353	e8 00 00 00 00	 call	 _sprintf
  00358	83 c4 0c	 add	 esp, 12			; 0000000cH

; 776  : 				comErrorPrint(szErrorMsg);

  0035b	68 08 03 00 00	 push	 776			; 00000308H
  00360	68 00 00 00 00	 push	 OFFSET $SG46247
  00365	8d 85 4c ff ff
	ff		 lea	 eax, DWORD PTR _szErrorMsg$[ebp]
  0036b	50		 push	 eax
  0036c	e8 00 00 00 00	 call	 ?comGlobalErrorProc@@YAXPADPBDH@Z ; comGlobalErrorProc
  00371	83 c4 0c	 add	 esp, 12			; 0000000cH

; 777  : 				return false;

  00374	32 c0		 xor	 al, al
  00376	eb 13		 jmp	 SHORT $LN1@initSchedu
$LN12@initSchedu:

; 778  : 			}
; 779  : 			pScheduler->m_cThread.setIdx(idx);

  00378	8b 4d d8	 mov	 ecx, DWORD PTR _idx$[ebp]
  0037b	51		 push	 ecx
  0037c	8b 4d d0	 mov	 ecx, DWORD PTR _pScheduler$[ebp]
  0037f	e8 00 00 00 00	 call	 ?setIdx@CComThread@@QAEXH@Z ; CComThread::setIdx

; 780  : 		}

  00384	e9 9f fe ff ff	 jmp	 $LN2@initSchedu
$LN5@initSchedu:

; 781  : 	}
; 782  : 	return true;

  00389	b0 01		 mov	 al, 1
$LN1@initSchedu:

; 783  : }

  0038b	52		 push	 edx
  0038c	8b cd		 mov	 ecx, ebp
  0038e	50		 push	 eax
  0038f	8d 15 00 00 00
	00		 lea	 edx, DWORD PTR $LN27@initSchedu
  00395	e8 00 00 00 00	 call	 @_RTC_CheckStackVars@8
  0039a	58		 pop	 eax
  0039b	5a		 pop	 edx
  0039c	8b 4d f4	 mov	 ecx, DWORD PTR __$EHRec$[ebp]
  0039f	64 89 0d 00 00
	00 00		 mov	 DWORD PTR fs:0, ecx
  003a6	59		 pop	 ecx
  003a7	5f		 pop	 edi
  003a8	5e		 pop	 esi
  003a9	8b 4d f0	 mov	 ecx, DWORD PTR __$ArrayPad$[ebp]
  003ac	33 cd		 xor	 ecx, ebp
  003ae	e8 00 00 00 00	 call	 @__security_check_cookie@4
  003b3	81 c4 dc 00 00
	00		 add	 esp, 220		; 000000dcH
  003b9	3b ec		 cmp	 ebp, esp
  003bb	e8 00 00 00 00	 call	 __RTC_CheckEsp
  003c0	8b e5		 mov	 esp, ebp
  003c2	5d		 pop	 ebp
  003c3	c2 08 00	 ret	 8
  003c6	66 90		 npad	 2
$LN27@initSchedu:
  003c8	02 00 00 00	 DD	 2
  003cc	00 00 00 00	 DD	 $LN26@initSchedu
$LN26@initSchedu:
  003d0	d8 ff ff ff	 DD	 -40			; ffffffd8H
  003d4	04 00 00 00	 DD	 4
  003d8	00 00 00 00	 DD	 $LN23@initSchedu
  003dc	4c ff ff ff	 DD	 -180			; ffffff4cH
  003e0	80 00 00 00	 DD	 128			; 00000080H
  003e4	00 00 00 00	 DD	 $LN24@initSchedu
$LN24@initSchedu:
  003e8	73		 DB	 115			; 00000073H
  003e9	7a		 DB	 122			; 0000007aH
  003ea	45		 DB	 69			; 00000045H
  003eb	72		 DB	 114			; 00000072H
  003ec	72		 DB	 114			; 00000072H
  003ed	6f		 DB	 111			; 0000006fH
  003ee	72		 DB	 114			; 00000072H
  003ef	4d		 DB	 77			; 0000004dH
  003f0	73		 DB	 115			; 00000073H
  003f1	67		 DB	 103			; 00000067H
  003f2	00		 DB	 0
$LN23@initSchedu:
  003f3	69		 DB	 105			; 00000069H
  003f4	64		 DB	 100			; 00000064H
  003f5	78		 DB	 120			; 00000078H
  003f6	00		 DB	 0
_TEXT	ENDS
text$x	SEGMENT
__unwindfunclet$?initScheduler@CCoreList@@QAE_NPAD0@Z$0:
  00000	68 00 00 00 00	 push	 OFFSET ?nothrow@std@@3Unothrow_t@1@B ; std::nothrow
  00005	8b 85 40 ff ff
	ff		 mov	 eax, DWORD PTR $T6[ebp]
  0000b	50		 push	 eax
  0000c	e8 00 00 00 00	 call	 ??3@YAXPAXABUnothrow_t@std@@@Z ; operator delete
  00011	83 c4 08	 add	 esp, 8
  00014	c3		 ret	 0
__unwindfunclet$?initScheduler@CCoreList@@QAE_NPAD0@Z$1:
  00015	68 00 00 00 00	 push	 OFFSET ?nothrow@std@@3Unothrow_t@1@B ; std::nothrow
  0001a	8b 85 38 ff ff
	ff		 mov	 eax, DWORD PTR $T4[ebp]
  00020	50		 push	 eax
  00021	e8 00 00 00 00	 call	 ??3@YAXPAXABUnothrow_t@std@@@Z ; operator delete
  00026	83 c4 08	 add	 esp, 8
  00029	c3		 ret	 0
__unwindfunclet$?initScheduler@CCoreList@@QAE_NPAD0@Z$2:
  0002a	68 00 00 00 00	 push	 OFFSET ?nothrow@std@@3Unothrow_t@1@B ; std::nothrow
  0002f	8b 85 30 ff ff
	ff		 mov	 eax, DWORD PTR $T2[ebp]
  00035	50		 push	 eax
  00036	e8 00 00 00 00	 call	 ??3@YAXPAXABUnothrow_t@std@@@Z ; operator delete
  0003b	83 c4 08	 add	 esp, 8
  0003e	c3		 ret	 0
__ehhandler$?initScheduler@CCoreList@@QAE_NPAD0@Z:
  0003f	8b 54 24 08	 mov	 edx, DWORD PTR [esp+8]
  00043	8d 42 0c	 lea	 eax, DWORD PTR [edx+12]
  00046	8b 8a 24 ff ff
	ff		 mov	 ecx, DWORD PTR [edx-220]
  0004c	33 c8		 xor	 ecx, eax
  0004e	e8 00 00 00 00	 call	 @__security_check_cookie@4
  00053	8b 4a fc	 mov	 ecx, DWORD PTR [edx-4]
  00056	33 c8		 xor	 ecx, eax
  00058	e8 00 00 00 00	 call	 @__security_check_cookie@4
  0005d	b8 00 00 00 00	 mov	 eax, OFFSET __ehfuncinfo$?initScheduler@CCoreList@@QAE_NPAD0@Z
  00062	e9 00 00 00 00	 jmp	 ___CxxFrameHandler3
text$x	ENDS
?initScheduler@CCoreList@@QAE_NPAD0@Z ENDP		; CCoreList::initScheduler
; Function compile flags: /Odtp /RTCsu
; File e:\infinia-library-3.0\com\src\comcore.cpp
_TEXT	SEGMENT
tv146 = -208						; size = 4
tv86 = -204						; size = 4
$T2 = -200						; size = 4
$T3 = -196						; size = 4
$T4 = -192						; size = 4
$T5 = -188						; size = 4
_bRes$ = -181						; size = 1
_szErrorMsg$ = -176					; size = 128
_pWriter$ = -44						; size = 4
_idx$ = -36						; size = 4
_i$ = -28						; size = 4
_nCount$ = -24						; size = 4
_this$ = -20						; size = 4
__$ArrayPad$ = -16					; size = 4
__$EHRec$ = -12						; size = 12
_pConfigFile$ = 8					; size = 4
_pSection$ = 12						; size = 4
_bSystem$ = 16						; size = 1
?initLogWriter@CCoreList@@QAE_NPAD0_N@Z PROC		; CCoreList::initLogWriter
; _this$ = ecx

; 687  : {

  00000	55		 push	 ebp
  00001	8b ec		 mov	 ebp, esp
  00003	6a ff		 push	 -1
  00005	68 00 00 00 00	 push	 __ehhandler$?initLogWriter@CCoreList@@QAE_NPAD0_N@Z
  0000a	64 a1 00 00 00
	00		 mov	 eax, DWORD PTR fs:0
  00010	50		 push	 eax
  00011	81 ec c4 00 00
	00		 sub	 esp, 196		; 000000c4H
  00017	56		 push	 esi
  00018	57		 push	 edi
  00019	51		 push	 ecx
  0001a	8d bd 30 ff ff
	ff		 lea	 edi, DWORD PTR [ebp-208]
  00020	b9 31 00 00 00	 mov	 ecx, 49			; 00000031H
  00025	b8 cc cc cc cc	 mov	 eax, -858993460		; ccccccccH
  0002a	f3 ab		 rep stosd
  0002c	59		 pop	 ecx
  0002d	a1 00 00 00 00	 mov	 eax, DWORD PTR ___security_cookie
  00032	33 c5		 xor	 eax, ebp
  00034	89 45 f0	 mov	 DWORD PTR __$ArrayPad$[ebp], eax
  00037	50		 push	 eax
  00038	8d 45 f4	 lea	 eax, DWORD PTR __$EHRec$[ebp]
  0003b	64 a3 00 00 00
	00		 mov	 DWORD PTR fs:0, eax
  00041	89 4d ec	 mov	 DWORD PTR _this$[ebp], ecx

; 688  : 	int nCount, i, idx;
; 689  : 	CSTLogger *pWriter;
; 690  : 	char szErrorMsg[128];
; 691  : 	bool bRes;
; 692  : 
; 693  : 	nCount = GetPrivateProfileInt(pSection, _T("LIST_COUNT"), 1, pConfigFile);

  00044	8b f4		 mov	 esi, esp
  00046	8b 45 08	 mov	 eax, DWORD PTR _pConfigFile$[ebp]
  00049	50		 push	 eax
  0004a	6a 01		 push	 1
  0004c	68 00 00 00 00	 push	 OFFSET $SG46170
  00051	8b 4d 0c	 mov	 ecx, DWORD PTR _pSection$[ebp]
  00054	51		 push	 ecx
  00055	ff 15 00 00 00
	00		 call	 DWORD PTR __imp__GetPrivateProfileIntA@16
  0005b	3b f4		 cmp	 esi, esp
  0005d	e8 00 00 00 00	 call	 __RTC_CheckEsp
  00062	89 45 e8	 mov	 DWORD PTR _nCount$[ebp], eax

; 694  : 	if (nCount) {

  00065	83 7d e8 00	 cmp	 DWORD PTR _nCount$[ebp], 0
  00069	0f 84 54 02 00
	00		 je	 $LN5@initLogWri

; 695  : 		if (!m_pWriterList) {

  0006f	8b 55 ec	 mov	 edx, DWORD PTR _this$[ebp]
  00072	83 3a 00	 cmp	 DWORD PTR [edx], 0
  00075	0f 85 ba 00 00
	00		 jne	 $LN6@initLogWri

; 696  : 			m_pWriterList = new CTList<CSTLogger>();

  0007b	6a 18		 push	 24			; 00000018H
  0007d	e8 00 00 00 00	 call	 ??2@YAPAXI@Z		; operator new
  00082	83 c4 04	 add	 esp, 4
  00085	89 85 40 ff ff
	ff		 mov	 DWORD PTR $T4[ebp], eax
  0008b	c7 45 fc 00 00
	00 00		 mov	 DWORD PTR __$EHRec$[ebp+8], 0
  00092	83 bd 40 ff ff
	ff 00		 cmp	 DWORD PTR $T4[ebp], 0
  00099	74 20		 je	 SHORT $LN14@initLogWri
  0009b	6a 18		 push	 24			; 00000018H
  0009d	8b 8d 40 ff ff
	ff		 mov	 ecx, DWORD PTR $T4[ebp]
  000a3	e8 00 00 00 00	 call	 ?__autoclassinit2@?$CTList@VCSTLogger@@@@QAEXI@Z
  000a8	8b 8d 40 ff ff
	ff		 mov	 ecx, DWORD PTR $T4[ebp]
  000ae	e8 00 00 00 00	 call	 ??0?$CTList@VCSTLogger@@@@QAE@XZ ; CTList<CSTLogger>::CTList<CSTLogger>
  000b3	89 85 34 ff ff
	ff		 mov	 DWORD PTR tv86[ebp], eax
  000b9	eb 0a		 jmp	 SHORT $LN15@initLogWri
$LN14@initLogWri:
  000bb	c7 85 34 ff ff
	ff 00 00 00 00	 mov	 DWORD PTR tv86[ebp], 0
$LN15@initLogWri:
  000c5	8b 85 34 ff ff
	ff		 mov	 eax, DWORD PTR tv86[ebp]
  000cb	89 85 44 ff ff
	ff		 mov	 DWORD PTR $T5[ebp], eax
  000d1	c7 45 fc ff ff
	ff ff		 mov	 DWORD PTR __$EHRec$[ebp+8], -1
  000d8	8b 4d ec	 mov	 ecx, DWORD PTR _this$[ebp]
  000db	8b 95 44 ff ff
	ff		 mov	 edx, DWORD PTR $T5[ebp]
  000e1	89 11		 mov	 DWORD PTR [ecx], edx

; 697  : 			if (!m_pWriterList->alloc(nCount + LIST_ADD_COUNT, eAlloc_Type_none)) {

  000e3	6a 00		 push	 0
  000e5	8b 45 e8	 mov	 eax, DWORD PTR _nCount$[ebp]
  000e8	83 c0 0a	 add	 eax, 10			; 0000000aH
  000eb	50		 push	 eax
  000ec	8b 4d ec	 mov	 ecx, DWORD PTR _this$[ebp]
  000ef	8b 09		 mov	 ecx, DWORD PTR [ecx]
  000f1	e8 00 00 00 00	 call	 ?alloc@?$CTList@VCSTLogger@@@@QAEHHW4E_ALLOC_TYPE@@@Z ; CTList<CSTLogger>::alloc
  000f6	85 c0		 test	 eax, eax
  000f8	75 3b		 jne	 SHORT $LN6@initLogWri

; 698  : 				sprintf(szErrorMsg, "m_pWriterList->alloc nCnt[%d]", nCount + LIST_ADD_COUNT);

  000fa	8b 55 e8	 mov	 edx, DWORD PTR _nCount$[ebp]
  000fd	83 c2 0a	 add	 edx, 10			; 0000000aH
  00100	52		 push	 edx
  00101	68 00 00 00 00	 push	 OFFSET $SG46175
  00106	8d 85 50 ff ff
	ff		 lea	 eax, DWORD PTR _szErrorMsg$[ebp]
  0010c	50		 push	 eax
  0010d	e8 00 00 00 00	 call	 _sprintf
  00112	83 c4 0c	 add	 esp, 12			; 0000000cH

; 699  : 				comErrorPrint(szErrorMsg);

  00115	68 bb 02 00 00	 push	 699			; 000002bbH
  0011a	68 00 00 00 00	 push	 OFFSET $SG46176
  0011f	8d 8d 50 ff ff
	ff		 lea	 ecx, DWORD PTR _szErrorMsg$[ebp]
  00125	51		 push	 ecx
  00126	e8 00 00 00 00	 call	 ?comGlobalErrorProc@@YAXPADPBDH@Z ; comGlobalErrorProc
  0012b	83 c4 0c	 add	 esp, 12			; 0000000cH

; 700  : 				return false;

  0012e	32 c0		 xor	 al, al
  00130	e9 90 01 00 00	 jmp	 $LN1@initLogWri
$LN6@initLogWri:

; 701  : 			}
; 702  : 		}
; 703  : 
; 704  : 		for (i = 0; i < nCount; i++) {

  00135	c7 45 e4 00 00
	00 00		 mov	 DWORD PTR _i$[ebp], 0
  0013c	eb 09		 jmp	 SHORT $LN4@initLogWri
$LN2@initLogWri:
  0013e	8b 55 e4	 mov	 edx, DWORD PTR _i$[ebp]
  00141	83 c2 01	 add	 edx, 1
  00144	89 55 e4	 mov	 DWORD PTR _i$[ebp], edx
$LN4@initLogWri:
  00147	8b 45 e4	 mov	 eax, DWORD PTR _i$[ebp]
  0014a	3b 45 e8	 cmp	 eax, DWORD PTR _nCount$[ebp]
  0014d	0f 8d 70 01 00
	00		 jge	 $LN5@initLogWri

; 705  : 			pWriter = new (std::nothrow) CSTLogger();

  00153	68 00 00 00 00	 push	 OFFSET ?nothrow@std@@3Unothrow_t@1@B ; std::nothrow
  00158	6a 30		 push	 48			; 00000030H
  0015a	e8 00 00 00 00	 call	 ??2@YAPAXIABUnothrow_t@std@@@Z ; operator new
  0015f	83 c4 08	 add	 esp, 8
  00162	89 85 38 ff ff
	ff		 mov	 DWORD PTR $T2[ebp], eax
  00168	c7 45 fc 01 00
	00 00		 mov	 DWORD PTR __$EHRec$[ebp+8], 1
  0016f	83 bd 38 ff ff
	ff 00		 cmp	 DWORD PTR $T2[ebp], 0
  00176	74 13		 je	 SHORT $LN16@initLogWri
  00178	8b 8d 38 ff ff
	ff		 mov	 ecx, DWORD PTR $T2[ebp]
  0017e	e8 00 00 00 00	 call	 ??0CSTLogger@@QAE@XZ	; CSTLogger::CSTLogger
  00183	89 85 30 ff ff
	ff		 mov	 DWORD PTR tv146[ebp], eax
  00189	eb 0a		 jmp	 SHORT $LN17@initLogWri
$LN16@initLogWri:
  0018b	c7 85 30 ff ff
	ff 00 00 00 00	 mov	 DWORD PTR tv146[ebp], 0
$LN17@initLogWri:
  00195	8b 8d 30 ff ff
	ff		 mov	 ecx, DWORD PTR tv146[ebp]
  0019b	89 8d 3c ff ff
	ff		 mov	 DWORD PTR $T3[ebp], ecx
  001a1	c7 45 fc ff ff
	ff ff		 mov	 DWORD PTR __$EHRec$[ebp+8], -1
  001a8	8b 95 3c ff ff
	ff		 mov	 edx, DWORD PTR $T3[ebp]
  001ae	89 55 d4	 mov	 DWORD PTR _pWriter$[ebp], edx

; 706  : 			if (!pWriter) {

  001b1	83 7d d4 00	 cmp	 DWORD PTR _pWriter$[ebp], 0
  001b5	75 38		 jne	 SHORT $LN8@initLogWri

; 707  : 				sprintf(szErrorMsg, "[seq:%d] new (std::nothrow) CSTLogger() is NULL", i);

  001b7	8b 45 e4	 mov	 eax, DWORD PTR _i$[ebp]
  001ba	50		 push	 eax
  001bb	68 00 00 00 00	 push	 OFFSET $SG46179
  001c0	8d 8d 50 ff ff
	ff		 lea	 ecx, DWORD PTR _szErrorMsg$[ebp]
  001c6	51		 push	 ecx
  001c7	e8 00 00 00 00	 call	 _sprintf
  001cc	83 c4 0c	 add	 esp, 12			; 0000000cH

; 708  : 				comErrorPrint(szErrorMsg);

  001cf	68 c4 02 00 00	 push	 708			; 000002c4H
  001d4	68 00 00 00 00	 push	 OFFSET $SG46180
  001d9	8d 95 50 ff ff
	ff		 lea	 edx, DWORD PTR _szErrorMsg$[ebp]
  001df	52		 push	 edx
  001e0	e8 00 00 00 00	 call	 ?comGlobalErrorProc@@YAXPADPBDH@Z ; comGlobalErrorProc
  001e5	83 c4 0c	 add	 esp, 12			; 0000000cH

; 709  : 				return false;

  001e8	32 c0		 xor	 al, al
  001ea	e9 d6 00 00 00	 jmp	 $LN1@initLogWri
$LN8@initLogWri:

; 710  : 			}
; 711  : 			if (!pWriter->initConfig(pConfigFile, i, pSection)) {

  001ef	8b 45 0c	 mov	 eax, DWORD PTR _pSection$[ebp]
  001f2	50		 push	 eax
  001f3	8b 4d e4	 mov	 ecx, DWORD PTR _i$[ebp]
  001f6	51		 push	 ecx
  001f7	8b 55 08	 mov	 edx, DWORD PTR _pConfigFile$[ebp]
  001fa	52		 push	 edx
  001fb	8b 4d d4	 mov	 ecx, DWORD PTR _pWriter$[ebp]
  001fe	e8 00 00 00 00	 call	 ?initConfig@CSTLogger@@QAE_NPADH0@Z ; CSTLogger::initConfig
  00203	0f b6 c0	 movzx	 eax, al
  00206	85 c0		 test	 eax, eax
  00208	75 5a		 jne	 SHORT $LN9@initLogWri

; 712  : 				if (bSystem) {

  0020a	0f b6 4d 10	 movzx	 ecx, BYTE PTR _bSystem$[ebp]
  0020e	85 c9		 test	 ecx, ecx
  00210	74 12		 je	 SHORT $LN10@initLogWri

; 713  : 					bRes = pWriter->init(LIST_ADD_COUNT, 0);

  00212	6a 00		 push	 0
  00214	6a 0a		 push	 10			; 0000000aH
  00216	8b 4d d4	 mov	 ecx, DWORD PTR _pWriter$[ebp]
  00219	e8 00 00 00 00	 call	 ?init@CSTLogger@@QAE_NHH@Z ; CSTLogger::init
  0021e	88 85 4b ff ff
	ff		 mov	 BYTE PTR _bRes$[ebp], al
$LN10@initLogWri:

; 714  : 				}
; 715  : 				if(!bRes) {

  00224	0f b6 95 4b ff
	ff ff		 movzx	 edx, BYTE PTR _bRes$[ebp]
  0022b	85 d2		 test	 edx, edx
  0022d	75 35		 jne	 SHORT $LN9@initLogWri

; 716  : 					sprintf(szErrorMsg, "[seq:%d] pWriter->init", i);

  0022f	8b 45 e4	 mov	 eax, DWORD PTR _i$[ebp]
  00232	50		 push	 eax
  00233	68 00 00 00 00	 push	 OFFSET $SG46184
  00238	8d 8d 50 ff ff
	ff		 lea	 ecx, DWORD PTR _szErrorMsg$[ebp]
  0023e	51		 push	 ecx
  0023f	e8 00 00 00 00	 call	 _sprintf
  00244	83 c4 0c	 add	 esp, 12			; 0000000cH

; 717  : 					comErrorPrint(szErrorMsg);

  00247	68 cd 02 00 00	 push	 717			; 000002cdH
  0024c	68 00 00 00 00	 push	 OFFSET $SG46185
  00251	8d 95 50 ff ff
	ff		 lea	 edx, DWORD PTR _szErrorMsg$[ebp]
  00257	52		 push	 edx
  00258	e8 00 00 00 00	 call	 ?comGlobalErrorProc@@YAXPADPBDH@Z ; comGlobalErrorProc
  0025d	83 c4 0c	 add	 esp, 12			; 0000000cH

; 718  : 					return false;

  00260	32 c0		 xor	 al, al
  00262	eb 61		 jmp	 SHORT $LN1@initLogWri
$LN9@initLogWri:

; 719  : 				}
; 720  : 			}
; 721  : 			if (!m_pWriterList->push_back(pWriter, &idx)) {

  00264	8d 45 dc	 lea	 eax, DWORD PTR _idx$[ebp]
  00267	50		 push	 eax
  00268	8b 4d d4	 mov	 ecx, DWORD PTR _pWriter$[ebp]
  0026b	51		 push	 ecx
  0026c	8b 55 ec	 mov	 edx, DWORD PTR _this$[ebp]
  0026f	8b 0a		 mov	 ecx, DWORD PTR [edx]
  00271	e8 00 00 00 00	 call	 ?push_back@?$CTList@VCSTLogger@@@@QAE_NPAVCSTLogger@@PAH@Z ; CTList<CSTLogger>::push_back
  00276	0f b6 c0	 movzx	 eax, al
  00279	85 c0		 test	 eax, eax
  0027b	75 35		 jne	 SHORT $LN12@initLogWri

; 722  : 				sprintf(szErrorMsg, "[seq:%d] pWriter->push_back", idx);

  0027d	8b 4d dc	 mov	 ecx, DWORD PTR _idx$[ebp]
  00280	51		 push	 ecx
  00281	68 00 00 00 00	 push	 OFFSET $SG46187
  00286	8d 95 50 ff ff
	ff		 lea	 edx, DWORD PTR _szErrorMsg$[ebp]
  0028c	52		 push	 edx
  0028d	e8 00 00 00 00	 call	 _sprintf
  00292	83 c4 0c	 add	 esp, 12			; 0000000cH

; 723  : 				comErrorPrint(szErrorMsg);

  00295	68 d3 02 00 00	 push	 723			; 000002d3H
  0029a	68 00 00 00 00	 push	 OFFSET $SG46188
  0029f	8d 85 50 ff ff
	ff		 lea	 eax, DWORD PTR _szErrorMsg$[ebp]
  002a5	50		 push	 eax
  002a6	e8 00 00 00 00	 call	 ?comGlobalErrorProc@@YAXPADPBDH@Z ; comGlobalErrorProc
  002ab	83 c4 0c	 add	 esp, 12			; 0000000cH

; 724  : 				return false;

  002ae	32 c0		 xor	 al, al
  002b0	eb 13		 jmp	 SHORT $LN1@initLogWri
$LN12@initLogWri:

; 725  : 			}
; 726  : 			pWriter->m_cThread.setIdx(idx);

  002b2	8b 4d dc	 mov	 ecx, DWORD PTR _idx$[ebp]
  002b5	51		 push	 ecx
  002b6	8b 4d d4	 mov	 ecx, DWORD PTR _pWriter$[ebp]
  002b9	e8 00 00 00 00	 call	 ?setIdx@CComThread@@QAEXH@Z ; CComThread::setIdx

; 727  : 		}

  002be	e9 7b fe ff ff	 jmp	 $LN2@initLogWri
$LN5@initLogWri:

; 728  : 	}
; 729  : 	return true;

  002c3	b0 01		 mov	 al, 1
$LN1@initLogWri:

; 730  : }

  002c5	52		 push	 edx
  002c6	8b cd		 mov	 ecx, ebp
  002c8	50		 push	 eax
  002c9	8d 15 00 00 00
	00		 lea	 edx, DWORD PTR $LN24@initLogWri
  002cf	e8 00 00 00 00	 call	 @_RTC_CheckStackVars@8
  002d4	58		 pop	 eax
  002d5	5a		 pop	 edx
  002d6	8b 4d f4	 mov	 ecx, DWORD PTR __$EHRec$[ebp]
  002d9	64 89 0d 00 00
	00 00		 mov	 DWORD PTR fs:0, ecx
  002e0	59		 pop	 ecx
  002e1	5f		 pop	 edi
  002e2	5e		 pop	 esi
  002e3	8b 4d f0	 mov	 ecx, DWORD PTR __$ArrayPad$[ebp]
  002e6	33 cd		 xor	 ecx, ebp
  002e8	e8 00 00 00 00	 call	 @__security_check_cookie@4
  002ed	81 c4 d0 00 00
	00		 add	 esp, 208		; 000000d0H
  002f3	3b ec		 cmp	 ebp, esp
  002f5	e8 00 00 00 00	 call	 __RTC_CheckEsp
  002fa	8b e5		 mov	 esp, ebp
  002fc	5d		 pop	 ebp
  002fd	c2 0c 00	 ret	 12			; 0000000cH
$LN24@initLogWri:
  00300	02 00 00 00	 DD	 2
  00304	00 00 00 00	 DD	 $LN23@initLogWri
$LN23@initLogWri:
  00308	dc ff ff ff	 DD	 -36			; ffffffdcH
  0030c	04 00 00 00	 DD	 4
  00310	00 00 00 00	 DD	 $LN20@initLogWri
  00314	50 ff ff ff	 DD	 -176			; ffffff50H
  00318	80 00 00 00	 DD	 128			; 00000080H
  0031c	00 00 00 00	 DD	 $LN21@initLogWri
$LN21@initLogWri:
  00320	73		 DB	 115			; 00000073H
  00321	7a		 DB	 122			; 0000007aH
  00322	45		 DB	 69			; 00000045H
  00323	72		 DB	 114			; 00000072H
  00324	72		 DB	 114			; 00000072H
  00325	6f		 DB	 111			; 0000006fH
  00326	72		 DB	 114			; 00000072H
  00327	4d		 DB	 77			; 0000004dH
  00328	73		 DB	 115			; 00000073H
  00329	67		 DB	 103			; 00000067H
  0032a	00		 DB	 0
$LN20@initLogWri:
  0032b	69		 DB	 105			; 00000069H
  0032c	64		 DB	 100			; 00000064H
  0032d	78		 DB	 120			; 00000078H
  0032e	00		 DB	 0
_TEXT	ENDS
text$x	SEGMENT
__unwindfunclet$?initLogWriter@CCoreList@@QAE_NPAD0_N@Z$0:
  00000	6a 18		 push	 24			; 00000018H
  00002	8b 85 40 ff ff
	ff		 mov	 eax, DWORD PTR $T4[ebp]
  00008	50		 push	 eax
  00009	e8 00 00 00 00	 call	 ??3@YAXPAXI@Z		; operator delete
  0000e	83 c4 08	 add	 esp, 8
  00011	c3		 ret	 0
__unwindfunclet$?initLogWriter@CCoreList@@QAE_NPAD0_N@Z$1:
  00012	68 00 00 00 00	 push	 OFFSET ?nothrow@std@@3Unothrow_t@1@B ; std::nothrow
  00017	8b 85 38 ff ff
	ff		 mov	 eax, DWORD PTR $T2[ebp]
  0001d	50		 push	 eax
  0001e	e8 00 00 00 00	 call	 ??3@YAXPAXABUnothrow_t@std@@@Z ; operator delete
  00023	83 c4 08	 add	 esp, 8
  00026	c3		 ret	 0
__ehhandler$?initLogWriter@CCoreList@@QAE_NPAD0_N@Z:
  00027	8b 54 24 08	 mov	 edx, DWORD PTR [esp+8]
  0002b	8d 42 0c	 lea	 eax, DWORD PTR [edx+12]
  0002e	8b 8a 30 ff ff
	ff		 mov	 ecx, DWORD PTR [edx-208]
  00034	33 c8		 xor	 ecx, eax
  00036	e8 00 00 00 00	 call	 @__security_check_cookie@4
  0003b	8b 4a fc	 mov	 ecx, DWORD PTR [edx-4]
  0003e	33 c8		 xor	 ecx, eax
  00040	e8 00 00 00 00	 call	 @__security_check_cookie@4
  00045	b8 00 00 00 00	 mov	 eax, OFFSET __ehfuncinfo$?initLogWriter@CCoreList@@QAE_NPAD0_N@Z
  0004a	e9 00 00 00 00	 jmp	 ___CxxFrameHandler3
text$x	ENDS
?initLogWriter@CCoreList@@QAE_NPAD0_N@Z ENDP		; CCoreList::initLogWriter
; Function compile flags: /Odtp /RTCsu
; File e:\infinia-library-3.0\com\src\comcore.cpp
_TEXT	SEGMENT
tv142 = -68						; size = 4
tv86 = -64						; size = 4
$T2 = -60						; size = 4
$T3 = -56						; size = 4
$T4 = -52						; size = 4
$T5 = -48						; size = 4
_pComThread$ = -44					; size = 4
_idx$ = -36						; size = 4
_i$ = -28						; size = 4
_nCount$ = -24						; size = 4
_this$ = -20						; size = 4
__$ArrayPad$ = -16					; size = 4
__$EHRec$ = -12						; size = 12
_pConfigFile$ = 8					; size = 4
_pSection$ = 12						; size = 4
?initComThread@CCoreList@@QAE_NPAD0@Z PROC		; CCoreList::initComThread
; _this$ = ecx

; 655  : {

  00000	55		 push	 ebp
  00001	8b ec		 mov	 ebp, esp
  00003	6a ff		 push	 -1
  00005	68 00 00 00 00	 push	 __ehhandler$?initComThread@CCoreList@@QAE_NPAD0@Z
  0000a	64 a1 00 00 00
	00		 mov	 eax, DWORD PTR fs:0
  00010	50		 push	 eax
  00011	83 ec 38	 sub	 esp, 56			; 00000038H
  00014	56		 push	 esi
  00015	57		 push	 edi
  00016	51		 push	 ecx
  00017	8d 7d bc	 lea	 edi, DWORD PTR [ebp-68]
  0001a	b9 0e 00 00 00	 mov	 ecx, 14			; 0000000eH
  0001f	b8 cc cc cc cc	 mov	 eax, -858993460		; ccccccccH
  00024	f3 ab		 rep stosd
  00026	59		 pop	 ecx
  00027	a1 00 00 00 00	 mov	 eax, DWORD PTR ___security_cookie
  0002c	33 c5		 xor	 eax, ebp
  0002e	89 45 f0	 mov	 DWORD PTR __$ArrayPad$[ebp], eax
  00031	50		 push	 eax
  00032	8d 45 f4	 lea	 eax, DWORD PTR __$EHRec$[ebp]
  00035	64 a3 00 00 00
	00		 mov	 DWORD PTR fs:0, eax
  0003b	89 4d ec	 mov	 DWORD PTR _this$[ebp], ecx

; 656  : 	int nCount, i, idx;
; 657  : 	CComThread *pComThread;
; 658  : 	nCount = GetPrivateProfileInt(pSection, _T("LIST_COUNT"), 0, pConfigFile);

  0003e	8b f4		 mov	 esi, esp
  00040	8b 45 08	 mov	 eax, DWORD PTR _pConfigFile$[ebp]
  00043	50		 push	 eax
  00044	6a 00		 push	 0
  00046	68 00 00 00 00	 push	 OFFSET $SG46128
  0004b	8b 4d 0c	 mov	 ecx, DWORD PTR _pSection$[ebp]
  0004e	51		 push	 ecx
  0004f	ff 15 00 00 00
	00		 call	 DWORD PTR __imp__GetPrivateProfileIntA@16
  00055	3b f4		 cmp	 esi, esp
  00057	e8 00 00 00 00	 call	 __RTC_CheckEsp
  0005c	89 45 e8	 mov	 DWORD PTR _nCount$[ebp], eax

; 659  : 	if (nCount)

  0005f	83 7d e8 00	 cmp	 DWORD PTR _nCount$[ebp], 0
  00063	0f 84 5c 01 00
	00		 je	 $LN5@initComThr

; 660  : 	{
; 661  : 		if (!m_pThreadList) {

  00069	8b 55 ec	 mov	 edx, DWORD PTR _this$[ebp]
  0006c	83 7a 08 00	 cmp	 DWORD PTR [edx+8], 0
  00070	0f 85 84 00 00
	00		 jne	 $LN6@initComThr

; 662  : 			m_pThreadList = new CTList<CComThread>();

  00076	6a 18		 push	 24			; 00000018H
  00078	e8 00 00 00 00	 call	 ??2@YAPAXI@Z		; operator new
  0007d	83 c4 04	 add	 esp, 4
  00080	89 45 cc	 mov	 DWORD PTR $T4[ebp], eax
  00083	c7 45 fc 00 00
	00 00		 mov	 DWORD PTR __$EHRec$[ebp+8], 0
  0008a	83 7d cc 00	 cmp	 DWORD PTR $T4[ebp], 0
  0008e	74 17		 je	 SHORT $LN11@initComThr
  00090	6a 18		 push	 24			; 00000018H
  00092	8b 4d cc	 mov	 ecx, DWORD PTR $T4[ebp]
  00095	e8 00 00 00 00	 call	 ?__autoclassinit2@?$CTList@VCComThread@@@@QAEXI@Z
  0009a	8b 4d cc	 mov	 ecx, DWORD PTR $T4[ebp]
  0009d	e8 00 00 00 00	 call	 ??0?$CTList@VCComThread@@@@QAE@XZ ; CTList<CComThread>::CTList<CComThread>
  000a2	89 45 c0	 mov	 DWORD PTR tv86[ebp], eax
  000a5	eb 07		 jmp	 SHORT $LN12@initComThr
$LN11@initComThr:
  000a7	c7 45 c0 00 00
	00 00		 mov	 DWORD PTR tv86[ebp], 0
$LN12@initComThr:
  000ae	8b 45 c0	 mov	 eax, DWORD PTR tv86[ebp]
  000b1	89 45 d0	 mov	 DWORD PTR $T5[ebp], eax
  000b4	c7 45 fc ff ff
	ff ff		 mov	 DWORD PTR __$EHRec$[ebp+8], -1
  000bb	8b 4d ec	 mov	 ecx, DWORD PTR _this$[ebp]
  000be	8b 55 d0	 mov	 edx, DWORD PTR $T5[ebp]
  000c1	89 51 08	 mov	 DWORD PTR [ecx+8], edx

; 663  : 			if (!m_pThreadList->alloc(nCount + LIST_ADD_COUNT, eAlloc_Type_none)) {

  000c4	6a 00		 push	 0
  000c6	8b 45 e8	 mov	 eax, DWORD PTR _nCount$[ebp]
  000c9	83 c0 0a	 add	 eax, 10			; 0000000aH
  000cc	50		 push	 eax
  000cd	8b 4d ec	 mov	 ecx, DWORD PTR _this$[ebp]
  000d0	8b 49 08	 mov	 ecx, DWORD PTR [ecx+8]
  000d3	e8 00 00 00 00	 call	 ?alloc@?$CTList@VCComThread@@@@QAEHHW4E_ALLOC_TYPE@@@Z ; CTList<CComThread>::alloc
  000d8	85 c0		 test	 eax, eax
  000da	75 1e		 jne	 SHORT $LN6@initComThr

; 664  : 				comErrorPrint("m_pThreadList = new CTList<CComThread>() is NULL");

  000dc	68 98 02 00 00	 push	 664			; 00000298H
  000e1	68 00 00 00 00	 push	 OFFSET $SG46133
  000e6	68 00 00 00 00	 push	 OFFSET $SG46134
  000eb	e8 00 00 00 00	 call	 ?comGlobalErrorProc@@YAXPADPBDH@Z ; comGlobalErrorProc
  000f0	83 c4 0c	 add	 esp, 12			; 0000000cH

; 665  : 				return false;

  000f3	32 c0		 xor	 al, al
  000f5	e9 cd 00 00 00	 jmp	 $LN1@initComThr
$LN6@initComThr:

; 666  : 			}
; 667  : 		}
; 668  : 
; 669  : 		for (i = 0; i < nCount; i++) {

  000fa	c7 45 e4 00 00
	00 00		 mov	 DWORD PTR _i$[ebp], 0
  00101	eb 09		 jmp	 SHORT $LN4@initComThr
$LN2@initComThr:
  00103	8b 55 e4	 mov	 edx, DWORD PTR _i$[ebp]
  00106	83 c2 01	 add	 edx, 1
  00109	89 55 e4	 mov	 DWORD PTR _i$[ebp], edx
$LN4@initComThr:
  0010c	8b 45 e4	 mov	 eax, DWORD PTR _i$[ebp]
  0010f	3b 45 e8	 cmp	 eax, DWORD PTR _nCount$[ebp]
  00112	0f 8d ad 00 00
	00		 jge	 $LN5@initComThr

; 670  : 			pComThread = new (std::nothrow) CComThread();

  00118	68 00 00 00 00	 push	 OFFSET ?nothrow@std@@3Unothrow_t@1@B ; std::nothrow
  0011d	6a 28		 push	 40			; 00000028H
  0011f	e8 00 00 00 00	 call	 ??2@YAPAXIABUnothrow_t@std@@@Z ; operator new
  00124	83 c4 08	 add	 esp, 8
  00127	89 45 c4	 mov	 DWORD PTR $T2[ebp], eax
  0012a	c7 45 fc 01 00
	00 00		 mov	 DWORD PTR __$EHRec$[ebp+8], 1
  00131	83 7d c4 00	 cmp	 DWORD PTR $T2[ebp], 0
  00135	74 0d		 je	 SHORT $LN13@initComThr
  00137	8b 4d c4	 mov	 ecx, DWORD PTR $T2[ebp]
  0013a	e8 00 00 00 00	 call	 ??0CComThread@@QAE@XZ	; CComThread::CComThread
  0013f	89 45 bc	 mov	 DWORD PTR tv142[ebp], eax
  00142	eb 07		 jmp	 SHORT $LN14@initComThr
$LN13@initComThr:
  00144	c7 45 bc 00 00
	00 00		 mov	 DWORD PTR tv142[ebp], 0
$LN14@initComThr:
  0014b	8b 4d bc	 mov	 ecx, DWORD PTR tv142[ebp]
  0014e	89 4d c8	 mov	 DWORD PTR $T3[ebp], ecx
  00151	c7 45 fc ff ff
	ff ff		 mov	 DWORD PTR __$EHRec$[ebp+8], -1
  00158	8b 55 c8	 mov	 edx, DWORD PTR $T3[ebp]
  0015b	89 55 d4	 mov	 DWORD PTR _pComThread$[ebp], edx

; 671  : 			if (!pComThread) {

  0015e	83 7d d4 00	 cmp	 DWORD PTR _pComThread$[ebp], 0
  00162	75 1b		 jne	 SHORT $LN8@initComThr

; 672  : 				comErrorPrint("new (std::nothrow) CComThread() is NULL");

  00164	68 a0 02 00 00	 push	 672			; 000002a0H
  00169	68 00 00 00 00	 push	 OFFSET $SG46137
  0016e	68 00 00 00 00	 push	 OFFSET $SG46138
  00173	e8 00 00 00 00	 call	 ?comGlobalErrorProc@@YAXPADPBDH@Z ; comGlobalErrorProc
  00178	83 c4 0c	 add	 esp, 12			; 0000000cH

; 673  : 				return false;

  0017b	32 c0		 xor	 al, al
  0017d	eb 48		 jmp	 SHORT $LN1@initComThr
$LN8@initComThr:

; 674  : 			}
; 675  : 			if (!m_pThreadList->push_back(pComThread, &idx)) {

  0017f	8d 45 dc	 lea	 eax, DWORD PTR _idx$[ebp]
  00182	50		 push	 eax
  00183	8b 4d d4	 mov	 ecx, DWORD PTR _pComThread$[ebp]
  00186	51		 push	 ecx
  00187	8b 55 ec	 mov	 edx, DWORD PTR _this$[ebp]
  0018a	8b 4a 08	 mov	 ecx, DWORD PTR [edx+8]
  0018d	e8 00 00 00 00	 call	 ?push_back@?$CTList@VCComThread@@@@QAE_NPAVCComThread@@PAH@Z ; CTList<CComThread>::push_back
  00192	0f b6 c0	 movzx	 eax, al
  00195	85 c0		 test	 eax, eax
  00197	75 1b		 jne	 SHORT $LN9@initComThr

; 676  : 				comErrorPrint("m_pThreadList->push_back");

  00199	68 a4 02 00 00	 push	 676			; 000002a4H
  0019e	68 00 00 00 00	 push	 OFFSET $SG46140
  001a3	68 00 00 00 00	 push	 OFFSET $SG46141
  001a8	e8 00 00 00 00	 call	 ?comGlobalErrorProc@@YAXPADPBDH@Z ; comGlobalErrorProc
  001ad	83 c4 0c	 add	 esp, 12			; 0000000cH

; 677  : 				return false;

  001b0	32 c0		 xor	 al, al
  001b2	eb 13		 jmp	 SHORT $LN1@initComThr
$LN9@initComThr:

; 678  : 			}
; 679  : 			pComThread->setIdx(idx);

  001b4	8b 4d dc	 mov	 ecx, DWORD PTR _idx$[ebp]
  001b7	51		 push	 ecx
  001b8	8b 4d d4	 mov	 ecx, DWORD PTR _pComThread$[ebp]
  001bb	e8 00 00 00 00	 call	 ?setIdx@CComThread@@QAEXH@Z ; CComThread::setIdx

; 680  : 		}

  001c0	e9 3e ff ff ff	 jmp	 $LN2@initComThr
$LN5@initComThr:

; 681  : 	}
; 682  : 	return true;

  001c5	b0 01		 mov	 al, 1
$LN1@initComThr:

; 683  : }

  001c7	52		 push	 edx
  001c8	8b cd		 mov	 ecx, ebp
  001ca	50		 push	 eax
  001cb	8d 15 00 00 00
	00		 lea	 edx, DWORD PTR $LN20@initComThr
  001d1	e8 00 00 00 00	 call	 @_RTC_CheckStackVars@8
  001d6	58		 pop	 eax
  001d7	5a		 pop	 edx
  001d8	8b 4d f4	 mov	 ecx, DWORD PTR __$EHRec$[ebp]
  001db	64 89 0d 00 00
	00 00		 mov	 DWORD PTR fs:0, ecx
  001e2	59		 pop	 ecx
  001e3	5f		 pop	 edi
  001e4	5e		 pop	 esi
  001e5	8b 4d f0	 mov	 ecx, DWORD PTR __$ArrayPad$[ebp]
  001e8	33 cd		 xor	 ecx, ebp
  001ea	e8 00 00 00 00	 call	 @__security_check_cookie@4
  001ef	83 c4 44	 add	 esp, 68			; 00000044H
  001f2	3b ec		 cmp	 ebp, esp
  001f4	e8 00 00 00 00	 call	 __RTC_CheckEsp
  001f9	8b e5		 mov	 esp, ebp
  001fb	5d		 pop	 ebp
  001fc	c2 08 00	 ret	 8
  001ff	90		 npad	 1
$LN20@initComThr:
  00200	01 00 00 00	 DD	 1
  00204	00 00 00 00	 DD	 $LN19@initComThr
$LN19@initComThr:
  00208	dc ff ff ff	 DD	 -36			; ffffffdcH
  0020c	04 00 00 00	 DD	 4
  00210	00 00 00 00	 DD	 $LN17@initComThr
$LN17@initComThr:
  00214	69		 DB	 105			; 00000069H
  00215	64		 DB	 100			; 00000064H
  00216	78		 DB	 120			; 00000078H
  00217	00		 DB	 0
_TEXT	ENDS
text$x	SEGMENT
__unwindfunclet$?initComThread@CCoreList@@QAE_NPAD0@Z$0:
  00000	6a 18		 push	 24			; 00000018H
  00002	8b 45 cc	 mov	 eax, DWORD PTR $T4[ebp]
  00005	50		 push	 eax
  00006	e8 00 00 00 00	 call	 ??3@YAXPAXI@Z		; operator delete
  0000b	83 c4 08	 add	 esp, 8
  0000e	c3		 ret	 0
__unwindfunclet$?initComThread@CCoreList@@QAE_NPAD0@Z$1:
  0000f	68 00 00 00 00	 push	 OFFSET ?nothrow@std@@3Unothrow_t@1@B ; std::nothrow
  00014	8b 45 c4	 mov	 eax, DWORD PTR $T2[ebp]
  00017	50		 push	 eax
  00018	e8 00 00 00 00	 call	 ??3@YAXPAXABUnothrow_t@std@@@Z ; operator delete
  0001d	83 c4 08	 add	 esp, 8
  00020	c3		 ret	 0
__ehhandler$?initComThread@CCoreList@@QAE_NPAD0@Z:
  00021	8b 54 24 08	 mov	 edx, DWORD PTR [esp+8]
  00025	8d 42 0c	 lea	 eax, DWORD PTR [edx+12]
  00028	8b 4a bc	 mov	 ecx, DWORD PTR [edx-68]
  0002b	33 c8		 xor	 ecx, eax
  0002d	e8 00 00 00 00	 call	 @__security_check_cookie@4
  00032	8b 4a fc	 mov	 ecx, DWORD PTR [edx-4]
  00035	33 c8		 xor	 ecx, eax
  00037	e8 00 00 00 00	 call	 @__security_check_cookie@4
  0003c	b8 00 00 00 00	 mov	 eax, OFFSET __ehfuncinfo$?initComThread@CCoreList@@QAE_NPAD0@Z
  00041	e9 00 00 00 00	 jmp	 ___CxxFrameHandler3
text$x	ENDS
?initComThread@CCoreList@@QAE_NPAD0@Z ENDP		; CCoreList::initComThread
; Function compile flags: /Odtp /RTCsu
; File e:\infinia-library-3.0\com\src\comcore.cpp
_TEXT	SEGMENT
tv166 = -60						; size = 4
tv84 = -56						; size = 4
$T2 = -52						; size = 4
$T3 = -48						; size = 4
$T4 = -44						; size = 4
$T5 = -40						; size = 4
_pEventThread$ = -36					; size = 4
_idx$ = -28						; size = 4
_this$ = -20						; size = 4
__$ArrayPad$ = -16					; size = 4
__$EHRec$ = -12						; size = 12
_nCount$ = 8						; size = 4
?addQueueThread@CCoreList@@QAEHH@Z PROC			; CCoreList::addQueueThread
; _this$ = ecx

; 1149 : {

  00000	55		 push	 ebp
  00001	8b ec		 mov	 ebp, esp
  00003	6a ff		 push	 -1
  00005	68 00 00 00 00	 push	 __ehhandler$?addQueueThread@CCoreList@@QAEHH@Z
  0000a	64 a1 00 00 00
	00		 mov	 eax, DWORD PTR fs:0
  00010	50		 push	 eax
  00011	83 ec 30	 sub	 esp, 48			; 00000030H
  00014	57		 push	 edi
  00015	51		 push	 ecx
  00016	8d 7d c4	 lea	 edi, DWORD PTR [ebp-60]
  00019	b9 0c 00 00 00	 mov	 ecx, 12			; 0000000cH
  0001e	b8 cc cc cc cc	 mov	 eax, -858993460		; ccccccccH
  00023	f3 ab		 rep stosd
  00025	59		 pop	 ecx
  00026	a1 00 00 00 00	 mov	 eax, DWORD PTR ___security_cookie
  0002b	33 c5		 xor	 eax, ebp
  0002d	89 45 f0	 mov	 DWORD PTR __$ArrayPad$[ebp], eax
  00030	50		 push	 eax
  00031	8d 45 f4	 lea	 eax, DWORD PTR __$EHRec$[ebp]
  00034	64 a3 00 00 00
	00		 mov	 DWORD PTR fs:0, eax
  0003a	89 4d ec	 mov	 DWORD PTR _this$[ebp], ecx

; 1150 : 	int idx;
; 1151 : 
; 1152 : 	if (!m_pEventThreadList) {

  0003d	8b 45 ec	 mov	 eax, DWORD PTR _this$[ebp]
  00040	83 78 0c 00	 cmp	 DWORD PTR [eax+12], 0
  00044	75 1b		 jne	 SHORT $LN2@addQueueTh

; 1153 : 		if (!initQueueThread(LIST_ADD_COUNT)) return -1;

  00046	6a 00		 push	 0
  00048	6a 0a		 push	 10			; 0000000aH
  0004a	8b 4d ec	 mov	 ecx, DWORD PTR _this$[ebp]
  0004d	e8 00 00 00 00	 call	 ?initQueueThread@CCoreList@@QAE_NHH@Z ; CCoreList::initQueueThread
  00052	0f b6 c8	 movzx	 ecx, al
  00055	85 c9		 test	 ecx, ecx
  00057	75 08		 jne	 SHORT $LN2@addQueueTh
  00059	83 c8 ff	 or	 eax, -1
  0005c	e9 8d 01 00 00	 jmp	 $LN1@addQueueTh
$LN2@addQueueTh:

; 1154 : 	}
; 1155 : 
; 1156 : 	CComQueueThread *pEventThread = new (std::nothrow) CComQueueThread();

  00061	68 00 00 00 00	 push	 OFFSET ?nothrow@std@@3Unothrow_t@1@B ; std::nothrow
  00066	6a 68		 push	 104			; 00000068H
  00068	e8 00 00 00 00	 call	 ??2@YAPAXIABUnothrow_t@std@@@Z ; operator new
  0006d	83 c4 08	 add	 esp, 8
  00070	89 45 d4	 mov	 DWORD PTR $T4[ebp], eax
  00073	c7 45 fc 00 00
	00 00		 mov	 DWORD PTR __$EHRec$[ebp+8], 0
  0007a	83 7d d4 00	 cmp	 DWORD PTR $T4[ebp], 0
  0007e	74 0d		 je	 SHORT $LN12@addQueueTh
  00080	8b 4d d4	 mov	 ecx, DWORD PTR $T4[ebp]
  00083	e8 00 00 00 00	 call	 ??0CComQueueThread@@QAE@XZ ; CComQueueThread::CComQueueThread
  00088	89 45 c8	 mov	 DWORD PTR tv84[ebp], eax
  0008b	eb 07		 jmp	 SHORT $LN13@addQueueTh
$LN12@addQueueTh:
  0008d	c7 45 c8 00 00
	00 00		 mov	 DWORD PTR tv84[ebp], 0
$LN13@addQueueTh:
  00094	8b 55 c8	 mov	 edx, DWORD PTR tv84[ebp]
  00097	89 55 d8	 mov	 DWORD PTR $T5[ebp], edx
  0009a	c7 45 fc ff ff
	ff ff		 mov	 DWORD PTR __$EHRec$[ebp+8], -1
  000a1	8b 45 d8	 mov	 eax, DWORD PTR $T5[ebp]
  000a4	89 45 dc	 mov	 DWORD PTR _pEventThread$[ebp], eax

; 1157 : 	if (!pEventThread) {

  000a7	83 7d dc 00	 cmp	 DWORD PTR _pEventThread$[ebp], 0
  000ab	75 1f		 jne	 SHORT $LN4@addQueueTh

; 1158 : 		comErrorPrint("FAIL! pEventThread = new (std::nothrow) CComQueueThread()");

  000ad	68 86 04 00 00	 push	 1158			; 00000486H
  000b2	68 00 00 00 00	 push	 OFFSET $SG46549
  000b7	68 00 00 00 00	 push	 OFFSET $SG46550
  000bc	e8 00 00 00 00	 call	 ?comGlobalErrorProc@@YAXPADPBDH@Z ; comGlobalErrorProc
  000c1	83 c4 0c	 add	 esp, 12			; 0000000cH

; 1159 : 		return -1;

  000c4	83 c8 ff	 or	 eax, -1
  000c7	e9 22 01 00 00	 jmp	 $LN1@addQueueTh
$LN4@addQueueTh:

; 1160 : 	}
; 1161 : 	if (!m_pEventThreadList->push_back(pEventThread, &idx)) {

  000cc	8d 4d e4	 lea	 ecx, DWORD PTR _idx$[ebp]
  000cf	51		 push	 ecx
  000d0	8b 55 dc	 mov	 edx, DWORD PTR _pEventThread$[ebp]
  000d3	52		 push	 edx
  000d4	8b 45 ec	 mov	 eax, DWORD PTR _this$[ebp]
  000d7	8b 48 0c	 mov	 ecx, DWORD PTR [eax+12]
  000da	e8 00 00 00 00	 call	 ?push_back@?$CTList@VCComQueueThread@@@@QAE_NPAVCComQueueThread@@PAH@Z ; CTList<CComQueueThread>::push_back
  000df	0f b6 c8	 movzx	 ecx, al
  000e2	85 c9		 test	 ecx, ecx
  000e4	75 32		 jne	 SHORT $LN5@addQueueTh

; 1162 : 		_stprintf(g_szMessage, _T("[idx:%d] m_pEventThreadList->push_back(pEventThread)"), idx);

  000e6	8b 55 e4	 mov	 edx, DWORD PTR _idx$[ebp]
  000e9	52		 push	 edx
  000ea	68 00 00 00 00	 push	 OFFSET $SG46552
  000ef	68 00 00 00 00	 push	 OFFSET ?g_szMessage@@3PADA ; g_szMessage
  000f4	e8 00 00 00 00	 call	 _sprintf
  000f9	83 c4 0c	 add	 esp, 12			; 0000000cH

; 1163 : 		comErrorPrint(g_szMessage);

  000fc	68 8b 04 00 00	 push	 1163			; 0000048bH
  00101	68 00 00 00 00	 push	 OFFSET $SG46553
  00106	68 00 00 00 00	 push	 OFFSET ?g_szMessage@@3PADA ; g_szMessage
  0010b	e8 00 00 00 00	 call	 ?comGlobalErrorProc@@YAXPADPBDH@Z ; comGlobalErrorProc
  00110	83 c4 0c	 add	 esp, 12			; 0000000cH

; 1164 : 		goto ERROR_ADDEvent;

  00113	e9 ab 00 00 00	 jmp	 $ERROR_ADDEvent$21
$LN5@addQueueTh:

; 1165 : 	}
; 1166 : 	if (!pEventThread->init(nCount, idx)) {

  00118	8b 45 e4	 mov	 eax, DWORD PTR _idx$[ebp]
  0011b	50		 push	 eax
  0011c	8b 4d 08	 mov	 ecx, DWORD PTR _nCount$[ebp]
  0011f	51		 push	 ecx
  00120	8b 4d dc	 mov	 ecx, DWORD PTR _pEventThread$[ebp]
  00123	e8 00 00 00 00	 call	 ?init@CComQueueThread@@QAE_NHH@Z ; CComQueueThread::init
  00128	0f b6 d0	 movzx	 edx, al
  0012b	85 d2		 test	 edx, edx
  0012d	75 42		 jne	 SHORT $LN7@addQueueTh

; 1167 : 		m_pEventThreadList->del(idx);

  0012f	8b 45 e4	 mov	 eax, DWORD PTR _idx$[ebp]
  00132	50		 push	 eax
  00133	8b 4d ec	 mov	 ecx, DWORD PTR _this$[ebp]
  00136	8b 49 0c	 mov	 ecx, DWORD PTR [ecx+12]
  00139	e8 00 00 00 00	 call	 ?del@?$CTList@VCComQueueThread@@@@QAE_NH@Z ; CTList<CComQueueThread>::del

; 1168 : 		_stprintf(g_szMessage, _T("pEventThread->init(nCount:%d, idx:%d)"), nCount,idx);

  0013e	8b 55 e4	 mov	 edx, DWORD PTR _idx$[ebp]
  00141	52		 push	 edx
  00142	8b 45 08	 mov	 eax, DWORD PTR _nCount$[ebp]
  00145	50		 push	 eax
  00146	68 00 00 00 00	 push	 OFFSET $SG46556
  0014b	68 00 00 00 00	 push	 OFFSET ?g_szMessage@@3PADA ; g_szMessage
  00150	e8 00 00 00 00	 call	 _sprintf
  00155	83 c4 10	 add	 esp, 16			; 00000010H

; 1169 : 		comErrorPrint(g_szMessage);

  00158	68 91 04 00 00	 push	 1169			; 00000491H
  0015d	68 00 00 00 00	 push	 OFFSET $SG46557
  00162	68 00 00 00 00	 push	 OFFSET ?g_szMessage@@3PADA ; g_szMessage
  00167	e8 00 00 00 00	 call	 ?comGlobalErrorProc@@YAXPADPBDH@Z ; comGlobalErrorProc
  0016c	83 c4 0c	 add	 esp, 12			; 0000000cH

; 1170 : 		goto ERROR_ADDEvent;

  0016f	eb 52		 jmp	 SHORT $ERROR_ADDEvent$21
$LN7@addQueueTh:

; 1171 : 	}
; 1172 : 	if (!pEventThread->start()) {

  00171	8b 4d dc	 mov	 ecx, DWORD PTR _pEventThread$[ebp]
  00174	e8 00 00 00 00	 call	 ?start@CComQueueThread@@QAE_NXZ ; CComQueueThread::start
  00179	0f b6 c8	 movzx	 ecx, al
  0017c	85 c9		 test	 ecx, ecx
  0017e	75 3e		 jne	 SHORT $LN9@addQueueTh

; 1173 : 		m_pEventThreadList->del(idx);

  00180	8b 55 e4	 mov	 edx, DWORD PTR _idx$[ebp]
  00183	52		 push	 edx
  00184	8b 45 ec	 mov	 eax, DWORD PTR _this$[ebp]
  00187	8b 48 0c	 mov	 ecx, DWORD PTR [eax+12]
  0018a	e8 00 00 00 00	 call	 ?del@?$CTList@VCComQueueThread@@@@QAE_NH@Z ; CTList<CComQueueThread>::del

; 1174 : 		_stprintf(g_szMessage, _T("[idx:%d] pEventThread->start()! "), idx);

  0018f	8b 4d e4	 mov	 ecx, DWORD PTR _idx$[ebp]
  00192	51		 push	 ecx
  00193	68 00 00 00 00	 push	 OFFSET $SG46560
  00198	68 00 00 00 00	 push	 OFFSET ?g_szMessage@@3PADA ; g_szMessage
  0019d	e8 00 00 00 00	 call	 _sprintf
  001a2	83 c4 0c	 add	 esp, 12			; 0000000cH

; 1175 : 		comErrorPrint(g_szMessage);

  001a5	68 97 04 00 00	 push	 1175			; 00000497H
  001aa	68 00 00 00 00	 push	 OFFSET $SG46561
  001af	68 00 00 00 00	 push	 OFFSET ?g_szMessage@@3PADA ; g_szMessage
  001b4	e8 00 00 00 00	 call	 ?comGlobalErrorProc@@YAXPADPBDH@Z ; comGlobalErrorProc
  001b9	83 c4 0c	 add	 esp, 12			; 0000000cH

; 1176 : 		goto ERROR_ADDEvent;

  001bc	eb 05		 jmp	 SHORT $ERROR_ADDEvent$21
$LN9@addQueueTh:

; 1177 : 	}
; 1178 : 	return idx;

  001be	8b 45 e4	 mov	 eax, DWORD PTR _idx$[ebp]
  001c1	eb 2b		 jmp	 SHORT $LN1@addQueueTh
$ERROR_ADDEvent$21:

; 1179 : 
; 1180 : ERROR_ADDEvent:
; 1181 : 	delete pEventThread;

  001c3	8b 55 dc	 mov	 edx, DWORD PTR _pEventThread$[ebp]
  001c6	89 55 cc	 mov	 DWORD PTR $T2[ebp], edx
  001c9	8b 45 cc	 mov	 eax, DWORD PTR $T2[ebp]
  001cc	89 45 d0	 mov	 DWORD PTR $T3[ebp], eax
  001cf	83 7d d0 00	 cmp	 DWORD PTR $T3[ebp], 0
  001d3	74 0f		 je	 SHORT $LN14@addQueueTh
  001d5	6a 01		 push	 1
  001d7	8b 4d d0	 mov	 ecx, DWORD PTR $T3[ebp]
  001da	e8 00 00 00 00	 call	 ??_GCComQueueThread@@QAEPAXI@Z
  001df	89 45 c4	 mov	 DWORD PTR tv166[ebp], eax
  001e2	eb 07		 jmp	 SHORT $LN15@addQueueTh
$LN14@addQueueTh:
  001e4	c7 45 c4 00 00
	00 00		 mov	 DWORD PTR tv166[ebp], 0
$LN15@addQueueTh:

; 1182 : 	return -1;

  001eb	83 c8 ff	 or	 eax, -1
$LN1@addQueueTh:

; 1183 : }

  001ee	52		 push	 edx
  001ef	8b cd		 mov	 ecx, ebp
  001f1	50		 push	 eax
  001f2	8d 15 00 00 00
	00		 lea	 edx, DWORD PTR $LN20@addQueueTh
  001f8	e8 00 00 00 00	 call	 @_RTC_CheckStackVars@8
  001fd	58		 pop	 eax
  001fe	5a		 pop	 edx
  001ff	8b 4d f4	 mov	 ecx, DWORD PTR __$EHRec$[ebp]
  00202	64 89 0d 00 00
	00 00		 mov	 DWORD PTR fs:0, ecx
  00209	59		 pop	 ecx
  0020a	5f		 pop	 edi
  0020b	8b 4d f0	 mov	 ecx, DWORD PTR __$ArrayPad$[ebp]
  0020e	33 cd		 xor	 ecx, ebp
  00210	e8 00 00 00 00	 call	 @__security_check_cookie@4
  00215	83 c4 3c	 add	 esp, 60			; 0000003cH
  00218	3b ec		 cmp	 ebp, esp
  0021a	e8 00 00 00 00	 call	 __RTC_CheckEsp
  0021f	8b e5		 mov	 esp, ebp
  00221	5d		 pop	 ebp
  00222	c2 04 00	 ret	 4
  00225	0f 1f 00	 npad	 3
$LN20@addQueueTh:
  00228	01 00 00 00	 DD	 1
  0022c	00 00 00 00	 DD	 $LN19@addQueueTh
$LN19@addQueueTh:
  00230	e4 ff ff ff	 DD	 -28			; ffffffe4H
  00234	04 00 00 00	 DD	 4
  00238	00 00 00 00	 DD	 $LN17@addQueueTh
$LN17@addQueueTh:
  0023c	69		 DB	 105			; 00000069H
  0023d	64		 DB	 100			; 00000064H
  0023e	78		 DB	 120			; 00000078H
  0023f	00		 DB	 0
_TEXT	ENDS
text$x	SEGMENT
__unwindfunclet$?addQueueThread@CCoreList@@QAEHH@Z$3:
  00000	68 00 00 00 00	 push	 OFFSET ?nothrow@std@@3Unothrow_t@1@B ; std::nothrow
  00005	8b 45 d4	 mov	 eax, DWORD PTR $T4[ebp]
  00008	50		 push	 eax
  00009	e8 00 00 00 00	 call	 ??3@YAXPAXABUnothrow_t@std@@@Z ; operator delete
  0000e	83 c4 08	 add	 esp, 8
  00011	c3		 ret	 0
__ehhandler$?addQueueThread@CCoreList@@QAEHH@Z:
  00012	8b 54 24 08	 mov	 edx, DWORD PTR [esp+8]
  00016	8d 42 0c	 lea	 eax, DWORD PTR [edx+12]
  00019	8b 4a c8	 mov	 ecx, DWORD PTR [edx-56]
  0001c	33 c8		 xor	 ecx, eax
  0001e	e8 00 00 00 00	 call	 @__security_check_cookie@4
  00023	8b 4a fc	 mov	 ecx, DWORD PTR [edx-4]
  00026	33 c8		 xor	 ecx, eax
  00028	e8 00 00 00 00	 call	 @__security_check_cookie@4
  0002d	b8 00 00 00 00	 mov	 eax, OFFSET __ehfuncinfo$?addQueueThread@CCoreList@@QAEHH@Z
  00032	e9 00 00 00 00	 jmp	 ___CxxFrameHandler3
text$x	ENDS
?addQueueThread@CCoreList@@QAEHH@Z ENDP			; CCoreList::addQueueThread
; Function compile flags: /Odtp /RTCsu
; File e:\infinia-library-3.0\com\src\comcore.cpp
_TEXT	SEGMENT
tv168 = -60						; size = 4
tv84 = -56						; size = 4
$T2 = -52						; size = 4
$T3 = -48						; size = 4
$T4 = -44						; size = 4
$T5 = -40						; size = 4
_pScheduler$ = -36					; size = 4
_idx$ = -28						; size = 4
_this$ = -20						; size = 4
__$ArrayPad$ = -16					; size = 4
__$EHRec$ = -12						; size = 12
_nCount$ = 8						; size = 4
_millisecWait$ = 12					; size = 4
?addScheduler@CCoreList@@QAEHHH@Z PROC			; CCoreList::addScheduler
; _this$ = ecx

; 1110 : {

  00000	55		 push	 ebp
  00001	8b ec		 mov	 ebp, esp
  00003	6a ff		 push	 -1
  00005	68 00 00 00 00	 push	 __ehhandler$?addScheduler@CCoreList@@QAEHHH@Z
  0000a	64 a1 00 00 00
	00		 mov	 eax, DWORD PTR fs:0
  00010	50		 push	 eax
  00011	83 ec 30	 sub	 esp, 48			; 00000030H
  00014	57		 push	 edi
  00015	51		 push	 ecx
  00016	8d 7d c4	 lea	 edi, DWORD PTR [ebp-60]
  00019	b9 0c 00 00 00	 mov	 ecx, 12			; 0000000cH
  0001e	b8 cc cc cc cc	 mov	 eax, -858993460		; ccccccccH
  00023	f3 ab		 rep stosd
  00025	59		 pop	 ecx
  00026	a1 00 00 00 00	 mov	 eax, DWORD PTR ___security_cookie
  0002b	33 c5		 xor	 eax, ebp
  0002d	89 45 f0	 mov	 DWORD PTR __$ArrayPad$[ebp], eax
  00030	50		 push	 eax
  00031	8d 45 f4	 lea	 eax, DWORD PTR __$EHRec$[ebp]
  00034	64 a3 00 00 00
	00		 mov	 DWORD PTR fs:0, eax
  0003a	89 4d ec	 mov	 DWORD PTR _this$[ebp], ecx

; 1111 : 	int idx;
; 1112 : 
; 1113 : 	if (!m_pSchedulerList) {

  0003d	8b 45 ec	 mov	 eax, DWORD PTR _this$[ebp]
  00040	83 78 04 00	 cmp	 DWORD PTR [eax+4], 0
  00044	75 1b		 jne	 SHORT $LN2@addSchedul

; 1114 : 		if (!initScheduler(LIST_ADD_COUNT)) {

  00046	6a 00		 push	 0
  00048	6a 0a		 push	 10			; 0000000aH
  0004a	8b 4d ec	 mov	 ecx, DWORD PTR _this$[ebp]
  0004d	e8 00 00 00 00	 call	 ?initScheduler@CCoreList@@QAE_NHH@Z ; CCoreList::initScheduler
  00052	0f b6 c8	 movzx	 ecx, al
  00055	85 c9		 test	 ecx, ecx
  00057	75 08		 jne	 SHORT $LN2@addSchedul

; 1115 : 			return -1;

  00059	83 c8 ff	 or	 eax, -1
  0005c	e9 95 01 00 00	 jmp	 $LN1@addSchedul
$LN2@addSchedul:

; 1116 : 		}
; 1117 : 	}
; 1118 : 
; 1119 : 	CScheduler *pScheduler = new (std::nothrow) CScheduler();

  00061	68 00 00 00 00	 push	 OFFSET ?nothrow@std@@3Unothrow_t@1@B ; std::nothrow
  00066	6a 38		 push	 56			; 00000038H
  00068	e8 00 00 00 00	 call	 ??2@YAPAXIABUnothrow_t@std@@@Z ; operator new
  0006d	83 c4 08	 add	 esp, 8
  00070	89 45 d4	 mov	 DWORD PTR $T4[ebp], eax
  00073	c7 45 fc 00 00
	00 00		 mov	 DWORD PTR __$EHRec$[ebp+8], 0
  0007a	83 7d d4 00	 cmp	 DWORD PTR $T4[ebp], 0
  0007e	74 0d		 je	 SHORT $LN12@addSchedul
  00080	8b 4d d4	 mov	 ecx, DWORD PTR $T4[ebp]
  00083	e8 00 00 00 00	 call	 ??0CScheduler@@QAE@XZ	; CScheduler::CScheduler
  00088	89 45 c8	 mov	 DWORD PTR tv84[ebp], eax
  0008b	eb 07		 jmp	 SHORT $LN13@addSchedul
$LN12@addSchedul:
  0008d	c7 45 c8 00 00
	00 00		 mov	 DWORD PTR tv84[ebp], 0
$LN13@addSchedul:
  00094	8b 55 c8	 mov	 edx, DWORD PTR tv84[ebp]
  00097	89 55 d8	 mov	 DWORD PTR $T5[ebp], edx
  0009a	c7 45 fc ff ff
	ff ff		 mov	 DWORD PTR __$EHRec$[ebp+8], -1
  000a1	8b 45 d8	 mov	 eax, DWORD PTR $T5[ebp]
  000a4	89 45 dc	 mov	 DWORD PTR _pScheduler$[ebp], eax

; 1120 : 	if (!pScheduler) {

  000a7	83 7d dc 00	 cmp	 DWORD PTR _pScheduler$[ebp], 0
  000ab	75 1f		 jne	 SHORT $LN4@addSchedul

; 1121 : 		comErrorPrint("pScheduler = new (std::nothrow) CScheduler()");

  000ad	68 61 04 00 00	 push	 1121			; 00000461H
  000b2	68 00 00 00 00	 push	 OFFSET $SG46512
  000b7	68 00 00 00 00	 push	 OFFSET $SG46513
  000bc	e8 00 00 00 00	 call	 ?comGlobalErrorProc@@YAXPADPBDH@Z ; comGlobalErrorProc
  000c1	83 c4 0c	 add	 esp, 12			; 0000000cH

; 1122 : 		return -1;

  000c4	83 c8 ff	 or	 eax, -1
  000c7	e9 2a 01 00 00	 jmp	 $LN1@addSchedul
$LN4@addSchedul:

; 1123 : 	}
; 1124 : 	if (!m_pSchedulerList->push_back(pScheduler, &idx)) {

  000cc	8d 4d e4	 lea	 ecx, DWORD PTR _idx$[ebp]
  000cf	51		 push	 ecx
  000d0	8b 55 dc	 mov	 edx, DWORD PTR _pScheduler$[ebp]
  000d3	52		 push	 edx
  000d4	8b 45 ec	 mov	 eax, DWORD PTR _this$[ebp]
  000d7	8b 48 04	 mov	 ecx, DWORD PTR [eax+4]
  000da	e8 00 00 00 00	 call	 ?push_back@?$CTList@VCScheduler@@@@QAE_NPAVCScheduler@@PAH@Z ; CTList<CScheduler>::push_back
  000df	0f b6 c8	 movzx	 ecx, al
  000e2	85 c9		 test	 ecx, ecx
  000e4	75 32		 jne	 SHORT $LN5@addSchedul

; 1125 : 		_stprintf(g_szMessage, _T("[idx:%d] pScheduler->push_back(pWriter)"), idx);

  000e6	8b 55 e4	 mov	 edx, DWORD PTR _idx$[ebp]
  000e9	52		 push	 edx
  000ea	68 00 00 00 00	 push	 OFFSET $SG46515
  000ef	68 00 00 00 00	 push	 OFFSET ?g_szMessage@@3PADA ; g_szMessage
  000f4	e8 00 00 00 00	 call	 _sprintf
  000f9	83 c4 0c	 add	 esp, 12			; 0000000cH

; 1126 : 		comErrorPrint(g_szMessage);

  000fc	68 66 04 00 00	 push	 1126			; 00000466H
  00101	68 00 00 00 00	 push	 OFFSET $SG46516
  00106	68 00 00 00 00	 push	 OFFSET ?g_szMessage@@3PADA ; g_szMessage
  0010b	e8 00 00 00 00	 call	 ?comGlobalErrorProc@@YAXPADPBDH@Z ; comGlobalErrorProc
  00110	83 c4 0c	 add	 esp, 12			; 0000000cH

; 1127 : 		goto ERROR_ADDScheduler;

  00113	e9 b3 00 00 00	 jmp	 $ERROR_ADDScheduler$21
$LN5@addSchedul:

; 1128 : 	}
; 1129 : 	if (!pScheduler->init(nCount, millisecWait, idx)) {

  00118	8b 45 e4	 mov	 eax, DWORD PTR _idx$[ebp]
  0011b	50		 push	 eax
  0011c	8b 4d 0c	 mov	 ecx, DWORD PTR _millisecWait$[ebp]
  0011f	51		 push	 ecx
  00120	8b 55 08	 mov	 edx, DWORD PTR _nCount$[ebp]
  00123	52		 push	 edx
  00124	8b 4d dc	 mov	 ecx, DWORD PTR _pScheduler$[ebp]
  00127	e8 00 00 00 00	 call	 ?init@CScheduler@@QAE_NHHH@Z ; CScheduler::init
  0012c	0f b6 c0	 movzx	 eax, al
  0012f	85 c0		 test	 eax, eax
  00131	75 46		 jne	 SHORT $LN7@addSchedul

; 1130 : 		m_pSchedulerList->del(idx);

  00133	8b 4d e4	 mov	 ecx, DWORD PTR _idx$[ebp]
  00136	51		 push	 ecx
  00137	8b 55 ec	 mov	 edx, DWORD PTR _this$[ebp]
  0013a	8b 4a 04	 mov	 ecx, DWORD PTR [edx+4]
  0013d	e8 00 00 00 00	 call	 ?del@?$CTList@VCScheduler@@@@QAE_NH@Z ; CTList<CScheduler>::del

; 1131 : 		_stprintf(g_szMessage, _T("pScheduler->init(nCount:%d, millisecWait:%d, idx:%d)"), nCount, millisecWait, idx);

  00142	8b 45 e4	 mov	 eax, DWORD PTR _idx$[ebp]
  00145	50		 push	 eax
  00146	8b 4d 0c	 mov	 ecx, DWORD PTR _millisecWait$[ebp]
  00149	51		 push	 ecx
  0014a	8b 55 08	 mov	 edx, DWORD PTR _nCount$[ebp]
  0014d	52		 push	 edx
  0014e	68 00 00 00 00	 push	 OFFSET $SG46519
  00153	68 00 00 00 00	 push	 OFFSET ?g_szMessage@@3PADA ; g_szMessage
  00158	e8 00 00 00 00	 call	 _sprintf
  0015d	83 c4 14	 add	 esp, 20			; 00000014H

; 1132 : 		comErrorPrint(g_szMessage);

  00160	68 6c 04 00 00	 push	 1132			; 0000046cH
  00165	68 00 00 00 00	 push	 OFFSET $SG46520
  0016a	68 00 00 00 00	 push	 OFFSET ?g_szMessage@@3PADA ; g_szMessage
  0016f	e8 00 00 00 00	 call	 ?comGlobalErrorProc@@YAXPADPBDH@Z ; comGlobalErrorProc
  00174	83 c4 0c	 add	 esp, 12			; 0000000cH

; 1133 : 		goto ERROR_ADDScheduler;

  00177	eb 52		 jmp	 SHORT $ERROR_ADDScheduler$21
$LN7@addSchedul:

; 1134 : 	}
; 1135 : 	if (!pScheduler->start()) {

  00179	8b 4d dc	 mov	 ecx, DWORD PTR _pScheduler$[ebp]
  0017c	e8 00 00 00 00	 call	 ?start@CScheduler@@QAE_NXZ ; CScheduler::start
  00181	0f b6 c0	 movzx	 eax, al
  00184	85 c0		 test	 eax, eax
  00186	75 3e		 jne	 SHORT $LN9@addSchedul

; 1136 : 		m_pSchedulerList->del(idx);

  00188	8b 4d e4	 mov	 ecx, DWORD PTR _idx$[ebp]
  0018b	51		 push	 ecx
  0018c	8b 55 ec	 mov	 edx, DWORD PTR _this$[ebp]
  0018f	8b 4a 04	 mov	 ecx, DWORD PTR [edx+4]
  00192	e8 00 00 00 00	 call	 ?del@?$CTList@VCScheduler@@@@QAE_NH@Z ; CTList<CScheduler>::del

; 1137 : 		_stprintf(g_szMessage, _T("[idx:%d] pScheduler->start()"), idx);

  00197	8b 45 e4	 mov	 eax, DWORD PTR _idx$[ebp]
  0019a	50		 push	 eax
  0019b	68 00 00 00 00	 push	 OFFSET $SG46523
  001a0	68 00 00 00 00	 push	 OFFSET ?g_szMessage@@3PADA ; g_szMessage
  001a5	e8 00 00 00 00	 call	 _sprintf
  001aa	83 c4 0c	 add	 esp, 12			; 0000000cH

; 1138 : 		comErrorPrint(g_szMessage);

  001ad	68 72 04 00 00	 push	 1138			; 00000472H
  001b2	68 00 00 00 00	 push	 OFFSET $SG46524
  001b7	68 00 00 00 00	 push	 OFFSET ?g_szMessage@@3PADA ; g_szMessage
  001bc	e8 00 00 00 00	 call	 ?comGlobalErrorProc@@YAXPADPBDH@Z ; comGlobalErrorProc
  001c1	83 c4 0c	 add	 esp, 12			; 0000000cH

; 1139 : 		goto ERROR_ADDScheduler;

  001c4	eb 05		 jmp	 SHORT $ERROR_ADDScheduler$21
$LN9@addSchedul:

; 1140 : 	}
; 1141 : 	return idx;

  001c6	8b 45 e4	 mov	 eax, DWORD PTR _idx$[ebp]
  001c9	eb 2b		 jmp	 SHORT $LN1@addSchedul
$ERROR_ADDScheduler$21:

; 1142 : 
; 1143 : ERROR_ADDScheduler:
; 1144 : 	delete pScheduler;

  001cb	8b 4d dc	 mov	 ecx, DWORD PTR _pScheduler$[ebp]
  001ce	89 4d cc	 mov	 DWORD PTR $T2[ebp], ecx
  001d1	8b 55 cc	 mov	 edx, DWORD PTR $T2[ebp]
  001d4	89 55 d0	 mov	 DWORD PTR $T3[ebp], edx
  001d7	83 7d d0 00	 cmp	 DWORD PTR $T3[ebp], 0
  001db	74 0f		 je	 SHORT $LN14@addSchedul
  001dd	6a 01		 push	 1
  001df	8b 4d d0	 mov	 ecx, DWORD PTR $T3[ebp]
  001e2	e8 00 00 00 00	 call	 ??_GCScheduler@@QAEPAXI@Z
  001e7	89 45 c4	 mov	 DWORD PTR tv168[ebp], eax
  001ea	eb 07		 jmp	 SHORT $LN15@addSchedul
$LN14@addSchedul:
  001ec	c7 45 c4 00 00
	00 00		 mov	 DWORD PTR tv168[ebp], 0
$LN15@addSchedul:

; 1145 : 	return -1;

  001f3	83 c8 ff	 or	 eax, -1
$LN1@addSchedul:

; 1146 : }

  001f6	52		 push	 edx
  001f7	8b cd		 mov	 ecx, ebp
  001f9	50		 push	 eax
  001fa	8d 15 00 00 00
	00		 lea	 edx, DWORD PTR $LN20@addSchedul
  00200	e8 00 00 00 00	 call	 @_RTC_CheckStackVars@8
  00205	58		 pop	 eax
  00206	5a		 pop	 edx
  00207	8b 4d f4	 mov	 ecx, DWORD PTR __$EHRec$[ebp]
  0020a	64 89 0d 00 00
	00 00		 mov	 DWORD PTR fs:0, ecx
  00211	59		 pop	 ecx
  00212	5f		 pop	 edi
  00213	8b 4d f0	 mov	 ecx, DWORD PTR __$ArrayPad$[ebp]
  00216	33 cd		 xor	 ecx, ebp
  00218	e8 00 00 00 00	 call	 @__security_check_cookie@4
  0021d	83 c4 3c	 add	 esp, 60			; 0000003cH
  00220	3b ec		 cmp	 ebp, esp
  00222	e8 00 00 00 00	 call	 __RTC_CheckEsp
  00227	8b e5		 mov	 esp, ebp
  00229	5d		 pop	 ebp
  0022a	c2 08 00	 ret	 8
  0022d	0f 1f 00	 npad	 3
$LN20@addSchedul:
  00230	01 00 00 00	 DD	 1
  00234	00 00 00 00	 DD	 $LN19@addSchedul
$LN19@addSchedul:
  00238	e4 ff ff ff	 DD	 -28			; ffffffe4H
  0023c	04 00 00 00	 DD	 4
  00240	00 00 00 00	 DD	 $LN17@addSchedul
$LN17@addSchedul:
  00244	69		 DB	 105			; 00000069H
  00245	64		 DB	 100			; 00000064H
  00246	78		 DB	 120			; 00000078H
  00247	00		 DB	 0
_TEXT	ENDS
text$x	SEGMENT
__unwindfunclet$?addScheduler@CCoreList@@QAEHHH@Z$3:
  00000	68 00 00 00 00	 push	 OFFSET ?nothrow@std@@3Unothrow_t@1@B ; std::nothrow
  00005	8b 45 d4	 mov	 eax, DWORD PTR $T4[ebp]
  00008	50		 push	 eax
  00009	e8 00 00 00 00	 call	 ??3@YAXPAXABUnothrow_t@std@@@Z ; operator delete
  0000e	83 c4 08	 add	 esp, 8
  00011	c3		 ret	 0
__ehhandler$?addScheduler@CCoreList@@QAEHHH@Z:
  00012	8b 54 24 08	 mov	 edx, DWORD PTR [esp+8]
  00016	8d 42 0c	 lea	 eax, DWORD PTR [edx+12]
  00019	8b 4a c8	 mov	 ecx, DWORD PTR [edx-56]
  0001c	33 c8		 xor	 ecx, eax
  0001e	e8 00 00 00 00	 call	 @__security_check_cookie@4
  00023	8b 4a fc	 mov	 ecx, DWORD PTR [edx-4]
  00026	33 c8		 xor	 ecx, eax
  00028	e8 00 00 00 00	 call	 @__security_check_cookie@4
  0002d	b8 00 00 00 00	 mov	 eax, OFFSET __ehfuncinfo$?addScheduler@CCoreList@@QAEHHH@Z
  00032	e9 00 00 00 00	 jmp	 ___CxxFrameHandler3
text$x	ENDS
?addScheduler@CCoreList@@QAEHHH@Z ENDP			; CCoreList::addScheduler
; Function compile flags: /Odtp /RTCsu
; File e:\infinia-library-3.0\com\src\comcore.cpp
_TEXT	SEGMENT
tv165 = -60						; size = 4
tv83 = -56						; size = 4
$T2 = -52						; size = 4
$T3 = -48						; size = 4
$T4 = -44						; size = 4
$T5 = -40						; size = 4
_pWriter$ = -36						; size = 4
_idx$ = -28						; size = 4
_this$ = -20						; size = 4
__$ArrayPad$ = -16					; size = 4
__$EHRec$ = -12						; size = 12
_nCount$ = 8						; size = 4
?addLogWriter@CCoreList@@QAEHH@Z PROC			; CCoreList::addLogWriter
; _this$ = ecx

; 1073 : {

  00000	55		 push	 ebp
  00001	8b ec		 mov	 ebp, esp
  00003	6a ff		 push	 -1
  00005	68 00 00 00 00	 push	 __ehhandler$?addLogWriter@CCoreList@@QAEHH@Z
  0000a	64 a1 00 00 00
	00		 mov	 eax, DWORD PTR fs:0
  00010	50		 push	 eax
  00011	83 ec 30	 sub	 esp, 48			; 00000030H
  00014	57		 push	 edi
  00015	51		 push	 ecx
  00016	8d 7d c4	 lea	 edi, DWORD PTR [ebp-60]
  00019	b9 0c 00 00 00	 mov	 ecx, 12			; 0000000cH
  0001e	b8 cc cc cc cc	 mov	 eax, -858993460		; ccccccccH
  00023	f3 ab		 rep stosd
  00025	59		 pop	 ecx
  00026	a1 00 00 00 00	 mov	 eax, DWORD PTR ___security_cookie
  0002b	33 c5		 xor	 eax, ebp
  0002d	89 45 f0	 mov	 DWORD PTR __$ArrayPad$[ebp], eax
  00030	50		 push	 eax
  00031	8d 45 f4	 lea	 eax, DWORD PTR __$EHRec$[ebp]
  00034	64 a3 00 00 00
	00		 mov	 DWORD PTR fs:0, eax
  0003a	89 4d ec	 mov	 DWORD PTR _this$[ebp], ecx

; 1074 : 	int idx;
; 1075 : 
; 1076 : 	if (!m_pWriterList) {

  0003d	8b 45 ec	 mov	 eax, DWORD PTR _this$[ebp]
  00040	83 38 00	 cmp	 DWORD PTR [eax], 0
  00043	75 19		 jne	 SHORT $LN2@addLogWrit

; 1077 : 		if (!initLogWriter(LIST_ADD_COUNT)) return -1;

  00045	6a 0a		 push	 10			; 0000000aH
  00047	8b 4d ec	 mov	 ecx, DWORD PTR _this$[ebp]
  0004a	e8 00 00 00 00	 call	 ?initLogWriter@CCoreList@@QAE_NH@Z ; CCoreList::initLogWriter
  0004f	0f b6 c8	 movzx	 ecx, al
  00052	85 c9		 test	 ecx, ecx
  00054	75 08		 jne	 SHORT $LN2@addLogWrit
  00056	83 c8 ff	 or	 eax, -1
  00059	e9 8a 01 00 00	 jmp	 $LN1@addLogWrit
$LN2@addLogWrit:

; 1078 : 	}
; 1079 : 
; 1080 : 	CSTLogger *pWriter = new (std::nothrow) CSTLogger();

  0005e	68 00 00 00 00	 push	 OFFSET ?nothrow@std@@3Unothrow_t@1@B ; std::nothrow
  00063	6a 30		 push	 48			; 00000030H
  00065	e8 00 00 00 00	 call	 ??2@YAPAXIABUnothrow_t@std@@@Z ; operator new
  0006a	83 c4 08	 add	 esp, 8
  0006d	89 45 d4	 mov	 DWORD PTR $T4[ebp], eax
  00070	c7 45 fc 00 00
	00 00		 mov	 DWORD PTR __$EHRec$[ebp+8], 0
  00077	83 7d d4 00	 cmp	 DWORD PTR $T4[ebp], 0
  0007b	74 0d		 je	 SHORT $LN12@addLogWrit
  0007d	8b 4d d4	 mov	 ecx, DWORD PTR $T4[ebp]
  00080	e8 00 00 00 00	 call	 ??0CSTLogger@@QAE@XZ	; CSTLogger::CSTLogger
  00085	89 45 c8	 mov	 DWORD PTR tv83[ebp], eax
  00088	eb 07		 jmp	 SHORT $LN13@addLogWrit
$LN12@addLogWrit:
  0008a	c7 45 c8 00 00
	00 00		 mov	 DWORD PTR tv83[ebp], 0
$LN13@addLogWrit:
  00091	8b 55 c8	 mov	 edx, DWORD PTR tv83[ebp]
  00094	89 55 d8	 mov	 DWORD PTR $T5[ebp], edx
  00097	c7 45 fc ff ff
	ff ff		 mov	 DWORD PTR __$EHRec$[ebp+8], -1
  0009e	8b 45 d8	 mov	 eax, DWORD PTR $T5[ebp]
  000a1	89 45 dc	 mov	 DWORD PTR _pWriter$[ebp], eax

; 1081 : 	if (!pWriter) {

  000a4	83 7d dc 00	 cmp	 DWORD PTR _pWriter$[ebp], 0
  000a8	75 1f		 jne	 SHORT $LN4@addLogWrit

; 1082 : 		comErrorPrint("pWriter = new (std::nothrow) CSTLogger()");

  000aa	68 3a 04 00 00	 push	 1082			; 0000043aH
  000af	68 00 00 00 00	 push	 OFFSET $SG46474
  000b4	68 00 00 00 00	 push	 OFFSET $SG46475
  000b9	e8 00 00 00 00	 call	 ?comGlobalErrorProc@@YAXPADPBDH@Z ; comGlobalErrorProc
  000be	83 c4 0c	 add	 esp, 12			; 0000000cH

; 1083 : 		return -1;

  000c1	83 c8 ff	 or	 eax, -1
  000c4	e9 1f 01 00 00	 jmp	 $LN1@addLogWrit
$LN4@addLogWrit:

; 1084 : 	}
; 1085 : 	if (!m_pWriterList->push_back(pWriter, &idx)) {

  000c9	8d 4d e4	 lea	 ecx, DWORD PTR _idx$[ebp]
  000cc	51		 push	 ecx
  000cd	8b 55 dc	 mov	 edx, DWORD PTR _pWriter$[ebp]
  000d0	52		 push	 edx
  000d1	8b 45 ec	 mov	 eax, DWORD PTR _this$[ebp]
  000d4	8b 08		 mov	 ecx, DWORD PTR [eax]
  000d6	e8 00 00 00 00	 call	 ?push_back@?$CTList@VCSTLogger@@@@QAE_NPAVCSTLogger@@PAH@Z ; CTList<CSTLogger>::push_back
  000db	0f b6 c8	 movzx	 ecx, al
  000de	85 c9		 test	 ecx, ecx
  000e0	75 32		 jne	 SHORT $LN5@addLogWrit

; 1086 : 		_stprintf(g_szMessage, _T("[idx:%d] pWriter->push_back(pWriter)"), idx);

  000e2	8b 55 e4	 mov	 edx, DWORD PTR _idx$[ebp]
  000e5	52		 push	 edx
  000e6	68 00 00 00 00	 push	 OFFSET $SG46477
  000eb	68 00 00 00 00	 push	 OFFSET ?g_szMessage@@3PADA ; g_szMessage
  000f0	e8 00 00 00 00	 call	 _sprintf
  000f5	83 c4 0c	 add	 esp, 12			; 0000000cH

; 1087 : 		comErrorPrint(g_szMessage);

  000f8	68 3f 04 00 00	 push	 1087			; 0000043fH
  000fd	68 00 00 00 00	 push	 OFFSET $SG46478
  00102	68 00 00 00 00	 push	 OFFSET ?g_szMessage@@3PADA ; g_szMessage
  00107	e8 00 00 00 00	 call	 ?comGlobalErrorProc@@YAXPADPBDH@Z ; comGlobalErrorProc
  0010c	83 c4 0c	 add	 esp, 12			; 0000000cH

; 1088 : 		goto ERROR_ADDWRITER;

  0010f	e9 a9 00 00 00	 jmp	 $ERROR_ADDWRITER$21
$LN5@addLogWrit:

; 1089 : 	}
; 1090 : 	if (!pWriter->init(nCount, idx)) {

  00114	8b 45 e4	 mov	 eax, DWORD PTR _idx$[ebp]
  00117	50		 push	 eax
  00118	8b 4d 08	 mov	 ecx, DWORD PTR _nCount$[ebp]
  0011b	51		 push	 ecx
  0011c	8b 4d dc	 mov	 ecx, DWORD PTR _pWriter$[ebp]
  0011f	e8 00 00 00 00	 call	 ?init@CSTLogger@@QAE_NHH@Z ; CSTLogger::init
  00124	0f b6 d0	 movzx	 edx, al
  00127	85 d2		 test	 edx, edx
  00129	75 41		 jne	 SHORT $LN7@addLogWrit

; 1091 : 		m_pWriterList->del(idx);

  0012b	8b 45 e4	 mov	 eax, DWORD PTR _idx$[ebp]
  0012e	50		 push	 eax
  0012f	8b 4d ec	 mov	 ecx, DWORD PTR _this$[ebp]
  00132	8b 09		 mov	 ecx, DWORD PTR [ecx]
  00134	e8 00 00 00 00	 call	 ?del@?$CTList@VCSTLogger@@@@QAE_NH@Z ; CTList<CSTLogger>::del

; 1092 : 		_stprintf(g_szMessage, _T("pWriter->init(nCount:%d, idx:%d)"), nCount, idx);

  00139	8b 55 e4	 mov	 edx, DWORD PTR _idx$[ebp]
  0013c	52		 push	 edx
  0013d	8b 45 08	 mov	 eax, DWORD PTR _nCount$[ebp]
  00140	50		 push	 eax
  00141	68 00 00 00 00	 push	 OFFSET $SG46481
  00146	68 00 00 00 00	 push	 OFFSET ?g_szMessage@@3PADA ; g_szMessage
  0014b	e8 00 00 00 00	 call	 _sprintf
  00150	83 c4 10	 add	 esp, 16			; 00000010H

; 1093 : 		comErrorPrint(g_szMessage);

  00153	68 45 04 00 00	 push	 1093			; 00000445H
  00158	68 00 00 00 00	 push	 OFFSET $SG46482
  0015d	68 00 00 00 00	 push	 OFFSET ?g_szMessage@@3PADA ; g_szMessage
  00162	e8 00 00 00 00	 call	 ?comGlobalErrorProc@@YAXPADPBDH@Z ; comGlobalErrorProc
  00167	83 c4 0c	 add	 esp, 12			; 0000000cH

; 1094 : 		goto ERROR_ADDWRITER;

  0016a	eb 51		 jmp	 SHORT $ERROR_ADDWRITER$21
$LN7@addLogWrit:

; 1095 : 	}
; 1096 : 	if (!pWriter->start()) {

  0016c	8b 4d dc	 mov	 ecx, DWORD PTR _pWriter$[ebp]
  0016f	e8 00 00 00 00	 call	 ?start@CSTLogger@@QAE_NXZ ; CSTLogger::start
  00174	0f b6 c8	 movzx	 ecx, al
  00177	85 c9		 test	 ecx, ecx
  00179	75 3d		 jne	 SHORT $LN9@addLogWrit

; 1097 : 		m_pWriterList->del(idx);

  0017b	8b 55 e4	 mov	 edx, DWORD PTR _idx$[ebp]
  0017e	52		 push	 edx
  0017f	8b 45 ec	 mov	 eax, DWORD PTR _this$[ebp]
  00182	8b 08		 mov	 ecx, DWORD PTR [eax]
  00184	e8 00 00 00 00	 call	 ?del@?$CTList@VCSTLogger@@@@QAE_NH@Z ; CTList<CSTLogger>::del

; 1098 : 		_stprintf(g_szMessage, _T("[idx:%d] pWriter->start()!"), idx);

  00189	8b 4d e4	 mov	 ecx, DWORD PTR _idx$[ebp]
  0018c	51		 push	 ecx
  0018d	68 00 00 00 00	 push	 OFFSET $SG46485
  00192	68 00 00 00 00	 push	 OFFSET ?g_szMessage@@3PADA ; g_szMessage
  00197	e8 00 00 00 00	 call	 _sprintf
  0019c	83 c4 0c	 add	 esp, 12			; 0000000cH

; 1099 : 		comErrorPrint(g_szMessage);

  0019f	68 4b 04 00 00	 push	 1099			; 0000044bH
  001a4	68 00 00 00 00	 push	 OFFSET $SG46486
  001a9	68 00 00 00 00	 push	 OFFSET ?g_szMessage@@3PADA ; g_szMessage
  001ae	e8 00 00 00 00	 call	 ?comGlobalErrorProc@@YAXPADPBDH@Z ; comGlobalErrorProc
  001b3	83 c4 0c	 add	 esp, 12			; 0000000cH

; 1100 : 		goto ERROR_ADDWRITER;

  001b6	eb 05		 jmp	 SHORT $ERROR_ADDWRITER$21
$LN9@addLogWrit:

; 1101 : 	}
; 1102 : 	return idx;

  001b8	8b 45 e4	 mov	 eax, DWORD PTR _idx$[ebp]
  001bb	eb 2b		 jmp	 SHORT $LN1@addLogWrit
$ERROR_ADDWRITER$21:

; 1103 : 
; 1104 : ERROR_ADDWRITER:
; 1105 : 	delete pWriter;

  001bd	8b 55 dc	 mov	 edx, DWORD PTR _pWriter$[ebp]
  001c0	89 55 cc	 mov	 DWORD PTR $T2[ebp], edx
  001c3	8b 45 cc	 mov	 eax, DWORD PTR $T2[ebp]
  001c6	89 45 d0	 mov	 DWORD PTR $T3[ebp], eax
  001c9	83 7d d0 00	 cmp	 DWORD PTR $T3[ebp], 0
  001cd	74 0f		 je	 SHORT $LN14@addLogWrit
  001cf	6a 01		 push	 1
  001d1	8b 4d d0	 mov	 ecx, DWORD PTR $T3[ebp]
  001d4	e8 00 00 00 00	 call	 ??_GCSTLogger@@QAEPAXI@Z
  001d9	89 45 c4	 mov	 DWORD PTR tv165[ebp], eax
  001dc	eb 07		 jmp	 SHORT $LN15@addLogWrit
$LN14@addLogWrit:
  001de	c7 45 c4 00 00
	00 00		 mov	 DWORD PTR tv165[ebp], 0
$LN15@addLogWrit:

; 1106 : 	return -1;

  001e5	83 c8 ff	 or	 eax, -1
$LN1@addLogWrit:

; 1107 : }

  001e8	52		 push	 edx
  001e9	8b cd		 mov	 ecx, ebp
  001eb	50		 push	 eax
  001ec	8d 15 00 00 00
	00		 lea	 edx, DWORD PTR $LN20@addLogWrit
  001f2	e8 00 00 00 00	 call	 @_RTC_CheckStackVars@8
  001f7	58		 pop	 eax
  001f8	5a		 pop	 edx
  001f9	8b 4d f4	 mov	 ecx, DWORD PTR __$EHRec$[ebp]
  001fc	64 89 0d 00 00
	00 00		 mov	 DWORD PTR fs:0, ecx
  00203	59		 pop	 ecx
  00204	5f		 pop	 edi
  00205	8b 4d f0	 mov	 ecx, DWORD PTR __$ArrayPad$[ebp]
  00208	33 cd		 xor	 ecx, ebp
  0020a	e8 00 00 00 00	 call	 @__security_check_cookie@4
  0020f	83 c4 3c	 add	 esp, 60			; 0000003cH
  00212	3b ec		 cmp	 ebp, esp
  00214	e8 00 00 00 00	 call	 __RTC_CheckEsp
  00219	8b e5		 mov	 esp, ebp
  0021b	5d		 pop	 ebp
  0021c	c2 04 00	 ret	 4
  0021f	90		 npad	 1
$LN20@addLogWrit:
  00220	01 00 00 00	 DD	 1
  00224	00 00 00 00	 DD	 $LN19@addLogWrit
$LN19@addLogWrit:
  00228	e4 ff ff ff	 DD	 -28			; ffffffe4H
  0022c	04 00 00 00	 DD	 4
  00230	00 00 00 00	 DD	 $LN17@addLogWrit
$LN17@addLogWrit:
  00234	69		 DB	 105			; 00000069H
  00235	64		 DB	 100			; 00000064H
  00236	78		 DB	 120			; 00000078H
  00237	00		 DB	 0
_TEXT	ENDS
text$x	SEGMENT
__unwindfunclet$?addLogWriter@CCoreList@@QAEHH@Z$3:
  00000	68 00 00 00 00	 push	 OFFSET ?nothrow@std@@3Unothrow_t@1@B ; std::nothrow
  00005	8b 45 d4	 mov	 eax, DWORD PTR $T4[ebp]
  00008	50		 push	 eax
  00009	e8 00 00 00 00	 call	 ??3@YAXPAXABUnothrow_t@std@@@Z ; operator delete
  0000e	83 c4 08	 add	 esp, 8
  00011	c3		 ret	 0
__ehhandler$?addLogWriter@CCoreList@@QAEHH@Z:
  00012	8b 54 24 08	 mov	 edx, DWORD PTR [esp+8]
  00016	8d 42 0c	 lea	 eax, DWORD PTR [edx+12]
  00019	8b 4a c8	 mov	 ecx, DWORD PTR [edx-56]
  0001c	33 c8		 xor	 ecx, eax
  0001e	e8 00 00 00 00	 call	 @__security_check_cookie@4
  00023	8b 4a fc	 mov	 ecx, DWORD PTR [edx-4]
  00026	33 c8		 xor	 ecx, eax
  00028	e8 00 00 00 00	 call	 @__security_check_cookie@4
  0002d	b8 00 00 00 00	 mov	 eax, OFFSET __ehfuncinfo$?addLogWriter@CCoreList@@QAEHH@Z
  00032	e9 00 00 00 00	 jmp	 ___CxxFrameHandler3
text$x	ENDS
?addLogWriter@CCoreList@@QAEHH@Z ENDP			; CCoreList::addLogWriter
; Function compile flags: /Odtp /RTCsu
; File e:\infinia-library-3.0\com\src\comcore.cpp
_TEXT	SEGMENT
tv76 = -20						; size = 4
$T1 = -16						; size = 4
$T2 = -12						; size = 4
_pThread$ = -8						; size = 4
_this$ = -4						; size = 4
_nSeq$ = 8						; size = 4
?delComThread@CCoreList@@QAE_NH@Z PROC			; CCoreList::delComThread
; _this$ = ecx

; 1062 : {

  00000	55		 push	 ebp
  00001	8b ec		 mov	 ebp, esp
  00003	83 ec 14	 sub	 esp, 20			; 00000014H
  00006	b8 cc cc cc cc	 mov	 eax, -858993460		; ccccccccH
  0000b	89 45 ec	 mov	 DWORD PTR [ebp-20], eax
  0000e	89 45 f0	 mov	 DWORD PTR [ebp-16], eax
  00011	89 45 f4	 mov	 DWORD PTR [ebp-12], eax
  00014	89 45 f8	 mov	 DWORD PTR [ebp-8], eax
  00017	89 45 fc	 mov	 DWORD PTR [ebp-4], eax
  0001a	89 4d fc	 mov	 DWORD PTR _this$[ebp], ecx

; 1063 : 	CComThread *pThread = m_pThreadList->getObj(nSeq);

  0001d	8b 45 08	 mov	 eax, DWORD PTR _nSeq$[ebp]
  00020	50		 push	 eax
  00021	8b 4d fc	 mov	 ecx, DWORD PTR _this$[ebp]
  00024	8b 49 08	 mov	 ecx, DWORD PTR [ecx+8]
  00027	e8 00 00 00 00	 call	 ?getObj@?$CTList@VCComThread@@@@QAEPAVCComThread@@H@Z ; CTList<CComThread>::getObj
  0002c	89 45 f8	 mov	 DWORD PTR _pThread$[ebp], eax

; 1064 : 	if (pThread) {

  0002f	83 7d f8 00	 cmp	 DWORD PTR _pThread$[ebp], 0
  00033	74 3b		 je	 SHORT $LN2@delComThre

; 1065 : 		m_pThreadList->del(nSeq);

  00035	8b 55 08	 mov	 edx, DWORD PTR _nSeq$[ebp]
  00038	52		 push	 edx
  00039	8b 45 fc	 mov	 eax, DWORD PTR _this$[ebp]
  0003c	8b 48 08	 mov	 ecx, DWORD PTR [eax+8]
  0003f	e8 00 00 00 00	 call	 ?del@?$CTList@VCComThread@@@@QAE_NH@Z ; CTList<CComThread>::del

; 1066 : 		delete pThread;

  00044	8b 4d f8	 mov	 ecx, DWORD PTR _pThread$[ebp]
  00047	89 4d f0	 mov	 DWORD PTR $T1[ebp], ecx
  0004a	8b 55 f0	 mov	 edx, DWORD PTR $T1[ebp]
  0004d	89 55 f4	 mov	 DWORD PTR $T2[ebp], edx
  00050	83 7d f4 00	 cmp	 DWORD PTR $T2[ebp], 0
  00054	74 0f		 je	 SHORT $LN4@delComThre
  00056	6a 01		 push	 1
  00058	8b 4d f4	 mov	 ecx, DWORD PTR $T2[ebp]
  0005b	e8 00 00 00 00	 call	 ??_GCComThread@@QAEPAXI@Z
  00060	89 45 ec	 mov	 DWORD PTR tv76[ebp], eax
  00063	eb 07		 jmp	 SHORT $LN5@delComThre
$LN4@delComThre:
  00065	c7 45 ec 00 00
	00 00		 mov	 DWORD PTR tv76[ebp], 0
$LN5@delComThre:

; 1067 : 		return true;

  0006c	b0 01		 mov	 al, 1
  0006e	eb 02		 jmp	 SHORT $LN1@delComThre
$LN2@delComThre:

; 1068 : 	}
; 1069 : 	return false;

  00070	32 c0		 xor	 al, al
$LN1@delComThre:

; 1070 : }

  00072	83 c4 14	 add	 esp, 20			; 00000014H
  00075	3b ec		 cmp	 ebp, esp
  00077	e8 00 00 00 00	 call	 __RTC_CheckEsp
  0007c	8b e5		 mov	 esp, ebp
  0007e	5d		 pop	 ebp
  0007f	c2 04 00	 ret	 4
?delComThread@CCoreList@@QAE_NH@Z ENDP			; CCoreList::delComThread
_TEXT	ENDS
; Function compile flags: /Odtp /RTCsu
; File e:\infinia-library-3.0\com\src\comcore.cpp
_TEXT	SEGMENT
tv174 = -60						; size = 4
tv83 = -56						; size = 4
$T2 = -52						; size = 4
$T3 = -48						; size = 4
$T4 = -44						; size = 4
$T5 = -40						; size = 4
_idx$ = -32						; size = 4
_pThread$ = -24						; size = 4
_this$ = -20						; size = 4
__$ArrayPad$ = -16					; size = 4
__$EHRec$ = -12						; size = 12
_fpProc$ = 8						; size = 4
_pClass$ = 12						; size = 4
_millisec$ = 16						; size = 4
_pObj$ = 20						; size = 4
?addComThread@CCoreList@@QAEHP6AXPAUSTThreadInfo@@@ZPAXH2@Z PROC ; CCoreList::addComThread
; _this$ = ecx

; 1022 : {

  00000	55		 push	 ebp
  00001	8b ec		 mov	 ebp, esp
  00003	6a ff		 push	 -1
  00005	68 00 00 00 00	 push	 __ehhandler$?addComThread@CCoreList@@QAEHP6AXPAUSTThreadInfo@@@ZPAXH2@Z
  0000a	64 a1 00 00 00
	00		 mov	 eax, DWORD PTR fs:0
  00010	50		 push	 eax
  00011	83 ec 30	 sub	 esp, 48			; 00000030H
  00014	57		 push	 edi
  00015	51		 push	 ecx
  00016	8d 7d c4	 lea	 edi, DWORD PTR [ebp-60]
  00019	b9 0c 00 00 00	 mov	 ecx, 12			; 0000000cH
  0001e	b8 cc cc cc cc	 mov	 eax, -858993460		; ccccccccH
  00023	f3 ab		 rep stosd
  00025	59		 pop	 ecx
  00026	a1 00 00 00 00	 mov	 eax, DWORD PTR ___security_cookie
  0002b	33 c5		 xor	 eax, ebp
  0002d	89 45 f0	 mov	 DWORD PTR __$ArrayPad$[ebp], eax
  00030	50		 push	 eax
  00031	8d 45 f4	 lea	 eax, DWORD PTR __$EHRec$[ebp]
  00034	64 a3 00 00 00
	00		 mov	 DWORD PTR fs:0, eax
  0003a	89 4d ec	 mov	 DWORD PTR _this$[ebp], ecx

; 1023 : 	CComThread *pThread;
; 1024 : 	int idx;
; 1025 : 	if (!m_pThreadList) {

  0003d	8b 45 ec	 mov	 eax, DWORD PTR _this$[ebp]
  00040	83 78 08 00	 cmp	 DWORD PTR [eax+8], 0
  00044	75 19		 jne	 SHORT $LN2@addComThre

; 1026 : 		if (!initComThread(LIST_ADD_COUNT)) return -1;

  00046	6a 0a		 push	 10			; 0000000aH
  00048	8b 4d ec	 mov	 ecx, DWORD PTR _this$[ebp]
  0004b	e8 00 00 00 00	 call	 ?initComThread@CCoreList@@QAE_NH@Z ; CCoreList::initComThread
  00050	0f b6 c8	 movzx	 ecx, al
  00053	85 c9		 test	 ecx, ecx
  00055	75 08		 jne	 SHORT $LN2@addComThre
  00057	83 c8 ff	 or	 eax, -1
  0005a	e9 b1 01 00 00	 jmp	 $LN1@addComThre
$LN2@addComThre:

; 1027 : 	}
; 1028 : 
; 1029 : 	pThread = new (std::nothrow) CComThread();

  0005f	68 00 00 00 00	 push	 OFFSET ?nothrow@std@@3Unothrow_t@1@B ; std::nothrow
  00064	6a 28		 push	 40			; 00000028H
  00066	e8 00 00 00 00	 call	 ??2@YAPAXIABUnothrow_t@std@@@Z ; operator new
  0006b	83 c4 08	 add	 esp, 8
  0006e	89 45 d4	 mov	 DWORD PTR $T4[ebp], eax
  00071	c7 45 fc 00 00
	00 00		 mov	 DWORD PTR __$EHRec$[ebp+8], 0
  00078	83 7d d4 00	 cmp	 DWORD PTR $T4[ebp], 0
  0007c	74 0d		 je	 SHORT $LN13@addComThre
  0007e	8b 4d d4	 mov	 ecx, DWORD PTR $T4[ebp]
  00081	e8 00 00 00 00	 call	 ??0CComThread@@QAE@XZ	; CComThread::CComThread
  00086	89 45 c8	 mov	 DWORD PTR tv83[ebp], eax
  00089	eb 07		 jmp	 SHORT $LN14@addComThre
$LN13@addComThre:
  0008b	c7 45 c8 00 00
	00 00		 mov	 DWORD PTR tv83[ebp], 0
$LN14@addComThre:
  00092	8b 55 c8	 mov	 edx, DWORD PTR tv83[ebp]
  00095	89 55 d8	 mov	 DWORD PTR $T5[ebp], edx
  00098	c7 45 fc ff ff
	ff ff		 mov	 DWORD PTR __$EHRec$[ebp+8], -1
  0009f	8b 45 d8	 mov	 eax, DWORD PTR $T5[ebp]
  000a2	89 45 e8	 mov	 DWORD PTR _pThread$[ebp], eax

; 1030 : 	if (!pThread) {

  000a5	83 7d e8 00	 cmp	 DWORD PTR _pThread$[ebp], 0
  000a9	75 3a		 jne	 SHORT $LN4@addComThre

; 1031 : 		_stprintf(g_szMessage, _T("[lastIdx:%d] new CComThread"), m_pThreadList->lastIdx());

  000ab	8b 4d ec	 mov	 ecx, DWORD PTR _this$[ebp]
  000ae	8b 49 08	 mov	 ecx, DWORD PTR [ecx+8]
  000b1	e8 00 00 00 00	 call	 ?lastIdx@?$CTList@VCComThread@@@@QAEHXZ ; CTList<CComThread>::lastIdx
  000b6	50		 push	 eax
  000b7	68 00 00 00 00	 push	 OFFSET $SG46428
  000bc	68 00 00 00 00	 push	 OFFSET ?g_szMessage@@3PADA ; g_szMessage
  000c1	e8 00 00 00 00	 call	 _sprintf
  000c6	83 c4 0c	 add	 esp, 12			; 0000000cH

; 1032 : 		comErrorPrint(g_szMessage);

  000c9	68 08 04 00 00	 push	 1032			; 00000408H
  000ce	68 00 00 00 00	 push	 OFFSET $SG46429
  000d3	68 00 00 00 00	 push	 OFFSET ?g_szMessage@@3PADA ; g_szMessage
  000d8	e8 00 00 00 00	 call	 ?comGlobalErrorProc@@YAXPADPBDH@Z ; comGlobalErrorProc
  000dd	83 c4 0c	 add	 esp, 12			; 0000000cH

; 1033 : 		goto ERROR_ADDCOMTHREAD;

  000e0	e9 00 01 00 00	 jmp	 $ERROR_ADDCOMTHREAD$22
$LN4@addComThre:

; 1034 : 	}
; 1035 : 
; 1036 : 	if (!pThread->init(fpProc, pClass, millisec, pObj)) {

  000e5	8b 55 14	 mov	 edx, DWORD PTR _pObj$[ebp]
  000e8	52		 push	 edx
  000e9	8b 45 10	 mov	 eax, DWORD PTR _millisec$[ebp]
  000ec	50		 push	 eax
  000ed	8b 4d 0c	 mov	 ecx, DWORD PTR _pClass$[ebp]
  000f0	51		 push	 ecx
  000f1	8b 55 08	 mov	 edx, DWORD PTR _fpProc$[ebp]
  000f4	52		 push	 edx
  000f5	8b 4d e8	 mov	 ecx, DWORD PTR _pThread$[ebp]
  000f8	e8 00 00 00 00	 call	 ?init@CComThread@@QAE_NP6AXPAUSTThreadInfo@@@ZPAXH2@Z ; CComThread::init
  000fd	0f b6 c0	 movzx	 eax, al
  00100	85 c0		 test	 eax, eax
  00102	75 3a		 jne	 SHORT $LN6@addComThre

; 1037 : 		_stprintf(g_szMessage, _T("[lastIdx:%d] pComThread->init()"), m_pThreadList->lastIdx());

  00104	8b 4d ec	 mov	 ecx, DWORD PTR _this$[ebp]
  00107	8b 49 08	 mov	 ecx, DWORD PTR [ecx+8]
  0010a	e8 00 00 00 00	 call	 ?lastIdx@?$CTList@VCComThread@@@@QAEHXZ ; CTList<CComThread>::lastIdx
  0010f	50		 push	 eax
  00110	68 00 00 00 00	 push	 OFFSET $SG46432
  00115	68 00 00 00 00	 push	 OFFSET ?g_szMessage@@3PADA ; g_szMessage
  0011a	e8 00 00 00 00	 call	 _sprintf
  0011f	83 c4 0c	 add	 esp, 12			; 0000000cH

; 1038 : 		comErrorPrint(g_szMessage);

  00122	68 0e 04 00 00	 push	 1038			; 0000040eH
  00127	68 00 00 00 00	 push	 OFFSET $SG46433
  0012c	68 00 00 00 00	 push	 OFFSET ?g_szMessage@@3PADA ; g_szMessage
  00131	e8 00 00 00 00	 call	 ?comGlobalErrorProc@@YAXPADPBDH@Z ; comGlobalErrorProc
  00136	83 c4 0c	 add	 esp, 12			; 0000000cH

; 1039 : 		goto ERROR_ADDCOMTHREAD;

  00139	e9 a7 00 00 00	 jmp	 $ERROR_ADDCOMTHREAD$22
$LN6@addComThre:

; 1040 : 	}
; 1041 : 
; 1042 : 	if (!m_pThreadList->push_back(pThread, &idx)) {

  0013e	8d 55 e0	 lea	 edx, DWORD PTR _idx$[ebp]
  00141	52		 push	 edx
  00142	8b 45 e8	 mov	 eax, DWORD PTR _pThread$[ebp]
  00145	50		 push	 eax
  00146	8b 4d ec	 mov	 ecx, DWORD PTR _this$[ebp]
  00149	8b 49 08	 mov	 ecx, DWORD PTR [ecx+8]
  0014c	e8 00 00 00 00	 call	 ?push_back@?$CTList@VCComThread@@@@QAE_NPAVCComThread@@PAH@Z ; CTList<CComThread>::push_back
  00151	0f b6 d0	 movzx	 edx, al
  00154	85 d2		 test	 edx, edx
  00156	75 2f		 jne	 SHORT $LN8@addComThre

; 1043 : 		_stprintf(g_szMessage, _T("[idx:%d] m_pThreadList->push_back()"), idx);

  00158	8b 45 e0	 mov	 eax, DWORD PTR _idx$[ebp]
  0015b	50		 push	 eax
  0015c	68 00 00 00 00	 push	 OFFSET $SG46436
  00161	68 00 00 00 00	 push	 OFFSET ?g_szMessage@@3PADA ; g_szMessage
  00166	e8 00 00 00 00	 call	 _sprintf
  0016b	83 c4 0c	 add	 esp, 12			; 0000000cH

; 1044 : 		comErrorPrint(g_szMessage);

  0016e	68 14 04 00 00	 push	 1044			; 00000414H
  00173	68 00 00 00 00	 push	 OFFSET $SG46437
  00178	68 00 00 00 00	 push	 OFFSET ?g_szMessage@@3PADA ; g_szMessage
  0017d	e8 00 00 00 00	 call	 ?comGlobalErrorProc@@YAXPADPBDH@Z ; comGlobalErrorProc
  00182	83 c4 0c	 add	 esp, 12			; 0000000cH

; 1045 : 		goto ERROR_ADDCOMTHREAD;

  00185	eb 5e		 jmp	 SHORT $ERROR_ADDCOMTHREAD$22
$LN8@addComThre:

; 1046 : 	}
; 1047 : 	pThread->setIdx(idx);

  00187	8b 4d e0	 mov	 ecx, DWORD PTR _idx$[ebp]
  0018a	51		 push	 ecx
  0018b	8b 4d e8	 mov	 ecx, DWORD PTR _pThread$[ebp]
  0018e	e8 00 00 00 00	 call	 ?setIdx@CComThread@@QAEXH@Z ; CComThread::setIdx

; 1048 : 	if (!pThread->start()) {

  00193	8b 4d e8	 mov	 ecx, DWORD PTR _pThread$[ebp]
  00196	e8 00 00 00 00	 call	 ?start@CComThread@@QAE_NXZ ; CComThread::start
  0019b	0f b6 d0	 movzx	 edx, al
  0019e	85 d2		 test	 edx, edx
  001a0	75 3e		 jne	 SHORT $LN10@addComThre

; 1049 : 		m_pThreadList->del(idx);

  001a2	8b 45 e0	 mov	 eax, DWORD PTR _idx$[ebp]
  001a5	50		 push	 eax
  001a6	8b 4d ec	 mov	 ecx, DWORD PTR _this$[ebp]
  001a9	8b 49 08	 mov	 ecx, DWORD PTR [ecx+8]
  001ac	e8 00 00 00 00	 call	 ?del@?$CTList@VCComThread@@@@QAE_NH@Z ; CTList<CComThread>::del

; 1050 : 		_stprintf(g_szMessage, _T("[idx:%d] pComThread->start()"), idx);

  001b1	8b 55 e0	 mov	 edx, DWORD PTR _idx$[ebp]
  001b4	52		 push	 edx
  001b5	68 00 00 00 00	 push	 OFFSET $SG46440
  001ba	68 00 00 00 00	 push	 OFFSET ?g_szMessage@@3PADA ; g_szMessage
  001bf	e8 00 00 00 00	 call	 _sprintf
  001c4	83 c4 0c	 add	 esp, 12			; 0000000cH

; 1051 : 		comErrorPrint(g_szMessage);

  001c7	68 1b 04 00 00	 push	 1051			; 0000041bH
  001cc	68 00 00 00 00	 push	 OFFSET $SG46441
  001d1	68 00 00 00 00	 push	 OFFSET ?g_szMessage@@3PADA ; g_szMessage
  001d6	e8 00 00 00 00	 call	 ?comGlobalErrorProc@@YAXPADPBDH@Z ; comGlobalErrorProc
  001db	83 c4 0c	 add	 esp, 12			; 0000000cH

; 1052 : 		goto ERROR_ADDCOMTHREAD;

  001de	eb 05		 jmp	 SHORT $ERROR_ADDCOMTHREAD$22
$LN10@addComThre:

; 1053 : 	}
; 1054 : 	return idx;

  001e0	8b 45 e0	 mov	 eax, DWORD PTR _idx$[ebp]
  001e3	eb 2b		 jmp	 SHORT $LN1@addComThre
$ERROR_ADDCOMTHREAD$22:

; 1055 : 
; 1056 : ERROR_ADDCOMTHREAD:
; 1057 : 	delete pThread;

  001e5	8b 45 e8	 mov	 eax, DWORD PTR _pThread$[ebp]
  001e8	89 45 cc	 mov	 DWORD PTR $T2[ebp], eax
  001eb	8b 4d cc	 mov	 ecx, DWORD PTR $T2[ebp]
  001ee	89 4d d0	 mov	 DWORD PTR $T3[ebp], ecx
  001f1	83 7d d0 00	 cmp	 DWORD PTR $T3[ebp], 0
  001f5	74 0f		 je	 SHORT $LN15@addComThre
  001f7	6a 01		 push	 1
  001f9	8b 4d d0	 mov	 ecx, DWORD PTR $T3[ebp]
  001fc	e8 00 00 00 00	 call	 ??_GCComThread@@QAEPAXI@Z
  00201	89 45 c4	 mov	 DWORD PTR tv174[ebp], eax
  00204	eb 07		 jmp	 SHORT $LN16@addComThre
$LN15@addComThre:
  00206	c7 45 c4 00 00
	00 00		 mov	 DWORD PTR tv174[ebp], 0
$LN16@addComThre:

; 1058 : 	return -1;

  0020d	83 c8 ff	 or	 eax, -1
$LN1@addComThre:

; 1059 : }

  00210	52		 push	 edx
  00211	8b cd		 mov	 ecx, ebp
  00213	50		 push	 eax
  00214	8d 15 00 00 00
	00		 lea	 edx, DWORD PTR $LN21@addComThre
  0021a	e8 00 00 00 00	 call	 @_RTC_CheckStackVars@8
  0021f	58		 pop	 eax
  00220	5a		 pop	 edx
  00221	8b 4d f4	 mov	 ecx, DWORD PTR __$EHRec$[ebp]
  00224	64 89 0d 00 00
	00 00		 mov	 DWORD PTR fs:0, ecx
  0022b	59		 pop	 ecx
  0022c	5f		 pop	 edi
  0022d	8b 4d f0	 mov	 ecx, DWORD PTR __$ArrayPad$[ebp]
  00230	33 cd		 xor	 ecx, ebp
  00232	e8 00 00 00 00	 call	 @__security_check_cookie@4
  00237	83 c4 3c	 add	 esp, 60			; 0000003cH
  0023a	3b ec		 cmp	 ebp, esp
  0023c	e8 00 00 00 00	 call	 __RTC_CheckEsp
  00241	8b e5		 mov	 esp, ebp
  00243	5d		 pop	 ebp
  00244	c2 10 00	 ret	 16			; 00000010H
  00247	90		 npad	 1
$LN21@addComThre:
  00248	01 00 00 00	 DD	 1
  0024c	00 00 00 00	 DD	 $LN20@addComThre
$LN20@addComThre:
  00250	e0 ff ff ff	 DD	 -32			; ffffffe0H
  00254	04 00 00 00	 DD	 4
  00258	00 00 00 00	 DD	 $LN18@addComThre
$LN18@addComThre:
  0025c	69		 DB	 105			; 00000069H
  0025d	64		 DB	 100			; 00000064H
  0025e	78		 DB	 120			; 00000078H
  0025f	00		 DB	 0
_TEXT	ENDS
text$x	SEGMENT
__unwindfunclet$?addComThread@CCoreList@@QAEHP6AXPAUSTThreadInfo@@@ZPAXH2@Z$4:
  00000	68 00 00 00 00	 push	 OFFSET ?nothrow@std@@3Unothrow_t@1@B ; std::nothrow
  00005	8b 45 d4	 mov	 eax, DWORD PTR $T4[ebp]
  00008	50		 push	 eax
  00009	e8 00 00 00 00	 call	 ??3@YAXPAXABUnothrow_t@std@@@Z ; operator delete
  0000e	83 c4 08	 add	 esp, 8
  00011	c3		 ret	 0
__ehhandler$?addComThread@CCoreList@@QAEHP6AXPAUSTThreadInfo@@@ZPAXH2@Z:
  00012	8b 54 24 08	 mov	 edx, DWORD PTR [esp+8]
  00016	8d 42 0c	 lea	 eax, DWORD PTR [edx+12]
  00019	8b 4a c8	 mov	 ecx, DWORD PTR [edx-56]
  0001c	33 c8		 xor	 ecx, eax
  0001e	e8 00 00 00 00	 call	 @__security_check_cookie@4
  00023	8b 4a fc	 mov	 ecx, DWORD PTR [edx-4]
  00026	33 c8		 xor	 ecx, eax
  00028	e8 00 00 00 00	 call	 @__security_check_cookie@4
  0002d	b8 00 00 00 00	 mov	 eax, OFFSET __ehfuncinfo$?addComThread@CCoreList@@QAEHP6AXPAUSTThreadInfo@@@ZPAXH2@Z
  00032	e9 00 00 00 00	 jmp	 ___CxxFrameHandler3
text$x	ENDS
?addComThread@CCoreList@@QAEHP6AXPAUSTThreadInfo@@@ZPAXH2@Z ENDP ; CCoreList::addComThread
; Function compile flags: /Odtp /RTCsu
; File e:\infinia-library-3.0\com\src\comcore.cpp
_TEXT	SEGMENT
_pSchedulerThread$ = -8					; size = 4
_this$ = -4						; size = 4
_p$ = 8							; size = 4
?putTimer@CCoreList@@QAE_NPAUSTIntervalInfo@@@Z PROC	; CCoreList::putTimer
; _this$ = ecx

; 1009 : {

  00000	55		 push	 ebp
  00001	8b ec		 mov	 ebp, esp
  00003	83 ec 08	 sub	 esp, 8
  00006	c7 45 f8 cc cc
	cc cc		 mov	 DWORD PTR [ebp-8], -858993460 ; ccccccccH
  0000d	c7 45 fc cc cc
	cc cc		 mov	 DWORD PTR [ebp-4], -858993460 ; ccccccccH
  00014	89 4d fc	 mov	 DWORD PTR _this$[ebp], ecx

; 1010 : 	CScheduler *pSchedulerThread = m_pSchedulerList->getObj(p->nThreadIdx);

  00017	8b 45 08	 mov	 eax, DWORD PTR _p$[ebp]
  0001a	8b 08		 mov	 ecx, DWORD PTR [eax]
  0001c	51		 push	 ecx
  0001d	8b 55 fc	 mov	 edx, DWORD PTR _this$[ebp]
  00020	8b 4a 04	 mov	 ecx, DWORD PTR [edx+4]
  00023	e8 00 00 00 00	 call	 ?getObj@?$CTList@VCScheduler@@@@QAEPAVCScheduler@@H@Z ; CTList<CScheduler>::getObj
  00028	89 45 f8	 mov	 DWORD PTR _pSchedulerThread$[ebp], eax

; 1011 : 	if (!pSchedulerThread) {

  0002b	83 7d f8 00	 cmp	 DWORD PTR _pSchedulerThread$[ebp], 0
  0002f	75 04		 jne	 SHORT $LN2@putTimer

; 1012 : 		return false;

  00031	32 c0		 xor	 al, al
  00033	eb 16		 jmp	 SHORT $LN1@putTimer
$LN2@putTimer:

; 1013 : 	}
; 1014 : 	if (!pSchedulerThread->addTime(p)) {

  00035	8b 45 08	 mov	 eax, DWORD PTR _p$[ebp]
  00038	50		 push	 eax
  00039	8b 4d f8	 mov	 ecx, DWORD PTR _pSchedulerThread$[ebp]
  0003c	e8 00 00 00 00	 call	 ?addTime@CScheduler@@QAEHPAUSTIntervalInfo@@@Z ; CScheduler::addTime
  00041	85 c0		 test	 eax, eax
  00043	75 04		 jne	 SHORT $LN3@putTimer

; 1015 : 		return false;

  00045	32 c0		 xor	 al, al
  00047	eb 02		 jmp	 SHORT $LN1@putTimer
$LN3@putTimer:

; 1016 : 	}
; 1017 : 	return true;

  00049	b0 01		 mov	 al, 1
$LN1@putTimer:

; 1018 : }

  0004b	83 c4 08	 add	 esp, 8
  0004e	3b ec		 cmp	 ebp, esp
  00050	e8 00 00 00 00	 call	 __RTC_CheckEsp
  00055	8b e5		 mov	 esp, ebp
  00057	5d		 pop	 ebp
  00058	c2 04 00	 ret	 4
?putTimer@CCoreList@@QAE_NPAUSTIntervalInfo@@@Z ENDP	; CCoreList::putTimer
_TEXT	ENDS
; Function compile flags: /Odtp /RTCsu
; File e:\infinia-library-3.0\com\src\comcore.cpp
_TEXT	SEGMENT
_pQueueThread$ = -8					; size = 4
_this$ = -4						; size = 4
_p$ = 8							; size = 4
?putEvent@CCoreList@@QAE_NPAUSTEvent@@@Z PROC		; CCoreList::putEvent
; _this$ = ecx

; 997  : {

  00000	55		 push	 ebp
  00001	8b ec		 mov	 ebp, esp
  00003	83 ec 08	 sub	 esp, 8
  00006	c7 45 f8 cc cc
	cc cc		 mov	 DWORD PTR [ebp-8], -858993460 ; ccccccccH
  0000d	c7 45 fc cc cc
	cc cc		 mov	 DWORD PTR [ebp-4], -858993460 ; ccccccccH
  00014	89 4d fc	 mov	 DWORD PTR _this$[ebp], ecx

; 998  : 	CComQueueThread *pQueueThread = m_pEventThreadList->getObj(p->nThreadIdx);

  00017	8b 45 08	 mov	 eax, DWORD PTR _p$[ebp]
  0001a	8b 08		 mov	 ecx, DWORD PTR [eax]
  0001c	51		 push	 ecx
  0001d	8b 55 fc	 mov	 edx, DWORD PTR _this$[ebp]
  00020	8b 4a 0c	 mov	 ecx, DWORD PTR [edx+12]
  00023	e8 00 00 00 00	 call	 ?getObj@?$CTList@VCComQueueThread@@@@QAEPAVCComQueueThread@@H@Z ; CTList<CComQueueThread>::getObj
  00028	89 45 f8	 mov	 DWORD PTR _pQueueThread$[ebp], eax

; 999  : 	if (!pQueueThread) {

  0002b	83 7d f8 00	 cmp	 DWORD PTR _pQueueThread$[ebp], 0
  0002f	75 04		 jne	 SHORT $LN2@putEvent

; 1000 : 		return false;

  00031	32 c0		 xor	 al, al
  00033	eb 19		 jmp	 SHORT $LN1@putEvent
$LN2@putEvent:

; 1001 : 	}
; 1002 : 	if (!pQueueThread->putQueue(p)) {

  00035	8b 45 08	 mov	 eax, DWORD PTR _p$[ebp]
  00038	50		 push	 eax
  00039	8b 4d f8	 mov	 ecx, DWORD PTR _pQueueThread$[ebp]
  0003c	e8 00 00 00 00	 call	 ?putQueue@CComQueueThread@@QAE_NPAUSTEvent@@@Z ; CComQueueThread::putQueue
  00041	0f b6 c8	 movzx	 ecx, al
  00044	85 c9		 test	 ecx, ecx
  00046	75 04		 jne	 SHORT $LN3@putEvent

; 1003 : 		return false;

  00048	32 c0		 xor	 al, al
  0004a	eb 02		 jmp	 SHORT $LN1@putEvent
$LN3@putEvent:

; 1004 : 	}
; 1005 : 	return true;

  0004c	b0 01		 mov	 al, 1
$LN1@putEvent:

; 1006 : }

  0004e	83 c4 08	 add	 esp, 8
  00051	3b ec		 cmp	 ebp, esp
  00053	e8 00 00 00 00	 call	 __RTC_CheckEsp
  00058	8b e5		 mov	 esp, ebp
  0005a	5d		 pop	 ebp
  0005b	c2 04 00	 ret	 4
?putEvent@CCoreList@@QAE_NPAUSTEvent@@@Z ENDP		; CCoreList::putEvent
_TEXT	ENDS
; Function compile flags: /Odtp /RTCsu
; File e:\infinia-library-3.0\com\include\comcore.h
;	COMDAT ?delEvent@CCoreList@@QAE_NPAUSTEvent@@@Z
_TEXT	SEGMENT
_this$ = -4						; size = 4
_p$ = 8							; size = 4
?delEvent@CCoreList@@QAE_NPAUSTEvent@@@Z PROC		; CCoreList::delEvent, COMDAT
; _this$ = ecx

; 196  : 	inline bool delEvent(STEvent *p) { return m_pEventPool->delMem(p); }

  00000	55		 push	 ebp
  00001	8b ec		 mov	 ebp, esp
  00003	51		 push	 ecx
  00004	c7 45 fc cc cc
	cc cc		 mov	 DWORD PTR [ebp-4], -858993460 ; ccccccccH
  0000b	89 4d fc	 mov	 DWORD PTR _this$[ebp], ecx
  0000e	8b 45 08	 mov	 eax, DWORD PTR _p$[ebp]
  00011	50		 push	 eax
  00012	8b 4d fc	 mov	 ecx, DWORD PTR _this$[ebp]
  00015	8b 49 14	 mov	 ecx, DWORD PTR [ecx+20]
  00018	e8 00 00 00 00	 call	 ?delMem@?$CMemPool@USTEvent@@@@QAE_NPAUSTEvent@@@Z ; CMemPool<STEvent>::delMem
  0001d	83 c4 04	 add	 esp, 4
  00020	3b ec		 cmp	 ebp, esp
  00022	e8 00 00 00 00	 call	 __RTC_CheckEsp
  00027	8b e5		 mov	 esp, ebp
  00029	5d		 pop	 ebp
  0002a	c2 04 00	 ret	 4
?delEvent@CCoreList@@QAE_NPAUSTEvent@@@Z ENDP		; CCoreList::delEvent
_TEXT	ENDS
; Function compile flags: /Odtp /RTCsu
; File e:\infinia-library-3.0\com\src\comcore.cpp
_TEXT	SEGMENT
tv148 = -76						; size = 4
tv139 = -72						; size = 4
tv130 = -68						; size = 4
tv89 = -64						; size = 4
tv80 = -60						; size = 4
tv71 = -56						; size = 4
$T1 = -52						; size = 4
$T2 = -48						; size = 4
$T3 = -44						; size = 4
$T4 = -40						; size = 4
$T5 = -36						; size = 4
$T6 = -32						; size = 4
$T7 = -28						; size = 4
$T8 = -24						; size = 4
$T9 = -20						; size = 4
$T10 = -16						; size = 4
$T11 = -12						; size = 4
$T12 = -8						; size = 4
_this$ = -4						; size = 4
?destroy@CCoreList@@QAEXXZ PROC				; CCoreList::destroy
; _this$ = ecx

; 495  : {

  00000	55		 push	 ebp
  00001	8b ec		 mov	 ebp, esp
  00003	83 ec 4c	 sub	 esp, 76			; 0000004cH
  00006	57		 push	 edi
  00007	51		 push	 ecx
  00008	8d 7d b4	 lea	 edi, DWORD PTR [ebp-76]
  0000b	b9 13 00 00 00	 mov	 ecx, 19			; 00000013H
  00010	b8 cc cc cc cc	 mov	 eax, -858993460		; ccccccccH
  00015	f3 ab		 rep stosd
  00017	59		 pop	 ecx
  00018	89 4d fc	 mov	 DWORD PTR _this$[ebp], ecx

; 496  : 	if (m_pWriterList) {

  0001b	8b 45 fc	 mov	 eax, DWORD PTR _this$[ebp]
  0001e	83 38 00	 cmp	 DWORD PTR [eax], 0
  00021	74 33		 je	 SHORT $LN2@destroy

; 497  : 		delete m_pWriterList; 

  00023	8b 4d fc	 mov	 ecx, DWORD PTR _this$[ebp]
  00026	8b 11		 mov	 edx, DWORD PTR [ecx]
  00028	89 55 f4	 mov	 DWORD PTR $T11[ebp], edx
  0002b	8b 45 f4	 mov	 eax, DWORD PTR $T11[ebp]
  0002e	89 45 f8	 mov	 DWORD PTR $T12[ebp], eax
  00031	83 7d f8 00	 cmp	 DWORD PTR $T12[ebp], 0
  00035	74 0f		 je	 SHORT $LN9@destroy
  00037	6a 01		 push	 1
  00039	8b 4d f8	 mov	 ecx, DWORD PTR $T12[ebp]
  0003c	e8 00 00 00 00	 call	 ??_G?$CTList@VCSTLogger@@@@QAEPAXI@Z
  00041	89 45 c8	 mov	 DWORD PTR tv71[ebp], eax
  00044	eb 07		 jmp	 SHORT $LN10@destroy
$LN9@destroy:
  00046	c7 45 c8 00 00
	00 00		 mov	 DWORD PTR tv71[ebp], 0
$LN10@destroy:

; 498  : 		m_pWriterList = NULL;

  0004d	8b 4d fc	 mov	 ecx, DWORD PTR _this$[ebp]
  00050	c7 01 00 00 00
	00		 mov	 DWORD PTR [ecx], 0
$LN2@destroy:

; 499  : 	}
; 500  : 	if (m_pSchedulerList) {

  00056	8b 55 fc	 mov	 edx, DWORD PTR _this$[ebp]
  00059	83 7a 04 00	 cmp	 DWORD PTR [edx+4], 0
  0005d	74 35		 je	 SHORT $LN3@destroy

; 501  : 		delete m_pSchedulerList;

  0005f	8b 45 fc	 mov	 eax, DWORD PTR _this$[ebp]
  00062	8b 48 04	 mov	 ecx, DWORD PTR [eax+4]
  00065	89 4d ec	 mov	 DWORD PTR $T9[ebp], ecx
  00068	8b 55 ec	 mov	 edx, DWORD PTR $T9[ebp]
  0006b	89 55 f0	 mov	 DWORD PTR $T10[ebp], edx
  0006e	83 7d f0 00	 cmp	 DWORD PTR $T10[ebp], 0
  00072	74 0f		 je	 SHORT $LN11@destroy
  00074	6a 01		 push	 1
  00076	8b 4d f0	 mov	 ecx, DWORD PTR $T10[ebp]
  00079	e8 00 00 00 00	 call	 ??_G?$CTList@VCScheduler@@@@QAEPAXI@Z
  0007e	89 45 c4	 mov	 DWORD PTR tv80[ebp], eax
  00081	eb 07		 jmp	 SHORT $LN12@destroy
$LN11@destroy:
  00083	c7 45 c4 00 00
	00 00		 mov	 DWORD PTR tv80[ebp], 0
$LN12@destroy:

; 502  : 		m_pSchedulerList = NULL;

  0008a	8b 45 fc	 mov	 eax, DWORD PTR _this$[ebp]
  0008d	c7 40 04 00 00
	00 00		 mov	 DWORD PTR [eax+4], 0
$LN3@destroy:

; 503  : 	}
; 504  : 	if (m_pThreadList) {

  00094	8b 4d fc	 mov	 ecx, DWORD PTR _this$[ebp]
  00097	83 79 08 00	 cmp	 DWORD PTR [ecx+8], 0
  0009b	74 35		 je	 SHORT $LN4@destroy

; 505  : 		delete m_pThreadList;

  0009d	8b 55 fc	 mov	 edx, DWORD PTR _this$[ebp]
  000a0	8b 42 08	 mov	 eax, DWORD PTR [edx+8]
  000a3	89 45 e4	 mov	 DWORD PTR $T7[ebp], eax
  000a6	8b 4d e4	 mov	 ecx, DWORD PTR $T7[ebp]
  000a9	89 4d e8	 mov	 DWORD PTR $T8[ebp], ecx
  000ac	83 7d e8 00	 cmp	 DWORD PTR $T8[ebp], 0
  000b0	74 0f		 je	 SHORT $LN13@destroy
  000b2	6a 01		 push	 1
  000b4	8b 4d e8	 mov	 ecx, DWORD PTR $T8[ebp]
  000b7	e8 00 00 00 00	 call	 ??_G?$CTList@VCComThread@@@@QAEPAXI@Z
  000bc	89 45 c0	 mov	 DWORD PTR tv89[ebp], eax
  000bf	eb 07		 jmp	 SHORT $LN14@destroy
$LN13@destroy:
  000c1	c7 45 c0 00 00
	00 00		 mov	 DWORD PTR tv89[ebp], 0
$LN14@destroy:

; 506  : 		m_pThreadList = NULL;

  000c8	8b 55 fc	 mov	 edx, DWORD PTR _this$[ebp]
  000cb	c7 42 08 00 00
	00 00		 mov	 DWORD PTR [edx+8], 0
$LN4@destroy:

; 507  : 	}
; 508  : 	if (m_pEventThreadList) {

  000d2	8b 45 fc	 mov	 eax, DWORD PTR _this$[ebp]
  000d5	83 78 0c 00	 cmp	 DWORD PTR [eax+12], 0
  000d9	74 35		 je	 SHORT $LN5@destroy

; 509  : 		delete m_pEventThreadList;

  000db	8b 4d fc	 mov	 ecx, DWORD PTR _this$[ebp]
  000de	8b 51 0c	 mov	 edx, DWORD PTR [ecx+12]
  000e1	89 55 dc	 mov	 DWORD PTR $T5[ebp], edx
  000e4	8b 45 dc	 mov	 eax, DWORD PTR $T5[ebp]
  000e7	89 45 e0	 mov	 DWORD PTR $T6[ebp], eax
  000ea	83 7d e0 00	 cmp	 DWORD PTR $T6[ebp], 0
  000ee	74 0f		 je	 SHORT $LN15@destroy
  000f0	6a 01		 push	 1
  000f2	8b 4d e0	 mov	 ecx, DWORD PTR $T6[ebp]
  000f5	e8 00 00 00 00	 call	 ??_G?$CTList@VCComQueueThread@@@@QAEPAXI@Z
  000fa	89 45 bc	 mov	 DWORD PTR tv130[ebp], eax
  000fd	eb 07		 jmp	 SHORT $LN16@destroy
$LN15@destroy:
  000ff	c7 45 bc 00 00
	00 00		 mov	 DWORD PTR tv130[ebp], 0
$LN16@destroy:

; 510  : 		m_pEventThreadList = NULL;

  00106	8b 4d fc	 mov	 ecx, DWORD PTR _this$[ebp]
  00109	c7 41 0c 00 00
	00 00		 mov	 DWORD PTR [ecx+12], 0
$LN5@destroy:

; 511  : 	}
; 512  : 	if (m_pIntervalPool) {

  00110	8b 55 fc	 mov	 edx, DWORD PTR _this$[ebp]
  00113	83 7a 10 00	 cmp	 DWORD PTR [edx+16], 0
  00117	74 35		 je	 SHORT $LN6@destroy

; 513  : 		delete m_pIntervalPool;

  00119	8b 45 fc	 mov	 eax, DWORD PTR _this$[ebp]
  0011c	8b 48 10	 mov	 ecx, DWORD PTR [eax+16]
  0011f	89 4d d4	 mov	 DWORD PTR $T3[ebp], ecx
  00122	8b 55 d4	 mov	 edx, DWORD PTR $T3[ebp]
  00125	89 55 d8	 mov	 DWORD PTR $T4[ebp], edx
  00128	83 7d d8 00	 cmp	 DWORD PTR $T4[ebp], 0
  0012c	74 0f		 je	 SHORT $LN17@destroy
  0012e	6a 01		 push	 1
  00130	8b 4d d8	 mov	 ecx, DWORD PTR $T4[ebp]
  00133	e8 00 00 00 00	 call	 ??_G?$CMemPool@USTIntervalInfo@@@@QAEPAXI@Z
  00138	89 45 b8	 mov	 DWORD PTR tv139[ebp], eax
  0013b	eb 07		 jmp	 SHORT $LN18@destroy
$LN17@destroy:
  0013d	c7 45 b8 00 00
	00 00		 mov	 DWORD PTR tv139[ebp], 0
$LN18@destroy:

; 514  : 		m_pIntervalPool = NULL;

  00144	8b 45 fc	 mov	 eax, DWORD PTR _this$[ebp]
  00147	c7 40 10 00 00
	00 00		 mov	 DWORD PTR [eax+16], 0
$LN6@destroy:

; 515  : 	}
; 516  : 	if (m_pEventPool) {

  0014e	8b 4d fc	 mov	 ecx, DWORD PTR _this$[ebp]
  00151	83 79 14 00	 cmp	 DWORD PTR [ecx+20], 0
  00155	74 35		 je	 SHORT $LN1@destroy

; 517  : 		delete m_pEventPool;

  00157	8b 55 fc	 mov	 edx, DWORD PTR _this$[ebp]
  0015a	8b 42 14	 mov	 eax, DWORD PTR [edx+20]
  0015d	89 45 cc	 mov	 DWORD PTR $T1[ebp], eax
  00160	8b 4d cc	 mov	 ecx, DWORD PTR $T1[ebp]
  00163	89 4d d0	 mov	 DWORD PTR $T2[ebp], ecx
  00166	83 7d d0 00	 cmp	 DWORD PTR $T2[ebp], 0
  0016a	74 0f		 je	 SHORT $LN19@destroy
  0016c	6a 01		 push	 1
  0016e	8b 4d d0	 mov	 ecx, DWORD PTR $T2[ebp]
  00171	e8 00 00 00 00	 call	 ??_G?$CMemPool@USTEvent@@@@QAEPAXI@Z
  00176	89 45 b4	 mov	 DWORD PTR tv148[ebp], eax
  00179	eb 07		 jmp	 SHORT $LN20@destroy
$LN19@destroy:
  0017b	c7 45 b4 00 00
	00 00		 mov	 DWORD PTR tv148[ebp], 0
$LN20@destroy:

; 518  : 		m_pEventPool = NULL;

  00182	8b 55 fc	 mov	 edx, DWORD PTR _this$[ebp]
  00185	c7 42 14 00 00
	00 00		 mov	 DWORD PTR [edx+20], 0
$LN1@destroy:

; 519  : 	}
; 520  : }

  0018c	5f		 pop	 edi
  0018d	83 c4 4c	 add	 esp, 76			; 0000004cH
  00190	3b ec		 cmp	 ebp, esp
  00192	e8 00 00 00 00	 call	 __RTC_CheckEsp
  00197	8b e5		 mov	 esp, ebp
  00199	5d		 pop	 ebp
  0019a	c3		 ret	 0
?destroy@CCoreList@@QAEXXZ ENDP				; CCoreList::destroy
_TEXT	ENDS
; Function compile flags: /Odtp /RTCsu
; File e:\infinia-library-3.0\com\src\comcore.cpp
_TEXT	SEGMENT
$T2 = -158						; size = 1
$T3 = -157						; size = 1
_curTm$ = -152						; size = 104
_pComThread$ = -44					; size = 4
_pEventThread$ = -40					; size = 4
_pScheduler$ = -36					; size = 4
_pWriter$ = -32						; size = 4
_nCount$ = -28						; size = 4
_i$ = -24						; size = 4
_this$ = -20						; size = 4
__$ArrayPad$ = -16					; size = 4
__$EHRec$ = -12						; size = 12
?start@CCoreList@@QAE_NXZ PROC				; CCoreList::start
; _this$ = ecx

; 917  : {

  00000	55		 push	 ebp
  00001	8b ec		 mov	 ebp, esp
  00003	6a ff		 push	 -1
  00005	68 00 00 00 00	 push	 __ehhandler$?start@CCoreList@@QAE_NXZ
  0000a	64 a1 00 00 00
	00		 mov	 eax, DWORD PTR fs:0
  00010	50		 push	 eax
  00011	81 ec 94 00 00
	00		 sub	 esp, 148		; 00000094H
  00017	56		 push	 esi
  00018	57		 push	 edi
  00019	51		 push	 ecx
  0001a	8d bd 60 ff ff
	ff		 lea	 edi, DWORD PTR [ebp-160]
  00020	b9 25 00 00 00	 mov	 ecx, 37			; 00000025H
  00025	b8 cc cc cc cc	 mov	 eax, -858993460		; ccccccccH
  0002a	f3 ab		 rep stosd
  0002c	59		 pop	 ecx
  0002d	a1 00 00 00 00	 mov	 eax, DWORD PTR ___security_cookie
  00032	33 c5		 xor	 eax, ebp
  00034	89 45 f0	 mov	 DWORD PTR __$ArrayPad$[ebp], eax
  00037	50		 push	 eax
  00038	8d 45 f4	 lea	 eax, DWORD PTR __$EHRec$[ebp]
  0003b	64 a3 00 00 00
	00		 mov	 DWORD PTR fs:0, eax
  00041	89 4d ec	 mov	 DWORD PTR _this$[ebp], ecx

; 918  : 	int i, nCount;
; 919  : 	CSTLogger *pWriter;
; 920  : 	CScheduler *pScheduler;
; 921  : 	CComQueueThread *pEventThread;
; 922  : 	CComThread *pComThread;	
; 923  : 
; 924  : 
; 925  : 	CDateTime curTm;

  00044	6a 00		 push	 0
  00046	6a 01		 push	 1
  00048	8d 8d 68 ff ff
	ff		 lea	 ecx, DWORD PTR _curTm$[ebp]
  0004e	e8 00 00 00 00	 call	 ??0CDateTime@@QAE@W4DT_TYPE@@W4TZ_TYPE@@@Z ; CDateTime::CDateTime
  00053	c7 45 fc 00 00
	00 00		 mov	 DWORD PTR __$EHRec$[ebp+8], 0

; 926  : 	gs_today_time.date		= _ttoi(curTm.DateString(0));

  0005a	6a 00		 push	 0
  0005c	8d 8d 68 ff ff
	ff		 lea	 ecx, DWORD PTR _curTm$[ebp]
  00062	e8 00 00 00 00	 call	 ?DateString@CDateTime@@QAEPBDD@Z ; CDateTime::DateString
  00067	8b f4		 mov	 esi, esp
  00069	50		 push	 eax
  0006a	ff 15 00 00 00
	00		 call	 DWORD PTR __imp__atoi
  00070	83 c4 04	 add	 esp, 4
  00073	3b f4		 cmp	 esi, esp
  00075	e8 00 00 00 00	 call	 __RTC_CheckEsp
  0007a	a3 18 00 00 00	 mov	 DWORD PTR ?gs_today_time@@3USTTodayTime@@A+24, eax

; 927  : 	gs_today_time.year		= curTm.Year();

  0007f	8d 8d 68 ff ff
	ff		 lea	 ecx, DWORD PTR _curTm$[ebp]
  00085	e8 00 00 00 00	 call	 ?Year@CDateTime@@QAEHXZ	; CDateTime::Year
  0008a	a3 00 00 00 00	 mov	 DWORD PTR ?gs_today_time@@3USTTodayTime@@A, eax

; 928  : 	gs_today_time.month		= curTm.Month();

  0008f	8d 8d 68 ff ff
	ff		 lea	 ecx, DWORD PTR _curTm$[ebp]
  00095	e8 00 00 00 00	 call	 ?Month@CDateTime@@QAEHXZ ; CDateTime::Month
  0009a	a3 04 00 00 00	 mov	 DWORD PTR ?gs_today_time@@3USTTodayTime@@A+4, eax

; 929  : 	gs_today_time.mday		= curTm.Mday();

  0009f	8d 8d 68 ff ff
	ff		 lea	 ecx, DWORD PTR _curTm$[ebp]
  000a5	e8 00 00 00 00	 call	 ?Mday@CDateTime@@QAEHXZ	; CDateTime::Mday
  000aa	a3 08 00 00 00	 mov	 DWORD PTR ?gs_today_time@@3USTTodayTime@@A+8, eax

; 930  : 	gs_today_time.hour		= curTm.Hour();

  000af	8d 8d 68 ff ff
	ff		 lea	 ecx, DWORD PTR _curTm$[ebp]
  000b5	e8 00 00 00 00	 call	 ?Hour@CDateTime@@QAEHXZ	; CDateTime::Hour
  000ba	a3 0c 00 00 00	 mov	 DWORD PTR ?gs_today_time@@3USTTodayTime@@A+12, eax

; 931  : 	gs_today_time.minute	= curTm.Minute();

  000bf	8d 8d 68 ff ff
	ff		 lea	 ecx, DWORD PTR _curTm$[ebp]
  000c5	e8 00 00 00 00	 call	 ?Minute@CDateTime@@QAEHXZ ; CDateTime::Minute
  000ca	a3 10 00 00 00	 mov	 DWORD PTR ?gs_today_time@@3USTTodayTime@@A+16, eax

; 932  : 
; 933  : 	// STLogger
; 934  : 	if (m_pWriterList)

  000cf	8b 45 ec	 mov	 eax, DWORD PTR _this$[ebp]
  000d2	83 38 00	 cmp	 DWORD PTR [eax], 0
  000d5	74 54		 je	 SHORT $LN14@start

; 935  : 	{
; 936  : 		nCount = m_pWriterList->size();

  000d7	8b 4d ec	 mov	 ecx, DWORD PTR _this$[ebp]
  000da	8b 09		 mov	 ecx, DWORD PTR [ecx]
  000dc	e8 00 00 00 00	 call	 ?size@?$CTList@VCSTLogger@@@@QAEHXZ ; CTList<CSTLogger>::size
  000e1	89 45 e4	 mov	 DWORD PTR _nCount$[ebp], eax

; 937  : 		for (i = 0; i < nCount; i++) {

  000e4	c7 45 e8 00 00
	00 00		 mov	 DWORD PTR _i$[ebp], 0
  000eb	eb 09		 jmp	 SHORT $LN4@start
$LN2@start:
  000ed	8b 55 e8	 mov	 edx, DWORD PTR _i$[ebp]
  000f0	83 c2 01	 add	 edx, 1
  000f3	89 55 e8	 mov	 DWORD PTR _i$[ebp], edx
$LN4@start:
  000f6	8b 45 e8	 mov	 eax, DWORD PTR _i$[ebp]
  000f9	3b 45 e4	 cmp	 eax, DWORD PTR _nCount$[ebp]
  000fc	7d 2d		 jge	 SHORT $LN14@start

; 938  : 			pWriter = m_pWriterList->getObj(i);

  000fe	8b 4d e8	 mov	 ecx, DWORD PTR _i$[ebp]
  00101	51		 push	 ecx
  00102	8b 55 ec	 mov	 edx, DWORD PTR _this$[ebp]
  00105	8b 0a		 mov	 ecx, DWORD PTR [edx]
  00107	e8 00 00 00 00	 call	 ?getObj@?$CTList@VCSTLogger@@@@QAEPAVCSTLogger@@H@Z ; CTList<CSTLogger>::getObj
  0010c	89 45 e0	 mov	 DWORD PTR _pWriter$[ebp], eax

; 939  : 			if (pWriter) {

  0010f	83 7d e0 00	 cmp	 DWORD PTR _pWriter$[ebp], 0
  00113	74 14		 je	 SHORT $LN15@start

; 940  : 				if (!pWriter->start()) {

  00115	8b 4d e0	 mov	 ecx, DWORD PTR _pWriter$[ebp]
  00118	e8 00 00 00 00	 call	 ?start@CSTLogger@@QAE_NXZ ; CSTLogger::start
  0011d	0f b6 c0	 movzx	 eax, al
  00120	85 c0		 test	 eax, eax
  00122	75 05		 jne	 SHORT $LN15@start

; 941  : 					goto ERROR_STARTPROC;

  00124	e9 3a 01 00 00	 jmp	 $ERROR_STARTPROC$36
$LN15@start:

; 942  : 				}
; 943  : 			}
; 944  : 		}

  00129	eb c2		 jmp	 SHORT $LN2@start
$LN14@start:

; 945  : 	}
; 946  : 
; 947  : 	// CScheduler
; 948  : 	if (m_pSchedulerList)

  0012b	8b 4d ec	 mov	 ecx, DWORD PTR _this$[ebp]
  0012e	83 79 04 00	 cmp	 DWORD PTR [ecx+4], 0
  00132	74 56		 je	 SHORT $LN18@start

; 949  : 	{
; 950  : 		nCount = m_pSchedulerList->size();

  00134	8b 55 ec	 mov	 edx, DWORD PTR _this$[ebp]
  00137	8b 4a 04	 mov	 ecx, DWORD PTR [edx+4]
  0013a	e8 00 00 00 00	 call	 ?size@?$CTList@VCScheduler@@@@QAEHXZ ; CTList<CScheduler>::size
  0013f	89 45 e4	 mov	 DWORD PTR _nCount$[ebp], eax

; 951  : 		for (i = 0; i < nCount; i++) {

  00142	c7 45 e8 00 00
	00 00		 mov	 DWORD PTR _i$[ebp], 0
  00149	eb 09		 jmp	 SHORT $LN7@start
$LN5@start:
  0014b	8b 45 e8	 mov	 eax, DWORD PTR _i$[ebp]
  0014e	83 c0 01	 add	 eax, 1
  00151	89 45 e8	 mov	 DWORD PTR _i$[ebp], eax
$LN7@start:
  00154	8b 4d e8	 mov	 ecx, DWORD PTR _i$[ebp]
  00157	3b 4d e4	 cmp	 ecx, DWORD PTR _nCount$[ebp]
  0015a	7d 2e		 jge	 SHORT $LN18@start

; 952  : 			pScheduler = m_pSchedulerList->getObj(i);

  0015c	8b 55 e8	 mov	 edx, DWORD PTR _i$[ebp]
  0015f	52		 push	 edx
  00160	8b 45 ec	 mov	 eax, DWORD PTR _this$[ebp]
  00163	8b 48 04	 mov	 ecx, DWORD PTR [eax+4]
  00166	e8 00 00 00 00	 call	 ?getObj@?$CTList@VCScheduler@@@@QAEPAVCScheduler@@H@Z ; CTList<CScheduler>::getObj
  0016b	89 45 dc	 mov	 DWORD PTR _pScheduler$[ebp], eax

; 953  : 			if (pScheduler) {

  0016e	83 7d dc 00	 cmp	 DWORD PTR _pScheduler$[ebp], 0
  00172	74 14		 je	 SHORT $LN19@start

; 954  : 				if (!pScheduler->start()) {

  00174	8b 4d dc	 mov	 ecx, DWORD PTR _pScheduler$[ebp]
  00177	e8 00 00 00 00	 call	 ?start@CScheduler@@QAE_NXZ ; CScheduler::start
  0017c	0f b6 c8	 movzx	 ecx, al
  0017f	85 c9		 test	 ecx, ecx
  00181	75 05		 jne	 SHORT $LN19@start

; 955  : 					goto ERROR_STARTPROC;

  00183	e9 db 00 00 00	 jmp	 $ERROR_STARTPROC$36
$LN19@start:

; 956  : 				}
; 957  : 			}
; 958  : 		}

  00188	eb c1		 jmp	 SHORT $LN5@start
$LN18@start:

; 959  : 	}
; 960  : 
; 961  : 	// Event
; 962  : 	if (m_pEventThreadList)

  0018a	8b 55 ec	 mov	 edx, DWORD PTR _this$[ebp]
  0018d	83 7a 0c 00	 cmp	 DWORD PTR [edx+12], 0
  00191	74 53		 je	 SHORT $LN22@start

; 963  : 	{
; 964  : 		nCount = m_pEventThreadList->size();

  00193	8b 45 ec	 mov	 eax, DWORD PTR _this$[ebp]
  00196	8b 48 0c	 mov	 ecx, DWORD PTR [eax+12]
  00199	e8 00 00 00 00	 call	 ?size@?$CTList@VCComQueueThread@@@@QAEHXZ ; CTList<CComQueueThread>::size
  0019e	89 45 e4	 mov	 DWORD PTR _nCount$[ebp], eax

; 965  : 		for (i = 0; i < nCount; i++) {

  001a1	c7 45 e8 00 00
	00 00		 mov	 DWORD PTR _i$[ebp], 0
  001a8	eb 09		 jmp	 SHORT $LN10@start
$LN8@start:
  001aa	8b 4d e8	 mov	 ecx, DWORD PTR _i$[ebp]
  001ad	83 c1 01	 add	 ecx, 1
  001b0	89 4d e8	 mov	 DWORD PTR _i$[ebp], ecx
$LN10@start:
  001b3	8b 55 e8	 mov	 edx, DWORD PTR _i$[ebp]
  001b6	3b 55 e4	 cmp	 edx, DWORD PTR _nCount$[ebp]
  001b9	7d 2b		 jge	 SHORT $LN22@start

; 966  : 			pEventThread = m_pEventThreadList->getObj(i);

  001bb	8b 45 e8	 mov	 eax, DWORD PTR _i$[ebp]
  001be	50		 push	 eax
  001bf	8b 4d ec	 mov	 ecx, DWORD PTR _this$[ebp]
  001c2	8b 49 0c	 mov	 ecx, DWORD PTR [ecx+12]
  001c5	e8 00 00 00 00	 call	 ?getObj@?$CTList@VCComQueueThread@@@@QAEPAVCComQueueThread@@H@Z ; CTList<CComQueueThread>::getObj
  001ca	89 45 d8	 mov	 DWORD PTR _pEventThread$[ebp], eax

; 967  : 			if (pEventThread) {

  001cd	83 7d d8 00	 cmp	 DWORD PTR _pEventThread$[ebp], 0
  001d1	74 11		 je	 SHORT $LN23@start

; 968  : 				if (!pEventThread->start()) {

  001d3	8b 4d d8	 mov	 ecx, DWORD PTR _pEventThread$[ebp]
  001d6	e8 00 00 00 00	 call	 ?start@CComQueueThread@@QAE_NXZ ; CComQueueThread::start
  001db	0f b6 d0	 movzx	 edx, al
  001de	85 d2		 test	 edx, edx
  001e0	75 02		 jne	 SHORT $LN23@start

; 969  : 					goto ERROR_STARTPROC;

  001e2	eb 7f		 jmp	 SHORT $ERROR_STARTPROC$36
$LN23@start:

; 970  : 				}
; 971  : 			}
; 972  : 		}

  001e4	eb c4		 jmp	 SHORT $LN8@start
$LN22@start:

; 973  : 	}
; 974  : 
; 975  : 	// comThread
; 976  : 	if (m_pThreadList)

  001e6	8b 45 ec	 mov	 eax, DWORD PTR _this$[ebp]
  001e9	83 78 08 00	 cmp	 DWORD PTR [eax+8], 0
  001ed	74 53		 je	 SHORT $LN26@start

; 977  : 	{
; 978  : 		nCount = m_pThreadList->size();

  001ef	8b 4d ec	 mov	 ecx, DWORD PTR _this$[ebp]
  001f2	8b 49 08	 mov	 ecx, DWORD PTR [ecx+8]
  001f5	e8 00 00 00 00	 call	 ?size@?$CTList@VCComThread@@@@QAEHXZ ; CTList<CComThread>::size
  001fa	89 45 e4	 mov	 DWORD PTR _nCount$[ebp], eax

; 979  : 		for (i = 0; i < nCount; i++) {

  001fd	c7 45 e8 00 00
	00 00		 mov	 DWORD PTR _i$[ebp], 0
  00204	eb 09		 jmp	 SHORT $LN13@start
$LN11@start:
  00206	8b 55 e8	 mov	 edx, DWORD PTR _i$[ebp]
  00209	83 c2 01	 add	 edx, 1
  0020c	89 55 e8	 mov	 DWORD PTR _i$[ebp], edx
$LN13@start:
  0020f	8b 45 e8	 mov	 eax, DWORD PTR _i$[ebp]
  00212	3b 45 e4	 cmp	 eax, DWORD PTR _nCount$[ebp]
  00215	7d 2b		 jge	 SHORT $LN26@start

; 980  : 			pComThread = m_pThreadList->getObj(i);

  00217	8b 4d e8	 mov	 ecx, DWORD PTR _i$[ebp]
  0021a	51		 push	 ecx
  0021b	8b 55 ec	 mov	 edx, DWORD PTR _this$[ebp]
  0021e	8b 4a 08	 mov	 ecx, DWORD PTR [edx+8]
  00221	e8 00 00 00 00	 call	 ?getObj@?$CTList@VCComThread@@@@QAEPAVCComThread@@H@Z ; CTList<CComThread>::getObj
  00226	89 45 d4	 mov	 DWORD PTR _pComThread$[ebp], eax

; 981  : 			if (pComThread) {

  00229	83 7d d4 00	 cmp	 DWORD PTR _pComThread$[ebp], 0
  0022d	74 11		 je	 SHORT $LN27@start

; 982  : 				if (!pComThread->start()) {

  0022f	8b 4d d4	 mov	 ecx, DWORD PTR _pComThread$[ebp]
  00232	e8 00 00 00 00	 call	 ?start@CComThread@@QAE_NXZ ; CComThread::start
  00237	0f b6 c0	 movzx	 eax, al
  0023a	85 c0		 test	 eax, eax
  0023c	75 02		 jne	 SHORT $LN27@start

; 983  : 					goto ERROR_STARTPROC;

  0023e	eb 23		 jmp	 SHORT $ERROR_STARTPROC$36
$LN27@start:

; 984  : 				}
; 985  : 			}
; 986  : 		}

  00240	eb c4		 jmp	 SHORT $LN11@start
$LN26@start:

; 987  : 	}
; 988  : 	return true;

  00242	c6 85 63 ff ff
	ff 01		 mov	 BYTE PTR $T3[ebp], 1
  00249	c7 45 fc ff ff
	ff ff		 mov	 DWORD PTR __$EHRec$[ebp+8], -1
  00250	8d 8d 68 ff ff
	ff		 lea	 ecx, DWORD PTR _curTm$[ebp]
  00256	e8 00 00 00 00	 call	 ??1CDateTime@@QAE@XZ	; CDateTime::~CDateTime
  0025b	8a 85 63 ff ff
	ff		 mov	 al, BYTE PTR $T3[ebp]
  00261	eb 27		 jmp	 SHORT $LN1@start
$ERROR_STARTPROC$36:

; 989  : 
; 990  : ERROR_STARTPROC:
; 991  : 	destroy();

  00263	8b 4d ec	 mov	 ecx, DWORD PTR _this$[ebp]
  00266	e8 00 00 00 00	 call	 ?destroy@CCoreList@@QAEXXZ ; CCoreList::destroy

; 992  : 	return false;

  0026b	c6 85 62 ff ff
	ff 00		 mov	 BYTE PTR $T2[ebp], 0
  00272	c7 45 fc ff ff
	ff ff		 mov	 DWORD PTR __$EHRec$[ebp+8], -1
  00279	8d 8d 68 ff ff
	ff		 lea	 ecx, DWORD PTR _curTm$[ebp]
  0027f	e8 00 00 00 00	 call	 ??1CDateTime@@QAE@XZ	; CDateTime::~CDateTime
  00284	8a 85 62 ff ff
	ff		 mov	 al, BYTE PTR $T2[ebp]
$LN1@start:

; 993  : }

  0028a	52		 push	 edx
  0028b	8b cd		 mov	 ecx, ebp
  0028d	50		 push	 eax
  0028e	8d 15 00 00 00
	00		 lea	 edx, DWORD PTR $LN35@start
  00294	e8 00 00 00 00	 call	 @_RTC_CheckStackVars@8
  00299	58		 pop	 eax
  0029a	5a		 pop	 edx
  0029b	8b 4d f4	 mov	 ecx, DWORD PTR __$EHRec$[ebp]
  0029e	64 89 0d 00 00
	00 00		 mov	 DWORD PTR fs:0, ecx
  002a5	59		 pop	 ecx
  002a6	5f		 pop	 edi
  002a7	5e		 pop	 esi
  002a8	8b 4d f0	 mov	 ecx, DWORD PTR __$ArrayPad$[ebp]
  002ab	33 cd		 xor	 ecx, ebp
  002ad	e8 00 00 00 00	 call	 @__security_check_cookie@4
  002b2	81 c4 a0 00 00
	00		 add	 esp, 160		; 000000a0H
  002b8	3b ec		 cmp	 ebp, esp
  002ba	e8 00 00 00 00	 call	 __RTC_CheckEsp
  002bf	8b e5		 mov	 esp, ebp
  002c1	5d		 pop	 ebp
  002c2	c3		 ret	 0
  002c3	90		 npad	 1
$LN35@start:
  002c4	01 00 00 00	 DD	 1
  002c8	00 00 00 00	 DD	 $LN34@start
$LN34@start:
  002cc	68 ff ff ff	 DD	 -152			; ffffff68H
  002d0	68 00 00 00	 DD	 104			; 00000068H
  002d4	00 00 00 00	 DD	 $LN32@start
$LN32@start:
  002d8	63		 DB	 99			; 00000063H
  002d9	75		 DB	 117			; 00000075H
  002da	72		 DB	 114			; 00000072H
  002db	54		 DB	 84			; 00000054H
  002dc	6d		 DB	 109			; 0000006dH
  002dd	00		 DB	 0
_TEXT	ENDS
text$x	SEGMENT
__unwindfunclet$?start@CCoreList@@QAE_NXZ$4:
  00000	8d 8d 68 ff ff
	ff		 lea	 ecx, DWORD PTR _curTm$[ebp]
  00006	e9 00 00 00 00	 jmp	 ??1CDateTime@@QAE@XZ	; CDateTime::~CDateTime
__ehhandler$?start@CCoreList@@QAE_NXZ:
  0000b	8b 54 24 08	 mov	 edx, DWORD PTR [esp+8]
  0000f	8d 42 0c	 lea	 eax, DWORD PTR [edx+12]
  00012	8b 8a 60 ff ff
	ff		 mov	 ecx, DWORD PTR [edx-160]
  00018	33 c8		 xor	 ecx, eax
  0001a	e8 00 00 00 00	 call	 @__security_check_cookie@4
  0001f	8b 4a fc	 mov	 ecx, DWORD PTR [edx-4]
  00022	33 c8		 xor	 ecx, eax
  00024	e8 00 00 00 00	 call	 @__security_check_cookie@4
  00029	b8 00 00 00 00	 mov	 eax, OFFSET __ehfuncinfo$?start@CCoreList@@QAE_NXZ
  0002e	e9 00 00 00 00	 jmp	 ___CxxFrameHandler3
text$x	ENDS
?start@CCoreList@@QAE_NXZ ENDP				; CCoreList::start
; Function compile flags: /Odtp /RTCsu
; File e:\infinia-library-3.0\com\src\comcore.cpp
_TEXT	SEGMENT
_pBuf$ = -12						; size = 4
_pWriter$ = -8						; size = 4
_this$ = -4						; size = 4
_pLogger$ = 8						; size = 4
?setLoggerDisable@CCoreList@@QAE_NPAVCLogger@@@Z PROC	; CCoreList::setLoggerDisable
; _this$ = ecx

; 899  : {

  00000	55		 push	 ebp
  00001	8b ec		 mov	 ebp, esp
  00003	83 ec 0c	 sub	 esp, 12			; 0000000cH
  00006	c7 45 f4 cc cc
	cc cc		 mov	 DWORD PTR [ebp-12], -858993460 ; ccccccccH
  0000d	c7 45 f8 cc cc
	cc cc		 mov	 DWORD PTR [ebp-8], -858993460 ; ccccccccH
  00014	c7 45 fc cc cc
	cc cc		 mov	 DWORD PTR [ebp-4], -858993460 ; ccccccccH
  0001b	89 4d fc	 mov	 DWORD PTR _this$[ebp], ecx

; 900  : 	CSTLogger *pWriter = m_pWriterList->getObj(pLogger->getSTLNo());

  0001e	8b 4d 08	 mov	 ecx, DWORD PTR _pLogger$[ebp]
  00021	e8 00 00 00 00	 call	 ?getSTLNo@CLogger@@QAEHXZ ; CLogger::getSTLNo
  00026	50		 push	 eax
  00027	8b 45 fc	 mov	 eax, DWORD PTR _this$[ebp]
  0002a	8b 08		 mov	 ecx, DWORD PTR [eax]
  0002c	e8 00 00 00 00	 call	 ?getObj@?$CTList@VCSTLogger@@@@QAEPAVCSTLogger@@H@Z ; CTList<CSTLogger>::getObj
  00031	89 45 f8	 mov	 DWORD PTR _pWriter$[ebp], eax

; 901  : 	if (!pWriter) {

  00034	83 7d f8 00	 cmp	 DWORD PTR _pWriter$[ebp], 0
  00038	75 36		 jne	 SHORT $LN2@setLoggerD

; 902  : 		_stprintf(g_szMessage, _T("pWriter is NULL! pLogger[nSTLNo:%d]"), pLogger->getSTLNo());

  0003a	8b 4d 08	 mov	 ecx, DWORD PTR _pLogger$[ebp]
  0003d	e8 00 00 00 00	 call	 ?getSTLNo@CLogger@@QAEHXZ ; CLogger::getSTLNo
  00042	50		 push	 eax
  00043	68 00 00 00 00	 push	 OFFSET $SG46349
  00048	68 00 00 00 00	 push	 OFFSET ?g_szMessage@@3PADA ; g_szMessage
  0004d	e8 00 00 00 00	 call	 _sprintf
  00052	83 c4 0c	 add	 esp, 12			; 0000000cH

; 903  : 		comErrorPrint(g_szMessage);

  00055	68 87 03 00 00	 push	 903			; 00000387H
  0005a	68 00 00 00 00	 push	 OFFSET $SG46350
  0005f	68 00 00 00 00	 push	 OFFSET ?g_szMessage@@3PADA ; g_szMessage
  00064	e8 00 00 00 00	 call	 ?comGlobalErrorProc@@YAXPADPBDH@Z ; comGlobalErrorProc
  00069	83 c4 0c	 add	 esp, 12			; 0000000cH

; 904  : 		return false;

  0006c	32 c0		 xor	 al, al
  0006e	eb 3d		 jmp	 SHORT $LN1@setLoggerD
$LN2@setLoggerD:

; 905  : 	}
; 906  : 	pLogger->clearLogFlag(IS_LOG_ENABLE);

  00070	68 00 00 08 00	 push	 524288			; 00080000H
  00075	8b 4d 08	 mov	 ecx, DWORD PTR _pLogger$[ebp]
  00078	e8 00 00 00 00	 call	 ?clearLogFlag@CLogger@@QAEXW4E_LOG_FLAG@@@Z ; CLogger::clearLogFlag

; 907  : 	STLCommand *pBuf = (STLCommand *)gs_pMMgr->newBuf(sizeof(STLCommand));

  0007d	6a 08		 push	 8
  0007f	8b 0d 00 00 00
	00		 mov	 ecx, DWORD PTR ?gs_pMMgr@@3PAVCMemManager@@A ; gs_pMMgr
  00085	e8 00 00 00 00	 call	 ?newBuf@CMemManager@@QAEPADH@Z ; CMemManager::newBuf
  0008a	89 45 f4	 mov	 DWORD PTR _pBuf$[ebp], eax

; 908  : 	pBuf->nCommandCode = eLCode_DISABLE;

  0008d	8b 4d f4	 mov	 ecx, DWORD PTR _pBuf$[ebp]
  00090	c7 01 02 00 00
	00		 mov	 DWORD PTR [ecx], 2

; 909  : 	pBuf->p = pLogger;

  00096	8b 55 f4	 mov	 edx, DWORD PTR _pBuf$[ebp]
  00099	8b 45 08	 mov	 eax, DWORD PTR _pLogger$[ebp]
  0009c	89 42 04	 mov	 DWORD PTR [edx+4], eax

; 910  : 	pWriter->pushCommand(pBuf);

  0009f	8b 4d f4	 mov	 ecx, DWORD PTR _pBuf$[ebp]
  000a2	51		 push	 ecx
  000a3	8b 4d f8	 mov	 ecx, DWORD PTR _pWriter$[ebp]
  000a6	e8 00 00 00 00	 call	 ?pushCommand@CSTLogger@@QAE_NPAUSTLCommand@@@Z ; CSTLogger::pushCommand

; 911  : 	return true;

  000ab	b0 01		 mov	 al, 1
$LN1@setLoggerD:

; 912  : }

  000ad	83 c4 0c	 add	 esp, 12			; 0000000cH
  000b0	3b ec		 cmp	 ebp, esp
  000b2	e8 00 00 00 00	 call	 __RTC_CheckEsp
  000b7	8b e5		 mov	 esp, ebp
  000b9	5d		 pop	 ebp
  000ba	c2 04 00	 ret	 4
?setLoggerDisable@CCoreList@@QAE_NPAVCLogger@@@Z ENDP	; CCoreList::setLoggerDisable
_TEXT	ENDS
; Function compile flags: /Odtp /RTCsu
; File e:\infinia-library-3.0\com\src\comcore.cpp
_TEXT	SEGMENT
_pBuf$ = -12						; size = 4
_pWriter$ = -8						; size = 4
_this$ = -4						; size = 4
_pLogger$ = 8						; size = 4
?setLoggerEnable@CCoreList@@QAE_NPAVCLogger@@@Z PROC	; CCoreList::setLoggerEnable
; _this$ = ecx

; 883  : {

  00000	55		 push	 ebp
  00001	8b ec		 mov	 ebp, esp
  00003	83 ec 0c	 sub	 esp, 12			; 0000000cH
  00006	c7 45 f4 cc cc
	cc cc		 mov	 DWORD PTR [ebp-12], -858993460 ; ccccccccH
  0000d	c7 45 f8 cc cc
	cc cc		 mov	 DWORD PTR [ebp-8], -858993460 ; ccccccccH
  00014	c7 45 fc cc cc
	cc cc		 mov	 DWORD PTR [ebp-4], -858993460 ; ccccccccH
  0001b	89 4d fc	 mov	 DWORD PTR _this$[ebp], ecx

; 884  : 	CSTLogger *pWriter = m_pWriterList->getObj(pLogger->getSTLNo());

  0001e	8b 4d 08	 mov	 ecx, DWORD PTR _pLogger$[ebp]
  00021	e8 00 00 00 00	 call	 ?getSTLNo@CLogger@@QAEHXZ ; CLogger::getSTLNo
  00026	50		 push	 eax
  00027	8b 45 fc	 mov	 eax, DWORD PTR _this$[ebp]
  0002a	8b 08		 mov	 ecx, DWORD PTR [eax]
  0002c	e8 00 00 00 00	 call	 ?getObj@?$CTList@VCSTLogger@@@@QAEPAVCSTLogger@@H@Z ; CTList<CSTLogger>::getObj
  00031	89 45 f8	 mov	 DWORD PTR _pWriter$[ebp], eax

; 885  : 	if (!pWriter) {

  00034	83 7d f8 00	 cmp	 DWORD PTR _pWriter$[ebp], 0
  00038	75 36		 jne	 SHORT $LN2@setLoggerE

; 886  : 		_stprintf(g_szMessage, _T("pWriter is NULL! pLogger[nSTLNo:%d]"), pLogger->getSTLNo());

  0003a	8b 4d 08	 mov	 ecx, DWORD PTR _pLogger$[ebp]
  0003d	e8 00 00 00 00	 call	 ?getSTLNo@CLogger@@QAEHXZ ; CLogger::getSTLNo
  00042	50		 push	 eax
  00043	68 00 00 00 00	 push	 OFFSET $SG46338
  00048	68 00 00 00 00	 push	 OFFSET ?g_szMessage@@3PADA ; g_szMessage
  0004d	e8 00 00 00 00	 call	 _sprintf
  00052	83 c4 0c	 add	 esp, 12			; 0000000cH

; 887  : 		comErrorPrint(g_szMessage);

  00055	68 77 03 00 00	 push	 887			; 00000377H
  0005a	68 00 00 00 00	 push	 OFFSET $SG46339
  0005f	68 00 00 00 00	 push	 OFFSET ?g_szMessage@@3PADA ; g_szMessage
  00064	e8 00 00 00 00	 call	 ?comGlobalErrorProc@@YAXPADPBDH@Z ; comGlobalErrorProc
  00069	83 c4 0c	 add	 esp, 12			; 0000000cH

; 888  : 		return false;

  0006c	32 c0		 xor	 al, al
  0006e	eb 3d		 jmp	 SHORT $LN1@setLoggerE
$LN2@setLoggerE:

; 889  : 	}
; 890  : 	pLogger->setLogFlag(IS_LOG_ENABLE);

  00070	68 00 00 08 00	 push	 524288			; 00080000H
  00075	8b 4d 08	 mov	 ecx, DWORD PTR _pLogger$[ebp]
  00078	e8 00 00 00 00	 call	 ?setLogFlag@CLogger@@QAEXW4E_LOG_FLAG@@@Z ; CLogger::setLogFlag

; 891  : 	STLCommand *pBuf = (STLCommand *)gs_pMMgr->newBuf(sizeof(STLCommand));

  0007d	6a 08		 push	 8
  0007f	8b 0d 00 00 00
	00		 mov	 ecx, DWORD PTR ?gs_pMMgr@@3PAVCMemManager@@A ; gs_pMMgr
  00085	e8 00 00 00 00	 call	 ?newBuf@CMemManager@@QAEPADH@Z ; CMemManager::newBuf
  0008a	89 45 f4	 mov	 DWORD PTR _pBuf$[ebp], eax

; 892  : 	pBuf->nCommandCode = eLCode_ENABLE;

  0008d	8b 4d f4	 mov	 ecx, DWORD PTR _pBuf$[ebp]
  00090	c7 01 01 00 00
	00		 mov	 DWORD PTR [ecx], 1

; 893  : 	pBuf->p = pLogger;

  00096	8b 55 f4	 mov	 edx, DWORD PTR _pBuf$[ebp]
  00099	8b 45 08	 mov	 eax, DWORD PTR _pLogger$[ebp]
  0009c	89 42 04	 mov	 DWORD PTR [edx+4], eax

; 894  : 	pWriter->pushCommand(pBuf);

  0009f	8b 4d f4	 mov	 ecx, DWORD PTR _pBuf$[ebp]
  000a2	51		 push	 ecx
  000a3	8b 4d f8	 mov	 ecx, DWORD PTR _pWriter$[ebp]
  000a6	e8 00 00 00 00	 call	 ?pushCommand@CSTLogger@@QAE_NPAUSTLCommand@@@Z ; CSTLogger::pushCommand

; 895  : 	return true;

  000ab	b0 01		 mov	 al, 1
$LN1@setLoggerE:

; 896  : }

  000ad	83 c4 0c	 add	 esp, 12			; 0000000cH
  000b0	3b ec		 cmp	 ebp, esp
  000b2	e8 00 00 00 00	 call	 __RTC_CheckEsp
  000b7	8b e5		 mov	 esp, ebp
  000b9	5d		 pop	 ebp
  000ba	c2 04 00	 ret	 4
?setLoggerEnable@CCoreList@@QAE_NPAVCLogger@@@Z ENDP	; CCoreList::setLoggerEnable
_TEXT	ENDS
; Function compile flags: /Odtp /RTCsu
; File e:\infinia-library-3.0\com\src\comcore.cpp
_TEXT	SEGMENT
_pWriter$ = -8						; size = 4
_this$ = -4						; size = 4
_pLogger$ = 8						; size = 4
?initLogger@CCoreList@@QAE_NPAVCLogger@@@Z PROC		; CCoreList::initLogger
; _this$ = ecx

; 863  : {

  00000	55		 push	 ebp
  00001	8b ec		 mov	 ebp, esp
  00003	83 ec 08	 sub	 esp, 8
  00006	c7 45 f8 cc cc
	cc cc		 mov	 DWORD PTR [ebp-8], -858993460 ; ccccccccH
  0000d	c7 45 fc cc cc
	cc cc		 mov	 DWORD PTR [ebp-4], -858993460 ; ccccccccH
  00014	89 4d fc	 mov	 DWORD PTR _this$[ebp], ecx

; 864  : 	if (!pLogger) {

  00017	83 7d 08 00	 cmp	 DWORD PTR _pLogger$[ebp], 0
  0001b	75 1b		 jne	 SHORT $LN2@initLogger

; 865  : 		comErrorPrint(g_szMessage);

  0001d	68 61 03 00 00	 push	 865			; 00000361H
  00022	68 00 00 00 00	 push	 OFFSET $SG46325
  00027	68 00 00 00 00	 push	 OFFSET ?g_szMessage@@3PADA ; g_szMessage
  0002c	e8 00 00 00 00	 call	 ?comGlobalErrorProc@@YAXPADPBDH@Z ; comGlobalErrorProc
  00031	83 c4 0c	 add	 esp, 12			; 0000000cH

; 866  : 		return false;

  00034	32 c0		 xor	 al, al
  00036	eb 60		 jmp	 SHORT $LN1@initLogger
$LN2@initLogger:

; 867  : 	}
; 868  : 
; 869  : 	CSTLogger *pWriter = m_pWriterList->getObj(pLogger->getSTLNo());

  00038	8b 4d 08	 mov	 ecx, DWORD PTR _pLogger$[ebp]
  0003b	e8 00 00 00 00	 call	 ?getSTLNo@CLogger@@QAEHXZ ; CLogger::getSTLNo
  00040	50		 push	 eax
  00041	8b 45 fc	 mov	 eax, DWORD PTR _this$[ebp]
  00044	8b 08		 mov	 ecx, DWORD PTR [eax]
  00046	e8 00 00 00 00	 call	 ?getObj@?$CTList@VCSTLogger@@@@QAEPAVCSTLogger@@H@Z ; CTList<CSTLogger>::getObj
  0004b	89 45 f8	 mov	 DWORD PTR _pWriter$[ebp], eax

; 870  : 	if (!pWriter) {

  0004e	83 7d f8 00	 cmp	 DWORD PTR _pWriter$[ebp], 0
  00052	75 36		 jne	 SHORT $LN3@initLogger

; 871  : 		_stprintf(g_szMessage, _T("pWriter is NULL!!![nSTLNo:%d]\n"), pLogger->getSTLNo());

  00054	8b 4d 08	 mov	 ecx, DWORD PTR _pLogger$[ebp]
  00057	e8 00 00 00 00	 call	 ?getSTLNo@CLogger@@QAEHXZ ; CLogger::getSTLNo
  0005c	50		 push	 eax
  0005d	68 00 00 00 00	 push	 OFFSET $SG46327
  00062	68 00 00 00 00	 push	 OFFSET ?g_szMessage@@3PADA ; g_szMessage
  00067	e8 00 00 00 00	 call	 _sprintf
  0006c	83 c4 0c	 add	 esp, 12			; 0000000cH

; 872  : 		comErrorPrint(g_szMessage);

  0006f	68 68 03 00 00	 push	 872			; 00000368H
  00074	68 00 00 00 00	 push	 OFFSET $SG46328
  00079	68 00 00 00 00	 push	 OFFSET ?g_szMessage@@3PADA ; g_szMessage
  0007e	e8 00 00 00 00	 call	 ?comGlobalErrorProc@@YAXPADPBDH@Z ; comGlobalErrorProc
  00083	83 c4 0c	 add	 esp, 12			; 0000000cH

; 873  : 		return false;

  00086	32 c0		 xor	 al, al
  00088	eb 0e		 jmp	 SHORT $LN1@initLogger
$LN3@initLogger:

; 874  : 	}
; 875  : 
; 876  : 	pWriter->procLoggerEnable(pLogger);

  0008a	8b 4d 08	 mov	 ecx, DWORD PTR _pLogger$[ebp]
  0008d	51		 push	 ecx
  0008e	8b 4d f8	 mov	 ecx, DWORD PTR _pWriter$[ebp]
  00091	e8 00 00 00 00	 call	 ?procLoggerEnable@CSTLogger@@QAEXPAVCLogger@@@Z ; CSTLogger::procLoggerEnable

; 877  : 
; 878  : 	return true;

  00096	b0 01		 mov	 al, 1
$LN1@initLogger:

; 879  : }

  00098	83 c4 08	 add	 esp, 8
  0009b	3b ec		 cmp	 ebp, esp
  0009d	e8 00 00 00 00	 call	 __RTC_CheckEsp
  000a2	8b e5		 mov	 esp, ebp
  000a4	5d		 pop	 ebp
  000a5	c2 04 00	 ret	 4
?initLogger@CCoreList@@QAE_NPAVCLogger@@@Z ENDP		; CCoreList::initLogger
_TEXT	ENDS
; Function compile flags: /Odtp /RTCsu
; File e:\infinia-library-3.0\com\src\comcore.cpp
_TEXT	SEGMENT
tv76 = -16						; size = 4
_pWriter$1 = -12					; size = 4
_eRes$ = -8						; size = 4
_this$ = -4						; size = 4
_pLogger$ = 8						; size = 4
_pConfig$ = 12						; size = 4
_pSection$ = 16						; size = 4
?initLogger@CCoreList@@QAE_NPAVCLogger@@PAD1@Z PROC	; CCoreList::initLogger
; _this$ = ecx

; 829  : {

  00000	55		 push	 ebp
  00001	8b ec		 mov	 ebp, esp
  00003	83 ec 10	 sub	 esp, 16			; 00000010H
  00006	b8 cc cc cc cc	 mov	 eax, -858993460		; ccccccccH
  0000b	89 45 f0	 mov	 DWORD PTR [ebp-16], eax
  0000e	89 45 f4	 mov	 DWORD PTR [ebp-12], eax
  00011	89 45 f8	 mov	 DWORD PTR [ebp-8], eax
  00014	89 45 fc	 mov	 DWORD PTR [ebp-4], eax
  00017	89 4d fc	 mov	 DWORD PTR _this$[ebp], ecx

; 830  : 	E_LOG_INIT_RES eRes;
; 831  : 	if (!pLogger) {

  0001a	83 7d 08 00	 cmp	 DWORD PTR _pLogger$[ebp], 0
  0001e	75 38		 jne	 SHORT $LN4@initLogger

; 832  : 		_stprintf(g_szMessage, _T("pLogger is NULL! [%s:%s]"), pConfig, pSection);

  00020	8b 45 10	 mov	 eax, DWORD PTR _pSection$[ebp]
  00023	50		 push	 eax
  00024	8b 4d 0c	 mov	 ecx, DWORD PTR _pConfig$[ebp]
  00027	51		 push	 ecx
  00028	68 00 00 00 00	 push	 OFFSET $SG46309
  0002d	68 00 00 00 00	 push	 OFFSET ?g_szMessage@@3PADA ; g_szMessage
  00032	e8 00 00 00 00	 call	 _sprintf
  00037	83 c4 10	 add	 esp, 16			; 00000010H

; 833  : 		comErrorPrint(g_szMessage);

  0003a	68 41 03 00 00	 push	 833			; 00000341H
  0003f	68 00 00 00 00	 push	 OFFSET $SG46310
  00044	68 00 00 00 00	 push	 OFFSET ?g_szMessage@@3PADA ; g_szMessage
  00049	e8 00 00 00 00	 call	 ?comGlobalErrorProc@@YAXPADPBDH@Z ; comGlobalErrorProc
  0004e	83 c4 0c	 add	 esp, 12			; 0000000cH

; 834  : 		return false;

  00051	32 c0		 xor	 al, al
  00053	e9 da 00 00 00	 jmp	 $LN1@initLogger
$LN4@initLogger:

; 835  : 	}
; 836  : 	eRes = pLogger->initConfig(pConfig, pSection);

  00058	8b 55 10	 mov	 edx, DWORD PTR _pSection$[ebp]
  0005b	52		 push	 edx
  0005c	8b 45 0c	 mov	 eax, DWORD PTR _pConfig$[ebp]
  0005f	50		 push	 eax
  00060	8b 4d 08	 mov	 ecx, DWORD PTR _pLogger$[ebp]
  00063	e8 00 00 00 00	 call	 ?initConfig@CLogger@@QAE?AW4E_LOG_INIT_RES@@PAD0@Z ; CLogger::initConfig
  00068	89 45 f8	 mov	 DWORD PTR _eRes$[ebp], eax

; 837  : 
; 838  : 	switch (eRes) {

  0006b	8b 4d f8	 mov	 ecx, DWORD PTR _eRes$[ebp]
  0006e	89 4d f0	 mov	 DWORD PTR tv76[ebp], ecx
  00071	8b 55 f0	 mov	 edx, DWORD PTR tv76[ebp]
  00074	83 c2 01	 add	 edx, 1
  00077	89 55 f0	 mov	 DWORD PTR tv76[ebp], edx
  0007a	83 7d f0 03	 cmp	 DWORD PTR tv76[ebp], 3
  0007e	0f 87 ac 00 00
	00		 ja	 $LN2@initLogger
  00084	8b 45 f0	 mov	 eax, DWORD PTR tv76[ebp]
  00087	ff 24 85 00 00
	00 00		 jmp	 DWORD PTR $LN10@initLogger[eax*4]
$LN5@initLogger:

; 839  : 		case LOG_INIT_CHANGED_SUCCESS: 
; 840  : 		case LOG_INIT_NO_FILE: return true;

  0008e	b0 01		 mov	 al, 1
  00090	e9 9d 00 00 00	 jmp	 $LN1@initLogger
$LN6@initLogger:

; 841  : 		case LOG_INIT_ERROR:
; 842  : 		{
; 843  : 			_stprintf(g_szMessage, _T("pLogger->initConfig has Failed!!![%s:%s]"), pConfig, pSection);

  00095	8b 4d 10	 mov	 ecx, DWORD PTR _pSection$[ebp]
  00098	51		 push	 ecx
  00099	8b 55 0c	 mov	 edx, DWORD PTR _pConfig$[ebp]
  0009c	52		 push	 edx
  0009d	68 00 00 00 00	 push	 OFFSET $SG46313
  000a2	68 00 00 00 00	 push	 OFFSET ?g_szMessage@@3PADA ; g_szMessage
  000a7	e8 00 00 00 00	 call	 _sprintf
  000ac	83 c4 10	 add	 esp, 16			; 00000010H

; 844  : 			comErrorPrint(g_szMessage);

  000af	68 4c 03 00 00	 push	 844			; 0000034cH
  000b4	68 00 00 00 00	 push	 OFFSET $SG46314
  000b9	68 00 00 00 00	 push	 OFFSET ?g_szMessage@@3PADA ; g_szMessage
  000be	e8 00 00 00 00	 call	 ?comGlobalErrorProc@@YAXPADPBDH@Z ; comGlobalErrorProc
  000c3	83 c4 0c	 add	 esp, 12			; 0000000cH

; 845  : 			return false;

  000c6	32 c0		 xor	 al, al
  000c8	eb 68		 jmp	 SHORT $LN1@initLogger
$LN7@initLogger:

; 846  : 		}
; 847  : 		case LOG_INIT_SUCCESS: 
; 848  : 		{
; 849  : 			CSTLogger *pWriter = m_pWriterList->getObj(pLogger->getSTLNo());

  000ca	8b 4d 08	 mov	 ecx, DWORD PTR _pLogger$[ebp]
  000cd	e8 00 00 00 00	 call	 ?getSTLNo@CLogger@@QAEHXZ ; CLogger::getSTLNo
  000d2	50		 push	 eax
  000d3	8b 45 fc	 mov	 eax, DWORD PTR _this$[ebp]
  000d6	8b 08		 mov	 ecx, DWORD PTR [eax]
  000d8	e8 00 00 00 00	 call	 ?getObj@?$CTList@VCSTLogger@@@@QAEPAVCSTLogger@@H@Z ; CTList<CSTLogger>::getObj
  000dd	89 45 f4	 mov	 DWORD PTR _pWriter$1[ebp], eax

; 850  : 			if (!pWriter) {

  000e0	83 7d f4 00	 cmp	 DWORD PTR _pWriter$1[ebp], 0
  000e4	75 3e		 jne	 SHORT $LN8@initLogger

; 851  : 				_stprintf(g_szMessage, _T("pWriter is NULL!!![%s:%s] [nSTLNo:%d]"), pConfig, pSection, pLogger->getSTLNo());

  000e6	8b 4d 08	 mov	 ecx, DWORD PTR _pLogger$[ebp]
  000e9	e8 00 00 00 00	 call	 ?getSTLNo@CLogger@@QAEHXZ ; CLogger::getSTLNo
  000ee	50		 push	 eax
  000ef	8b 4d 10	 mov	 ecx, DWORD PTR _pSection$[ebp]
  000f2	51		 push	 ecx
  000f3	8b 55 0c	 mov	 edx, DWORD PTR _pConfig$[ebp]
  000f6	52		 push	 edx
  000f7	68 00 00 00 00	 push	 OFFSET $SG46317
  000fc	68 00 00 00 00	 push	 OFFSET ?g_szMessage@@3PADA ; g_szMessage
  00101	e8 00 00 00 00	 call	 _sprintf
  00106	83 c4 14	 add	 esp, 20			; 00000014H

; 852  : 				comErrorPrint(g_szMessage);

  00109	68 54 03 00 00	 push	 852			; 00000354H
  0010e	68 00 00 00 00	 push	 OFFSET $SG46318
  00113	68 00 00 00 00	 push	 OFFSET ?g_szMessage@@3PADA ; g_szMessage
  00118	e8 00 00 00 00	 call	 ?comGlobalErrorProc@@YAXPADPBDH@Z ; comGlobalErrorProc
  0011d	83 c4 0c	 add	 esp, 12			; 0000000cH

; 853  : 				return false;

  00120	32 c0		 xor	 al, al
  00122	eb 0e		 jmp	 SHORT $LN1@initLogger
$LN8@initLogger:

; 854  : 			}
; 855  : 			pWriter->procLoggerEnable(pLogger);

  00124	8b 45 08	 mov	 eax, DWORD PTR _pLogger$[ebp]
  00127	50		 push	 eax
  00128	8b 4d f4	 mov	 ecx, DWORD PTR _pWriter$1[ebp]
  0012b	e8 00 00 00 00	 call	 ?procLoggerEnable@CSTLogger@@QAEXPAVCLogger@@@Z ; CSTLogger::procLoggerEnable
$LN2@initLogger:

; 856  : 		}
; 857  : 		break;
; 858  : 	}
; 859  : 	return true;

  00130	b0 01		 mov	 al, 1
$LN1@initLogger:

; 860  : }

  00132	83 c4 10	 add	 esp, 16			; 00000010H
  00135	3b ec		 cmp	 ebp, esp
  00137	e8 00 00 00 00	 call	 __RTC_CheckEsp
  0013c	8b e5		 mov	 esp, ebp
  0013e	5d		 pop	 ebp
  0013f	c2 0c 00	 ret	 12			; 0000000cH
  00142	66 90		 npad	 2
$LN10@initLogger:
  00144	00 00 00 00	 DD	 $LN6@initLogger
  00148	00 00 00 00	 DD	 $LN5@initLogger
  0014c	00 00 00 00	 DD	 $LN7@initLogger
  00150	00 00 00 00	 DD	 $LN5@initLogger
?initLogger@CCoreList@@QAE_NPAVCLogger@@PAD1@Z ENDP	; CCoreList::initLogger
_TEXT	ENDS
; Function compile flags: /Odtp /RTCsu
; File e:\infinia-library-3.0\com\src\comcore.cpp
_TEXT	SEGMENT
_szConf$ = -108						; size = 88
_nVal$ = -16						; size = 4
_i$ = -12						; size = 4
_this$ = -8						; size = 4
__$ArrayPad$ = -4					; size = 4
_nCnt_IdxBuf2$ = 8					; size = 4
_nCnt_IdxBuf32$ = 12					; size = 4
_nCnt_IdxBuf_1m$ = 16					; size = 4
?initDefaultPool@CCoreList@@QAE_NHHH@Z PROC		; CCoreList::initDefaultPool
; _this$ = ecx

; 595  : {

  00000	55		 push	 ebp
  00001	8b ec		 mov	 ebp, esp
  00003	83 ec 70	 sub	 esp, 112		; 00000070H
  00006	57		 push	 edi
  00007	51		 push	 ecx
  00008	8d 7d 90	 lea	 edi, DWORD PTR [ebp-112]
  0000b	b9 1c 00 00 00	 mov	 ecx, 28			; 0000001cH
  00010	b8 cc cc cc cc	 mov	 eax, -858993460		; ccccccccH
  00015	f3 ab		 rep stosd
  00017	59		 pop	 ecx
  00018	a1 00 00 00 00	 mov	 eax, DWORD PTR ___security_cookie
  0001d	33 c5		 xor	 eax, ebp
  0001f	89 45 fc	 mov	 DWORD PTR __$ArrayPad$[ebp], eax
  00022	89 4d f8	 mov	 DWORD PTR _this$[ebp], ecx

; 596  : 	int i, nVal;
; 597  : 
; 598  : 	STBufConf szConf;
; 599  : 	memset(&szConf, 0, sizeof(STBufConf));

  00025	6a 58		 push	 88			; 00000058H
  00027	6a 00		 push	 0
  00029	8d 45 94	 lea	 eax, DWORD PTR _szConf$[ebp]
  0002c	50		 push	 eax
  0002d	e8 00 00 00 00	 call	 _memset
  00032	83 c4 0c	 add	 esp, 12			; 0000000cH

; 600  : 
; 601  : 	szConf.nMaxList[IDX_BUF_2] = nCnt_IdxBuf2;

  00035	b9 04 00 00 00	 mov	 ecx, 4
  0003a	c1 e1 00	 shl	 ecx, 0
  0003d	8b 55 08	 mov	 edx, DWORD PTR _nCnt_IdxBuf2$[ebp]
  00040	89 54 0d 94	 mov	 DWORD PTR _szConf$[ebp+ecx], edx

; 602  : 	
; 603  : 	nVal = nCnt_IdxBuf32 << 2;

  00044	8b 45 0c	 mov	 eax, DWORD PTR _nCnt_IdxBuf32$[ebp]
  00047	c1 e0 02	 shl	 eax, 2
  0004a	89 45 f0	 mov	 DWORD PTR _nVal$[ebp], eax

; 604  : 	for (i = IDX_BUF_4; i < IDX_BUF_256; i++)

  0004d	c7 45 f4 02 00
	00 00		 mov	 DWORD PTR _i$[ebp], 2
  00054	eb 09		 jmp	 SHORT $LN4@initDefaul
$LN2@initDefaul:
  00056	8b 4d f4	 mov	 ecx, DWORD PTR _i$[ebp]
  00059	83 c1 01	 add	 ecx, 1
  0005c	89 4d f4	 mov	 DWORD PTR _i$[ebp], ecx
$LN4@initDefaul:
  0005f	83 7d f4 08	 cmp	 DWORD PTR _i$[ebp], 8
  00063	7d 12		 jge	 SHORT $LN3@initDefaul

; 605  : 	{
; 606  : 		szConf.nMaxList[i] = nVal + 1024;

  00065	8b 55 f0	 mov	 edx, DWORD PTR _nVal$[ebp]
  00068	81 c2 00 04 00
	00		 add	 edx, 1024		; 00000400H
  0006e	8b 45 f4	 mov	 eax, DWORD PTR _i$[ebp]
  00071	89 54 85 94	 mov	 DWORD PTR _szConf$[ebp+eax*4], edx

; 607  : 	}

  00075	eb df		 jmp	 SHORT $LN2@initDefaul
$LN3@initDefaul:

; 608  : 
; 609  : 	for (i = IDX_BUF_256; i < IDX_BUF_1k; i++)

  00077	c7 45 f4 08 00
	00 00		 mov	 DWORD PTR _i$[ebp], 8
  0007e	eb 09		 jmp	 SHORT $LN7@initDefaul
$LN5@initDefaul:
  00080	8b 4d f4	 mov	 ecx, DWORD PTR _i$[ebp]
  00083	83 c1 01	 add	 ecx, 1
  00086	89 4d f4	 mov	 DWORD PTR _i$[ebp], ecx
$LN7@initDefaul:
  00089	83 7d f4 0a	 cmp	 DWORD PTR _i$[ebp], 10	; 0000000aH
  0008d	7d 0f		 jge	 SHORT $LN6@initDefaul

; 610  : 	{
; 611  : 		szConf.nMaxList[i] = nCnt_IdxBuf32 + 64;

  0008f	8b 55 0c	 mov	 edx, DWORD PTR _nCnt_IdxBuf32$[ebp]
  00092	83 c2 40	 add	 edx, 64			; 00000040H
  00095	8b 45 f4	 mov	 eax, DWORD PTR _i$[ebp]
  00098	89 54 85 94	 mov	 DWORD PTR _szConf$[ebp+eax*4], edx

; 612  : 	}

  0009c	eb e2		 jmp	 SHORT $LN5@initDefaul
$LN6@initDefaul:

; 613  : 
; 614  : 	nVal = nCnt_IdxBuf32 >> 2;

  0009e	8b 4d 0c	 mov	 ecx, DWORD PTR _nCnt_IdxBuf32$[ebp]
  000a1	c1 f9 02	 sar	 ecx, 2
  000a4	89 4d f0	 mov	 DWORD PTR _nVal$[ebp], ecx

; 615  : 	for (i = IDX_BUF_1k; i < IDX_BUF_64k; i++)

  000a7	c7 45 f4 0a 00
	00 00		 mov	 DWORD PTR _i$[ebp], 10	; 0000000aH
  000ae	eb 09		 jmp	 SHORT $LN10@initDefaul
$LN8@initDefaul:
  000b0	8b 55 f4	 mov	 edx, DWORD PTR _i$[ebp]
  000b3	83 c2 01	 add	 edx, 1
  000b6	89 55 f4	 mov	 DWORD PTR _i$[ebp], edx
$LN10@initDefaul:
  000b9	83 7d f4 10	 cmp	 DWORD PTR _i$[ebp], 16	; 00000010H
  000bd	7d 0f		 jge	 SHORT $LN9@initDefaul

; 616  : 	{
; 617  : 		szConf.nMaxList[i] = nVal + 4;

  000bf	8b 45 f0	 mov	 eax, DWORD PTR _nVal$[ebp]
  000c2	83 c0 04	 add	 eax, 4
  000c5	8b 4d f4	 mov	 ecx, DWORD PTR _i$[ebp]
  000c8	89 44 8d 94	 mov	 DWORD PTR _szConf$[ebp+ecx*4], eax

; 618  : 	}

  000cc	eb e2		 jmp	 SHORT $LN8@initDefaul
$LN9@initDefaul:

; 619  : 	//6(64K)
; 620  : 	for (i = IDX_BUF_64k; i < IDX_BUF_512k; i++)

  000ce	c7 45 f4 10 00
	00 00		 mov	 DWORD PTR _i$[ebp], 16	; 00000010H
  000d5	eb 09		 jmp	 SHORT $LN13@initDefaul
$LN11@initDefaul:
  000d7	8b 55 f4	 mov	 edx, DWORD PTR _i$[ebp]
  000da	83 c2 01	 add	 edx, 1
  000dd	89 55 f4	 mov	 DWORD PTR _i$[ebp], edx
$LN13@initDefaul:
  000e0	83 7d f4 13	 cmp	 DWORD PTR _i$[ebp], 19	; 00000013H
  000e4	7d 0f		 jge	 SHORT $LN12@initDefaul

; 621  : 	{
; 622  : 		szConf.nMaxList[i] = nVal + 2;

  000e6	8b 45 f0	 mov	 eax, DWORD PTR _nVal$[ebp]
  000e9	83 c0 02	 add	 eax, 2
  000ec	8b 4d f4	 mov	 ecx, DWORD PTR _i$[ebp]
  000ef	89 44 8d 94	 mov	 DWORD PTR _szConf$[ebp+ecx*4], eax

; 623  : 	}

  000f3	eb e2		 jmp	 SHORT $LN11@initDefaul
$LN12@initDefaul:

; 624  : 	//9(512K)
; 625  : 	nVal = nCnt_IdxBuf32 >> 8;

  000f5	8b 55 0c	 mov	 edx, DWORD PTR _nCnt_IdxBuf32$[ebp]
  000f8	c1 fa 08	 sar	 edx, 8
  000fb	89 55 f0	 mov	 DWORD PTR _nVal$[ebp], edx

; 626  : 	szConf.nMaxList[IDX_BUF_512k] = nVal;

  000fe	b8 04 00 00 00	 mov	 eax, 4
  00103	6b c8 13	 imul	 ecx, eax, 19
  00106	8b 55 f0	 mov	 edx, DWORD PTR _nVal$[ebp]
  00109	89 54 0d 94	 mov	 DWORD PTR _szConf$[ebp+ecx], edx

; 627  : 	szConf.nMaxList[IDX_BUF_1m] = nCnt_IdxBuf_1m;

  0010d	b8 04 00 00 00	 mov	 eax, 4
  00112	6b c8 14	 imul	 ecx, eax, 20
  00115	8b 55 10	 mov	 edx, DWORD PTR _nCnt_IdxBuf_1m$[ebp]
  00118	89 54 0d 94	 mov	 DWORD PTR _szConf$[ebp+ecx], edx

; 628  : 	szConf.nMaxList[IDX_BUF_2m] = nCnt_IdxBuf_1m;

  0011c	b8 04 00 00 00	 mov	 eax, 4
  00121	6b c8 15	 imul	 ecx, eax, 21
  00124	8b 55 10	 mov	 edx, DWORD PTR _nCnt_IdxBuf_1m$[ebp]
  00127	89 54 0d 94	 mov	 DWORD PTR _szConf$[ebp+ecx], edx

; 629  : 
; 630  : 	gs_pMMgr->init(&szConf);

  0012b	8d 45 94	 lea	 eax, DWORD PTR _szConf$[ebp]
  0012e	50		 push	 eax
  0012f	8b 0d 00 00 00
	00		 mov	 ecx, DWORD PTR ?gs_pMMgr@@3PAVCMemManager@@A ; gs_pMMgr
  00135	e8 00 00 00 00	 call	 ?init@CMemManager@@QAEXPAUSTBufConf@@@Z ; CMemManager::init

; 631  : 	if (!gs_pMMgr->alloc()) {

  0013a	8b 0d 00 00 00
	00		 mov	 ecx, DWORD PTR ?gs_pMMgr@@3PAVCMemManager@@A ; gs_pMMgr
  00140	e8 00 00 00 00	 call	 ?alloc@CMemManager@@QAE_NXZ ; CMemManager::alloc
  00145	0f b6 c8	 movzx	 ecx, al
  00148	85 c9		 test	 ecx, ecx
  0014a	75 1b		 jne	 SHORT $LN14@initDefaul

; 632  : 		comErrorPrint("gs_pMMgr->alloc() has Failed!!!");

  0014c	68 78 02 00 00	 push	 632			; 00000278H
  00151	68 00 00 00 00	 push	 OFFSET $SG46093
  00156	68 00 00 00 00	 push	 OFFSET $SG46094
  0015b	e8 00 00 00 00	 call	 ?comGlobalErrorProc@@YAXPADPBDH@Z ; comGlobalErrorProc
  00160	83 c4 0c	 add	 esp, 12			; 0000000cH

; 633  : 		return false;

  00163	32 c0		 xor	 al, al
  00165	eb 02		 jmp	 SHORT $LN1@initDefaul
$LN14@initDefaul:

; 634  : 	}
; 635  : 
; 636  : 	return true;

  00167	b0 01		 mov	 al, 1
$LN1@initDefaul:

; 637  : }

  00169	52		 push	 edx
  0016a	8b cd		 mov	 ecx, ebp
  0016c	50		 push	 eax
  0016d	8d 15 00 00 00
	00		 lea	 edx, DWORD PTR $LN18@initDefaul
  00173	e8 00 00 00 00	 call	 @_RTC_CheckStackVars@8
  00178	58		 pop	 eax
  00179	5a		 pop	 edx
  0017a	5f		 pop	 edi
  0017b	8b 4d fc	 mov	 ecx, DWORD PTR __$ArrayPad$[ebp]
  0017e	33 cd		 xor	 ecx, ebp
  00180	e8 00 00 00 00	 call	 @__security_check_cookie@4
  00185	83 c4 70	 add	 esp, 112		; 00000070H
  00188	3b ec		 cmp	 ebp, esp
  0018a	e8 00 00 00 00	 call	 __RTC_CheckEsp
  0018f	8b e5		 mov	 esp, ebp
  00191	5d		 pop	 ebp
  00192	c2 0c 00	 ret	 12			; 0000000cH
  00195	0f 1f 00	 npad	 3
$LN18@initDefaul:
  00198	01 00 00 00	 DD	 1
  0019c	00 00 00 00	 DD	 $LN17@initDefaul
$LN17@initDefaul:
  001a0	94 ff ff ff	 DD	 -108			; ffffff94H
  001a4	58 00 00 00	 DD	 88			; 00000058H
  001a8	00 00 00 00	 DD	 $LN16@initDefaul
$LN16@initDefaul:
  001ac	73		 DB	 115			; 00000073H
  001ad	7a		 DB	 122			; 0000007aH
  001ae	43		 DB	 67			; 00000043H
  001af	6f		 DB	 111			; 0000006fH
  001b0	6e		 DB	 110			; 0000006eH
  001b1	66		 DB	 102			; 00000066H
  001b2	00		 DB	 0
?initDefaultPool@CCoreList@@QAE_NHHH@Z ENDP		; CCoreList::initDefaultPool
_TEXT	ENDS
; Function compile flags: /Odtp /RTCsu
; File e:\infinia-library-3.0\com\src\comcore.cpp
_TEXT	SEGMENT
_szKey$ = -156						; size = 36
_szConf$ = -112						; size = 88
_nShift$ = -20						; size = 4
_nVal$ = -16						; size = 4
_i$ = -12						; size = 4
_this$ = -8						; size = 4
__$ArrayPad$ = -4					; size = 4
?initSystemFile@CCoreList@@QAE_NXZ PROC			; CCoreList::initSystemFile
; _this$ = ecx

; 523  : {

  00000	55		 push	 ebp
  00001	8b ec		 mov	 ebp, esp
  00003	81 ec a0 00 00
	00		 sub	 esp, 160		; 000000a0H
  00009	56		 push	 esi
  0000a	57		 push	 edi
  0000b	51		 push	 ecx
  0000c	8d bd 60 ff ff
	ff		 lea	 edi, DWORD PTR [ebp-160]
  00012	b9 28 00 00 00	 mov	 ecx, 40			; 00000028H
  00017	b8 cc cc cc cc	 mov	 eax, -858993460		; ccccccccH
  0001c	f3 ab		 rep stosd
  0001e	59		 pop	 ecx
  0001f	a1 00 00 00 00	 mov	 eax, DWORD PTR ___security_cookie
  00024	33 c5		 xor	 eax, ebp
  00026	89 45 fc	 mov	 DWORD PTR __$ArrayPad$[ebp], eax
  00029	89 4d f8	 mov	 DWORD PTR _this$[ebp], ecx

; 524  : 	int i, nVal, nShift;
; 525  : 	if (!CEnv::initSystem()) return false;

  0002c	6a 00		 push	 0
  0002e	e8 00 00 00 00	 call	 ?initSystem@CEnv@@SAHPAD@Z ; CEnv::initSystem
  00033	83 c4 04	 add	 esp, 4
  00036	85 c0		 test	 eax, eax
  00038	75 07		 jne	 SHORT $LN14@initSystem
  0003a	32 c0		 xor	 al, al
  0003c	e9 fa 03 00 00	 jmp	 $LN1@initSystem
$LN14@initSystem:

; 526  : 
; 527  : 	STBufConf szConf;
; 528  : 	TCHAR szKey[36];
; 529  : 	memset(&szConf, 0, sizeof(STBufConf));

  00041	6a 58		 push	 88			; 00000058H
  00043	6a 00		 push	 0
  00045	8d 45 90	 lea	 eax, DWORD PTR _szConf$[ebp]
  00048	50		 push	 eax
  00049	e8 00 00 00 00	 call	 _memset
  0004e	83 c4 0c	 add	 esp, 12			; 0000000cH

; 530  : 
; 531  : 	nVal = GetPrivateProfileInt(_T("MPOOL"), _T("IDX_BUF_32"), 0, g_pSystem);

  00051	8b f4		 mov	 esi, esp
  00053	8b 0d 00 00 00
	00		 mov	 ecx, DWORD PTR ?g_pSystem@@3PADA ; g_pSystem
  00059	51		 push	 ecx
  0005a	6a 00		 push	 0
  0005c	68 00 00 00 00	 push	 OFFSET $SG46032
  00061	68 00 00 00 00	 push	 OFFSET $SG46033
  00066	ff 15 00 00 00
	00		 call	 DWORD PTR __imp__GetPrivateProfileIntA@16
  0006c	3b f4		 cmp	 esi, esp
  0006e	e8 00 00 00 00	 call	 __RTC_CheckEsp
  00073	89 45 f0	 mov	 DWORD PTR _nVal$[ebp], eax

; 532  : 	if (!nVal) goto INIT_THREAD;

  00076	83 7d f0 00	 cmp	 DWORD PTR _nVal$[ebp], 0
  0007a	75 0a		 jne	 SHORT $LN15@initSystem
  0007c	e9 c5 02 00 00	 jmp	 $INIT_THREAD$29
  00081	e9 c0 02 00 00	 jmp	 $INIT_THREAD$29
$LN15@initSystem:

; 533  : 	
; 534  : 	szConf.nMaxList[IDX_BUF_2] = GetPrivateProfileInt(_T("MPOOL"), _T("IDX_BUF_2"), 0, g_pSystem);

  00086	8b f4		 mov	 esi, esp
  00088	8b 15 00 00 00
	00		 mov	 edx, DWORD PTR ?g_pSystem@@3PADA ; g_pSystem
  0008e	52		 push	 edx
  0008f	6a 00		 push	 0
  00091	68 00 00 00 00	 push	 OFFSET $SG46036
  00096	68 00 00 00 00	 push	 OFFSET $SG46037
  0009b	ff 15 00 00 00
	00		 call	 DWORD PTR __imp__GetPrivateProfileIntA@16
  000a1	3b f4		 cmp	 esi, esp
  000a3	e8 00 00 00 00	 call	 __RTC_CheckEsp
  000a8	b9 04 00 00 00	 mov	 ecx, 4
  000ad	c1 e1 00	 shl	 ecx, 0
  000b0	89 44 0d 90	 mov	 DWORD PTR _szConf$[ebp+ecx], eax

; 535  : 	
; 536  : 	for (i = IDX_BUF_4; i < IDX_BUF_256; i++)

  000b4	c7 45 f4 02 00
	00 00		 mov	 DWORD PTR _i$[ebp], 2
  000bb	eb 09		 jmp	 SHORT $LN4@initSystem
$LN2@initSystem:
  000bd	8b 55 f4	 mov	 edx, DWORD PTR _i$[ebp]
  000c0	83 c2 01	 add	 edx, 1
  000c3	89 55 f4	 mov	 DWORD PTR _i$[ebp], edx
$LN4@initSystem:
  000c6	83 7d f4 08	 cmp	 DWORD PTR _i$[ebp], 8
  000ca	7d 51		 jge	 SHORT $LN3@initSystem

; 537  : 	{
; 538  : 		_stprintf(szKey, _T("IDX_BUF_%d"), 1 << i);

  000cc	b8 01 00 00 00	 mov	 eax, 1
  000d1	8b 4d f4	 mov	 ecx, DWORD PTR _i$[ebp]
  000d4	d3 e0		 shl	 eax, cl
  000d6	50		 push	 eax
  000d7	68 00 00 00 00	 push	 OFFSET $SG46038
  000dc	8d 8d 64 ff ff
	ff		 lea	 ecx, DWORD PTR _szKey$[ebp]
  000e2	51		 push	 ecx
  000e3	e8 00 00 00 00	 call	 _sprintf
  000e8	83 c4 0c	 add	 esp, 12			; 0000000cH

; 539  : 		szConf.nMaxList[i] = GetPrivateProfileInt(_T("MPOOL"), szKey, 0, g_pSystem) + 256;

  000eb	8b f4		 mov	 esi, esp
  000ed	8b 15 00 00 00
	00		 mov	 edx, DWORD PTR ?g_pSystem@@3PADA ; g_pSystem
  000f3	52		 push	 edx
  000f4	6a 00		 push	 0
  000f6	8d 85 64 ff ff
	ff		 lea	 eax, DWORD PTR _szKey$[ebp]
  000fc	50		 push	 eax
  000fd	68 00 00 00 00	 push	 OFFSET $SG46039
  00102	ff 15 00 00 00
	00		 call	 DWORD PTR __imp__GetPrivateProfileIntA@16
  00108	3b f4		 cmp	 esi, esp
  0010a	e8 00 00 00 00	 call	 __RTC_CheckEsp
  0010f	05 00 01 00 00	 add	 eax, 256		; 00000100H
  00114	8b 4d f4	 mov	 ecx, DWORD PTR _i$[ebp]
  00117	89 44 8d 90	 mov	 DWORD PTR _szConf$[ebp+ecx*4], eax

; 540  : 	}

  0011b	eb a0		 jmp	 SHORT $LN2@initSystem
$LN3@initSystem:

; 541  : 	for (i = IDX_BUF_256; i < IDX_BUF_1k; i++)

  0011d	c7 45 f4 08 00
	00 00		 mov	 DWORD PTR _i$[ebp], 8
  00124	eb 09		 jmp	 SHORT $LN7@initSystem
$LN5@initSystem:
  00126	8b 55 f4	 mov	 edx, DWORD PTR _i$[ebp]
  00129	83 c2 01	 add	 edx, 1
  0012c	89 55 f4	 mov	 DWORD PTR _i$[ebp], edx
$LN7@initSystem:
  0012f	83 7d f4 0a	 cmp	 DWORD PTR _i$[ebp], 10	; 0000000aH
  00133	7d 4f		 jge	 SHORT $LN6@initSystem

; 542  : 	{
; 543  : 		_stprintf(szKey, _T("IDX_BUF_%d"), 1 << i);

  00135	b8 01 00 00 00	 mov	 eax, 1
  0013a	8b 4d f4	 mov	 ecx, DWORD PTR _i$[ebp]
  0013d	d3 e0		 shl	 eax, cl
  0013f	50		 push	 eax
  00140	68 00 00 00 00	 push	 OFFSET $SG46040
  00145	8d 8d 64 ff ff
	ff		 lea	 ecx, DWORD PTR _szKey$[ebp]
  0014b	51		 push	 ecx
  0014c	e8 00 00 00 00	 call	 _sprintf
  00151	83 c4 0c	 add	 esp, 12			; 0000000cH

; 544  : 		szConf.nMaxList[i] = GetPrivateProfileInt(_T("MPOOL"), szKey, 0, g_pSystem) + 64;

  00154	8b f4		 mov	 esi, esp
  00156	8b 15 00 00 00
	00		 mov	 edx, DWORD PTR ?g_pSystem@@3PADA ; g_pSystem
  0015c	52		 push	 edx
  0015d	6a 00		 push	 0
  0015f	8d 85 64 ff ff
	ff		 lea	 eax, DWORD PTR _szKey$[ebp]
  00165	50		 push	 eax
  00166	68 00 00 00 00	 push	 OFFSET $SG46041
  0016b	ff 15 00 00 00
	00		 call	 DWORD PTR __imp__GetPrivateProfileIntA@16
  00171	3b f4		 cmp	 esi, esp
  00173	e8 00 00 00 00	 call	 __RTC_CheckEsp
  00178	83 c0 40	 add	 eax, 64			; 00000040H
  0017b	8b 4d f4	 mov	 ecx, DWORD PTR _i$[ebp]
  0017e	89 44 8d 90	 mov	 DWORD PTR _szConf$[ebp+ecx*4], eax

; 545  : 	}

  00182	eb a2		 jmp	 SHORT $LN5@initSystem
$LN6@initSystem:

; 546  : 
; 547  : 	nVal = 1; nShift = 0;

  00184	c7 45 f0 01 00
	00 00		 mov	 DWORD PTR _nVal$[ebp], 1
  0018b	c7 45 ec 00 00
	00 00		 mov	 DWORD PTR _nShift$[ebp], 0

; 548  : 	for (i = IDX_BUF_1k; i < IDX_BUF_64k; i++)

  00192	c7 45 f4 0a 00
	00 00		 mov	 DWORD PTR _i$[ebp], 10	; 0000000aH
  00199	eb 09		 jmp	 SHORT $LN10@initSystem
$LN8@initSystem:
  0019b	8b 55 f4	 mov	 edx, DWORD PTR _i$[ebp]
  0019e	83 c2 01	 add	 edx, 1
  001a1	89 55 f4	 mov	 DWORD PTR _i$[ebp], edx
$LN10@initSystem:
  001a4	83 7d f4 10	 cmp	 DWORD PTR _i$[ebp], 16	; 00000010H
  001a8	7d 5d		 jge	 SHORT $LN9@initSystem

; 549  : 	{
; 550  : 		_stprintf(szKey, _T("IDX_BUF_%dk"), nVal); nShift++; //0(1K), 1(2K), 2(4K), 3(8K), 4(16K), 5(32K)

  001aa	8b 45 f0	 mov	 eax, DWORD PTR _nVal$[ebp]
  001ad	50		 push	 eax
  001ae	68 00 00 00 00	 push	 OFFSET $SG46042
  001b3	8d 8d 64 ff ff
	ff		 lea	 ecx, DWORD PTR _szKey$[ebp]
  001b9	51		 push	 ecx
  001ba	e8 00 00 00 00	 call	 _sprintf
  001bf	83 c4 0c	 add	 esp, 12			; 0000000cH
  001c2	8b 55 ec	 mov	 edx, DWORD PTR _nShift$[ebp]
  001c5	83 c2 01	 add	 edx, 1
  001c8	89 55 ec	 mov	 DWORD PTR _nShift$[ebp], edx

; 551  : 		szConf.nMaxList[i] = GetPrivateProfileInt(_T("MPOOL"), szKey, 0, g_pSystem) + 4;

  001cb	8b f4		 mov	 esi, esp
  001cd	a1 00 00 00 00	 mov	 eax, DWORD PTR ?g_pSystem@@3PADA ; g_pSystem
  001d2	50		 push	 eax
  001d3	6a 00		 push	 0
  001d5	8d 8d 64 ff ff
	ff		 lea	 ecx, DWORD PTR _szKey$[ebp]
  001db	51		 push	 ecx
  001dc	68 00 00 00 00	 push	 OFFSET $SG46043
  001e1	ff 15 00 00 00
	00		 call	 DWORD PTR __imp__GetPrivateProfileIntA@16
  001e7	3b f4		 cmp	 esi, esp
  001e9	e8 00 00 00 00	 call	 __RTC_CheckEsp
  001ee	83 c0 04	 add	 eax, 4
  001f1	8b 55 f4	 mov	 edx, DWORD PTR _i$[ebp]
  001f4	89 44 95 90	 mov	 DWORD PTR _szConf$[ebp+edx*4], eax

; 552  : 		nVal = 1 << nShift;

  001f8	b8 01 00 00 00	 mov	 eax, 1
  001fd	8b 4d ec	 mov	 ecx, DWORD PTR _nShift$[ebp]
  00200	d3 e0		 shl	 eax, cl
  00202	89 45 f0	 mov	 DWORD PTR _nVal$[ebp], eax

; 553  : 	}

  00205	eb 94		 jmp	 SHORT $LN8@initSystem
$LN9@initSystem:

; 554  : 	//6(64K)
; 555  : 	for (i = IDX_BUF_64k; i < IDX_BUF_512k; i++)

  00207	c7 45 f4 10 00
	00 00		 mov	 DWORD PTR _i$[ebp], 16	; 00000010H
  0020e	eb 09		 jmp	 SHORT $LN13@initSystem
$LN11@initSystem:
  00210	8b 4d f4	 mov	 ecx, DWORD PTR _i$[ebp]
  00213	83 c1 01	 add	 ecx, 1
  00216	89 4d f4	 mov	 DWORD PTR _i$[ebp], ecx
$LN13@initSystem:
  00219	83 7d f4 13	 cmp	 DWORD PTR _i$[ebp], 19	; 00000013H
  0021d	7d 5e		 jge	 SHORT $LN12@initSystem

; 556  : 	{
; 557  : 		_stprintf(szKey, _T("IDX_BUF_%dk"), nVal); nShift++; //6(64K), 7(128K), 8(256K)

  0021f	8b 55 f0	 mov	 edx, DWORD PTR _nVal$[ebp]
  00222	52		 push	 edx
  00223	68 00 00 00 00	 push	 OFFSET $SG46044
  00228	8d 85 64 ff ff
	ff		 lea	 eax, DWORD PTR _szKey$[ebp]
  0022e	50		 push	 eax
  0022f	e8 00 00 00 00	 call	 _sprintf
  00234	83 c4 0c	 add	 esp, 12			; 0000000cH
  00237	8b 4d ec	 mov	 ecx, DWORD PTR _nShift$[ebp]
  0023a	83 c1 01	 add	 ecx, 1
  0023d	89 4d ec	 mov	 DWORD PTR _nShift$[ebp], ecx

; 558  : 		szConf.nMaxList[i] = GetPrivateProfileInt(_T("MPOOL"), szKey, 0, g_pSystem) + 2;

  00240	8b f4		 mov	 esi, esp
  00242	8b 15 00 00 00
	00		 mov	 edx, DWORD PTR ?g_pSystem@@3PADA ; g_pSystem
  00248	52		 push	 edx
  00249	6a 00		 push	 0
  0024b	8d 85 64 ff ff
	ff		 lea	 eax, DWORD PTR _szKey$[ebp]
  00251	50		 push	 eax
  00252	68 00 00 00 00	 push	 OFFSET $SG46045
  00257	ff 15 00 00 00
	00		 call	 DWORD PTR __imp__GetPrivateProfileIntA@16
  0025d	3b f4		 cmp	 esi, esp
  0025f	e8 00 00 00 00	 call	 __RTC_CheckEsp
  00264	83 c0 02	 add	 eax, 2
  00267	8b 4d f4	 mov	 ecx, DWORD PTR _i$[ebp]
  0026a	89 44 8d 90	 mov	 DWORD PTR _szConf$[ebp+ecx*4], eax

; 559  : 		nVal = 1 << nShift;

  0026e	ba 01 00 00 00	 mov	 edx, 1
  00273	8b 4d ec	 mov	 ecx, DWORD PTR _nShift$[ebp]
  00276	d3 e2		 shl	 edx, cl
  00278	89 55 f0	 mov	 DWORD PTR _nVal$[ebp], edx

; 560  : 	}

  0027b	eb 93		 jmp	 SHORT $LN11@initSystem
$LN12@initSystem:

; 561  : 	//9(512K)
; 562  : 	szConf.nMaxList[IDX_BUF_512k] = GetPrivateProfileInt(_T("MPOOL"), _T("IDX_BUF_512k"), 0, g_pSystem) + 1;

  0027d	8b f4		 mov	 esi, esp
  0027f	a1 00 00 00 00	 mov	 eax, DWORD PTR ?g_pSystem@@3PADA ; g_pSystem
  00284	50		 push	 eax
  00285	6a 00		 push	 0
  00287	68 00 00 00 00	 push	 OFFSET $SG46046
  0028c	68 00 00 00 00	 push	 OFFSET $SG46047
  00291	ff 15 00 00 00
	00		 call	 DWORD PTR __imp__GetPrivateProfileIntA@16
  00297	3b f4		 cmp	 esi, esp
  00299	e8 00 00 00 00	 call	 __RTC_CheckEsp
  0029e	83 c0 01	 add	 eax, 1
  002a1	b9 04 00 00 00	 mov	 ecx, 4
  002a6	6b d1 13	 imul	 edx, ecx, 19
  002a9	89 44 15 90	 mov	 DWORD PTR _szConf$[ebp+edx], eax

; 563  : 	szConf.nMaxList[IDX_BUF_1m] = GetPrivateProfileInt(_T("MPOOL"), _T("IDX_BUF_1m"), 0, g_pSystem);

  002ad	8b f4		 mov	 esi, esp
  002af	a1 00 00 00 00	 mov	 eax, DWORD PTR ?g_pSystem@@3PADA ; g_pSystem
  002b4	50		 push	 eax
  002b5	6a 00		 push	 0
  002b7	68 00 00 00 00	 push	 OFFSET $SG46048
  002bc	68 00 00 00 00	 push	 OFFSET $SG46049
  002c1	ff 15 00 00 00
	00		 call	 DWORD PTR __imp__GetPrivateProfileIntA@16
  002c7	3b f4		 cmp	 esi, esp
  002c9	e8 00 00 00 00	 call	 __RTC_CheckEsp
  002ce	b9 04 00 00 00	 mov	 ecx, 4
  002d3	6b d1 14	 imul	 edx, ecx, 20
  002d6	89 44 15 90	 mov	 DWORD PTR _szConf$[ebp+edx], eax

; 564  : 	szConf.nMaxList[IDX_BUF_2m] = GetPrivateProfileInt(_T("MPOOL"), _T("IDX_BUF_2m"), 0, g_pSystem);

  002da	8b f4		 mov	 esi, esp
  002dc	a1 00 00 00 00	 mov	 eax, DWORD PTR ?g_pSystem@@3PADA ; g_pSystem
  002e1	50		 push	 eax
  002e2	6a 00		 push	 0
  002e4	68 00 00 00 00	 push	 OFFSET $SG46050
  002e9	68 00 00 00 00	 push	 OFFSET $SG46051
  002ee	ff 15 00 00 00
	00		 call	 DWORD PTR __imp__GetPrivateProfileIntA@16
  002f4	3b f4		 cmp	 esi, esp
  002f6	e8 00 00 00 00	 call	 __RTC_CheckEsp
  002fb	b9 04 00 00 00	 mov	 ecx, 4
  00300	6b d1 15	 imul	 edx, ecx, 21
  00303	89 44 15 90	 mov	 DWORD PTR _szConf$[ebp+edx], eax

; 565  : 
; 566  : 	gs_pMMgr->init(&szConf);

  00307	8d 45 90	 lea	 eax, DWORD PTR _szConf$[ebp]
  0030a	50		 push	 eax
  0030b	8b 0d 00 00 00
	00		 mov	 ecx, DWORD PTR ?gs_pMMgr@@3PAVCMemManager@@A ; gs_pMMgr
  00311	e8 00 00 00 00	 call	 ?init@CMemManager@@QAEXPAUSTBufConf@@@Z ; CMemManager::init

; 567  : 	if (!gs_pMMgr->alloc()) {

  00316	8b 0d 00 00 00
	00		 mov	 ecx, DWORD PTR ?gs_pMMgr@@3PAVCMemManager@@A ; gs_pMMgr
  0031c	e8 00 00 00 00	 call	 ?alloc@CMemManager@@QAE_NXZ ; CMemManager::alloc
  00321	0f b6 c8	 movzx	 ecx, al
  00324	85 c9		 test	 ecx, ecx
  00326	75 1e		 jne	 SHORT $INIT_THREAD$29

; 568  : 		comErrorPrint("gs_pMMgr->alloc() has Failed!!!");

  00328	68 38 02 00 00	 push	 568			; 00000238H
  0032d	68 00 00 00 00	 push	 OFFSET $SG46053
  00332	68 00 00 00 00	 push	 OFFSET $SG46054
  00337	e8 00 00 00 00	 call	 ?comGlobalErrorProc@@YAXPADPBDH@Z ; comGlobalErrorProc
  0033c	83 c4 0c	 add	 esp, 12			; 0000000cH

; 569  : 		return false;

  0033f	32 c0		 xor	 al, al
  00341	e9 f5 00 00 00	 jmp	 $LN1@initSystem
$INIT_THREAD$29:

; 570  : 	}
; 571  : 
; 572  : INIT_THREAD :
; 573  : 	if (!initComThread(g_pSystem, _T("COMTHREAD")))			return false;

  00346	68 00 00 00 00	 push	 OFFSET $SG46056
  0034b	8b 15 00 00 00
	00		 mov	 edx, DWORD PTR ?g_pSystem@@3PADA ; g_pSystem
  00351	52		 push	 edx
  00352	8b 4d f8	 mov	 ecx, DWORD PTR _this$[ebp]
  00355	e8 00 00 00 00	 call	 ?initComThread@CCoreList@@QAE_NPAD0@Z ; CCoreList::initComThread
  0035a	0f b6 c0	 movzx	 eax, al
  0035d	85 c0		 test	 eax, eax
  0035f	75 07		 jne	 SHORT $LN18@initSystem
  00361	32 c0		 xor	 al, al
  00363	e9 d3 00 00 00	 jmp	 $LN1@initSystem
$LN18@initSystem:

; 574  : 	if (!initLogWriter(g_pSystem, _T("LOG_WRITER"),true))	return false;

  00368	6a 01		 push	 1
  0036a	68 00 00 00 00	 push	 OFFSET $SG46058
  0036f	8b 0d 00 00 00
	00		 mov	 ecx, DWORD PTR ?g_pSystem@@3PADA ; g_pSystem
  00375	51		 push	 ecx
  00376	8b 4d f8	 mov	 ecx, DWORD PTR _this$[ebp]
  00379	e8 00 00 00 00	 call	 ?initLogWriter@CCoreList@@QAE_NPAD0_N@Z ; CCoreList::initLogWriter
  0037e	0f b6 d0	 movzx	 edx, al
  00381	85 d2		 test	 edx, edx
  00383	75 07		 jne	 SHORT $LN19@initSystem
  00385	32 c0		 xor	 al, al
  00387	e9 af 00 00 00	 jmp	 $LN1@initSystem
$LN19@initSystem:

; 575  : 	if (!initScheduler(g_pSystem, _T("SCHEDULER")))			return false;

  0038c	68 00 00 00 00	 push	 OFFSET $SG46060
  00391	a1 00 00 00 00	 mov	 eax, DWORD PTR ?g_pSystem@@3PADA ; g_pSystem
  00396	50		 push	 eax
  00397	8b 4d f8	 mov	 ecx, DWORD PTR _this$[ebp]
  0039a	e8 00 00 00 00	 call	 ?initScheduler@CCoreList@@QAE_NPAD0@Z ; CCoreList::initScheduler
  0039f	0f b6 c8	 movzx	 ecx, al
  003a2	85 c9		 test	 ecx, ecx
  003a4	75 07		 jne	 SHORT $LN20@initSystem
  003a6	32 c0		 xor	 al, al
  003a8	e9 8e 00 00 00	 jmp	 $LN1@initSystem
$LN20@initSystem:

; 576  : 	if (!initQueueThread(g_pSystem, _T("EVENTPROC")))		return false;

  003ad	68 00 00 00 00	 push	 OFFSET $SG46062
  003b2	8b 15 00 00 00
	00		 mov	 edx, DWORD PTR ?g_pSystem@@3PADA ; g_pSystem
  003b8	52		 push	 edx
  003b9	8b 4d f8	 mov	 ecx, DWORD PTR _this$[ebp]
  003bc	e8 00 00 00 00	 call	 ?initQueueThread@CCoreList@@QAE_NPAD0@Z ; CCoreList::initQueueThread
  003c1	0f b6 c0	 movzx	 eax, al
  003c4	85 c0		 test	 eax, eax
  003c6	75 04		 jne	 SHORT $LN21@initSystem
  003c8	32 c0		 xor	 al, al
  003ca	eb 6f		 jmp	 SHORT $LN1@initSystem
$LN21@initSystem:

; 577  : 
; 578  : 	// LogTimeExpresion
; 579  : 	if (!gs_DTEManager.initConfig(g_pSystem)) {

  003cc	8b 0d 00 00 00
	00		 mov	 ecx, DWORD PTR ?g_pSystem@@3PADA ; g_pSystem
  003d2	51		 push	 ecx
  003d3	b9 00 00 00 00	 mov	 ecx, OFFSET ?gs_DTEManager@@3VCTimeExpManager@@A ; gs_DTEManager
  003d8	e8 00 00 00 00	 call	 ?initConfig@CTimeExpManager@@QAE_NPAD@Z ; CTimeExpManager::initConfig
  003dd	0f b6 d0	 movzx	 edx, al
  003e0	85 d2		 test	 edx, edx
  003e2	75 1b		 jne	 SHORT $LN22@initSystem

; 580  : 		comErrorPrint("gs_DTEManager.initConfig has Failed!!!");

  003e4	68 44 02 00 00	 push	 580			; 00000244H
  003e9	68 00 00 00 00	 push	 OFFSET $SG46064
  003ee	68 00 00 00 00	 push	 OFFSET $SG46065
  003f3	e8 00 00 00 00	 call	 ?comGlobalErrorProc@@YAXPADPBDH@Z ; comGlobalErrorProc
  003f8	83 c4 0c	 add	 esp, 12			; 0000000cH

; 581  : 		return false;

  003fb	32 c0		 xor	 al, al
  003fd	eb 3c		 jmp	 SHORT $LN1@initSystem
$LN22@initSystem:

; 582  : 	}
; 583  : 
; 584  : 	// basic logger init
; 585  : 	if (!initLogger(&gs_cLogger, g_pSystem, _T("LOG"))) {

  003ff	68 00 00 00 00	 push	 OFFSET $SG46067
  00404	a1 00 00 00 00	 mov	 eax, DWORD PTR ?g_pSystem@@3PADA ; g_pSystem
  00409	50		 push	 eax
  0040a	68 00 00 00 00	 push	 OFFSET ?gs_cLogger@@3VCLogger@@A ; gs_cLogger
  0040f	8b 4d f8	 mov	 ecx, DWORD PTR _this$[ebp]
  00412	e8 00 00 00 00	 call	 ?initLogger@CCoreList@@QAE_NPAVCLogger@@PAD1@Z ; CCoreList::initLogger
  00417	0f b6 c8	 movzx	 ecx, al
  0041a	85 c9		 test	 ecx, ecx
  0041c	75 1b		 jne	 SHORT $LN23@initSystem

; 586  : 		comErrorPrint("initLogger has Failed!!!");

  0041e	68 4a 02 00 00	 push	 586			; 0000024aH
  00423	68 00 00 00 00	 push	 OFFSET $SG46068
  00428	68 00 00 00 00	 push	 OFFSET $SG46069
  0042d	e8 00 00 00 00	 call	 ?comGlobalErrorProc@@YAXPADPBDH@Z ; comGlobalErrorProc
  00432	83 c4 0c	 add	 esp, 12			; 0000000cH

; 587  : 		return false;

  00435	32 c0		 xor	 al, al
  00437	eb 02		 jmp	 SHORT $LN1@initSystem
$LN23@initSystem:

; 588  : 	}
; 589  : 
; 590  : 	return true;

  00439	b0 01		 mov	 al, 1
$LN1@initSystem:

; 591  : 
; 592  : }

  0043b	52		 push	 edx
  0043c	8b cd		 mov	 ecx, ebp
  0043e	50		 push	 eax
  0043f	8d 15 00 00 00
	00		 lea	 edx, DWORD PTR $LN28@initSystem
  00445	e8 00 00 00 00	 call	 @_RTC_CheckStackVars@8
  0044a	58		 pop	 eax
  0044b	5a		 pop	 edx
  0044c	5f		 pop	 edi
  0044d	5e		 pop	 esi
  0044e	8b 4d fc	 mov	 ecx, DWORD PTR __$ArrayPad$[ebp]
  00451	33 cd		 xor	 ecx, ebp
  00453	e8 00 00 00 00	 call	 @__security_check_cookie@4
  00458	81 c4 a0 00 00
	00		 add	 esp, 160		; 000000a0H
  0045e	3b ec		 cmp	 ebp, esp
  00460	e8 00 00 00 00	 call	 __RTC_CheckEsp
  00465	8b e5		 mov	 esp, ebp
  00467	5d		 pop	 ebp
  00468	c3		 ret	 0
  00469	0f 1f 00	 npad	 3
$LN28@initSystem:
  0046c	02 00 00 00	 DD	 2
  00470	00 00 00 00	 DD	 $LN27@initSystem
$LN27@initSystem:
  00474	90 ff ff ff	 DD	 -112			; ffffff90H
  00478	58 00 00 00	 DD	 88			; 00000058H
  0047c	00 00 00 00	 DD	 $LN25@initSystem
  00480	64 ff ff ff	 DD	 -156			; ffffff64H
  00484	24 00 00 00	 DD	 36			; 00000024H
  00488	00 00 00 00	 DD	 $LN26@initSystem
$LN26@initSystem:
  0048c	73		 DB	 115			; 00000073H
  0048d	7a		 DB	 122			; 0000007aH
  0048e	4b		 DB	 75			; 0000004bH
  0048f	65		 DB	 101			; 00000065H
  00490	79		 DB	 121			; 00000079H
  00491	00		 DB	 0
$LN25@initSystem:
  00492	73		 DB	 115			; 00000073H
  00493	7a		 DB	 122			; 0000007aH
  00494	43		 DB	 67			; 00000043H
  00495	6f		 DB	 111			; 0000006fH
  00496	6e		 DB	 110			; 0000006eH
  00497	66		 DB	 102			; 00000066H
  00498	00		 DB	 0
?initSystemFile@CCoreList@@QAE_NXZ ENDP			; CCoreList::initSystemFile
_TEXT	ENDS
; Function compile flags: /Odtp /RTCsu
; File e:\infinia-library-3.0\com\src\comcore.cpp
_TEXT	SEGMENT
_this$ = -16						; size = 4
__$EHRec$ = -12						; size = 12
??1CCoreList@@QAE@XZ PROC				; CCoreList::~CCoreList
; _this$ = ecx

; 490  : {

  00000	55		 push	 ebp
  00001	8b ec		 mov	 ebp, esp
  00003	6a ff		 push	 -1
  00005	68 00 00 00 00	 push	 __ehhandler$??1CCoreList@@QAE@XZ
  0000a	64 a1 00 00 00
	00		 mov	 eax, DWORD PTR fs:0
  00010	50		 push	 eax
  00011	51		 push	 ecx
  00012	c7 45 f0 cc cc
	cc cc		 mov	 DWORD PTR [ebp-16], -858993460 ; ccccccccH
  00019	a1 00 00 00 00	 mov	 eax, DWORD PTR ___security_cookie
  0001e	33 c5		 xor	 eax, ebp
  00020	50		 push	 eax
  00021	8d 45 f4	 lea	 eax, DWORD PTR __$EHRec$[ebp]
  00024	64 a3 00 00 00
	00		 mov	 DWORD PTR fs:0, eax
  0002a	89 4d f0	 mov	 DWORD PTR _this$[ebp], ecx

; 491  : 	destroy();

  0002d	8b 4d f0	 mov	 ecx, DWORD PTR _this$[ebp]
  00030	e8 00 00 00 00	 call	 ?destroy@CCoreList@@QAEXXZ ; CCoreList::destroy

; 492  : }

  00035	8b 4d f4	 mov	 ecx, DWORD PTR __$EHRec$[ebp]
  00038	64 89 0d 00 00
	00 00		 mov	 DWORD PTR fs:0, ecx
  0003f	59		 pop	 ecx
  00040	83 c4 10	 add	 esp, 16			; 00000010H
  00043	3b ec		 cmp	 ebp, esp
  00045	e8 00 00 00 00	 call	 __RTC_CheckEsp
  0004a	8b e5		 mov	 esp, ebp
  0004c	5d		 pop	 ebp
  0004d	c3		 ret	 0
_TEXT	ENDS
text$x	SEGMENT
__ehhandler$??1CCoreList@@QAE@XZ:
  00000	8b 54 24 08	 mov	 edx, DWORD PTR [esp+8]
  00004	8d 42 0c	 lea	 eax, DWORD PTR [edx+12]
  00007	8b 4a f8	 mov	 ecx, DWORD PTR [edx-8]
  0000a	33 c8		 xor	 ecx, eax
  0000c	e8 00 00 00 00	 call	 @__security_check_cookie@4
  00011	b8 00 00 00 00	 mov	 eax, OFFSET __ehfuncinfo$??1CCoreList@@QAE@XZ
  00016	e9 00 00 00 00	 jmp	 ___CxxFrameHandler3
text$x	ENDS
??1CCoreList@@QAE@XZ ENDP				; CCoreList::~CCoreList
; Function compile flags: /Odtp /RTCsu
; File e:\infinia-library-3.0\com\src\comcore.cpp
_TEXT	SEGMENT
tv82 = -28						; size = 4
$T2 = -24						; size = 4
$T3 = -20						; size = 4
_this$ = -16						; size = 4
__$EHRec$ = -12						; size = 12
??0CCoreList@@QAE@XZ PROC				; CCoreList::CCoreList
; _this$ = ecx

; 463  : {

  00000	55		 push	 ebp
  00001	8b ec		 mov	 ebp, esp
  00003	6a ff		 push	 -1
  00005	68 00 00 00 00	 push	 __ehhandler$??0CCoreList@@QAE@XZ
  0000a	64 a1 00 00 00
	00		 mov	 eax, DWORD PTR fs:0
  00010	50		 push	 eax
  00011	83 ec 10	 sub	 esp, 16			; 00000010H
  00014	56		 push	 esi
  00015	b8 cc cc cc cc	 mov	 eax, -858993460		; ccccccccH
  0001a	89 45 e4	 mov	 DWORD PTR [ebp-28], eax
  0001d	89 45 e8	 mov	 DWORD PTR [ebp-24], eax
  00020	89 45 ec	 mov	 DWORD PTR [ebp-20], eax
  00023	89 45 f0	 mov	 DWORD PTR [ebp-16], eax
  00026	a1 00 00 00 00	 mov	 eax, DWORD PTR ___security_cookie
  0002b	33 c5		 xor	 eax, ebp
  0002d	50		 push	 eax
  0002e	8d 45 f4	 lea	 eax, DWORD PTR __$EHRec$[ebp]
  00031	64 a3 00 00 00
	00		 mov	 DWORD PTR fs:0, eax
  00037	89 4d f0	 mov	 DWORD PTR _this$[ebp], ecx

; 464  : 	m_pWriterList = NULL;

  0003a	8b 45 f0	 mov	 eax, DWORD PTR _this$[ebp]
  0003d	c7 00 00 00 00
	00		 mov	 DWORD PTR [eax], 0

; 465  : 	m_pSchedulerList = NULL;

  00043	8b 4d f0	 mov	 ecx, DWORD PTR _this$[ebp]
  00046	c7 41 04 00 00
	00 00		 mov	 DWORD PTR [ecx+4], 0

; 466  : 	m_pThreadList = NULL;

  0004d	8b 55 f0	 mov	 edx, DWORD PTR _this$[ebp]
  00050	c7 42 08 00 00
	00 00		 mov	 DWORD PTR [edx+8], 0

; 467  : 	m_pEventThreadList = NULL;

  00057	8b 45 f0	 mov	 eax, DWORD PTR _this$[ebp]
  0005a	c7 40 0c 00 00
	00 00		 mov	 DWORD PTR [eax+12], 0

; 468  : 	m_pIntervalPool = NULL;

  00061	8b 4d f0	 mov	 ecx, DWORD PTR _this$[ebp]
  00064	c7 41 10 00 00
	00 00		 mov	 DWORD PTR [ecx+16], 0

; 469  : 	m_pEventPool = NULL;

  0006b	8b 55 f0	 mov	 edx, DWORD PTR _this$[ebp]
  0006e	c7 42 14 00 00
	00 00		 mov	 DWORD PTR [edx+20], 0

; 470  : 
; 471  : 	gs_pMMgr = new (std::nothrow) CMemManager();

  00075	68 00 00 00 00	 push	 OFFSET ?nothrow@std@@3Unothrow_t@1@B ; std::nothrow
  0007a	68 b4 00 00 00	 push	 180			; 000000b4H
  0007f	e8 00 00 00 00	 call	 ??2@YAPAXIABUnothrow_t@std@@@Z ; operator new
  00084	83 c4 08	 add	 esp, 8
  00087	89 45 e8	 mov	 DWORD PTR $T2[ebp], eax
  0008a	c7 45 fc 00 00
	00 00		 mov	 DWORD PTR __$EHRec$[ebp+8], 0
  00091	83 7d e8 00	 cmp	 DWORD PTR $T2[ebp], 0
  00095	74 0d		 je	 SHORT $LN6@CCoreList
  00097	8b 4d e8	 mov	 ecx, DWORD PTR $T2[ebp]
  0009a	e8 00 00 00 00	 call	 ??0CMemManager@@QAE@XZ	; CMemManager::CMemManager
  0009f	89 45 e4	 mov	 DWORD PTR tv82[ebp], eax
  000a2	eb 07		 jmp	 SHORT $LN7@CCoreList
$LN6@CCoreList:
  000a4	c7 45 e4 00 00
	00 00		 mov	 DWORD PTR tv82[ebp], 0
$LN7@CCoreList:
  000ab	8b 45 e4	 mov	 eax, DWORD PTR tv82[ebp]
  000ae	89 45 ec	 mov	 DWORD PTR $T3[ebp], eax
  000b1	c7 45 fc ff ff
	ff ff		 mov	 DWORD PTR __$EHRec$[ebp+8], -1
  000b8	8b 4d ec	 mov	 ecx, DWORD PTR $T3[ebp]
  000bb	89 0d 00 00 00
	00		 mov	 DWORD PTR ?gs_pMMgr@@3PAVCMemManager@@A, ecx ; gs_pMMgr

; 472  : 	if (!gs_pMMgr) {

  000c1	83 3d 00 00 00
	00 00		 cmp	 DWORD PTR ?gs_pMMgr@@3PAVCMemManager@@A, 0 ; gs_pMMgr
  000c8	75 28		 jne	 SHORT $LN2@CCoreList

; 473  : 		comErrorPrint("gs_pMMgr alloc has Failed!!!");

  000ca	68 d9 01 00 00	 push	 473			; 000001d9H
  000cf	68 00 00 00 00	 push	 OFFSET $SG45729
  000d4	68 00 00 00 00	 push	 OFFSET $SG45730
  000d9	e8 00 00 00 00	 call	 ?comGlobalErrorProc@@YAXPADPBDH@Z ; comGlobalErrorProc
  000de	83 c4 0c	 add	 esp, 12			; 0000000cH

; 474  : 		exit(0);

  000e1	8b f4		 mov	 esi, esp
  000e3	6a 00		 push	 0
  000e5	ff 15 00 00 00
	00		 call	 DWORD PTR __imp__exit
  000eb	3b f4		 cmp	 esi, esp
  000ed	e8 00 00 00 00	 call	 __RTC_CheckEsp
$LN2@CCoreList:

; 475  : 	}
; 476  : 
; 477  : 	if (!initSystemFile()) {

  000f2	8b 4d f0	 mov	 ecx, DWORD PTR _this$[ebp]
  000f5	e8 00 00 00 00	 call	 ?initSystemFile@CCoreList@@QAE_NXZ ; CCoreList::initSystemFile
  000fa	0f b6 d0	 movzx	 edx, al
  000fd	85 d2		 test	 edx, edx
  000ff	75 28		 jne	 SHORT $LN3@CCoreList

; 478  : 		comErrorPrint("initSystemFile() has Failed!!!");

  00101	68 de 01 00 00	 push	 478			; 000001deH
  00106	68 00 00 00 00	 push	 OFFSET $SG45732
  0010b	68 00 00 00 00	 push	 OFFSET $SG45733
  00110	e8 00 00 00 00	 call	 ?comGlobalErrorProc@@YAXPADPBDH@Z ; comGlobalErrorProc
  00115	83 c4 0c	 add	 esp, 12			; 0000000cH

; 479  : 		exit(0);

  00118	8b f4		 mov	 esi, esp
  0011a	6a 00		 push	 0
  0011c	ff 15 00 00 00
	00		 call	 DWORD PTR __imp__exit
  00122	3b f4		 cmp	 esi, esp
  00124	e8 00 00 00 00	 call	 __RTC_CheckEsp
$LN3@CCoreList:

; 480  : 	}
; 481  : 	if (!start())

  00129	8b 4d f0	 mov	 ecx, DWORD PTR _this$[ebp]
  0012c	e8 00 00 00 00	 call	 ?start@CCoreList@@QAE_NXZ ; CCoreList::start
  00131	0f b6 c0	 movzx	 eax, al
  00134	85 c0		 test	 eax, eax
  00136	75 28		 jne	 SHORT $LN1@CCoreList

; 482  : 	{
; 483  : 		comErrorPrint("start() has Failed!!!");

  00138	68 e3 01 00 00	 push	 483			; 000001e3H
  0013d	68 00 00 00 00	 push	 OFFSET $SG45735
  00142	68 00 00 00 00	 push	 OFFSET $SG45736
  00147	e8 00 00 00 00	 call	 ?comGlobalErrorProc@@YAXPADPBDH@Z ; comGlobalErrorProc
  0014c	83 c4 0c	 add	 esp, 12			; 0000000cH

; 484  : 		exit(0);

  0014f	8b f4		 mov	 esi, esp
  00151	6a 00		 push	 0
  00153	ff 15 00 00 00
	00		 call	 DWORD PTR __imp__exit
  00159	3b f4		 cmp	 esi, esp
  0015b	e8 00 00 00 00	 call	 __RTC_CheckEsp
$LN1@CCoreList:

; 485  : 	}	
; 486  : }

  00160	8b 45 f0	 mov	 eax, DWORD PTR _this$[ebp]
$LN5@CCoreList:
  00163	8b 4d f4	 mov	 ecx, DWORD PTR __$EHRec$[ebp]
  00166	64 89 0d 00 00
	00 00		 mov	 DWORD PTR fs:0, ecx
  0016d	59		 pop	 ecx
  0016e	5e		 pop	 esi
  0016f	83 c4 1c	 add	 esp, 28			; 0000001cH
  00172	3b ec		 cmp	 ebp, esp
  00174	e8 00 00 00 00	 call	 __RTC_CheckEsp
  00179	8b e5		 mov	 esp, ebp
  0017b	5d		 pop	 ebp
  0017c	c3		 ret	 0
_TEXT	ENDS
text$x	SEGMENT
__unwindfunclet$??0CCoreList@@QAE@XZ$0:
  00000	68 00 00 00 00	 push	 OFFSET ?nothrow@std@@3Unothrow_t@1@B ; std::nothrow
  00005	8b 45 e8	 mov	 eax, DWORD PTR $T2[ebp]
  00008	50		 push	 eax
  00009	e8 00 00 00 00	 call	 ??3@YAXPAXABUnothrow_t@std@@@Z ; operator delete
  0000e	83 c4 08	 add	 esp, 8
  00011	c3		 ret	 0
__ehhandler$??0CCoreList@@QAE@XZ:
  00012	8b 54 24 08	 mov	 edx, DWORD PTR [esp+8]
  00016	8d 42 0c	 lea	 eax, DWORD PTR [edx+12]
  00019	8b 4a e8	 mov	 ecx, DWORD PTR [edx-24]
  0001c	33 c8		 xor	 ecx, eax
  0001e	e8 00 00 00 00	 call	 @__security_check_cookie@4
  00023	b8 00 00 00 00	 mov	 eax, OFFSET __ehfuncinfo$??0CCoreList@@QAE@XZ
  00028	e9 00 00 00 00	 jmp	 ___CxxFrameHandler3
text$x	ENDS
??0CCoreList@@QAE@XZ ENDP				; CCoreList::CCoreList
; Function compile flags: /Odtp /RTCsu
;	COMDAT ??_ECComQueueThread@@QAEPAXI@Z
_TEXT	SEGMENT
_this$ = -16						; size = 4
__$EHRec$ = -12						; size = 12
___flags$ = 8						; size = 4
??_ECComQueueThread@@QAEPAXI@Z PROC			; CComQueueThread::`vector deleting destructor', COMDAT
; _this$ = ecx
  00000	55		 push	 ebp
  00001	8b ec		 mov	 ebp, esp
  00003	6a ff		 push	 -1
  00005	68 00 00 00 00	 push	 __ehhandler$??_ECComQueueThread@@QAEPAXI@Z
  0000a	64 a1 00 00 00
	00		 mov	 eax, DWORD PTR fs:0
  00010	50		 push	 eax
  00011	51		 push	 ecx
  00012	c7 45 f0 cc cc
	cc cc		 mov	 DWORD PTR [ebp-16], -858993460 ; ccccccccH
  00019	a1 00 00 00 00	 mov	 eax, DWORD PTR ___security_cookie
  0001e	33 c5		 xor	 eax, ebp
  00020	50		 push	 eax
  00021	8d 45 f4	 lea	 eax, DWORD PTR __$EHRec$[ebp]
  00024	64 a3 00 00 00
	00		 mov	 DWORD PTR fs:0, eax
  0002a	89 4d f0	 mov	 DWORD PTR _this$[ebp], ecx
  0002d	8b 45 08	 mov	 eax, DWORD PTR ___flags$[ebp]
  00030	83 e0 02	 and	 eax, 2
  00033	74 41		 je	 SHORT $LN2@vector
  00035	68 00 00 00 00	 push	 OFFSET ??1CComQueueThread@@QAE@XZ ; CComQueueThread::~CComQueueThread
  0003a	8b 4d f0	 mov	 ecx, DWORD PTR _this$[ebp]
  0003d	8b 51 fc	 mov	 edx, DWORD PTR [ecx-4]
  00040	52		 push	 edx
  00041	6a 68		 push	 104			; 00000068H
  00043	8b 45 f0	 mov	 eax, DWORD PTR _this$[ebp]
  00046	50		 push	 eax
  00047	e8 00 00 00 00	 call	 ??_M@YGXPAXIIP6EX0@Z@Z
  0004c	8b 4d 08	 mov	 ecx, DWORD PTR ___flags$[ebp]
  0004f	83 e1 01	 and	 ecx, 1
  00052	74 1a		 je	 SHORT $LN3@vector
  00054	8b 55 f0	 mov	 edx, DWORD PTR _this$[ebp]
  00057	6b 42 fc 68	 imul	 eax, DWORD PTR [edx-4], 104
  0005b	83 c0 04	 add	 eax, 4
  0005e	50		 push	 eax
  0005f	8b 4d f0	 mov	 ecx, DWORD PTR _this$[ebp]
  00062	83 e9 04	 sub	 ecx, 4
  00065	51		 push	 ecx
  00066	e8 00 00 00 00	 call	 ??_V@YAXPAXI@Z		; operator delete[]
  0006b	83 c4 08	 add	 esp, 8
$LN3@vector:
  0006e	8b 45 f0	 mov	 eax, DWORD PTR _this$[ebp]
  00071	83 e8 04	 sub	 eax, 4
  00074	eb 21		 jmp	 SHORT $LN5@vector
$LN2@vector:
  00076	8b 4d f0	 mov	 ecx, DWORD PTR _this$[ebp]
  00079	e8 00 00 00 00	 call	 ??1CComQueueThread@@QAE@XZ ; CComQueueThread::~CComQueueThread
  0007e	8b 55 08	 mov	 edx, DWORD PTR ___flags$[ebp]
  00081	83 e2 01	 and	 edx, 1
  00084	74 0e		 je	 SHORT $LN4@vector
  00086	6a 68		 push	 104			; 00000068H
  00088	8b 45 f0	 mov	 eax, DWORD PTR _this$[ebp]
  0008b	50		 push	 eax
  0008c	e8 00 00 00 00	 call	 ??3@YAXPAXI@Z		; operator delete
  00091	83 c4 08	 add	 esp, 8
$LN4@vector:
  00094	8b 45 f0	 mov	 eax, DWORD PTR _this$[ebp]
$LN5@vector:
  00097	8b 4d f4	 mov	 ecx, DWORD PTR __$EHRec$[ebp]
  0009a	64 89 0d 00 00
	00 00		 mov	 DWORD PTR fs:0, ecx
  000a1	59		 pop	 ecx
  000a2	83 c4 10	 add	 esp, 16			; 00000010H
  000a5	3b ec		 cmp	 ebp, esp
  000a7	e8 00 00 00 00	 call	 __RTC_CheckEsp
  000ac	8b e5		 mov	 esp, ebp
  000ae	5d		 pop	 ebp
  000af	c2 04 00	 ret	 4
_TEXT	ENDS
;	COMDAT text$x
text$x	SEGMENT
__ehhandler$??_ECComQueueThread@@QAEPAXI@Z:
  00000	8b 54 24 08	 mov	 edx, DWORD PTR [esp+8]
  00004	8d 42 0c	 lea	 eax, DWORD PTR [edx+12]
  00007	8b 4a f8	 mov	 ecx, DWORD PTR [edx-8]
  0000a	33 c8		 xor	 ecx, eax
  0000c	e8 00 00 00 00	 call	 @__security_check_cookie@4
  00011	b8 00 00 00 00	 mov	 eax, OFFSET __ehfuncinfo$??_ECComQueueThread@@QAEPAXI@Z
  00016	e9 00 00 00 00	 jmp	 ___CxxFrameHandler3
text$x	ENDS
??_ECComQueueThread@@QAEPAXI@Z ENDP			; CComQueueThread::`vector deleting destructor'
; Function compile flags: /Odtp /RTCsu
;	COMDAT ??_GCComQueueThread@@QAEPAXI@Z
_TEXT	SEGMENT
_this$ = -4						; size = 4
___flags$ = 8						; size = 4
??_GCComQueueThread@@QAEPAXI@Z PROC			; CComQueueThread::`scalar deleting destructor', COMDAT
; _this$ = ecx
  00000	55		 push	 ebp
  00001	8b ec		 mov	 ebp, esp
  00003	51		 push	 ecx
  00004	c7 45 fc cc cc
	cc cc		 mov	 DWORD PTR [ebp-4], -858993460 ; ccccccccH
  0000b	89 4d fc	 mov	 DWORD PTR _this$[ebp], ecx
  0000e	8b 4d fc	 mov	 ecx, DWORD PTR _this$[ebp]
  00011	e8 00 00 00 00	 call	 ??1CComQueueThread@@QAE@XZ ; CComQueueThread::~CComQueueThread
  00016	8b 45 08	 mov	 eax, DWORD PTR ___flags$[ebp]
  00019	83 e0 01	 and	 eax, 1
  0001c	74 0e		 je	 SHORT $LN2@scalar
  0001e	6a 68		 push	 104			; 00000068H
  00020	8b 4d fc	 mov	 ecx, DWORD PTR _this$[ebp]
  00023	51		 push	 ecx
  00024	e8 00 00 00 00	 call	 ??3@YAXPAXI@Z		; operator delete
  00029	83 c4 08	 add	 esp, 8
$LN2@scalar:
  0002c	8b 45 fc	 mov	 eax, DWORD PTR _this$[ebp]
  0002f	83 c4 04	 add	 esp, 4
  00032	3b ec		 cmp	 ebp, esp
  00034	e8 00 00 00 00	 call	 __RTC_CheckEsp
  00039	8b e5		 mov	 esp, ebp
  0003b	5d		 pop	 ebp
  0003c	c2 04 00	 ret	 4
??_GCComQueueThread@@QAEPAXI@Z ENDP			; CComQueueThread::`scalar deleting destructor'
_TEXT	ENDS
; Function compile flags: /Odtp /RTCsu
; File e:\infinia-library-3.0\com\include\comcore.h
;	COMDAT ?getEvent@CComQueueThread@@QAEPAUSTEvent@@XZ
_TEXT	SEGMENT
_this$ = -4						; size = 4
?getEvent@CComQueueThread@@QAEPAUSTEvent@@XZ PROC	; CComQueueThread::getEvent, COMDAT
; _this$ = ecx

; 168  : 	STEvent *getEvent() { return (STEvent *)m_sLogQueue.pop(); }

  00000	55		 push	 ebp
  00001	8b ec		 mov	 ebp, esp
  00003	51		 push	 ecx
  00004	c7 45 fc cc cc
	cc cc		 mov	 DWORD PTR [ebp-4], -858993460 ; ccccccccH
  0000b	89 4d fc	 mov	 DWORD PTR _this$[ebp], ecx
  0000e	8b 4d fc	 mov	 ecx, DWORD PTR _this$[ebp]
  00011	83 c1 28	 add	 ecx, 40			; 00000028H
  00014	e8 00 00 00 00	 call	 ?pop@CQueueS@@QAEPAXXZ	; CQueueS::pop
  00019	83 c4 04	 add	 esp, 4
  0001c	3b ec		 cmp	 ebp, esp
  0001e	e8 00 00 00 00	 call	 __RTC_CheckEsp
  00023	8b e5		 mov	 esp, ebp
  00025	5d		 pop	 ebp
  00026	c3		 ret	 0
?getEvent@CComQueueThread@@QAEPAUSTEvent@@XZ ENDP	; CComQueueThread::getEvent
_TEXT	ENDS
; Function compile flags: /Odtp /RTCsu
; File e:\infinia-library-3.0\com\include\comcore.h
;	COMDAT ?putQueue@CComQueueThread@@QAE_NPAUSTEvent@@@Z
_TEXT	SEGMENT
_this$ = -4						; size = 4
_p$ = 8							; size = 4
?putQueue@CComQueueThread@@QAE_NPAUSTEvent@@@Z PROC	; CComQueueThread::putQueue, COMDAT
; _this$ = ecx

; 167  : 	bool putQueue(STEvent *p) { if (m_cThread.bActive()) { m_sLogQueue.push(p); m_cThread.sendSignal(); return true; } return false; }

  00000	55		 push	 ebp
  00001	8b ec		 mov	 ebp, esp
  00003	51		 push	 ecx
  00004	c7 45 fc cc cc
	cc cc		 mov	 DWORD PTR [ebp-4], -858993460 ; ccccccccH
  0000b	89 4d fc	 mov	 DWORD PTR _this$[ebp], ecx
  0000e	8b 4d fc	 mov	 ecx, DWORD PTR _this$[ebp]
  00011	e8 00 00 00 00	 call	 ?bActive@CComThread@@QAE_NXZ ; CComThread::bActive
  00016	0f b6 c0	 movzx	 eax, al
  00019	85 c0		 test	 eax, eax
  0001b	74 1b		 je	 SHORT $LN2@putQueue
  0001d	8b 4d 08	 mov	 ecx, DWORD PTR _p$[ebp]
  00020	51		 push	 ecx
  00021	8b 4d fc	 mov	 ecx, DWORD PTR _this$[ebp]
  00024	83 c1 28	 add	 ecx, 40			; 00000028H
  00027	e8 00 00 00 00	 call	 ?push@CQueueS@@QAE_NPAX@Z ; CQueueS::push
  0002c	8b 4d fc	 mov	 ecx, DWORD PTR _this$[ebp]
  0002f	e8 00 00 00 00	 call	 ?sendSignal@CComThread@@QAEXXZ ; CComThread::sendSignal
  00034	b0 01		 mov	 al, 1
  00036	eb 02		 jmp	 SHORT $LN1@putQueue
$LN2@putQueue:
  00038	32 c0		 xor	 al, al
$LN1@putQueue:
  0003a	83 c4 04	 add	 esp, 4
  0003d	3b ec		 cmp	 ebp, esp
  0003f	e8 00 00 00 00	 call	 __RTC_CheckEsp
  00044	8b e5		 mov	 esp, ebp
  00046	5d		 pop	 ebp
  00047	c2 04 00	 ret	 4
?putQueue@CComQueueThread@@QAE_NPAUSTEvent@@@Z ENDP	; CComQueueThread::putQueue
_TEXT	ENDS
; Function compile flags: /Odtp /RTCsu
; File e:\infinia-library-3.0\com\src\comcore.cpp
_TEXT	SEGMENT
_this$ = -4						; size = 4
?quit@CComQueueThread@@QAE_NXZ PROC			; CComQueueThread::quit
; _this$ = ecx

; 444  : {

  00000	55		 push	 ebp
  00001	8b ec		 mov	 ebp, esp
  00003	51		 push	 ecx
  00004	c7 45 fc cc cc
	cc cc		 mov	 DWORD PTR [ebp-4], -858993460 ; ccccccccH
  0000b	89 4d fc	 mov	 DWORD PTR _this$[ebp], ecx

; 445  : 	m_cThread.quit();

  0000e	8b 4d fc	 mov	 ecx, DWORD PTR _this$[ebp]
  00011	e8 00 00 00 00	 call	 ?quit@CComThread@@QAE_NXZ ; CComThread::quit

; 446  : 	return true;

  00016	b0 01		 mov	 al, 1

; 447  : }

  00018	83 c4 04	 add	 esp, 4
  0001b	3b ec		 cmp	 ebp, esp
  0001d	e8 00 00 00 00	 call	 __RTC_CheckEsp
  00022	8b e5		 mov	 esp, ebp
  00024	5d		 pop	 ebp
  00025	c3		 ret	 0
?quit@CComQueueThread@@QAE_NXZ ENDP			; CComQueueThread::quit
_TEXT	ENDS
; Function compile flags: /Odtp /RTCsu
; File e:\infinia-library-3.0\com\src\comcore.cpp
_TEXT	SEGMENT
_this$ = -4						; size = 4
?start@CComQueueThread@@QAE_NXZ PROC			; CComQueueThread::start
; _this$ = ecx

; 430  : {

  00000	55		 push	 ebp
  00001	8b ec		 mov	 ebp, esp
  00003	51		 push	 ecx
  00004	c7 45 fc cc cc
	cc cc		 mov	 DWORD PTR [ebp-4], -858993460 ; ccccccccH
  0000b	89 4d fc	 mov	 DWORD PTR _this$[ebp], ecx

; 431  : 	if (m_cThread.bActive()) return true;

  0000e	8b 4d fc	 mov	 ecx, DWORD PTR _this$[ebp]
  00011	e8 00 00 00 00	 call	 ?bActive@CComThread@@QAE_NXZ ; CComThread::bActive
  00016	0f b6 c0	 movzx	 eax, al
  00019	85 c0		 test	 eax, eax
  0001b	74 04		 je	 SHORT $LN2@start
  0001d	b0 01		 mov	 al, 1
  0001f	eb 63		 jmp	 SHORT $LN1@start
$LN2@start:

; 432  : 	if (!m_cThread.init(eventThreadLoop, this, INFINITE)) {

  00021	6a 00		 push	 0
  00023	6a ff		 push	 -1
  00025	8b 4d fc	 mov	 ecx, DWORD PTR _this$[ebp]
  00028	51		 push	 ecx
  00029	68 00 00 00 00	 push	 OFFSET ?eventThreadLoop@@YAXPAUSTThreadInfo@@@Z ; eventThreadLoop
  0002e	8b 4d fc	 mov	 ecx, DWORD PTR _this$[ebp]
  00031	e8 00 00 00 00	 call	 ?init@CComThread@@QAE_NP6AXPAUSTThreadInfo@@@ZPAXH2@Z ; CComThread::init
  00036	0f b6 d0	 movzx	 edx, al
  00039	85 d2		 test	 edx, edx
  0003b	75 1b		 jne	 SHORT $LN3@start

; 433  : 		comErrorPrint("m_cThread.init");

  0003d	68 b1 01 00 00	 push	 433			; 000001b1H
  00042	68 00 00 00 00	 push	 OFFSET $SG45702
  00047	68 00 00 00 00	 push	 OFFSET $SG45703
  0004c	e8 00 00 00 00	 call	 ?comGlobalErrorProc@@YAXPADPBDH@Z ; comGlobalErrorProc
  00051	83 c4 0c	 add	 esp, 12			; 0000000cH

; 434  : 		return false;

  00054	32 c0		 xor	 al, al
  00056	eb 2c		 jmp	 SHORT $LN1@start
$LN3@start:

; 435  : 	}
; 436  : 	if (!m_cThread.start()) {

  00058	8b 4d fc	 mov	 ecx, DWORD PTR _this$[ebp]
  0005b	e8 00 00 00 00	 call	 ?start@CComThread@@QAE_NXZ ; CComThread::start
  00060	0f b6 c0	 movzx	 eax, al
  00063	85 c0		 test	 eax, eax
  00065	75 1b		 jne	 SHORT $LN4@start

; 437  : 		comErrorPrint("m_cThread.start");

  00067	68 b5 01 00 00	 push	 437			; 000001b5H
  0006c	68 00 00 00 00	 push	 OFFSET $SG45705
  00071	68 00 00 00 00	 push	 OFFSET $SG45706
  00076	e8 00 00 00 00	 call	 ?comGlobalErrorProc@@YAXPADPBDH@Z ; comGlobalErrorProc
  0007b	83 c4 0c	 add	 esp, 12			; 0000000cH

; 438  : 		return false;

  0007e	32 c0		 xor	 al, al
  00080	eb 02		 jmp	 SHORT $LN1@start
$LN4@start:

; 439  : 	}
; 440  : 	return true;

  00082	b0 01		 mov	 al, 1
$LN1@start:

; 441  : }

  00084	83 c4 04	 add	 esp, 4
  00087	3b ec		 cmp	 ebp, esp
  00089	e8 00 00 00 00	 call	 __RTC_CheckEsp
  0008e	8b e5		 mov	 esp, ebp
  00090	5d		 pop	 ebp
  00091	c3		 ret	 0
?start@CComQueueThread@@QAE_NXZ ENDP			; CComQueueThread::start
_TEXT	ENDS
; Function compile flags: /Odtp /RTCsu
; File e:\infinia-library-3.0\com\src\comcore.cpp
_TEXT	SEGMENT
_this$ = -4						; size = 4
_nCount$ = 8						; size = 4
_nIdx$ = 12						; size = 4
?init@CComQueueThread@@QAE_NHH@Z PROC			; CComQueueThread::init
; _this$ = ecx

; 422  : {

  00000	55		 push	 ebp
  00001	8b ec		 mov	 ebp, esp
  00003	51		 push	 ecx
  00004	c7 45 fc cc cc
	cc cc		 mov	 DWORD PTR [ebp-4], -858993460 ; ccccccccH
  0000b	89 4d fc	 mov	 DWORD PTR _this$[ebp], ecx

; 423  : 	if (!m_sLogQueue.alloc(nCount, eAlloc_Type_none)) { printf("has Failed!! m_sLogQueue.alloc(%d)\n", nCount); return false; }

  0000e	6a 00		 push	 0
  00010	8b 45 08	 mov	 eax, DWORD PTR _nCount$[ebp]
  00013	50		 push	 eax
  00014	8b 4d fc	 mov	 ecx, DWORD PTR _this$[ebp]
  00017	83 c1 28	 add	 ecx, 40			; 00000028H
  0001a	e8 00 00 00 00	 call	 ?alloc@CQueueS@@QAE_NHW4E_ALLOC_TYPE@@@Z ; CQueueS::alloc
  0001f	0f b6 c8	 movzx	 ecx, al
  00022	85 c9		 test	 ecx, ecx
  00024	75 15		 jne	 SHORT $LN2@init
  00026	8b 55 08	 mov	 edx, DWORD PTR _nCount$[ebp]
  00029	52		 push	 edx
  0002a	68 00 00 00 00	 push	 OFFSET $SG45696
  0002f	e8 00 00 00 00	 call	 _printf
  00034	83 c4 08	 add	 esp, 8
  00037	32 c0		 xor	 al, al
  00039	eb 0e		 jmp	 SHORT $LN1@init
$LN2@init:

; 424  : 	m_cThread.setIdx(nIdx);

  0003b	8b 45 0c	 mov	 eax, DWORD PTR _nIdx$[ebp]
  0003e	50		 push	 eax
  0003f	8b 4d fc	 mov	 ecx, DWORD PTR _this$[ebp]
  00042	e8 00 00 00 00	 call	 ?setIdx@CComThread@@QAEXH@Z ; CComThread::setIdx

; 425  : 	return true;

  00047	b0 01		 mov	 al, 1
$LN1@init:

; 426  : }

  00049	83 c4 04	 add	 esp, 4
  0004c	3b ec		 cmp	 ebp, esp
  0004e	e8 00 00 00 00	 call	 __RTC_CheckEsp
  00053	8b e5		 mov	 esp, ebp
  00055	5d		 pop	 ebp
  00056	c2 08 00	 ret	 8
?init@CComQueueThread@@QAE_NHH@Z ENDP			; CComQueueThread::init
_TEXT	ENDS
; Function compile flags: /Odtp /RTCsu
; File e:\infinia-library-3.0\com\src\comcore.cpp
_TEXT	SEGMENT
_nCount$ = -44						; size = 4
_szSect$ = -36						; size = 24
_this$ = -8						; size = 4
__$ArrayPad$ = -4					; size = 4
_pConfigFile$ = 8					; size = 4
_seq$ = 12						; size = 4
_pSection$ = 16						; size = 4
?initConfig@CComQueueThread@@QAE_NPADH0@Z PROC		; CComQueueThread::initConfig
; _this$ = ecx

; 410  : {

  00000	55		 push	 ebp
  00001	8b ec		 mov	 ebp, esp
  00003	83 ec 2c	 sub	 esp, 44			; 0000002cH
  00006	56		 push	 esi
  00007	57		 push	 edi
  00008	51		 push	 ecx
  00009	8d 7d d4	 lea	 edi, DWORD PTR [ebp-44]
  0000c	b9 0b 00 00 00	 mov	 ecx, 11			; 0000000bH
  00011	b8 cc cc cc cc	 mov	 eax, -858993460		; ccccccccH
  00016	f3 ab		 rep stosd
  00018	59		 pop	 ecx
  00019	a1 00 00 00 00	 mov	 eax, DWORD PTR ___security_cookie
  0001e	33 c5		 xor	 eax, ebp
  00020	89 45 fc	 mov	 DWORD PTR __$ArrayPad$[ebp], eax
  00023	89 4d f8	 mov	 DWORD PTR _this$[ebp], ecx

; 411  : 	TCHAR szSect[24];
; 412  : 	int nCount;
; 413  : 
; 414  : 	_stprintf(szSect, _T("%s_%d"), pSection, seq);

  00026	8b 45 0c	 mov	 eax, DWORD PTR _seq$[ebp]
  00029	50		 push	 eax
  0002a	8b 4d 10	 mov	 ecx, DWORD PTR _pSection$[ebp]
  0002d	51		 push	 ecx
  0002e	68 00 00 00 00	 push	 OFFSET $SG45686
  00033	8d 55 dc	 lea	 edx, DWORD PTR _szSect$[ebp]
  00036	52		 push	 edx
  00037	e8 00 00 00 00	 call	 _sprintf
  0003c	83 c4 10	 add	 esp, 16			; 00000010H

; 415  : 	nCount = GetPrivateProfileInt(szSect, _T("LIST_COUNT"), 20, pConfigFile) + LIST_ADD_COUNT;

  0003f	8b f4		 mov	 esi, esp
  00041	8b 45 08	 mov	 eax, DWORD PTR _pConfigFile$[ebp]
  00044	50		 push	 eax
  00045	6a 14		 push	 20			; 00000014H
  00047	68 00 00 00 00	 push	 OFFSET $SG45687
  0004c	8d 4d dc	 lea	 ecx, DWORD PTR _szSect$[ebp]
  0004f	51		 push	 ecx
  00050	ff 15 00 00 00
	00		 call	 DWORD PTR __imp__GetPrivateProfileIntA@16
  00056	3b f4		 cmp	 esi, esp
  00058	e8 00 00 00 00	 call	 __RTC_CheckEsp
  0005d	83 c0 0a	 add	 eax, 10			; 0000000aH
  00060	89 45 d4	 mov	 DWORD PTR _nCount$[ebp], eax

; 416  : 
; 417  : 	if (!m_sLogQueue.alloc(nCount, eAlloc_Type_none)) { printf("has Failed!! m_sLogQueue.alloc(%d)\n", nCount); return false; }

  00063	6a 00		 push	 0
  00065	8b 55 d4	 mov	 edx, DWORD PTR _nCount$[ebp]
  00068	52		 push	 edx
  00069	8b 4d f8	 mov	 ecx, DWORD PTR _this$[ebp]
  0006c	83 c1 28	 add	 ecx, 40			; 00000028H
  0006f	e8 00 00 00 00	 call	 ?alloc@CQueueS@@QAE_NHW4E_ALLOC_TYPE@@@Z ; CQueueS::alloc
  00074	0f b6 c0	 movzx	 eax, al
  00077	85 c0		 test	 eax, eax
  00079	75 15		 jne	 SHORT $LN2@initConfig
  0007b	8b 4d d4	 mov	 ecx, DWORD PTR _nCount$[ebp]
  0007e	51		 push	 ecx
  0007f	68 00 00 00 00	 push	 OFFSET $SG45689
  00084	e8 00 00 00 00	 call	 _printf
  00089	83 c4 08	 add	 esp, 8
  0008c	32 c0		 xor	 al, al
  0008e	eb 02		 jmp	 SHORT $LN1@initConfig
$LN2@initConfig:

; 418  : 	return true;

  00090	b0 01		 mov	 al, 1
$LN1@initConfig:

; 419  : }

  00092	52		 push	 edx
  00093	8b cd		 mov	 ecx, ebp
  00095	50		 push	 eax
  00096	8d 15 00 00 00
	00		 lea	 edx, DWORD PTR $LN6@initConfig
  0009c	e8 00 00 00 00	 call	 @_RTC_CheckStackVars@8
  000a1	58		 pop	 eax
  000a2	5a		 pop	 edx
  000a3	5f		 pop	 edi
  000a4	5e		 pop	 esi
  000a5	8b 4d fc	 mov	 ecx, DWORD PTR __$ArrayPad$[ebp]
  000a8	33 cd		 xor	 ecx, ebp
  000aa	e8 00 00 00 00	 call	 @__security_check_cookie@4
  000af	83 c4 2c	 add	 esp, 44			; 0000002cH
  000b2	3b ec		 cmp	 ebp, esp
  000b4	e8 00 00 00 00	 call	 __RTC_CheckEsp
  000b9	8b e5		 mov	 esp, ebp
  000bb	5d		 pop	 ebp
  000bc	c2 0c 00	 ret	 12			; 0000000cH
  000bf	90		 npad	 1
$LN6@initConfig:
  000c0	01 00 00 00	 DD	 1
  000c4	00 00 00 00	 DD	 $LN5@initConfig
$LN5@initConfig:
  000c8	dc ff ff ff	 DD	 -36			; ffffffdcH
  000cc	18 00 00 00	 DD	 24			; 00000018H
  000d0	00 00 00 00	 DD	 $LN4@initConfig
$LN4@initConfig:
  000d4	73		 DB	 115			; 00000073H
  000d5	7a		 DB	 122			; 0000007aH
  000d6	53		 DB	 83			; 00000053H
  000d7	65		 DB	 101			; 00000065H
  000d8	63		 DB	 99			; 00000063H
  000d9	74		 DB	 116			; 00000074H
  000da	00		 DB	 0
?initConfig@CComQueueThread@@QAE_NPADH0@Z ENDP		; CComQueueThread::initConfig
_TEXT	ENDS
; Function compile flags: /Odtp /RTCsu
; File e:\infinia-library-3.0\com\src\comcore.cpp
_TEXT	SEGMENT
_this$ = -16						; size = 4
__$EHRec$ = -12						; size = 12
??1CComQueueThread@@QAE@XZ PROC				; CComQueueThread::~CComQueueThread
; _this$ = ecx

; 405  : {

  00000	55		 push	 ebp
  00001	8b ec		 mov	 ebp, esp
  00003	6a ff		 push	 -1
  00005	68 00 00 00 00	 push	 __ehhandler$??1CComQueueThread@@QAE@XZ
  0000a	64 a1 00 00 00
	00		 mov	 eax, DWORD PTR fs:0
  00010	50		 push	 eax
  00011	51		 push	 ecx
  00012	c7 45 f0 cc cc
	cc cc		 mov	 DWORD PTR [ebp-16], -858993460 ; ccccccccH
  00019	a1 00 00 00 00	 mov	 eax, DWORD PTR ___security_cookie
  0001e	33 c5		 xor	 eax, ebp
  00020	50		 push	 eax
  00021	8d 45 f4	 lea	 eax, DWORD PTR __$EHRec$[ebp]
  00024	64 a3 00 00 00
	00		 mov	 DWORD PTR fs:0, eax
  0002a	89 4d f0	 mov	 DWORD PTR _this$[ebp], ecx

; 406  : 	quit();

  0002d	8b 4d f0	 mov	 ecx, DWORD PTR _this$[ebp]
  00030	e8 00 00 00 00	 call	 ?quit@CComQueueThread@@QAE_NXZ ; CComQueueThread::quit

; 407  : }

  00035	8b 4d f0	 mov	 ecx, DWORD PTR _this$[ebp]
  00038	83 c1 28	 add	 ecx, 40			; 00000028H
  0003b	e8 00 00 00 00	 call	 ??1CQueueS@@QAE@XZ	; CQueueS::~CQueueS
  00040	8b 4d f0	 mov	 ecx, DWORD PTR _this$[ebp]
  00043	e8 00 00 00 00	 call	 ??1CComThread@@QAE@XZ	; CComThread::~CComThread
  00048	8b 4d f4	 mov	 ecx, DWORD PTR __$EHRec$[ebp]
  0004b	64 89 0d 00 00
	00 00		 mov	 DWORD PTR fs:0, ecx
  00052	59		 pop	 ecx
  00053	83 c4 10	 add	 esp, 16			; 00000010H
  00056	3b ec		 cmp	 ebp, esp
  00058	e8 00 00 00 00	 call	 __RTC_CheckEsp
  0005d	8b e5		 mov	 esp, ebp
  0005f	5d		 pop	 ebp
  00060	c3		 ret	 0
_TEXT	ENDS
text$x	SEGMENT
__ehhandler$??1CComQueueThread@@QAE@XZ:
  00000	8b 54 24 08	 mov	 edx, DWORD PTR [esp+8]
  00004	8d 42 0c	 lea	 eax, DWORD PTR [edx+12]
  00007	8b 4a f8	 mov	 ecx, DWORD PTR [edx-8]
  0000a	33 c8		 xor	 ecx, eax
  0000c	e8 00 00 00 00	 call	 @__security_check_cookie@4
  00011	b8 00 00 00 00	 mov	 eax, OFFSET __ehfuncinfo$??1CComQueueThread@@QAE@XZ
  00016	e9 00 00 00 00	 jmp	 ___CxxFrameHandler3
text$x	ENDS
??1CComQueueThread@@QAE@XZ ENDP				; CComQueueThread::~CComQueueThread
; Function compile flags: /Odtp /RTCsu
; File e:\infinia-library-3.0\com\src\comcore.cpp
_TEXT	SEGMENT
_this$ = -16						; size = 4
__$EHRec$ = -12						; size = 12
??0CComQueueThread@@QAE@XZ PROC				; CComQueueThread::CComQueueThread
; _this$ = ecx

; 401  : {

  00000	55		 push	 ebp
  00001	8b ec		 mov	 ebp, esp
  00003	6a ff		 push	 -1
  00005	68 00 00 00 00	 push	 __ehhandler$??0CComQueueThread@@QAE@XZ
  0000a	64 a1 00 00 00
	00		 mov	 eax, DWORD PTR fs:0
  00010	50		 push	 eax
  00011	51		 push	 ecx
  00012	c7 45 f0 cc cc
	cc cc		 mov	 DWORD PTR [ebp-16], -858993460 ; ccccccccH
  00019	a1 00 00 00 00	 mov	 eax, DWORD PTR ___security_cookie
  0001e	33 c5		 xor	 eax, ebp
  00020	50		 push	 eax
  00021	8d 45 f4	 lea	 eax, DWORD PTR __$EHRec$[ebp]
  00024	64 a3 00 00 00
	00		 mov	 DWORD PTR fs:0, eax
  0002a	89 4d f0	 mov	 DWORD PTR _this$[ebp], ecx
  0002d	8b 4d f0	 mov	 ecx, DWORD PTR _this$[ebp]
  00030	e8 00 00 00 00	 call	 ??0CComThread@@QAE@XZ	; CComThread::CComThread
  00035	c7 45 fc 00 00
	00 00		 mov	 DWORD PTR __$EHRec$[ebp+8], 0
  0003c	8b 4d f0	 mov	 ecx, DWORD PTR _this$[ebp]
  0003f	83 c1 28	 add	 ecx, 40			; 00000028H
  00042	e8 00 00 00 00	 call	 ??0CQueueS@@QAE@XZ	; CQueueS::CQueueS

; 402  : 
; 403  : }

  00047	c7 45 fc ff ff
	ff ff		 mov	 DWORD PTR __$EHRec$[ebp+8], -1
  0004e	8b 45 f0	 mov	 eax, DWORD PTR _this$[ebp]
  00051	8b 4d f4	 mov	 ecx, DWORD PTR __$EHRec$[ebp]
  00054	64 89 0d 00 00
	00 00		 mov	 DWORD PTR fs:0, ecx
  0005b	59		 pop	 ecx
  0005c	83 c4 10	 add	 esp, 16			; 00000010H
  0005f	3b ec		 cmp	 ebp, esp
  00061	e8 00 00 00 00	 call	 __RTC_CheckEsp
  00066	8b e5		 mov	 esp, ebp
  00068	5d		 pop	 ebp
  00069	c3		 ret	 0
_TEXT	ENDS
text$x	SEGMENT
__unwindfunclet$??0CComQueueThread@@QAE@XZ$0:
  00000	8b 4d f0	 mov	 ecx, DWORD PTR _this$[ebp]
  00003	e9 00 00 00 00	 jmp	 ??1CComThread@@QAE@XZ	; CComThread::~CComThread
__ehhandler$??0CComQueueThread@@QAE@XZ:
  00008	8b 54 24 08	 mov	 edx, DWORD PTR [esp+8]
  0000c	8d 42 0c	 lea	 eax, DWORD PTR [edx+12]
  0000f	8b 4a f8	 mov	 ecx, DWORD PTR [edx-8]
  00012	33 c8		 xor	 ecx, eax
  00014	e8 00 00 00 00	 call	 @__security_check_cookie@4
  00019	b8 00 00 00 00	 mov	 eax, OFFSET __ehfuncinfo$??0CComQueueThread@@QAE@XZ
  0001e	e9 00 00 00 00	 jmp	 ___CxxFrameHandler3
text$x	ENDS
??0CComQueueThread@@QAE@XZ ENDP				; CComQueueThread::CComQueueThread
; Function compile flags: /Odtp /RTCsu
; File e:\infinia-library-3.0\com\src\comcore.cpp
_TEXT	SEGMENT
_pEvent$ = -8						; size = 4
_pBasic$ = -4						; size = 4
_p$ = 8							; size = 4
?eventThreadLoop@@YAXPAUSTThreadInfo@@@Z PROC		; eventThreadLoop

; 451  : {

  00000	55		 push	 ebp
  00001	8b ec		 mov	 ebp, esp
  00003	83 ec 08	 sub	 esp, 8
  00006	56		 push	 esi
  00007	c7 45 f8 cc cc
	cc cc		 mov	 DWORD PTR [ebp-8], -858993460 ; ccccccccH
  0000e	c7 45 fc cc cc
	cc cc		 mov	 DWORD PTR [ebp-4], -858993460 ; ccccccccH

; 452  : 	CComQueueThread *pBasic = (CComQueueThread *)p->pClass;

  00015	8b 45 08	 mov	 eax, DWORD PTR _p$[ebp]
  00018	8b 48 0c	 mov	 ecx, DWORD PTR [eax+12]
  0001b	89 4d fc	 mov	 DWORD PTR _pBasic$[ebp], ecx

; 453  : 	STEvent *pEvent = pBasic->getEvent();

  0001e	8b 4d fc	 mov	 ecx, DWORD PTR _pBasic$[ebp]
  00021	e8 00 00 00 00	 call	 ?getEvent@CComQueueThread@@QAEPAUSTEvent@@XZ ; CComQueueThread::getEvent
  00026	89 45 f8	 mov	 DWORD PTR _pEvent$[ebp], eax
$LN2@eventThrea:

; 454  : 	while (pEvent)

  00029	83 7d f8 00	 cmp	 DWORD PTR _pEvent$[ebp], 0
  0002d	74 45		 je	 SHORT $LN1@eventThrea

; 455  : 	{
; 456  : 		pEvent->fpProc(pEvent->pObj, pEvent->pObj2, pEvent->nValue);

  0002f	8b f4		 mov	 esi, esp
  00031	8b 55 f8	 mov	 edx, DWORD PTR _pEvent$[ebp]
  00034	8b 42 04	 mov	 eax, DWORD PTR [edx+4]
  00037	50		 push	 eax
  00038	8b 4d f8	 mov	 ecx, DWORD PTR _pEvent$[ebp]
  0003b	8b 51 0c	 mov	 edx, DWORD PTR [ecx+12]
  0003e	52		 push	 edx
  0003f	8b 45 f8	 mov	 eax, DWORD PTR _pEvent$[ebp]
  00042	8b 48 08	 mov	 ecx, DWORD PTR [eax+8]
  00045	51		 push	 ecx
  00046	8b 55 f8	 mov	 edx, DWORD PTR _pEvent$[ebp]
  00049	8b 42 10	 mov	 eax, DWORD PTR [edx+16]
  0004c	ff d0		 call	 eax
  0004e	83 c4 0c	 add	 esp, 12			; 0000000cH
  00051	3b f4		 cmp	 esi, esp
  00053	e8 00 00 00 00	 call	 __RTC_CheckEsp

; 457  : 		gs_pCore->delEvent(pEvent);

  00058	8b 4d f8	 mov	 ecx, DWORD PTR _pEvent$[ebp]
  0005b	51		 push	 ecx
  0005c	8b 0d 00 00 00
	00		 mov	 ecx, DWORD PTR ?gs_pCore@@3PAVCCoreList@@A ; gs_pCore
  00062	e8 00 00 00 00	 call	 ?delEvent@CCoreList@@QAE_NPAUSTEvent@@@Z ; CCoreList::delEvent

; 458  : 		pEvent = pBasic->getEvent();

  00067	8b 4d fc	 mov	 ecx, DWORD PTR _pBasic$[ebp]
  0006a	e8 00 00 00 00	 call	 ?getEvent@CComQueueThread@@QAEPAUSTEvent@@XZ ; CComQueueThread::getEvent
  0006f	89 45 f8	 mov	 DWORD PTR _pEvent$[ebp], eax

; 459  : 	}

  00072	eb b5		 jmp	 SHORT $LN2@eventThrea
$LN1@eventThrea:

; 460  : }

  00074	5e		 pop	 esi
  00075	83 c4 08	 add	 esp, 8
  00078	3b ec		 cmp	 ebp, esp
  0007a	e8 00 00 00 00	 call	 __RTC_CheckEsp
  0007f	8b e5		 mov	 esp, ebp
  00081	5d		 pop	 ebp
  00082	c3		 ret	 0
?eventThreadLoop@@YAXPAUSTThreadInfo@@@Z ENDP		; eventThreadLoop
_TEXT	ENDS
; Function compile flags: /Odtp /RTCsu
;	COMDAT ??_G?$CMemList@USTIntervalInfo@@@@QAEPAXI@Z
_TEXT	SEGMENT
_this$ = -4						; size = 4
___flags$ = 8						; size = 4
??_G?$CMemList@USTIntervalInfo@@@@QAEPAXI@Z PROC	; CMemList<STIntervalInfo>::`scalar deleting destructor', COMDAT
; _this$ = ecx
  00000	55		 push	 ebp
  00001	8b ec		 mov	 ebp, esp
  00003	51		 push	 ecx
  00004	c7 45 fc cc cc
	cc cc		 mov	 DWORD PTR [ebp-4], -858993460 ; ccccccccH
  0000b	89 4d fc	 mov	 DWORD PTR _this$[ebp], ecx
  0000e	8b 4d fc	 mov	 ecx, DWORD PTR _this$[ebp]
  00011	e8 00 00 00 00	 call	 ??1?$CMemList@USTIntervalInfo@@@@QAE@XZ ; CMemList<STIntervalInfo>::~CMemList<STIntervalInfo>
  00016	8b 45 08	 mov	 eax, DWORD PTR ___flags$[ebp]
  00019	83 e0 01	 and	 eax, 1
  0001c	74 0e		 je	 SHORT $LN2@scalar
  0001e	6a 1c		 push	 28			; 0000001cH
  00020	8b 4d fc	 mov	 ecx, DWORD PTR _this$[ebp]
  00023	51		 push	 ecx
  00024	e8 00 00 00 00	 call	 ??3@YAXPAXI@Z		; operator delete
  00029	83 c4 08	 add	 esp, 8
$LN2@scalar:
  0002c	8b 45 fc	 mov	 eax, DWORD PTR _this$[ebp]
  0002f	83 c4 04	 add	 esp, 4
  00032	3b ec		 cmp	 ebp, esp
  00034	e8 00 00 00 00	 call	 __RTC_CheckEsp
  00039	8b e5		 mov	 esp, ebp
  0003b	5d		 pop	 ebp
  0003c	c2 04 00	 ret	 4
??_G?$CMemList@USTIntervalInfo@@@@QAEPAXI@Z ENDP	; CMemList<STIntervalInfo>::`scalar deleting destructor'
_TEXT	ENDS
; Function compile flags: /Odtp /RTCsu
;	COMDAT ?__autoclassinit2@?$CMemList@USTIntervalInfo@@@@QAEXI@Z
_TEXT	SEGMENT
_this$ = -4						; size = 4
_classSize$ = 8						; size = 4
?__autoclassinit2@?$CMemList@USTIntervalInfo@@@@QAEXI@Z PROC ; CMemList<STIntervalInfo>::__autoclassinit2, COMDAT
; _this$ = ecx
  00000	55		 push	 ebp
  00001	8b ec		 mov	 ebp, esp
  00003	51		 push	 ecx
  00004	c7 45 fc cc cc
	cc cc		 mov	 DWORD PTR [ebp-4], -858993460 ; ccccccccH
  0000b	89 4d fc	 mov	 DWORD PTR _this$[ebp], ecx
  0000e	8b 45 08	 mov	 eax, DWORD PTR _classSize$[ebp]
  00011	50		 push	 eax
  00012	6a 00		 push	 0
  00014	8b 4d fc	 mov	 ecx, DWORD PTR _this$[ebp]
  00017	51		 push	 ecx
  00018	e8 00 00 00 00	 call	 _memset
  0001d	83 c4 0c	 add	 esp, 12			; 0000000cH
  00020	83 c4 04	 add	 esp, 4
  00023	3b ec		 cmp	 ebp, esp
  00025	e8 00 00 00 00	 call	 __RTC_CheckEsp
  0002a	8b e5		 mov	 esp, ebp
  0002c	5d		 pop	 ebp
  0002d	c2 04 00	 ret	 4
?__autoclassinit2@?$CMemList@USTIntervalInfo@@@@QAEXI@Z ENDP ; CMemList<STIntervalInfo>::__autoclassinit2
_TEXT	ENDS
; Function compile flags: /Odtp /RTCsu
; File e:\infinia-library-3.0\com\include\comtlist.h
;	COMDAT ?_del@?$CMemList@USTIntervalInfo@@@@AAEXH@Z
_TEXT	SEGMENT
_this$ = -4						; size = 4
_i$ = 8							; size = 4
?_del@?$CMemList@USTIntervalInfo@@@@AAEXH@Z PROC	; CMemList<STIntervalInfo>::_del, COMDAT
; _this$ = ecx

; 283  : {

  00000	55		 push	 ebp
  00001	8b ec		 mov	 ebp, esp
  00003	51		 push	 ecx
  00004	c7 45 fc cc cc
	cc cc		 mov	 DWORD PTR [ebp-4], -858993460 ; ccccccccH
  0000b	89 4d fc	 mov	 DWORD PTR _this$[ebp], ecx

; 284  : 	m_nCurCount.atomic_decrement();

  0000e	8b 4d fc	 mov	 ecx, DWORD PTR _this$[ebp]
  00011	83 c1 08	 add	 ecx, 8
  00014	e8 00 00 00 00	 call	 ?atomic_decrement@win_atomic@win32@common@@QAEJXZ ; common::win32::win_atomic::atomic_decrement

; 285  : 	m_nFlagArray[i].setCount(0);

  00019	6a 00		 push	 0
  0001b	8b 45 fc	 mov	 eax, DWORD PTR _this$[ebp]
  0001e	8b 48 04	 mov	 ecx, DWORD PTR [eax+4]
  00021	8b 55 08	 mov	 edx, DWORD PTR _i$[ebp]
  00024	8d 0c 91	 lea	 ecx, DWORD PTR [ecx+edx*4]
  00027	e8 00 00 00 00	 call	 ?setCount@win_atomic@win32@common@@QAEXH@Z ; common::win32::win_atomic::setCount

; 286  : 	if(m_nEmptyFirstIdx < 0) m_nEmptyFirstIdx = i;

  0002c	8b 45 fc	 mov	 eax, DWORD PTR _this$[ebp]
  0002f	83 78 0c 00	 cmp	 DWORD PTR [eax+12], 0
  00033	7d 0b		 jge	 SHORT $LN2@del
  00035	8b 4d fc	 mov	 ecx, DWORD PTR _this$[ebp]
  00038	8b 55 08	 mov	 edx, DWORD PTR _i$[ebp]
  0003b	89 51 0c	 mov	 DWORD PTR [ecx+12], edx
  0003e	eb 14		 jmp	 SHORT $LN1@del
$LN2@del:

; 287  : 	else if (i < m_nEmptyFirstIdx) m_nEmptyFirstIdx = i;

  00040	8b 45 fc	 mov	 eax, DWORD PTR _this$[ebp]
  00043	8b 4d 08	 mov	 ecx, DWORD PTR _i$[ebp]
  00046	3b 48 0c	 cmp	 ecx, DWORD PTR [eax+12]
  00049	7d 09		 jge	 SHORT $LN1@del
  0004b	8b 55 fc	 mov	 edx, DWORD PTR _this$[ebp]
  0004e	8b 45 08	 mov	 eax, DWORD PTR _i$[ebp]
  00051	89 42 0c	 mov	 DWORD PTR [edx+12], eax
$LN1@del:

; 288  : }

  00054	83 c4 04	 add	 esp, 4
  00057	3b ec		 cmp	 ebp, esp
  00059	e8 00 00 00 00	 call	 __RTC_CheckEsp
  0005e	8b e5		 mov	 esp, ebp
  00060	5d		 pop	 ebp
  00061	c2 04 00	 ret	 4
?_del@?$CMemList@USTIntervalInfo@@@@AAEXH@Z ENDP	; CMemList<STIntervalInfo>::_del
_TEXT	ENDS
; Function compile flags: /Odtp /RTCsu
; File e:\infinia-library-3.0\com\include\comtlist.h
;	COMDAT ?del@?$CMemList@USTIntervalInfo@@@@QAE_NPAUSTIntervalInfo@@@Z
_TEXT	SEGMENT
_i$ = -8						; size = 4
_this$ = -4						; size = 4
_Obj$ = 8						; size = 4
?del@?$CMemList@USTIntervalInfo@@@@QAE_NPAUSTIntervalInfo@@@Z PROC ; CMemList<STIntervalInfo>::del, COMDAT
; _this$ = ecx

; 268  : {

  00000	55		 push	 ebp
  00001	8b ec		 mov	 ebp, esp
  00003	83 ec 08	 sub	 esp, 8
  00006	c7 45 f8 cc cc
	cc cc		 mov	 DWORD PTR [ebp-8], -858993460 ; ccccccccH
  0000d	c7 45 fc cc cc
	cc cc		 mov	 DWORD PTR [ebp-4], -858993460 ; ccccccccH
  00014	89 4d fc	 mov	 DWORD PTR _this$[ebp], ecx

; 269  : 	int i;
; 270  : 	for (i = 0; i < m_nMaxCount; i++)

  00017	c7 45 f8 00 00
	00 00		 mov	 DWORD PTR _i$[ebp], 0
  0001e	eb 09		 jmp	 SHORT $LN4@del
$LN2@del:
  00020	8b 45 f8	 mov	 eax, DWORD PTR _i$[ebp]
  00023	83 c0 01	 add	 eax, 1
  00026	89 45 f8	 mov	 DWORD PTR _i$[ebp], eax
$LN4@del:
  00029	8b 4d fc	 mov	 ecx, DWORD PTR _this$[ebp]
  0002c	8b 55 f8	 mov	 edx, DWORD PTR _i$[ebp]
  0002f	3b 51 10	 cmp	 edx, DWORD PTR [ecx+16]
  00032	7d 22		 jge	 SHORT $LN3@del

; 271  : 	{
; 272  : 		if (m_pArray[i] == Obj) {

  00034	8b 45 fc	 mov	 eax, DWORD PTR _this$[ebp]
  00037	8b 08		 mov	 ecx, DWORD PTR [eax]
  00039	8b 55 f8	 mov	 edx, DWORD PTR _i$[ebp]
  0003c	8b 04 91	 mov	 eax, DWORD PTR [ecx+edx*4]
  0003f	3b 45 08	 cmp	 eax, DWORD PTR _Obj$[ebp]
  00042	75 10		 jne	 SHORT $LN5@del

; 273  : 			_del(i);

  00044	8b 4d f8	 mov	 ecx, DWORD PTR _i$[ebp]
  00047	51		 push	 ecx
  00048	8b 4d fc	 mov	 ecx, DWORD PTR _this$[ebp]
  0004b	e8 00 00 00 00	 call	 ?_del@?$CMemList@USTIntervalInfo@@@@AAEXH@Z ; CMemList<STIntervalInfo>::_del

; 274  : 			return true;

  00050	b0 01		 mov	 al, 1
  00052	eb 1b		 jmp	 SHORT $LN1@del
$LN5@del:

; 275  : 		}
; 276  : 	}

  00054	eb ca		 jmp	 SHORT $LN2@del
$LN3@del:

; 277  : 	comErrorPrint("can't find obj");

  00056	68 15 01 00 00	 push	 277			; 00000115H
  0005b	68 00 00 00 00	 push	 OFFSET $SG46979
  00060	68 00 00 00 00	 push	 OFFSET $SG46980
  00065	e8 00 00 00 00	 call	 ?comGlobalErrorProc@@YAXPADPBDH@Z ; comGlobalErrorProc
  0006a	83 c4 0c	 add	 esp, 12			; 0000000cH

; 278  : 	return false;

  0006d	32 c0		 xor	 al, al
$LN1@del:

; 279  : }

  0006f	83 c4 08	 add	 esp, 8
  00072	3b ec		 cmp	 ebp, esp
  00074	e8 00 00 00 00	 call	 __RTC_CheckEsp
  00079	8b e5		 mov	 esp, ebp
  0007b	5d		 pop	 ebp
  0007c	c2 04 00	 ret	 4
?del@?$CMemList@USTIntervalInfo@@@@QAE_NPAUSTIntervalInfo@@@Z ENDP ; CMemList<STIntervalInfo>::del
_TEXT	ENDS
; Function compile flags: /Odtp /RTCsu
; File e:\infinia-library-3.0\com\include\comtlist.h
;	COMDAT ?add@?$CMemList@USTIntervalInfo@@@@QAEHPAUSTIntervalInfo@@@Z
_TEXT	SEGMENT
_bFind$ = -13						; size = 1
_i$ = -12						; size = 4
_nAddIdx$ = -8						; size = 4
_this$ = -4						; size = 4
_Obj$ = 8						; size = 4
?add@?$CMemList@USTIntervalInfo@@@@QAEHPAUSTIntervalInfo@@@Z PROC ; CMemList<STIntervalInfo>::add, COMDAT
; _this$ = ecx

; 212  : {

  00000	55		 push	 ebp
  00001	8b ec		 mov	 ebp, esp
  00003	83 ec 10	 sub	 esp, 16			; 00000010H
  00006	b8 cc cc cc cc	 mov	 eax, -858993460		; ccccccccH
  0000b	89 45 f0	 mov	 DWORD PTR [ebp-16], eax
  0000e	89 45 f4	 mov	 DWORD PTR [ebp-12], eax
  00011	89 45 f8	 mov	 DWORD PTR [ebp-8], eax
  00014	89 45 fc	 mov	 DWORD PTR [ebp-4], eax
  00017	89 4d fc	 mov	 DWORD PTR _this$[ebp], ecx

; 213  : 	int nAddIdx = m_nEmptyFirstIdx, i;

  0001a	8b 45 fc	 mov	 eax, DWORD PTR _this$[ebp]
  0001d	8b 48 0c	 mov	 ecx, DWORD PTR [eax+12]
  00020	89 4d f8	 mov	 DWORD PTR _nAddIdx$[ebp], ecx

; 214  : 	bool bFind = false;

  00023	c6 45 f3 00	 mov	 BYTE PTR _bFind$[ebp], 0

; 215  : 
; 216  : 	if (0 <= nAddIdx) {

  00027	83 7d f8 00	 cmp	 DWORD PTR _nAddIdx$[ebp], 0
  0002b	7c 42		 jl	 SHORT $LN5@add

; 217  : 		if (!m_nFlagArray[nAddIdx].getCount()) {

  0002d	8b 55 fc	 mov	 edx, DWORD PTR _this$[ebp]
  00030	8b 42 04	 mov	 eax, DWORD PTR [edx+4]
  00033	8b 4d f8	 mov	 ecx, DWORD PTR _nAddIdx$[ebp]
  00036	8d 0c 88	 lea	 ecx, DWORD PTR [eax+ecx*4]
  00039	e8 00 00 00 00	 call	 ?getCount@win_atomic@win32@common@@QAEHXZ ; common::win32::win_atomic::getCount
  0003e	85 c0		 test	 eax, eax
  00040	75 2d		 jne	 SHORT $LN5@add

; 218  : 			if (!m_nFlagArray[nAddIdx].atomic_compare_exchange(1, 0)) {

  00042	6a 00		 push	 0
  00044	6a 01		 push	 1
  00046	8b 55 fc	 mov	 edx, DWORD PTR _this$[ebp]
  00049	8b 42 04	 mov	 eax, DWORD PTR [edx+4]
  0004c	8b 4d f8	 mov	 ecx, DWORD PTR _nAddIdx$[ebp]
  0004f	8d 0c 88	 lea	 ecx, DWORD PTR [eax+ecx*4]
  00052	e8 00 00 00 00	 call	 ?atomic_compare_exchange@win_atomic@win32@common@@QAEHHH@Z ; common::win32::win_atomic::atomic_compare_exchange
  00057	85 c0		 test	 eax, eax
  00059	75 14		 jne	 SHORT $LN5@add

; 219  : 				m_nEmptyFirstIdx = -1;

  0005b	8b 55 fc	 mov	 edx, DWORD PTR _this$[ebp]
  0005e	c7 42 0c ff ff
	ff ff		 mov	 DWORD PTR [edx+12], -1

; 220  : 				goto ADD_SUCCESS;

  00065	e9 9c 00 00 00	 jmp	 $ADD_SUCCESS$16
  0006a	e9 97 00 00 00	 jmp	 $ADD_SUCCESS$16
$LN5@add:

; 221  : 			}
; 222  : 		}
; 223  : 	}
; 224  : 
; 225  : 	nAddIdx = m_nCurCount.getCount();

  0006f	8b 4d fc	 mov	 ecx, DWORD PTR _this$[ebp]
  00072	83 c1 08	 add	 ecx, 8
  00075	e8 00 00 00 00	 call	 ?getCount@win_atomic@win32@common@@QAEHXZ ; common::win32::win_atomic::getCount
  0007a	89 45 f8	 mov	 DWORD PTR _nAddIdx$[ebp], eax

; 226  : 	for (i = 0; i < m_nMaxCount; i++) {

  0007d	c7 45 f4 00 00
	00 00		 mov	 DWORD PTR _i$[ebp], 0
  00084	eb 09		 jmp	 SHORT $LN4@add
$LN2@add:
  00086	8b 45 f4	 mov	 eax, DWORD PTR _i$[ebp]
  00089	83 c0 01	 add	 eax, 1
  0008c	89 45 f4	 mov	 DWORD PTR _i$[ebp], eax
$LN4@add:
  0008f	8b 4d fc	 mov	 ecx, DWORD PTR _this$[ebp]
  00092	8b 55 f4	 mov	 edx, DWORD PTR _i$[ebp]
  00095	3b 51 10	 cmp	 edx, DWORD PTR [ecx+16]
  00098	7d 6c		 jge	 SHORT $ADD_SUCCESS$16

; 227  : 		if (m_nMaxCount <= m_nCurCount.getCount()) goto ADD_ERROR;

  0009a	8b 4d fc	 mov	 ecx, DWORD PTR _this$[ebp]
  0009d	83 c1 08	 add	 ecx, 8
  000a0	e8 00 00 00 00	 call	 ?getCount@win_atomic@win32@common@@QAEHXZ ; common::win32::win_atomic::getCount
  000a5	8b 4d fc	 mov	 ecx, DWORD PTR _this$[ebp]
  000a8	39 41 10	 cmp	 DWORD PTR [ecx+16], eax
  000ab	7f 0a		 jg	 SHORT $LN9@add
  000ad	e9 85 00 00 00	 jmp	 $ADD_ERROR$17
  000b2	e9 80 00 00 00	 jmp	 $ADD_ERROR$17
$LN9@add:

; 228  : 		if (nAddIdx == m_nMaxCount) nAddIdx = 0;

  000b7	8b 55 fc	 mov	 edx, DWORD PTR _this$[ebp]
  000ba	8b 45 f8	 mov	 eax, DWORD PTR _nAddIdx$[ebp]
  000bd	3b 42 10	 cmp	 eax, DWORD PTR [edx+16]
  000c0	75 07		 jne	 SHORT $LN11@add
  000c2	c7 45 f8 00 00
	00 00		 mov	 DWORD PTR _nAddIdx$[ebp], 0
$LN11@add:

; 229  : 		if (!m_nFlagArray[nAddIdx].getCount()) {

  000c9	8b 4d fc	 mov	 ecx, DWORD PTR _this$[ebp]
  000cc	8b 51 04	 mov	 edx, DWORD PTR [ecx+4]
  000cf	8b 45 f8	 mov	 eax, DWORD PTR _nAddIdx$[ebp]
  000d2	8d 0c 82	 lea	 ecx, DWORD PTR [edx+eax*4]
  000d5	e8 00 00 00 00	 call	 ?getCount@win_atomic@win32@common@@QAEHXZ ; common::win32::win_atomic::getCount
  000da	85 c0		 test	 eax, eax
  000dc	75 1d		 jne	 SHORT $LN12@add

; 230  : 			if (!m_nFlagArray[nAddIdx].atomic_compare_exchange(1, 0)) goto ADD_SUCCESS;

  000de	6a 00		 push	 0
  000e0	6a 01		 push	 1
  000e2	8b 4d fc	 mov	 ecx, DWORD PTR _this$[ebp]
  000e5	8b 51 04	 mov	 edx, DWORD PTR [ecx+4]
  000e8	8b 45 f8	 mov	 eax, DWORD PTR _nAddIdx$[ebp]
  000eb	8d 0c 82	 lea	 ecx, DWORD PTR [edx+eax*4]
  000ee	e8 00 00 00 00	 call	 ?atomic_compare_exchange@win_atomic@win32@common@@QAEHHH@Z ; common::win32::win_atomic::atomic_compare_exchange
  000f3	85 c0		 test	 eax, eax
  000f5	75 04		 jne	 SHORT $LN12@add
  000f7	eb 0d		 jmp	 SHORT $ADD_SUCCESS$16
  000f9	eb 0b		 jmp	 SHORT $ADD_SUCCESS$16
$LN12@add:

; 231  : 		}
; 232  : 		nAddIdx++;

  000fb	8b 4d f8	 mov	 ecx, DWORD PTR _nAddIdx$[ebp]
  000fe	83 c1 01	 add	 ecx, 1
  00101	89 4d f8	 mov	 DWORD PTR _nAddIdx$[ebp], ecx

; 233  : 	}

  00104	eb 80		 jmp	 SHORT $LN2@add
$ADD_SUCCESS$16:

; 234  : 
; 235  : ADD_SUCCESS:
; 236  : 	m_pArray[nAddIdx] = Obj;

  00106	8b 55 fc	 mov	 edx, DWORD PTR _this$[ebp]
  00109	8b 02		 mov	 eax, DWORD PTR [edx]
  0010b	8b 4d f8	 mov	 ecx, DWORD PTR _nAddIdx$[ebp]
  0010e	8b 55 08	 mov	 edx, DWORD PTR _Obj$[ebp]
  00111	89 14 88	 mov	 DWORD PTR [eax+ecx*4], edx

; 237  : 	m_nFlagArray[nAddIdx].setCount(2);

  00114	6a 02		 push	 2
  00116	8b 45 fc	 mov	 eax, DWORD PTR _this$[ebp]
  00119	8b 48 04	 mov	 ecx, DWORD PTR [eax+4]
  0011c	8b 55 f8	 mov	 edx, DWORD PTR _nAddIdx$[ebp]
  0011f	8d 0c 91	 lea	 ecx, DWORD PTR [ecx+edx*4]
  00122	e8 00 00 00 00	 call	 ?setCount@win_atomic@win32@common@@QAEXH@Z ; common::win32::win_atomic::setCount

; 238  : 	m_nCurCount.atomic_increment();

  00127	8b 4d fc	 mov	 ecx, DWORD PTR _this$[ebp]
  0012a	83 c1 08	 add	 ecx, 8
  0012d	e8 00 00 00 00	 call	 ?atomic_increment@win_atomic@win32@common@@QAEJXZ ; common::win32::win_atomic::atomic_increment

; 239  : 	return nAddIdx;

  00132	8b 45 f8	 mov	 eax, DWORD PTR _nAddIdx$[ebp]
  00135	eb 33		 jmp	 SHORT $LN1@add
$ADD_ERROR$17:

; 240  : 
; 241  : ADD_ERROR :
; 242  : 	_stprintf(g_szMessage, _T("FULL! m_nMaxCount[%d]"), m_nMaxCount);

  00137	8b 45 fc	 mov	 eax, DWORD PTR _this$[ebp]
  0013a	8b 48 10	 mov	 ecx, DWORD PTR [eax+16]
  0013d	51		 push	 ecx
  0013e	68 00 00 00 00	 push	 OFFSET $SG46967
  00143	68 00 00 00 00	 push	 OFFSET ?g_szMessage@@3PADA ; g_szMessage
  00148	e8 00 00 00 00	 call	 _sprintf
  0014d	83 c4 0c	 add	 esp, 12			; 0000000cH

; 243  : 	comErrorPrint(g_szMessage);

  00150	68 f3 00 00 00	 push	 243			; 000000f3H
  00155	68 00 00 00 00	 push	 OFFSET $SG46968
  0015a	68 00 00 00 00	 push	 OFFSET ?g_szMessage@@3PADA ; g_szMessage
  0015f	e8 00 00 00 00	 call	 ?comGlobalErrorProc@@YAXPADPBDH@Z ; comGlobalErrorProc
  00164	83 c4 0c	 add	 esp, 12			; 0000000cH

; 244  : 	return -1;

  00167	83 c8 ff	 or	 eax, -1
$LN1@add:

; 245  : }

  0016a	83 c4 10	 add	 esp, 16			; 00000010H
  0016d	3b ec		 cmp	 ebp, esp
  0016f	e8 00 00 00 00	 call	 __RTC_CheckEsp
  00174	8b e5		 mov	 esp, ebp
  00176	5d		 pop	 ebp
  00177	c2 04 00	 ret	 4
?add@?$CMemList@USTIntervalInfo@@@@QAEHPAUSTIntervalInfo@@@Z ENDP ; CMemList<STIntervalInfo>::add
_TEXT	ENDS
; Function compile flags: /Odtp /RTCsu
; File e:\infinia-library-3.0\com\include\comtlist.h
;	COMDAT ?getNext@?$CMemList@USTIntervalInfo@@@@QAEPAUSTIntervalInfo@@PAH@Z
_TEXT	SEGMENT
_idx$1 = -12						; size = 4
_i$ = -8						; size = 4
_this$ = -4						; size = 4
_pCurIdx$ = 8						; size = 4
?getNext@?$CMemList@USTIntervalInfo@@@@QAEPAUSTIntervalInfo@@PAH@Z PROC ; CMemList<STIntervalInfo>::getNext, COMDAT
; _this$ = ecx

; 136  : {

  00000	55		 push	 ebp
  00001	8b ec		 mov	 ebp, esp
  00003	83 ec 0c	 sub	 esp, 12			; 0000000cH
  00006	c7 45 f4 cc cc
	cc cc		 mov	 DWORD PTR [ebp-12], -858993460 ; ccccccccH
  0000d	c7 45 f8 cc cc
	cc cc		 mov	 DWORD PTR [ebp-8], -858993460 ; ccccccccH
  00014	c7 45 fc cc cc
	cc cc		 mov	 DWORD PTR [ebp-4], -858993460 ; ccccccccH
  0001b	89 4d fc	 mov	 DWORD PTR _this$[ebp], ecx

; 137  : 	int i = *pCurIdx;

  0001e	8b 45 08	 mov	 eax, DWORD PTR _pCurIdx$[ebp]
  00021	8b 08		 mov	 ecx, DWORD PTR [eax]
  00023	89 4d f8	 mov	 DWORD PTR _i$[ebp], ecx

; 138  : 	if (i < m_nMaxCount)

  00026	8b 55 fc	 mov	 edx, DWORD PTR _this$[ebp]
  00029	8b 45 f8	 mov	 eax, DWORD PTR _i$[ebp]
  0002c	3b 42 10	 cmp	 eax, DWORD PTR [edx+16]
  0002f	7d 79		 jge	 SHORT $LN5@getNext

; 139  : 	{
; 140  : 		if (m_nFlagArray[i].getCount() == 2) {

  00031	8b 4d fc	 mov	 ecx, DWORD PTR _this$[ebp]
  00034	8b 51 04	 mov	 edx, DWORD PTR [ecx+4]
  00037	8b 45 f8	 mov	 eax, DWORD PTR _i$[ebp]
  0003a	8d 0c 82	 lea	 ecx, DWORD PTR [edx+eax*4]
  0003d	e8 00 00 00 00	 call	 ?getCount@win_atomic@win32@common@@QAEHXZ ; common::win32::win_atomic::getCount
  00042	83 f8 02	 cmp	 eax, 2
  00045	75 17		 jne	 SHORT $LN6@getNext

; 141  : 			*pCurIdx = i;

  00047	8b 4d 08	 mov	 ecx, DWORD PTR _pCurIdx$[ebp]
  0004a	8b 55 f8	 mov	 edx, DWORD PTR _i$[ebp]
  0004d	89 11		 mov	 DWORD PTR [ecx], edx

; 142  : 			return m_pArray[i];

  0004f	8b 45 fc	 mov	 eax, DWORD PTR _this$[ebp]
  00052	8b 08		 mov	 ecx, DWORD PTR [eax]
  00054	8b 55 f8	 mov	 edx, DWORD PTR _i$[ebp]
  00057	8b 04 91	 mov	 eax, DWORD PTR [ecx+edx*4]
  0005a	eb 50		 jmp	 SHORT $LN1@getNext

; 143  : 		}
; 144  : 		else

  0005c	eb 4c		 jmp	 SHORT $LN5@getNext
$LN6@getNext:

; 145  : 		{
; 146  : 			int idx = i + 1;

  0005e	8b 45 f8	 mov	 eax, DWORD PTR _i$[ebp]
  00061	83 c0 01	 add	 eax, 1
  00064	89 45 f4	 mov	 DWORD PTR _idx$1[ebp], eax

; 147  : 			for (idx; idx < m_nMaxCount; idx++)

  00067	eb 09		 jmp	 SHORT $LN4@getNext
$LN2@getNext:
  00069	8b 4d f4	 mov	 ecx, DWORD PTR _idx$1[ebp]
  0006c	83 c1 01	 add	 ecx, 1
  0006f	89 4d f4	 mov	 DWORD PTR _idx$1[ebp], ecx
$LN4@getNext:
  00072	8b 55 fc	 mov	 edx, DWORD PTR _this$[ebp]
  00075	8b 45 f4	 mov	 eax, DWORD PTR _idx$1[ebp]
  00078	3b 42 10	 cmp	 eax, DWORD PTR [edx+16]
  0007b	7d 2d		 jge	 SHORT $LN5@getNext

; 148  : 			{
; 149  : 				if (m_nFlagArray[idx].getCount() == 2) {

  0007d	8b 4d fc	 mov	 ecx, DWORD PTR _this$[ebp]
  00080	8b 51 04	 mov	 edx, DWORD PTR [ecx+4]
  00083	8b 45 f4	 mov	 eax, DWORD PTR _idx$1[ebp]
  00086	8d 0c 82	 lea	 ecx, DWORD PTR [edx+eax*4]
  00089	e8 00 00 00 00	 call	 ?getCount@win_atomic@win32@common@@QAEHXZ ; common::win32::win_atomic::getCount
  0008e	83 f8 02	 cmp	 eax, 2
  00091	75 15		 jne	 SHORT $LN8@getNext

; 150  : 					*pCurIdx = idx;

  00093	8b 4d 08	 mov	 ecx, DWORD PTR _pCurIdx$[ebp]
  00096	8b 55 f4	 mov	 edx, DWORD PTR _idx$1[ebp]
  00099	89 11		 mov	 DWORD PTR [ecx], edx

; 151  : 					return m_pArray[idx];

  0009b	8b 45 fc	 mov	 eax, DWORD PTR _this$[ebp]
  0009e	8b 08		 mov	 ecx, DWORD PTR [eax]
  000a0	8b 55 f4	 mov	 edx, DWORD PTR _idx$1[ebp]
  000a3	8b 04 91	 mov	 eax, DWORD PTR [ecx+edx*4]
  000a6	eb 04		 jmp	 SHORT $LN1@getNext
$LN8@getNext:

; 152  : 				}
; 153  : 			}

  000a8	eb bf		 jmp	 SHORT $LN2@getNext
$LN5@getNext:

; 154  : 		}
; 155  : 	}
; 156  : 	return NULL;

  000aa	33 c0		 xor	 eax, eax
$LN1@getNext:

; 157  : }

  000ac	83 c4 0c	 add	 esp, 12			; 0000000cH
  000af	3b ec		 cmp	 ebp, esp
  000b1	e8 00 00 00 00	 call	 __RTC_CheckEsp
  000b6	8b e5		 mov	 esp, ebp
  000b8	5d		 pop	 ebp
  000b9	c2 04 00	 ret	 4
?getNext@?$CMemList@USTIntervalInfo@@@@QAEPAUSTIntervalInfo@@PAH@Z ENDP ; CMemList<STIntervalInfo>::getNext
_TEXT	ENDS
; Function compile flags: /Odtp /RTCsu
; File e:\infinia-library-3.0\com\include\comtlist.h
;	COMDAT ?alloc@?$CMemList@USTIntervalInfo@@@@QAEHHW4E_ALLOC_TYPE@@@Z
_TEXT	SEGMENT
tv133 = -36						; size = 4
$T2 = -32						; size = 4
$T3 = -28						; size = 4
$T4 = -24						; size = 4
_i$ = -20						; size = 4
_this$ = -16						; size = 4
__$EHRec$ = -12						; size = 12
_nMaxCount$ = 8						; size = 4
_type$ = 12						; size = 4
?alloc@?$CMemList@USTIntervalInfo@@@@QAEHHW4E_ALLOC_TYPE@@@Z PROC ; CMemList<STIntervalInfo>::alloc, COMDAT
; _this$ = ecx

; 104  : int CMemList<T>::alloc(int nMaxCount, E_ALLOC_TYPE type) {

  00000	55		 push	 ebp
  00001	8b ec		 mov	 ebp, esp
  00003	6a ff		 push	 -1
  00005	68 00 00 00 00	 push	 __ehhandler$?alloc@?$CMemList@USTIntervalInfo@@@@QAEHHW4E_ALLOC_TYPE@@@Z
  0000a	64 a1 00 00 00
	00		 mov	 eax, DWORD PTR fs:0
  00010	50		 push	 eax
  00011	83 ec 18	 sub	 esp, 24			; 00000018H
  00014	56		 push	 esi
  00015	b8 cc cc cc cc	 mov	 eax, -858993460		; ccccccccH
  0001a	89 45 dc	 mov	 DWORD PTR [ebp-36], eax
  0001d	89 45 e0	 mov	 DWORD PTR [ebp-32], eax
  00020	89 45 e4	 mov	 DWORD PTR [ebp-28], eax
  00023	89 45 e8	 mov	 DWORD PTR [ebp-24], eax
  00026	89 45 ec	 mov	 DWORD PTR [ebp-20], eax
  00029	89 45 f0	 mov	 DWORD PTR [ebp-16], eax
  0002c	a1 00 00 00 00	 mov	 eax, DWORD PTR ___security_cookie
  00031	33 c5		 xor	 eax, ebp
  00033	50		 push	 eax
  00034	8d 45 f4	 lea	 eax, DWORD PTR __$EHRec$[ebp]
  00037	64 a3 00 00 00
	00		 mov	 DWORD PTR fs:0, eax
  0003d	89 4d f0	 mov	 DWORD PTR _this$[ebp], ecx

; 105  : 
; 106  : 	//T  ObjMem = 0;	
; 107  : 
; 108  : 	m_pArray = (T **)calloc(nMaxCount, sizeof(T*));

  00040	8b f4		 mov	 esi, esp
  00042	6a 04		 push	 4
  00044	8b 45 08	 mov	 eax, DWORD PTR _nMaxCount$[ebp]
  00047	50		 push	 eax
  00048	ff 15 00 00 00
	00		 call	 DWORD PTR __imp__calloc
  0004e	83 c4 08	 add	 esp, 8
  00051	3b f4		 cmp	 esi, esp
  00053	e8 00 00 00 00	 call	 __RTC_CheckEsp
  00058	8b 4d f0	 mov	 ecx, DWORD PTR _this$[ebp]
  0005b	89 01		 mov	 DWORD PTR [ecx], eax

; 109  : 	if (m_pArray == 0) {

  0005d	8b 55 f0	 mov	 edx, DWORD PTR _this$[ebp]
  00060	83 3a 00	 cmp	 DWORD PTR [edx], 0
  00063	75 07		 jne	 SHORT $LN5@alloc

; 110  : 		//_stprintf(m_szMessage, _T("CMemList::m_pArray allock ERROR"));
; 111  : 		return 0;

  00065	33 c0		 xor	 eax, eax
  00067	e9 0a 01 00 00	 jmp	 $LN1@alloc
$LN5@alloc:

; 112  : 	}
; 113  : 
; 114  : 	m_nFlagArray = new(std::nothrow)atomic_nr[nMaxCount];

  0006c	8b 45 08	 mov	 eax, DWORD PTR _nMaxCount$[ebp]
  0006f	89 45 e8	 mov	 DWORD PTR $T4[ebp], eax
  00072	68 00 00 00 00	 push	 OFFSET ?nothrow@std@@3Unothrow_t@1@B ; std::nothrow
  00077	33 c9		 xor	 ecx, ecx
  00079	8b 45 e8	 mov	 eax, DWORD PTR $T4[ebp]
  0007c	ba 04 00 00 00	 mov	 edx, 4
  00081	f7 e2		 mul	 edx
  00083	0f 90 c1	 seto	 cl
  00086	f7 d9		 neg	 ecx
  00088	0b c8		 or	 ecx, eax
  0008a	33 c0		 xor	 eax, eax
  0008c	83 c1 04	 add	 ecx, 4
  0008f	0f 92 c0	 setb	 al
  00092	f7 d8		 neg	 eax
  00094	0b c1		 or	 eax, ecx
  00096	50		 push	 eax
  00097	e8 00 00 00 00	 call	 ??_U@YAPAXIABUnothrow_t@std@@@Z ; operator new[]
  0009c	83 c4 08	 add	 esp, 8
  0009f	89 45 e0	 mov	 DWORD PTR $T2[ebp], eax
  000a2	c7 45 fc 00 00
	00 00		 mov	 DWORD PTR __$EHRec$[ebp+8], 0
  000a9	83 7d e0 00	 cmp	 DWORD PTR $T2[ebp], 0
  000ad	74 2f		 je	 SHORT $LN8@alloc
  000af	8b 4d e0	 mov	 ecx, DWORD PTR $T2[ebp]
  000b2	8b 55 e8	 mov	 edx, DWORD PTR $T4[ebp]
  000b5	89 11		 mov	 DWORD PTR [ecx], edx
  000b7	68 00 00 00 00	 push	 OFFSET ??1win_atomic@win32@common@@QAE@XZ ; common::win32::win_atomic::~win_atomic
  000bc	68 00 00 00 00	 push	 OFFSET ??0win_atomic@win32@common@@QAE@XZ ; common::win32::win_atomic::win_atomic
  000c1	8b 45 e8	 mov	 eax, DWORD PTR $T4[ebp]
  000c4	50		 push	 eax
  000c5	6a 04		 push	 4
  000c7	8b 4d e0	 mov	 ecx, DWORD PTR $T2[ebp]
  000ca	83 c1 04	 add	 ecx, 4
  000cd	51		 push	 ecx
  000ce	e8 00 00 00 00	 call	 ??_L@YGXPAXIIP6EX0@Z1@Z
  000d3	8b 55 e0	 mov	 edx, DWORD PTR $T2[ebp]
  000d6	83 c2 04	 add	 edx, 4
  000d9	89 55 dc	 mov	 DWORD PTR tv133[ebp], edx
  000dc	eb 07		 jmp	 SHORT $LN9@alloc
$LN8@alloc:
  000de	c7 45 dc 00 00
	00 00		 mov	 DWORD PTR tv133[ebp], 0
$LN9@alloc:
  000e5	8b 45 dc	 mov	 eax, DWORD PTR tv133[ebp]
  000e8	89 45 e4	 mov	 DWORD PTR $T3[ebp], eax
  000eb	c7 45 fc ff ff
	ff ff		 mov	 DWORD PTR __$EHRec$[ebp+8], -1
  000f2	8b 4d f0	 mov	 ecx, DWORD PTR _this$[ebp]
  000f5	8b 55 e4	 mov	 edx, DWORD PTR $T3[ebp]
  000f8	89 51 04	 mov	 DWORD PTR [ecx+4], edx

; 115  : 	if (m_nFlagArray == 0) {

  000fb	8b 45 f0	 mov	 eax, DWORD PTR _this$[ebp]
  000fe	83 78 04 00	 cmp	 DWORD PTR [eax+4], 0
  00102	75 1c		 jne	 SHORT $LN6@alloc

; 116  : 		//_stprintf(m_szMessage, _T("CMemList::m_nFlagArray allock ERROR"));
; 117  : 		free(m_pArray);

  00104	8b f4		 mov	 esi, esp
  00106	8b 4d f0	 mov	 ecx, DWORD PTR _this$[ebp]
  00109	8b 11		 mov	 edx, DWORD PTR [ecx]
  0010b	52		 push	 edx
  0010c	ff 15 00 00 00
	00		 call	 DWORD PTR __imp__free
  00112	83 c4 04	 add	 esp, 4
  00115	3b f4		 cmp	 esi, esp
  00117	e8 00 00 00 00	 call	 __RTC_CheckEsp

; 118  : 		return 0;

  0011c	33 c0		 xor	 eax, eax
  0011e	eb 56		 jmp	 SHORT $LN1@alloc
$LN6@alloc:

; 119  : 	}
; 120  : 	int i;
; 121  : 	for (i = 0; i < nMaxCount; i++)

  00120	c7 45 ec 00 00
	00 00		 mov	 DWORD PTR _i$[ebp], 0
  00127	eb 09		 jmp	 SHORT $LN4@alloc
$LN2@alloc:
  00129	8b 45 ec	 mov	 eax, DWORD PTR _i$[ebp]
  0012c	83 c0 01	 add	 eax, 1
  0012f	89 45 ec	 mov	 DWORD PTR _i$[ebp], eax
$LN4@alloc:
  00132	8b 4d ec	 mov	 ecx, DWORD PTR _i$[ebp]
  00135	3b 4d 08	 cmp	 ecx, DWORD PTR _nMaxCount$[ebp]
  00138	7d 13		 jge	 SHORT $LN3@alloc

; 122  : 	{
; 123  : 		m_nFlagArray[i].init();

  0013a	8b 55 f0	 mov	 edx, DWORD PTR _this$[ebp]
  0013d	8b 42 04	 mov	 eax, DWORD PTR [edx+4]
  00140	8b 4d ec	 mov	 ecx, DWORD PTR _i$[ebp]
  00143	8d 0c 88	 lea	 ecx, DWORD PTR [eax+ecx*4]
  00146	e8 00 00 00 00	 call	 ?init@win_atomic@win32@common@@QAEXXZ ; common::win32::win_atomic::init

; 124  : 	}

  0014b	eb dc		 jmp	 SHORT $LN2@alloc
$LN3@alloc:

; 125  : 
; 126  : 	m_nMaxCount = nMaxCount;

  0014d	8b 55 f0	 mov	 edx, DWORD PTR _this$[ebp]
  00150	8b 45 08	 mov	 eax, DWORD PTR _nMaxCount$[ebp]
  00153	89 42 10	 mov	 DWORD PTR [edx+16], eax

; 127  : 	m_nObjAllocType = type;

  00156	8b 4d f0	 mov	 ecx, DWORD PTR _this$[ebp]
  00159	8b 55 0c	 mov	 edx, DWORD PTR _type$[ebp]
  0015c	89 51 14	 mov	 DWORD PTR [ecx+20], edx

; 128  : 	m_pEnd = m_pArray[nMaxCount-1];

  0015f	8b 45 f0	 mov	 eax, DWORD PTR _this$[ebp]
  00162	8b 08		 mov	 ecx, DWORD PTR [eax]
  00164	8b 55 f0	 mov	 edx, DWORD PTR _this$[ebp]
  00167	8b 45 08	 mov	 eax, DWORD PTR _nMaxCount$[ebp]
  0016a	8b 4c 81 fc	 mov	 ecx, DWORD PTR [ecx+eax*4-4]
  0016e	89 4a 18	 mov	 DWORD PTR [edx+24], ecx

; 129  : 	//_stprintf(m_szMessage, _T("CMemList::alloc list m_nMaxCount[%d]"), m_nMaxCount);
; 130  : 	return 1;

  00171	b8 01 00 00 00	 mov	 eax, 1
$LN1@alloc:

; 131  : }

  00176	8b 4d f4	 mov	 ecx, DWORD PTR __$EHRec$[ebp]
  00179	64 89 0d 00 00
	00 00		 mov	 DWORD PTR fs:0, ecx
  00180	59		 pop	 ecx
  00181	5e		 pop	 esi
  00182	83 c4 24	 add	 esp, 36			; 00000024H
  00185	3b ec		 cmp	 ebp, esp
  00187	e8 00 00 00 00	 call	 __RTC_CheckEsp
  0018c	8b e5		 mov	 esp, ebp
  0018e	5d		 pop	 ebp
  0018f	c2 08 00	 ret	 8
_TEXT	ENDS
;	COMDAT text$x
text$x	SEGMENT
__unwindfunclet$?alloc@?$CMemList@USTIntervalInfo@@@@QAEHHW4E_ALLOC_TYPE@@@Z$0:
  00000	68 00 00 00 00	 push	 OFFSET ?nothrow@std@@3Unothrow_t@1@B ; std::nothrow
  00005	8b 45 e0	 mov	 eax, DWORD PTR $T2[ebp]
  00008	50		 push	 eax
  00009	e8 00 00 00 00	 call	 ??_V@YAXPAXABUnothrow_t@std@@@Z ; operator delete[]
  0000e	83 c4 08	 add	 esp, 8
  00011	c3		 ret	 0
__ehhandler$?alloc@?$CMemList@USTIntervalInfo@@@@QAEHHW4E_ALLOC_TYPE@@@Z:
  00012	8b 54 24 08	 mov	 edx, DWORD PTR [esp+8]
  00016	8d 42 0c	 lea	 eax, DWORD PTR [edx+12]
  00019	8b 4a e0	 mov	 ecx, DWORD PTR [edx-32]
  0001c	33 c8		 xor	 ecx, eax
  0001e	e8 00 00 00 00	 call	 @__security_check_cookie@4
  00023	b8 00 00 00 00	 mov	 eax, OFFSET __ehfuncinfo$?alloc@?$CMemList@USTIntervalInfo@@@@QAEHHW4E_ALLOC_TYPE@@@Z
  00028	e9 00 00 00 00	 jmp	 ___CxxFrameHandler3
text$x	ENDS
?alloc@?$CMemList@USTIntervalInfo@@@@QAEHHW4E_ALLOC_TYPE@@@Z ENDP ; CMemList<STIntervalInfo>::alloc
; Function compile flags: /Odtp /RTCsu
; File e:\infinia-library-3.0\com\include\comtlist.h
;	COMDAT ??1?$CMemList@USTIntervalInfo@@@@QAE@XZ
_TEXT	SEGMENT
tv143 = -68						; size = 4
tv93 = -64						; size = 4
tv83 = -60						; size = 4
tv79 = -56						; size = 4
$T2 = -52						; size = 4
$T3 = -48						; size = 4
$T4 = -44						; size = 4
$T5 = -40						; size = 4
_p$6 = -36						; size = 4
_idx$7 = -28						; size = 4
_this$ = -20						; size = 4
__$ArrayPad$ = -16					; size = 4
__$EHRec$ = -12						; size = 12
??1?$CMemList@USTIntervalInfo@@@@QAE@XZ PROC		; CMemList<STIntervalInfo>::~CMemList<STIntervalInfo>, COMDAT
; _this$ = ecx

; 75   : {

  00000	55		 push	 ebp
  00001	8b ec		 mov	 ebp, esp
  00003	6a ff		 push	 -1
  00005	68 00 00 00 00	 push	 __ehhandler$??1?$CMemList@USTIntervalInfo@@@@QAE@XZ
  0000a	64 a1 00 00 00
	00		 mov	 eax, DWORD PTR fs:0
  00010	50		 push	 eax
  00011	83 ec 38	 sub	 esp, 56			; 00000038H
  00014	56		 push	 esi
  00015	57		 push	 edi
  00016	51		 push	 ecx
  00017	8d 7d bc	 lea	 edi, DWORD PTR [ebp-68]
  0001a	b9 0e 00 00 00	 mov	 ecx, 14			; 0000000eH
  0001f	b8 cc cc cc cc	 mov	 eax, -858993460		; ccccccccH
  00024	f3 ab		 rep stosd
  00026	59		 pop	 ecx
  00027	a1 00 00 00 00	 mov	 eax, DWORD PTR ___security_cookie
  0002c	33 c5		 xor	 eax, ebp
  0002e	89 45 f0	 mov	 DWORD PTR __$ArrayPad$[ebp], eax
  00031	50		 push	 eax
  00032	8d 45 f4	 lea	 eax, DWORD PTR __$EHRec$[ebp]
  00035	64 a3 00 00 00
	00		 mov	 DWORD PTR fs:0, eax
  0003b	89 4d ec	 mov	 DWORD PTR _this$[ebp], ecx

; 76   : 	if (!m_pArray) return;

  0003e	8b 45 ec	 mov	 eax, DWORD PTR _this$[ebp]
  00041	83 38 00	 cmp	 DWORD PTR [eax], 0
  00044	75 05		 jne	 SHORT $LN6@CMemList
  00046	e9 7d 01 00 00	 jmp	 $LN1@CMemList
$LN6@CMemList:

; 77   : 
; 78   : 	if (ISABLETODELETE(m_nObjAllocType)) {

  0004b	8b 4d ec	 mov	 ecx, DWORD PTR _this$[ebp]
  0004e	8b 51 14	 mov	 edx, DWORD PTR [ecx+20]
  00051	52		 push	 edx
  00052	e8 00 00 00 00	 call	 ?ISABLETODELETE@@YA_NW4E_ALLOC_TYPE@@@Z ; ISABLETODELETE
  00057	83 c4 04	 add	 esp, 4
  0005a	0f b6 c0	 movzx	 eax, al
  0005d	85 c0		 test	 eax, eax
  0005f	0f 84 fc 00 00
	00		 je	 $LN7@CMemList

; 79   : 		int idx = 0;

  00065	c7 45 e4 00 00
	00 00		 mov	 DWORD PTR _idx$7[ebp], 0

; 80   : 		T *p = getNext(&idx);

  0006c	8d 4d e4	 lea	 ecx, DWORD PTR _idx$7[ebp]
  0006f	51		 push	 ecx
  00070	8b 4d ec	 mov	 ecx, DWORD PTR _this$[ebp]
  00073	e8 00 00 00 00	 call	 ?getNext@?$CMemList@USTIntervalInfo@@@@QAEPAUSTIntervalInfo@@PAH@Z ; CMemList<STIntervalInfo>::getNext
  00078	89 45 dc	 mov	 DWORD PTR _p$6[ebp], eax
$LN2@CMemList:

; 81   : 		while (p) {

  0007b	83 7d dc 00	 cmp	 DWORD PTR _p$6[ebp], 0
  0007f	0f 84 dc 00 00
	00		 je	 $LN7@CMemList

; 82   : 			idx++;

  00085	8b 55 e4	 mov	 edx, DWORD PTR _idx$7[ebp]
  00088	83 c2 01	 add	 edx, 1
  0008b	89 55 e4	 mov	 DWORD PTR _idx$7[ebp], edx

; 83   : 			switch (m_nObjAllocType) {

  0008e	8b 45 ec	 mov	 eax, DWORD PTR _this$[ebp]
  00091	8b 48 14	 mov	 ecx, DWORD PTR [eax+20]
  00094	89 4d c8	 mov	 DWORD PTR tv79[ebp], ecx
  00097	8b 55 c8	 mov	 edx, DWORD PTR tv79[ebp]
  0009a	83 ea 02	 sub	 edx, 2
  0009d	89 55 c8	 mov	 DWORD PTR tv79[ebp], edx
  000a0	83 7d c8 03	 cmp	 DWORD PTR tv79[ebp], 3
  000a4	0f 87 a3 00 00
	00		 ja	 $LN4@CMemList
  000aa	8b 45 c8	 mov	 eax, DWORD PTR tv79[ebp]
  000ad	ff 24 85 00 00
	00 00		 jmp	 DWORD PTR $LN27@CMemList[eax*4]
$LN8@CMemList:

; 84   : 			case eAlloc_Type_new		: delete p; break;

  000b4	8b 4d dc	 mov	 ecx, DWORD PTR _p$6[ebp]
  000b7	89 4d d8	 mov	 DWORD PTR $T5[ebp], ecx
  000ba	6a 1c		 push	 28			; 0000001cH
  000bc	8b 55 d8	 mov	 edx, DWORD PTR $T5[ebp]
  000bf	52		 push	 edx
  000c0	e8 00 00 00 00	 call	 ??3@YAXPAXI@Z		; operator delete
  000c5	83 c4 08	 add	 esp, 8
  000c8	83 7d d8 00	 cmp	 DWORD PTR $T5[ebp], 0
  000cc	75 09		 jne	 SHORT $LN17@CMemList
  000ce	c7 45 c4 00 00
	00 00		 mov	 DWORD PTR tv83[ebp], 0
  000d5	eb 0d		 jmp	 SHORT $LN18@CMemList
$LN17@CMemList:
  000d7	c7 45 dc 23 81
	00 00		 mov	 DWORD PTR _p$6[ebp], 33059 ; 00008123H
  000de	8b 45 dc	 mov	 eax, DWORD PTR _p$6[ebp]
  000e1	89 45 c4	 mov	 DWORD PTR tv83[ebp], eax
$LN18@CMemList:
  000e4	eb 67		 jmp	 SHORT $LN4@CMemList
$LN9@CMemList:

; 85   : 			case eAlloc_Type_alloc		: free(p); break;

  000e6	8b f4		 mov	 esi, esp
  000e8	8b 4d dc	 mov	 ecx, DWORD PTR _p$6[ebp]
  000eb	51		 push	 ecx
  000ec	ff 15 00 00 00
	00		 call	 DWORD PTR __imp__free
  000f2	83 c4 04	 add	 esp, 4
  000f5	3b f4		 cmp	 esi, esp
  000f7	e8 00 00 00 00	 call	 __RTC_CheckEsp
  000fc	eb 4f		 jmp	 SHORT $LN4@CMemList
$LN10@CMemList:

; 86   : 			case eAlloc_Type_BufPool	: gs_pMMgr->delBuf((char *)p, STRING_SIZE((TCHAR *)p)); break;

  000fe	8b 55 dc	 mov	 edx, DWORD PTR _p$6[ebp]
  00101	52		 push	 edx
  00102	e8 00 00 00 00	 call	 _strlen
  00107	83 c4 04	 add	 esp, 4
  0010a	83 c0 01	 add	 eax, 1
  0010d	50		 push	 eax
  0010e	8b 45 dc	 mov	 eax, DWORD PTR _p$6[ebp]
  00111	50		 push	 eax
  00112	8b 0d 00 00 00
	00		 mov	 ecx, DWORD PTR ?gs_pMMgr@@3PAVCMemManager@@A ; gs_pMMgr
  00118	e8 00 00 00 00	 call	 ?delBuf@CMemManager@@QAEXPADH@Z ; CMemManager::delBuf
  0011d	eb 2e		 jmp	 SHORT $LN4@CMemList
$LN11@CMemList:

; 87   : 			case eAlloc_Type_newArray	: delete[] p; break;

  0011f	8b 4d dc	 mov	 ecx, DWORD PTR _p$6[ebp]
  00122	89 4d d4	 mov	 DWORD PTR $T4[ebp], ecx
  00125	8b 55 d4	 mov	 edx, DWORD PTR $T4[ebp]
  00128	52		 push	 edx
  00129	e8 00 00 00 00	 call	 ??_V@YAXPAX@Z		; operator delete[]
  0012e	83 c4 04	 add	 esp, 4
  00131	83 7d d4 00	 cmp	 DWORD PTR $T4[ebp], 0
  00135	75 09		 jne	 SHORT $LN19@CMemList
  00137	c7 45 c0 00 00
	00 00		 mov	 DWORD PTR tv93[ebp], 0
  0013e	eb 0d		 jmp	 SHORT $LN4@CMemList
$LN19@CMemList:
  00140	c7 45 dc 23 81
	00 00		 mov	 DWORD PTR _p$6[ebp], 33059 ; 00008123H
  00147	8b 45 dc	 mov	 eax, DWORD PTR _p$6[ebp]
  0014a	89 45 c0	 mov	 DWORD PTR tv93[ebp], eax
$LN4@CMemList:

; 88   : 			case eAlloc_Type_none		: break;
; 89   : 			case eAlloc_Type_MemPool	: break;
; 90   : 			}
; 91   : 			p = getNext(&idx);

  0014d	8d 4d e4	 lea	 ecx, DWORD PTR _idx$7[ebp]
  00150	51		 push	 ecx
  00151	8b 4d ec	 mov	 ecx, DWORD PTR _this$[ebp]
  00154	e8 00 00 00 00	 call	 ?getNext@?$CMemList@USTIntervalInfo@@@@QAEPAUSTIntervalInfo@@PAH@Z ; CMemList<STIntervalInfo>::getNext
  00159	89 45 dc	 mov	 DWORD PTR _p$6[ebp], eax

; 92   : 		}

  0015c	e9 1a ff ff ff	 jmp	 $LN2@CMemList
$LN7@CMemList:

; 93   : 	}
; 94   : 
; 95   : 	if (m_pArray)        free(m_pArray);

  00161	8b 55 ec	 mov	 edx, DWORD PTR _this$[ebp]
  00164	83 3a 00	 cmp	 DWORD PTR [edx], 0
  00167	74 18		 je	 SHORT $LN14@CMemList
  00169	8b f4		 mov	 esi, esp
  0016b	8b 45 ec	 mov	 eax, DWORD PTR _this$[ebp]
  0016e	8b 08		 mov	 ecx, DWORD PTR [eax]
  00170	51		 push	 ecx
  00171	ff 15 00 00 00
	00		 call	 DWORD PTR __imp__free
  00177	83 c4 04	 add	 esp, 4
  0017a	3b f4		 cmp	 esi, esp
  0017c	e8 00 00 00 00	 call	 __RTC_CheckEsp
$LN14@CMemList:

; 96   : 	m_pArray = 0;

  00181	8b 55 ec	 mov	 edx, DWORD PTR _this$[ebp]
  00184	c7 02 00 00 00
	00		 mov	 DWORD PTR [edx], 0

; 97   : 
; 98   : 	if (m_nFlagArray)    delete[] m_nFlagArray;

  0018a	8b 45 ec	 mov	 eax, DWORD PTR _this$[ebp]
  0018d	83 78 04 00	 cmp	 DWORD PTR [eax+4], 0
  00191	74 2b		 je	 SHORT $LN15@CMemList
  00193	8b 4d ec	 mov	 ecx, DWORD PTR _this$[ebp]
  00196	8b 51 04	 mov	 edx, DWORD PTR [ecx+4]
  00199	89 55 cc	 mov	 DWORD PTR $T2[ebp], edx
  0019c	8b 45 cc	 mov	 eax, DWORD PTR $T2[ebp]
  0019f	89 45 d0	 mov	 DWORD PTR $T3[ebp], eax
  001a2	83 7d d0 00	 cmp	 DWORD PTR $T3[ebp], 0
  001a6	74 0f		 je	 SHORT $LN21@CMemList
  001a8	6a 03		 push	 3
  001aa	8b 4d d0	 mov	 ecx, DWORD PTR $T3[ebp]
  001ad	e8 00 00 00 00	 call	 ??_Ewin_atomic@win32@common@@QAEPAXI@Z
  001b2	89 45 bc	 mov	 DWORD PTR tv143[ebp], eax
  001b5	eb 07		 jmp	 SHORT $LN15@CMemList
$LN21@CMemList:
  001b7	c7 45 bc 00 00
	00 00		 mov	 DWORD PTR tv143[ebp], 0
$LN15@CMemList:

; 99   : 	m_nFlagArray = 0;

  001be	8b 4d ec	 mov	 ecx, DWORD PTR _this$[ebp]
  001c1	c7 41 04 00 00
	00 00		 mov	 DWORD PTR [ecx+4], 0
$LN1@CMemList:

; 100  : }

  001c8	8b 4d ec	 mov	 ecx, DWORD PTR _this$[ebp]
  001cb	83 c1 08	 add	 ecx, 8
  001ce	e8 00 00 00 00	 call	 ??1win_atomic@win32@common@@QAE@XZ ; common::win32::win_atomic::~win_atomic
  001d3	52		 push	 edx
  001d4	8b cd		 mov	 ecx, ebp
  001d6	50		 push	 eax
  001d7	8d 15 00 00 00
	00		 lea	 edx, DWORD PTR $LN26@CMemList
  001dd	e8 00 00 00 00	 call	 @_RTC_CheckStackVars@8
  001e2	58		 pop	 eax
  001e3	5a		 pop	 edx
  001e4	8b 4d f4	 mov	 ecx, DWORD PTR __$EHRec$[ebp]
  001e7	64 89 0d 00 00
	00 00		 mov	 DWORD PTR fs:0, ecx
  001ee	59		 pop	 ecx
  001ef	5f		 pop	 edi
  001f0	5e		 pop	 esi
  001f1	8b 4d f0	 mov	 ecx, DWORD PTR __$ArrayPad$[ebp]
  001f4	33 cd		 xor	 ecx, ebp
  001f6	e8 00 00 00 00	 call	 @__security_check_cookie@4
  001fb	83 c4 44	 add	 esp, 68			; 00000044H
  001fe	3b ec		 cmp	 ebp, esp
  00200	e8 00 00 00 00	 call	 __RTC_CheckEsp
  00205	8b e5		 mov	 esp, ebp
  00207	5d		 pop	 ebp
  00208	c3		 ret	 0
  00209	0f 1f 00	 npad	 3
$LN26@CMemList:
  0020c	01 00 00 00	 DD	 1
  00210	00 00 00 00	 DD	 $LN25@CMemList
$LN25@CMemList:
  00214	e4 ff ff ff	 DD	 -28			; ffffffe4H
  00218	04 00 00 00	 DD	 4
  0021c	00 00 00 00	 DD	 $LN23@CMemList
$LN23@CMemList:
  00220	69		 DB	 105			; 00000069H
  00221	64		 DB	 100			; 00000064H
  00222	78		 DB	 120			; 00000078H
  00223	00		 DB	 0
$LN27@CMemList:
  00224	00 00 00 00	 DD	 $LN8@CMemList
  00228	00 00 00 00	 DD	 $LN9@CMemList
  0022c	00 00 00 00	 DD	 $LN10@CMemList
  00230	00 00 00 00	 DD	 $LN11@CMemList
_TEXT	ENDS
;	COMDAT text$x
text$x	SEGMENT
__ehhandler$??1?$CMemList@USTIntervalInfo@@@@QAE@XZ:
  00000	8b 54 24 08	 mov	 edx, DWORD PTR [esp+8]
  00004	8d 42 0c	 lea	 eax, DWORD PTR [edx+12]
  00007	8b 4a bc	 mov	 ecx, DWORD PTR [edx-68]
  0000a	33 c8		 xor	 ecx, eax
  0000c	e8 00 00 00 00	 call	 @__security_check_cookie@4
  00011	8b 4a fc	 mov	 ecx, DWORD PTR [edx-4]
  00014	33 c8		 xor	 ecx, eax
  00016	e8 00 00 00 00	 call	 @__security_check_cookie@4
  0001b	b8 00 00 00 00	 mov	 eax, OFFSET __ehfuncinfo$??1?$CMemList@USTIntervalInfo@@@@QAE@XZ
  00020	e9 00 00 00 00	 jmp	 ___CxxFrameHandler3
text$x	ENDS
??1?$CMemList@USTIntervalInfo@@@@QAE@XZ ENDP		; CMemList<STIntervalInfo>::~CMemList<STIntervalInfo>
; Function compile flags: /Odtp /RTCsu
; File e:\infinia-library-3.0\com\include\comtlist.h
;	COMDAT ??0?$CMemList@USTIntervalInfo@@@@QAE@XZ
_TEXT	SEGMENT
_this$ = -16						; size = 4
__$EHRec$ = -12						; size = 12
??0?$CMemList@USTIntervalInfo@@@@QAE@XZ PROC		; CMemList<STIntervalInfo>::CMemList<STIntervalInfo>, COMDAT
; _this$ = ecx

; 65   : {

  00000	55		 push	 ebp
  00001	8b ec		 mov	 ebp, esp
  00003	6a ff		 push	 -1
  00005	68 00 00 00 00	 push	 __ehhandler$??0?$CMemList@USTIntervalInfo@@@@QAE@XZ
  0000a	64 a1 00 00 00
	00		 mov	 eax, DWORD PTR fs:0
  00010	50		 push	 eax
  00011	51		 push	 ecx
  00012	c7 45 f0 cc cc
	cc cc		 mov	 DWORD PTR [ebp-16], -858993460 ; ccccccccH
  00019	a1 00 00 00 00	 mov	 eax, DWORD PTR ___security_cookie
  0001e	33 c5		 xor	 eax, ebp
  00020	50		 push	 eax
  00021	8d 45 f4	 lea	 eax, DWORD PTR __$EHRec$[ebp]
  00024	64 a3 00 00 00
	00		 mov	 DWORD PTR fs:0, eax
  0002a	89 4d f0	 mov	 DWORD PTR _this$[ebp], ecx
  0002d	8b 4d f0	 mov	 ecx, DWORD PTR _this$[ebp]
  00030	83 c1 08	 add	 ecx, 8
  00033	e8 00 00 00 00	 call	 ??0win_atomic@win32@common@@QAE@XZ ; common::win32::win_atomic::win_atomic
  00038	c7 45 fc 00 00
	00 00		 mov	 DWORD PTR __$EHRec$[ebp+8], 0

; 66   : 	//memset(m_szMessage, 0, LEN_MEM_MESSAGE);
; 67   : 	m_pArray = NULL;

  0003f	8b 45 f0	 mov	 eax, DWORD PTR _this$[ebp]
  00042	c7 00 00 00 00
	00		 mov	 DWORD PTR [eax], 0

; 68   : 	m_nFlagArray = NULL;

  00048	8b 4d f0	 mov	 ecx, DWORD PTR _this$[ebp]
  0004b	c7 41 04 00 00
	00 00		 mov	 DWORD PTR [ecx+4], 0

; 69   : 	m_nObjAllocType = eAlloc_Type_none;

  00052	8b 55 f0	 mov	 edx, DWORD PTR _this$[ebp]
  00055	c7 42 14 00 00
	00 00		 mov	 DWORD PTR [edx+20], 0

; 70   : 	m_nCurCount.init();

  0005c	8b 4d f0	 mov	 ecx, DWORD PTR _this$[ebp]
  0005f	83 c1 08	 add	 ecx, 8
  00062	e8 00 00 00 00	 call	 ?init@win_atomic@win32@common@@QAEXXZ ; common::win32::win_atomic::init

; 71   : }

  00067	c7 45 fc ff ff
	ff ff		 mov	 DWORD PTR __$EHRec$[ebp+8], -1
  0006e	8b 45 f0	 mov	 eax, DWORD PTR _this$[ebp]
  00071	8b 4d f4	 mov	 ecx, DWORD PTR __$EHRec$[ebp]
  00074	64 89 0d 00 00
	00 00		 mov	 DWORD PTR fs:0, ecx
  0007b	59		 pop	 ecx
  0007c	83 c4 10	 add	 esp, 16			; 00000010H
  0007f	3b ec		 cmp	 ebp, esp
  00081	e8 00 00 00 00	 call	 __RTC_CheckEsp
  00086	8b e5		 mov	 esp, ebp
  00088	5d		 pop	 ebp
  00089	c3		 ret	 0
_TEXT	ENDS
;	COMDAT text$x
text$x	SEGMENT
__unwindfunclet$??0?$CMemList@USTIntervalInfo@@@@QAE@XZ$0:
  00000	8b 4d f0	 mov	 ecx, DWORD PTR _this$[ebp]
  00003	83 c1 08	 add	 ecx, 8
  00006	e9 00 00 00 00	 jmp	 ??1win_atomic@win32@common@@QAE@XZ ; common::win32::win_atomic::~win_atomic
__ehhandler$??0?$CMemList@USTIntervalInfo@@@@QAE@XZ:
  0000b	8b 54 24 08	 mov	 edx, DWORD PTR [esp+8]
  0000f	8d 42 0c	 lea	 eax, DWORD PTR [edx+12]
  00012	8b 4a f8	 mov	 ecx, DWORD PTR [edx-8]
  00015	33 c8		 xor	 ecx, eax
  00017	e8 00 00 00 00	 call	 @__security_check_cookie@4
  0001c	b8 00 00 00 00	 mov	 eax, OFFSET __ehfuncinfo$??0?$CMemList@USTIntervalInfo@@@@QAE@XZ
  00021	e9 00 00 00 00	 jmp	 ___CxxFrameHandler3
text$x	ENDS
??0?$CMemList@USTIntervalInfo@@@@QAE@XZ ENDP		; CMemList<STIntervalInfo>::CMemList<STIntervalInfo>
; Function compile flags: /Odtp /RTCsu
;	COMDAT ??_ECScheduler@@QAEPAXI@Z
_TEXT	SEGMENT
_this$ = -16						; size = 4
__$EHRec$ = -12						; size = 12
___flags$ = 8						; size = 4
??_ECScheduler@@QAEPAXI@Z PROC				; CScheduler::`vector deleting destructor', COMDAT
; _this$ = ecx
  00000	55		 push	 ebp
  00001	8b ec		 mov	 ebp, esp
  00003	6a ff		 push	 -1
  00005	68 00 00 00 00	 push	 __ehhandler$??_ECScheduler@@QAEPAXI@Z
  0000a	64 a1 00 00 00
	00		 mov	 eax, DWORD PTR fs:0
  00010	50		 push	 eax
  00011	51		 push	 ecx
  00012	c7 45 f0 cc cc
	cc cc		 mov	 DWORD PTR [ebp-16], -858993460 ; ccccccccH
  00019	a1 00 00 00 00	 mov	 eax, DWORD PTR ___security_cookie
  0001e	33 c5		 xor	 eax, ebp
  00020	50		 push	 eax
  00021	8d 45 f4	 lea	 eax, DWORD PTR __$EHRec$[ebp]
  00024	64 a3 00 00 00
	00		 mov	 DWORD PTR fs:0, eax
  0002a	89 4d f0	 mov	 DWORD PTR _this$[ebp], ecx
  0002d	8b 45 08	 mov	 eax, DWORD PTR ___flags$[ebp]
  00030	83 e0 02	 and	 eax, 2
  00033	74 41		 je	 SHORT $LN2@vector
  00035	68 00 00 00 00	 push	 OFFSET ??1CScheduler@@QAE@XZ ; CScheduler::~CScheduler
  0003a	8b 4d f0	 mov	 ecx, DWORD PTR _this$[ebp]
  0003d	8b 51 fc	 mov	 edx, DWORD PTR [ecx-4]
  00040	52		 push	 edx
  00041	6a 38		 push	 56			; 00000038H
  00043	8b 45 f0	 mov	 eax, DWORD PTR _this$[ebp]
  00046	50		 push	 eax
  00047	e8 00 00 00 00	 call	 ??_M@YGXPAXIIP6EX0@Z@Z
  0004c	8b 4d 08	 mov	 ecx, DWORD PTR ___flags$[ebp]
  0004f	83 e1 01	 and	 ecx, 1
  00052	74 1a		 je	 SHORT $LN3@vector
  00054	8b 55 f0	 mov	 edx, DWORD PTR _this$[ebp]
  00057	6b 42 fc 38	 imul	 eax, DWORD PTR [edx-4], 56
  0005b	83 c0 04	 add	 eax, 4
  0005e	50		 push	 eax
  0005f	8b 4d f0	 mov	 ecx, DWORD PTR _this$[ebp]
  00062	83 e9 04	 sub	 ecx, 4
  00065	51		 push	 ecx
  00066	e8 00 00 00 00	 call	 ??_V@YAXPAXI@Z		; operator delete[]
  0006b	83 c4 08	 add	 esp, 8
$LN3@vector:
  0006e	8b 45 f0	 mov	 eax, DWORD PTR _this$[ebp]
  00071	83 e8 04	 sub	 eax, 4
  00074	eb 21		 jmp	 SHORT $LN5@vector
$LN2@vector:
  00076	8b 4d f0	 mov	 ecx, DWORD PTR _this$[ebp]
  00079	e8 00 00 00 00	 call	 ??1CScheduler@@QAE@XZ	; CScheduler::~CScheduler
  0007e	8b 55 08	 mov	 edx, DWORD PTR ___flags$[ebp]
  00081	83 e2 01	 and	 edx, 1
  00084	74 0e		 je	 SHORT $LN4@vector
  00086	6a 38		 push	 56			; 00000038H
  00088	8b 45 f0	 mov	 eax, DWORD PTR _this$[ebp]
  0008b	50		 push	 eax
  0008c	e8 00 00 00 00	 call	 ??3@YAXPAXI@Z		; operator delete
  00091	83 c4 08	 add	 esp, 8
$LN4@vector:
  00094	8b 45 f0	 mov	 eax, DWORD PTR _this$[ebp]
$LN5@vector:
  00097	8b 4d f4	 mov	 ecx, DWORD PTR __$EHRec$[ebp]
  0009a	64 89 0d 00 00
	00 00		 mov	 DWORD PTR fs:0, ecx
  000a1	59		 pop	 ecx
  000a2	83 c4 10	 add	 esp, 16			; 00000010H
  000a5	3b ec		 cmp	 ebp, esp
  000a7	e8 00 00 00 00	 call	 __RTC_CheckEsp
  000ac	8b e5		 mov	 esp, ebp
  000ae	5d		 pop	 ebp
  000af	c2 04 00	 ret	 4
_TEXT	ENDS
;	COMDAT text$x
text$x	SEGMENT
__ehhandler$??_ECScheduler@@QAEPAXI@Z:
  00000	8b 54 24 08	 mov	 edx, DWORD PTR [esp+8]
  00004	8d 42 0c	 lea	 eax, DWORD PTR [edx+12]
  00007	8b 4a f8	 mov	 ecx, DWORD PTR [edx-8]
  0000a	33 c8		 xor	 ecx, eax
  0000c	e8 00 00 00 00	 call	 @__security_check_cookie@4
  00011	b8 00 00 00 00	 mov	 eax, OFFSET __ehfuncinfo$??_ECScheduler@@QAEPAXI@Z
  00016	e9 00 00 00 00	 jmp	 ___CxxFrameHandler3
text$x	ENDS
??_ECScheduler@@QAEPAXI@Z ENDP				; CScheduler::`vector deleting destructor'
; Function compile flags: /Odtp /RTCsu
;	COMDAT ??_GCScheduler@@QAEPAXI@Z
_TEXT	SEGMENT
_this$ = -4						; size = 4
___flags$ = 8						; size = 4
??_GCScheduler@@QAEPAXI@Z PROC				; CScheduler::`scalar deleting destructor', COMDAT
; _this$ = ecx
  00000	55		 push	 ebp
  00001	8b ec		 mov	 ebp, esp
  00003	51		 push	 ecx
  00004	c7 45 fc cc cc
	cc cc		 mov	 DWORD PTR [ebp-4], -858993460 ; ccccccccH
  0000b	89 4d fc	 mov	 DWORD PTR _this$[ebp], ecx
  0000e	8b 4d fc	 mov	 ecx, DWORD PTR _this$[ebp]
  00011	e8 00 00 00 00	 call	 ??1CScheduler@@QAE@XZ	; CScheduler::~CScheduler
  00016	8b 45 08	 mov	 eax, DWORD PTR ___flags$[ebp]
  00019	83 e0 01	 and	 eax, 1
  0001c	74 0e		 je	 SHORT $LN2@scalar
  0001e	6a 38		 push	 56			; 00000038H
  00020	8b 4d fc	 mov	 ecx, DWORD PTR _this$[ebp]
  00023	51		 push	 ecx
  00024	e8 00 00 00 00	 call	 ??3@YAXPAXI@Z		; operator delete
  00029	83 c4 08	 add	 esp, 8
$LN2@scalar:
  0002c	8b 45 fc	 mov	 eax, DWORD PTR _this$[ebp]
  0002f	83 c4 04	 add	 esp, 4
  00032	3b ec		 cmp	 ebp, esp
  00034	e8 00 00 00 00	 call	 __RTC_CheckEsp
  00039	8b e5		 mov	 esp, ebp
  0003b	5d		 pop	 ebp
  0003c	c2 04 00	 ret	 4
??_GCScheduler@@QAEPAXI@Z ENDP				; CScheduler::`scalar deleting destructor'
_TEXT	ENDS
; Function compile flags: /Odtp /RTCsu
; File e:\infinia-library-3.0\com\include\comcore.h
;	COMDAT ?getGoal@CScheduler@@QAEIXZ
_TEXT	SEGMENT
_this$ = -4						; size = 4
?getGoal@CScheduler@@QAEIXZ PROC			; CScheduler::getGoal, COMDAT
; _this$ = ecx

; 146  : 	inline TICKTIME_MILLISEC getGoal() { 	return m_nMillSecGoal;	}

  00000	55		 push	 ebp
  00001	8b ec		 mov	 ebp, esp
  00003	51		 push	 ecx
  00004	c7 45 fc cc cc
	cc cc		 mov	 DWORD PTR [ebp-4], -858993460 ; ccccccccH
  0000b	89 4d fc	 mov	 DWORD PTR _this$[ebp], ecx
  0000e	8b 45 fc	 mov	 eax, DWORD PTR _this$[ebp]
  00011	8b 40 34	 mov	 eax, DWORD PTR [eax+52]
  00014	8b e5		 mov	 esp, ebp
  00016	5d		 pop	 ebp
  00017	c3		 ret	 0
?getGoal@CScheduler@@QAEIXZ ENDP			; CScheduler::getGoal
_TEXT	ENDS
; Function compile flags: /Odtp /RTCsu
; File e:\infinia-library-3.0\com\include\comcore.h
;	COMDAT ?setGoal@CScheduler@@QAEXXZ
_TEXT	SEGMENT
_this$ = -4						; size = 4
?setGoal@CScheduler@@QAEXXZ PROC			; CScheduler::setGoal, COMDAT
; _this$ = ecx

; 145  : 	inline void setGoal() {	m_nMillSecGoal += m_nMilliSecWait;	}

  00000	55		 push	 ebp
  00001	8b ec		 mov	 ebp, esp
  00003	51		 push	 ecx
  00004	c7 45 fc cc cc
	cc cc		 mov	 DWORD PTR [ebp-4], -858993460 ; ccccccccH
  0000b	89 4d fc	 mov	 DWORD PTR _this$[ebp], ecx
  0000e	8b 45 fc	 mov	 eax, DWORD PTR _this$[ebp]
  00011	8b 48 34	 mov	 ecx, DWORD PTR [eax+52]
  00014	8b 55 fc	 mov	 edx, DWORD PTR _this$[ebp]
  00017	03 4a 2c	 add	 ecx, DWORD PTR [edx+44]
  0001a	8b 45 fc	 mov	 eax, DWORD PTR _this$[ebp]
  0001d	89 48 34	 mov	 DWORD PTR [eax+52], ecx
  00020	8b e5		 mov	 esp, ebp
  00022	5d		 pop	 ebp
  00023	c3		 ret	 0
?setGoal@CScheduler@@QAEXXZ ENDP			; CScheduler::setGoal
_TEXT	ENDS
; Function compile flags: /Odtp /RTCsu
; File e:\infinia-library-3.0\com\include\comcore.h
;	COMDAT ?getMilliSecHalf@CScheduler@@QAEHXZ
_TEXT	SEGMENT
_this$ = -4						; size = 4
?getMilliSecHalf@CScheduler@@QAEHXZ PROC		; CScheduler::getMilliSecHalf, COMDAT
; _this$ = ecx

; 144  : 	inline int getMilliSecHalf() { return m_nMillSecHalf; }

  00000	55		 push	 ebp
  00001	8b ec		 mov	 ebp, esp
  00003	51		 push	 ecx
  00004	c7 45 fc cc cc
	cc cc		 mov	 DWORD PTR [ebp-4], -858993460 ; ccccccccH
  0000b	89 4d fc	 mov	 DWORD PTR _this$[ebp], ecx
  0000e	8b 45 fc	 mov	 eax, DWORD PTR _this$[ebp]
  00011	8b 40 30	 mov	 eax, DWORD PTR [eax+48]
  00014	8b e5		 mov	 esp, ebp
  00016	5d		 pop	 ebp
  00017	c3		 ret	 0
?getMilliSecHalf@CScheduler@@QAEHXZ ENDP		; CScheduler::getMilliSecHalf
_TEXT	ENDS
; Function compile flags: /Odtp /RTCsu
; File e:\infinia-library-3.0\com\include\comcore.h
;	COMDAT ?addTime@CScheduler@@QAEHPAUSTIntervalInfo@@@Z
_TEXT	SEGMENT
_this$ = -4						; size = 4
_pData$ = 8						; size = 4
?addTime@CScheduler@@QAEHPAUSTIntervalInfo@@@Z PROC	; CScheduler::addTime, COMDAT
; _this$ = ecx

; 142  : 	inline int addTime(STIntervalInfo *pData) { return m_pTimeList->add(pData); }

  00000	55		 push	 ebp
  00001	8b ec		 mov	 ebp, esp
  00003	51		 push	 ecx
  00004	c7 45 fc cc cc
	cc cc		 mov	 DWORD PTR [ebp-4], -858993460 ; ccccccccH
  0000b	89 4d fc	 mov	 DWORD PTR _this$[ebp], ecx
  0000e	8b 45 08	 mov	 eax, DWORD PTR _pData$[ebp]
  00011	50		 push	 eax
  00012	8b 4d fc	 mov	 ecx, DWORD PTR _this$[ebp]
  00015	8b 49 28	 mov	 ecx, DWORD PTR [ecx+40]
  00018	e8 00 00 00 00	 call	 ?add@?$CMemList@USTIntervalInfo@@@@QAEHPAUSTIntervalInfo@@@Z ; CMemList<STIntervalInfo>::add
  0001d	83 c4 04	 add	 esp, 4
  00020	3b ec		 cmp	 ebp, esp
  00022	e8 00 00 00 00	 call	 __RTC_CheckEsp
  00027	8b e5		 mov	 esp, ebp
  00029	5d		 pop	 ebp
  0002a	c2 04 00	 ret	 4
?addTime@CScheduler@@QAEHPAUSTIntervalInfo@@@Z ENDP	; CScheduler::addTime
_TEXT	ENDS
; Function compile flags: /Odtp /RTCsu
; File e:\infinia-library-3.0\com\include\comcore.h
;	COMDAT ?deleteTime@CScheduler@@QAE_NPAUSTIntervalInfo@@@Z
_TEXT	SEGMENT
_this$ = -4						; size = 4
_pData$ = 8						; size = 4
?deleteTime@CScheduler@@QAE_NPAUSTIntervalInfo@@@Z PROC	; CScheduler::deleteTime, COMDAT
; _this$ = ecx

; 141  : 	inline bool deleteTime(STIntervalInfo *pData) { return m_pTimeList->del(pData); }

  00000	55		 push	 ebp
  00001	8b ec		 mov	 ebp, esp
  00003	51		 push	 ecx
  00004	c7 45 fc cc cc
	cc cc		 mov	 DWORD PTR [ebp-4], -858993460 ; ccccccccH
  0000b	89 4d fc	 mov	 DWORD PTR _this$[ebp], ecx
  0000e	8b 45 08	 mov	 eax, DWORD PTR _pData$[ebp]
  00011	50		 push	 eax
  00012	8b 4d fc	 mov	 ecx, DWORD PTR _this$[ebp]
  00015	8b 49 28	 mov	 ecx, DWORD PTR [ecx+40]
  00018	e8 00 00 00 00	 call	 ?del@?$CMemList@USTIntervalInfo@@@@QAE_NPAUSTIntervalInfo@@@Z ; CMemList<STIntervalInfo>::del
  0001d	83 c4 04	 add	 esp, 4
  00020	3b ec		 cmp	 ebp, esp
  00022	e8 00 00 00 00	 call	 __RTC_CheckEsp
  00027	8b e5		 mov	 esp, ebp
  00029	5d		 pop	 ebp
  0002a	c2 04 00	 ret	 4
?deleteTime@CScheduler@@QAE_NPAUSTIntervalInfo@@@Z ENDP	; CScheduler::deleteTime
_TEXT	ENDS
; Function compile flags: /Odtp /RTCsu
; File e:\infinia-library-3.0\com\include\comcore.h
;	COMDAT ?timeNext@CScheduler@@QAEPAUSTIntervalInfo@@PAH@Z
_TEXT	SEGMENT
_this$ = -4						; size = 4
_idx$ = 8						; size = 4
?timeNext@CScheduler@@QAEPAUSTIntervalInfo@@PAH@Z PROC	; CScheduler::timeNext, COMDAT
; _this$ = ecx

; 140  : 	inline STIntervalInfo *timeNext(int *idx) { return m_pTimeList->getNext(idx); }

  00000	55		 push	 ebp
  00001	8b ec		 mov	 ebp, esp
  00003	51		 push	 ecx
  00004	c7 45 fc cc cc
	cc cc		 mov	 DWORD PTR [ebp-4], -858993460 ; ccccccccH
  0000b	89 4d fc	 mov	 DWORD PTR _this$[ebp], ecx
  0000e	8b 45 08	 mov	 eax, DWORD PTR _idx$[ebp]
  00011	50		 push	 eax
  00012	8b 4d fc	 mov	 ecx, DWORD PTR _this$[ebp]
  00015	8b 49 28	 mov	 ecx, DWORD PTR [ecx+40]
  00018	e8 00 00 00 00	 call	 ?getNext@?$CMemList@USTIntervalInfo@@@@QAEPAUSTIntervalInfo@@PAH@Z ; CMemList<STIntervalInfo>::getNext
  0001d	83 c4 04	 add	 esp, 4
  00020	3b ec		 cmp	 ebp, esp
  00022	e8 00 00 00 00	 call	 __RTC_CheckEsp
  00027	8b e5		 mov	 esp, ebp
  00029	5d		 pop	 ebp
  0002a	c2 04 00	 ret	 4
?timeNext@CScheduler@@QAEPAUSTIntervalInfo@@PAH@Z ENDP	; CScheduler::timeNext
_TEXT	ENDS
; Function compile flags: /Odtp /RTCsu
; File e:\infinia-library-3.0\com\src\comcore.cpp
_TEXT	SEGMENT
tv73 = -16						; size = 4
$T1 = -12						; size = 4
$T2 = -8						; size = 4
_this$ = -4						; size = 4
?quit@CScheduler@@QAE_NXZ PROC				; CScheduler::quit
; _this$ = ecx

; 358  : {

  00000	55		 push	 ebp
  00001	8b ec		 mov	 ebp, esp
  00003	83 ec 10	 sub	 esp, 16			; 00000010H
  00006	b8 cc cc cc cc	 mov	 eax, -858993460		; ccccccccH
  0000b	89 45 f0	 mov	 DWORD PTR [ebp-16], eax
  0000e	89 45 f4	 mov	 DWORD PTR [ebp-12], eax
  00011	89 45 f8	 mov	 DWORD PTR [ebp-8], eax
  00014	89 45 fc	 mov	 DWORD PTR [ebp-4], eax
  00017	89 4d fc	 mov	 DWORD PTR _this$[ebp], ecx

; 359  : 	m_cThread.quit();

  0001a	8b 4d fc	 mov	 ecx, DWORD PTR _this$[ebp]
  0001d	e8 00 00 00 00	 call	 ?quit@CComThread@@QAE_NXZ ; CComThread::quit

; 360  : 	if (m_pTimeList) {

  00022	8b 45 fc	 mov	 eax, DWORD PTR _this$[ebp]
  00025	83 78 28 00	 cmp	 DWORD PTR [eax+40], 0
  00029	74 35		 je	 SHORT $LN2@quit

; 361  : 		delete m_pTimeList;

  0002b	8b 4d fc	 mov	 ecx, DWORD PTR _this$[ebp]
  0002e	8b 51 28	 mov	 edx, DWORD PTR [ecx+40]
  00031	89 55 f4	 mov	 DWORD PTR $T1[ebp], edx
  00034	8b 45 f4	 mov	 eax, DWORD PTR $T1[ebp]
  00037	89 45 f8	 mov	 DWORD PTR $T2[ebp], eax
  0003a	83 7d f8 00	 cmp	 DWORD PTR $T2[ebp], 0
  0003e	74 0f		 je	 SHORT $LN4@quit
  00040	6a 01		 push	 1
  00042	8b 4d f8	 mov	 ecx, DWORD PTR $T2[ebp]
  00045	e8 00 00 00 00	 call	 ??_G?$CMemList@USTIntervalInfo@@@@QAEPAXI@Z
  0004a	89 45 f0	 mov	 DWORD PTR tv73[ebp], eax
  0004d	eb 07		 jmp	 SHORT $LN5@quit
$LN4@quit:
  0004f	c7 45 f0 00 00
	00 00		 mov	 DWORD PTR tv73[ebp], 0
$LN5@quit:

; 362  : 		m_pTimeList = NULL;

  00056	8b 4d fc	 mov	 ecx, DWORD PTR _this$[ebp]
  00059	c7 41 28 00 00
	00 00		 mov	 DWORD PTR [ecx+40], 0
$LN2@quit:

; 363  : 	}
; 364  : 	return true;

  00060	b0 01		 mov	 al, 1

; 365  : }

  00062	83 c4 10	 add	 esp, 16			; 00000010H
  00065	3b ec		 cmp	 ebp, esp
  00067	e8 00 00 00 00	 call	 __RTC_CheckEsp
  0006c	8b e5		 mov	 esp, ebp
  0006e	5d		 pop	 ebp
  0006f	c3		 ret	 0
?quit@CScheduler@@QAE_NXZ ENDP				; CScheduler::quit
_TEXT	ENDS
; Function compile flags: /Odtp /RTCsu
; File e:\infinia-library-3.0\com\src\comcore.cpp
_TEXT	SEGMENT
_this$ = -4						; size = 4
?start@CScheduler@@QAE_NXZ PROC				; CScheduler::start
; _this$ = ecx

; 344  : {

  00000	55		 push	 ebp
  00001	8b ec		 mov	 ebp, esp
  00003	51		 push	 ecx
  00004	c7 45 fc cc cc
	cc cc		 mov	 DWORD PTR [ebp-4], -858993460 ; ccccccccH
  0000b	89 4d fc	 mov	 DWORD PTR _this$[ebp], ecx

; 345  : 	if (m_cThread.bActive()) return true;

  0000e	8b 4d fc	 mov	 ecx, DWORD PTR _this$[ebp]
  00011	e8 00 00 00 00	 call	 ?bActive@CComThread@@QAE_NXZ ; CComThread::bActive
  00016	0f b6 c0	 movzx	 eax, al
  00019	85 c0		 test	 eax, eax
  0001b	74 04		 je	 SHORT $LN2@start
  0001d	b0 01		 mov	 al, 1
  0001f	eb 68		 jmp	 SHORT $LN1@start
$LN2@start:

; 346  : 	if (!m_cThread.init(schedulerLoop, this, m_nMillSecHalf)) {

  00021	6a 00		 push	 0
  00023	8b 4d fc	 mov	 ecx, DWORD PTR _this$[ebp]
  00026	8b 51 30	 mov	 edx, DWORD PTR [ecx+48]
  00029	52		 push	 edx
  0002a	8b 45 fc	 mov	 eax, DWORD PTR _this$[ebp]
  0002d	50		 push	 eax
  0002e	68 00 00 00 00	 push	 OFFSET ?schedulerLoop@@YAXPAUSTThreadInfo@@@Z ; schedulerLoop
  00033	8b 4d fc	 mov	 ecx, DWORD PTR _this$[ebp]
  00036	e8 00 00 00 00	 call	 ?init@CComThread@@QAE_NP6AXPAUSTThreadInfo@@@ZPAXH2@Z ; CComThread::init
  0003b	0f b6 c8	 movzx	 ecx, al
  0003e	85 c9		 test	 ecx, ecx
  00040	75 1b		 jne	 SHORT $LN3@start

; 347  : 		comErrorPrint("m_cThread.init");

  00042	68 5b 01 00 00	 push	 347			; 0000015bH
  00047	68 00 00 00 00	 push	 OFFSET $SG45645
  0004c	68 00 00 00 00	 push	 OFFSET $SG45646
  00051	e8 00 00 00 00	 call	 ?comGlobalErrorProc@@YAXPADPBDH@Z ; comGlobalErrorProc
  00056	83 c4 0c	 add	 esp, 12			; 0000000cH

; 348  : 		return false;

  00059	32 c0		 xor	 al, al
  0005b	eb 2c		 jmp	 SHORT $LN1@start
$LN3@start:

; 349  : 	}
; 350  : 	if (!m_cThread.start()) {

  0005d	8b 4d fc	 mov	 ecx, DWORD PTR _this$[ebp]
  00060	e8 00 00 00 00	 call	 ?start@CComThread@@QAE_NXZ ; CComThread::start
  00065	0f b6 d0	 movzx	 edx, al
  00068	85 d2		 test	 edx, edx
  0006a	75 1b		 jne	 SHORT $LN4@start

; 351  : 		comErrorPrint("m_cThread.start");

  0006c	68 5f 01 00 00	 push	 351			; 0000015fH
  00071	68 00 00 00 00	 push	 OFFSET $SG45648
  00076	68 00 00 00 00	 push	 OFFSET $SG45649
  0007b	e8 00 00 00 00	 call	 ?comGlobalErrorProc@@YAXPADPBDH@Z ; comGlobalErrorProc
  00080	83 c4 0c	 add	 esp, 12			; 0000000cH

; 352  : 		return false;

  00083	32 c0		 xor	 al, al
  00085	eb 02		 jmp	 SHORT $LN1@start
$LN4@start:

; 353  : 	}
; 354  : 	return true;

  00087	b0 01		 mov	 al, 1
$LN1@start:

; 355  : }

  00089	83 c4 04	 add	 esp, 4
  0008c	3b ec		 cmp	 ebp, esp
  0008e	e8 00 00 00 00	 call	 __RTC_CheckEsp
  00093	8b e5		 mov	 esp, ebp
  00095	5d		 pop	 ebp
  00096	c3		 ret	 0
?start@CScheduler@@QAE_NXZ ENDP				; CScheduler::start
_TEXT	ENDS
; Function compile flags: /Odtp /RTCsu
; File e:\infinia-library-3.0\com\src\comcore.cpp
_TEXT	SEGMENT
tv129 = -40						; size = 4
tv86 = -36						; size = 4
$T2 = -32						; size = 4
$T3 = -28						; size = 4
$T4 = -24						; size = 4
$T5 = -20						; size = 4
_this$ = -16						; size = 4
__$EHRec$ = -12						; size = 12
_nCount$ = 8						; size = 4
_nMilliSecWait$ = 12					; size = 4
_nIdx$ = 16						; size = 4
?init@CScheduler@@QAE_NHHH@Z PROC			; CScheduler::init
; _this$ = ecx

; 332  : {

  00000	55		 push	 ebp
  00001	8b ec		 mov	 ebp, esp
  00003	6a ff		 push	 -1
  00005	68 00 00 00 00	 push	 __ehhandler$?init@CScheduler@@QAE_NHHH@Z
  0000a	64 a1 00 00 00
	00		 mov	 eax, DWORD PTR fs:0
  00010	50		 push	 eax
  00011	83 ec 1c	 sub	 esp, 28			; 0000001cH
  00014	56		 push	 esi
  00015	b8 cc cc cc cc	 mov	 eax, -858993460		; ccccccccH
  0001a	89 45 d8	 mov	 DWORD PTR [ebp-40], eax
  0001d	89 45 dc	 mov	 DWORD PTR [ebp-36], eax
  00020	89 45 e0	 mov	 DWORD PTR [ebp-32], eax
  00023	89 45 e4	 mov	 DWORD PTR [ebp-28], eax
  00026	89 45 e8	 mov	 DWORD PTR [ebp-24], eax
  00029	89 45 ec	 mov	 DWORD PTR [ebp-20], eax
  0002c	89 45 f0	 mov	 DWORD PTR [ebp-16], eax
  0002f	a1 00 00 00 00	 mov	 eax, DWORD PTR ___security_cookie
  00034	33 c5		 xor	 eax, ebp
  00036	50		 push	 eax
  00037	8d 45 f4	 lea	 eax, DWORD PTR __$EHRec$[ebp]
  0003a	64 a3 00 00 00
	00		 mov	 DWORD PTR fs:0, eax
  00040	89 4d f0	 mov	 DWORD PTR _this$[ebp], ecx

; 333  : 	m_nMilliSecWait = nMilliSecWait;

  00043	8b 45 f0	 mov	 eax, DWORD PTR _this$[ebp]
  00046	8b 4d 0c	 mov	 ecx, DWORD PTR _nMilliSecWait$[ebp]
  00049	89 48 2c	 mov	 DWORD PTR [eax+44], ecx

; 334  : 	m_nMillSecHalf = m_nMilliSecWait / 2;

  0004c	8b 55 f0	 mov	 edx, DWORD PTR _this$[ebp]
  0004f	8b 42 2c	 mov	 eax, DWORD PTR [edx+44]
  00052	99		 cdq
  00053	2b c2		 sub	 eax, edx
  00055	d1 f8		 sar	 eax, 1
  00057	8b 4d f0	 mov	 ecx, DWORD PTR _this$[ebp]
  0005a	89 41 30	 mov	 DWORD PTR [ecx+48], eax

; 335  : 	m_nMillSecGoal = CURRENT_TIME + m_nMilliSecWait;

  0005d	8b f4		 mov	 esi, esp
  0005f	ff 15 00 00 00
	00		 call	 DWORD PTR __imp__GetTickCount@0
  00065	3b f4		 cmp	 esi, esp
  00067	e8 00 00 00 00	 call	 __RTC_CheckEsp
  0006c	8b 55 f0	 mov	 edx, DWORD PTR _this$[ebp]
  0006f	03 42 2c	 add	 eax, DWORD PTR [edx+44]
  00072	8b 4d f0	 mov	 ecx, DWORD PTR _this$[ebp]
  00075	89 41 34	 mov	 DWORD PTR [ecx+52], eax

; 336  : 	m_pTimeList = new CMemList<STIntervalInfo>();

  00078	6a 1c		 push	 28			; 0000001cH
  0007a	e8 00 00 00 00	 call	 ??2@YAPAXI@Z		; operator new
  0007f	83 c4 04	 add	 esp, 4
  00082	89 45 e8	 mov	 DWORD PTR $T4[ebp], eax
  00085	c7 45 fc 00 00
	00 00		 mov	 DWORD PTR __$EHRec$[ebp+8], 0
  0008c	83 7d e8 00	 cmp	 DWORD PTR $T4[ebp], 0
  00090	74 17		 je	 SHORT $LN4@init
  00092	6a 1c		 push	 28			; 0000001cH
  00094	8b 4d e8	 mov	 ecx, DWORD PTR $T4[ebp]
  00097	e8 00 00 00 00	 call	 ?__autoclassinit2@?$CMemList@USTIntervalInfo@@@@QAEXI@Z
  0009c	8b 4d e8	 mov	 ecx, DWORD PTR $T4[ebp]
  0009f	e8 00 00 00 00	 call	 ??0?$CMemList@USTIntervalInfo@@@@QAE@XZ ; CMemList<STIntervalInfo>::CMemList<STIntervalInfo>
  000a4	89 45 dc	 mov	 DWORD PTR tv86[ebp], eax
  000a7	eb 07		 jmp	 SHORT $LN5@init
$LN4@init:
  000a9	c7 45 dc 00 00
	00 00		 mov	 DWORD PTR tv86[ebp], 0
$LN5@init:
  000b0	8b 55 dc	 mov	 edx, DWORD PTR tv86[ebp]
  000b3	89 55 ec	 mov	 DWORD PTR $T5[ebp], edx
  000b6	c7 45 fc ff ff
	ff ff		 mov	 DWORD PTR __$EHRec$[ebp+8], -1
  000bd	8b 45 f0	 mov	 eax, DWORD PTR _this$[ebp]
  000c0	8b 4d ec	 mov	 ecx, DWORD PTR $T5[ebp]
  000c3	89 48 28	 mov	 DWORD PTR [eax+40], ecx

; 337  : 	if (!m_pTimeList->alloc(nCount, eAlloc_Type_none)) { delete m_pTimeList; printf("has Failed!! m_pTimeList->alloc(%d)\n", nCount); return false; }

  000c6	6a 00		 push	 0
  000c8	8b 55 08	 mov	 edx, DWORD PTR _nCount$[ebp]
  000cb	52		 push	 edx
  000cc	8b 45 f0	 mov	 eax, DWORD PTR _this$[ebp]
  000cf	8b 48 28	 mov	 ecx, DWORD PTR [eax+40]
  000d2	e8 00 00 00 00	 call	 ?alloc@?$CMemList@USTIntervalInfo@@@@QAEHHW4E_ALLOC_TYPE@@@Z ; CMemList<STIntervalInfo>::alloc
  000d7	85 c0		 test	 eax, eax
  000d9	75 40		 jne	 SHORT $LN2@init
  000db	8b 4d f0	 mov	 ecx, DWORD PTR _this$[ebp]
  000de	8b 51 28	 mov	 edx, DWORD PTR [ecx+40]
  000e1	89 55 e0	 mov	 DWORD PTR $T2[ebp], edx
  000e4	8b 45 e0	 mov	 eax, DWORD PTR $T2[ebp]
  000e7	89 45 e4	 mov	 DWORD PTR $T3[ebp], eax
  000ea	83 7d e4 00	 cmp	 DWORD PTR $T3[ebp], 0
  000ee	74 0f		 je	 SHORT $LN6@init
  000f0	6a 01		 push	 1
  000f2	8b 4d e4	 mov	 ecx, DWORD PTR $T3[ebp]
  000f5	e8 00 00 00 00	 call	 ??_G?$CMemList@USTIntervalInfo@@@@QAEPAXI@Z
  000fa	89 45 d8	 mov	 DWORD PTR tv129[ebp], eax
  000fd	eb 07		 jmp	 SHORT $LN7@init
$LN6@init:
  000ff	c7 45 d8 00 00
	00 00		 mov	 DWORD PTR tv129[ebp], 0
$LN7@init:
  00106	8b 4d 08	 mov	 ecx, DWORD PTR _nCount$[ebp]
  00109	51		 push	 ecx
  0010a	68 00 00 00 00	 push	 OFFSET $SG45639
  0010f	e8 00 00 00 00	 call	 _printf
  00114	83 c4 08	 add	 esp, 8
  00117	32 c0		 xor	 al, al
  00119	eb 0e		 jmp	 SHORT $LN1@init
$LN2@init:

; 338  : 	m_cThread.setIdx(nIdx);

  0011b	8b 55 10	 mov	 edx, DWORD PTR _nIdx$[ebp]
  0011e	52		 push	 edx
  0011f	8b 4d f0	 mov	 ecx, DWORD PTR _this$[ebp]
  00122	e8 00 00 00 00	 call	 ?setIdx@CComThread@@QAEXH@Z ; CComThread::setIdx

; 339  : 	return true;

  00127	b0 01		 mov	 al, 1
$LN1@init:

; 340  : }

  00129	8b 4d f4	 mov	 ecx, DWORD PTR __$EHRec$[ebp]
  0012c	64 89 0d 00 00
	00 00		 mov	 DWORD PTR fs:0, ecx
  00133	59		 pop	 ecx
  00134	5e		 pop	 esi
  00135	83 c4 28	 add	 esp, 40			; 00000028H
  00138	3b ec		 cmp	 ebp, esp
  0013a	e8 00 00 00 00	 call	 __RTC_CheckEsp
  0013f	8b e5		 mov	 esp, ebp
  00141	5d		 pop	 ebp
  00142	c2 0c 00	 ret	 12			; 0000000cH
_TEXT	ENDS
text$x	SEGMENT
__unwindfunclet$?init@CScheduler@@QAE_NHHH@Z$0:
  00000	6a 1c		 push	 28			; 0000001cH
  00002	8b 45 e8	 mov	 eax, DWORD PTR $T4[ebp]
  00005	50		 push	 eax
  00006	e8 00 00 00 00	 call	 ??3@YAXPAXI@Z		; operator delete
  0000b	83 c4 08	 add	 esp, 8
  0000e	c3		 ret	 0
__ehhandler$?init@CScheduler@@QAE_NHHH@Z:
  0000f	8b 54 24 08	 mov	 edx, DWORD PTR [esp+8]
  00013	8d 42 0c	 lea	 eax, DWORD PTR [edx+12]
  00016	8b 4a dc	 mov	 ecx, DWORD PTR [edx-36]
  00019	33 c8		 xor	 ecx, eax
  0001b	e8 00 00 00 00	 call	 @__security_check_cookie@4
  00020	b8 00 00 00 00	 mov	 eax, OFFSET __ehfuncinfo$?init@CScheduler@@QAE_NHHH@Z
  00025	e9 00 00 00 00	 jmp	 ___CxxFrameHandler3
text$x	ENDS
?init@CScheduler@@QAE_NHHH@Z ENDP			; CScheduler::init
; Function compile flags: /Odtp /RTCsu
; File e:\infinia-library-3.0\com\src\comcore.cpp
_TEXT	SEGMENT
tv144 = -80						; size = 4
tv133 = -76						; size = 4
$T2 = -72						; size = 4
$T3 = -68						; size = 4
$T4 = -64						; size = 4
$T5 = -60						; size = 4
_nCount$ = -56						; size = 4
_szSect$ = -48						; size = 24
_this$ = -20						; size = 4
__$ArrayPad$ = -16					; size = 4
__$EHRec$ = -12						; size = 12
_pConfigFile$ = 8					; size = 4
_i$ = 12						; size = 4
_pSection$ = 16						; size = 4
?initConfig@CScheduler@@QAE_NPADH0@Z PROC		; CScheduler::initConfig
; _this$ = ecx

; 313  : {

  00000	55		 push	 ebp
  00001	8b ec		 mov	 ebp, esp
  00003	6a ff		 push	 -1
  00005	68 00 00 00 00	 push	 __ehhandler$?initConfig@CScheduler@@QAE_NPADH0@Z
  0000a	64 a1 00 00 00
	00		 mov	 eax, DWORD PTR fs:0
  00010	50		 push	 eax
  00011	83 ec 44	 sub	 esp, 68			; 00000044H
  00014	56		 push	 esi
  00015	57		 push	 edi
  00016	51		 push	 ecx
  00017	8d 7d b0	 lea	 edi, DWORD PTR [ebp-80]
  0001a	b9 11 00 00 00	 mov	 ecx, 17			; 00000011H
  0001f	b8 cc cc cc cc	 mov	 eax, -858993460		; ccccccccH
  00024	f3 ab		 rep stosd
  00026	59		 pop	 ecx
  00027	a1 00 00 00 00	 mov	 eax, DWORD PTR ___security_cookie
  0002c	33 c5		 xor	 eax, ebp
  0002e	89 45 f0	 mov	 DWORD PTR __$ArrayPad$[ebp], eax
  00031	50		 push	 eax
  00032	8d 45 f4	 lea	 eax, DWORD PTR __$EHRec$[ebp]
  00035	64 a3 00 00 00
	00		 mov	 DWORD PTR fs:0, eax
  0003b	89 4d ec	 mov	 DWORD PTR _this$[ebp], ecx

; 314  : 	TCHAR szSect[24];
; 315  : 	int nCount;
; 316  : 
; 317  : 	_stprintf(szSect, _T("%s_%d"), pSection, i);

  0003e	8b 45 0c	 mov	 eax, DWORD PTR _i$[ebp]
  00041	50		 push	 eax
  00042	8b 4d 10	 mov	 ecx, DWORD PTR _pSection$[ebp]
  00045	51		 push	 ecx
  00046	68 00 00 00 00	 push	 OFFSET $SG45611
  0004b	8d 55 d0	 lea	 edx, DWORD PTR _szSect$[ebp]
  0004e	52		 push	 edx
  0004f	e8 00 00 00 00	 call	 _sprintf
  00054	83 c4 10	 add	 esp, 16			; 00000010H

; 318  : 	nCount = GetPrivateProfileInt(szSect, _T("LIST_COUNT"), 0, pConfigFile);

  00057	8b f4		 mov	 esi, esp
  00059	8b 45 08	 mov	 eax, DWORD PTR _pConfigFile$[ebp]
  0005c	50		 push	 eax
  0005d	6a 00		 push	 0
  0005f	68 00 00 00 00	 push	 OFFSET $SG45612
  00064	8d 4d d0	 lea	 ecx, DWORD PTR _szSect$[ebp]
  00067	51		 push	 ecx
  00068	ff 15 00 00 00
	00		 call	 DWORD PTR __imp__GetPrivateProfileIntA@16
  0006e	3b f4		 cmp	 esi, esp
  00070	e8 00 00 00 00	 call	 __RTC_CheckEsp
  00075	89 45 c8	 mov	 DWORD PTR _nCount$[ebp], eax

; 319  : 	if (!nCount) return false;

  00078	83 7d c8 00	 cmp	 DWORD PTR _nCount$[ebp], 0
  0007c	75 07		 jne	 SHORT $LN2@initConfig
  0007e	32 c0		 xor	 al, al
  00080	e9 f5 00 00 00	 jmp	 $LN1@initConfig
$LN2@initConfig:

; 320  : 	m_nMilliSecWait = GetPrivateProfileInt(szSect, _T("TIME_WAIT"), -1, pConfigFile);

  00085	8b f4		 mov	 esi, esp
  00087	8b 55 08	 mov	 edx, DWORD PTR _pConfigFile$[ebp]
  0008a	52		 push	 edx
  0008b	6a ff		 push	 -1
  0008d	68 00 00 00 00	 push	 OFFSET $SG45614
  00092	8d 45 d0	 lea	 eax, DWORD PTR _szSect$[ebp]
  00095	50		 push	 eax
  00096	ff 15 00 00 00
	00		 call	 DWORD PTR __imp__GetPrivateProfileIntA@16
  0009c	3b f4		 cmp	 esi, esp
  0009e	e8 00 00 00 00	 call	 __RTC_CheckEsp
  000a3	8b 4d ec	 mov	 ecx, DWORD PTR _this$[ebp]
  000a6	89 41 2c	 mov	 DWORD PTR [ecx+44], eax

; 321  : 	m_nMillSecHalf = m_nMilliSecWait / 2;

  000a9	8b 55 ec	 mov	 edx, DWORD PTR _this$[ebp]
  000ac	8b 42 2c	 mov	 eax, DWORD PTR [edx+44]
  000af	99		 cdq
  000b0	2b c2		 sub	 eax, edx
  000b2	d1 f8		 sar	 eax, 1
  000b4	8b 4d ec	 mov	 ecx, DWORD PTR _this$[ebp]
  000b7	89 41 30	 mov	 DWORD PTR [ecx+48], eax

; 322  : 	m_nMillSecGoal = CURRENT_TIME + m_nMilliSecWait;

  000ba	8b f4		 mov	 esi, esp
  000bc	ff 15 00 00 00
	00		 call	 DWORD PTR __imp__GetTickCount@0
  000c2	3b f4		 cmp	 esi, esp
  000c4	e8 00 00 00 00	 call	 __RTC_CheckEsp
  000c9	8b 55 ec	 mov	 edx, DWORD PTR _this$[ebp]
  000cc	03 42 2c	 add	 eax, DWORD PTR [edx+44]
  000cf	8b 4d ec	 mov	 ecx, DWORD PTR _this$[ebp]
  000d2	89 41 34	 mov	 DWORD PTR [ecx+52], eax

; 323  : 
; 324  : 	m_pTimeList = new CMemList<STIntervalInfo>();

  000d5	6a 1c		 push	 28			; 0000001cH
  000d7	e8 00 00 00 00	 call	 ??2@YAPAXI@Z		; operator new
  000dc	83 c4 04	 add	 esp, 4
  000df	89 45 c0	 mov	 DWORD PTR $T4[ebp], eax
  000e2	c7 45 fc 00 00
	00 00		 mov	 DWORD PTR __$EHRec$[ebp+8], 0
  000e9	83 7d c0 00	 cmp	 DWORD PTR $T4[ebp], 0
  000ed	74 17		 je	 SHORT $LN5@initConfig
  000ef	6a 1c		 push	 28			; 0000001cH
  000f1	8b 4d c0	 mov	 ecx, DWORD PTR $T4[ebp]
  000f4	e8 00 00 00 00	 call	 ?__autoclassinit2@?$CMemList@USTIntervalInfo@@@@QAEXI@Z
  000f9	8b 4d c0	 mov	 ecx, DWORD PTR $T4[ebp]
  000fc	e8 00 00 00 00	 call	 ??0?$CMemList@USTIntervalInfo@@@@QAE@XZ ; CMemList<STIntervalInfo>::CMemList<STIntervalInfo>
  00101	89 45 b4	 mov	 DWORD PTR tv133[ebp], eax
  00104	eb 07		 jmp	 SHORT $LN6@initConfig
$LN5@initConfig:
  00106	c7 45 b4 00 00
	00 00		 mov	 DWORD PTR tv133[ebp], 0
$LN6@initConfig:
  0010d	8b 55 b4	 mov	 edx, DWORD PTR tv133[ebp]
  00110	89 55 c4	 mov	 DWORD PTR $T5[ebp], edx
  00113	c7 45 fc ff ff
	ff ff		 mov	 DWORD PTR __$EHRec$[ebp+8], -1
  0011a	8b 45 ec	 mov	 eax, DWORD PTR _this$[ebp]
  0011d	8b 4d c4	 mov	 ecx, DWORD PTR $T5[ebp]
  00120	89 48 28	 mov	 DWORD PTR [eax+40], ecx

; 325  : 	if (!m_pTimeList->alloc(nCount, eAlloc_Type_none)) { delete m_pTimeList; printf("has Failed!! m_pTimeList->alloc(%d)\n", nCount); return false; }

  00123	6a 00		 push	 0
  00125	8b 55 c8	 mov	 edx, DWORD PTR _nCount$[ebp]
  00128	52		 push	 edx
  00129	8b 45 ec	 mov	 eax, DWORD PTR _this$[ebp]
  0012c	8b 48 28	 mov	 ecx, DWORD PTR [eax+40]
  0012f	e8 00 00 00 00	 call	 ?alloc@?$CMemList@USTIntervalInfo@@@@QAEHHW4E_ALLOC_TYPE@@@Z ; CMemList<STIntervalInfo>::alloc
  00134	85 c0		 test	 eax, eax
  00136	75 40		 jne	 SHORT $LN3@initConfig
  00138	8b 4d ec	 mov	 ecx, DWORD PTR _this$[ebp]
  0013b	8b 51 28	 mov	 edx, DWORD PTR [ecx+40]
  0013e	89 55 b8	 mov	 DWORD PTR $T2[ebp], edx
  00141	8b 45 b8	 mov	 eax, DWORD PTR $T2[ebp]
  00144	89 45 bc	 mov	 DWORD PTR $T3[ebp], eax
  00147	83 7d bc 00	 cmp	 DWORD PTR $T3[ebp], 0
  0014b	74 0f		 je	 SHORT $LN7@initConfig
  0014d	6a 01		 push	 1
  0014f	8b 4d bc	 mov	 ecx, DWORD PTR $T3[ebp]
  00152	e8 00 00 00 00	 call	 ??_G?$CMemList@USTIntervalInfo@@@@QAEPAXI@Z
  00157	89 45 b0	 mov	 DWORD PTR tv144[ebp], eax
  0015a	eb 07		 jmp	 SHORT $LN8@initConfig
$LN7@initConfig:
  0015c	c7 45 b0 00 00
	00 00		 mov	 DWORD PTR tv144[ebp], 0
$LN8@initConfig:
  00163	8b 4d c8	 mov	 ecx, DWORD PTR _nCount$[ebp]
  00166	51		 push	 ecx
  00167	68 00 00 00 00	 push	 OFFSET $SG45617
  0016c	e8 00 00 00 00	 call	 _printf
  00171	83 c4 08	 add	 esp, 8
  00174	32 c0		 xor	 al, al
  00176	eb 02		 jmp	 SHORT $LN1@initConfig
$LN3@initConfig:

; 326  : 
; 327  : 	return true;

  00178	b0 01		 mov	 al, 1
$LN1@initConfig:

; 328  : 
; 329  : }

  0017a	52		 push	 edx
  0017b	8b cd		 mov	 ecx, ebp
  0017d	50		 push	 eax
  0017e	8d 15 00 00 00
	00		 lea	 edx, DWORD PTR $LN13@initConfig
  00184	e8 00 00 00 00	 call	 @_RTC_CheckStackVars@8
  00189	58		 pop	 eax
  0018a	5a		 pop	 edx
  0018b	8b 4d f4	 mov	 ecx, DWORD PTR __$EHRec$[ebp]
  0018e	64 89 0d 00 00
	00 00		 mov	 DWORD PTR fs:0, ecx
  00195	59		 pop	 ecx
  00196	5f		 pop	 edi
  00197	5e		 pop	 esi
  00198	8b 4d f0	 mov	 ecx, DWORD PTR __$ArrayPad$[ebp]
  0019b	33 cd		 xor	 ecx, ebp
  0019d	e8 00 00 00 00	 call	 @__security_check_cookie@4
  001a2	83 c4 50	 add	 esp, 80			; 00000050H
  001a5	3b ec		 cmp	 ebp, esp
  001a7	e8 00 00 00 00	 call	 __RTC_CheckEsp
  001ac	8b e5		 mov	 esp, ebp
  001ae	5d		 pop	 ebp
  001af	c2 0c 00	 ret	 12			; 0000000cH
  001b2	66 90		 npad	 2
$LN13@initConfig:
  001b4	01 00 00 00	 DD	 1
  001b8	00 00 00 00	 DD	 $LN12@initConfig
$LN12@initConfig:
  001bc	d0 ff ff ff	 DD	 -48			; ffffffd0H
  001c0	18 00 00 00	 DD	 24			; 00000018H
  001c4	00 00 00 00	 DD	 $LN10@initConfig
$LN10@initConfig:
  001c8	73		 DB	 115			; 00000073H
  001c9	7a		 DB	 122			; 0000007aH
  001ca	53		 DB	 83			; 00000053H
  001cb	65		 DB	 101			; 00000065H
  001cc	63		 DB	 99			; 00000063H
  001cd	74		 DB	 116			; 00000074H
  001ce	00		 DB	 0
_TEXT	ENDS
text$x	SEGMENT
__unwindfunclet$?initConfig@CScheduler@@QAE_NPADH0@Z$0:
  00000	6a 1c		 push	 28			; 0000001cH
  00002	8b 45 c0	 mov	 eax, DWORD PTR $T4[ebp]
  00005	50		 push	 eax
  00006	e8 00 00 00 00	 call	 ??3@YAXPAXI@Z		; operator delete
  0000b	83 c4 08	 add	 esp, 8
  0000e	c3		 ret	 0
__ehhandler$?initConfig@CScheduler@@QAE_NPADH0@Z:
  0000f	8b 54 24 08	 mov	 edx, DWORD PTR [esp+8]
  00013	8d 42 0c	 lea	 eax, DWORD PTR [edx+12]
  00016	8b 4a b0	 mov	 ecx, DWORD PTR [edx-80]
  00019	33 c8		 xor	 ecx, eax
  0001b	e8 00 00 00 00	 call	 @__security_check_cookie@4
  00020	8b 4a fc	 mov	 ecx, DWORD PTR [edx-4]
  00023	33 c8		 xor	 ecx, eax
  00025	e8 00 00 00 00	 call	 @__security_check_cookie@4
  0002a	b8 00 00 00 00	 mov	 eax, OFFSET __ehfuncinfo$?initConfig@CScheduler@@QAE_NPADH0@Z
  0002f	e9 00 00 00 00	 jmp	 ___CxxFrameHandler3
text$x	ENDS
?initConfig@CScheduler@@QAE_NPADH0@Z ENDP		; CScheduler::initConfig
; Function compile flags: /Odtp /RTCsu
; File e:\infinia-library-3.0\com\src\comcore.cpp
_TEXT	SEGMENT
_this$ = -16						; size = 4
__$EHRec$ = -12						; size = 12
??1CScheduler@@QAE@XZ PROC				; CScheduler::~CScheduler
; _this$ = ecx

; 308  : {

  00000	55		 push	 ebp
  00001	8b ec		 mov	 ebp, esp
  00003	6a ff		 push	 -1
  00005	68 00 00 00 00	 push	 __ehhandler$??1CScheduler@@QAE@XZ
  0000a	64 a1 00 00 00
	00		 mov	 eax, DWORD PTR fs:0
  00010	50		 push	 eax
  00011	51		 push	 ecx
  00012	c7 45 f0 cc cc
	cc cc		 mov	 DWORD PTR [ebp-16], -858993460 ; ccccccccH
  00019	a1 00 00 00 00	 mov	 eax, DWORD PTR ___security_cookie
  0001e	33 c5		 xor	 eax, ebp
  00020	50		 push	 eax
  00021	8d 45 f4	 lea	 eax, DWORD PTR __$EHRec$[ebp]
  00024	64 a3 00 00 00
	00		 mov	 DWORD PTR fs:0, eax
  0002a	89 4d f0	 mov	 DWORD PTR _this$[ebp], ecx

; 309  : 	quit();

  0002d	8b 4d f0	 mov	 ecx, DWORD PTR _this$[ebp]
  00030	e8 00 00 00 00	 call	 ?quit@CScheduler@@QAE_NXZ ; CScheduler::quit

; 310  : }

  00035	8b 4d f0	 mov	 ecx, DWORD PTR _this$[ebp]
  00038	e8 00 00 00 00	 call	 ??1CComThread@@QAE@XZ	; CComThread::~CComThread
  0003d	8b 4d f4	 mov	 ecx, DWORD PTR __$EHRec$[ebp]
  00040	64 89 0d 00 00
	00 00		 mov	 DWORD PTR fs:0, ecx
  00047	59		 pop	 ecx
  00048	83 c4 10	 add	 esp, 16			; 00000010H
  0004b	3b ec		 cmp	 ebp, esp
  0004d	e8 00 00 00 00	 call	 __RTC_CheckEsp
  00052	8b e5		 mov	 esp, ebp
  00054	5d		 pop	 ebp
  00055	c3		 ret	 0
_TEXT	ENDS
text$x	SEGMENT
__ehhandler$??1CScheduler@@QAE@XZ:
  00000	8b 54 24 08	 mov	 edx, DWORD PTR [esp+8]
  00004	8d 42 0c	 lea	 eax, DWORD PTR [edx+12]
  00007	8b 4a f8	 mov	 ecx, DWORD PTR [edx-8]
  0000a	33 c8		 xor	 ecx, eax
  0000c	e8 00 00 00 00	 call	 @__security_check_cookie@4
  00011	b8 00 00 00 00	 mov	 eax, OFFSET __ehfuncinfo$??1CScheduler@@QAE@XZ
  00016	e9 00 00 00 00	 jmp	 ___CxxFrameHandler3
text$x	ENDS
??1CScheduler@@QAE@XZ ENDP				; CScheduler::~CScheduler
; Function compile flags: /Odtp /RTCsu
; File e:\infinia-library-3.0\com\src\comcore.cpp
_TEXT	SEGMENT
_this$ = -4						; size = 4
??0CScheduler@@QAE@XZ PROC				; CScheduler::CScheduler
; _this$ = ecx

; 302  : {

  00000	55		 push	 ebp
  00001	8b ec		 mov	 ebp, esp
  00003	51		 push	 ecx
  00004	c7 45 fc cc cc
	cc cc		 mov	 DWORD PTR [ebp-4], -858993460 ; ccccccccH
  0000b	89 4d fc	 mov	 DWORD PTR _this$[ebp], ecx
  0000e	8b 4d fc	 mov	 ecx, DWORD PTR _this$[ebp]
  00011	e8 00 00 00 00	 call	 ??0CComThread@@QAE@XZ	; CComThread::CComThread

; 303  : 	m_pTimeList = NULL;

  00016	8b 45 fc	 mov	 eax, DWORD PTR _this$[ebp]
  00019	c7 40 28 00 00
	00 00		 mov	 DWORD PTR [eax+40], 0

; 304  : 	m_nMilliSecWait = -1;

  00020	8b 4d fc	 mov	 ecx, DWORD PTR _this$[ebp]
  00023	c7 41 2c ff ff
	ff ff		 mov	 DWORD PTR [ecx+44], -1

; 305  : 	m_nMillSecGoal = 0;

  0002a	8b 55 fc	 mov	 edx, DWORD PTR _this$[ebp]
  0002d	c7 42 34 00 00
	00 00		 mov	 DWORD PTR [edx+52], 0

; 306  : }

  00034	8b 45 fc	 mov	 eax, DWORD PTR _this$[ebp]
  00037	83 c4 04	 add	 esp, 4
  0003a	3b ec		 cmp	 ebp, esp
  0003c	e8 00 00 00 00	 call	 __RTC_CheckEsp
  00041	8b e5		 mov	 esp, ebp
  00043	5d		 pop	 ebp
  00044	c3		 ret	 0
??0CScheduler@@QAE@XZ ENDP				; CScheduler::CScheduler
_TEXT	ENDS
; Function compile flags: /Odtp /RTCsu
; File e:\infinia-library-3.0\com\src\comcore.cpp
_TEXT	SEGMENT
_idx$ = -28						; size = 4
_diff$ = -20						; size = 4
_cur$ = -16						; size = 4
_pData$ = -12						; size = 4
_pBasic$ = -8						; size = 4
__$ArrayPad$ = -4					; size = 4
_p$ = 8							; size = 4
?schedulerLoop@@YAXPAUSTThreadInfo@@@Z PROC		; schedulerLoop

; 368  : {

  00000	55		 push	 ebp
  00001	8b ec		 mov	 ebp, esp
  00003	83 ec 20	 sub	 esp, 32			; 00000020H
  00006	56		 push	 esi
  00007	b8 cc cc cc cc	 mov	 eax, -858993460		; ccccccccH
  0000c	89 45 e0	 mov	 DWORD PTR [ebp-32], eax
  0000f	89 45 e4	 mov	 DWORD PTR [ebp-28], eax
  00012	89 45 e8	 mov	 DWORD PTR [ebp-24], eax
  00015	89 45 ec	 mov	 DWORD PTR [ebp-20], eax
  00018	89 45 f0	 mov	 DWORD PTR [ebp-16], eax
  0001b	89 45 f4	 mov	 DWORD PTR [ebp-12], eax
  0001e	89 45 f8	 mov	 DWORD PTR [ebp-8], eax
  00021	89 45 fc	 mov	 DWORD PTR [ebp-4], eax
  00024	a1 00 00 00 00	 mov	 eax, DWORD PTR ___security_cookie
  00029	33 c5		 xor	 eax, ebp
  0002b	89 45 fc	 mov	 DWORD PTR __$ArrayPad$[ebp], eax

; 369  : 	CScheduler *pBasic = (CScheduler *)p->pClass;

  0002e	8b 45 08	 mov	 eax, DWORD PTR _p$[ebp]
  00031	8b 48 0c	 mov	 ecx, DWORD PTR [eax+12]
  00034	89 4d f8	 mov	 DWORD PTR _pBasic$[ebp], ecx

; 370  : 	STIntervalInfo *pData;
; 371  : 	TICKTIME_MILLISEC cur = CURRENT_TIME;

  00037	8b f4		 mov	 esi, esp
  00039	ff 15 00 00 00
	00		 call	 DWORD PTR __imp__GetTickCount@0
  0003f	3b f4		 cmp	 esi, esp
  00041	e8 00 00 00 00	 call	 __RTC_CheckEsp
  00046	89 45 f0	 mov	 DWORD PTR _cur$[ebp], eax

; 372  : 	int diff = pBasic->getGoal() - cur;

  00049	8b 4d f8	 mov	 ecx, DWORD PTR _pBasic$[ebp]
  0004c	e8 00 00 00 00	 call	 ?getGoal@CScheduler@@QAEIXZ ; CScheduler::getGoal
  00051	2b 45 f0	 sub	 eax, DWORD PTR _cur$[ebp]
  00054	89 45 ec	 mov	 DWORD PTR _diff$[ebp], eax

; 373  : 	
; 374  : 
; 375  : 	if (1 < diff) {

  00057	83 7d ec 01	 cmp	 DWORD PTR _diff$[ebp], 1
  0005b	7e 0b		 jle	 SHORT $LN4@schedulerL

; 376  : 		p->millisecSleep = diff;

  0005d	8b 55 08	 mov	 edx, DWORD PTR _p$[ebp]
  00060	8b 45 ec	 mov	 eax, DWORD PTR _diff$[ebp]
  00063	89 42 1c	 mov	 DWORD PTR [edx+28], eax

; 377  : 		return;

  00066	eb 7b		 jmp	 SHORT $LN1@schedulerL
$LN4@schedulerL:

; 378  : 	}
; 379  : 
; 380  : 
; 381  : 	int idx = 0;

  00068	c7 45 e4 00 00
	00 00		 mov	 DWORD PTR _idx$[ebp], 0

; 382  : 	pData = (STIntervalInfo *)pBasic->timeNext(&idx);

  0006f	8d 4d e4	 lea	 ecx, DWORD PTR _idx$[ebp]
  00072	51		 push	 ecx
  00073	8b 4d f8	 mov	 ecx, DWORD PTR _pBasic$[ebp]
  00076	e8 00 00 00 00	 call	 ?timeNext@CScheduler@@QAEPAUSTIntervalInfo@@PAH@Z ; CScheduler::timeNext
  0007b	89 45 f4	 mov	 DWORD PTR _pData$[ebp], eax
$LN2@schedulerL:

; 383  : 	while (pData)

  0007e	83 7d f4 00	 cmp	 DWORD PTR _pData$[ebp], 0
  00082	74 49		 je	 SHORT $LN3@schedulerL

; 384  : 	{
; 385  : 		if (!pData->nFlag) {

  00084	8b 55 f4	 mov	 edx, DWORD PTR _pData$[ebp]
  00087	83 7a 04 00	 cmp	 DWORD PTR [edx+4], 0
  0008b	75 0e		 jne	 SHORT $LN5@schedulerL

; 386  : 			pBasic->deleteTime(pData);

  0008d	8b 45 f4	 mov	 eax, DWORD PTR _pData$[ebp]
  00090	50		 push	 eax
  00091	8b 4d f8	 mov	 ecx, DWORD PTR _pBasic$[ebp]
  00094	e8 00 00 00 00	 call	 ?deleteTime@CScheduler@@QAE_NPAUSTIntervalInfo@@@Z ; CScheduler::deleteTime

; 387  : 		}
; 388  : 		else 

  00099	eb 18		 jmp	 SHORT $LN6@schedulerL
$LN5@schedulerL:

; 389  : 		{
; 390  : 			pData->pFunction(pData);

  0009b	8b f4		 mov	 esi, esp
  0009d	8b 4d f4	 mov	 ecx, DWORD PTR _pData$[ebp]
  000a0	51		 push	 ecx
  000a1	8b 55 f4	 mov	 edx, DWORD PTR _pData$[ebp]
  000a4	8b 42 18	 mov	 eax, DWORD PTR [edx+24]
  000a7	ff d0		 call	 eax
  000a9	83 c4 04	 add	 esp, 4
  000ac	3b f4		 cmp	 esi, esp
  000ae	e8 00 00 00 00	 call	 __RTC_CheckEsp
$LN6@schedulerL:

; 391  : 		}
; 392  : 
; 393  : 		idx++;

  000b3	8b 4d e4	 mov	 ecx, DWORD PTR _idx$[ebp]
  000b6	83 c1 01	 add	 ecx, 1
  000b9	89 4d e4	 mov	 DWORD PTR _idx$[ebp], ecx

; 394  : 		pData = (STIntervalInfo *)pBasic->timeNext(&idx);

  000bc	8d 55 e4	 lea	 edx, DWORD PTR _idx$[ebp]
  000bf	52		 push	 edx
  000c0	8b 4d f8	 mov	 ecx, DWORD PTR _pBasic$[ebp]
  000c3	e8 00 00 00 00	 call	 ?timeNext@CScheduler@@QAEPAUSTIntervalInfo@@PAH@Z ; CScheduler::timeNext
  000c8	89 45 f4	 mov	 DWORD PTR _pData$[ebp], eax

; 395  : 	}

  000cb	eb b1		 jmp	 SHORT $LN2@schedulerL
$LN3@schedulerL:

; 396  : 	pBasic->setGoal();

  000cd	8b 4d f8	 mov	 ecx, DWORD PTR _pBasic$[ebp]
  000d0	e8 00 00 00 00	 call	 ?setGoal@CScheduler@@QAEXXZ ; CScheduler::setGoal

; 397  : 	p->millisecSleep = pBasic->getMilliSecHalf();

  000d5	8b 4d f8	 mov	 ecx, DWORD PTR _pBasic$[ebp]
  000d8	e8 00 00 00 00	 call	 ?getMilliSecHalf@CScheduler@@QAEHXZ ; CScheduler::getMilliSecHalf
  000dd	8b 4d 08	 mov	 ecx, DWORD PTR _p$[ebp]
  000e0	89 41 1c	 mov	 DWORD PTR [ecx+28], eax
$LN1@schedulerL:

; 398  : }

  000e3	52		 push	 edx
  000e4	8b cd		 mov	 ecx, ebp
  000e6	50		 push	 eax
  000e7	8d 15 00 00 00
	00		 lea	 edx, DWORD PTR $LN10@schedulerL
  000ed	e8 00 00 00 00	 call	 @_RTC_CheckStackVars@8
  000f2	58		 pop	 eax
  000f3	5a		 pop	 edx
  000f4	5e		 pop	 esi
  000f5	8b 4d fc	 mov	 ecx, DWORD PTR __$ArrayPad$[ebp]
  000f8	33 cd		 xor	 ecx, ebp
  000fa	e8 00 00 00 00	 call	 @__security_check_cookie@4
  000ff	83 c4 20	 add	 esp, 32			; 00000020H
  00102	3b ec		 cmp	 ebp, esp
  00104	e8 00 00 00 00	 call	 __RTC_CheckEsp
  00109	8b e5		 mov	 esp, ebp
  0010b	5d		 pop	 ebp
  0010c	c3		 ret	 0
  0010d	0f 1f 00	 npad	 3
$LN10@schedulerL:
  00110	01 00 00 00	 DD	 1
  00114	00 00 00 00	 DD	 $LN9@schedulerL
$LN9@schedulerL:
  00118	e4 ff ff ff	 DD	 -28			; ffffffe4H
  0011c	04 00 00 00	 DD	 4
  00120	00 00 00 00	 DD	 $LN8@schedulerL
$LN8@schedulerL:
  00124	69		 DB	 105			; 00000069H
  00125	64		 DB	 100			; 00000064H
  00126	78		 DB	 120			; 00000078H
  00127	00		 DB	 0
?schedulerLoop@@YAXPAUSTThreadInfo@@@Z ENDP		; schedulerLoop
_TEXT	ENDS
; Function compile flags: /Odtp /RTCsu
;	COMDAT ??_ECSTLogger@@QAEPAXI@Z
_TEXT	SEGMENT
_this$ = -16						; size = 4
__$EHRec$ = -12						; size = 12
___flags$ = 8						; size = 4
??_ECSTLogger@@QAEPAXI@Z PROC				; CSTLogger::`vector deleting destructor', COMDAT
; _this$ = ecx
  00000	55		 push	 ebp
  00001	8b ec		 mov	 ebp, esp
  00003	6a ff		 push	 -1
  00005	68 00 00 00 00	 push	 __ehhandler$??_ECSTLogger@@QAEPAXI@Z
  0000a	64 a1 00 00 00
	00		 mov	 eax, DWORD PTR fs:0
  00010	50		 push	 eax
  00011	51		 push	 ecx
  00012	c7 45 f0 cc cc
	cc cc		 mov	 DWORD PTR [ebp-16], -858993460 ; ccccccccH
  00019	a1 00 00 00 00	 mov	 eax, DWORD PTR ___security_cookie
  0001e	33 c5		 xor	 eax, ebp
  00020	50		 push	 eax
  00021	8d 45 f4	 lea	 eax, DWORD PTR __$EHRec$[ebp]
  00024	64 a3 00 00 00
	00		 mov	 DWORD PTR fs:0, eax
  0002a	89 4d f0	 mov	 DWORD PTR _this$[ebp], ecx
  0002d	8b 45 08	 mov	 eax, DWORD PTR ___flags$[ebp]
  00030	83 e0 02	 and	 eax, 2
  00033	74 41		 je	 SHORT $LN2@vector
  00035	68 00 00 00 00	 push	 OFFSET ??1CSTLogger@@QAE@XZ ; CSTLogger::~CSTLogger
  0003a	8b 4d f0	 mov	 ecx, DWORD PTR _this$[ebp]
  0003d	8b 51 fc	 mov	 edx, DWORD PTR [ecx-4]
  00040	52		 push	 edx
  00041	6a 30		 push	 48			; 00000030H
  00043	8b 45 f0	 mov	 eax, DWORD PTR _this$[ebp]
  00046	50		 push	 eax
  00047	e8 00 00 00 00	 call	 ??_M@YGXPAXIIP6EX0@Z@Z
  0004c	8b 4d 08	 mov	 ecx, DWORD PTR ___flags$[ebp]
  0004f	83 e1 01	 and	 ecx, 1
  00052	74 1a		 je	 SHORT $LN3@vector
  00054	8b 55 f0	 mov	 edx, DWORD PTR _this$[ebp]
  00057	6b 42 fc 30	 imul	 eax, DWORD PTR [edx-4], 48
  0005b	83 c0 04	 add	 eax, 4
  0005e	50		 push	 eax
  0005f	8b 4d f0	 mov	 ecx, DWORD PTR _this$[ebp]
  00062	83 e9 04	 sub	 ecx, 4
  00065	51		 push	 ecx
  00066	e8 00 00 00 00	 call	 ??_V@YAXPAXI@Z		; operator delete[]
  0006b	83 c4 08	 add	 esp, 8
$LN3@vector:
  0006e	8b 45 f0	 mov	 eax, DWORD PTR _this$[ebp]
  00071	83 e8 04	 sub	 eax, 4
  00074	eb 21		 jmp	 SHORT $LN5@vector
$LN2@vector:
  00076	8b 4d f0	 mov	 ecx, DWORD PTR _this$[ebp]
  00079	e8 00 00 00 00	 call	 ??1CSTLogger@@QAE@XZ	; CSTLogger::~CSTLogger
  0007e	8b 55 08	 mov	 edx, DWORD PTR ___flags$[ebp]
  00081	83 e2 01	 and	 edx, 1
  00084	74 0e		 je	 SHORT $LN4@vector
  00086	6a 30		 push	 48			; 00000030H
  00088	8b 45 f0	 mov	 eax, DWORD PTR _this$[ebp]
  0008b	50		 push	 eax
  0008c	e8 00 00 00 00	 call	 ??3@YAXPAXI@Z		; operator delete
  00091	83 c4 08	 add	 esp, 8
$LN4@vector:
  00094	8b 45 f0	 mov	 eax, DWORD PTR _this$[ebp]
$LN5@vector:
  00097	8b 4d f4	 mov	 ecx, DWORD PTR __$EHRec$[ebp]
  0009a	64 89 0d 00 00
	00 00		 mov	 DWORD PTR fs:0, ecx
  000a1	59		 pop	 ecx
  000a2	83 c4 10	 add	 esp, 16			; 00000010H
  000a5	3b ec		 cmp	 ebp, esp
  000a7	e8 00 00 00 00	 call	 __RTC_CheckEsp
  000ac	8b e5		 mov	 esp, ebp
  000ae	5d		 pop	 ebp
  000af	c2 04 00	 ret	 4
_TEXT	ENDS
;	COMDAT text$x
text$x	SEGMENT
__ehhandler$??_ECSTLogger@@QAEPAXI@Z:
  00000	8b 54 24 08	 mov	 edx, DWORD PTR [esp+8]
  00004	8d 42 0c	 lea	 eax, DWORD PTR [edx+12]
  00007	8b 4a f8	 mov	 ecx, DWORD PTR [edx-8]
  0000a	33 c8		 xor	 ecx, eax
  0000c	e8 00 00 00 00	 call	 @__security_check_cookie@4
  00011	b8 00 00 00 00	 mov	 eax, OFFSET __ehfuncinfo$??_ECSTLogger@@QAEPAXI@Z
  00016	e9 00 00 00 00	 jmp	 ___CxxFrameHandler3
text$x	ENDS
??_ECSTLogger@@QAEPAXI@Z ENDP				; CSTLogger::`vector deleting destructor'
; Function compile flags: /Odtp /RTCsu
;	COMDAT ??_GCSTLogger@@QAEPAXI@Z
_TEXT	SEGMENT
_this$ = -4						; size = 4
___flags$ = 8						; size = 4
??_GCSTLogger@@QAEPAXI@Z PROC				; CSTLogger::`scalar deleting destructor', COMDAT
; _this$ = ecx
  00000	55		 push	 ebp
  00001	8b ec		 mov	 ebp, esp
  00003	51		 push	 ecx
  00004	c7 45 fc cc cc
	cc cc		 mov	 DWORD PTR [ebp-4], -858993460 ; ccccccccH
  0000b	89 4d fc	 mov	 DWORD PTR _this$[ebp], ecx
  0000e	8b 4d fc	 mov	 ecx, DWORD PTR _this$[ebp]
  00011	e8 00 00 00 00	 call	 ??1CSTLogger@@QAE@XZ	; CSTLogger::~CSTLogger
  00016	8b 45 08	 mov	 eax, DWORD PTR ___flags$[ebp]
  00019	83 e0 01	 and	 eax, 1
  0001c	74 0e		 je	 SHORT $LN2@scalar
  0001e	6a 30		 push	 48			; 00000030H
  00020	8b 4d fc	 mov	 ecx, DWORD PTR _this$[ebp]
  00023	51		 push	 ecx
  00024	e8 00 00 00 00	 call	 ??3@YAXPAXI@Z		; operator delete
  00029	83 c4 08	 add	 esp, 8
$LN2@scalar:
  0002c	8b 45 fc	 mov	 eax, DWORD PTR _this$[ebp]
  0002f	83 c4 04	 add	 esp, 4
  00032	3b ec		 cmp	 ebp, esp
  00034	e8 00 00 00 00	 call	 __RTC_CheckEsp
  00039	8b e5		 mov	 esp, ebp
  0003b	5d		 pop	 ebp
  0003c	c2 04 00	 ret	 4
??_GCSTLogger@@QAEPAXI@Z ENDP				; CSTLogger::`scalar deleting destructor'
_TEXT	ENDS
; Function compile flags: /Odtp /RTCsu
; File e:\infinia-library-3.0\com\src\comcore.cpp
_TEXT	SEGMENT
tv130 = -40						; size = 4
tv78 = -36						; size = 4
$T2 = -32						; size = 4
$T3 = -28						; size = 4
$T4 = -24						; size = 4
$T5 = -20						; size = 4
_this$ = -16						; size = 4
__$EHRec$ = -12						; size = 12
_nCount$ = 8						; size = 4
?_init@CSTLogger@@AAE_NH@Z PROC				; CSTLogger::_init
; _this$ = ecx

; 132  : bool CSTLogger::_init(int nCount) {

  00000	55		 push	 ebp
  00001	8b ec		 mov	 ebp, esp
  00003	6a ff		 push	 -1
  00005	68 00 00 00 00	 push	 __ehhandler$?_init@CSTLogger@@AAE_NH@Z
  0000a	64 a1 00 00 00
	00		 mov	 eax, DWORD PTR fs:0
  00010	50		 push	 eax
  00011	83 ec 1c	 sub	 esp, 28			; 0000001cH
  00014	b8 cc cc cc cc	 mov	 eax, -858993460		; ccccccccH
  00019	89 45 d8	 mov	 DWORD PTR [ebp-40], eax
  0001c	89 45 dc	 mov	 DWORD PTR [ebp-36], eax
  0001f	89 45 e0	 mov	 DWORD PTR [ebp-32], eax
  00022	89 45 e4	 mov	 DWORD PTR [ebp-28], eax
  00025	89 45 e8	 mov	 DWORD PTR [ebp-24], eax
  00028	89 45 ec	 mov	 DWORD PTR [ebp-20], eax
  0002b	89 45 f0	 mov	 DWORD PTR [ebp-16], eax
  0002e	a1 00 00 00 00	 mov	 eax, DWORD PTR ___security_cookie
  00033	33 c5		 xor	 eax, ebp
  00035	50		 push	 eax
  00036	8d 45 f4	 lea	 eax, DWORD PTR __$EHRec$[ebp]
  00039	64 a3 00 00 00
	00		 mov	 DWORD PTR fs:0, eax
  0003f	89 4d f0	 mov	 DWORD PTR _this$[ebp], ecx

; 133  : 	m_pLoggerList = new CTList<CLogger>();

  00042	6a 18		 push	 24			; 00000018H
  00044	e8 00 00 00 00	 call	 ??2@YAPAXI@Z		; operator new
  00049	83 c4 04	 add	 esp, 4
  0004c	89 45 e8	 mov	 DWORD PTR $T4[ebp], eax
  0004f	c7 45 fc 00 00
	00 00		 mov	 DWORD PTR __$EHRec$[ebp+8], 0
  00056	83 7d e8 00	 cmp	 DWORD PTR $T4[ebp], 0
  0005a	74 17		 je	 SHORT $LN5@init
  0005c	6a 18		 push	 24			; 00000018H
  0005e	8b 4d e8	 mov	 ecx, DWORD PTR $T4[ebp]
  00061	e8 00 00 00 00	 call	 ?__autoclassinit2@?$CTList@VCLogger@@@@QAEXI@Z
  00066	8b 4d e8	 mov	 ecx, DWORD PTR $T4[ebp]
  00069	e8 00 00 00 00	 call	 ??0?$CTList@VCLogger@@@@QAE@XZ ; CTList<CLogger>::CTList<CLogger>
  0006e	89 45 dc	 mov	 DWORD PTR tv78[ebp], eax
  00071	eb 07		 jmp	 SHORT $LN6@init
$LN5@init:
  00073	c7 45 dc 00 00
	00 00		 mov	 DWORD PTR tv78[ebp], 0
$LN6@init:
  0007a	8b 45 dc	 mov	 eax, DWORD PTR tv78[ebp]
  0007d	89 45 ec	 mov	 DWORD PTR $T5[ebp], eax
  00080	c7 45 fc ff ff
	ff ff		 mov	 DWORD PTR __$EHRec$[ebp+8], -1
  00087	8b 4d f0	 mov	 ecx, DWORD PTR _this$[ebp]
  0008a	8b 55 ec	 mov	 edx, DWORD PTR $T5[ebp]
  0008d	89 51 28	 mov	 DWORD PTR [ecx+40], edx

; 134  : 	if (!m_pLoggerList->alloc(nCount, eAlloc_Type_none)) return false;

  00090	6a 00		 push	 0
  00092	8b 45 08	 mov	 eax, DWORD PTR _nCount$[ebp]
  00095	50		 push	 eax
  00096	8b 4d f0	 mov	 ecx, DWORD PTR _this$[ebp]
  00099	8b 49 28	 mov	 ecx, DWORD PTR [ecx+40]
  0009c	e8 00 00 00 00	 call	 ?alloc@?$CTList@VCLogger@@@@QAEHHW4E_ALLOC_TYPE@@@Z ; CTList<CLogger>::alloc
  000a1	85 c0		 test	 eax, eax
  000a3	75 04		 jne	 SHORT $LN2@init
  000a5	32 c0		 xor	 al, al
  000a7	eb 6a		 jmp	 SHORT $LN1@init
$LN2@init:

; 135  : 	m_pComandList = new CQueueS();

  000a9	6a 40		 push	 64			; 00000040H
  000ab	e8 00 00 00 00	 call	 ??2@YAPAXI@Z		; operator new
  000b0	83 c4 04	 add	 esp, 4
  000b3	89 45 e0	 mov	 DWORD PTR $T2[ebp], eax
  000b6	c7 45 fc 01 00
	00 00		 mov	 DWORD PTR __$EHRec$[ebp+8], 1
  000bd	83 7d e0 00	 cmp	 DWORD PTR $T2[ebp], 0
  000c1	74 17		 je	 SHORT $LN7@init
  000c3	6a 40		 push	 64			; 00000040H
  000c5	8b 4d e0	 mov	 ecx, DWORD PTR $T2[ebp]
  000c8	e8 00 00 00 00	 call	 ?__autoclassinit2@CQueueS@@QAEXI@Z
  000cd	8b 4d e0	 mov	 ecx, DWORD PTR $T2[ebp]
  000d0	e8 00 00 00 00	 call	 ??0CQueueS@@QAE@XZ	; CQueueS::CQueueS
  000d5	89 45 d8	 mov	 DWORD PTR tv130[ebp], eax
  000d8	eb 07		 jmp	 SHORT $LN8@init
$LN7@init:
  000da	c7 45 d8 00 00
	00 00		 mov	 DWORD PTR tv130[ebp], 0
$LN8@init:
  000e1	8b 55 d8	 mov	 edx, DWORD PTR tv130[ebp]
  000e4	89 55 e4	 mov	 DWORD PTR $T3[ebp], edx
  000e7	c7 45 fc ff ff
	ff ff		 mov	 DWORD PTR __$EHRec$[ebp+8], -1
  000ee	8b 45 f0	 mov	 eax, DWORD PTR _this$[ebp]
  000f1	8b 4d e4	 mov	 ecx, DWORD PTR $T3[ebp]
  000f4	89 48 2c	 mov	 DWORD PTR [eax+44], ecx

; 136  : 	if (!m_pComandList->alloc(10, eAlloc_Type_none)) return false;

  000f7	6a 00		 push	 0
  000f9	6a 0a		 push	 10			; 0000000aH
  000fb	8b 55 f0	 mov	 edx, DWORD PTR _this$[ebp]
  000fe	8b 4a 2c	 mov	 ecx, DWORD PTR [edx+44]
  00101	e8 00 00 00 00	 call	 ?alloc@CQueueS@@QAE_NHW4E_ALLOC_TYPE@@@Z ; CQueueS::alloc
  00106	0f b6 c0	 movzx	 eax, al
  00109	85 c0		 test	 eax, eax
  0010b	75 04		 jne	 SHORT $LN3@init
  0010d	32 c0		 xor	 al, al
  0010f	eb 02		 jmp	 SHORT $LN1@init
$LN3@init:

; 137  : 	return true;

  00111	b0 01		 mov	 al, 1
$LN1@init:

; 138  : }

  00113	8b 4d f4	 mov	 ecx, DWORD PTR __$EHRec$[ebp]
  00116	64 89 0d 00 00
	00 00		 mov	 DWORD PTR fs:0, ecx
  0011d	59		 pop	 ecx
  0011e	83 c4 28	 add	 esp, 40			; 00000028H
  00121	3b ec		 cmp	 ebp, esp
  00123	e8 00 00 00 00	 call	 __RTC_CheckEsp
  00128	8b e5		 mov	 esp, ebp
  0012a	5d		 pop	 ebp
  0012b	c2 04 00	 ret	 4
_TEXT	ENDS
text$x	SEGMENT
__unwindfunclet$?_init@CSTLogger@@AAE_NH@Z$0:
  00000	6a 18		 push	 24			; 00000018H
  00002	8b 45 e8	 mov	 eax, DWORD PTR $T4[ebp]
  00005	50		 push	 eax
  00006	e8 00 00 00 00	 call	 ??3@YAXPAXI@Z		; operator delete
  0000b	83 c4 08	 add	 esp, 8
  0000e	c3		 ret	 0
__unwindfunclet$?_init@CSTLogger@@AAE_NH@Z$1:
  0000f	6a 40		 push	 64			; 00000040H
  00011	8b 45 e0	 mov	 eax, DWORD PTR $T2[ebp]
  00014	50		 push	 eax
  00015	e8 00 00 00 00	 call	 ??3@YAXPAXI@Z		; operator delete
  0001a	83 c4 08	 add	 esp, 8
  0001d	c3		 ret	 0
__ehhandler$?_init@CSTLogger@@AAE_NH@Z:
  0001e	8b 54 24 08	 mov	 edx, DWORD PTR [esp+8]
  00022	8d 42 0c	 lea	 eax, DWORD PTR [edx+12]
  00025	8b 4a e0	 mov	 ecx, DWORD PTR [edx-32]
  00028	33 c8		 xor	 ecx, eax
  0002a	e8 00 00 00 00	 call	 @__security_check_cookie@4
  0002f	b8 00 00 00 00	 mov	 eax, OFFSET __ehfuncinfo$?_init@CSTLogger@@AAE_NH@Z
  00034	e9 00 00 00 00	 jmp	 ___CxxFrameHandler3
text$x	ENDS
?_init@CSTLogger@@AAE_NH@Z ENDP				; CSTLogger::_init
; Function compile flags: /Odtp /RTCsu
; File e:\infinia-library-3.0\com\include\comcore.h
;	COMDAT ?pushCommand@CSTLogger@@QAE_NPAUSTLCommand@@@Z
_TEXT	SEGMENT
_this$ = -4						; size = 4
_p$ = 8							; size = 4
?pushCommand@CSTLogger@@QAE_NPAUSTLCommand@@@Z PROC	; CSTLogger::pushCommand, COMDAT
; _this$ = ecx

; 119  : 	inline bool pushCommand(STLCommand *p) {if(m_pComandList->push(p)) { m_cThread.sendSignal(); return true; } return false;}

  00000	55		 push	 ebp
  00001	8b ec		 mov	 ebp, esp
  00003	51		 push	 ecx
  00004	c7 45 fc cc cc
	cc cc		 mov	 DWORD PTR [ebp-4], -858993460 ; ccccccccH
  0000b	89 4d fc	 mov	 DWORD PTR _this$[ebp], ecx
  0000e	8b 45 08	 mov	 eax, DWORD PTR _p$[ebp]
  00011	50		 push	 eax
  00012	8b 4d fc	 mov	 ecx, DWORD PTR _this$[ebp]
  00015	8b 49 2c	 mov	 ecx, DWORD PTR [ecx+44]
  00018	e8 00 00 00 00	 call	 ?push@CQueueS@@QAE_NPAX@Z ; CQueueS::push
  0001d	0f b6 d0	 movzx	 edx, al
  00020	85 d2		 test	 edx, edx
  00022	74 0c		 je	 SHORT $LN2@pushComman
  00024	8b 4d fc	 mov	 ecx, DWORD PTR _this$[ebp]
  00027	e8 00 00 00 00	 call	 ?sendSignal@CComThread@@QAEXXZ ; CComThread::sendSignal
  0002c	b0 01		 mov	 al, 1
  0002e	eb 02		 jmp	 SHORT $LN1@pushComman
$LN2@pushComman:
  00030	32 c0		 xor	 al, al
$LN1@pushComman:
  00032	83 c4 04	 add	 esp, 4
  00035	3b ec		 cmp	 ebp, esp
  00037	e8 00 00 00 00	 call	 __RTC_CheckEsp
  0003c	8b e5		 mov	 esp, ebp
  0003e	5d		 pop	 ebp
  0003f	c2 04 00	 ret	 4
?pushCommand@CSTLogger@@QAE_NPAUSTLCommand@@@Z ENDP	; CSTLogger::pushCommand
_TEXT	ENDS
; Function compile flags: /Odtp /RTCsu
; File e:\infinia-library-3.0\com\src\comcore.cpp
_TEXT	SEGMENT
_nLen$1 = -16						; size = 4
_pData$ = -12						; size = 4
_nCount$ = -8						; size = 4
_this$ = -4						; size = 4
_pLogger$ = 8						; size = 4
?porcLoggerDisable@CSTLogger@@QAEXPAVCLogger@@@Z PROC	; CSTLogger::porcLoggerDisable
; _this$ = ecx

; 208  : {

  00000	55		 push	 ebp
  00001	8b ec		 mov	 ebp, esp
  00003	83 ec 10	 sub	 esp, 16			; 00000010H
  00006	b8 cc cc cc cc	 mov	 eax, -858993460		; ccccccccH
  0000b	89 45 f0	 mov	 DWORD PTR [ebp-16], eax
  0000e	89 45 f4	 mov	 DWORD PTR [ebp-12], eax
  00011	89 45 f8	 mov	 DWORD PTR [ebp-8], eax
  00014	89 45 fc	 mov	 DWORD PTR [ebp-4], eax
  00017	89 4d fc	 mov	 DWORD PTR _this$[ebp], ecx

; 209  : 	int nCount = 0;

  0001a	c7 45 f8 00 00
	00 00		 mov	 DWORD PTR _nCount$[ebp], 0

; 210  : 	TCHAR *pData = pLogger->pop();

  00021	8b 4d 08	 mov	 ecx, DWORD PTR _pLogger$[ebp]
  00024	e8 00 00 00 00	 call	 ?pop@CLogger@@QAEPADXZ	; CLogger::pop
  00029	89 45 f4	 mov	 DWORD PTR _pData$[ebp], eax
$LN2@porcLogger:

; 211  : 	while (pData)

  0002c	83 7d f4 00	 cmp	 DWORD PTR _pData$[ebp], 0
  00030	74 53		 je	 SHORT $LN3@porcLogger

; 212  : 	{
; 213  : 		int nLen = (int)_tcslen(pData) + 1;

  00032	8b 45 f4	 mov	 eax, DWORD PTR _pData$[ebp]
  00035	50		 push	 eax
  00036	e8 00 00 00 00	 call	 _strlen
  0003b	83 c4 04	 add	 esp, 4
  0003e	83 c0 01	 add	 eax, 1
  00041	89 45 f0	 mov	 DWORD PTR _nLen$1[ebp], eax

; 214  : 		pLogger->LogPrint(pData);

  00044	8b 4d f4	 mov	 ecx, DWORD PTR _pData$[ebp]
  00047	51		 push	 ecx
  00048	8b 4d 08	 mov	 ecx, DWORD PTR _pLogger$[ebp]
  0004b	e8 00 00 00 00	 call	 ?LogPrint@CLogger@@QAEXPAD@Z ; CLogger::LogPrint

; 215  : 		pLogger->addLogSize(nLen);

  00050	8b 55 f0	 mov	 edx, DWORD PTR _nLen$1[ebp]
  00053	52		 push	 edx
  00054	8b 4d 08	 mov	 ecx, DWORD PTR _pLogger$[ebp]
  00057	e8 00 00 00 00	 call	 ?addLogSize@CLogger@@QAEXH@Z ; CLogger::addLogSize

; 216  : 		gs_pMMgr->delBuf(pData, nLen);

  0005c	8b 45 f0	 mov	 eax, DWORD PTR _nLen$1[ebp]
  0005f	50		 push	 eax
  00060	8b 4d f4	 mov	 ecx, DWORD PTR _pData$[ebp]
  00063	51		 push	 ecx
  00064	8b 0d 00 00 00
	00		 mov	 ecx, DWORD PTR ?gs_pMMgr@@3PAVCMemManager@@A ; gs_pMMgr
  0006a	e8 00 00 00 00	 call	 ?delBuf@CMemManager@@QAEXPADH@Z ; CMemManager::delBuf

; 217  : 		nCount++;

  0006f	8b 55 f8	 mov	 edx, DWORD PTR _nCount$[ebp]
  00072	83 c2 01	 add	 edx, 1
  00075	89 55 f8	 mov	 DWORD PTR _nCount$[ebp], edx

; 218  : 		pData = pLogger->pop();

  00078	8b 4d 08	 mov	 ecx, DWORD PTR _pLogger$[ebp]
  0007b	e8 00 00 00 00	 call	 ?pop@CLogger@@QAEPADXZ	; CLogger::pop
  00080	89 45 f4	 mov	 DWORD PTR _pData$[ebp], eax

; 219  : 
; 220  : 	}

  00083	eb a7		 jmp	 SHORT $LN2@porcLogger
$LN3@porcLogger:

; 221  : 	pLogger->disable();

  00085	8b 4d 08	 mov	 ecx, DWORD PTR _pLogger$[ebp]
  00088	e8 00 00 00 00	 call	 ?disable@CLogger@@QAEXXZ ; CLogger::disable

; 222  : 	m_pLoggerList->del(pLogger);

  0008d	8b 45 08	 mov	 eax, DWORD PTR _pLogger$[ebp]
  00090	50		 push	 eax
  00091	8b 4d fc	 mov	 ecx, DWORD PTR _this$[ebp]
  00094	8b 49 28	 mov	 ecx, DWORD PTR [ecx+40]
  00097	e8 00 00 00 00	 call	 ?del@?$CTList@VCLogger@@@@QAE_NPAVCLogger@@@Z ; CTList<CLogger>::del

; 223  : 	pLogger->clearLogFlag(IS_LOG_ENABLE);

  0009c	68 00 00 08 00	 push	 524288			; 00080000H
  000a1	8b 4d 08	 mov	 ecx, DWORD PTR _pLogger$[ebp]
  000a4	e8 00 00 00 00	 call	 ?clearLogFlag@CLogger@@QAEXW4E_LOG_FLAG@@@Z ; CLogger::clearLogFlag

; 224  : 	printf("writeCount[%d] [%s] porcLoggerDisable\n", nCount, pLogger->getLogName());

  000a9	8b 4d 08	 mov	 ecx, DWORD PTR _pLogger$[ebp]
  000ac	e8 00 00 00 00	 call	 ?getLogName@CLogger@@QAEPADXZ ; CLogger::getLogName
  000b1	50		 push	 eax
  000b2	8b 55 f8	 mov	 edx, DWORD PTR _nCount$[ebp]
  000b5	52		 push	 edx
  000b6	68 00 00 00 00	 push	 OFFSET $SG45553
  000bb	e8 00 00 00 00	 call	 _printf
  000c0	83 c4 0c	 add	 esp, 12			; 0000000cH

; 225  : }

  000c3	83 c4 10	 add	 esp, 16			; 00000010H
  000c6	3b ec		 cmp	 ebp, esp
  000c8	e8 00 00 00 00	 call	 __RTC_CheckEsp
  000cd	8b e5		 mov	 esp, ebp
  000cf	5d		 pop	 ebp
  000d0	c2 04 00	 ret	 4
?porcLoggerDisable@CSTLogger@@QAEXPAVCLogger@@@Z ENDP	; CSTLogger::porcLoggerDisable
_TEXT	ENDS
; Function compile flags: /Odtp /RTCsu
; File e:\infinia-library-3.0\com\src\comcore.cpp
_TEXT	SEGMENT
_this$ = -4						; size = 4
_pLogger$ = 8						; size = 4
?procLoggerEnable@CSTLogger@@QAEXPAVCLogger@@@Z PROC	; CSTLogger::procLoggerEnable
; _this$ = ecx

; 176  : {

  00000	55		 push	 ebp
  00001	8b ec		 mov	 ebp, esp
  00003	51		 push	 ecx
  00004	c7 45 fc cc cc
	cc cc		 mov	 DWORD PTR [ebp-4], -858993460 ; ccccccccH
  0000b	89 4d fc	 mov	 DWORD PTR _this$[ebp], ecx

; 177  : 	if (pLogger->isLogFlag(IS_LOG_ENABLE)) {

  0000e	68 00 00 08 00	 push	 524288			; 00080000H
  00013	8b 4d 08	 mov	 ecx, DWORD PTR _pLogger$[ebp]
  00016	e8 00 00 00 00	 call	 ?isLogFlag@CLogger@@QAE_NW4E_LOG_FLAG@@@Z ; CLogger::isLogFlag
  0001b	0f b6 c0	 movzx	 eax, al
  0001e	85 c0		 test	 eax, eax
  00020	74 14		 je	 SHORT $LN2@procLogger

; 178  : 		printf("Logger is already Enabled!");

  00022	68 00 00 00 00	 push	 OFFSET $SG45530
  00027	e8 00 00 00 00	 call	 _printf
  0002c	83 c4 04	 add	 esp, 4

; 179  : 		return ;

  0002f	e9 d2 00 00 00	 jmp	 $LN1@procLogger
  00034	eb 50		 jmp	 SHORT $LN3@procLogger
$LN2@procLogger:

; 180  : 	}
; 181  : 	else if (pLogger->isLogFlag(IS_LOG_OPEN)) {}

  00036	68 00 00 04 00	 push	 262144			; 00040000H
  0003b	8b 4d 08	 mov	 ecx, DWORD PTR _pLogger$[ebp]
  0003e	e8 00 00 00 00	 call	 ?isLogFlag@CLogger@@QAE_NW4E_LOG_FLAG@@@Z ; CLogger::isLogFlag
  00043	0f b6 c8	 movzx	 ecx, al
  00046	85 c9		 test	 ecx, ecx
  00048	74 02		 je	 SHORT $LN4@procLogger
  0004a	eb 3a		 jmp	 SHORT $LN3@procLogger
$LN4@procLogger:

; 182  : 	else if (pLogger->isLogFlag(IS_LOG_SET_COMPLETE)) {

  0004c	68 00 00 02 00	 push	 131072			; 00020000H
  00051	8b 4d 08	 mov	 ecx, DWORD PTR _pLogger$[ebp]
  00054	e8 00 00 00 00	 call	 ?isLogFlag@CLogger@@QAE_NW4E_LOG_FLAG@@@Z ; CLogger::isLogFlag
  00059	0f b6 d0	 movzx	 edx, al
  0005c	85 d2		 test	 edx, edx
  0005e	74 0a		 je	 SHORT $LN6@procLogger

; 183  : 		pLogger->OpenLogger();

  00060	8b 4d 08	 mov	 ecx, DWORD PTR _pLogger$[ebp]
  00063	e8 00 00 00 00	 call	 ?OpenLogger@CLogger@@QAEXXZ ; CLogger::OpenLogger

; 184  : 	}
; 185  : 	else {

  00068	eb 1c		 jmp	 SHORT $LN3@procLogger
$LN6@procLogger:

; 186  : 		comErrorPrint("Logger has not Initialized!");

  0006a	68 ba 00 00 00	 push	 186			; 000000baH
  0006f	68 00 00 00 00	 push	 OFFSET $SG45535
  00074	68 00 00 00 00	 push	 OFFSET $SG45536
  00079	e8 00 00 00 00	 call	 ?comGlobalErrorProc@@YAXPADPBDH@Z ; comGlobalErrorProc
  0007e	83 c4 0c	 add	 esp, 12			; 0000000cH

; 187  : 		return ;

  00081	e9 80 00 00 00	 jmp	 $LN1@procLogger
$LN3@procLogger:

; 188  : 	}
; 189  : 
; 190  : 	// input
; 191  : 	if (m_pLoggerList->IsExist(pLogger)) {

  00086	8b 45 08	 mov	 eax, DWORD PTR _pLogger$[ebp]
  00089	50		 push	 eax
  0008a	8b 4d fc	 mov	 ecx, DWORD PTR _this$[ebp]
  0008d	8b 49 28	 mov	 ecx, DWORD PTR [ecx+40]
  00090	e8 00 00 00 00	 call	 ?IsExist@?$CTList@VCLogger@@@@QAE_NPAVCLogger@@@Z ; CTList<CLogger>::IsExist
  00095	0f b6 d0	 movzx	 edx, al
  00098	85 d2		 test	 edx, edx
  0009a	74 11		 je	 SHORT $LN8@procLogger

; 192  : 		printf("Logger already exist!\n");

  0009c	68 00 00 00 00	 push	 OFFSET $SG45539
  000a1	e8 00 00 00 00	 call	 _printf
  000a6	83 c4 04	 add	 esp, 4

; 193  : 		return;

  000a9	eb 5b		 jmp	 SHORT $LN1@procLogger

; 194  : 	}
; 195  : 	else {

  000ab	eb 36		 jmp	 SHORT $LN9@procLogger
$LN8@procLogger:

; 196  : 		pLogger->setCondition(&m_cThread.m_stInfo.cThreadCond);

  000ad	8b 45 fc	 mov	 eax, DWORD PTR _this$[ebp]
  000b0	83 c0 08	 add	 eax, 8
  000b3	50		 push	 eax
  000b4	8b 4d 08	 mov	 ecx, DWORD PTR _pLogger$[ebp]
  000b7	e8 00 00 00 00	 call	 ?setCondition@CLogger@@QAEXPAVcondition@win32@common@@@Z ; CLogger::setCondition

; 197  : 		if (!m_pLoggerList->push_back(pLogger)) {

  000bc	6a 00		 push	 0
  000be	8b 4d 08	 mov	 ecx, DWORD PTR _pLogger$[ebp]
  000c1	51		 push	 ecx
  000c2	8b 55 fc	 mov	 edx, DWORD PTR _this$[ebp]
  000c5	8b 4a 28	 mov	 ecx, DWORD PTR [edx+40]
  000c8	e8 00 00 00 00	 call	 ?push_back@?$CTList@VCLogger@@@@QAE_NPAVCLogger@@PAH@Z ; CTList<CLogger>::push_back
  000cd	0f b6 c0	 movzx	 eax, al
  000d0	85 c0		 test	 eax, eax
  000d2	75 0f		 jne	 SHORT $LN9@procLogger

; 198  : 			printf("m_pLoggerList->push_back failed!\n");

  000d4	68 00 00 00 00	 push	 OFFSET $SG45541
  000d9	e8 00 00 00 00	 call	 _printf
  000de	83 c4 04	 add	 esp, 4

; 199  : 			return;

  000e1	eb 23		 jmp	 SHORT $LN1@procLogger
$LN9@procLogger:

; 200  : 		}
; 201  : 	}
; 202  : 	pLogger->setLogFlag(IS_LOG_ENABLE);

  000e3	68 00 00 08 00	 push	 524288			; 00080000H
  000e8	8b 4d 08	 mov	 ecx, DWORD PTR _pLogger$[ebp]
  000eb	e8 00 00 00 00	 call	 ?setLogFlag@CLogger@@QAEXW4E_LOG_FLAG@@@Z ; CLogger::setLogFlag

; 203  : 	printf("[%s] procLoggerEnable\n", pLogger->getLogName());

  000f0	8b 4d 08	 mov	 ecx, DWORD PTR _pLogger$[ebp]
  000f3	e8 00 00 00 00	 call	 ?getLogName@CLogger@@QAEPADXZ ; CLogger::getLogName
  000f8	50		 push	 eax
  000f9	68 00 00 00 00	 push	 OFFSET $SG45542
  000fe	e8 00 00 00 00	 call	 _printf
  00103	83 c4 08	 add	 esp, 8
$LN1@procLogger:

; 204  : 
; 205  : }

  00106	83 c4 04	 add	 esp, 4
  00109	3b ec		 cmp	 ebp, esp
  0010b	e8 00 00 00 00	 call	 __RTC_CheckEsp
  00110	8b e5		 mov	 esp, ebp
  00112	5d		 pop	 ebp
  00113	c2 04 00	 ret	 4
?procLoggerEnable@CSTLogger@@QAEXPAVCLogger@@@Z ENDP	; CSTLogger::procLoggerEnable
_TEXT	ENDS
; Function compile flags: /Odtp /RTCsu
; File e:\infinia-library-3.0\com\src\comcore.cpp
_TEXT	SEGMENT
_pLogger$2 = -152					; size = 4
_idx$3 = -144						; size = 4
_nFlag$ = -136						; size = 4
_ltm$ = -128						; size = 104
_this$ = -20						; size = 4
__$ArrayPad$ = -16					; size = 4
__$EHRec$ = -12						; size = 12
?TimeProc@CSTLogger@@QAEXXZ PROC			; CSTLogger::TimeProc
; _this$ = ecx

; 270  : {

  00000	55		 push	 ebp
  00001	8b ec		 mov	 ebp, esp
  00003	6a ff		 push	 -1
  00005	68 00 00 00 00	 push	 __ehhandler$?TimeProc@CSTLogger@@QAEXXZ
  0000a	64 a1 00 00 00
	00		 mov	 eax, DWORD PTR fs:0
  00010	50		 push	 eax
  00011	81 ec 8c 00 00
	00		 sub	 esp, 140		; 0000008cH
  00017	56		 push	 esi
  00018	57		 push	 edi
  00019	51		 push	 ecx
  0001a	8d bd 68 ff ff
	ff		 lea	 edi, DWORD PTR [ebp-152]
  00020	b9 23 00 00 00	 mov	 ecx, 35			; 00000023H
  00025	b8 cc cc cc cc	 mov	 eax, -858993460		; ccccccccH
  0002a	f3 ab		 rep stosd
  0002c	59		 pop	 ecx
  0002d	a1 00 00 00 00	 mov	 eax, DWORD PTR ___security_cookie
  00032	33 c5		 xor	 eax, ebp
  00034	89 45 f0	 mov	 DWORD PTR __$ArrayPad$[ebp], eax
  00037	50		 push	 eax
  00038	8d 45 f4	 lea	 eax, DWORD PTR __$EHRec$[ebp]
  0003b	64 a3 00 00 00
	00		 mov	 DWORD PTR fs:0, eax
  00041	89 4d ec	 mov	 DWORD PTR _this$[ebp], ecx

; 271  : 	CDateTime	ltm;

  00044	6a 00		 push	 0
  00046	6a 01		 push	 1
  00048	8d 4d 80	 lea	 ecx, DWORD PTR _ltm$[ebp]
  0004b	e8 00 00 00 00	 call	 ??0CDateTime@@QAE@W4DT_TYPE@@W4TZ_TYPE@@@Z ; CDateTime::CDateTime
  00050	c7 45 fc 00 00
	00 00		 mov	 DWORD PTR __$EHRec$[ebp+8], 0

; 272  : 	int nFlag = 0;

  00057	c7 85 78 ff ff
	ff 00 00 00 00	 mov	 DWORD PTR _nFlag$[ebp], 0

; 273  : 	gs_today_time.second = ltm.Sec();

  00061	8d 4d 80	 lea	 ecx, DWORD PTR _ltm$[ebp]
  00064	e8 00 00 00 00	 call	 ?Sec@CDateTime@@QAEHXZ	; CDateTime::Sec
  00069	a3 14 00 00 00	 mov	 DWORD PTR ?gs_today_time@@3USTTodayTime@@A+20, eax

; 274  : 	if (ltm.Minute() != gs_today_time.minute) {

  0006e	8d 4d 80	 lea	 ecx, DWORD PTR _ltm$[ebp]
  00071	e8 00 00 00 00	 call	 ?Minute@CDateTime@@QAEHXZ ; CDateTime::Minute
  00076	3b 05 10 00 00
	00		 cmp	 eax, DWORD PTR ?gs_today_time@@3USTTodayTime@@A+16
  0007c	74 1c		 je	 SHORT $LN4@TimeProc

; 275  : 		gs_today_time.minute = ltm.Minute();

  0007e	8d 4d 80	 lea	 ecx, DWORD PTR _ltm$[ebp]
  00081	e8 00 00 00 00	 call	 ?Minute@CDateTime@@QAEHXZ ; CDateTime::Minute
  00086	a3 10 00 00 00	 mov	 DWORD PTR ?gs_today_time@@3USTTodayTime@@A+16, eax

; 276  : 		nFlag |= LOG_FLAG_MINCHANGE;

  0008b	8b 85 78 ff ff
	ff		 mov	 eax, DWORD PTR _nFlag$[ebp]
  00091	83 c8 04	 or	 eax, 4
  00094	89 85 78 ff ff
	ff		 mov	 DWORD PTR _nFlag$[ebp], eax
$LN4@TimeProc:

; 277  : 	}
; 278  : 	if (ltm.Hour() != gs_today_time.hour) {

  0009a	8d 4d 80	 lea	 ecx, DWORD PTR _ltm$[ebp]
  0009d	e8 00 00 00 00	 call	 ?Hour@CDateTime@@QAEHXZ	; CDateTime::Hour
  000a2	3b 05 0c 00 00
	00		 cmp	 eax, DWORD PTR ?gs_today_time@@3USTTodayTime@@A+12
  000a8	74 1c		 je	 SHORT $LN5@TimeProc

; 279  : 		gs_today_time.hour = ltm.Hour();

  000aa	8d 4d 80	 lea	 ecx, DWORD PTR _ltm$[ebp]
  000ad	e8 00 00 00 00	 call	 ?Hour@CDateTime@@QAEHXZ	; CDateTime::Hour
  000b2	a3 0c 00 00 00	 mov	 DWORD PTR ?gs_today_time@@3USTTodayTime@@A+12, eax

; 280  : 		nFlag |= LOG_FLAG_HOURCHANGE;

  000b7	8b 8d 78 ff ff
	ff		 mov	 ecx, DWORD PTR _nFlag$[ebp]
  000bd	83 c9 02	 or	 ecx, 2
  000c0	89 8d 78 ff ff
	ff		 mov	 DWORD PTR _nFlag$[ebp], ecx
$LN5@TimeProc:

; 281  : 	}
; 282  : 	if (ltm.Mday() != gs_today_time.mday) { // 1. Day Change 

  000c6	8d 4d 80	 lea	 ecx, DWORD PTR _ltm$[ebp]
  000c9	e8 00 00 00 00	 call	 ?Mday@CDateTime@@QAEHXZ	; CDateTime::Mday
  000ce	3b 05 08 00 00
	00		 cmp	 eax, DWORD PTR ?gs_today_time@@3USTTodayTime@@A+8
  000d4	74 58		 je	 SHORT $LN6@TimeProc

; 283  : 		nFlag |= LOG_FLAG_DAYCHANGE;

  000d6	8b 95 78 ff ff
	ff		 mov	 edx, DWORD PTR _nFlag$[ebp]
  000dc	83 ca 01	 or	 edx, 1
  000df	89 95 78 ff ff
	ff		 mov	 DWORD PTR _nFlag$[ebp], edx

; 284  : 		gs_today_time.date  = _ttoi(ltm.DateString(0));

  000e5	6a 00		 push	 0
  000e7	8d 4d 80	 lea	 ecx, DWORD PTR _ltm$[ebp]
  000ea	e8 00 00 00 00	 call	 ?DateString@CDateTime@@QAEPBDD@Z ; CDateTime::DateString
  000ef	8b f4		 mov	 esi, esp
  000f1	50		 push	 eax
  000f2	ff 15 00 00 00
	00		 call	 DWORD PTR __imp__atoi
  000f8	83 c4 04	 add	 esp, 4
  000fb	3b f4		 cmp	 esi, esp
  000fd	e8 00 00 00 00	 call	 __RTC_CheckEsp
  00102	a3 18 00 00 00	 mov	 DWORD PTR ?gs_today_time@@3USTTodayTime@@A+24, eax

; 285  : 		gs_today_time.year	= ltm.Year();

  00107	8d 4d 80	 lea	 ecx, DWORD PTR _ltm$[ebp]
  0010a	e8 00 00 00 00	 call	 ?Year@CDateTime@@QAEHXZ	; CDateTime::Year
  0010f	a3 00 00 00 00	 mov	 DWORD PTR ?gs_today_time@@3USTTodayTime@@A, eax

; 286  : 		gs_today_time.month	= ltm.Month();

  00114	8d 4d 80	 lea	 ecx, DWORD PTR _ltm$[ebp]
  00117	e8 00 00 00 00	 call	 ?Month@CDateTime@@QAEHXZ ; CDateTime::Month
  0011c	a3 04 00 00 00	 mov	 DWORD PTR ?gs_today_time@@3USTTodayTime@@A+4, eax

; 287  : 		gs_today_time.mday	= ltm.Mday();

  00121	8d 4d 80	 lea	 ecx, DWORD PTR _ltm$[ebp]
  00124	e8 00 00 00 00	 call	 ?Mday@CDateTime@@QAEHXZ	; CDateTime::Mday
  00129	a3 08 00 00 00	 mov	 DWORD PTR ?gs_today_time@@3USTTodayTime@@A+8, eax
$LN6@TimeProc:

; 288  : 	}
; 289  : 
; 290  : 	if (nFlag) {

  0012e	83 bd 78 ff ff
	ff 00		 cmp	 DWORD PTR _nFlag$[ebp], 0
  00135	74 66		 je	 SHORT $LN7@TimeProc

; 291  : 		int idx = 0;

  00137	c7 85 70 ff ff
	ff 00 00 00 00	 mov	 DWORD PTR _idx$3[ebp], 0

; 292  : 		CLogger *pLogger = m_pLoggerList->getNext(&idx);

  00141	8d 85 70 ff ff
	ff		 lea	 eax, DWORD PTR _idx$3[ebp]
  00147	50		 push	 eax
  00148	8b 4d ec	 mov	 ecx, DWORD PTR _this$[ebp]
  0014b	8b 49 28	 mov	 ecx, DWORD PTR [ecx+40]
  0014e	e8 00 00 00 00	 call	 ?getNext@?$CTList@VCLogger@@@@QAEPAVCLogger@@PAH@Z ; CTList<CLogger>::getNext
  00153	89 85 68 ff ff
	ff		 mov	 DWORD PTR _pLogger$2[ebp], eax
$LN2@TimeProc:

; 293  : 		while (pLogger) {

  00159	83 bd 68 ff ff
	ff 00		 cmp	 DWORD PTR _pLogger$2[ebp], 0
  00160	74 3b		 je	 SHORT $LN7@TimeProc

; 294  : 			pLogger->checkChangeProc(nFlag);

  00162	8b 95 78 ff ff
	ff		 mov	 edx, DWORD PTR _nFlag$[ebp]
  00168	52		 push	 edx
  00169	8b 8d 68 ff ff
	ff		 mov	 ecx, DWORD PTR _pLogger$2[ebp]
  0016f	e8 00 00 00 00	 call	 ?checkChangeProc@CLogger@@QAEXH@Z ; CLogger::checkChangeProc

; 295  : 			idx++;

  00174	8b 85 70 ff ff
	ff		 mov	 eax, DWORD PTR _idx$3[ebp]
  0017a	83 c0 01	 add	 eax, 1
  0017d	89 85 70 ff ff
	ff		 mov	 DWORD PTR _idx$3[ebp], eax

; 296  : 			pLogger = m_pLoggerList->getNext(&idx);

  00183	8d 8d 70 ff ff
	ff		 lea	 ecx, DWORD PTR _idx$3[ebp]
  00189	51		 push	 ecx
  0018a	8b 55 ec	 mov	 edx, DWORD PTR _this$[ebp]
  0018d	8b 4a 28	 mov	 ecx, DWORD PTR [edx+40]
  00190	e8 00 00 00 00	 call	 ?getNext@?$CTList@VCLogger@@@@QAEPAVCLogger@@PAH@Z ; CTList<CLogger>::getNext
  00195	89 85 68 ff ff
	ff		 mov	 DWORD PTR _pLogger$2[ebp], eax

; 297  : 		}

  0019b	eb bc		 jmp	 SHORT $LN2@TimeProc
$LN7@TimeProc:

; 298  : 	}
; 299  : }

  0019d	c7 45 fc ff ff
	ff ff		 mov	 DWORD PTR __$EHRec$[ebp+8], -1
  001a4	8d 4d 80	 lea	 ecx, DWORD PTR _ltm$[ebp]
  001a7	e8 00 00 00 00	 call	 ??1CDateTime@@QAE@XZ	; CDateTime::~CDateTime
  001ac	52		 push	 edx
  001ad	8b cd		 mov	 ecx, ebp
  001af	50		 push	 eax
  001b0	8d 15 00 00 00
	00		 lea	 edx, DWORD PTR $LN14@TimeProc
  001b6	e8 00 00 00 00	 call	 @_RTC_CheckStackVars@8
  001bb	58		 pop	 eax
  001bc	5a		 pop	 edx
  001bd	8b 4d f4	 mov	 ecx, DWORD PTR __$EHRec$[ebp]
  001c0	64 89 0d 00 00
	00 00		 mov	 DWORD PTR fs:0, ecx
  001c7	59		 pop	 ecx
  001c8	5f		 pop	 edi
  001c9	5e		 pop	 esi
  001ca	8b 4d f0	 mov	 ecx, DWORD PTR __$ArrayPad$[ebp]
  001cd	33 cd		 xor	 ecx, ebp
  001cf	e8 00 00 00 00	 call	 @__security_check_cookie@4
  001d4	81 c4 98 00 00
	00		 add	 esp, 152		; 00000098H
  001da	3b ec		 cmp	 ebp, esp
  001dc	e8 00 00 00 00	 call	 __RTC_CheckEsp
  001e1	8b e5		 mov	 esp, ebp
  001e3	5d		 pop	 ebp
  001e4	c3		 ret	 0
  001e5	0f 1f 00	 npad	 3
$LN14@TimeProc:
  001e8	02 00 00 00	 DD	 2
  001ec	00 00 00 00	 DD	 $LN13@TimeProc
$LN13@TimeProc:
  001f0	80 ff ff ff	 DD	 -128			; ffffff80H
  001f4	68 00 00 00	 DD	 104			; 00000068H
  001f8	00 00 00 00	 DD	 $LN10@TimeProc
  001fc	70 ff ff ff	 DD	 -144			; ffffff70H
  00200	04 00 00 00	 DD	 4
  00204	00 00 00 00	 DD	 $LN11@TimeProc
$LN11@TimeProc:
  00208	69		 DB	 105			; 00000069H
  00209	64		 DB	 100			; 00000064H
  0020a	78		 DB	 120			; 00000078H
  0020b	00		 DB	 0
$LN10@TimeProc:
  0020c	6c		 DB	 108			; 0000006cH
  0020d	74		 DB	 116			; 00000074H
  0020e	6d		 DB	 109			; 0000006dH
  0020f	00		 DB	 0
_TEXT	ENDS
text$x	SEGMENT
__unwindfunclet$?TimeProc@CSTLogger@@QAEXXZ$0:
  00000	8d 4d 80	 lea	 ecx, DWORD PTR _ltm$[ebp]
  00003	e9 00 00 00 00	 jmp	 ??1CDateTime@@QAE@XZ	; CDateTime::~CDateTime
__ehhandler$?TimeProc@CSTLogger@@QAEXXZ:
  00008	8b 54 24 08	 mov	 edx, DWORD PTR [esp+8]
  0000c	8d 42 0c	 lea	 eax, DWORD PTR [edx+12]
  0000f	8b 8a 68 ff ff
	ff		 mov	 ecx, DWORD PTR [edx-152]
  00015	33 c8		 xor	 ecx, eax
  00017	e8 00 00 00 00	 call	 @__security_check_cookie@4
  0001c	8b 4a fc	 mov	 ecx, DWORD PTR [edx-4]
  0001f	33 c8		 xor	 ecx, eax
  00021	e8 00 00 00 00	 call	 @__security_check_cookie@4
  00026	b8 00 00 00 00	 mov	 eax, OFFSET __ehfuncinfo$?TimeProc@CSTLogger@@QAEXXZ
  0002b	e9 00 00 00 00	 jmp	 ___CxxFrameHandler3
text$x	ENDS
?TimeProc@CSTLogger@@QAEXXZ ENDP			; CSTLogger::TimeProc
; Function compile flags: /Odtp /RTCsu
; File e:\infinia-library-3.0\com\src\comcore.cpp
_TEXT	SEGMENT
_nLen$1 = -32						; size = 4
_pLogger$ = -28						; size = 4
_pData$ = -24						; size = 4
_idx$ = -16						; size = 4
_this$ = -8						; size = 4
__$ArrayPad$ = -4					; size = 4
?GetQueue@CSTLogger@@QAEXXZ PROC			; CSTLogger::GetQueue
; _this$ = ecx

; 239  : {

  00000	55		 push	 ebp
  00001	8b ec		 mov	 ebp, esp
  00003	83 ec 20	 sub	 esp, 32			; 00000020H
  00006	b8 cc cc cc cc	 mov	 eax, -858993460		; ccccccccH
  0000b	89 45 e0	 mov	 DWORD PTR [ebp-32], eax
  0000e	89 45 e4	 mov	 DWORD PTR [ebp-28], eax
  00011	89 45 e8	 mov	 DWORD PTR [ebp-24], eax
  00014	89 45 ec	 mov	 DWORD PTR [ebp-20], eax
  00017	89 45 f0	 mov	 DWORD PTR [ebp-16], eax
  0001a	89 45 f4	 mov	 DWORD PTR [ebp-12], eax
  0001d	89 45 f8	 mov	 DWORD PTR [ebp-8], eax
  00020	89 45 fc	 mov	 DWORD PTR [ebp-4], eax
  00023	a1 00 00 00 00	 mov	 eax, DWORD PTR ___security_cookie
  00028	33 c5		 xor	 eax, ebp
  0002a	89 45 fc	 mov	 DWORD PTR __$ArrayPad$[ebp], eax
  0002d	89 4d f8	 mov	 DWORD PTR _this$[ebp], ecx

; 240  : 	int idx=0;

  00030	c7 45 f0 00 00
	00 00		 mov	 DWORD PTR _idx$[ebp], 0

; 241  : 	TCHAR *pData;
; 242  : 	CLogger *pLogger = m_pLoggerList->getNext(&idx);

  00037	8d 45 f0	 lea	 eax, DWORD PTR _idx$[ebp]
  0003a	50		 push	 eax
  0003b	8b 4d f8	 mov	 ecx, DWORD PTR _this$[ebp]
  0003e	8b 49 28	 mov	 ecx, DWORD PTR [ecx+40]
  00041	e8 00 00 00 00	 call	 ?getNext@?$CTList@VCLogger@@@@QAEPAVCLogger@@PAH@Z ; CTList<CLogger>::getNext
  00046	89 45 e4	 mov	 DWORD PTR _pLogger$[ebp], eax
$LN2@GetQueue:

; 243  : 	while (pLogger) {

  00049	83 7d e4 00	 cmp	 DWORD PTR _pLogger$[ebp], 0
  0004d	74 78		 je	 SHORT $LN1@GetQueue

; 244  : 
; 245  : 		pData = pLogger->pop();

  0004f	8b 4d e4	 mov	 ecx, DWORD PTR _pLogger$[ebp]
  00052	e8 00 00 00 00	 call	 ?pop@CLogger@@QAEPADXZ	; CLogger::pop
  00057	89 45 e8	 mov	 DWORD PTR _pData$[ebp], eax
$LN4@GetQueue:

; 246  : 		while (pData)

  0005a	83 7d e8 00	 cmp	 DWORD PTR _pData$[ebp], 0
  0005e	74 4a		 je	 SHORT $LN5@GetQueue

; 247  : 		{
; 248  : 			int nLen = (int)_tcslen(pData) + 1;

  00060	8b 55 e8	 mov	 edx, DWORD PTR _pData$[ebp]
  00063	52		 push	 edx
  00064	e8 00 00 00 00	 call	 _strlen
  00069	83 c4 04	 add	 esp, 4
  0006c	83 c0 01	 add	 eax, 1
  0006f	89 45 e0	 mov	 DWORD PTR _nLen$1[ebp], eax

; 249  : 			pLogger->LogPrint(pData);

  00072	8b 45 e8	 mov	 eax, DWORD PTR _pData$[ebp]
  00075	50		 push	 eax
  00076	8b 4d e4	 mov	 ecx, DWORD PTR _pLogger$[ebp]
  00079	e8 00 00 00 00	 call	 ?LogPrint@CLogger@@QAEXPAD@Z ; CLogger::LogPrint

; 250  : 			pLogger->addLogSize(nLen);

  0007e	8b 4d e0	 mov	 ecx, DWORD PTR _nLen$1[ebp]
  00081	51		 push	 ecx
  00082	8b 4d e4	 mov	 ecx, DWORD PTR _pLogger$[ebp]
  00085	e8 00 00 00 00	 call	 ?addLogSize@CLogger@@QAEXH@Z ; CLogger::addLogSize

; 251  : 			gs_pMMgr->delBuf(pData, nLen);

  0008a	8b 55 e0	 mov	 edx, DWORD PTR _nLen$1[ebp]
  0008d	52		 push	 edx
  0008e	8b 45 e8	 mov	 eax, DWORD PTR _pData$[ebp]
  00091	50		 push	 eax
  00092	8b 0d 00 00 00
	00		 mov	 ecx, DWORD PTR ?gs_pMMgr@@3PAVCMemManager@@A ; gs_pMMgr
  00098	e8 00 00 00 00	 call	 ?delBuf@CMemManager@@QAEXPADH@Z ; CMemManager::delBuf

; 252  : 			pData = pLogger->pop();

  0009d	8b 4d e4	 mov	 ecx, DWORD PTR _pLogger$[ebp]
  000a0	e8 00 00 00 00	 call	 ?pop@CLogger@@QAEPADXZ	; CLogger::pop
  000a5	89 45 e8	 mov	 DWORD PTR _pData$[ebp], eax

; 253  : 
; 254  : 		}

  000a8	eb b0		 jmp	 SHORT $LN4@GetQueue
$LN5@GetQueue:

; 255  : 		idx++;

  000aa	8b 4d f0	 mov	 ecx, DWORD PTR _idx$[ebp]
  000ad	83 c1 01	 add	 ecx, 1
  000b0	89 4d f0	 mov	 DWORD PTR _idx$[ebp], ecx

; 256  : 		pLogger = m_pLoggerList->getNext(&idx);

  000b3	8d 55 f0	 lea	 edx, DWORD PTR _idx$[ebp]
  000b6	52		 push	 edx
  000b7	8b 45 f8	 mov	 eax, DWORD PTR _this$[ebp]
  000ba	8b 48 28	 mov	 ecx, DWORD PTR [eax+40]
  000bd	e8 00 00 00 00	 call	 ?getNext@?$CTList@VCLogger@@@@QAEPAVCLogger@@PAH@Z ; CTList<CLogger>::getNext
  000c2	89 45 e4	 mov	 DWORD PTR _pLogger$[ebp], eax

; 257  : 	}

  000c5	eb 82		 jmp	 SHORT $LN2@GetQueue
$LN1@GetQueue:

; 258  : }

  000c7	52		 push	 edx
  000c8	8b cd		 mov	 ecx, ebp
  000ca	50		 push	 eax
  000cb	8d 15 00 00 00
	00		 lea	 edx, DWORD PTR $LN9@GetQueue
  000d1	e8 00 00 00 00	 call	 @_RTC_CheckStackVars@8
  000d6	58		 pop	 eax
  000d7	5a		 pop	 edx
  000d8	8b 4d fc	 mov	 ecx, DWORD PTR __$ArrayPad$[ebp]
  000db	33 cd		 xor	 ecx, ebp
  000dd	e8 00 00 00 00	 call	 @__security_check_cookie@4
  000e2	83 c4 20	 add	 esp, 32			; 00000020H
  000e5	3b ec		 cmp	 ebp, esp
  000e7	e8 00 00 00 00	 call	 __RTC_CheckEsp
  000ec	8b e5		 mov	 esp, ebp
  000ee	5d		 pop	 ebp
  000ef	c3		 ret	 0
$LN9@GetQueue:
  000f0	01 00 00 00	 DD	 1
  000f4	00 00 00 00	 DD	 $LN8@GetQueue
$LN8@GetQueue:
  000f8	f0 ff ff ff	 DD	 -16			; fffffff0H
  000fc	04 00 00 00	 DD	 4
  00100	00 00 00 00	 DD	 $LN7@GetQueue
$LN7@GetQueue:
  00104	69		 DB	 105			; 00000069H
  00105	64		 DB	 100			; 00000064H
  00106	78		 DB	 120			; 00000078H
  00107	00		 DB	 0
?GetQueue@CSTLogger@@QAEXXZ ENDP			; CSTLogger::GetQueue
_TEXT	ENDS
; Function compile flags: /Odtp /RTCsu
; File e:\infinia-library-3.0\com\src\comcore.cpp
_TEXT	SEGMENT
_nSTLSize$ = -16					; size = 4
_pCommand$ = -12					; size = 4
_bRes$ = -5						; size = 1
_this$ = -4						; size = 4
?IsCommand@CSTLogger@@QAE_NXZ PROC			; CSTLogger::IsCommand
; _this$ = ecx

; 156  : {

  00000	55		 push	 ebp
  00001	8b ec		 mov	 ebp, esp
  00003	83 ec 10	 sub	 esp, 16			; 00000010H
  00006	b8 cc cc cc cc	 mov	 eax, -858993460		; ccccccccH
  0000b	89 45 f0	 mov	 DWORD PTR [ebp-16], eax
  0000e	89 45 f4	 mov	 DWORD PTR [ebp-12], eax
  00011	89 45 f8	 mov	 DWORD PTR [ebp-8], eax
  00014	89 45 fc	 mov	 DWORD PTR [ebp-4], eax
  00017	89 4d fc	 mov	 DWORD PTR _this$[ebp], ecx

; 157  : 	bool bRes = false;

  0001a	c6 45 fb 00	 mov	 BYTE PTR _bRes$[ebp], 0

; 158  : 	STLCommand *pCommand = (STLCommand *)m_pComandList->pop();

  0001e	8b 45 fc	 mov	 eax, DWORD PTR _this$[ebp]
  00021	8b 48 2c	 mov	 ecx, DWORD PTR [eax+44]
  00024	e8 00 00 00 00	 call	 ?pop@CQueueS@@QAEPAXXZ	; CQueueS::pop
  00029	89 45 f4	 mov	 DWORD PTR _pCommand$[ebp], eax

; 159  : 	int nSTLSize = sizeof(STLCommand);

  0002c	c7 45 f0 08 00
	00 00		 mov	 DWORD PTR _nSTLSize$[ebp], 8
$LN2@IsCommand:

; 160  : 	while (pCommand) {

  00033	83 7d f4 00	 cmp	 DWORD PTR _pCommand$[ebp], 0
  00037	74 57		 je	 SHORT $LN3@IsCommand

; 161  : 		bRes = true;

  00039	c6 45 fb 01	 mov	 BYTE PTR _bRes$[ebp], 1

; 162  : 		if (pCommand->nCommandCode == 1) { // enable

  0003d	8b 4d f4	 mov	 ecx, DWORD PTR _pCommand$[ebp]
  00040	83 39 01	 cmp	 DWORD PTR [ecx], 1
  00043	75 11		 jne	 SHORT $LN4@IsCommand

; 163  : 			procLoggerEnable((CLogger *)pCommand->p);

  00045	8b 55 f4	 mov	 edx, DWORD PTR _pCommand$[ebp]
  00048	8b 42 04	 mov	 eax, DWORD PTR [edx+4]
  0004b	50		 push	 eax
  0004c	8b 4d fc	 mov	 ecx, DWORD PTR _this$[ebp]
  0004f	e8 00 00 00 00	 call	 ?procLoggerEnable@CSTLogger@@QAEXPAVCLogger@@@Z ; CSTLogger::procLoggerEnable
  00054	eb 17		 jmp	 SHORT $LN5@IsCommand
$LN4@IsCommand:

; 164  : 		}
; 165  : 		else if (pCommand->nCommandCode == 2) { // 

  00056	8b 4d f4	 mov	 ecx, DWORD PTR _pCommand$[ebp]
  00059	83 39 02	 cmp	 DWORD PTR [ecx], 2
  0005c	75 0f		 jne	 SHORT $LN5@IsCommand

; 166  : 			porcLoggerDisable((CLogger *)pCommand->p);

  0005e	8b 55 f4	 mov	 edx, DWORD PTR _pCommand$[ebp]
  00061	8b 42 04	 mov	 eax, DWORD PTR [edx+4]
  00064	50		 push	 eax
  00065	8b 4d fc	 mov	 ecx, DWORD PTR _this$[ebp]
  00068	e8 00 00 00 00	 call	 ?porcLoggerDisable@CSTLogger@@QAEXPAVCLogger@@@Z ; CSTLogger::porcLoggerDisable
$LN5@IsCommand:

; 167  : 		}
; 168  : 		gs_pMMgr->delBuf((char *)pCommand, nSTLSize);

  0006d	8b 4d f0	 mov	 ecx, DWORD PTR _nSTLSize$[ebp]
  00070	51		 push	 ecx
  00071	8b 55 f4	 mov	 edx, DWORD PTR _pCommand$[ebp]
  00074	52		 push	 edx
  00075	8b 0d 00 00 00
	00		 mov	 ecx, DWORD PTR ?gs_pMMgr@@3PAVCMemManager@@A ; gs_pMMgr
  0007b	e8 00 00 00 00	 call	 ?delBuf@CMemManager@@QAEXPADH@Z ; CMemManager::delBuf

; 169  : 		pCommand = (STLCommand *)m_pComandList->pop();

  00080	8b 45 fc	 mov	 eax, DWORD PTR _this$[ebp]
  00083	8b 48 2c	 mov	 ecx, DWORD PTR [eax+44]
  00086	e8 00 00 00 00	 call	 ?pop@CQueueS@@QAEPAXXZ	; CQueueS::pop
  0008b	89 45 f4	 mov	 DWORD PTR _pCommand$[ebp], eax

; 170  : 	}

  0008e	eb a3		 jmp	 SHORT $LN2@IsCommand
$LN3@IsCommand:

; 171  : 
; 172  : 	return false;

  00090	32 c0		 xor	 al, al

; 173  : }

  00092	83 c4 10	 add	 esp, 16			; 00000010H
  00095	3b ec		 cmp	 ebp, esp
  00097	e8 00 00 00 00	 call	 __RTC_CheckEsp
  0009c	8b e5		 mov	 esp, ebp
  0009e	5d		 pop	 ebp
  0009f	c3		 ret	 0
?IsCommand@CSTLogger@@QAE_NXZ ENDP			; CSTLogger::IsCommand
_TEXT	ENDS
; Function compile flags: /Odtp /RTCsu
; File e:\infinia-library-3.0\com\src\comcore.cpp
_TEXT	SEGMENT
tv73 = -16						; size = 4
$T1 = -12						; size = 4
$T2 = -8						; size = 4
_this$ = -4						; size = 4
?quit@CSTLogger@@QAE_NXZ PROC				; CSTLogger::quit
; _this$ = ecx

; 228  : {

  00000	55		 push	 ebp
  00001	8b ec		 mov	 ebp, esp
  00003	83 ec 10	 sub	 esp, 16			; 00000010H
  00006	b8 cc cc cc cc	 mov	 eax, -858993460		; ccccccccH
  0000b	89 45 f0	 mov	 DWORD PTR [ebp-16], eax
  0000e	89 45 f4	 mov	 DWORD PTR [ebp-12], eax
  00011	89 45 f8	 mov	 DWORD PTR [ebp-8], eax
  00014	89 45 fc	 mov	 DWORD PTR [ebp-4], eax
  00017	89 4d fc	 mov	 DWORD PTR _this$[ebp], ecx

; 229  : 	m_cThread.quit();

  0001a	8b 4d fc	 mov	 ecx, DWORD PTR _this$[ebp]
  0001d	e8 00 00 00 00	 call	 ?quit@CComThread@@QAE_NXZ ; CComThread::quit

; 230  : 	if (m_pLoggerList) {

  00022	8b 45 fc	 mov	 eax, DWORD PTR _this$[ebp]
  00025	83 78 28 00	 cmp	 DWORD PTR [eax+40], 0
  00029	74 35		 je	 SHORT $LN2@quit

; 231  : 		delete m_pLoggerList;

  0002b	8b 4d fc	 mov	 ecx, DWORD PTR _this$[ebp]
  0002e	8b 51 28	 mov	 edx, DWORD PTR [ecx+40]
  00031	89 55 f4	 mov	 DWORD PTR $T1[ebp], edx
  00034	8b 45 f4	 mov	 eax, DWORD PTR $T1[ebp]
  00037	89 45 f8	 mov	 DWORD PTR $T2[ebp], eax
  0003a	83 7d f8 00	 cmp	 DWORD PTR $T2[ebp], 0
  0003e	74 0f		 je	 SHORT $LN4@quit
  00040	6a 01		 push	 1
  00042	8b 4d f8	 mov	 ecx, DWORD PTR $T2[ebp]
  00045	e8 00 00 00 00	 call	 ??_G?$CTList@VCLogger@@@@QAEPAXI@Z
  0004a	89 45 f0	 mov	 DWORD PTR tv73[ebp], eax
  0004d	eb 07		 jmp	 SHORT $LN5@quit
$LN4@quit:
  0004f	c7 45 f0 00 00
	00 00		 mov	 DWORD PTR tv73[ebp], 0
$LN5@quit:

; 232  : 		m_pLoggerList = NULL;

  00056	8b 4d fc	 mov	 ecx, DWORD PTR _this$[ebp]
  00059	c7 41 28 00 00
	00 00		 mov	 DWORD PTR [ecx+40], 0
$LN2@quit:

; 233  : 	}
; 234  : 	return true;

  00060	b0 01		 mov	 al, 1

; 235  : }

  00062	83 c4 10	 add	 esp, 16			; 00000010H
  00065	3b ec		 cmp	 ebp, esp
  00067	e8 00 00 00 00	 call	 __RTC_CheckEsp
  0006c	8b e5		 mov	 esp, ebp
  0006e	5d		 pop	 ebp
  0006f	c3		 ret	 0
?quit@CSTLogger@@QAE_NXZ ENDP				; CSTLogger::quit
_TEXT	ENDS
; Function compile flags: /Odtp /RTCsu
; File e:\infinia-library-3.0\com\src\comcore.cpp
_TEXT	SEGMENT
_this$ = -4						; size = 4
?start@CSTLogger@@QAE_NXZ PROC				; CSTLogger::start
; _this$ = ecx

; 141  : {

  00000	55		 push	 ebp
  00001	8b ec		 mov	 ebp, esp
  00003	51		 push	 ecx
  00004	c7 45 fc cc cc
	cc cc		 mov	 DWORD PTR [ebp-4], -858993460 ; ccccccccH
  0000b	89 4d fc	 mov	 DWORD PTR _this$[ebp], ecx

; 142  : 	if (m_cThread.bActive()) return true;

  0000e	8b 4d fc	 mov	 ecx, DWORD PTR _this$[ebp]
  00011	e8 00 00 00 00	 call	 ?bActive@CComThread@@QAE_NXZ ; CComThread::bActive
  00016	0f b6 c0	 movzx	 eax, al
  00019	85 c0		 test	 eax, eax
  0001b	74 04		 je	 SHORT $LN2@start
  0001d	b0 01		 mov	 al, 1
  0001f	eb 70		 jmp	 SHORT $LN1@start
$LN2@start:

; 143  : 	if (!m_cThread.init(loggerLoop, this, INFINITE)) {

  00021	6a 00		 push	 0
  00023	6a ff		 push	 -1
  00025	8b 4d fc	 mov	 ecx, DWORD PTR _this$[ebp]
  00028	51		 push	 ecx
  00029	68 00 00 00 00	 push	 OFFSET ?loggerLoop@@YAXPAUSTThreadInfo@@@Z ; loggerLoop
  0002e	8b 4d fc	 mov	 ecx, DWORD PTR _this$[ebp]
  00031	e8 00 00 00 00	 call	 ?init@CComThread@@QAE_NP6AXPAUSTThreadInfo@@@ZPAXH2@Z ; CComThread::init
  00036	0f b6 d0	 movzx	 edx, al
  00039	85 d2		 test	 edx, edx
  0003b	75 1b		 jne	 SHORT $LN3@start

; 144  : 		comErrorPrint("m_cThread.init");

  0003d	68 90 00 00 00	 push	 144			; 00000090H
  00042	68 00 00 00 00	 push	 OFFSET $SG45501
  00047	68 00 00 00 00	 push	 OFFSET $SG45502
  0004c	e8 00 00 00 00	 call	 ?comGlobalErrorProc@@YAXPADPBDH@Z ; comGlobalErrorProc
  00051	83 c4 0c	 add	 esp, 12			; 0000000cH

; 145  : 		return false;

  00054	32 c0		 xor	 al, al
  00056	eb 39		 jmp	 SHORT $LN1@start
$LN3@start:

; 146  : 	}
; 147  : 	if (!m_cThread.start()) {

  00058	8b 4d fc	 mov	 ecx, DWORD PTR _this$[ebp]
  0005b	e8 00 00 00 00	 call	 ?start@CComThread@@QAE_NXZ ; CComThread::start
  00060	0f b6 c0	 movzx	 eax, al
  00063	85 c0		 test	 eax, eax
  00065	75 1b		 jne	 SHORT $LN4@start

; 148  : 		comErrorPrint("m_cThread.start");

  00067	68 94 00 00 00	 push	 148			; 00000094H
  0006c	68 00 00 00 00	 push	 OFFSET $SG45504
  00071	68 00 00 00 00	 push	 OFFSET $SG45505
  00076	e8 00 00 00 00	 call	 ?comGlobalErrorProc@@YAXPADPBDH@Z ; comGlobalErrorProc
  0007b	83 c4 0c	 add	 esp, 12			; 0000000cH

; 149  : 		return false;

  0007e	32 c0		 xor	 al, al
  00080	eb 0f		 jmp	 SHORT $LN1@start
$LN4@start:

; 150  : 	}
; 151  : 	printf("CSTLogger::start()\n");

  00082	68 00 00 00 00	 push	 OFFSET $SG45506
  00087	e8 00 00 00 00	 call	 _printf
  0008c	83 c4 04	 add	 esp, 4

; 152  : 	return true;

  0008f	b0 01		 mov	 al, 1
$LN1@start:

; 153  : }

  00091	83 c4 04	 add	 esp, 4
  00094	3b ec		 cmp	 ebp, esp
  00096	e8 00 00 00 00	 call	 __RTC_CheckEsp
  0009b	8b e5		 mov	 esp, ebp
  0009d	5d		 pop	 ebp
  0009e	c3		 ret	 0
?start@CSTLogger@@QAE_NXZ ENDP				; CSTLogger::start
_TEXT	ENDS
; Function compile flags: /Odtp /RTCsu
; File e:\infinia-library-3.0\com\src\comcore.cpp
_TEXT	SEGMENT
_this$ = -4						; size = 4
_nCount$ = 8						; size = 4
_idx$ = 12						; size = 4
?init@CSTLogger@@QAE_NHH@Z PROC				; CSTLogger::init
; _this$ = ecx

; 125  : {

  00000	55		 push	 ebp
  00001	8b ec		 mov	 ebp, esp
  00003	51		 push	 ecx
  00004	c7 45 fc cc cc
	cc cc		 mov	 DWORD PTR [ebp-4], -858993460 ; ccccccccH
  0000b	89 4d fc	 mov	 DWORD PTR _this$[ebp], ecx

; 126  : 	if (!nCount) return false;

  0000e	83 7d 08 00	 cmp	 DWORD PTR _nCount$[ebp], 0
  00012	75 04		 jne	 SHORT $LN2@init
  00014	32 c0		 xor	 al, al
  00016	eb 25		 jmp	 SHORT $LN1@init
$LN2@init:

; 127  : 	if (!_init(nCount)) return false;

  00018	8b 45 08	 mov	 eax, DWORD PTR _nCount$[ebp]
  0001b	50		 push	 eax
  0001c	8b 4d fc	 mov	 ecx, DWORD PTR _this$[ebp]
  0001f	e8 00 00 00 00	 call	 ?_init@CSTLogger@@AAE_NH@Z ; CSTLogger::_init
  00024	0f b6 c8	 movzx	 ecx, al
  00027	85 c9		 test	 ecx, ecx
  00029	75 04		 jne	 SHORT $LN3@init
  0002b	32 c0		 xor	 al, al
  0002d	eb 0e		 jmp	 SHORT $LN1@init
$LN3@init:

; 128  : 	m_cThread.setIdx(idx);

  0002f	8b 55 0c	 mov	 edx, DWORD PTR _idx$[ebp]
  00032	52		 push	 edx
  00033	8b 4d fc	 mov	 ecx, DWORD PTR _this$[ebp]
  00036	e8 00 00 00 00	 call	 ?setIdx@CComThread@@QAEXH@Z ; CComThread::setIdx

; 129  : 	return true;

  0003b	b0 01		 mov	 al, 1
$LN1@init:

; 130  : }

  0003d	83 c4 04	 add	 esp, 4
  00040	3b ec		 cmp	 ebp, esp
  00042	e8 00 00 00 00	 call	 __RTC_CheckEsp
  00047	8b e5		 mov	 esp, ebp
  00049	5d		 pop	 ebp
  0004a	c2 08 00	 ret	 8
?init@CSTLogger@@QAE_NHH@Z ENDP				; CSTLogger::init
_TEXT	ENDS
; Function compile flags: /Odtp /RTCsu
; File e:\infinia-library-3.0\com\src\comcore.cpp
_TEXT	SEGMENT
_nMax$ = -44						; size = 4
_szSect$ = -36						; size = 24
_this$ = -8						; size = 4
__$ArrayPad$ = -4					; size = 4
_pConfigFile$ = 8					; size = 4
_i$ = 12						; size = 4
_pSection$ = 16						; size = 4
?initConfig@CSTLogger@@QAE_NPADH0@Z PROC		; CSTLogger::initConfig
; _this$ = ecx

; 113  : {

  00000	55		 push	 ebp
  00001	8b ec		 mov	 ebp, esp
  00003	83 ec 2c	 sub	 esp, 44			; 0000002cH
  00006	56		 push	 esi
  00007	57		 push	 edi
  00008	51		 push	 ecx
  00009	8d 7d d4	 lea	 edi, DWORD PTR [ebp-44]
  0000c	b9 0b 00 00 00	 mov	 ecx, 11			; 0000000bH
  00011	b8 cc cc cc cc	 mov	 eax, -858993460		; ccccccccH
  00016	f3 ab		 rep stosd
  00018	59		 pop	 ecx
  00019	a1 00 00 00 00	 mov	 eax, DWORD PTR ___security_cookie
  0001e	33 c5		 xor	 eax, ebp
  00020	89 45 fc	 mov	 DWORD PTR __$ArrayPad$[ebp], eax
  00023	89 4d f8	 mov	 DWORD PTR _this$[ebp], ecx

; 114  : 	TCHAR szSect[24];
; 115  : 	int nMax;
; 116  : 
; 117  : 	_stprintf(szSect, _T("%s_%d"), pSection, i);

  00026	8b 45 0c	 mov	 eax, DWORD PTR _i$[ebp]
  00029	50		 push	 eax
  0002a	8b 4d 10	 mov	 ecx, DWORD PTR _pSection$[ebp]
  0002d	51		 push	 ecx
  0002e	68 00 00 00 00	 push	 OFFSET $SG45463
  00033	8d 55 dc	 lea	 edx, DWORD PTR _szSect$[ebp]
  00036	52		 push	 edx
  00037	e8 00 00 00 00	 call	 _sprintf
  0003c	83 c4 10	 add	 esp, 16			; 00000010H

; 118  : 	nMax = GetPrivateProfileInt(szSect, _T("LIST_COUNT"), 0, pConfigFile);

  0003f	8b f4		 mov	 esi, esp
  00041	8b 45 08	 mov	 eax, DWORD PTR _pConfigFile$[ebp]
  00044	50		 push	 eax
  00045	6a 00		 push	 0
  00047	68 00 00 00 00	 push	 OFFSET $SG45464
  0004c	8d 4d dc	 lea	 ecx, DWORD PTR _szSect$[ebp]
  0004f	51		 push	 ecx
  00050	ff 15 00 00 00
	00		 call	 DWORD PTR __imp__GetPrivateProfileIntA@16
  00056	3b f4		 cmp	 esi, esp
  00058	e8 00 00 00 00	 call	 __RTC_CheckEsp
  0005d	89 45 d4	 mov	 DWORD PTR _nMax$[ebp], eax

; 119  : 	if (!nMax) return false;

  00060	83 7d d4 00	 cmp	 DWORD PTR _nMax$[ebp], 0
  00064	75 04		 jne	 SHORT $LN2@initConfig
  00066	32 c0		 xor	 al, al
  00068	eb 19		 jmp	 SHORT $LN1@initConfig
$LN2@initConfig:

; 120  : 	if (!_init(nMax)) return false;

  0006a	8b 55 d4	 mov	 edx, DWORD PTR _nMax$[ebp]
  0006d	52		 push	 edx
  0006e	8b 4d f8	 mov	 ecx, DWORD PTR _this$[ebp]
  00071	e8 00 00 00 00	 call	 ?_init@CSTLogger@@AAE_NH@Z ; CSTLogger::_init
  00076	0f b6 c0	 movzx	 eax, al
  00079	85 c0		 test	 eax, eax
  0007b	75 04		 jne	 SHORT $LN3@initConfig
  0007d	32 c0		 xor	 al, al
  0007f	eb 02		 jmp	 SHORT $LN1@initConfig
$LN3@initConfig:

; 121  : 	return true;

  00081	b0 01		 mov	 al, 1
$LN1@initConfig:

; 122  : }

  00083	52		 push	 edx
  00084	8b cd		 mov	 ecx, ebp
  00086	50		 push	 eax
  00087	8d 15 00 00 00
	00		 lea	 edx, DWORD PTR $LN7@initConfig
  0008d	e8 00 00 00 00	 call	 @_RTC_CheckStackVars@8
  00092	58		 pop	 eax
  00093	5a		 pop	 edx
  00094	5f		 pop	 edi
  00095	5e		 pop	 esi
  00096	8b 4d fc	 mov	 ecx, DWORD PTR __$ArrayPad$[ebp]
  00099	33 cd		 xor	 ecx, ebp
  0009b	e8 00 00 00 00	 call	 @__security_check_cookie@4
  000a0	83 c4 2c	 add	 esp, 44			; 0000002cH
  000a3	3b ec		 cmp	 ebp, esp
  000a5	e8 00 00 00 00	 call	 __RTC_CheckEsp
  000aa	8b e5		 mov	 esp, ebp
  000ac	5d		 pop	 ebp
  000ad	c2 0c 00	 ret	 12			; 0000000cH
$LN7@initConfig:
  000b0	01 00 00 00	 DD	 1
  000b4	00 00 00 00	 DD	 $LN6@initConfig
$LN6@initConfig:
  000b8	dc ff ff ff	 DD	 -36			; ffffffdcH
  000bc	18 00 00 00	 DD	 24			; 00000018H
  000c0	00 00 00 00	 DD	 $LN5@initConfig
$LN5@initConfig:
  000c4	73		 DB	 115			; 00000073H
  000c5	7a		 DB	 122			; 0000007aH
  000c6	53		 DB	 83			; 00000053H
  000c7	65		 DB	 101			; 00000065H
  000c8	63		 DB	 99			; 00000063H
  000c9	74		 DB	 116			; 00000074H
  000ca	00		 DB	 0
?initConfig@CSTLogger@@QAE_NPADH0@Z ENDP		; CSTLogger::initConfig
_TEXT	ENDS
; Function compile flags: /Odtp /RTCsu
; File e:\infinia-library-3.0\com\src\comcore.cpp
_TEXT	SEGMENT
tv83 = -40						; size = 4
tv74 = -36						; size = 4
$T2 = -32						; size = 4
$T3 = -28						; size = 4
$T4 = -24						; size = 4
$T5 = -20						; size = 4
_this$ = -16						; size = 4
__$EHRec$ = -12						; size = 12
??1CSTLogger@@QAE@XZ PROC				; CSTLogger::~CSTLogger
; _this$ = ecx

; 98   : {

  00000	55		 push	 ebp
  00001	8b ec		 mov	 ebp, esp
  00003	6a ff		 push	 -1
  00005	68 00 00 00 00	 push	 __ehhandler$??1CSTLogger@@QAE@XZ
  0000a	64 a1 00 00 00
	00		 mov	 eax, DWORD PTR fs:0
  00010	50		 push	 eax
  00011	83 ec 1c	 sub	 esp, 28			; 0000001cH
  00014	b8 cc cc cc cc	 mov	 eax, -858993460		; ccccccccH
  00019	89 45 d8	 mov	 DWORD PTR [ebp-40], eax
  0001c	89 45 dc	 mov	 DWORD PTR [ebp-36], eax
  0001f	89 45 e0	 mov	 DWORD PTR [ebp-32], eax
  00022	89 45 e4	 mov	 DWORD PTR [ebp-28], eax
  00025	89 45 e8	 mov	 DWORD PTR [ebp-24], eax
  00028	89 45 ec	 mov	 DWORD PTR [ebp-20], eax
  0002b	89 45 f0	 mov	 DWORD PTR [ebp-16], eax
  0002e	a1 00 00 00 00	 mov	 eax, DWORD PTR ___security_cookie
  00033	33 c5		 xor	 eax, ebp
  00035	50		 push	 eax
  00036	8d 45 f4	 lea	 eax, DWORD PTR __$EHRec$[ebp]
  00039	64 a3 00 00 00
	00		 mov	 DWORD PTR fs:0, eax
  0003f	89 4d f0	 mov	 DWORD PTR _this$[ebp], ecx

; 99   : 	quit();

  00042	8b 4d f0	 mov	 ecx, DWORD PTR _this$[ebp]
  00045	e8 00 00 00 00	 call	 ?quit@CSTLogger@@QAE_NXZ ; CSTLogger::quit

; 100  : 	if (m_pComandList) {

  0004a	8b 45 f0	 mov	 eax, DWORD PTR _this$[ebp]
  0004d	83 78 2c 00	 cmp	 DWORD PTR [eax+44], 0
  00051	74 35		 je	 SHORT $LN2@CSTLogger

; 101  : 		delete m_pComandList;

  00053	8b 4d f0	 mov	 ecx, DWORD PTR _this$[ebp]
  00056	8b 51 2c	 mov	 edx, DWORD PTR [ecx+44]
  00059	89 55 e8	 mov	 DWORD PTR $T4[ebp], edx
  0005c	8b 45 e8	 mov	 eax, DWORD PTR $T4[ebp]
  0005f	89 45 ec	 mov	 DWORD PTR $T5[ebp], eax
  00062	83 7d ec 00	 cmp	 DWORD PTR $T5[ebp], 0
  00066	74 0f		 je	 SHORT $LN5@CSTLogger
  00068	6a 01		 push	 1
  0006a	8b 4d ec	 mov	 ecx, DWORD PTR $T5[ebp]
  0006d	e8 00 00 00 00	 call	 ??_GCQueueS@@QAEPAXI@Z
  00072	89 45 dc	 mov	 DWORD PTR tv74[ebp], eax
  00075	eb 07		 jmp	 SHORT $LN6@CSTLogger
$LN5@CSTLogger:
  00077	c7 45 dc 00 00
	00 00		 mov	 DWORD PTR tv74[ebp], 0
$LN6@CSTLogger:

; 102  : 		m_pComandList = NULL;

  0007e	8b 4d f0	 mov	 ecx, DWORD PTR _this$[ebp]
  00081	c7 41 2c 00 00
	00 00		 mov	 DWORD PTR [ecx+44], 0
$LN2@CSTLogger:

; 103  : 	}
; 104  : 	if (m_pLoggerList) {

  00088	8b 55 f0	 mov	 edx, DWORD PTR _this$[ebp]
  0008b	83 7a 28 00	 cmp	 DWORD PTR [edx+40], 0
  0008f	74 35		 je	 SHORT $LN1@CSTLogger

; 105  : 		delete m_pLoggerList;

  00091	8b 45 f0	 mov	 eax, DWORD PTR _this$[ebp]
  00094	8b 48 28	 mov	 ecx, DWORD PTR [eax+40]
  00097	89 4d e0	 mov	 DWORD PTR $T2[ebp], ecx
  0009a	8b 55 e0	 mov	 edx, DWORD PTR $T2[ebp]
  0009d	89 55 e4	 mov	 DWORD PTR $T3[ebp], edx
  000a0	83 7d e4 00	 cmp	 DWORD PTR $T3[ebp], 0
  000a4	74 0f		 je	 SHORT $LN7@CSTLogger
  000a6	6a 01		 push	 1
  000a8	8b 4d e4	 mov	 ecx, DWORD PTR $T3[ebp]
  000ab	e8 00 00 00 00	 call	 ??_G?$CTList@VCLogger@@@@QAEPAXI@Z
  000b0	89 45 d8	 mov	 DWORD PTR tv83[ebp], eax
  000b3	eb 07		 jmp	 SHORT $LN8@CSTLogger
$LN7@CSTLogger:
  000b5	c7 45 d8 00 00
	00 00		 mov	 DWORD PTR tv83[ebp], 0
$LN8@CSTLogger:

; 106  : 		m_pLoggerList = NULL;

  000bc	8b 45 f0	 mov	 eax, DWORD PTR _this$[ebp]
  000bf	c7 40 28 00 00
	00 00		 mov	 DWORD PTR [eax+40], 0
$LN1@CSTLogger:

; 107  : 	}
; 108  : }

  000c6	8b 4d f0	 mov	 ecx, DWORD PTR _this$[ebp]
  000c9	e8 00 00 00 00	 call	 ??1CComThread@@QAE@XZ	; CComThread::~CComThread
  000ce	8b 4d f4	 mov	 ecx, DWORD PTR __$EHRec$[ebp]
  000d1	64 89 0d 00 00
	00 00		 mov	 DWORD PTR fs:0, ecx
  000d8	59		 pop	 ecx
  000d9	83 c4 28	 add	 esp, 40			; 00000028H
  000dc	3b ec		 cmp	 ebp, esp
  000de	e8 00 00 00 00	 call	 __RTC_CheckEsp
  000e3	8b e5		 mov	 esp, ebp
  000e5	5d		 pop	 ebp
  000e6	c3		 ret	 0
_TEXT	ENDS
text$x	SEGMENT
__ehhandler$??1CSTLogger@@QAE@XZ:
  00000	8b 54 24 08	 mov	 edx, DWORD PTR [esp+8]
  00004	8d 42 0c	 lea	 eax, DWORD PTR [edx+12]
  00007	8b 4a e0	 mov	 ecx, DWORD PTR [edx-32]
  0000a	33 c8		 xor	 ecx, eax
  0000c	e8 00 00 00 00	 call	 @__security_check_cookie@4
  00011	b8 00 00 00 00	 mov	 eax, OFFSET __ehfuncinfo$??1CSTLogger@@QAE@XZ
  00016	e9 00 00 00 00	 jmp	 ___CxxFrameHandler3
text$x	ENDS
??1CSTLogger@@QAE@XZ ENDP				; CSTLogger::~CSTLogger
; Function compile flags: /Odtp /RTCsu
; File e:\infinia-library-3.0\com\src\comcore.cpp
_TEXT	SEGMENT
_this$ = -4						; size = 4
??0CSTLogger@@QAE@XZ PROC				; CSTLogger::CSTLogger
; _this$ = ecx

; 92   : {

  00000	55		 push	 ebp
  00001	8b ec		 mov	 ebp, esp
  00003	51		 push	 ecx
  00004	c7 45 fc cc cc
	cc cc		 mov	 DWORD PTR [ebp-4], -858993460 ; ccccccccH
  0000b	89 4d fc	 mov	 DWORD PTR _this$[ebp], ecx
  0000e	8b 4d fc	 mov	 ecx, DWORD PTR _this$[ebp]
  00011	e8 00 00 00 00	 call	 ??0CComThread@@QAE@XZ	; CComThread::CComThread

; 93   : 	m_pComandList = NULL;

  00016	8b 45 fc	 mov	 eax, DWORD PTR _this$[ebp]
  00019	c7 40 2c 00 00
	00 00		 mov	 DWORD PTR [eax+44], 0

; 94   : 	m_pLoggerList = NULL;

  00020	8b 4d fc	 mov	 ecx, DWORD PTR _this$[ebp]
  00023	c7 41 28 00 00
	00 00		 mov	 DWORD PTR [ecx+40], 0

; 95   : }

  0002a	8b 45 fc	 mov	 eax, DWORD PTR _this$[ebp]
  0002d	83 c4 04	 add	 esp, 4
  00030	3b ec		 cmp	 ebp, esp
  00032	e8 00 00 00 00	 call	 __RTC_CheckEsp
  00037	8b e5		 mov	 esp, ebp
  00039	5d		 pop	 ebp
  0003a	c3		 ret	 0
??0CSTLogger@@QAE@XZ ENDP				; CSTLogger::CSTLogger
_TEXT	ENDS
; Function compile flags: /Odtp /RTCsu
; File e:\infinia-library-3.0\com\src\comcore.cpp
_TEXT	SEGMENT
_pBasic$ = -4						; size = 4
_p$ = 8							; size = 4
?loggerLoop@@YAXPAUSTThreadInfo@@@Z PROC		; loggerLoop

; 262  : {

  00000	55		 push	 ebp
  00001	8b ec		 mov	 ebp, esp
  00003	51		 push	 ecx
  00004	c7 45 fc cc cc
	cc cc		 mov	 DWORD PTR [ebp-4], -858993460 ; ccccccccH

; 263  : 	CSTLogger *pBasic = (CSTLogger *)p->pClass;

  0000b	8b 45 08	 mov	 eax, DWORD PTR _p$[ebp]
  0000e	8b 48 0c	 mov	 ecx, DWORD PTR [eax+12]
  00011	89 4d fc	 mov	 DWORD PTR _pBasic$[ebp], ecx

; 264  : 	if (pBasic->IsCommand()) return;

  00014	8b 4d fc	 mov	 ecx, DWORD PTR _pBasic$[ebp]
  00017	e8 00 00 00 00	 call	 ?IsCommand@CSTLogger@@QAE_NXZ ; CSTLogger::IsCommand
  0001c	0f b6 d0	 movzx	 edx, al
  0001f	85 d2		 test	 edx, edx
  00021	74 02		 je	 SHORT $LN2@loggerLoop
  00023	eb 10		 jmp	 SHORT $LN1@loggerLoop
$LN2@loggerLoop:

; 265  : 	pBasic->GetQueue();

  00025	8b 4d fc	 mov	 ecx, DWORD PTR _pBasic$[ebp]
  00028	e8 00 00 00 00	 call	 ?GetQueue@CSTLogger@@QAEXXZ ; CSTLogger::GetQueue

; 266  : 	pBasic->TimeProc();

  0002d	8b 4d fc	 mov	 ecx, DWORD PTR _pBasic$[ebp]
  00030	e8 00 00 00 00	 call	 ?TimeProc@CSTLogger@@QAEXXZ ; CSTLogger::TimeProc
$LN1@loggerLoop:

; 267  : }

  00035	83 c4 04	 add	 esp, 4
  00038	3b ec		 cmp	 ebp, esp
  0003a	e8 00 00 00 00	 call	 __RTC_CheckEsp
  0003f	8b e5		 mov	 esp, ebp
  00041	5d		 pop	 ebp
  00042	c3		 ret	 0
?loggerLoop@@YAXPAUSTThreadInfo@@@Z ENDP		; loggerLoop
_TEXT	ENDS
; Function compile flags: /Odtp /RTCsu
;	COMDAT ??_ECComThread@@QAEPAXI@Z
_TEXT	SEGMENT
_this$ = -16						; size = 4
__$EHRec$ = -12						; size = 12
___flags$ = 8						; size = 4
??_ECComThread@@QAEPAXI@Z PROC				; CComThread::`vector deleting destructor', COMDAT
; _this$ = ecx
  00000	55		 push	 ebp
  00001	8b ec		 mov	 ebp, esp
  00003	6a ff		 push	 -1
  00005	68 00 00 00 00	 push	 __ehhandler$??_ECComThread@@QAEPAXI@Z
  0000a	64 a1 00 00 00
	00		 mov	 eax, DWORD PTR fs:0
  00010	50		 push	 eax
  00011	51		 push	 ecx
  00012	c7 45 f0 cc cc
	cc cc		 mov	 DWORD PTR [ebp-16], -858993460 ; ccccccccH
  00019	a1 00 00 00 00	 mov	 eax, DWORD PTR ___security_cookie
  0001e	33 c5		 xor	 eax, ebp
  00020	50		 push	 eax
  00021	8d 45 f4	 lea	 eax, DWORD PTR __$EHRec$[ebp]
  00024	64 a3 00 00 00
	00		 mov	 DWORD PTR fs:0, eax
  0002a	89 4d f0	 mov	 DWORD PTR _this$[ebp], ecx
  0002d	8b 45 08	 mov	 eax, DWORD PTR ___flags$[ebp]
  00030	83 e0 02	 and	 eax, 2
  00033	74 41		 je	 SHORT $LN2@vector
  00035	68 00 00 00 00	 push	 OFFSET ??1CComThread@@QAE@XZ ; CComThread::~CComThread
  0003a	8b 4d f0	 mov	 ecx, DWORD PTR _this$[ebp]
  0003d	8b 51 fc	 mov	 edx, DWORD PTR [ecx-4]
  00040	52		 push	 edx
  00041	6a 28		 push	 40			; 00000028H
  00043	8b 45 f0	 mov	 eax, DWORD PTR _this$[ebp]
  00046	50		 push	 eax
  00047	e8 00 00 00 00	 call	 ??_M@YGXPAXIIP6EX0@Z@Z
  0004c	8b 4d 08	 mov	 ecx, DWORD PTR ___flags$[ebp]
  0004f	83 e1 01	 and	 ecx, 1
  00052	74 1a		 je	 SHORT $LN3@vector
  00054	8b 55 f0	 mov	 edx, DWORD PTR _this$[ebp]
  00057	6b 42 fc 28	 imul	 eax, DWORD PTR [edx-4], 40
  0005b	83 c0 04	 add	 eax, 4
  0005e	50		 push	 eax
  0005f	8b 4d f0	 mov	 ecx, DWORD PTR _this$[ebp]
  00062	83 e9 04	 sub	 ecx, 4
  00065	51		 push	 ecx
  00066	e8 00 00 00 00	 call	 ??_V@YAXPAXI@Z		; operator delete[]
  0006b	83 c4 08	 add	 esp, 8
$LN3@vector:
  0006e	8b 45 f0	 mov	 eax, DWORD PTR _this$[ebp]
  00071	83 e8 04	 sub	 eax, 4
  00074	eb 21		 jmp	 SHORT $LN5@vector
$LN2@vector:
  00076	8b 4d f0	 mov	 ecx, DWORD PTR _this$[ebp]
  00079	e8 00 00 00 00	 call	 ??1CComThread@@QAE@XZ	; CComThread::~CComThread
  0007e	8b 55 08	 mov	 edx, DWORD PTR ___flags$[ebp]
  00081	83 e2 01	 and	 edx, 1
  00084	74 0e		 je	 SHORT $LN4@vector
  00086	6a 28		 push	 40			; 00000028H
  00088	8b 45 f0	 mov	 eax, DWORD PTR _this$[ebp]
  0008b	50		 push	 eax
  0008c	e8 00 00 00 00	 call	 ??3@YAXPAXI@Z		; operator delete
  00091	83 c4 08	 add	 esp, 8
$LN4@vector:
  00094	8b 45 f0	 mov	 eax, DWORD PTR _this$[ebp]
$LN5@vector:
  00097	8b 4d f4	 mov	 ecx, DWORD PTR __$EHRec$[ebp]
  0009a	64 89 0d 00 00
	00 00		 mov	 DWORD PTR fs:0, ecx
  000a1	59		 pop	 ecx
  000a2	83 c4 10	 add	 esp, 16			; 00000010H
  000a5	3b ec		 cmp	 ebp, esp
  000a7	e8 00 00 00 00	 call	 __RTC_CheckEsp
  000ac	8b e5		 mov	 esp, ebp
  000ae	5d		 pop	 ebp
  000af	c2 04 00	 ret	 4
_TEXT	ENDS
;	COMDAT text$x
text$x	SEGMENT
__ehhandler$??_ECComThread@@QAEPAXI@Z:
  00000	8b 54 24 08	 mov	 edx, DWORD PTR [esp+8]
  00004	8d 42 0c	 lea	 eax, DWORD PTR [edx+12]
  00007	8b 4a f8	 mov	 ecx, DWORD PTR [edx-8]
  0000a	33 c8		 xor	 ecx, eax
  0000c	e8 00 00 00 00	 call	 @__security_check_cookie@4
  00011	b8 00 00 00 00	 mov	 eax, OFFSET __ehfuncinfo$??_ECComThread@@QAEPAXI@Z
  00016	e9 00 00 00 00	 jmp	 ___CxxFrameHandler3
text$x	ENDS
??_ECComThread@@QAEPAXI@Z ENDP				; CComThread::`vector deleting destructor'
; Function compile flags: /Odtp /RTCsu
;	COMDAT ??_GCComThread@@QAEPAXI@Z
_TEXT	SEGMENT
_this$ = -4						; size = 4
___flags$ = 8						; size = 4
??_GCComThread@@QAEPAXI@Z PROC				; CComThread::`scalar deleting destructor', COMDAT
; _this$ = ecx
  00000	55		 push	 ebp
  00001	8b ec		 mov	 ebp, esp
  00003	51		 push	 ecx
  00004	c7 45 fc cc cc
	cc cc		 mov	 DWORD PTR [ebp-4], -858993460 ; ccccccccH
  0000b	89 4d fc	 mov	 DWORD PTR _this$[ebp], ecx
  0000e	8b 4d fc	 mov	 ecx, DWORD PTR _this$[ebp]
  00011	e8 00 00 00 00	 call	 ??1CComThread@@QAE@XZ	; CComThread::~CComThread
  00016	8b 45 08	 mov	 eax, DWORD PTR ___flags$[ebp]
  00019	83 e0 01	 and	 eax, 1
  0001c	74 0e		 je	 SHORT $LN2@scalar
  0001e	6a 28		 push	 40			; 00000028H
  00020	8b 4d fc	 mov	 ecx, DWORD PTR _this$[ebp]
  00023	51		 push	 ecx
  00024	e8 00 00 00 00	 call	 ??3@YAXPAXI@Z		; operator delete
  00029	83 c4 08	 add	 esp, 8
$LN2@scalar:
  0002c	8b 45 fc	 mov	 eax, DWORD PTR _this$[ebp]
  0002f	83 c4 04	 add	 esp, 4
  00032	3b ec		 cmp	 ebp, esp
  00034	e8 00 00 00 00	 call	 __RTC_CheckEsp
  00039	8b e5		 mov	 esp, ebp
  0003b	5d		 pop	 ebp
  0003c	c2 04 00	 ret	 4
??_GCComThread@@QAEPAXI@Z ENDP				; CComThread::`scalar deleting destructor'
_TEXT	ENDS
; Function compile flags: /Odtp /RTCsu
; File e:\infinia-library-3.0\com\include\comcore.h
;	COMDAT ?sendSignal@CComThread@@QAEXXZ
_TEXT	SEGMENT
_this$ = -4						; size = 4
?sendSignal@CComThread@@QAEXXZ PROC			; CComThread::sendSignal, COMDAT
; _this$ = ecx

; 92   : 	inline void sendSignal() { m_stInfo.cThreadCond.signal(); }

  00000	55		 push	 ebp
  00001	8b ec		 mov	 ebp, esp
  00003	51		 push	 ecx
  00004	56		 push	 esi
  00005	c7 45 fc cc cc
	cc cc		 mov	 DWORD PTR [ebp-4], -858993460 ; ccccccccH
  0000c	89 4d fc	 mov	 DWORD PTR _this$[ebp], ecx
  0000f	8b 4d fc	 mov	 ecx, DWORD PTR _this$[ebp]
  00012	83 c1 08	 add	 ecx, 8
  00015	8b 45 fc	 mov	 eax, DWORD PTR _this$[ebp]
  00018	8b 50 08	 mov	 edx, DWORD PTR [eax+8]
  0001b	8b f4		 mov	 esi, esp
  0001d	8b 42 04	 mov	 eax, DWORD PTR [edx+4]
  00020	ff d0		 call	 eax
  00022	3b f4		 cmp	 esi, esp
  00024	e8 00 00 00 00	 call	 __RTC_CheckEsp
  00029	5e		 pop	 esi
  0002a	83 c4 04	 add	 esp, 4
  0002d	3b ec		 cmp	 ebp, esp
  0002f	e8 00 00 00 00	 call	 __RTC_CheckEsp
  00034	8b e5		 mov	 esp, ebp
  00036	5d		 pop	 ebp
  00037	c3		 ret	 0
?sendSignal@CComThread@@QAEXXZ ENDP			; CComThread::sendSignal
_TEXT	ENDS
; Function compile flags: /Odtp /RTCsu
; File e:\infinia-library-3.0\com\include\comcore.h
;	COMDAT ?bActive@CComThread@@QAE_NXZ
_TEXT	SEGMENT
_this$ = -4						; size = 4
?bActive@CComThread@@QAE_NXZ PROC			; CComThread::bActive, COMDAT
; _this$ = ecx

; 91   : 	inline bool bActive() {	return m_stInfo.bActive; }

  00000	55		 push	 ebp
  00001	8b ec		 mov	 ebp, esp
  00003	51		 push	 ecx
  00004	c7 45 fc cc cc
	cc cc		 mov	 DWORD PTR [ebp-4], -858993460 ; ccccccccH
  0000b	89 4d fc	 mov	 DWORD PTR _this$[ebp], ecx
  0000e	8b 45 fc	 mov	 eax, DWORD PTR _this$[ebp]
  00011	8a 40 1c	 mov	 al, BYTE PTR [eax+28]
  00014	8b e5		 mov	 esp, ebp
  00016	5d		 pop	 ebp
  00017	c3		 ret	 0
?bActive@CComThread@@QAE_NXZ ENDP			; CComThread::bActive
_TEXT	ENDS
; Function compile flags: /Odtp /RTCsu
; File e:\infinia-library-3.0\com\include\comcore.h
;	COMDAT ?setIdx@CComThread@@QAEXH@Z
_TEXT	SEGMENT
_this$ = -4						; size = 4
_nIdx$ = 8						; size = 4
?setIdx@CComThread@@QAEXH@Z PROC			; CComThread::setIdx, COMDAT
; _this$ = ecx

; 90   : 	inline void setIdx(int nIdx) { m_stInfo.nIdx = nIdx; }

  00000	55		 push	 ebp
  00001	8b ec		 mov	 ebp, esp
  00003	51		 push	 ecx
  00004	c7 45 fc cc cc
	cc cc		 mov	 DWORD PTR [ebp-4], -858993460 ; ccccccccH
  0000b	89 4d fc	 mov	 DWORD PTR _this$[ebp], ecx
  0000e	8b 45 fc	 mov	 eax, DWORD PTR _this$[ebp]
  00011	8b 4d 08	 mov	 ecx, DWORD PTR _nIdx$[ebp]
  00014	89 48 18	 mov	 DWORD PTR [eax+24], ecx
  00017	8b e5		 mov	 esp, ebp
  00019	5d		 pop	 ebp
  0001a	c2 04 00	 ret	 4
?setIdx@CComThread@@QAEXH@Z ENDP			; CComThread::setIdx
_TEXT	ENDS
; Function compile flags: /Odtp /RTCsu
; File e:\infinia-library-3.0\com\src\comcore.cpp
_TEXT	SEGMENT
_pBasic$ = -8						; size = 4
_pClass$ = -4						; size = 4
_ptr$ = 8						; size = 4
?ProcThread@CComThread@@SGKPAX@Z PROC			; CComThread::ProcThread

; 75   : {

  00000	55		 push	 ebp
  00001	8b ec		 mov	 ebp, esp
  00003	83 ec 08	 sub	 esp, 8
  00006	56		 push	 esi
  00007	c7 45 f8 cc cc
	cc cc		 mov	 DWORD PTR [ebp-8], -858993460 ; ccccccccH
  0000e	c7 45 fc cc cc
	cc cc		 mov	 DWORD PTR [ebp-4], -858993460 ; ccccccccH

; 76   : 	//pthread_detach(pthread_self());	
; 77   : 	CComThread *pClass = (CComThread *)ptr;

  00015	8b 45 08	 mov	 eax, DWORD PTR _ptr$[ebp]
  00018	89 45 fc	 mov	 DWORD PTR _pClass$[ebp], eax

; 78   : 	STThreadInfo *pBasic = &(pClass->m_stInfo);

  0001b	8b 4d fc	 mov	 ecx, DWORD PTR _pClass$[ebp]
  0001e	83 c1 04	 add	 ecx, 4
  00021	89 4d f8	 mov	 DWORD PTR _pBasic$[ebp], ecx
$LN2@ProcThread:

; 79   : 
; 80   : 	while (pBasic->bActive)

  00024	8b 55 f8	 mov	 edx, DWORD PTR _pBasic$[ebp]
  00027	0f b6 42 18	 movzx	 eax, BYTE PTR [edx+24]
  0002b	85 c0		 test	 eax, eax
  0002d	74 2d		 je	 SHORT $LN3@ProcThread

; 81   : 	{
; 82   : 		pBasic->cThreadCond.wait(pBasic->millisecSleep, NULL);	// -1 : INFINITE

  0002f	6a 00		 push	 0
  00031	8b 4d f8	 mov	 ecx, DWORD PTR _pBasic$[ebp]
  00034	8b 51 1c	 mov	 edx, DWORD PTR [ecx+28]
  00037	52		 push	 edx
  00038	8b 4d f8	 mov	 ecx, DWORD PTR _pBasic$[ebp]
  0003b	83 c1 04	 add	 ecx, 4
  0003e	e8 00 00 00 00	 call	 ?wait@condition@win32@common@@QAE_NHPAVcritical_section@23@@Z ; common::win32::condition::wait

; 83   : 		pClass->m_fpLoopProc(pBasic);

  00043	8b f4		 mov	 esi, esp
  00045	8b 45 f8	 mov	 eax, DWORD PTR _pBasic$[ebp]
  00048	50		 push	 eax
  00049	8b 4d fc	 mov	 ecx, DWORD PTR _pClass$[ebp]
  0004c	8b 11		 mov	 edx, DWORD PTR [ecx]
  0004e	ff d2		 call	 edx
  00050	83 c4 04	 add	 esp, 4
  00053	3b f4		 cmp	 esi, esp
  00055	e8 00 00 00 00	 call	 __RTC_CheckEsp

; 84   : 	}

  0005a	eb c8		 jmp	 SHORT $LN2@ProcThread
$LN3@ProcThread:

; 85   : 	pClass->quit();

  0005c	8b 4d fc	 mov	 ecx, DWORD PTR _pClass$[ebp]
  0005f	e8 00 00 00 00	 call	 ?quit@CComThread@@QAE_NXZ ; CComThread::quit

; 86   : 	return 0;

  00064	33 c0		 xor	 eax, eax

; 87   : }

  00066	5e		 pop	 esi
  00067	83 c4 08	 add	 esp, 8
  0006a	3b ec		 cmp	 ebp, esp
  0006c	e8 00 00 00 00	 call	 __RTC_CheckEsp
  00071	8b e5		 mov	 esp, ebp
  00073	5d		 pop	 ebp
  00074	c2 04 00	 ret	 4
?ProcThread@CComThread@@SGKPAX@Z ENDP			; CComThread::ProcThread
_TEXT	ENDS
; Function compile flags: /Odtp /RTCsu
; File e:\infinia-library-3.0\com\src\comcore.cpp
_TEXT	SEGMENT
_nStatus$ = -8						; size = 4
_this$ = -4						; size = 4
?quit@CComThread@@QAE_NXZ PROC				; CComThread::quit
; _this$ = ecx

; 65   : {

  00000	55		 push	 ebp
  00001	8b ec		 mov	 ebp, esp
  00003	83 ec 08	 sub	 esp, 8
  00006	56		 push	 esi
  00007	c7 45 f8 cc cc
	cc cc		 mov	 DWORD PTR [ebp-8], -858993460 ; ccccccccH
  0000e	c7 45 fc cc cc
	cc cc		 mov	 DWORD PTR [ebp-4], -858993460 ; ccccccccH
  00015	89 4d fc	 mov	 DWORD PTR _this$[ebp], ecx

; 66   : 	if (!m_stInfo.hTHID) return false;

  00018	8b 45 fc	 mov	 eax, DWORD PTR _this$[ebp]
  0001b	83 78 04 00	 cmp	 DWORD PTR [eax+4], 0
  0001f	75 04		 jne	 SHORT $LN2@quit
  00021	32 c0		 xor	 al, al
  00023	eb 26		 jmp	 SHORT $LN1@quit
$LN2@quit:

; 67   : 	int nStatus = 0; // for linux

  00025	c7 45 f8 00 00
	00 00		 mov	 DWORD PTR _nStatus$[ebp], 0

; 68   : 	m_stInfo.bActive = false;

  0002c	8b 4d fc	 mov	 ecx, DWORD PTR _this$[ebp]
  0002f	c6 41 1c 00	 mov	 BYTE PTR [ecx+28], 0

; 69   : 	THREAD_JOIN(m_stInfo.hTHID, (void **)&nStatus);

  00033	8b f4		 mov	 esi, esp
  00035	8b 55 fc	 mov	 edx, DWORD PTR _this$[ebp]
  00038	8b 42 04	 mov	 eax, DWORD PTR [edx+4]
  0003b	50		 push	 eax
  0003c	ff 15 00 00 00
	00		 call	 DWORD PTR __imp__CloseHandle@4
  00042	3b f4		 cmp	 esi, esp
  00044	e8 00 00 00 00	 call	 __RTC_CheckEsp

; 70   : 	return true;

  00049	b0 01		 mov	 al, 1
$LN1@quit:

; 71   : }

  0004b	5e		 pop	 esi
  0004c	83 c4 08	 add	 esp, 8
  0004f	3b ec		 cmp	 ebp, esp
  00051	e8 00 00 00 00	 call	 __RTC_CheckEsp
  00056	8b e5		 mov	 esp, ebp
  00058	5d		 pop	 ebp
  00059	c3		 ret	 0
?quit@CComThread@@QAE_NXZ ENDP				; CComThread::quit
_TEXT	ENDS
; Function compile flags: /Odtp /RTCsu
; File e:\infinia-library-3.0\com\src\comcore.cpp
_TEXT	SEGMENT
tv81 = -8						; size = 4
_this$ = -4						; size = 4
?start@CComThread@@QAE_NXZ PROC				; CComThread::start
; _this$ = ecx

; 44   : {

  00000	55		 push	 ebp
  00001	8b ec		 mov	 ebp, esp
  00003	83 ec 08	 sub	 esp, 8
  00006	56		 push	 esi
  00007	c7 45 f8 cc cc
	cc cc		 mov	 DWORD PTR [ebp-8], -858993460 ; ccccccccH
  0000e	c7 45 fc cc cc
	cc cc		 mov	 DWORD PTR [ebp-4], -858993460 ; ccccccccH
  00015	89 4d fc	 mov	 DWORD PTR _this$[ebp], ecx

; 45   : 	if (!m_fpLoopProc) {

  00018	8b 45 fc	 mov	 eax, DWORD PTR _this$[ebp]
  0001b	83 38 00	 cmp	 DWORD PTR [eax], 0
  0001e	75 1b		 jne	 SHORT $LN2@start

; 46   : 		comErrorPrint("m_fpLoopProc is NULL");

  00020	6a 2e		 push	 46			; 0000002eH
  00022	68 00 00 00 00	 push	 OFFSET $SG45357
  00027	68 00 00 00 00	 push	 OFFSET $SG45358
  0002c	e8 00 00 00 00	 call	 ?comGlobalErrorProc@@YAXPADPBDH@Z ; comGlobalErrorProc
  00031	83 c4 0c	 add	 esp, 12			; 0000000cH

; 47   : 		return false;

  00034	32 c0		 xor	 al, al
  00036	e9 83 00 00 00	 jmp	 $LN1@start
$LN2@start:

; 48   : 	}
; 49   : 	if (0 > m_stInfo.nIdx) {

  0003b	8b 4d fc	 mov	 ecx, DWORD PTR _this$[ebp]
  0003e	83 79 18 00	 cmp	 DWORD PTR [ecx+24], 0
  00042	7d 18		 jge	 SHORT $LN3@start

; 50   : 		comErrorPrint("0 > m_stInfo.nIdx");

  00044	6a 32		 push	 50			; 00000032H
  00046	68 00 00 00 00	 push	 OFFSET $SG45360
  0004b	68 00 00 00 00	 push	 OFFSET $SG45361
  00050	e8 00 00 00 00	 call	 ?comGlobalErrorProc@@YAXPADPBDH@Z ; comGlobalErrorProc
  00055	83 c4 0c	 add	 esp, 12			; 0000000cH

; 51   : 		return false;

  00058	32 c0		 xor	 al, al
  0005a	eb 62		 jmp	 SHORT $LN1@start
$LN3@start:

; 52   : 	}
; 53   : 
; 54   : 	if (m_stInfo.bActive) return true;

  0005c	8b 55 fc	 mov	 edx, DWORD PTR _this$[ebp]
  0005f	0f b6 42 1c	 movzx	 eax, BYTE PTR [edx+28]
  00063	85 c0		 test	 eax, eax
  00065	74 04		 je	 SHORT $LN4@start
  00067	b0 01		 mov	 al, 1
  00069	eb 53		 jmp	 SHORT $LN1@start
$LN4@start:

; 55   : 	// create Single Thread
; 56   : 	if (!THREAD_CREATE(&m_stInfo.hTHID, ProcThread, this)) {

  0006b	8b f4		 mov	 esi, esp
  0006d	6a 00		 push	 0
  0006f	6a 00		 push	 0
  00071	8b 4d fc	 mov	 ecx, DWORD PTR _this$[ebp]
  00074	51		 push	 ecx
  00075	68 00 00 00 00	 push	 OFFSET ?ProcThread@CComThread@@SGKPAX@Z ; CComThread::ProcThread
  0007a	6a 00		 push	 0
  0007c	6a 00		 push	 0
  0007e	ff 15 00 00 00
	00		 call	 DWORD PTR __imp__CreateThread@24
  00084	3b f4		 cmp	 esi, esp
  00086	e8 00 00 00 00	 call	 __RTC_CheckEsp
  0008b	89 45 f8	 mov	 DWORD PTR tv81[ebp], eax
  0008e	8b 55 fc	 mov	 edx, DWORD PTR _this$[ebp]
  00091	8b 45 f8	 mov	 eax, DWORD PTR tv81[ebp]
  00094	89 42 04	 mov	 DWORD PTR [edx+4], eax
  00097	83 7d f8 00	 cmp	 DWORD PTR tv81[ebp], 0
  0009b	75 18		 jne	 SHORT $LN5@start

; 57   : 		comErrorPrint("THREAD_CREATE has Failed");

  0009d	6a 39		 push	 57			; 00000039H
  0009f	68 00 00 00 00	 push	 OFFSET $SG45364
  000a4	68 00 00 00 00	 push	 OFFSET $SG45365
  000a9	e8 00 00 00 00	 call	 ?comGlobalErrorProc@@YAXPADPBDH@Z ; comGlobalErrorProc
  000ae	83 c4 0c	 add	 esp, 12			; 0000000cH

; 58   : 		return false;

  000b1	32 c0		 xor	 al, al
  000b3	eb 09		 jmp	 SHORT $LN1@start
$LN5@start:

; 59   : 	}
; 60   : 	m_stInfo.bActive = true;

  000b5	8b 4d fc	 mov	 ecx, DWORD PTR _this$[ebp]
  000b8	c6 41 1c 01	 mov	 BYTE PTR [ecx+28], 1

; 61   : 	return true;

  000bc	b0 01		 mov	 al, 1
$LN1@start:

; 62   : }

  000be	5e		 pop	 esi
  000bf	83 c4 08	 add	 esp, 8
  000c2	3b ec		 cmp	 ebp, esp
  000c4	e8 00 00 00 00	 call	 __RTC_CheckEsp
  000c9	8b e5		 mov	 esp, ebp
  000cb	5d		 pop	 ebp
  000cc	c3		 ret	 0
?start@CComThread@@QAE_NXZ ENDP				; CComThread::start
_TEXT	ENDS
; Function compile flags: /Odtp /RTCsu
; File e:\infinia-library-3.0\com\src\comcore.cpp
_TEXT	SEGMENT
_this$ = -4						; size = 4
_fpProc$ = 8						; size = 4
_pClass$ = 12						; size = 4
_millisec$ = 16						; size = 4
_pObj$ = 20						; size = 4
?init@CComThread@@QAE_NP6AXPAUSTThreadInfo@@@ZPAXH2@Z PROC ; CComThread::init
; _this$ = ecx

; 34   : {

  00000	55		 push	 ebp
  00001	8b ec		 mov	 ebp, esp
  00003	51		 push	 ecx
  00004	c7 45 fc cc cc
	cc cc		 mov	 DWORD PTR [ebp-4], -858993460 ; ccccccccH
  0000b	89 4d fc	 mov	 DWORD PTR _this$[ebp], ecx

; 35   : 	m_stInfo.pClass = pClass;

  0000e	8b 45 fc	 mov	 eax, DWORD PTR _this$[ebp]
  00011	8b 4d 0c	 mov	 ecx, DWORD PTR _pClass$[ebp]
  00014	89 48 10	 mov	 DWORD PTR [eax+16], ecx

; 36   : 	m_stInfo.pObj = pObj;

  00017	8b 55 fc	 mov	 edx, DWORD PTR _this$[ebp]
  0001a	8b 45 14	 mov	 eax, DWORD PTR _pObj$[ebp]
  0001d	89 42 14	 mov	 DWORD PTR [edx+20], eax

; 37   : 	m_stInfo.millisecSleep = millisec;

  00020	8b 4d fc	 mov	 ecx, DWORD PTR _this$[ebp]
  00023	8b 55 10	 mov	 edx, DWORD PTR _millisec$[ebp]
  00026	89 51 20	 mov	 DWORD PTR [ecx+32], edx

; 38   : 	m_fpLoopProc = fpProc;

  00029	8b 45 fc	 mov	 eax, DWORD PTR _this$[ebp]
  0002c	8b 4d 08	 mov	 ecx, DWORD PTR _fpProc$[ebp]
  0002f	89 08		 mov	 DWORD PTR [eax], ecx

; 39   : 	m_nMillisecSleep = millisec;

  00031	8b 55 fc	 mov	 edx, DWORD PTR _this$[ebp]
  00034	8b 45 10	 mov	 eax, DWORD PTR _millisec$[ebp]
  00037	89 42 24	 mov	 DWORD PTR [edx+36], eax

; 40   : 	return true;

  0003a	b0 01		 mov	 al, 1

; 41   : }

  0003c	8b e5		 mov	 esp, ebp
  0003e	5d		 pop	 ebp
  0003f	c2 10 00	 ret	 16			; 00000010H
?init@CComThread@@QAE_NP6AXPAUSTThreadInfo@@@ZPAXH2@Z ENDP ; CComThread::init
_TEXT	ENDS
; Function compile flags: /Odtp /RTCsu
; File e:\infinia-library-3.0\com\src\comcore.cpp
_TEXT	SEGMENT
_this$ = -16						; size = 4
__$EHRec$ = -12						; size = 12
??1CComThread@@QAE@XZ PROC				; CComThread::~CComThread
; _this$ = ecx

; 28   : {

  00000	55		 push	 ebp
  00001	8b ec		 mov	 ebp, esp
  00003	6a ff		 push	 -1
  00005	68 00 00 00 00	 push	 __ehhandler$??1CComThread@@QAE@XZ
  0000a	64 a1 00 00 00
	00		 mov	 eax, DWORD PTR fs:0
  00010	50		 push	 eax
  00011	51		 push	 ecx
  00012	c7 45 f0 cc cc
	cc cc		 mov	 DWORD PTR [ebp-16], -858993460 ; ccccccccH
  00019	a1 00 00 00 00	 mov	 eax, DWORD PTR ___security_cookie
  0001e	33 c5		 xor	 eax, ebp
  00020	50		 push	 eax
  00021	8d 45 f4	 lea	 eax, DWORD PTR __$EHRec$[ebp]
  00024	64 a3 00 00 00
	00		 mov	 DWORD PTR fs:0, eax
  0002a	89 4d f0	 mov	 DWORD PTR _this$[ebp], ecx

; 29   : 	quit();

  0002d	8b 4d f0	 mov	 ecx, DWORD PTR _this$[ebp]
  00030	e8 00 00 00 00	 call	 ?quit@CComThread@@QAE_NXZ ; CComThread::quit

; 30   : }

  00035	8b 4d f0	 mov	 ecx, DWORD PTR _this$[ebp]
  00038	83 c1 04	 add	 ecx, 4
  0003b	e8 00 00 00 00	 call	 ??1STThreadInfo@@QAE@XZ
  00040	8b 4d f4	 mov	 ecx, DWORD PTR __$EHRec$[ebp]
  00043	64 89 0d 00 00
	00 00		 mov	 DWORD PTR fs:0, ecx
  0004a	59		 pop	 ecx
  0004b	83 c4 10	 add	 esp, 16			; 00000010H
  0004e	3b ec		 cmp	 ebp, esp
  00050	e8 00 00 00 00	 call	 __RTC_CheckEsp
  00055	8b e5		 mov	 esp, ebp
  00057	5d		 pop	 ebp
  00058	c3		 ret	 0
_TEXT	ENDS
text$x	SEGMENT
__ehhandler$??1CComThread@@QAE@XZ:
  00000	8b 54 24 08	 mov	 edx, DWORD PTR [esp+8]
  00004	8d 42 0c	 lea	 eax, DWORD PTR [edx+12]
  00007	8b 4a f8	 mov	 ecx, DWORD PTR [edx-8]
  0000a	33 c8		 xor	 ecx, eax
  0000c	e8 00 00 00 00	 call	 @__security_check_cookie@4
  00011	b8 00 00 00 00	 mov	 eax, OFFSET __ehfuncinfo$??1CComThread@@QAE@XZ
  00016	e9 00 00 00 00	 jmp	 ___CxxFrameHandler3
text$x	ENDS
??1CComThread@@QAE@XZ ENDP				; CComThread::~CComThread
; Function compile flags: /Odtp /RTCsu
; File e:\infinia-library-3.0\com\src\comcore.cpp
_TEXT	SEGMENT
_this$ = -4						; size = 4
??0CComThread@@QAE@XZ PROC				; CComThread::CComThread
; _this$ = ecx

; 15   : {

  00000	55		 push	 ebp
  00001	8b ec		 mov	 ebp, esp
  00003	51		 push	 ecx
  00004	c7 45 fc cc cc
	cc cc		 mov	 DWORD PTR [ebp-4], -858993460 ; ccccccccH
  0000b	89 4d fc	 mov	 DWORD PTR _this$[ebp], ecx
  0000e	8b 4d fc	 mov	 ecx, DWORD PTR _this$[ebp]
  00011	83 c1 04	 add	 ecx, 4
  00014	e8 00 00 00 00	 call	 ??0STThreadInfo@@QAE@XZ

; 16   : 	m_stInfo.bActive = false;

  00019	8b 45 fc	 mov	 eax, DWORD PTR _this$[ebp]
  0001c	c6 40 1c 00	 mov	 BYTE PTR [eax+28], 0

; 17   : 	m_stInfo.hTHID = NULL;

  00020	8b 4d fc	 mov	 ecx, DWORD PTR _this$[ebp]
  00023	c7 41 04 00 00
	00 00		 mov	 DWORD PTR [ecx+4], 0

; 18   : 	m_stInfo.nIdx = -1;

  0002a	8b 55 fc	 mov	 edx, DWORD PTR _this$[ebp]
  0002d	c7 42 18 ff ff
	ff ff		 mov	 DWORD PTR [edx+24], -1

; 19   : 	m_stInfo.pClass = NULL;

  00034	8b 45 fc	 mov	 eax, DWORD PTR _this$[ebp]
  00037	c7 40 10 00 00
	00 00		 mov	 DWORD PTR [eax+16], 0

; 20   : 	m_stInfo.millisecSleep = INFINITE;

  0003e	8b 4d fc	 mov	 ecx, DWORD PTR _this$[ebp]
  00041	c7 41 20 ff ff
	ff ff		 mov	 DWORD PTR [ecx+32], -1

; 21   : 	m_nMillisecSleep = INFINITE;

  00048	8b 55 fc	 mov	 edx, DWORD PTR _this$[ebp]
  0004b	c7 42 24 ff ff
	ff ff		 mov	 DWORD PTR [edx+36], -1

; 22   : 	m_stInfo.pObj = NULL;

  00052	8b 45 fc	 mov	 eax, DWORD PTR _this$[ebp]
  00055	c7 40 14 00 00
	00 00		 mov	 DWORD PTR [eax+20], 0

; 23   : 	m_fpLoopProc = NULL;

  0005c	8b 4d fc	 mov	 ecx, DWORD PTR _this$[ebp]
  0005f	c7 01 00 00 00
	00		 mov	 DWORD PTR [ecx], 0

; 24   : 
; 25   : }

  00065	8b 45 fc	 mov	 eax, DWORD PTR _this$[ebp]
  00068	83 c4 04	 add	 esp, 4
  0006b	3b ec		 cmp	 ebp, esp
  0006d	e8 00 00 00 00	 call	 __RTC_CheckEsp
  00072	8b e5		 mov	 esp, ebp
  00074	5d		 pop	 ebp
  00075	c3		 ret	 0
??0CComThread@@QAE@XZ ENDP				; CComThread::CComThread
_TEXT	ENDS
; Function compile flags: /Odtp /RTCsu
;	COMDAT ??1STThreadInfo@@QAE@XZ
_TEXT	SEGMENT
_this$ = -4						; size = 4
??1STThreadInfo@@QAE@XZ PROC				; STThreadInfo::~STThreadInfo, COMDAT
; _this$ = ecx
  00000	55		 push	 ebp
  00001	8b ec		 mov	 ebp, esp
  00003	51		 push	 ecx
  00004	c7 45 fc cc cc
	cc cc		 mov	 DWORD PTR [ebp-4], -858993460 ; ccccccccH
  0000b	89 4d fc	 mov	 DWORD PTR _this$[ebp], ecx
  0000e	8b 4d fc	 mov	 ecx, DWORD PTR _this$[ebp]
  00011	83 c1 04	 add	 ecx, 4
  00014	e8 00 00 00 00	 call	 ??1condition@win32@common@@UAE@XZ ; common::win32::condition::~condition
  00019	83 c4 04	 add	 esp, 4
  0001c	3b ec		 cmp	 ebp, esp
  0001e	e8 00 00 00 00	 call	 __RTC_CheckEsp
  00023	8b e5		 mov	 esp, ebp
  00025	5d		 pop	 ebp
  00026	c3		 ret	 0
??1STThreadInfo@@QAE@XZ ENDP				; STThreadInfo::~STThreadInfo
_TEXT	ENDS
; Function compile flags: /Odtp /RTCsu
;	COMDAT ??0STThreadInfo@@QAE@XZ
_TEXT	SEGMENT
_this$ = -4						; size = 4
??0STThreadInfo@@QAE@XZ PROC				; STThreadInfo::STThreadInfo, COMDAT
; _this$ = ecx
  00000	55		 push	 ebp
  00001	8b ec		 mov	 ebp, esp
  00003	51		 push	 ecx
  00004	c7 45 fc cc cc
	cc cc		 mov	 DWORD PTR [ebp-4], -858993460 ; ccccccccH
  0000b	89 4d fc	 mov	 DWORD PTR _this$[ebp], ecx
  0000e	8b 4d fc	 mov	 ecx, DWORD PTR _this$[ebp]
  00011	83 c1 04	 add	 ecx, 4
  00014	e8 00 00 00 00	 call	 ??0condition@win32@common@@QAE@XZ ; common::win32::condition::condition
  00019	8b 45 fc	 mov	 eax, DWORD PTR _this$[ebp]
  0001c	83 c4 04	 add	 esp, 4
  0001f	3b ec		 cmp	 ebp, esp
  00021	e8 00 00 00 00	 call	 __RTC_CheckEsp
  00026	8b e5		 mov	 esp, ebp
  00028	5d		 pop	 ebp
  00029	c3		 ret	 0
??0STThreadInfo@@QAE@XZ ENDP				; STThreadInfo::STThreadInfo
_TEXT	ENDS
; Function compile flags: /Odtp /RTCsu
;	COMDAT ??_ECLogger@@QAEPAXI@Z
_TEXT	SEGMENT
_this$ = -16						; size = 4
__$EHRec$ = -12						; size = 12
___flags$ = 8						; size = 4
??_ECLogger@@QAEPAXI@Z PROC				; CLogger::`vector deleting destructor', COMDAT
; _this$ = ecx
  00000	55		 push	 ebp
  00001	8b ec		 mov	 ebp, esp
  00003	6a ff		 push	 -1
  00005	68 00 00 00 00	 push	 __ehhandler$??_ECLogger@@QAEPAXI@Z
  0000a	64 a1 00 00 00
	00		 mov	 eax, DWORD PTR fs:0
  00010	50		 push	 eax
  00011	51		 push	 ecx
  00012	c7 45 f0 cc cc
	cc cc		 mov	 DWORD PTR [ebp-16], -858993460 ; ccccccccH
  00019	a1 00 00 00 00	 mov	 eax, DWORD PTR ___security_cookie
  0001e	33 c5		 xor	 eax, ebp
  00020	50		 push	 eax
  00021	8d 45 f4	 lea	 eax, DWORD PTR __$EHRec$[ebp]
  00024	64 a3 00 00 00
	00		 mov	 DWORD PTR fs:0, eax
  0002a	89 4d f0	 mov	 DWORD PTR _this$[ebp], ecx
  0002d	8b 45 08	 mov	 eax, DWORD PTR ___flags$[ebp]
  00030	83 e0 02	 and	 eax, 2
  00033	74 47		 je	 SHORT $LN2@vector
  00035	68 00 00 00 00	 push	 OFFSET ??1CLogger@@QAE@XZ ; CLogger::~CLogger
  0003a	8b 4d f0	 mov	 ecx, DWORD PTR _this$[ebp]
  0003d	8b 51 fc	 mov	 edx, DWORD PTR [ecx-4]
  00040	52		 push	 edx
  00041	68 d8 00 00 00	 push	 216			; 000000d8H
  00046	8b 45 f0	 mov	 eax, DWORD PTR _this$[ebp]
  00049	50		 push	 eax
  0004a	e8 00 00 00 00	 call	 ??_M@YGXPAXIIP6EX0@Z@Z
  0004f	8b 4d 08	 mov	 ecx, DWORD PTR ___flags$[ebp]
  00052	83 e1 01	 and	 ecx, 1
  00055	74 1d		 je	 SHORT $LN3@vector
  00057	8b 55 f0	 mov	 edx, DWORD PTR _this$[ebp]
  0005a	69 42 fc d8 00
	00 00		 imul	 eax, DWORD PTR [edx-4], 216
  00061	83 c0 04	 add	 eax, 4
  00064	50		 push	 eax
  00065	8b 4d f0	 mov	 ecx, DWORD PTR _this$[ebp]
  00068	83 e9 04	 sub	 ecx, 4
  0006b	51		 push	 ecx
  0006c	e8 00 00 00 00	 call	 ??_V@YAXPAXI@Z		; operator delete[]
  00071	83 c4 08	 add	 esp, 8
$LN3@vector:
  00074	8b 45 f0	 mov	 eax, DWORD PTR _this$[ebp]
  00077	83 e8 04	 sub	 eax, 4
  0007a	eb 24		 jmp	 SHORT $LN5@vector
$LN2@vector:
  0007c	8b 4d f0	 mov	 ecx, DWORD PTR _this$[ebp]
  0007f	e8 00 00 00 00	 call	 ??1CLogger@@QAE@XZ	; CLogger::~CLogger
  00084	8b 55 08	 mov	 edx, DWORD PTR ___flags$[ebp]
  00087	83 e2 01	 and	 edx, 1
  0008a	74 11		 je	 SHORT $LN4@vector
  0008c	68 d8 00 00 00	 push	 216			; 000000d8H
  00091	8b 45 f0	 mov	 eax, DWORD PTR _this$[ebp]
  00094	50		 push	 eax
  00095	e8 00 00 00 00	 call	 ??3@YAXPAXI@Z		; operator delete
  0009a	83 c4 08	 add	 esp, 8
$LN4@vector:
  0009d	8b 45 f0	 mov	 eax, DWORD PTR _this$[ebp]
$LN5@vector:
  000a0	8b 4d f4	 mov	 ecx, DWORD PTR __$EHRec$[ebp]
  000a3	64 89 0d 00 00
	00 00		 mov	 DWORD PTR fs:0, ecx
  000aa	59		 pop	 ecx
  000ab	83 c4 10	 add	 esp, 16			; 00000010H
  000ae	3b ec		 cmp	 ebp, esp
  000b0	e8 00 00 00 00	 call	 __RTC_CheckEsp
  000b5	8b e5		 mov	 esp, ebp
  000b7	5d		 pop	 ebp
  000b8	c2 04 00	 ret	 4
_TEXT	ENDS
;	COMDAT text$x
text$x	SEGMENT
__ehhandler$??_ECLogger@@QAEPAXI@Z:
  00000	8b 54 24 08	 mov	 edx, DWORD PTR [esp+8]
  00004	8d 42 0c	 lea	 eax, DWORD PTR [edx+12]
  00007	8b 4a f8	 mov	 ecx, DWORD PTR [edx-8]
  0000a	33 c8		 xor	 ecx, eax
  0000c	e8 00 00 00 00	 call	 @__security_check_cookie@4
  00011	b8 00 00 00 00	 mov	 eax, OFFSET __ehfuncinfo$??_ECLogger@@QAEPAXI@Z
  00016	e9 00 00 00 00	 jmp	 ___CxxFrameHandler3
text$x	ENDS
??_ECLogger@@QAEPAXI@Z ENDP				; CLogger::`vector deleting destructor'
; Function compile flags: /Odtp /RTCsu
;	COMDAT ??_GCLogger@@QAEPAXI@Z
_TEXT	SEGMENT
_this$ = -4						; size = 4
___flags$ = 8						; size = 4
??_GCLogger@@QAEPAXI@Z PROC				; CLogger::`scalar deleting destructor', COMDAT
; _this$ = ecx
  00000	55		 push	 ebp
  00001	8b ec		 mov	 ebp, esp
  00003	51		 push	 ecx
  00004	c7 45 fc cc cc
	cc cc		 mov	 DWORD PTR [ebp-4], -858993460 ; ccccccccH
  0000b	89 4d fc	 mov	 DWORD PTR _this$[ebp], ecx
  0000e	8b 4d fc	 mov	 ecx, DWORD PTR _this$[ebp]
  00011	e8 00 00 00 00	 call	 ??1CLogger@@QAE@XZ	; CLogger::~CLogger
  00016	8b 45 08	 mov	 eax, DWORD PTR ___flags$[ebp]
  00019	83 e0 01	 and	 eax, 1
  0001c	74 11		 je	 SHORT $LN2@scalar
  0001e	68 d8 00 00 00	 push	 216			; 000000d8H
  00023	8b 4d fc	 mov	 ecx, DWORD PTR _this$[ebp]
  00026	51		 push	 ecx
  00027	e8 00 00 00 00	 call	 ??3@YAXPAXI@Z		; operator delete
  0002c	83 c4 08	 add	 esp, 8
$LN2@scalar:
  0002f	8b 45 fc	 mov	 eax, DWORD PTR _this$[ebp]
  00032	83 c4 04	 add	 esp, 4
  00035	3b ec		 cmp	 ebp, esp
  00037	e8 00 00 00 00	 call	 __RTC_CheckEsp
  0003c	8b e5		 mov	 esp, ebp
  0003e	5d		 pop	 ebp
  0003f	c2 04 00	 ret	 4
??_GCLogger@@QAEPAXI@Z ENDP				; CLogger::`scalar deleting destructor'
_TEXT	ENDS
; Function compile flags: /Odtp /RTCsu
; File e:\infinia-library-3.0\com\include\comlogger.h
;	COMDAT ?setCondition@CLogger@@QAEXPAVcondition@win32@common@@@Z
_TEXT	SEGMENT
_this$ = -4						; size = 4
_p$ = 8							; size = 4
?setCondition@CLogger@@QAEXPAVcondition@win32@common@@@Z PROC ; CLogger::setCondition, COMDAT
; _this$ = ecx

; 206  : 	inline void setCondition(THREAD_COND *p) { m_pCondition = p; }

  00000	55		 push	 ebp
  00001	8b ec		 mov	 ebp, esp
  00003	51		 push	 ecx
  00004	c7 45 fc cc cc
	cc cc		 mov	 DWORD PTR [ebp-4], -858993460 ; ccccccccH
  0000b	89 4d fc	 mov	 DWORD PTR _this$[ebp], ecx
  0000e	8b 45 fc	 mov	 eax, DWORD PTR _this$[ebp]
  00011	8b 4d 08	 mov	 ecx, DWORD PTR _p$[ebp]
  00014	89 48 44	 mov	 DWORD PTR [eax+68], ecx
  00017	8b e5		 mov	 esp, ebp
  00019	5d		 pop	 ebp
  0001a	c2 04 00	 ret	 4
?setCondition@CLogger@@QAEXPAVcondition@win32@common@@@Z ENDP ; CLogger::setCondition
_TEXT	ENDS
; Function compile flags: /Odtp /RTCsu
; File e:\infinia-library-3.0\com\include\comlogger.h
;	COMDAT ?getLogName@CLogger@@QAEPADXZ
_TEXT	SEGMENT
_this$ = -4						; size = 4
?getLogName@CLogger@@QAEPADXZ PROC			; CLogger::getLogName, COMDAT
; _this$ = ecx

; 203  : 	inline TCHAR *getLogName() { return m_pLogName;}

  00000	55		 push	 ebp
  00001	8b ec		 mov	 ebp, esp
  00003	51		 push	 ecx
  00004	c7 45 fc cc cc
	cc cc		 mov	 DWORD PTR [ebp-4], -858993460 ; ccccccccH
  0000b	89 4d fc	 mov	 DWORD PTR _this$[ebp], ecx
  0000e	8b 45 fc	 mov	 eax, DWORD PTR _this$[ebp]
  00011	8b 40 64	 mov	 eax, DWORD PTR [eax+100]
  00014	8b e5		 mov	 esp, ebp
  00016	5d		 pop	 ebp
  00017	c3		 ret	 0
?getLogName@CLogger@@QAEPADXZ ENDP			; CLogger::getLogName
_TEXT	ENDS
; Function compile flags: /Odtp /RTCsu
; File e:\infinia-library-3.0\com\include\comlogger.h
;	COMDAT ?pop@CLogger@@QAEPADXZ
_TEXT	SEGMENT
_this$ = -4						; size = 4
?pop@CLogger@@QAEPADXZ PROC				; CLogger::pop, COMDAT
; _this$ = ecx

; 198  : 	inline TCHAR * pop() { return (TCHAR *)m_sLogQueue.pop(); } // write   STLogger : 

  00000	55		 push	 ebp
  00001	8b ec		 mov	 ebp, esp
  00003	51		 push	 ecx
  00004	c7 45 fc cc cc
	cc cc		 mov	 DWORD PTR [ebp-4], -858993460 ; ccccccccH
  0000b	89 4d fc	 mov	 DWORD PTR _this$[ebp], ecx
  0000e	8b 4d fc	 mov	 ecx, DWORD PTR _this$[ebp]
  00011	e8 00 00 00 00	 call	 ?pop@CQueueS@@QAEPAXXZ	; CQueueS::pop
  00016	83 c4 04	 add	 esp, 4
  00019	3b ec		 cmp	 ebp, esp
  0001b	e8 00 00 00 00	 call	 __RTC_CheckEsp
  00020	8b e5		 mov	 esp, ebp
  00022	5d		 pop	 ebp
  00023	c3		 ret	 0
?pop@CLogger@@QAEPADXZ ENDP				; CLogger::pop
_TEXT	ENDS
; Function compile flags: /Odtp /RTCsu
; File e:\infinia-library-3.0\com\include\comlogger.h
;	COMDAT ?isLogFlag@CLogger@@QAE_NW4E_LOG_FLAG@@@Z
_TEXT	SEGMENT
tv67 = -5						; size = 1
_this$ = -4						; size = 4
_nFlag$ = 8						; size = 4
?isLogFlag@CLogger@@QAE_NW4E_LOG_FLAG@@@Z PROC		; CLogger::isLogFlag, COMDAT
; _this$ = ecx

; 185  : 	inline bool isLogFlag(E_LOG_FLAG nFlag) { return (m_nLogFlag & nFlag)?true:false; }

  00000	55		 push	 ebp
  00001	8b ec		 mov	 ebp, esp
  00003	83 ec 08	 sub	 esp, 8
  00006	c7 45 f8 cc cc
	cc cc		 mov	 DWORD PTR [ebp-8], -858993460 ; ccccccccH
  0000d	c7 45 fc cc cc
	cc cc		 mov	 DWORD PTR [ebp-4], -858993460 ; ccccccccH
  00014	89 4d fc	 mov	 DWORD PTR _this$[ebp], ecx
  00017	8b 45 fc	 mov	 eax, DWORD PTR _this$[ebp]
  0001a	8b 48 74	 mov	 ecx, DWORD PTR [eax+116]
  0001d	23 4d 08	 and	 ecx, DWORD PTR _nFlag$[ebp]
  00020	74 06		 je	 SHORT $LN3@isLogFlag
  00022	c6 45 fb 01	 mov	 BYTE PTR tv67[ebp], 1
  00026	eb 04		 jmp	 SHORT $LN4@isLogFlag
$LN3@isLogFlag:
  00028	c6 45 fb 00	 mov	 BYTE PTR tv67[ebp], 0
$LN4@isLogFlag:
  0002c	8a 45 fb	 mov	 al, BYTE PTR tv67[ebp]
  0002f	8b e5		 mov	 esp, ebp
  00031	5d		 pop	 ebp
  00032	c2 04 00	 ret	 4
?isLogFlag@CLogger@@QAE_NW4E_LOG_FLAG@@@Z ENDP		; CLogger::isLogFlag
_TEXT	ENDS
; Function compile flags: /Odtp /RTCsu
; File e:\infinia-library-3.0\com\include\comlogger.h
;	COMDAT ?clearLogFlag@CLogger@@QAEXW4E_LOG_FLAG@@@Z
_TEXT	SEGMENT
_this$ = -4						; size = 4
_nFlag$ = 8						; size = 4
?clearLogFlag@CLogger@@QAEXW4E_LOG_FLAG@@@Z PROC	; CLogger::clearLogFlag, COMDAT
; _this$ = ecx

; 184  : 	inline void clearLogFlag(E_LOG_FLAG nFlag) { m_nLogFlag &= ~nFlag; }

  00000	55		 push	 ebp
  00001	8b ec		 mov	 ebp, esp
  00003	51		 push	 ecx
  00004	c7 45 fc cc cc
	cc cc		 mov	 DWORD PTR [ebp-4], -858993460 ; ccccccccH
  0000b	89 4d fc	 mov	 DWORD PTR _this$[ebp], ecx
  0000e	8b 45 08	 mov	 eax, DWORD PTR _nFlag$[ebp]
  00011	f7 d0		 not	 eax
  00013	8b 4d fc	 mov	 ecx, DWORD PTR _this$[ebp]
  00016	23 41 74	 and	 eax, DWORD PTR [ecx+116]
  00019	8b 55 fc	 mov	 edx, DWORD PTR _this$[ebp]
  0001c	89 42 74	 mov	 DWORD PTR [edx+116], eax
  0001f	8b e5		 mov	 esp, ebp
  00021	5d		 pop	 ebp
  00022	c2 04 00	 ret	 4
?clearLogFlag@CLogger@@QAEXW4E_LOG_FLAG@@@Z ENDP	; CLogger::clearLogFlag
_TEXT	ENDS
; Function compile flags: /Odtp /RTCsu
; File e:\infinia-library-3.0\com\include\comlogger.h
;	COMDAT ?setLogFlag@CLogger@@QAEXW4E_LOG_FLAG@@@Z
_TEXT	SEGMENT
_this$ = -4						; size = 4
_nFlag$ = 8						; size = 4
?setLogFlag@CLogger@@QAEXW4E_LOG_FLAG@@@Z PROC		; CLogger::setLogFlag, COMDAT
; _this$ = ecx

; 183  : 	inline void setLogFlag(E_LOG_FLAG nFlag) { m_nLogFlag |= nFlag; }

  00000	55		 push	 ebp
  00001	8b ec		 mov	 ebp, esp
  00003	51		 push	 ecx
  00004	c7 45 fc cc cc
	cc cc		 mov	 DWORD PTR [ebp-4], -858993460 ; ccccccccH
  0000b	89 4d fc	 mov	 DWORD PTR _this$[ebp], ecx
  0000e	8b 45 fc	 mov	 eax, DWORD PTR _this$[ebp]
  00011	8b 48 74	 mov	 ecx, DWORD PTR [eax+116]
  00014	0b 4d 08	 or	 ecx, DWORD PTR _nFlag$[ebp]
  00017	8b 55 fc	 mov	 edx, DWORD PTR _this$[ebp]
  0001a	89 4a 74	 mov	 DWORD PTR [edx+116], ecx
  0001d	8b e5		 mov	 esp, ebp
  0001f	5d		 pop	 ebp
  00020	c2 04 00	 ret	 4
?setLogFlag@CLogger@@QAEXW4E_LOG_FLAG@@@Z ENDP		; CLogger::setLogFlag
_TEXT	ENDS
; Function compile flags: /Odtp /RTCsu
; File e:\infinia-library-3.0\com\include\comlogger.h
;	COMDAT ?getSTLNo@CLogger@@QAEHXZ
_TEXT	SEGMENT
_this$ = -4						; size = 4
?getSTLNo@CLogger@@QAEHXZ PROC				; CLogger::getSTLNo, COMDAT
; _this$ = ecx

; 182  : 	inline int getSTLNo() {	return m_nStlNo; }

  00000	55		 push	 ebp
  00001	8b ec		 mov	 ebp, esp
  00003	51		 push	 ecx
  00004	c7 45 fc cc cc
	cc cc		 mov	 DWORD PTR [ebp-4], -858993460 ; ccccccccH
  0000b	89 4d fc	 mov	 DWORD PTR _this$[ebp], ecx
  0000e	8b 45 fc	 mov	 eax, DWORD PTR _this$[ebp]
  00011	8b 40 7c	 mov	 eax, DWORD PTR [eax+124]
  00014	8b e5		 mov	 esp, ebp
  00016	5d		 pop	 ebp
  00017	c3		 ret	 0
?getSTLNo@CLogger@@QAEHXZ ENDP				; CLogger::getSTLNo
_TEXT	ENDS
; Function compile flags: /Odtp /RTCsu
; File e:\infinia-library-3.0\com\include\comlogger.h
;	COMDAT ?addLogSize@CLogger@@QAEXH@Z
_TEXT	SEGMENT
_this$ = -4						; size = 4
_nLen$ = 8						; size = 4
?addLogSize@CLogger@@QAEXH@Z PROC			; CLogger::addLogSize, COMDAT
; _this$ = ecx

; 180  : 	inline void addLogSize(int nLen) {m_nLogSize += nLen;}

  00000	55		 push	 ebp
  00001	8b ec		 mov	 ebp, esp
  00003	51		 push	 ecx
  00004	c7 45 fc cc cc
	cc cc		 mov	 DWORD PTR [ebp-4], -858993460 ; ccccccccH
  0000b	89 4d fc	 mov	 DWORD PTR _this$[ebp], ecx
  0000e	8b 45 fc	 mov	 eax, DWORD PTR _this$[ebp]
  00011	8b 88 84 00 00
	00		 mov	 ecx, DWORD PTR [eax+132]
  00017	03 4d 08	 add	 ecx, DWORD PTR _nLen$[ebp]
  0001a	8b 55 fc	 mov	 edx, DWORD PTR _this$[ebp]
  0001d	89 8a 84 00 00
	00		 mov	 DWORD PTR [edx+132], ecx
  00023	8b e5		 mov	 esp, ebp
  00025	5d		 pop	 ebp
  00026	c2 04 00	 ret	 4
?addLogSize@CLogger@@QAEXH@Z ENDP			; CLogger::addLogSize
_TEXT	ENDS
; Function compile flags: /Odtp /RTCsu
; File e:\infinia-library-3.0\com\include\commemmanager.h
;	COMDAT ?delBuf@CMemManager@@QAEXPADH@Z
_TEXT	SEGMENT
_nIdx$ = -8						; size = 4
_this$ = -4						; size = 4
_pBuf$ = 8						; size = 4
_nSize$ = 12						; size = 4
?delBuf@CMemManager@@QAEXPADH@Z PROC			; CMemManager::delBuf, COMDAT
; _this$ = ecx

; 38   : 	inline void delBuf(char *pBuf, int nSize) { int nIdx = getIndex(nSize); delBufByIndex(pBuf, nIdx); }

  00000	55		 push	 ebp
  00001	8b ec		 mov	 ebp, esp
  00003	83 ec 08	 sub	 esp, 8
  00006	c7 45 f8 cc cc
	cc cc		 mov	 DWORD PTR [ebp-8], -858993460 ; ccccccccH
  0000d	c7 45 fc cc cc
	cc cc		 mov	 DWORD PTR [ebp-4], -858993460 ; ccccccccH
  00014	89 4d fc	 mov	 DWORD PTR _this$[ebp], ecx
  00017	8b 45 0c	 mov	 eax, DWORD PTR _nSize$[ebp]
  0001a	50		 push	 eax
  0001b	e8 00 00 00 00	 call	 ?getIndex@@YAHH@Z	; getIndex
  00020	83 c4 04	 add	 esp, 4
  00023	89 45 f8	 mov	 DWORD PTR _nIdx$[ebp], eax
  00026	8b 4d f8	 mov	 ecx, DWORD PTR _nIdx$[ebp]
  00029	51		 push	 ecx
  0002a	8b 55 08	 mov	 edx, DWORD PTR _pBuf$[ebp]
  0002d	52		 push	 edx
  0002e	8b 4d fc	 mov	 ecx, DWORD PTR _this$[ebp]
  00031	e8 00 00 00 00	 call	 ?delBufByIndex@CMemManager@@QAEXPADH@Z ; CMemManager::delBufByIndex
  00036	83 c4 08	 add	 esp, 8
  00039	3b ec		 cmp	 ebp, esp
  0003b	e8 00 00 00 00	 call	 __RTC_CheckEsp
  00040	8b e5		 mov	 esp, ebp
  00042	5d		 pop	 ebp
  00043	c2 08 00	 ret	 8
?delBuf@CMemManager@@QAEXPADH@Z ENDP			; CMemManager::delBuf
_TEXT	ENDS
; Function compile flags: /Odtp /RTCsu
; File e:\infinia-library-3.0\com\include\commemmanager.h
;	COMDAT ?newBuf@CMemManager@@QAEPADH@Z
_TEXT	SEGMENT
_nIdx$ = -8						; size = 4
_this$ = -4						; size = 4
_nSize$ = 8						; size = 4
?newBuf@CMemManager@@QAEPADH@Z PROC			; CMemManager::newBuf, COMDAT
; _this$ = ecx

; 34   : 	inline char *newBuf(int nSize) { int nIdx = getIndex(nSize);  return __newBuf(nIdx, nSize); }

  00000	55		 push	 ebp
  00001	8b ec		 mov	 ebp, esp
  00003	83 ec 08	 sub	 esp, 8
  00006	c7 45 f8 cc cc
	cc cc		 mov	 DWORD PTR [ebp-8], -858993460 ; ccccccccH
  0000d	c7 45 fc cc cc
	cc cc		 mov	 DWORD PTR [ebp-4], -858993460 ; ccccccccH
  00014	89 4d fc	 mov	 DWORD PTR _this$[ebp], ecx
  00017	8b 45 08	 mov	 eax, DWORD PTR _nSize$[ebp]
  0001a	50		 push	 eax
  0001b	e8 00 00 00 00	 call	 ?getIndex@@YAHH@Z	; getIndex
  00020	83 c4 04	 add	 esp, 4
  00023	89 45 f8	 mov	 DWORD PTR _nIdx$[ebp], eax
  00026	8b 4d 08	 mov	 ecx, DWORD PTR _nSize$[ebp]
  00029	51		 push	 ecx
  0002a	8b 55 f8	 mov	 edx, DWORD PTR _nIdx$[ebp]
  0002d	52		 push	 edx
  0002e	8b 4d fc	 mov	 ecx, DWORD PTR _this$[ebp]
  00031	e8 00 00 00 00	 call	 ?__newBuf@CMemManager@@AAEPADHI@Z ; CMemManager::__newBuf
  00036	83 c4 08	 add	 esp, 8
  00039	3b ec		 cmp	 ebp, esp
  0003b	e8 00 00 00 00	 call	 __RTC_CheckEsp
  00040	8b e5		 mov	 esp, ebp
  00042	5d		 pop	 ebp
  00043	c2 04 00	 ret	 4
?newBuf@CMemManager@@QAEPADH@Z ENDP			; CMemManager::newBuf
_TEXT	ENDS
; Function compile flags: /Odtp /RTCsu
; File e:\infinia-library-3.0\com\include\combufpool.h
;	COMDAT ?getIndex@@YAHH@Z
_TEXT	SEGMENT
tv73 = -24						; size = 4
_$S1$ = -16						; size = 8
_m$ = -4						; size = 4
_s$ = 8							; size = 4
?getIndex@@YAHH@Z PROC					; getIndex, COMDAT

; 51   : inline int getIndex(int s) { int m; union { double x; int b[2]; }; x = s; m = (b[1] >> 20) - 1023; return m + ((s&(s - (1 << m))) ? 1 : 0); }

  00000	55		 push	 ebp
  00001	8b ec		 mov	 ebp, esp
  00003	83 ec 18	 sub	 esp, 24			; 00000018H
  00006	b8 cc cc cc cc	 mov	 eax, -858993460		; ccccccccH
  0000b	89 45 e8	 mov	 DWORD PTR [ebp-24], eax
  0000e	89 45 ec	 mov	 DWORD PTR [ebp-20], eax
  00011	89 45 f0	 mov	 DWORD PTR [ebp-16], eax
  00014	89 45 f4	 mov	 DWORD PTR [ebp-12], eax
  00017	89 45 f8	 mov	 DWORD PTR [ebp-8], eax
  0001a	89 45 fc	 mov	 DWORD PTR [ebp-4], eax
  0001d	f2 0f 2a 45 08	 cvtsi2sd xmm0, DWORD PTR _s$[ebp]
  00022	f2 0f 11 45 f0	 movsd	 QWORD PTR _$S1$[ebp], xmm0
  00027	b8 04 00 00 00	 mov	 eax, 4
  0002c	c1 e0 00	 shl	 eax, 0
  0002f	8b 4c 05 f0	 mov	 ecx, DWORD PTR _$S1$[ebp+eax]
  00033	c1 f9 14	 sar	 ecx, 20			; 00000014H
  00036	81 e9 ff 03 00
	00		 sub	 ecx, 1023		; 000003ffH
  0003c	89 4d fc	 mov	 DWORD PTR _m$[ebp], ecx
  0003f	ba 01 00 00 00	 mov	 edx, 1
  00044	8b 4d fc	 mov	 ecx, DWORD PTR _m$[ebp]
  00047	d3 e2		 shl	 edx, cl
  00049	8b 45 08	 mov	 eax, DWORD PTR _s$[ebp]
  0004c	2b c2		 sub	 eax, edx
  0004e	23 45 08	 and	 eax, DWORD PTR _s$[ebp]
  00051	74 09		 je	 SHORT $LN3@getIndex
  00053	c7 45 e8 01 00
	00 00		 mov	 DWORD PTR tv73[ebp], 1
  0005a	eb 07		 jmp	 SHORT $LN4@getIndex
$LN3@getIndex:
  0005c	c7 45 e8 00 00
	00 00		 mov	 DWORD PTR tv73[ebp], 0
$LN4@getIndex:
  00063	8b 45 fc	 mov	 eax, DWORD PTR _m$[ebp]
  00066	03 45 e8	 add	 eax, DWORD PTR tv73[ebp]
  00069	52		 push	 edx
  0006a	8b cd		 mov	 ecx, ebp
  0006c	50		 push	 eax
  0006d	8d 15 00 00 00
	00		 lea	 edx, DWORD PTR $LN7@getIndex
  00073	e8 00 00 00 00	 call	 @_RTC_CheckStackVars@8
  00078	58		 pop	 eax
  00079	5a		 pop	 edx
  0007a	8b e5		 mov	 esp, ebp
  0007c	5d		 pop	 ebp
  0007d	c3		 ret	 0
  0007e	66 90		 npad	 2
$LN7@getIndex:
  00080	01 00 00 00	 DD	 1
  00084	00 00 00 00	 DD	 $LN6@getIndex
$LN6@getIndex:
  00088	f0 ff ff ff	 DD	 -16			; fffffff0H
  0008c	08 00 00 00	 DD	 8
  00090	00 00 00 00	 DD	 $LN5@getIndex
$LN5@getIndex:
  00094	24		 DB	 36			; 00000024H
  00095	53		 DB	 83			; 00000053H
  00096	31		 DB	 49			; 00000031H
  00097	00		 DB	 0
?getIndex@@YAHH@Z ENDP					; getIndex
_TEXT	ENDS
; Function compile flags: /Odtp /RTCsu
; File e:\infinia-library-3.0\com\include\comdatetime.h
;	COMDAT ?Sec@CDateTime@@QAEHXZ
_TEXT	SEGMENT
_this$ = -4						; size = 4
?Sec@CDateTime@@QAEHXZ PROC				; CDateTime::Sec, COMDAT
; _this$ = ecx

; 222  : 	inline int	Sec()		{ return m_tm.tm_sec; }

  00000	55		 push	 ebp
  00001	8b ec		 mov	 ebp, esp
  00003	51		 push	 ecx
  00004	c7 45 fc cc cc
	cc cc		 mov	 DWORD PTR [ebp-4], -858993460 ; ccccccccH
  0000b	89 4d fc	 mov	 DWORD PTR _this$[ebp], ecx
  0000e	8b 45 fc	 mov	 eax, DWORD PTR _this$[ebp]
  00011	8b 00		 mov	 eax, DWORD PTR [eax]
  00013	8b e5		 mov	 esp, ebp
  00015	5d		 pop	 ebp
  00016	c3		 ret	 0
?Sec@CDateTime@@QAEHXZ ENDP				; CDateTime::Sec
_TEXT	ENDS
; Function compile flags: /Odtp /RTCsu
; File e:\infinia-library-3.0\com\include\comdatetime.h
;	COMDAT ?Minute@CDateTime@@QAEHXZ
_TEXT	SEGMENT
_this$ = -4						; size = 4
?Minute@CDateTime@@QAEHXZ PROC				; CDateTime::Minute, COMDAT
; _this$ = ecx

; 221  : 	inline int	Minute()	{ return m_tm.tm_min; }

  00000	55		 push	 ebp
  00001	8b ec		 mov	 ebp, esp
  00003	51		 push	 ecx
  00004	c7 45 fc cc cc
	cc cc		 mov	 DWORD PTR [ebp-4], -858993460 ; ccccccccH
  0000b	89 4d fc	 mov	 DWORD PTR _this$[ebp], ecx
  0000e	8b 45 fc	 mov	 eax, DWORD PTR _this$[ebp]
  00011	8b 40 04	 mov	 eax, DWORD PTR [eax+4]
  00014	8b e5		 mov	 esp, ebp
  00016	5d		 pop	 ebp
  00017	c3		 ret	 0
?Minute@CDateTime@@QAEHXZ ENDP				; CDateTime::Minute
_TEXT	ENDS
; Function compile flags: /Odtp /RTCsu
; File e:\infinia-library-3.0\com\include\comdatetime.h
;	COMDAT ?Hour@CDateTime@@QAEHXZ
_TEXT	SEGMENT
_this$ = -4						; size = 4
?Hour@CDateTime@@QAEHXZ PROC				; CDateTime::Hour, COMDAT
; _this$ = ecx

; 220  : 	inline int	Hour()		{ return m_tm.tm_hour; }

  00000	55		 push	 ebp
  00001	8b ec		 mov	 ebp, esp
  00003	51		 push	 ecx
  00004	c7 45 fc cc cc
	cc cc		 mov	 DWORD PTR [ebp-4], -858993460 ; ccccccccH
  0000b	89 4d fc	 mov	 DWORD PTR _this$[ebp], ecx
  0000e	8b 45 fc	 mov	 eax, DWORD PTR _this$[ebp]
  00011	8b 40 08	 mov	 eax, DWORD PTR [eax+8]
  00014	8b e5		 mov	 esp, ebp
  00016	5d		 pop	 ebp
  00017	c3		 ret	 0
?Hour@CDateTime@@QAEHXZ ENDP				; CDateTime::Hour
_TEXT	ENDS
; Function compile flags: /Odtp /RTCsu
; File e:\infinia-library-3.0\com\include\comdatetime.h
;	COMDAT ?Mday@CDateTime@@QAEHXZ
_TEXT	SEGMENT
_this$ = -4						; size = 4
?Mday@CDateTime@@QAEHXZ PROC				; CDateTime::Mday, COMDAT
; _this$ = ecx

; 218  : 	inline int	Mday()		{ return m_tm.tm_mday; }

  00000	55		 push	 ebp
  00001	8b ec		 mov	 ebp, esp
  00003	51		 push	 ecx
  00004	c7 45 fc cc cc
	cc cc		 mov	 DWORD PTR [ebp-4], -858993460 ; ccccccccH
  0000b	89 4d fc	 mov	 DWORD PTR _this$[ebp], ecx
  0000e	8b 45 fc	 mov	 eax, DWORD PTR _this$[ebp]
  00011	8b 40 0c	 mov	 eax, DWORD PTR [eax+12]
  00014	8b e5		 mov	 esp, ebp
  00016	5d		 pop	 ebp
  00017	c3		 ret	 0
?Mday@CDateTime@@QAEHXZ ENDP				; CDateTime::Mday
_TEXT	ENDS
; Function compile flags: /Odtp /RTCsu
; File e:\infinia-library-3.0\com\include\comdatetime.h
;	COMDAT ?Month@CDateTime@@QAEHXZ
_TEXT	SEGMENT
_this$ = -4						; size = 4
?Month@CDateTime@@QAEHXZ PROC				; CDateTime::Month, COMDAT
; _this$ = ecx

; 217  : 	inline int	Month()		{ return m_tm.tm_mon; }

  00000	55		 push	 ebp
  00001	8b ec		 mov	 ebp, esp
  00003	51		 push	 ecx
  00004	c7 45 fc cc cc
	cc cc		 mov	 DWORD PTR [ebp-4], -858993460 ; ccccccccH
  0000b	89 4d fc	 mov	 DWORD PTR _this$[ebp], ecx
  0000e	8b 45 fc	 mov	 eax, DWORD PTR _this$[ebp]
  00011	8b 40 10	 mov	 eax, DWORD PTR [eax+16]
  00014	8b e5		 mov	 esp, ebp
  00016	5d		 pop	 ebp
  00017	c3		 ret	 0
?Month@CDateTime@@QAEHXZ ENDP				; CDateTime::Month
_TEXT	ENDS
; Function compile flags: /Odtp /RTCsu
; File e:\infinia-library-3.0\com\include\comdatetime.h
;	COMDAT ?Year@CDateTime@@QAEHXZ
_TEXT	SEGMENT
_this$ = -4						; size = 4
?Year@CDateTime@@QAEHXZ PROC				; CDateTime::Year, COMDAT
; _this$ = ecx

; 216  : 	inline int	Year()		{ return m_tm.tm_year; }

  00000	55		 push	 ebp
  00001	8b ec		 mov	 ebp, esp
  00003	51		 push	 ecx
  00004	c7 45 fc cc cc
	cc cc		 mov	 DWORD PTR [ebp-4], -858993460 ; ccccccccH
  0000b	89 4d fc	 mov	 DWORD PTR _this$[ebp], ecx
  0000e	8b 45 fc	 mov	 eax, DWORD PTR _this$[ebp]
  00011	8b 40 14	 mov	 eax, DWORD PTR [eax+20]
  00014	8b e5		 mov	 esp, ebp
  00016	5d		 pop	 ebp
  00017	c3		 ret	 0
?Year@CDateTime@@QAEHXZ ENDP				; CDateTime::Year
_TEXT	ENDS
; Function compile flags: /Odtp /RTCsu
;	COMDAT ??_GCQueueS@@QAEPAXI@Z
_TEXT	SEGMENT
_this$ = -4						; size = 4
___flags$ = 8						; size = 4
??_GCQueueS@@QAEPAXI@Z PROC				; CQueueS::`scalar deleting destructor', COMDAT
; _this$ = ecx
  00000	55		 push	 ebp
  00001	8b ec		 mov	 ebp, esp
  00003	51		 push	 ecx
  00004	c7 45 fc cc cc
	cc cc		 mov	 DWORD PTR [ebp-4], -858993460 ; ccccccccH
  0000b	89 4d fc	 mov	 DWORD PTR _this$[ebp], ecx
  0000e	8b 4d fc	 mov	 ecx, DWORD PTR _this$[ebp]
  00011	e8 00 00 00 00	 call	 ??1CQueueS@@QAE@XZ	; CQueueS::~CQueueS
  00016	8b 45 08	 mov	 eax, DWORD PTR ___flags$[ebp]
  00019	83 e0 01	 and	 eax, 1
  0001c	74 0e		 je	 SHORT $LN2@scalar
  0001e	6a 40		 push	 64			; 00000040H
  00020	8b 4d fc	 mov	 ecx, DWORD PTR _this$[ebp]
  00023	51		 push	 ecx
  00024	e8 00 00 00 00	 call	 ??3@YAXPAXI@Z		; operator delete
  00029	83 c4 08	 add	 esp, 8
$LN2@scalar:
  0002c	8b 45 fc	 mov	 eax, DWORD PTR _this$[ebp]
  0002f	83 c4 04	 add	 esp, 4
  00032	3b ec		 cmp	 ebp, esp
  00034	e8 00 00 00 00	 call	 __RTC_CheckEsp
  00039	8b e5		 mov	 esp, ebp
  0003b	5d		 pop	 ebp
  0003c	c2 04 00	 ret	 4
??_GCQueueS@@QAEPAXI@Z ENDP				; CQueueS::`scalar deleting destructor'
_TEXT	ENDS
; Function compile flags: /Odtp /RTCsu
;	COMDAT ?__autoclassinit2@CQueueS@@QAEXI@Z
_TEXT	SEGMENT
_this$ = -4						; size = 4
_classSize$ = 8						; size = 4
?__autoclassinit2@CQueueS@@QAEXI@Z PROC			; CQueueS::__autoclassinit2, COMDAT
; _this$ = ecx
  00000	55		 push	 ebp
  00001	8b ec		 mov	 ebp, esp
  00003	51		 push	 ecx
  00004	c7 45 fc cc cc
	cc cc		 mov	 DWORD PTR [ebp-4], -858993460 ; ccccccccH
  0000b	89 4d fc	 mov	 DWORD PTR _this$[ebp], ecx
  0000e	8b 45 08	 mov	 eax, DWORD PTR _classSize$[ebp]
  00011	50		 push	 eax
  00012	6a 00		 push	 0
  00014	8b 4d fc	 mov	 ecx, DWORD PTR _this$[ebp]
  00017	51		 push	 ecx
  00018	e8 00 00 00 00	 call	 _memset
  0001d	83 c4 0c	 add	 esp, 12			; 0000000cH
  00020	83 c4 04	 add	 esp, 4
  00023	3b ec		 cmp	 ebp, esp
  00025	e8 00 00 00 00	 call	 __RTC_CheckEsp
  0002a	8b e5		 mov	 esp, ebp
  0002c	5d		 pop	 ebp
  0002d	c2 04 00	 ret	 4
?__autoclassinit2@CQueueS@@QAEXI@Z ENDP			; CQueueS::__autoclassinit2
_TEXT	ENDS
; Function compile flags: /Odtp /RTCsu
; File e:\infinia-library-3.0\com\include\comtypes.h
;	COMDAT ?comGlobalErrorProc@@YAXPADPBDH@Z
_TEXT	SEGMENT
_pMsg$ = 8						; size = 4
__szFunc$ = 12						; size = 4
__nLine$ = 16						; size = 4
?comGlobalErrorProc@@YAXPADPBDH@Z PROC			; comGlobalErrorProc, COMDAT

; 324  : inline void comGlobalErrorProc(char *pMsg, const char *_szFunc, const int _nLine) {

  00000	55		 push	 ebp
  00001	8b ec		 mov	 ebp, esp

; 325  : 	sprintf(g_szSystemError, "ERROR! [%s:%d] %s\n", _szFunc, _nLine, pMsg);

  00003	8b 45 08	 mov	 eax, DWORD PTR _pMsg$[ebp]
  00006	50		 push	 eax
  00007	8b 4d 10	 mov	 ecx, DWORD PTR __nLine$[ebp]
  0000a	51		 push	 ecx
  0000b	8b 55 0c	 mov	 edx, DWORD PTR __szFunc$[ebp]
  0000e	52		 push	 edx
  0000f	68 00 00 00 00	 push	 OFFSET ??_C@_0BD@KEHDJCKJ@ERROR?$CB?5?$FL?$CFs?3?$CFd?$FN?5?$CFs?6?$AA@
  00014	68 00 00 00 00	 push	 OFFSET ?g_szSystemError@@3PADA ; g_szSystemError
  00019	e8 00 00 00 00	 call	 _sprintf
  0001e	83 c4 14	 add	 esp, 20			; 00000014H

; 326  : 	printf(g_szSystemError);

  00021	68 00 00 00 00	 push	 OFFSET ?g_szSystemError@@3PADA ; g_szSystemError
  00026	e8 00 00 00 00	 call	 _printf
  0002b	83 c4 04	 add	 esp, 4

; 327  : }

  0002e	3b ec		 cmp	 ebp, esp
  00030	e8 00 00 00 00	 call	 __RTC_CheckEsp
  00035	5d		 pop	 ebp
  00036	c3		 ret	 0
?comGlobalErrorProc@@YAXPADPBDH@Z ENDP			; comGlobalErrorProc
_TEXT	ENDS
; Function compile flags: /Odtp /RTCsu
; File e:\infinia-library-3.0\com\include\comtypes.h
;	COMDAT ?ISINCLUDE@@YA_NHH@Z
_TEXT	SEGMENT
_i$ = 8							; size = 4
_max$ = 12						; size = 4
?ISINCLUDE@@YA_NHH@Z PROC				; ISINCLUDE, COMDAT

; 322  : inline bool ISINCLUDE(int i, int max) { if (0 <= i && i < max) return true; return false; }

  00000	55		 push	 ebp
  00001	8b ec		 mov	 ebp, esp
  00003	83 7d 08 00	 cmp	 DWORD PTR _i$[ebp], 0
  00007	7c 0c		 jl	 SHORT $LN2@ISINCLUDE
  00009	8b 45 08	 mov	 eax, DWORD PTR _i$[ebp]
  0000c	3b 45 0c	 cmp	 eax, DWORD PTR _max$[ebp]
  0000f	7d 04		 jge	 SHORT $LN2@ISINCLUDE
  00011	b0 01		 mov	 al, 1
  00013	eb 02		 jmp	 SHORT $LN1@ISINCLUDE
$LN2@ISINCLUDE:
  00015	32 c0		 xor	 al, al
$LN1@ISINCLUDE:
  00017	5d		 pop	 ebp
  00018	c3		 ret	 0
?ISINCLUDE@@YA_NHH@Z ENDP				; ISINCLUDE
_TEXT	ENDS
; Function compile flags: /Odtp /RTCsu
; File e:\infinia-library-3.0\com\include\comtypes.h
;	COMDAT ?ISABLETODELETE@@YA_NW4E_ALLOC_TYPE@@@Z
_TEXT	SEGMENT
_e$ = 8							; size = 4
?ISABLETODELETE@@YA_NW4E_ALLOC_TYPE@@@Z PROC		; ISABLETODELETE, COMDAT

; 247  : inline bool ISABLETODELETE(E_ALLOC_TYPE e) { if (eAlloc_Type_MemPool < e) return true; return false; }

  00000	55		 push	 ebp
  00001	8b ec		 mov	 ebp, esp
  00003	83 7d 08 01	 cmp	 DWORD PTR _e$[ebp], 1
  00007	7e 04		 jle	 SHORT $LN2@ISABLETODE
  00009	b0 01		 mov	 al, 1
  0000b	eb 02		 jmp	 SHORT $LN1@ISABLETODE
$LN2@ISABLETODE:
  0000d	32 c0		 xor	 al, al
$LN1@ISABLETODE:
  0000f	5d		 pop	 ebp
  00010	c3		 ret	 0
?ISABLETODELETE@@YA_NW4E_ALLOC_TYPE@@@Z ENDP		; ISABLETODELETE
_TEXT	ENDS
; Function compile flags: /Odtp /RTCsu
;	COMDAT ??_Ewin_atomic@win32@common@@QAEPAXI@Z
_TEXT	SEGMENT
_this$ = -16						; size = 4
__$EHRec$ = -12						; size = 12
___flags$ = 8						; size = 4
??_Ewin_atomic@win32@common@@QAEPAXI@Z PROC		; common::win32::win_atomic::`vector deleting destructor', COMDAT
; _this$ = ecx
  00000	55		 push	 ebp
  00001	8b ec		 mov	 ebp, esp
  00003	6a ff		 push	 -1
  00005	68 00 00 00 00	 push	 __ehhandler$??_Ewin_atomic@win32@common@@QAEPAXI@Z
  0000a	64 a1 00 00 00
	00		 mov	 eax, DWORD PTR fs:0
  00010	50		 push	 eax
  00011	51		 push	 ecx
  00012	c7 45 f0 cc cc
	cc cc		 mov	 DWORD PTR [ebp-16], -858993460 ; ccccccccH
  00019	a1 00 00 00 00	 mov	 eax, DWORD PTR ___security_cookie
  0001e	33 c5		 xor	 eax, ebp
  00020	50		 push	 eax
  00021	8d 45 f4	 lea	 eax, DWORD PTR __$EHRec$[ebp]
  00024	64 a3 00 00 00
	00		 mov	 DWORD PTR fs:0, eax
  0002a	89 4d f0	 mov	 DWORD PTR _this$[ebp], ecx
  0002d	8b 45 08	 mov	 eax, DWORD PTR ___flags$[ebp]
  00030	83 e0 02	 and	 eax, 2
  00033	74 44		 je	 SHORT $LN2@vector
  00035	68 00 00 00 00	 push	 OFFSET ??1win_atomic@win32@common@@QAE@XZ ; common::win32::win_atomic::~win_atomic
  0003a	8b 4d f0	 mov	 ecx, DWORD PTR _this$[ebp]
  0003d	8b 51 fc	 mov	 edx, DWORD PTR [ecx-4]
  00040	52		 push	 edx
  00041	6a 04		 push	 4
  00043	8b 45 f0	 mov	 eax, DWORD PTR _this$[ebp]
  00046	50		 push	 eax
  00047	e8 00 00 00 00	 call	 ??_M@YGXPAXIIP6EX0@Z@Z
  0004c	8b 4d 08	 mov	 ecx, DWORD PTR ___flags$[ebp]
  0004f	83 e1 01	 and	 ecx, 1
  00052	74 1d		 je	 SHORT $LN3@vector
  00054	8b 55 f0	 mov	 edx, DWORD PTR _this$[ebp]
  00057	8b 42 fc	 mov	 eax, DWORD PTR [edx-4]
  0005a	8d 0c 85 04 00
	00 00		 lea	 ecx, DWORD PTR [eax*4+4]
  00061	51		 push	 ecx
  00062	8b 55 f0	 mov	 edx, DWORD PTR _this$[ebp]
  00065	83 ea 04	 sub	 edx, 4
  00068	52		 push	 edx
  00069	e8 00 00 00 00	 call	 ??_V@YAXPAXI@Z		; operator delete[]
  0006e	83 c4 08	 add	 esp, 8
$LN3@vector:
  00071	8b 45 f0	 mov	 eax, DWORD PTR _this$[ebp]
  00074	83 e8 04	 sub	 eax, 4
  00077	eb 21		 jmp	 SHORT $LN5@vector
$LN2@vector:
  00079	8b 4d f0	 mov	 ecx, DWORD PTR _this$[ebp]
  0007c	e8 00 00 00 00	 call	 ??1win_atomic@win32@common@@QAE@XZ ; common::win32::win_atomic::~win_atomic
  00081	8b 45 08	 mov	 eax, DWORD PTR ___flags$[ebp]
  00084	83 e0 01	 and	 eax, 1
  00087	74 0e		 je	 SHORT $LN4@vector
  00089	6a 04		 push	 4
  0008b	8b 4d f0	 mov	 ecx, DWORD PTR _this$[ebp]
  0008e	51		 push	 ecx
  0008f	e8 00 00 00 00	 call	 ??3@YAXPAXI@Z		; operator delete
  00094	83 c4 08	 add	 esp, 8
$LN4@vector:
  00097	8b 45 f0	 mov	 eax, DWORD PTR _this$[ebp]
$LN5@vector:
  0009a	8b 4d f4	 mov	 ecx, DWORD PTR __$EHRec$[ebp]
  0009d	64 89 0d 00 00
	00 00		 mov	 DWORD PTR fs:0, ecx
  000a4	59		 pop	 ecx
  000a5	83 c4 10	 add	 esp, 16			; 00000010H
  000a8	3b ec		 cmp	 ebp, esp
  000aa	e8 00 00 00 00	 call	 __RTC_CheckEsp
  000af	8b e5		 mov	 esp, ebp
  000b1	5d		 pop	 ebp
  000b2	c2 04 00	 ret	 4
_TEXT	ENDS
;	COMDAT text$x
text$x	SEGMENT
__ehhandler$??_Ewin_atomic@win32@common@@QAEPAXI@Z:
  00000	8b 54 24 08	 mov	 edx, DWORD PTR [esp+8]
  00004	8d 42 0c	 lea	 eax, DWORD PTR [edx+12]
  00007	8b 4a f8	 mov	 ecx, DWORD PTR [edx-8]
  0000a	33 c8		 xor	 ecx, eax
  0000c	e8 00 00 00 00	 call	 @__security_check_cookie@4
  00011	b8 00 00 00 00	 mov	 eax, OFFSET __ehfuncinfo$??_Ewin_atomic@win32@common@@QAEPAXI@Z
  00016	e9 00 00 00 00	 jmp	 ___CxxFrameHandler3
text$x	ENDS
??_Ewin_atomic@win32@common@@QAEPAXI@Z ENDP		; common::win32::win_atomic::`vector deleting destructor'
; Function compile flags: /Odtp /RTCsu
; File e:\infinia-library-3.0\com\include\com\win32\win32_mtsync.h
;	COMDAT ?atomic_compare_exchange@win_atomic@win32@common@@QAEHHH@Z
_TEXT	SEGMENT
_this$ = -4						; size = 4
_nExchange$ = 8						; size = 4
_nComperand$ = 12					; size = 4
?atomic_compare_exchange@win_atomic@win32@common@@QAEHHH@Z PROC ; common::win32::win_atomic::atomic_compare_exchange, COMDAT
; _this$ = ecx

; 99   : 	inline int atomic_compare_exchange(int nExchange, int nComperand) {return (int)InterlockedCompareExchange(&m_count, nExchange, nComperand);} // return long

  00000	55		 push	 ebp
  00001	8b ec		 mov	 ebp, esp
  00003	51		 push	 ecx
  00004	56		 push	 esi
  00005	c7 45 fc cc cc
	cc cc		 mov	 DWORD PTR [ebp-4], -858993460 ; ccccccccH
  0000c	89 4d fc	 mov	 DWORD PTR _this$[ebp], ecx
  0000f	8b f4		 mov	 esi, esp
  00011	8b 45 0c	 mov	 eax, DWORD PTR _nComperand$[ebp]
  00014	50		 push	 eax
  00015	8b 4d 08	 mov	 ecx, DWORD PTR _nExchange$[ebp]
  00018	51		 push	 ecx
  00019	8b 55 fc	 mov	 edx, DWORD PTR _this$[ebp]
  0001c	52		 push	 edx
  0001d	ff 15 00 00 00
	00		 call	 DWORD PTR __imp__InterlockedCompareExchange@12
  00023	3b f4		 cmp	 esi, esp
  00025	e8 00 00 00 00	 call	 __RTC_CheckEsp
  0002a	5e		 pop	 esi
  0002b	83 c4 04	 add	 esp, 4
  0002e	3b ec		 cmp	 ebp, esp
  00030	e8 00 00 00 00	 call	 __RTC_CheckEsp
  00035	8b e5		 mov	 esp, ebp
  00037	5d		 pop	 ebp
  00038	c2 08 00	 ret	 8
?atomic_compare_exchange@win_atomic@win32@common@@QAEHHH@Z ENDP ; common::win32::win_atomic::atomic_compare_exchange
_TEXT	ENDS
; Function compile flags: /Odtp /RTCsu
; File e:\infinia-library-3.0\com\include\com\win32\win32_mtsync.h
;	COMDAT ?atomic_decrement@win_atomic@win32@common@@QAEJXZ
_TEXT	SEGMENT
_this$ = -4						; size = 4
?atomic_decrement@win_atomic@win32@common@@QAEJXZ PROC	; common::win32::win_atomic::atomic_decrement, COMDAT
; _this$ = ecx

; 98   : 	inline long atomic_decrement() { return InterlockedDecrement(&m_count);}

  00000	55		 push	 ebp
  00001	8b ec		 mov	 ebp, esp
  00003	51		 push	 ecx
  00004	56		 push	 esi
  00005	c7 45 fc cc cc
	cc cc		 mov	 DWORD PTR [ebp-4], -858993460 ; ccccccccH
  0000c	89 4d fc	 mov	 DWORD PTR _this$[ebp], ecx
  0000f	8b 45 fc	 mov	 eax, DWORD PTR _this$[ebp]
  00012	8b f4		 mov	 esi, esp
  00014	50		 push	 eax
  00015	ff 15 00 00 00
	00		 call	 DWORD PTR __imp__InterlockedDecrement@4
  0001b	3b f4		 cmp	 esi, esp
  0001d	e8 00 00 00 00	 call	 __RTC_CheckEsp
  00022	5e		 pop	 esi
  00023	83 c4 04	 add	 esp, 4
  00026	3b ec		 cmp	 ebp, esp
  00028	e8 00 00 00 00	 call	 __RTC_CheckEsp
  0002d	8b e5		 mov	 esp, ebp
  0002f	5d		 pop	 ebp
  00030	c3		 ret	 0
?atomic_decrement@win_atomic@win32@common@@QAEJXZ ENDP	; common::win32::win_atomic::atomic_decrement
_TEXT	ENDS
; Function compile flags: /Odtp /RTCsu
; File e:\infinia-library-3.0\com\include\com\win32\win32_mtsync.h
;	COMDAT ?atomic_increment@win_atomic@win32@common@@QAEJXZ
_TEXT	SEGMENT
_this$ = -4						; size = 4
?atomic_increment@win_atomic@win32@common@@QAEJXZ PROC	; common::win32::win_atomic::atomic_increment, COMDAT
; _this$ = ecx

; 97   : 	inline long atomic_increment() { return InterlockedIncrement(&m_count);}

  00000	55		 push	 ebp
  00001	8b ec		 mov	 ebp, esp
  00003	51		 push	 ecx
  00004	56		 push	 esi
  00005	c7 45 fc cc cc
	cc cc		 mov	 DWORD PTR [ebp-4], -858993460 ; ccccccccH
  0000c	89 4d fc	 mov	 DWORD PTR _this$[ebp], ecx
  0000f	8b 45 fc	 mov	 eax, DWORD PTR _this$[ebp]
  00012	8b f4		 mov	 esi, esp
  00014	50		 push	 eax
  00015	ff 15 00 00 00
	00		 call	 DWORD PTR __imp__InterlockedIncrement@4
  0001b	3b f4		 cmp	 esi, esp
  0001d	e8 00 00 00 00	 call	 __RTC_CheckEsp
  00022	5e		 pop	 esi
  00023	83 c4 04	 add	 esp, 4
  00026	3b ec		 cmp	 ebp, esp
  00028	e8 00 00 00 00	 call	 __RTC_CheckEsp
  0002d	8b e5		 mov	 esp, ebp
  0002f	5d		 pop	 ebp
  00030	c3		 ret	 0
?atomic_increment@win_atomic@win32@common@@QAEJXZ ENDP	; common::win32::win_atomic::atomic_increment
_TEXT	ENDS
; Function compile flags: /Odtp /RTCsu
; File e:\infinia-library-3.0\com\include\com\win32\win32_mtsync.h
;	COMDAT ?init@win_atomic@win32@common@@QAEXXZ
_TEXT	SEGMENT
_this$ = -4						; size = 4
?init@win_atomic@win32@common@@QAEXXZ PROC		; common::win32::win_atomic::init, COMDAT
; _this$ = ecx

; 94   : 	inline void init() { m_count = 0; }

  00000	55		 push	 ebp
  00001	8b ec		 mov	 ebp, esp
  00003	51		 push	 ecx
  00004	c7 45 fc cc cc
	cc cc		 mov	 DWORD PTR [ebp-4], -858993460 ; ccccccccH
  0000b	89 4d fc	 mov	 DWORD PTR _this$[ebp], ecx
  0000e	8b 45 fc	 mov	 eax, DWORD PTR _this$[ebp]
  00011	c7 00 00 00 00
	00		 mov	 DWORD PTR [eax], 0
  00017	8b e5		 mov	 esp, ebp
  00019	5d		 pop	 ebp
  0001a	c3		 ret	 0
?init@win_atomic@win32@common@@QAEXXZ ENDP		; common::win32::win_atomic::init
_TEXT	ENDS
; Function compile flags: /Odtp /RTCsu
; File e:\infinia-library-3.0\com\include\com\win32\win32_mtsync.h
;	COMDAT ?setCount@win_atomic@win32@common@@QAEXH@Z
_TEXT	SEGMENT
_this$ = -4						; size = 4
_nVal$ = 8						; size = 4
?setCount@win_atomic@win32@common@@QAEXH@Z PROC		; common::win32::win_atomic::setCount, COMDAT
; _this$ = ecx

; 93   : 	inline void setCount(int nVal) { m_count = (long)nVal; }

  00000	55		 push	 ebp
  00001	8b ec		 mov	 ebp, esp
  00003	51		 push	 ecx
  00004	c7 45 fc cc cc
	cc cc		 mov	 DWORD PTR [ebp-4], -858993460 ; ccccccccH
  0000b	89 4d fc	 mov	 DWORD PTR _this$[ebp], ecx
  0000e	8b 45 fc	 mov	 eax, DWORD PTR _this$[ebp]
  00011	8b 4d 08	 mov	 ecx, DWORD PTR _nVal$[ebp]
  00014	89 08		 mov	 DWORD PTR [eax], ecx
  00016	8b e5		 mov	 esp, ebp
  00018	5d		 pop	 ebp
  00019	c2 04 00	 ret	 4
?setCount@win_atomic@win32@common@@QAEXH@Z ENDP		; common::win32::win_atomic::setCount
_TEXT	ENDS
; Function compile flags: /Odtp /RTCsu
; File e:\infinia-library-3.0\com\include\com\win32\win32_mtsync.h
;	COMDAT ?getCount@win_atomic@win32@common@@QAEHXZ
_TEXT	SEGMENT
_this$ = -4						; size = 4
?getCount@win_atomic@win32@common@@QAEHXZ PROC		; common::win32::win_atomic::getCount, COMDAT
; _this$ = ecx

; 91   : 	inline int getCount() { return (int)m_count; }

  00000	55		 push	 ebp
  00001	8b ec		 mov	 ebp, esp
  00003	51		 push	 ecx
  00004	c7 45 fc cc cc
	cc cc		 mov	 DWORD PTR [ebp-4], -858993460 ; ccccccccH
  0000b	89 4d fc	 mov	 DWORD PTR _this$[ebp], ecx
  0000e	8b 45 fc	 mov	 eax, DWORD PTR _this$[ebp]
  00011	8b 00		 mov	 eax, DWORD PTR [eax]
  00013	8b e5		 mov	 esp, ebp
  00015	5d		 pop	 ebp
  00016	c3		 ret	 0
?getCount@win_atomic@win32@common@@QAEHXZ ENDP		; common::win32::win_atomic::getCount
_TEXT	ENDS
; Function compile flags: /Odtp /RTCsu
; File e:\infinia-library-3.0\com\include\com\win32\win32_mtsync.h
;	COMDAT ??1win_atomic@win32@common@@QAE@XZ
_TEXT	SEGMENT
_this$ = -4						; size = 4
??1win_atomic@win32@common@@QAE@XZ PROC			; common::win32::win_atomic::~win_atomic, COMDAT
; _this$ = ecx

; 88   : 	~win_atomic() {}

  00000	55		 push	 ebp
  00001	8b ec		 mov	 ebp, esp
  00003	51		 push	 ecx
  00004	c7 45 fc cc cc
	cc cc		 mov	 DWORD PTR [ebp-4], -858993460 ; ccccccccH
  0000b	89 4d fc	 mov	 DWORD PTR _this$[ebp], ecx
  0000e	8b e5		 mov	 esp, ebp
  00010	5d		 pop	 ebp
  00011	c3		 ret	 0
??1win_atomic@win32@common@@QAE@XZ ENDP			; common::win32::win_atomic::~win_atomic
_TEXT	ENDS
; Function compile flags: /Odtp /RTCsu
; File e:\infinia-library-3.0\com\include\com\win32\win32_mtsync.h
;	COMDAT ??0win_atomic@win32@common@@QAE@XZ
_TEXT	SEGMENT
_this$ = -4						; size = 4
??0win_atomic@win32@common@@QAE@XZ PROC			; common::win32::win_atomic::win_atomic, COMDAT
; _this$ = ecx

; 87   : 	win_atomic() {m_count = 0;}

  00000	55		 push	 ebp
  00001	8b ec		 mov	 ebp, esp
  00003	51		 push	 ecx
  00004	c7 45 fc cc cc
	cc cc		 mov	 DWORD PTR [ebp-4], -858993460 ; ccccccccH
  0000b	89 4d fc	 mov	 DWORD PTR _this$[ebp], ecx
  0000e	8b 45 fc	 mov	 eax, DWORD PTR _this$[ebp]
  00011	c7 00 00 00 00
	00		 mov	 DWORD PTR [eax], 0
  00017	8b 45 fc	 mov	 eax, DWORD PTR _this$[ebp]
  0001a	8b e5		 mov	 esp, ebp
  0001c	5d		 pop	 ebp
  0001d	c3		 ret	 0
??0win_atomic@win32@common@@QAE@XZ ENDP			; common::win32::win_atomic::win_atomic
_TEXT	ENDS
; Function compile flags: /Odtp /RTCsu
;	COMDAT ??_Gcondition@win32@common@@UAEPAXI@Z
_TEXT	SEGMENT
_this$ = -4						; size = 4
___flags$ = 8						; size = 4
??_Gcondition@win32@common@@UAEPAXI@Z PROC		; common::win32::condition::`scalar deleting destructor', COMDAT
; _this$ = ecx
  00000	55		 push	 ebp
  00001	8b ec		 mov	 ebp, esp
  00003	51		 push	 ecx
  00004	c7 45 fc cc cc
	cc cc		 mov	 DWORD PTR [ebp-4], -858993460 ; ccccccccH
  0000b	89 4d fc	 mov	 DWORD PTR _this$[ebp], ecx
  0000e	8b 4d fc	 mov	 ecx, DWORD PTR _this$[ebp]
  00011	e8 00 00 00 00	 call	 ??1condition@win32@common@@UAE@XZ ; common::win32::condition::~condition
  00016	8b 45 08	 mov	 eax, DWORD PTR ___flags$[ebp]
  00019	83 e0 01	 and	 eax, 1
  0001c	74 0e		 je	 SHORT $LN2@scalar
  0001e	6a 08		 push	 8
  00020	8b 4d fc	 mov	 ecx, DWORD PTR _this$[ebp]
  00023	51		 push	 ecx
  00024	e8 00 00 00 00	 call	 ??3@YAXPAXI@Z		; operator delete
  00029	83 c4 08	 add	 esp, 8
$LN2@scalar:
  0002c	8b 45 fc	 mov	 eax, DWORD PTR _this$[ebp]
  0002f	83 c4 04	 add	 esp, 4
  00032	3b ec		 cmp	 ebp, esp
  00034	e8 00 00 00 00	 call	 __RTC_CheckEsp
  00039	8b e5		 mov	 esp, ebp
  0003b	5d		 pop	 ebp
  0003c	c2 04 00	 ret	 4
??_Gcondition@win32@common@@UAEPAXI@Z ENDP		; common::win32::condition::`scalar deleting destructor'
_TEXT	ENDS
; Function compile flags: /Odtp /RTCsu
; File e:\infinia-library-3.0\com\include\com\win32\win32_mtsync.h
;	COMDAT ?wait@condition@win32@common@@QAE_NHPAVcritical_section@23@@Z
_TEXT	SEGMENT
tv80 = -20						; size = 4
tv65 = -16						; size = 4
_rv$ = -9						; size = 1
_timeout$ = -8						; size = 4
_this$ = -4						; size = 4
_milliseconds$ = 8					; size = 4
_p$ = 12						; size = 4
?wait@condition@win32@common@@QAE_NHPAVcritical_section@23@@Z PROC ; common::win32::condition::wait, COMDAT
; _this$ = ecx

; 71   : 	  {

  00000	55		 push	 ebp
  00001	8b ec		 mov	 ebp, esp
  00003	83 ec 14	 sub	 esp, 20			; 00000014H
  00006	56		 push	 esi
  00007	b8 cc cc cc cc	 mov	 eax, -858993460		; ccccccccH
  0000c	89 45 ec	 mov	 DWORD PTR [ebp-20], eax
  0000f	89 45 f0	 mov	 DWORD PTR [ebp-16], eax
  00012	89 45 f4	 mov	 DWORD PTR [ebp-12], eax
  00015	89 45 f8	 mov	 DWORD PTR [ebp-8], eax
  00018	89 45 fc	 mov	 DWORD PTR [ebp-4], eax
  0001b	89 4d fc	 mov	 DWORD PTR _this$[ebp], ecx

; 72   : 			DWORD timeout = milliseconds < 0 ? INFINITE : milliseconds;

  0001e	83 7d 08 00	 cmp	 DWORD PTR _milliseconds$[ebp], 0
  00022	7d 09		 jge	 SHORT $LN5@wait
  00024	c7 45 f0 ff ff
	ff ff		 mov	 DWORD PTR tv65[ebp], -1
  0002b	eb 06		 jmp	 SHORT $LN6@wait
$LN5@wait:
  0002d	8b 45 08	 mov	 eax, DWORD PTR _milliseconds$[ebp]
  00030	89 45 f0	 mov	 DWORD PTR tv65[ebp], eax
$LN6@wait:
  00033	8b 4d f0	 mov	 ecx, DWORD PTR tv65[ebp]
  00036	89 4d f8	 mov	 DWORD PTR _timeout$[ebp], ecx

; 73   : 			if(p) p->enter();

  00039	83 7d 0c 00	 cmp	 DWORD PTR _p$[ebp], 0
  0003d	74 18		 je	 SHORT $LN2@wait
  0003f	8b f4		 mov	 esi, esp
  00041	6a 01		 push	 1
  00043	8b 55 0c	 mov	 edx, DWORD PTR _p$[ebp]
  00046	8b 02		 mov	 eax, DWORD PTR [edx]
  00048	8b 4d 0c	 mov	 ecx, DWORD PTR _p$[ebp]
  0004b	8b 50 04	 mov	 edx, DWORD PTR [eax+4]
  0004e	ff d2		 call	 edx
  00050	3b f4		 cmp	 esi, esp
  00052	e8 00 00 00 00	 call	 __RTC_CheckEsp
$LN2@wait:

; 74   : 			bool rv = WaitForSingleObject(m_event, timeout) == WAIT_OBJECT_0;

  00057	8b f4		 mov	 esi, esp
  00059	8b 45 f8	 mov	 eax, DWORD PTR _timeout$[ebp]
  0005c	50		 push	 eax
  0005d	8b 4d fc	 mov	 ecx, DWORD PTR _this$[ebp]
  00060	8b 51 04	 mov	 edx, DWORD PTR [ecx+4]
  00063	52		 push	 edx
  00064	ff 15 00 00 00
	00		 call	 DWORD PTR __imp__WaitForSingleObject@8
  0006a	3b f4		 cmp	 esi, esp
  0006c	e8 00 00 00 00	 call	 __RTC_CheckEsp
  00071	85 c0		 test	 eax, eax
  00073	75 09		 jne	 SHORT $LN7@wait
  00075	c7 45 ec 01 00
	00 00		 mov	 DWORD PTR tv80[ebp], 1
  0007c	eb 07		 jmp	 SHORT $LN8@wait
$LN7@wait:
  0007e	c7 45 ec 00 00
	00 00		 mov	 DWORD PTR tv80[ebp], 0
$LN8@wait:
  00085	8a 45 ec	 mov	 al, BYTE PTR tv80[ebp]
  00088	88 45 f7	 mov	 BYTE PTR _rv$[ebp], al

; 75   : 			ResetEvent(m_event);

  0008b	8b f4		 mov	 esi, esp
  0008d	8b 4d fc	 mov	 ecx, DWORD PTR _this$[ebp]
  00090	8b 51 04	 mov	 edx, DWORD PTR [ecx+4]
  00093	52		 push	 edx
  00094	ff 15 00 00 00
	00		 call	 DWORD PTR __imp__ResetEvent@4
  0009a	3b f4		 cmp	 esi, esp
  0009c	e8 00 00 00 00	 call	 __RTC_CheckEsp

; 76   : 			if(p) p->leave();

  000a1	83 7d 0c 00	 cmp	 DWORD PTR _p$[ebp], 0
  000a5	74 16		 je	 SHORT $LN3@wait
  000a7	8b 45 0c	 mov	 eax, DWORD PTR _p$[ebp]
  000aa	8b 10		 mov	 edx, DWORD PTR [eax]
  000ac	8b f4		 mov	 esi, esp
  000ae	8b 4d 0c	 mov	 ecx, DWORD PTR _p$[ebp]
  000b1	8b 42 08	 mov	 eax, DWORD PTR [edx+8]
  000b4	ff d0		 call	 eax
  000b6	3b f4		 cmp	 esi, esp
  000b8	e8 00 00 00 00	 call	 __RTC_CheckEsp
$LN3@wait:

; 77   : 			return rv;

  000bd	8a 45 f7	 mov	 al, BYTE PTR _rv$[ebp]

; 78   : 	  }

  000c0	5e		 pop	 esi
  000c1	83 c4 14	 add	 esp, 20			; 00000014H
  000c4	3b ec		 cmp	 ebp, esp
  000c6	e8 00 00 00 00	 call	 __RTC_CheckEsp
  000cb	8b e5		 mov	 esp, ebp
  000cd	5d		 pop	 ebp
  000ce	c2 08 00	 ret	 8
?wait@condition@win32@common@@QAE_NHPAVcritical_section@23@@Z ENDP ; common::win32::condition::wait
_TEXT	ENDS
; Function compile flags: /Odtp /RTCsu
; File e:\infinia-library-3.0\com\include\com\win32\win32_mtsync.h
;	COMDAT ?signal_all@condition@win32@common@@UAEXXZ
_TEXT	SEGMENT
_this$ = -4						; size = 4
?signal_all@condition@win32@common@@UAEXXZ PROC		; common::win32::condition::signal_all, COMDAT
; _this$ = ecx

; 67   : 	  void signal_all() { abort(); }

  00000	55		 push	 ebp
  00001	8b ec		 mov	 ebp, esp
  00003	51		 push	 ecx
  00004	56		 push	 esi
  00005	c7 45 fc cc cc
	cc cc		 mov	 DWORD PTR [ebp-4], -858993460 ; ccccccccH
  0000c	89 4d fc	 mov	 DWORD PTR _this$[ebp], ecx
  0000f	8b f4		 mov	 esi, esp
  00011	ff 15 00 00 00
	00		 call	 DWORD PTR __imp__abort
  00017	3b f4		 cmp	 esi, esp
  00019	e8 00 00 00 00	 call	 __RTC_CheckEsp
$LN2@signal_all:
  0001e	5e		 pop	 esi
  0001f	83 c4 04	 add	 esp, 4
  00022	3b ec		 cmp	 ebp, esp
  00024	e8 00 00 00 00	 call	 __RTC_CheckEsp
  00029	8b e5		 mov	 esp, ebp
  0002b	5d		 pop	 ebp
  0002c	c3		 ret	 0
?signal_all@condition@win32@common@@UAEXXZ ENDP		; common::win32::condition::signal_all
_TEXT	ENDS
; Function compile flags: /Odtp /RTCsu
; File e:\infinia-library-3.0\com\include\com\win32\win32_mtsync.h
;	COMDAT ?signal@condition@win32@common@@UAEXXZ
_TEXT	SEGMENT
_this$ = -4						; size = 4
?signal@condition@win32@common@@UAEXXZ PROC		; common::win32::condition::signal, COMDAT
; _this$ = ecx

; 66   : 	  void signal() { SetEvent(m_event); }

  00000	55		 push	 ebp
  00001	8b ec		 mov	 ebp, esp
  00003	51		 push	 ecx
  00004	56		 push	 esi
  00005	c7 45 fc cc cc
	cc cc		 mov	 DWORD PTR [ebp-4], -858993460 ; ccccccccH
  0000c	89 4d fc	 mov	 DWORD PTR _this$[ebp], ecx
  0000f	8b f4		 mov	 esi, esp
  00011	8b 45 fc	 mov	 eax, DWORD PTR _this$[ebp]
  00014	8b 48 04	 mov	 ecx, DWORD PTR [eax+4]
  00017	51		 push	 ecx
  00018	ff 15 00 00 00
	00		 call	 DWORD PTR __imp__SetEvent@4
  0001e	3b f4		 cmp	 esi, esp
  00020	e8 00 00 00 00	 call	 __RTC_CheckEsp
  00025	5e		 pop	 esi
  00026	83 c4 04	 add	 esp, 4
  00029	3b ec		 cmp	 ebp, esp
  0002b	e8 00 00 00 00	 call	 __RTC_CheckEsp
  00030	8b e5		 mov	 esp, ebp
  00032	5d		 pop	 ebp
  00033	c3		 ret	 0
?signal@condition@win32@common@@UAEXXZ ENDP		; common::win32::condition::signal
_TEXT	ENDS
; Function compile flags: /Odtp /RTCsu
; File e:\infinia-library-3.0\com\include\com\win32\win32_mtsync.h
;	COMDAT ??1condition@win32@common@@UAE@XZ
_TEXT	SEGMENT
_this$ = -4						; size = 4
??1condition@win32@common@@UAE@XZ PROC			; common::win32::condition::~condition, COMDAT
; _this$ = ecx

; 64   : 	  ~condition() { CloseHandle(m_event); }

  00000	55		 push	 ebp
  00001	8b ec		 mov	 ebp, esp
  00003	51		 push	 ecx
  00004	56		 push	 esi
  00005	c7 45 fc cc cc
	cc cc		 mov	 DWORD PTR [ebp-4], -858993460 ; ccccccccH
  0000c	89 4d fc	 mov	 DWORD PTR _this$[ebp], ecx
  0000f	8b 45 fc	 mov	 eax, DWORD PTR _this$[ebp]
  00012	c7 00 00 00 00
	00		 mov	 DWORD PTR [eax], OFFSET ??_7condition@win32@common@@6B@
  00018	8b f4		 mov	 esi, esp
  0001a	8b 4d fc	 mov	 ecx, DWORD PTR _this$[ebp]
  0001d	8b 51 04	 mov	 edx, DWORD PTR [ecx+4]
  00020	52		 push	 edx
  00021	ff 15 00 00 00
	00		 call	 DWORD PTR __imp__CloseHandle@4
  00027	3b f4		 cmp	 esi, esp
  00029	e8 00 00 00 00	 call	 __RTC_CheckEsp
  0002e	8b 4d fc	 mov	 ecx, DWORD PTR _this$[ebp]
  00031	e8 00 00 00 00	 call	 ??1abstract_condition@common@@UAE@XZ ; common::abstract_condition::~abstract_condition
  00036	5e		 pop	 esi
  00037	83 c4 04	 add	 esp, 4
  0003a	3b ec		 cmp	 ebp, esp
  0003c	e8 00 00 00 00	 call	 __RTC_CheckEsp
  00041	8b e5		 mov	 esp, ebp
  00043	5d		 pop	 ebp
  00044	c3		 ret	 0
??1condition@win32@common@@UAE@XZ ENDP			; common::win32::condition::~condition
_TEXT	ENDS
; Function compile flags: /Odtp /RTCsu
; File e:\infinia-library-3.0\com\include\com\win32\win32_mtsync.h
;	COMDAT ??0condition@win32@common@@QAE@XZ
_TEXT	SEGMENT
_this$ = -4						; size = 4
??0condition@win32@common@@QAE@XZ PROC			; common::win32::condition::condition, COMDAT
; _this$ = ecx

; 63   : 	  condition() { m_event = CreateEvent(NULL, TRUE, FALSE, NULL);}

  00000	55		 push	 ebp
  00001	8b ec		 mov	 ebp, esp
  00003	51		 push	 ecx
  00004	56		 push	 esi
  00005	c7 45 fc cc cc
	cc cc		 mov	 DWORD PTR [ebp-4], -858993460 ; ccccccccH
  0000c	89 4d fc	 mov	 DWORD PTR _this$[ebp], ecx
  0000f	8b 4d fc	 mov	 ecx, DWORD PTR _this$[ebp]
  00012	e8 00 00 00 00	 call	 ??0abstract_condition@common@@QAE@XZ
  00017	8b 45 fc	 mov	 eax, DWORD PTR _this$[ebp]
  0001a	c7 00 00 00 00
	00		 mov	 DWORD PTR [eax], OFFSET ??_7condition@win32@common@@6B@
  00020	8b f4		 mov	 esi, esp
  00022	6a 00		 push	 0
  00024	6a 00		 push	 0
  00026	6a 01		 push	 1
  00028	6a 00		 push	 0
  0002a	ff 15 00 00 00
	00		 call	 DWORD PTR __imp__CreateEventA@16
  00030	3b f4		 cmp	 esi, esp
  00032	e8 00 00 00 00	 call	 __RTC_CheckEsp
  00037	8b 4d fc	 mov	 ecx, DWORD PTR _this$[ebp]
  0003a	89 41 04	 mov	 DWORD PTR [ecx+4], eax
  0003d	8b 45 fc	 mov	 eax, DWORD PTR _this$[ebp]
  00040	5e		 pop	 esi
  00041	83 c4 04	 add	 esp, 4
  00044	3b ec		 cmp	 ebp, esp
  00046	e8 00 00 00 00	 call	 __RTC_CheckEsp
  0004b	8b e5		 mov	 esp, ebp
  0004d	5d		 pop	 ebp
  0004e	c3		 ret	 0
??0condition@win32@common@@QAE@XZ ENDP			; common::win32::condition::condition
_TEXT	ENDS
; Function compile flags: /Odtp /RTCsu
;	COMDAT ??_Gabstract_condition@common@@UAEPAXI@Z
_TEXT	SEGMENT
_this$ = -4						; size = 4
___flags$ = 8						; size = 4
??_Gabstract_condition@common@@UAEPAXI@Z PROC		; common::abstract_condition::`scalar deleting destructor', COMDAT
; _this$ = ecx
  00000	55		 push	 ebp
  00001	8b ec		 mov	 ebp, esp
  00003	51		 push	 ecx
  00004	c7 45 fc cc cc
	cc cc		 mov	 DWORD PTR [ebp-4], -858993460 ; ccccccccH
  0000b	89 4d fc	 mov	 DWORD PTR _this$[ebp], ecx
  0000e	8b 4d fc	 mov	 ecx, DWORD PTR _this$[ebp]
  00011	e8 00 00 00 00	 call	 ??1abstract_condition@common@@UAE@XZ ; common::abstract_condition::~abstract_condition
  00016	8b 45 08	 mov	 eax, DWORD PTR ___flags$[ebp]
  00019	83 e0 01	 and	 eax, 1
  0001c	74 0e		 je	 SHORT $LN2@scalar
  0001e	6a 04		 push	 4
  00020	8b 4d fc	 mov	 ecx, DWORD PTR _this$[ebp]
  00023	51		 push	 ecx
  00024	e8 00 00 00 00	 call	 ??3@YAXPAXI@Z		; operator delete
  00029	83 c4 08	 add	 esp, 8
$LN2@scalar:
  0002c	8b 45 fc	 mov	 eax, DWORD PTR _this$[ebp]
  0002f	83 c4 04	 add	 esp, 4
  00032	3b ec		 cmp	 ebp, esp
  00034	e8 00 00 00 00	 call	 __RTC_CheckEsp
  00039	8b e5		 mov	 esp, ebp
  0003b	5d		 pop	 ebp
  0003c	c2 04 00	 ret	 4
??_Gabstract_condition@common@@UAEPAXI@Z ENDP		; common::abstract_condition::`scalar deleting destructor'
_TEXT	ENDS
; Function compile flags: /Odtp /RTCsu
;	COMDAT ??0abstract_condition@common@@QAE@XZ
_TEXT	SEGMENT
_this$ = -4						; size = 4
??0abstract_condition@common@@QAE@XZ PROC		; common::abstract_condition::abstract_condition, COMDAT
; _this$ = ecx
  00000	55		 push	 ebp
  00001	8b ec		 mov	 ebp, esp
  00003	51		 push	 ecx
  00004	c7 45 fc cc cc
	cc cc		 mov	 DWORD PTR [ebp-4], -858993460 ; ccccccccH
  0000b	89 4d fc	 mov	 DWORD PTR _this$[ebp], ecx
  0000e	8b 45 fc	 mov	 eax, DWORD PTR _this$[ebp]
  00011	c7 00 00 00 00
	00		 mov	 DWORD PTR [eax], OFFSET ??_7abstract_condition@common@@6B@
  00017	8b 45 fc	 mov	 eax, DWORD PTR _this$[ebp]
  0001a	8b e5		 mov	 esp, ebp
  0001c	5d		 pop	 ebp
  0001d	c3		 ret	 0
??0abstract_condition@common@@QAE@XZ ENDP		; common::abstract_condition::abstract_condition
_TEXT	ENDS
; Function compile flags: /Odtp /RTCsu
; File e:\infinia-library-3.0\com\include\com\abstract_mtsync.h
;	COMDAT ??1abstract_condition@common@@UAE@XZ
_TEXT	SEGMENT
_this$ = -4						; size = 4
??1abstract_condition@common@@UAE@XZ PROC		; common::abstract_condition::~abstract_condition, COMDAT
; _this$ = ecx

; 72   : 	virtual ~abstract_condition() {}

  00000	55		 push	 ebp
  00001	8b ec		 mov	 ebp, esp
  00003	51		 push	 ecx
  00004	c7 45 fc cc cc
	cc cc		 mov	 DWORD PTR [ebp-4], -858993460 ; ccccccccH
  0000b	89 4d fc	 mov	 DWORD PTR _this$[ebp], ecx
  0000e	8b 45 fc	 mov	 eax, DWORD PTR _this$[ebp]
  00011	c7 00 00 00 00
	00		 mov	 DWORD PTR [eax], OFFSET ??_7abstract_condition@common@@6B@
  00017	8b e5		 mov	 esp, ebp
  00019	5d		 pop	 ebp
  0001a	c3		 ret	 0
??1abstract_condition@common@@UAE@XZ ENDP		; common::abstract_condition::~abstract_condition
_TEXT	ENDS
; Function compile flags: /Odtp /RTCsu
; File c:\program files (x86)\windows kits\10\include\10.0.10240.0\ucrt\stdio.h
;	COMDAT _sprintf
_TEXT	SEGMENT
__ArgList$ = -8						; size = 4
__Result$ = -4						; size = 4
__Buffer$ = 8						; size = 4
__Format$ = 12						; size = 4
_sprintf PROC						; COMDAT

; 1776 : {

  00000	55		 push	 ebp
  00001	8b ec		 mov	 ebp, esp
  00003	83 ec 08	 sub	 esp, 8
  00006	c7 45 f8 cc cc
	cc cc		 mov	 DWORD PTR [ebp-8], -858993460 ; ccccccccH
  0000d	c7 45 fc cc cc
	cc cc		 mov	 DWORD PTR [ebp-4], -858993460 ; ccccccccH

; 1777 :     int _Result;
; 1778 :     va_list _ArgList;
; 1779 :     __crt_va_start(_ArgList, _Format);

  00014	e8 00 00 00 00	 call	 ??$__vcrt_va_start_verify_argument_type@QBD@@YAXXZ ; __vcrt_va_start_verify_argument_type<char const * const>
  00019	8d 45 10	 lea	 eax, DWORD PTR __Format$[ebp+4]
  0001c	89 45 f8	 mov	 DWORD PTR __ArgList$[ebp], eax

; 1780 : 
; 1781 :     #pragma warning(push)
; 1782 :     #pragma warning(disable: 4996) // Deprecation
; 1783 :     _Result = _vsprintf_l(_Buffer, _Format, NULL, _ArgList);

  0001f	8b 4d f8	 mov	 ecx, DWORD PTR __ArgList$[ebp]
  00022	51		 push	 ecx
  00023	6a 00		 push	 0
  00025	8b 55 0c	 mov	 edx, DWORD PTR __Format$[ebp]
  00028	52		 push	 edx
  00029	8b 45 08	 mov	 eax, DWORD PTR __Buffer$[ebp]
  0002c	50		 push	 eax
  0002d	e8 00 00 00 00	 call	 __vsprintf_l
  00032	83 c4 10	 add	 esp, 16			; 00000010H
  00035	89 45 fc	 mov	 DWORD PTR __Result$[ebp], eax

; 1784 :     #pragma warning(pop)
; 1785 : 
; 1786 :     __crt_va_end(_ArgList);

  00038	c7 45 f8 00 00
	00 00		 mov	 DWORD PTR __ArgList$[ebp], 0

; 1787 :     return _Result;

  0003f	8b 45 fc	 mov	 eax, DWORD PTR __Result$[ebp]

; 1788 : }

  00042	83 c4 08	 add	 esp, 8
  00045	3b ec		 cmp	 ebp, esp
  00047	e8 00 00 00 00	 call	 __RTC_CheckEsp
  0004c	8b e5		 mov	 esp, ebp
  0004e	5d		 pop	 ebp
  0004f	c3		 ret	 0
_sprintf ENDP
_TEXT	ENDS
; Function compile flags: /Odtp /RTCsu
; File c:\program files (x86)\windows kits\10\include\10.0.10240.0\ucrt\stdio.h
;	COMDAT __vsprintf_l
_TEXT	SEGMENT
__Buffer$ = 8						; size = 4
__Format$ = 12						; size = 4
__Locale$ = 16						; size = 4
__ArgList$ = 20						; size = 4
__vsprintf_l PROC					; COMDAT

; 1455 : {

  00000	55		 push	 ebp
  00001	8b ec		 mov	 ebp, esp

; 1456 :     #pragma warning(push)
; 1457 :     #pragma warning(disable: 4996) // Deprecation
; 1458 :     return _vsnprintf_l(_Buffer, (size_t)-1, _Format, _Locale, _ArgList);

  00003	8b 45 14	 mov	 eax, DWORD PTR __ArgList$[ebp]
  00006	50		 push	 eax
  00007	8b 4d 10	 mov	 ecx, DWORD PTR __Locale$[ebp]
  0000a	51		 push	 ecx
  0000b	8b 55 0c	 mov	 edx, DWORD PTR __Format$[ebp]
  0000e	52		 push	 edx
  0000f	6a ff		 push	 -1
  00011	8b 45 08	 mov	 eax, DWORD PTR __Buffer$[ebp]
  00014	50		 push	 eax
  00015	e8 00 00 00 00	 call	 __vsnprintf_l
  0001a	83 c4 14	 add	 esp, 20			; 00000014H

; 1459 :     #pragma warning(pop)
; 1460 : }

  0001d	3b ec		 cmp	 ebp, esp
  0001f	e8 00 00 00 00	 call	 __RTC_CheckEsp
  00024	5d		 pop	 ebp
  00025	c3		 ret	 0
__vsprintf_l ENDP
_TEXT	ENDS
; Function compile flags: /Odtp /RTCsu
; File c:\program files (x86)\windows kits\10\include\10.0.10240.0\ucrt\stdio.h
;	COMDAT __vsnprintf_l
_TEXT	SEGMENT
tv74 = -8						; size = 4
__Result$ = -4						; size = 4
__Buffer$ = 8						; size = 4
__BufferCount$ = 12					; size = 4
__Format$ = 16						; size = 4
__Locale$ = 20						; size = 4
__ArgList$ = 24						; size = 4
__vsnprintf_l PROC					; COMDAT

; 1385 : {

  00000	55		 push	 ebp
  00001	8b ec		 mov	 ebp, esp
  00003	83 ec 08	 sub	 esp, 8
  00006	56		 push	 esi
  00007	c7 45 f8 cc cc
	cc cc		 mov	 DWORD PTR [ebp-8], -858993460 ; ccccccccH
  0000e	c7 45 fc cc cc
	cc cc		 mov	 DWORD PTR [ebp-4], -858993460 ; ccccccccH

; 1386 :     int const _Result = __stdio_common_vsprintf(

  00015	8b f4		 mov	 esi, esp
  00017	8b 45 18	 mov	 eax, DWORD PTR __ArgList$[ebp]
  0001a	50		 push	 eax
  0001b	8b 4d 14	 mov	 ecx, DWORD PTR __Locale$[ebp]
  0001e	51		 push	 ecx
  0001f	8b 55 10	 mov	 edx, DWORD PTR __Format$[ebp]
  00022	52		 push	 edx
  00023	8b 45 0c	 mov	 eax, DWORD PTR __BufferCount$[ebp]
  00026	50		 push	 eax
  00027	8b 4d 08	 mov	 ecx, DWORD PTR __Buffer$[ebp]
  0002a	51		 push	 ecx
  0002b	e8 00 00 00 00	 call	 ___local_stdio_printf_options
  00030	8b 10		 mov	 edx, DWORD PTR [eax]
  00032	83 ca 01	 or	 edx, 1
  00035	8b 40 04	 mov	 eax, DWORD PTR [eax+4]
  00038	50		 push	 eax
  00039	52		 push	 edx
  0003a	ff 15 00 00 00
	00		 call	 DWORD PTR __imp____stdio_common_vsprintf
  00040	83 c4 1c	 add	 esp, 28			; 0000001cH
  00043	3b f4		 cmp	 esi, esp
  00045	e8 00 00 00 00	 call	 __RTC_CheckEsp
  0004a	89 45 fc	 mov	 DWORD PTR __Result$[ebp], eax

; 1387 :         _CRT_INTERNAL_LOCAL_PRINTF_OPTIONS | _CRT_INTERNAL_PRINTF_LEGACY_VSPRINTF_NULL_TERMINATION,
; 1388 :         _Buffer, _BufferCount, _Format, _Locale, _ArgList);
; 1389 : 
; 1390 :     return _Result < 0 ? -1 : _Result;

  0004d	83 7d fc 00	 cmp	 DWORD PTR __Result$[ebp], 0
  00051	7d 09		 jge	 SHORT $LN3@vsnprintf_
  00053	c7 45 f8 ff ff
	ff ff		 mov	 DWORD PTR tv74[ebp], -1
  0005a	eb 06		 jmp	 SHORT $LN4@vsnprintf_
$LN3@vsnprintf_:
  0005c	8b 4d fc	 mov	 ecx, DWORD PTR __Result$[ebp]
  0005f	89 4d f8	 mov	 DWORD PTR tv74[ebp], ecx
$LN4@vsnprintf_:
  00062	8b 45 f8	 mov	 eax, DWORD PTR tv74[ebp]

; 1391 : }

  00065	5e		 pop	 esi
  00066	83 c4 08	 add	 esp, 8
  00069	3b ec		 cmp	 ebp, esp
  0006b	e8 00 00 00 00	 call	 __RTC_CheckEsp
  00070	8b e5		 mov	 esp, ebp
  00072	5d		 pop	 ebp
  00073	c3		 ret	 0
__vsnprintf_l ENDP
_TEXT	ENDS
; Function compile flags: /Odtp /RTCsu
; File c:\program files (x86)\windows kits\10\include\10.0.10240.0\ucrt\stdio.h
;	COMDAT _printf
_TEXT	SEGMENT
__ArgList$ = -8						; size = 4
__Result$ = -4						; size = 4
__Format$ = 8						; size = 4
_printf	PROC						; COMDAT

; 950  : {

  00000	55		 push	 ebp
  00001	8b ec		 mov	 ebp, esp
  00003	83 ec 08	 sub	 esp, 8
  00006	56		 push	 esi
  00007	c7 45 f8 cc cc
	cc cc		 mov	 DWORD PTR [ebp-8], -858993460 ; ccccccccH
  0000e	c7 45 fc cc cc
	cc cc		 mov	 DWORD PTR [ebp-4], -858993460 ; ccccccccH

; 951  :     int _Result;
; 952  :     va_list _ArgList;
; 953  :     __crt_va_start(_ArgList, _Format);

  00015	e8 00 00 00 00	 call	 ??$__vcrt_va_start_verify_argument_type@QBD@@YAXXZ ; __vcrt_va_start_verify_argument_type<char const * const>
  0001a	8d 45 0c	 lea	 eax, DWORD PTR __Format$[ebp+4]
  0001d	89 45 f8	 mov	 DWORD PTR __ArgList$[ebp], eax

; 954  :     _Result = _vfprintf_l(stdout, _Format, NULL, _ArgList);

  00020	8b 4d f8	 mov	 ecx, DWORD PTR __ArgList$[ebp]
  00023	51		 push	 ecx
  00024	6a 00		 push	 0
  00026	8b 55 08	 mov	 edx, DWORD PTR __Format$[ebp]
  00029	52		 push	 edx
  0002a	8b f4		 mov	 esi, esp
  0002c	6a 01		 push	 1
  0002e	ff 15 00 00 00
	00		 call	 DWORD PTR __imp____acrt_iob_func
  00034	83 c4 04	 add	 esp, 4
  00037	3b f4		 cmp	 esi, esp
  00039	e8 00 00 00 00	 call	 __RTC_CheckEsp
  0003e	50		 push	 eax
  0003f	e8 00 00 00 00	 call	 __vfprintf_l
  00044	83 c4 10	 add	 esp, 16			; 00000010H
  00047	89 45 fc	 mov	 DWORD PTR __Result$[ebp], eax

; 955  :     __crt_va_end(_ArgList);

  0004a	c7 45 f8 00 00
	00 00		 mov	 DWORD PTR __ArgList$[ebp], 0

; 956  :     return _Result;

  00051	8b 45 fc	 mov	 eax, DWORD PTR __Result$[ebp]

; 957  : }

  00054	5e		 pop	 esi
  00055	83 c4 08	 add	 esp, 8
  00058	3b ec		 cmp	 ebp, esp
  0005a	e8 00 00 00 00	 call	 __RTC_CheckEsp
  0005f	8b e5		 mov	 esp, ebp
  00061	5d		 pop	 ebp
  00062	c3		 ret	 0
_printf	ENDP
_TEXT	ENDS
; Function compile flags: /Odtp /RTCsu
; File c:\program files (x86)\microsoft visual studio 14.0\vc\include\vadefs.h
;	COMDAT ??$__vcrt_va_start_verify_argument_type@QBD@@YAXXZ
_TEXT	SEGMENT
??$__vcrt_va_start_verify_argument_type@QBD@@YAXXZ PROC	; __vcrt_va_start_verify_argument_type<char const * const>, COMDAT

; 144  :         {

  00000	55		 push	 ebp
  00001	8b ec		 mov	 ebp, esp

; 145  :             static_assert(!__vcrt_va_list_is_reference<_Ty>::__the_value, "va_start argument must not have reference type and must not be parenthesized");
; 146  :         }

  00003	5d		 pop	 ebp
  00004	c3		 ret	 0
??$__vcrt_va_start_verify_argument_type@QBD@@YAXXZ ENDP	; __vcrt_va_start_verify_argument_type<char const * const>
_TEXT	ENDS
; Function compile flags: /Odtp /RTCsu
; File c:\program files (x86)\windows kits\10\include\10.0.10240.0\ucrt\stdio.h
;	COMDAT __vfprintf_l
_TEXT	SEGMENT
__Stream$ = 8						; size = 4
__Format$ = 12						; size = 4
__Locale$ = 16						; size = 4
__ArgList$ = 20						; size = 4
__vfprintf_l PROC					; COMDAT

; 638  : {

  00000	55		 push	 ebp
  00001	8b ec		 mov	 ebp, esp
  00003	56		 push	 esi

; 639  :     return __stdio_common_vfprintf(_CRT_INTERNAL_LOCAL_PRINTF_OPTIONS, _Stream, _Format, _Locale, _ArgList);

  00004	8b f4		 mov	 esi, esp
  00006	8b 45 14	 mov	 eax, DWORD PTR __ArgList$[ebp]
  00009	50		 push	 eax
  0000a	8b 4d 10	 mov	 ecx, DWORD PTR __Locale$[ebp]
  0000d	51		 push	 ecx
  0000e	8b 55 0c	 mov	 edx, DWORD PTR __Format$[ebp]
  00011	52		 push	 edx
  00012	8b 45 08	 mov	 eax, DWORD PTR __Stream$[ebp]
  00015	50		 push	 eax
  00016	e8 00 00 00 00	 call	 ___local_stdio_printf_options
  0001b	8b 48 04	 mov	 ecx, DWORD PTR [eax+4]
  0001e	51		 push	 ecx
  0001f	8b 10		 mov	 edx, DWORD PTR [eax]
  00021	52		 push	 edx
  00022	ff 15 00 00 00
	00		 call	 DWORD PTR __imp____stdio_common_vfprintf
  00028	83 c4 18	 add	 esp, 24			; 00000018H
  0002b	3b f4		 cmp	 esi, esp
  0002d	e8 00 00 00 00	 call	 __RTC_CheckEsp

; 640  : }

  00032	5e		 pop	 esi
  00033	3b ec		 cmp	 ebp, esp
  00035	e8 00 00 00 00	 call	 __RTC_CheckEsp
  0003a	5d		 pop	 ebp
  0003b	c3		 ret	 0
__vfprintf_l ENDP
_TEXT	ENDS
; Function compile flags: /Odtp /RTCsu
; File c:\program files (x86)\windows kits\10\include\10.0.10240.0\ucrt\corecrt_stdio_config.h
;	COMDAT ___local_stdio_printf_options
_TEXT	SEGMENT
___local_stdio_printf_options PROC			; COMDAT

; 73   : {

  00000	55		 push	 ebp
  00001	8b ec		 mov	 ebp, esp

; 74   :     static unsigned __int64 _OptionsStorage;
; 75   :     return &_OptionsStorage;

  00003	b8 00 00 00 00	 mov	 eax, OFFSET ?_OptionsStorage@?1??__local_stdio_printf_options@@9@4_KA ; `__local_stdio_printf_options'::`2'::_OptionsStorage

; 76   : }

  00008	5d		 pop	 ebp
  00009	c3		 ret	 0
___local_stdio_printf_options ENDP
_TEXT	ENDS
END
