; Listing generated by Microsoft (R) Optimizing Compiler Version 19.00.24215.1 

	TITLE	E:\InfiniA-Library-3.0\com\src\comDualKeyHash.cpp
	.686P
	.XMM
	include listing.inc
	.model	flat

INCLUDELIB MSVCRTD
INCLUDELIB OLDNAMES

CONST	SEGMENT
$SG45114 DB	'DUPLICATE_KEYS pKey1[%s] pHash->hashLookup(pKey2[%s])', 00H
	ORG $+2
$SG45115 DB	'CDKeyHashMap::addKey', 00H
	ORG $+3
$SG45121 DB	'errorNo[%d] new CHash(max:%d) key1:%s', 00H
	ORG $+2
$SG45122 DB	'CDKeyHashMap::addKey', 00H
	ORG $+3
$SG45123 DB	'new CHash(max:%d) key1:%s hashNo[%d]', 00H
	ORG $+3
$SG45129 DB	'errorNo[%d] pHash->addNode(pNext, %s)', 00H
	ORG $+2
$SG45388 DB	'CBMemPool::pPool alloc ERROR', 00H
	ORG $+3
$SG45390 DB	'CBMemPool::pFlag alloc ERROR', 00H
	ORG $+3
$SG45391 DB	'CBMemPool __alloc m_nAllocCount[%d]', 00H
$SG45458 DB	'CBMemPool::pPool alloc ERROR', 00H
	ORG $+3
$SG45460 DB	'CBMemPool::pFlag alloc ERROR', 00H
	ORG $+3
$SG45461 DB	'CBMemPool __alloc m_nAllocCount[%d]', 00H
CONST	ENDS
PUBLIC	?setHashValue@CHash@@QAEXPAX@Z			; CHash::setHashValue
PUBLIC	?__autoclassinit2@CHash@@QAEXI@Z		; CHash::__autoclassinit2
PUBLIC	??_GCHash@@QAEPAXI@Z				; CHash::`scalar deleting destructor'
PUBLIC	___local_stdio_printf_options
PUBLIC	??$__vcrt_va_start_verify_argument_type@QBD@@YAXXZ ; __vcrt_va_start_verify_argument_type<char const * const>
PUBLIC	__vsnprintf_l
PUBLIC	__vsprintf_l
PUBLIC	_sprintf
PUBLIC	?c_memcpy@@YAPAXPAXPBXH@Z			; c_memcpy
PUBLIC	?ISINCLUDE@@YA_NHH@Z				; ISINCLUDE
PUBLIC	?getIndex@@YAHH@Z				; getIndex
PUBLIC	?init@CMemManager@@QAEXW4E_IDX_BUF@@H@Z		; CMemManager::init
PUBLIC	?newBuf@CMemManager@@QAEPADH@Z			; CMemManager::newBuf
PUBLIC	?newBuf@CMemManager@@QAEPADHPAH@Z		; CMemManager::newBuf
PUBLIC	?delBuf@CMemManager@@QAEXPADH@Z			; CMemManager::delBuf
PUBLIC	??0CDKeyHashMap@@QAE@HH_N@Z			; CDKeyHashMap::CDKeyHashMap
PUBLIC	??1CDKeyHashMap@@QAE@XZ				; CDKeyHashMap::~CDKeyHashMap
PUBLIC	?addKey@CDKeyHashMap@@QAEHPAD0PAPAVCHash@@PAX@Z	; CDKeyHashMap::addKey
PUBLIC	?addKeyValue@CDKeyHashMap@@QAEHPAD0PAX1@Z	; CDKeyHashMap::addKeyValue
PUBLIC	?setValue@CDKeyHashMap@@QAEHPAD0PAX@Z		; CDKeyHashMap::setValue
PUBLIC	?deleteHash@CDKeyHashMap@@QAE_NPAD@Z		; CDKeyHashMap::deleteHash
PUBLIC	?deleteNode@CDKeyHashMap@@QAE_NPAD0@Z		; CDKeyHashMap::deleteNode
PUBLIC	?newValueBuf@CDKeyHashMap@@QAEPAUSTValue@@HPAD@Z ; CDKeyHashMap::newValueBuf
PUBLIC	?delValueBuf@CDKeyHashMap@@QAEXPAUSTValue@@@Z	; CDKeyHashMap::delValueBuf
PUBLIC	?isNode@CDKeyHashMap@@QAE_NPAD0@Z		; CDKeyHashMap::isNode
PUBLIC	?getHashMap@CDKeyHashMap@@QAEPAVCHash@@PAD@Z	; CDKeyHashMap::getHashMap
PUBLIC	?getNode@CDKeyHashMap@@QAEPAUSTHash_Node@@PAD0@Z ; CDKeyHashMap::getNode
PUBLIC	??0?$CBMemPool@USTValue@@@@QAE@W4E_ALLOC_TYPE@@@Z ; CBMemPool<STValue>::CBMemPool<STValue>
PUBLIC	??1?$CBMemPool@USTValue@@@@QAE@XZ		; CBMemPool<STValue>::~CBMemPool<STValue>
PUBLIC	?alloc@?$CBMemPool@USTValue@@@@QAEHH@Z		; CBMemPool<STValue>::alloc
PUBLIC	?newMem@?$CBMemPool@USTValue@@@@QAEPAUSTValue@@XZ ; CBMemPool<STValue>::newMem
PUBLIC	?delMem@?$CBMemPool@USTValue@@@@QAE_NPAUSTValue@@@Z ; CBMemPool<STValue>::delMem
PUBLIC	?__unit_alloc@?$CBMemPool@USTValue@@@@AAEPAUSTValue@@XZ ; CBMemPool<STValue>::__unit_alloc
PUBLIC	?__alloc@?$CBMemPool@USTValue@@@@AAEHH@Z	; CBMemPool<STValue>::__alloc
PUBLIC	?__autoclassinit2@?$CBMemPool@USTValue@@@@QAEXI@Z ; CBMemPool<STValue>::__autoclassinit2
PUBLIC	??_G?$CBMemPool@USTValue@@@@QAEPAXI@Z		; CBMemPool<STValue>::`scalar deleting destructor'
PUBLIC	??0?$CBMemPool@USThash_next@@@@QAE@W4E_ALLOC_TYPE@@@Z ; CBMemPool<SThash_next>::CBMemPool<SThash_next>
PUBLIC	??1?$CBMemPool@USThash_next@@@@QAE@XZ		; CBMemPool<SThash_next>::~CBMemPool<SThash_next>
PUBLIC	?alloc@?$CBMemPool@USThash_next@@@@QAEHH@Z	; CBMemPool<SThash_next>::alloc
PUBLIC	?newMem@?$CBMemPool@USThash_next@@@@QAEPAUSThash_next@@XZ ; CBMemPool<SThash_next>::newMem
PUBLIC	?delMem@?$CBMemPool@USThash_next@@@@QAE_NPAUSThash_next@@@Z ; CBMemPool<SThash_next>::delMem
PUBLIC	?__unit_alloc@?$CBMemPool@USThash_next@@@@AAEPAUSThash_next@@XZ ; CBMemPool<SThash_next>::__unit_alloc
PUBLIC	?__alloc@?$CBMemPool@USThash_next@@@@AAEHH@Z	; CBMemPool<SThash_next>::__alloc
PUBLIC	?__autoclassinit2@?$CBMemPool@USThash_next@@@@QAEXI@Z ; CBMemPool<SThash_next>::__autoclassinit2
PUBLIC	??_G?$CBMemPool@USThash_next@@@@QAEPAXI@Z	; CBMemPool<SThash_next>::`scalar deleting destructor'
PUBLIC	?_OptionsStorage@?1??__local_stdio_printf_options@@9@4_KA ; `__local_stdio_printf_options'::`2'::_OptionsStorage
EXTRN	??2@YAPAXI@Z:PROC				; operator new
EXTRN	??3@YAXPAXI@Z:PROC				; operator delete
EXTRN	??_V@YAXPAX@Z:PROC				; operator delete[]
EXTRN	_memset:PROC
EXTRN	_strcpy:PROC
EXTRN	_strlen:PROC
EXTRN	??0CHash@@QAE@I@Z:PROC				; CHash::CHash
EXTRN	??1CHash@@QAE@XZ:PROC				; CHash::~CHash
EXTRN	?hashLookup@CHash@@QAEPAUSTHash_Node@@PAD@Z:PROC ; CHash::hashLookup
EXTRN	?getNext@CHash@@QAEPAUSThash_next@@I@Z:PROC	; CHash::getNext
EXTRN	?getNext@CHash@@QAEPAUSThash_next@@PAD@Z:PROC	; CHash::getNext
EXTRN	?getNode@CHash@@QAEPAUSThash_next@@PADPAPAU2@@Z:PROC ; CHash::getNode
EXTRN	?setValue@CHash@@QAE?AW4HASH_RETURN_CODE@@IPADPAX@Z:PROC ; CHash::setValue
EXTRN	?addNode@CHash@@QAEHPAUSThash_next@@PADPAX@Z:PROC ; CHash::addNode
EXTRN	__imp____stdio_common_vsprintf:PROC
EXTRN	__imp__calloc:PROC
EXTRN	__imp__free:PROC
EXTRN	??2@YAPAXIABUnothrow_t@std@@@Z:PROC		; operator new
EXTRN	??_U@YAPAXIABUnothrow_t@std@@@Z:PROC		; operator new[]
EXTRN	??3@YAXPAXABUnothrow_t@std@@@Z:PROC		; operator delete
EXTRN	?delBufByIndex@CMemManager@@QAEXPADH@Z:PROC	; CMemManager::delBufByIndex
EXTRN	?__newBuf@CMemManager@@AAEPADHI@Z:PROC		; CMemManager::__newBuf
EXTRN	?PutLogQueue@CLogger@@QAAXHPBDZZ:PROC		; CLogger::PutLogQueue
EXTRN	?__debugLog@CLogger@@QAAXHPBDH0ZZ:PROC		; CLogger::__debugLog
EXTRN	@_RTC_CheckStackVars@8:PROC
EXTRN	@__security_check_cookie@4:PROC
EXTRN	__RTC_CheckEsp:PROC
EXTRN	__RTC_InitBase:PROC
EXTRN	__RTC_Shutdown:PROC
EXTRN	___CxxFrameHandler3:PROC
EXTRN	_memset:PROC
EXTRN	?nothrow@std@@3Unothrow_t@1@B:BYTE		; std::nothrow
EXTRN	?g_szMessage@@3PADA:BYTE			; g_szMessage
EXTRN	?gs_pMMgr@@3PAVCMemManager@@A:DWORD		; gs_pMMgr
EXTRN	?gs_cLogger@@3VCLogger@@A:BYTE			; gs_cLogger
EXTRN	___security_cookie:DWORD
EXTRN	__fltused:DWORD
;	COMDAT ?_OptionsStorage@?1??__local_stdio_printf_options@@9@4_KA
_BSS	SEGMENT
?_OptionsStorage@?1??__local_stdio_printf_options@@9@4_KA DQ 01H DUP (?) ; `__local_stdio_printf_options'::`2'::_OptionsStorage
_BSS	ENDS
;	COMDAT rtc$TMZ
rtc$TMZ	SEGMENT
__RTC_Shutdown.rtc$TMZ DD FLAT:__RTC_Shutdown
rtc$TMZ	ENDS
;	COMDAT rtc$IMZ
rtc$IMZ	SEGMENT
__RTC_InitBase.rtc$IMZ DD FLAT:__RTC_InitBase
rtc$IMZ	ENDS
xdata$x	SEGMENT
__unwindtable$?addKey@CDKeyHashMap@@QAEHPAD0PAPAVCHash@@PAX@Z DD 0ffffffffH
	DD	FLAT:__unwindfunclet$?addKey@CDKeyHashMap@@QAEHPAD0PAPAVCHash@@PAX@Z$0
__unwindtable$??0CDKeyHashMap@@QAE@HH_N@Z DD 0ffffffffH
	DD	FLAT:__unwindfunclet$??0CDKeyHashMap@@QAE@HH_N@Z$0
	DD	0ffffffffH
	DD	FLAT:__unwindfunclet$??0CDKeyHashMap@@QAE@HH_N@Z$1
	DD	0ffffffffH
	DD	FLAT:__unwindfunclet$??0CDKeyHashMap@@QAE@HH_N@Z$2
__ehfuncinfo$?addKey@CDKeyHashMap@@QAEHPAD0PAPAVCHash@@PAX@Z DD 019930522H
	DD	01H
	DD	FLAT:__unwindtable$?addKey@CDKeyHashMap@@QAEHPAD0PAPAVCHash@@PAX@Z
	DD	2 DUP(00H)
	DD	2 DUP(00H)
	DD	00H
	DD	01H
__ehfuncinfo$??1CDKeyHashMap@@QAE@XZ DD 019930522H
	DD	00H
	DD	00H
	DD	2 DUP(00H)
	DD	2 DUP(00H)
	DD	00H
	DD	05H
__ehfuncinfo$??0CDKeyHashMap@@QAE@HH_N@Z DD 019930522H
	DD	03H
	DD	FLAT:__unwindtable$??0CDKeyHashMap@@QAE@HH_N@Z
	DD	2 DUP(00H)
	DD	2 DUP(00H)
	DD	00H
	DD	01H
xdata$x	ENDS
; Function compile flags: /Odtp /RTCsu
;	COMDAT ??_G?$CBMemPool@USThash_next@@@@QAEPAXI@Z
_TEXT	SEGMENT
_this$ = -4						; size = 4
___flags$ = 8						; size = 4
??_G?$CBMemPool@USThash_next@@@@QAEPAXI@Z PROC		; CBMemPool<SThash_next>::`scalar deleting destructor', COMDAT
; _this$ = ecx
  00000	55		 push	 ebp
  00001	8b ec		 mov	 ebp, esp
  00003	51		 push	 ecx
  00004	c7 45 fc cc cc
	cc cc		 mov	 DWORD PTR [ebp-4], -858993460 ; ccccccccH
  0000b	89 4d fc	 mov	 DWORD PTR _this$[ebp], ecx
  0000e	8b 4d fc	 mov	 ecx, DWORD PTR _this$[ebp]
  00011	e8 00 00 00 00	 call	 ??1?$CBMemPool@USThash_next@@@@QAE@XZ ; CBMemPool<SThash_next>::~CBMemPool<SThash_next>
  00016	8b 45 08	 mov	 eax, DWORD PTR ___flags$[ebp]
  00019	83 e0 01	 and	 eax, 1
  0001c	74 0e		 je	 SHORT $LN2@scalar
  0001e	6a 18		 push	 24			; 00000018H
  00020	8b 4d fc	 mov	 ecx, DWORD PTR _this$[ebp]
  00023	51		 push	 ecx
  00024	e8 00 00 00 00	 call	 ??3@YAXPAXI@Z		; operator delete
  00029	83 c4 08	 add	 esp, 8
$LN2@scalar:
  0002c	8b 45 fc	 mov	 eax, DWORD PTR _this$[ebp]
  0002f	83 c4 04	 add	 esp, 4
  00032	3b ec		 cmp	 ebp, esp
  00034	e8 00 00 00 00	 call	 __RTC_CheckEsp
  00039	8b e5		 mov	 esp, ebp
  0003b	5d		 pop	 ebp
  0003c	c2 04 00	 ret	 4
??_G?$CBMemPool@USThash_next@@@@QAEPAXI@Z ENDP		; CBMemPool<SThash_next>::`scalar deleting destructor'
_TEXT	ENDS
; Function compile flags: /Odtp /RTCsu
;	COMDAT ?__autoclassinit2@?$CBMemPool@USThash_next@@@@QAEXI@Z
_TEXT	SEGMENT
_this$ = -4						; size = 4
_classSize$ = 8						; size = 4
?__autoclassinit2@?$CBMemPool@USThash_next@@@@QAEXI@Z PROC ; CBMemPool<SThash_next>::__autoclassinit2, COMDAT
; _this$ = ecx
  00000	55		 push	 ebp
  00001	8b ec		 mov	 ebp, esp
  00003	51		 push	 ecx
  00004	c7 45 fc cc cc
	cc cc		 mov	 DWORD PTR [ebp-4], -858993460 ; ccccccccH
  0000b	89 4d fc	 mov	 DWORD PTR _this$[ebp], ecx
  0000e	8b 45 08	 mov	 eax, DWORD PTR _classSize$[ebp]
  00011	50		 push	 eax
  00012	6a 00		 push	 0
  00014	8b 4d fc	 mov	 ecx, DWORD PTR _this$[ebp]
  00017	51		 push	 ecx
  00018	e8 00 00 00 00	 call	 _memset
  0001d	83 c4 0c	 add	 esp, 12			; 0000000cH
  00020	83 c4 04	 add	 esp, 4
  00023	3b ec		 cmp	 ebp, esp
  00025	e8 00 00 00 00	 call	 __RTC_CheckEsp
  0002a	8b e5		 mov	 esp, ebp
  0002c	5d		 pop	 ebp
  0002d	c2 04 00	 ret	 4
?__autoclassinit2@?$CBMemPool@USThash_next@@@@QAEXI@Z ENDP ; CBMemPool<SThash_next>::__autoclassinit2
_TEXT	ENDS
; Function compile flags: /Odtp /RTCsu
; File e:\infinia-library-3.0\com\include\combmempool.h
;	COMDAT ?__alloc@?$CBMemPool@USThash_next@@@@AAEHH@Z
_TEXT	SEGMENT
tv65 = -20						; size = 4
$T1 = -16						; size = 4
_pFlag$ = -12						; size = 4
_pPool$ = -8						; size = 4
_this$ = -4						; size = 4
_nMaxCount$ = 8						; size = 4
?__alloc@?$CBMemPool@USThash_next@@@@AAEHH@Z PROC	; CBMemPool<SThash_next>::__alloc, COMDAT
; _this$ = ecx

; 104  : {	

  00000	55		 push	 ebp
  00001	8b ec		 mov	 ebp, esp
  00003	83 ec 14	 sub	 esp, 20			; 00000014H
  00006	56		 push	 esi
  00007	b8 cc cc cc cc	 mov	 eax, -858993460		; ccccccccH
  0000c	89 45 ec	 mov	 DWORD PTR [ebp-20], eax
  0000f	89 45 f0	 mov	 DWORD PTR [ebp-16], eax
  00012	89 45 f4	 mov	 DWORD PTR [ebp-12], eax
  00015	89 45 f8	 mov	 DWORD PTR [ebp-8], eax
  00018	89 45 fc	 mov	 DWORD PTR [ebp-4], eax
  0001b	89 4d fc	 mov	 DWORD PTR _this$[ebp], ecx

; 105  : 	MEMTYPE* pPool;
; 106  : 	switch (m_nObjAllocType) {

  0001e	8b 45 fc	 mov	 eax, DWORD PTR _this$[ebp]
  00021	8b 48 0c	 mov	 ecx, DWORD PTR [eax+12]
  00024	89 4d ec	 mov	 DWORD PTR tv65[ebp], ecx
  00027	83 7d ec 02	 cmp	 DWORD PTR tv65[ebp], 2
  0002b	74 0e		 je	 SHORT $LN4@alloc
  0002d	83 7d ec 03	 cmp	 DWORD PTR tv65[ebp], 3
  00031	74 34		 je	 SHORT $LN5@alloc
  00033	83 7d ec 05	 cmp	 DWORD PTR tv65[ebp], 5
  00037	74 02		 je	 SHORT $LN4@alloc
  00039	eb 49		 jmp	 SHORT $LN6@alloc
$LN4@alloc:

; 107  : 	case eAlloc_Type_new		: 
; 108  : 	case eAlloc_Type_newArray	:	pPool = new (std::nothrow) MEMTYPE[nMaxCount]; break;

  0003b	68 00 00 00 00	 push	 OFFSET ?nothrow@std@@3Unothrow_t@1@B ; std::nothrow
  00040	33 c9		 xor	 ecx, ecx
  00042	8b 45 08	 mov	 eax, DWORD PTR _nMaxCount$[ebp]
  00045	ba 0c 00 00 00	 mov	 edx, 12			; 0000000cH
  0004a	f7 e2		 mul	 edx
  0004c	0f 90 c1	 seto	 cl
  0004f	f7 d9		 neg	 ecx
  00051	0b c8		 or	 ecx, eax
  00053	51		 push	 ecx
  00054	e8 00 00 00 00	 call	 ??_U@YAPAXIABUnothrow_t@std@@@Z ; operator new[]
  00059	83 c4 08	 add	 esp, 8
  0005c	89 45 f0	 mov	 DWORD PTR $T1[ebp], eax
  0005f	8b 45 f0	 mov	 eax, DWORD PTR $T1[ebp]
  00062	89 45 f8	 mov	 DWORD PTR _pPool$[ebp], eax
  00065	eb 24		 jmp	 SHORT $LN2@alloc
$LN5@alloc:

; 109  : 	case eAlloc_Type_alloc		:	pPool = (MEMTYPE *)calloc(nMaxCount, sizeof(MEMTYPE)); break;

  00067	8b f4		 mov	 esi, esp
  00069	6a 0c		 push	 12			; 0000000cH
  0006b	8b 4d 08	 mov	 ecx, DWORD PTR _nMaxCount$[ebp]
  0006e	51		 push	 ecx
  0006f	ff 15 00 00 00
	00		 call	 DWORD PTR __imp__calloc
  00075	83 c4 08	 add	 esp, 8
  00078	3b f4		 cmp	 esi, esp
  0007a	e8 00 00 00 00	 call	 __RTC_CheckEsp
  0007f	89 45 f8	 mov	 DWORD PTR _pPool$[ebp], eax
  00082	eb 07		 jmp	 SHORT $LN2@alloc
$LN6@alloc:

; 110  : 	default: pPool=NULL;

  00084	c7 45 f8 00 00
	00 00		 mov	 DWORD PTR _pPool$[ebp], 0
$LN2@alloc:

; 111  : 	}	
; 112  : 	if (!pPool) {

  0008b	83 7d f8 00	 cmp	 DWORD PTR _pPool$[ebp], 0
  0008f	75 19		 jne	 SHORT $LN7@alloc

; 113  : 		_stprintf(g_szMessage, _T("CBMemPool::pPool alloc ERROR"));

  00091	68 00 00 00 00	 push	 OFFSET $SG45388
  00096	68 00 00 00 00	 push	 OFFSET ?g_szMessage@@3PADA ; g_szMessage
  0009b	e8 00 00 00 00	 call	 _sprintf
  000a0	83 c4 08	 add	 esp, 8

; 114  : 		return 0;

  000a3	33 c0		 xor	 eax, eax
  000a5	e9 88 00 00 00	 jmp	 $LN1@alloc
$LN7@alloc:

; 115  : 	}
; 116  : 
; 117  : 	char* pFlag = (char*)calloc(nMaxCount, sizeof(char));

  000aa	8b f4		 mov	 esi, esp
  000ac	6a 01		 push	 1
  000ae	8b 55 08	 mov	 edx, DWORD PTR _nMaxCount$[ebp]
  000b1	52		 push	 edx
  000b2	ff 15 00 00 00
	00		 call	 DWORD PTR __imp__calloc
  000b8	83 c4 08	 add	 esp, 8
  000bb	3b f4		 cmp	 esi, esp
  000bd	e8 00 00 00 00	 call	 __RTC_CheckEsp
  000c2	89 45 f4	 mov	 DWORD PTR _pFlag$[ebp], eax

; 118  : 	if (!pFlag) {

  000c5	83 7d f4 00	 cmp	 DWORD PTR _pFlag$[ebp], 0
  000c9	75 2c		 jne	 SHORT $LN8@alloc

; 119  : 		free(pPool);

  000cb	8b f4		 mov	 esi, esp
  000cd	8b 45 f8	 mov	 eax, DWORD PTR _pPool$[ebp]
  000d0	50		 push	 eax
  000d1	ff 15 00 00 00
	00		 call	 DWORD PTR __imp__free
  000d7	83 c4 04	 add	 esp, 4
  000da	3b f4		 cmp	 esi, esp
  000dc	e8 00 00 00 00	 call	 __RTC_CheckEsp

; 120  : 		_stprintf(g_szMessage, _T("CBMemPool::pFlag alloc ERROR"));

  000e1	68 00 00 00 00	 push	 OFFSET $SG45390
  000e6	68 00 00 00 00	 push	 OFFSET ?g_szMessage@@3PADA ; g_szMessage
  000eb	e8 00 00 00 00	 call	 _sprintf
  000f0	83 c4 08	 add	 esp, 8

; 121  : 		return 0;

  000f3	33 c0		 xor	 eax, eax
  000f5	eb 3b		 jmp	 SHORT $LN1@alloc
$LN8@alloc:

; 122  : 	}
; 123  : 	memset(pFlag, 0, sizeof(pFlag));

  000f7	6a 04		 push	 4
  000f9	6a 00		 push	 0
  000fb	8b 4d f4	 mov	 ecx, DWORD PTR _pFlag$[ebp]
  000fe	51		 push	 ecx
  000ff	e8 00 00 00 00	 call	 _memset
  00104	83 c4 0c	 add	 esp, 12			; 0000000cH

; 124  : 
; 125  : 	_stprintf(g_szMessage, _T("CBMemPool __alloc m_nAllocCount[%d]"), nMaxCount);

  00107	8b 55 08	 mov	 edx, DWORD PTR _nMaxCount$[ebp]
  0010a	52		 push	 edx
  0010b	68 00 00 00 00	 push	 OFFSET $SG45391
  00110	68 00 00 00 00	 push	 OFFSET ?g_szMessage@@3PADA ; g_szMessage
  00115	e8 00 00 00 00	 call	 _sprintf
  0011a	83 c4 0c	 add	 esp, 12			; 0000000cH

; 126  : 	m_pChunk = pPool;

  0011d	8b 45 fc	 mov	 eax, DWORD PTR _this$[ebp]
  00120	8b 4d f8	 mov	 ecx, DWORD PTR _pPool$[ebp]
  00123	89 48 14	 mov	 DWORD PTR [eax+20], ecx

; 127  : 	m_nFlagArray = pFlag;

  00126	8b 55 fc	 mov	 edx, DWORD PTR _this$[ebp]
  00129	8b 45 f4	 mov	 eax, DWORD PTR _pFlag$[ebp]
  0012c	89 42 10	 mov	 DWORD PTR [edx+16], eax

; 128  : 	return nMaxCount;

  0012f	8b 45 08	 mov	 eax, DWORD PTR _nMaxCount$[ebp]
$LN1@alloc:

; 129  : }

  00132	5e		 pop	 esi
  00133	83 c4 14	 add	 esp, 20			; 00000014H
  00136	3b ec		 cmp	 ebp, esp
  00138	e8 00 00 00 00	 call	 __RTC_CheckEsp
  0013d	8b e5		 mov	 esp, ebp
  0013f	5d		 pop	 ebp
  00140	c2 04 00	 ret	 4
?__alloc@?$CBMemPool@USThash_next@@@@AAEHH@Z ENDP	; CBMemPool<SThash_next>::__alloc
_TEXT	ENDS
; Function compile flags: /Odtp /RTCsu
; File e:\infinia-library-3.0\com\include\combmempool.h
;	COMDAT ?__unit_alloc@?$CBMemPool@USThash_next@@@@AAEPAUSThash_next@@XZ
_TEXT	SEGMENT
tv65 = -12						; size = 4
$T1 = -8						; size = 4
_this$ = -4						; size = 4
?__unit_alloc@?$CBMemPool@USThash_next@@@@AAEPAUSThash_next@@XZ PROC ; CBMemPool<SThash_next>::__unit_alloc, COMDAT
; _this$ = ecx

; 134  : {

  00000	55		 push	 ebp
  00001	8b ec		 mov	 ebp, esp
  00003	83 ec 0c	 sub	 esp, 12			; 0000000cH
  00006	56		 push	 esi
  00007	c7 45 f4 cc cc
	cc cc		 mov	 DWORD PTR [ebp-12], -858993460 ; ccccccccH
  0000e	c7 45 f8 cc cc
	cc cc		 mov	 DWORD PTR [ebp-8], -858993460 ; ccccccccH
  00015	c7 45 fc cc cc
	cc cc		 mov	 DWORD PTR [ebp-4], -858993460 ; ccccccccH
  0001c	89 4d fc	 mov	 DWORD PTR _this$[ebp], ecx

; 135  : 	switch (m_nObjAllocType) {

  0001f	8b 45 fc	 mov	 eax, DWORD PTR _this$[ebp]
  00022	8b 48 0c	 mov	 ecx, DWORD PTR [eax+12]
  00025	89 4d f4	 mov	 DWORD PTR tv65[ebp], ecx
  00028	83 7d f4 02	 cmp	 DWORD PTR tv65[ebp], 2
  0002c	74 0e		 je	 SHORT $LN4@unit_alloc
  0002e	83 7d f4 03	 cmp	 DWORD PTR tv65[ebp], 3
  00032	74 1f		 je	 SHORT $LN5@unit_alloc
  00034	83 7d f4 05	 cmp	 DWORD PTR tv65[ebp], 5
  00038	74 02		 je	 SHORT $LN4@unit_alloc
  0003a	eb 2f		 jmp	 SHORT $LN6@unit_alloc
$LN4@unit_alloc:

; 136  : 	case eAlloc_Type_new		:	
; 137  : 	case eAlloc_Type_newArray	:	return new (std::nothrow) MEMTYPE;

  0003c	68 00 00 00 00	 push	 OFFSET ?nothrow@std@@3Unothrow_t@1@B ; std::nothrow
  00041	6a 0c		 push	 12			; 0000000cH
  00043	e8 00 00 00 00	 call	 ??2@YAPAXIABUnothrow_t@std@@@Z ; operator new
  00048	83 c4 08	 add	 esp, 8
  0004b	89 45 f8	 mov	 DWORD PTR $T1[ebp], eax
  0004e	8b 45 f8	 mov	 eax, DWORD PTR $T1[ebp]
  00051	eb 1a		 jmp	 SHORT $LN1@unit_alloc
$LN5@unit_alloc:

; 138  : 	case eAlloc_Type_alloc		:	return (MEMTYPE *)calloc(1, sizeof(MEMTYPE));

  00053	8b f4		 mov	 esi, esp
  00055	6a 0c		 push	 12			; 0000000cH
  00057	6a 01		 push	 1
  00059	ff 15 00 00 00
	00		 call	 DWORD PTR __imp__calloc
  0005f	83 c4 08	 add	 esp, 8
  00062	3b f4		 cmp	 esi, esp
  00064	e8 00 00 00 00	 call	 __RTC_CheckEsp
  00069	eb 02		 jmp	 SHORT $LN1@unit_alloc
$LN6@unit_alloc:

; 139  : 	default: return NULL;

  0006b	33 c0		 xor	 eax, eax
$LN1@unit_alloc:

; 140  : 	}
; 141  : }

  0006d	5e		 pop	 esi
  0006e	83 c4 0c	 add	 esp, 12			; 0000000cH
  00071	3b ec		 cmp	 ebp, esp
  00073	e8 00 00 00 00	 call	 __RTC_CheckEsp
  00078	8b e5		 mov	 esp, ebp
  0007a	5d		 pop	 ebp
  0007b	c3		 ret	 0
?__unit_alloc@?$CBMemPool@USThash_next@@@@AAEPAUSThash_next@@XZ ENDP ; CBMemPool<SThash_next>::__unit_alloc
_TEXT	ENDS
; Function compile flags: /Odtp /RTCsu
; File e:\infinia-library-3.0\com\include\combmempool.h
;	COMDAT ?delMem@?$CBMemPool@USThash_next@@@@QAE_NPAUSThash_next@@@Z
_TEXT	SEGMENT
tv88 = -20						; size = 4
tv84 = -16						; size = 4
$T1 = -12						; size = 4
_nIdx$ = -8						; size = 4
_this$ = -4						; size = 4
_pUsedMem$ = 8						; size = 4
?delMem@?$CBMemPool@USThash_next@@@@QAE_NPAUSThash_next@@@Z PROC ; CBMemPool<SThash_next>::delMem, COMDAT
; _this$ = ecx

; 193  : {

  00000	55		 push	 ebp
  00001	8b ec		 mov	 ebp, esp
  00003	83 ec 14	 sub	 esp, 20			; 00000014H
  00006	56		 push	 esi
  00007	b8 cc cc cc cc	 mov	 eax, -858993460		; ccccccccH
  0000c	89 45 ec	 mov	 DWORD PTR [ebp-20], eax
  0000f	89 45 f0	 mov	 DWORD PTR [ebp-16], eax
  00012	89 45 f4	 mov	 DWORD PTR [ebp-12], eax
  00015	89 45 f8	 mov	 DWORD PTR [ebp-8], eax
  00018	89 45 fc	 mov	 DWORD PTR [ebp-4], eax
  0001b	89 4d fc	 mov	 DWORD PTR _this$[ebp], ecx

; 194  : 	int nIdx = int(pUsedMem - m_pChunk);

  0001e	8b 45 fc	 mov	 eax, DWORD PTR _this$[ebp]
  00021	8b 4d 08	 mov	 ecx, DWORD PTR _pUsedMem$[ebp]
  00024	2b 48 14	 sub	 ecx, DWORD PTR [eax+20]
  00027	8b c1		 mov	 eax, ecx
  00029	99		 cdq
  0002a	b9 0c 00 00 00	 mov	 ecx, 12			; 0000000cH
  0002f	f7 f9		 idiv	 ecx
  00031	89 45 f8	 mov	 DWORD PTR _nIdx$[ebp], eax

; 195  : 
; 196  : 	if (ISINCLUDE(nIdx, m_nAllocCount)) {

  00034	8b 55 fc	 mov	 edx, DWORD PTR _this$[ebp]
  00037	8b 42 08	 mov	 eax, DWORD PTR [edx+8]
  0003a	50		 push	 eax
  0003b	8b 4d f8	 mov	 ecx, DWORD PTR _nIdx$[ebp]
  0003e	51		 push	 ecx
  0003f	e8 00 00 00 00	 call	 ?ISINCLUDE@@YA_NHH@Z	; ISINCLUDE
  00044	83 c4 08	 add	 esp, 8
  00047	0f b6 d0	 movzx	 edx, al
  0004a	85 d2		 test	 edx, edx
  0004c	74 20		 je	 SHORT $LN4@delMem

; 197  : 		m_nFlagArray[nIdx] = 0;

  0004e	8b 45 fc	 mov	 eax, DWORD PTR _this$[ebp]
  00051	8b 48 10	 mov	 ecx, DWORD PTR [eax+16]
  00054	8b 55 f8	 mov	 edx, DWORD PTR _nIdx$[ebp]
  00057	c6 04 11 00	 mov	 BYTE PTR [ecx+edx], 0

; 198  : 		m_nUseCnt--;

  0005b	8b 45 fc	 mov	 eax, DWORD PTR _this$[ebp]
  0005e	8b 48 04	 mov	 ecx, DWORD PTR [eax+4]
  00061	83 e9 01	 sub	 ecx, 1
  00064	8b 55 fc	 mov	 edx, DWORD PTR _this$[ebp]
  00067	89 4a 04	 mov	 DWORD PTR [edx+4], ecx

; 199  : 		return true;

  0006a	b0 01		 mov	 al, 1
  0006c	eb 75		 jmp	 SHORT $LN1@delMem
$LN4@delMem:

; 200  : 	}
; 201  : 	if (m_bSlot) return false;

  0006e	8b 45 fc	 mov	 eax, DWORD PTR _this$[ebp]
  00071	0f b6 08	 movzx	 ecx, BYTE PTR [eax]
  00074	85 c9		 test	 ecx, ecx
  00076	74 04		 je	 SHORT $LN5@delMem
  00078	32 c0		 xor	 al, al
  0007a	eb 67		 jmp	 SHORT $LN1@delMem
$LN5@delMem:

; 202  : 	switch (m_nObjAllocType) {

  0007c	8b 55 fc	 mov	 edx, DWORD PTR _this$[ebp]
  0007f	8b 42 0c	 mov	 eax, DWORD PTR [edx+12]
  00082	89 45 f0	 mov	 DWORD PTR tv84[ebp], eax
  00085	83 7d f0 02	 cmp	 DWORD PTR tv84[ebp], 2
  00089	74 0e		 je	 SHORT $LN6@delMem
  0008b	83 7d f0 03	 cmp	 DWORD PTR tv84[ebp], 3
  0008f	74 3a		 je	 SHORT $LN7@delMem
  00091	83 7d f0 05	 cmp	 DWORD PTR tv84[ebp], 5
  00095	74 02		 je	 SHORT $LN6@delMem
  00097	eb 48		 jmp	 SHORT $LN2@delMem
$LN6@delMem:

; 203  : 	case eAlloc_Type_new:	
; 204  : 	case eAlloc_Type_newArray:	delete pUsedMem; break;

  00099	8b 4d 08	 mov	 ecx, DWORD PTR _pUsedMem$[ebp]
  0009c	89 4d f4	 mov	 DWORD PTR $T1[ebp], ecx
  0009f	6a 0c		 push	 12			; 0000000cH
  000a1	8b 55 f4	 mov	 edx, DWORD PTR $T1[ebp]
  000a4	52		 push	 edx
  000a5	e8 00 00 00 00	 call	 ??3@YAXPAXI@Z		; operator delete
  000aa	83 c4 08	 add	 esp, 8
  000ad	83 7d f4 00	 cmp	 DWORD PTR $T1[ebp], 0
  000b1	75 09		 jne	 SHORT $LN9@delMem
  000b3	c7 45 ec 00 00
	00 00		 mov	 DWORD PTR tv88[ebp], 0
  000ba	eb 0d		 jmp	 SHORT $LN10@delMem
$LN9@delMem:
  000bc	c7 45 08 23 81
	00 00		 mov	 DWORD PTR _pUsedMem$[ebp], 33059 ; 00008123H
  000c3	8b 45 08	 mov	 eax, DWORD PTR _pUsedMem$[ebp]
  000c6	89 45 ec	 mov	 DWORD PTR tv88[ebp], eax
$LN10@delMem:
  000c9	eb 16		 jmp	 SHORT $LN2@delMem
$LN7@delMem:

; 205  : 	case eAlloc_Type_alloc:	free(pUsedMem); break;

  000cb	8b f4		 mov	 esi, esp
  000cd	8b 4d 08	 mov	 ecx, DWORD PTR _pUsedMem$[ebp]
  000d0	51		 push	 ecx
  000d1	ff 15 00 00 00
	00		 call	 DWORD PTR __imp__free
  000d7	83 c4 04	 add	 esp, 4
  000da	3b f4		 cmp	 esi, esp
  000dc	e8 00 00 00 00	 call	 __RTC_CheckEsp
$LN2@delMem:

; 206  : 	}
; 207  : 	return false;

  000e1	32 c0		 xor	 al, al
$LN1@delMem:

; 208  : }

  000e3	5e		 pop	 esi
  000e4	83 c4 14	 add	 esp, 20			; 00000014H
  000e7	3b ec		 cmp	 ebp, esp
  000e9	e8 00 00 00 00	 call	 __RTC_CheckEsp
  000ee	8b e5		 mov	 esp, ebp
  000f0	5d		 pop	 ebp
  000f1	c2 04 00	 ret	 4
?delMem@?$CBMemPool@USThash_next@@@@QAE_NPAUSThash_next@@@Z ENDP ; CBMemPool<SThash_next>::delMem
_TEXT	ENDS
; Function compile flags: /Odtp /RTCsu
; File e:\infinia-library-3.0\com\include\combmempool.h
;	COMDAT ?newMem@?$CBMemPool@USThash_next@@@@QAEPAUSThash_next@@XZ
_TEXT	SEGMENT
_j$ = -12						; size = 4
_i$ = -8						; size = 4
_this$ = -4						; size = 4
?newMem@?$CBMemPool@USThash_next@@@@QAEPAUSThash_next@@XZ PROC ; CBMemPool<SThash_next>::newMem, COMDAT
; _this$ = ecx

; 145  : {

  00000	55		 push	 ebp
  00001	8b ec		 mov	 ebp, esp
  00003	83 ec 0c	 sub	 esp, 12			; 0000000cH
  00006	c7 45 f4 cc cc
	cc cc		 mov	 DWORD PTR [ebp-12], -858993460 ; ccccccccH
  0000d	c7 45 f8 cc cc
	cc cc		 mov	 DWORD PTR [ebp-8], -858993460 ; ccccccccH
  00014	c7 45 fc cc cc
	cc cc		 mov	 DWORD PTR [ebp-4], -858993460 ; ccccccccH
  0001b	89 4d fc	 mov	 DWORD PTR _this$[ebp], ecx

; 146  : 	int i = m_nUseCnt, j;

  0001e	8b 45 fc	 mov	 eax, DWORD PTR _this$[ebp]
  00021	8b 48 04	 mov	 ecx, DWORD PTR [eax+4]
  00024	89 4d f8	 mov	 DWORD PTR _i$[ebp], ecx

; 147  : 	if (m_nUseCnt == m_nAllocCount) {

  00027	8b 55 fc	 mov	 edx, DWORD PTR _this$[ebp]
  0002a	8b 45 fc	 mov	 eax, DWORD PTR _this$[ebp]
  0002d	8b 4a 04	 mov	 ecx, DWORD PTR [edx+4]
  00030	3b 48 08	 cmp	 ecx, DWORD PTR [eax+8]
  00033	75 1e		 jne	 SHORT $LN5@newMem

; 148  : 		if (m_bSlot) return NULL;

  00035	8b 55 fc	 mov	 edx, DWORD PTR _this$[ebp]
  00038	0f b6 02	 movzx	 eax, BYTE PTR [edx]
  0003b	85 c0		 test	 eax, eax
  0003d	74 07		 je	 SHORT $LN6@newMem
  0003f	33 c0		 xor	 eax, eax
  00041	e9 a4 00 00 00	 jmp	 $LN1@newMem
$LN6@newMem:

; 149  : 		return __unit_alloc();

  00046	8b 4d fc	 mov	 ecx, DWORD PTR _this$[ebp]
  00049	e8 00 00 00 00	 call	 ?__unit_alloc@?$CBMemPool@USThash_next@@@@AAEPAUSThash_next@@XZ ; CBMemPool<SThash_next>::__unit_alloc
  0004e	e9 97 00 00 00	 jmp	 $LN1@newMem
$LN5@newMem:

; 150  : 	}
; 151  : 	for (j = 0; j < m_nAllocCount; j++) {

  00053	c7 45 f4 00 00
	00 00		 mov	 DWORD PTR _j$[ebp], 0
  0005a	eb 09		 jmp	 SHORT $LN4@newMem
$LN2@newMem:
  0005c	8b 4d f4	 mov	 ecx, DWORD PTR _j$[ebp]
  0005f	83 c1 01	 add	 ecx, 1
  00062	89 4d f4	 mov	 DWORD PTR _j$[ebp], ecx
$LN4@newMem:
  00065	8b 55 fc	 mov	 edx, DWORD PTR _this$[ebp]
  00068	8b 45 f4	 mov	 eax, DWORD PTR _j$[ebp]
  0006b	3b 42 08	 cmp	 eax, DWORD PTR [edx+8]
  0006e	7d 64		 jge	 SHORT $LN3@newMem

; 152  : 		if (i >= m_nAllocCount) { i = 0; }

  00070	8b 4d fc	 mov	 ecx, DWORD PTR _this$[ebp]
  00073	8b 55 f8	 mov	 edx, DWORD PTR _i$[ebp]
  00076	3b 51 08	 cmp	 edx, DWORD PTR [ecx+8]
  00079	7c 07		 jl	 SHORT $LN7@newMem
  0007b	c7 45 f8 00 00
	00 00		 mov	 DWORD PTR _i$[ebp], 0
$LN7@newMem:

; 153  : 		if (!m_nFlagArray[i]) {

  00082	8b 45 fc	 mov	 eax, DWORD PTR _this$[ebp]
  00085	8b 48 10	 mov	 ecx, DWORD PTR [eax+16]
  00088	8b 55 f8	 mov	 edx, DWORD PTR _i$[ebp]
  0008b	0f be 04 11	 movsx	 eax, BYTE PTR [ecx+edx]
  0008f	85 c0		 test	 eax, eax
  00091	75 3f		 jne	 SHORT $LN8@newMem

; 154  : 			m_nFlagArray[i] = 1;

  00093	8b 4d fc	 mov	 ecx, DWORD PTR _this$[ebp]
  00096	8b 51 10	 mov	 edx, DWORD PTR [ecx+16]
  00099	8b 45 f8	 mov	 eax, DWORD PTR _i$[ebp]
  0009c	c6 04 02 01	 mov	 BYTE PTR [edx+eax], 1

; 155  : 			memset(&m_pChunk[i], 0, sizeof(MEMTYPE));

  000a0	6a 0c		 push	 12			; 0000000cH
  000a2	6a 00		 push	 0
  000a4	6b 4d f8 0c	 imul	 ecx, DWORD PTR _i$[ebp], 12
  000a8	8b 55 fc	 mov	 edx, DWORD PTR _this$[ebp]
  000ab	03 4a 14	 add	 ecx, DWORD PTR [edx+20]
  000ae	51		 push	 ecx
  000af	e8 00 00 00 00	 call	 _memset
  000b4	83 c4 0c	 add	 esp, 12			; 0000000cH

; 156  : 			m_nUseCnt++;

  000b7	8b 45 fc	 mov	 eax, DWORD PTR _this$[ebp]
  000ba	8b 48 04	 mov	 ecx, DWORD PTR [eax+4]
  000bd	83 c1 01	 add	 ecx, 1
  000c0	8b 55 fc	 mov	 edx, DWORD PTR _this$[ebp]
  000c3	89 4a 04	 mov	 DWORD PTR [edx+4], ecx

; 157  : 			return &m_pChunk[i];

  000c6	6b 45 f8 0c	 imul	 eax, DWORD PTR _i$[ebp], 12
  000ca	8b 4d fc	 mov	 ecx, DWORD PTR _this$[ebp]
  000cd	03 41 14	 add	 eax, DWORD PTR [ecx+20]
  000d0	eb 18		 jmp	 SHORT $LN1@newMem
$LN8@newMem:

; 158  : 		}
; 159  : 	}

  000d2	eb 88		 jmp	 SHORT $LN2@newMem
$LN3@newMem:

; 160  : 	if (m_bSlot) return NULL;

  000d4	8b 55 fc	 mov	 edx, DWORD PTR _this$[ebp]
  000d7	0f b6 02	 movzx	 eax, BYTE PTR [edx]
  000da	85 c0		 test	 eax, eax
  000dc	74 04		 je	 SHORT $LN9@newMem
  000de	33 c0		 xor	 eax, eax
  000e0	eb 08		 jmp	 SHORT $LN1@newMem
$LN9@newMem:

; 161  : 	return __unit_alloc();

  000e2	8b 4d fc	 mov	 ecx, DWORD PTR _this$[ebp]
  000e5	e8 00 00 00 00	 call	 ?__unit_alloc@?$CBMemPool@USThash_next@@@@AAEPAUSThash_next@@XZ ; CBMemPool<SThash_next>::__unit_alloc
$LN1@newMem:

; 162  : }

  000ea	83 c4 0c	 add	 esp, 12			; 0000000cH
  000ed	3b ec		 cmp	 ebp, esp
  000ef	e8 00 00 00 00	 call	 __RTC_CheckEsp
  000f4	8b e5		 mov	 esp, ebp
  000f6	5d		 pop	 ebp
  000f7	c3		 ret	 0
?newMem@?$CBMemPool@USThash_next@@@@QAEPAUSThash_next@@XZ ENDP ; CBMemPool<SThash_next>::newMem
_TEXT	ENDS
; Function compile flags: /Odtp /RTCsu
; File e:\infinia-library-3.0\com\include\combmempool.h
;	COMDAT ?alloc@?$CBMemPool@USThash_next@@@@QAEHH@Z
_TEXT	SEGMENT
_this$ = -4						; size = 4
_nMaxCount$ = 8						; size = 4
?alloc@?$CBMemPool@USThash_next@@@@QAEHH@Z PROC		; CBMemPool<SThash_next>::alloc, COMDAT
; _this$ = ecx

; 32   : 	inline int alloc(int nMaxCount) { m_nAllocCount = __alloc(nMaxCount); return m_nAllocCount; }

  00000	55		 push	 ebp
  00001	8b ec		 mov	 ebp, esp
  00003	51		 push	 ecx
  00004	c7 45 fc cc cc
	cc cc		 mov	 DWORD PTR [ebp-4], -858993460 ; ccccccccH
  0000b	89 4d fc	 mov	 DWORD PTR _this$[ebp], ecx
  0000e	8b 45 08	 mov	 eax, DWORD PTR _nMaxCount$[ebp]
  00011	50		 push	 eax
  00012	8b 4d fc	 mov	 ecx, DWORD PTR _this$[ebp]
  00015	e8 00 00 00 00	 call	 ?__alloc@?$CBMemPool@USThash_next@@@@AAEHH@Z ; CBMemPool<SThash_next>::__alloc
  0001a	8b 4d fc	 mov	 ecx, DWORD PTR _this$[ebp]
  0001d	89 41 08	 mov	 DWORD PTR [ecx+8], eax
  00020	8b 55 fc	 mov	 edx, DWORD PTR _this$[ebp]
  00023	8b 42 08	 mov	 eax, DWORD PTR [edx+8]
  00026	83 c4 04	 add	 esp, 4
  00029	3b ec		 cmp	 ebp, esp
  0002b	e8 00 00 00 00	 call	 __RTC_CheckEsp
  00030	8b e5		 mov	 esp, ebp
  00032	5d		 pop	 ebp
  00033	c2 04 00	 ret	 4
?alloc@?$CBMemPool@USThash_next@@@@QAEHH@Z ENDP		; CBMemPool<SThash_next>::alloc
_TEXT	ENDS
; Function compile flags: /Odtp /RTCsu
; File e:\infinia-library-3.0\com\include\combmempool.h
;	COMDAT ??1?$CBMemPool@USThash_next@@@@QAE@XZ
_TEXT	SEGMENT
tv67 = -12						; size = 4
$T1 = -8						; size = 4
_this$ = -4						; size = 4
??1?$CBMemPool@USThash_next@@@@QAE@XZ PROC		; CBMemPool<SThash_next>::~CBMemPool<SThash_next>, COMDAT
; _this$ = ecx

; 85   : {

  00000	55		 push	 ebp
  00001	8b ec		 mov	 ebp, esp
  00003	83 ec 0c	 sub	 esp, 12			; 0000000cH
  00006	56		 push	 esi
  00007	c7 45 f4 cc cc
	cc cc		 mov	 DWORD PTR [ebp-12], -858993460 ; ccccccccH
  0000e	c7 45 f8 cc cc
	cc cc		 mov	 DWORD PTR [ebp-8], -858993460 ; ccccccccH
  00015	c7 45 fc cc cc
	cc cc		 mov	 DWORD PTR [ebp-4], -858993460 ; ccccccccH
  0001c	89 4d fc	 mov	 DWORD PTR _this$[ebp], ecx

; 86   : 	if (m_pChunk) {

  0001f	8b 45 fc	 mov	 eax, DWORD PTR _this$[ebp]
  00022	83 78 14 00	 cmp	 DWORD PTR [eax+20], 0
  00026	74 57		 je	 SHORT $LN4@CBMemPool

; 87   : 		switch (m_nObjAllocType) {

  00028	8b 4d fc	 mov	 ecx, DWORD PTR _this$[ebp]
  0002b	8b 51 0c	 mov	 edx, DWORD PTR [ecx+12]
  0002e	89 55 f4	 mov	 DWORD PTR tv67[ebp], edx
  00031	83 7d f4 02	 cmp	 DWORD PTR tv67[ebp], 2
  00035	74 0e		 je	 SHORT $LN5@CBMemPool
  00037	83 7d f4 03	 cmp	 DWORD PTR tv67[ebp], 3
  0003b	74 1f		 je	 SHORT $LN6@CBMemPool
  0003d	83 7d f4 05	 cmp	 DWORD PTR tv67[ebp], 5
  00041	74 02		 je	 SHORT $LN5@CBMemPool
  00043	eb 30		 jmp	 SHORT $LN2@CBMemPool
$LN5@CBMemPool:

; 88   : 		case eAlloc_Type_new:		
; 89   : 		case eAlloc_Type_newArray:	delete[] m_pChunk;	break;

  00045	8b 45 fc	 mov	 eax, DWORD PTR _this$[ebp]
  00048	8b 48 14	 mov	 ecx, DWORD PTR [eax+20]
  0004b	89 4d f8	 mov	 DWORD PTR $T1[ebp], ecx
  0004e	8b 55 f8	 mov	 edx, DWORD PTR $T1[ebp]
  00051	52		 push	 edx
  00052	e8 00 00 00 00	 call	 ??_V@YAXPAX@Z		; operator delete[]
  00057	83 c4 04	 add	 esp, 4
  0005a	eb 19		 jmp	 SHORT $LN2@CBMemPool
$LN6@CBMemPool:

; 90   : 		case eAlloc_Type_alloc:		free(m_pChunk);		break;

  0005c	8b f4		 mov	 esi, esp
  0005e	8b 45 fc	 mov	 eax, DWORD PTR _this$[ebp]
  00061	8b 48 14	 mov	 ecx, DWORD PTR [eax+20]
  00064	51		 push	 ecx
  00065	ff 15 00 00 00
	00		 call	 DWORD PTR __imp__free
  0006b	83 c4 04	 add	 esp, 4
  0006e	3b f4		 cmp	 esi, esp
  00070	e8 00 00 00 00	 call	 __RTC_CheckEsp
$LN2@CBMemPool:

; 91   : 		}
; 92   : 
; 93   : 		m_pChunk = NULL;

  00075	8b 55 fc	 mov	 edx, DWORD PTR _this$[ebp]
  00078	c7 42 14 00 00
	00 00		 mov	 DWORD PTR [edx+20], 0
$LN4@CBMemPool:

; 94   : 	}
; 95   : 
; 96   : 	if (m_nFlagArray) {

  0007f	8b 45 fc	 mov	 eax, DWORD PTR _this$[ebp]
  00082	83 78 10 00	 cmp	 DWORD PTR [eax+16], 0
  00086	74 23		 je	 SHORT $LN8@CBMemPool

; 97   : 		free(m_nFlagArray);

  00088	8b f4		 mov	 esi, esp
  0008a	8b 4d fc	 mov	 ecx, DWORD PTR _this$[ebp]
  0008d	8b 51 10	 mov	 edx, DWORD PTR [ecx+16]
  00090	52		 push	 edx
  00091	ff 15 00 00 00
	00		 call	 DWORD PTR __imp__free
  00097	83 c4 04	 add	 esp, 4
  0009a	3b f4		 cmp	 esi, esp
  0009c	e8 00 00 00 00	 call	 __RTC_CheckEsp

; 98   : 		m_nFlagArray = NULL;

  000a1	8b 45 fc	 mov	 eax, DWORD PTR _this$[ebp]
  000a4	c7 40 10 00 00
	00 00		 mov	 DWORD PTR [eax+16], 0
$LN8@CBMemPool:

; 99   : 	}
; 100  : }

  000ab	5e		 pop	 esi
  000ac	83 c4 0c	 add	 esp, 12			; 0000000cH
  000af	3b ec		 cmp	 ebp, esp
  000b1	e8 00 00 00 00	 call	 __RTC_CheckEsp
  000b6	8b e5		 mov	 esp, ebp
  000b8	5d		 pop	 ebp
  000b9	c3		 ret	 0
??1?$CBMemPool@USThash_next@@@@QAE@XZ ENDP		; CBMemPool<SThash_next>::~CBMemPool<SThash_next>
_TEXT	ENDS
; Function compile flags: /Odtp /RTCsu
; File e:\infinia-library-3.0\com\include\combmempool.h
;	COMDAT ??0?$CBMemPool@USThash_next@@@@QAE@W4E_ALLOC_TYPE@@@Z
_TEXT	SEGMENT
_this$ = -4						; size = 4
_nType$ = 8						; size = 4
??0?$CBMemPool@USThash_next@@@@QAE@W4E_ALLOC_TYPE@@@Z PROC ; CBMemPool<SThash_next>::CBMemPool<SThash_next>, COMDAT
; _this$ = ecx

; 74   : {

  00000	55		 push	 ebp
  00001	8b ec		 mov	 ebp, esp
  00003	51		 push	 ecx
  00004	c7 45 fc cc cc
	cc cc		 mov	 DWORD PTR [ebp-4], -858993460 ; ccccccccH
  0000b	89 4d fc	 mov	 DWORD PTR _this$[ebp], ecx

; 75   : 	m_nAllocCount = 0;

  0000e	8b 45 fc	 mov	 eax, DWORD PTR _this$[ebp]
  00011	c7 40 08 00 00
	00 00		 mov	 DWORD PTR [eax+8], 0

; 76   : 	m_pChunk = NULL;

  00018	8b 4d fc	 mov	 ecx, DWORD PTR _this$[ebp]
  0001b	c7 41 14 00 00
	00 00		 mov	 DWORD PTR [ecx+20], 0

; 77   : 	m_nUseCnt = 0;

  00022	8b 55 fc	 mov	 edx, DWORD PTR _this$[ebp]
  00025	c7 42 04 00 00
	00 00		 mov	 DWORD PTR [edx+4], 0

; 78   : 	m_nFlagArray = NULL;

  0002c	8b 45 fc	 mov	 eax, DWORD PTR _this$[ebp]
  0002f	c7 40 10 00 00
	00 00		 mov	 DWORD PTR [eax+16], 0

; 79   : 	m_nObjAllocType = nType;

  00036	8b 4d fc	 mov	 ecx, DWORD PTR _this$[ebp]
  00039	8b 55 08	 mov	 edx, DWORD PTR _nType$[ebp]
  0003c	89 51 0c	 mov	 DWORD PTR [ecx+12], edx

; 80   : 	m_bSlot = false;

  0003f	8b 45 fc	 mov	 eax, DWORD PTR _this$[ebp]
  00042	c6 00 00	 mov	 BYTE PTR [eax], 0

; 81   : }

  00045	8b 45 fc	 mov	 eax, DWORD PTR _this$[ebp]
  00048	8b e5		 mov	 esp, ebp
  0004a	5d		 pop	 ebp
  0004b	c2 04 00	 ret	 4
??0?$CBMemPool@USThash_next@@@@QAE@W4E_ALLOC_TYPE@@@Z ENDP ; CBMemPool<SThash_next>::CBMemPool<SThash_next>
_TEXT	ENDS
; Function compile flags: /Odtp /RTCsu
;	COMDAT ??_G?$CBMemPool@USTValue@@@@QAEPAXI@Z
_TEXT	SEGMENT
_this$ = -4						; size = 4
___flags$ = 8						; size = 4
??_G?$CBMemPool@USTValue@@@@QAEPAXI@Z PROC		; CBMemPool<STValue>::`scalar deleting destructor', COMDAT
; _this$ = ecx
  00000	55		 push	 ebp
  00001	8b ec		 mov	 ebp, esp
  00003	51		 push	 ecx
  00004	c7 45 fc cc cc
	cc cc		 mov	 DWORD PTR [ebp-4], -858993460 ; ccccccccH
  0000b	89 4d fc	 mov	 DWORD PTR _this$[ebp], ecx
  0000e	8b 4d fc	 mov	 ecx, DWORD PTR _this$[ebp]
  00011	e8 00 00 00 00	 call	 ??1?$CBMemPool@USTValue@@@@QAE@XZ ; CBMemPool<STValue>::~CBMemPool<STValue>
  00016	8b 45 08	 mov	 eax, DWORD PTR ___flags$[ebp]
  00019	83 e0 01	 and	 eax, 1
  0001c	74 0e		 je	 SHORT $LN2@scalar
  0001e	6a 18		 push	 24			; 00000018H
  00020	8b 4d fc	 mov	 ecx, DWORD PTR _this$[ebp]
  00023	51		 push	 ecx
  00024	e8 00 00 00 00	 call	 ??3@YAXPAXI@Z		; operator delete
  00029	83 c4 08	 add	 esp, 8
$LN2@scalar:
  0002c	8b 45 fc	 mov	 eax, DWORD PTR _this$[ebp]
  0002f	83 c4 04	 add	 esp, 4
  00032	3b ec		 cmp	 ebp, esp
  00034	e8 00 00 00 00	 call	 __RTC_CheckEsp
  00039	8b e5		 mov	 esp, ebp
  0003b	5d		 pop	 ebp
  0003c	c2 04 00	 ret	 4
??_G?$CBMemPool@USTValue@@@@QAEPAXI@Z ENDP		; CBMemPool<STValue>::`scalar deleting destructor'
_TEXT	ENDS
; Function compile flags: /Odtp /RTCsu
;	COMDAT ?__autoclassinit2@?$CBMemPool@USTValue@@@@QAEXI@Z
_TEXT	SEGMENT
_this$ = -4						; size = 4
_classSize$ = 8						; size = 4
?__autoclassinit2@?$CBMemPool@USTValue@@@@QAEXI@Z PROC	; CBMemPool<STValue>::__autoclassinit2, COMDAT
; _this$ = ecx
  00000	55		 push	 ebp
  00001	8b ec		 mov	 ebp, esp
  00003	51		 push	 ecx
  00004	c7 45 fc cc cc
	cc cc		 mov	 DWORD PTR [ebp-4], -858993460 ; ccccccccH
  0000b	89 4d fc	 mov	 DWORD PTR _this$[ebp], ecx
  0000e	8b 45 08	 mov	 eax, DWORD PTR _classSize$[ebp]
  00011	50		 push	 eax
  00012	6a 00		 push	 0
  00014	8b 4d fc	 mov	 ecx, DWORD PTR _this$[ebp]
  00017	51		 push	 ecx
  00018	e8 00 00 00 00	 call	 _memset
  0001d	83 c4 0c	 add	 esp, 12			; 0000000cH
  00020	83 c4 04	 add	 esp, 4
  00023	3b ec		 cmp	 ebp, esp
  00025	e8 00 00 00 00	 call	 __RTC_CheckEsp
  0002a	8b e5		 mov	 esp, ebp
  0002c	5d		 pop	 ebp
  0002d	c2 04 00	 ret	 4
?__autoclassinit2@?$CBMemPool@USTValue@@@@QAEXI@Z ENDP	; CBMemPool<STValue>::__autoclassinit2
_TEXT	ENDS
; Function compile flags: /Odtp /RTCsu
; File e:\infinia-library-3.0\com\include\combmempool.h
;	COMDAT ?__alloc@?$CBMemPool@USTValue@@@@AAEHH@Z
_TEXT	SEGMENT
tv65 = -20						; size = 4
$T1 = -16						; size = 4
_pFlag$ = -12						; size = 4
_pPool$ = -8						; size = 4
_this$ = -4						; size = 4
_nMaxCount$ = 8						; size = 4
?__alloc@?$CBMemPool@USTValue@@@@AAEHH@Z PROC		; CBMemPool<STValue>::__alloc, COMDAT
; _this$ = ecx

; 104  : {	

  00000	55		 push	 ebp
  00001	8b ec		 mov	 ebp, esp
  00003	83 ec 14	 sub	 esp, 20			; 00000014H
  00006	56		 push	 esi
  00007	b8 cc cc cc cc	 mov	 eax, -858993460		; ccccccccH
  0000c	89 45 ec	 mov	 DWORD PTR [ebp-20], eax
  0000f	89 45 f0	 mov	 DWORD PTR [ebp-16], eax
  00012	89 45 f4	 mov	 DWORD PTR [ebp-12], eax
  00015	89 45 f8	 mov	 DWORD PTR [ebp-8], eax
  00018	89 45 fc	 mov	 DWORD PTR [ebp-4], eax
  0001b	89 4d fc	 mov	 DWORD PTR _this$[ebp], ecx

; 105  : 	MEMTYPE* pPool;
; 106  : 	switch (m_nObjAllocType) {

  0001e	8b 45 fc	 mov	 eax, DWORD PTR _this$[ebp]
  00021	8b 48 0c	 mov	 ecx, DWORD PTR [eax+12]
  00024	89 4d ec	 mov	 DWORD PTR tv65[ebp], ecx
  00027	83 7d ec 02	 cmp	 DWORD PTR tv65[ebp], 2
  0002b	74 0e		 je	 SHORT $LN4@alloc
  0002d	83 7d ec 03	 cmp	 DWORD PTR tv65[ebp], 3
  00031	74 34		 je	 SHORT $LN5@alloc
  00033	83 7d ec 05	 cmp	 DWORD PTR tv65[ebp], 5
  00037	74 02		 je	 SHORT $LN4@alloc
  00039	eb 49		 jmp	 SHORT $LN6@alloc
$LN4@alloc:

; 107  : 	case eAlloc_Type_new		: 
; 108  : 	case eAlloc_Type_newArray	:	pPool = new (std::nothrow) MEMTYPE[nMaxCount]; break;

  0003b	68 00 00 00 00	 push	 OFFSET ?nothrow@std@@3Unothrow_t@1@B ; std::nothrow
  00040	33 c9		 xor	 ecx, ecx
  00042	8b 45 08	 mov	 eax, DWORD PTR _nMaxCount$[ebp]
  00045	ba 08 00 00 00	 mov	 edx, 8
  0004a	f7 e2		 mul	 edx
  0004c	0f 90 c1	 seto	 cl
  0004f	f7 d9		 neg	 ecx
  00051	0b c8		 or	 ecx, eax
  00053	51		 push	 ecx
  00054	e8 00 00 00 00	 call	 ??_U@YAPAXIABUnothrow_t@std@@@Z ; operator new[]
  00059	83 c4 08	 add	 esp, 8
  0005c	89 45 f0	 mov	 DWORD PTR $T1[ebp], eax
  0005f	8b 45 f0	 mov	 eax, DWORD PTR $T1[ebp]
  00062	89 45 f8	 mov	 DWORD PTR _pPool$[ebp], eax
  00065	eb 24		 jmp	 SHORT $LN2@alloc
$LN5@alloc:

; 109  : 	case eAlloc_Type_alloc		:	pPool = (MEMTYPE *)calloc(nMaxCount, sizeof(MEMTYPE)); break;

  00067	8b f4		 mov	 esi, esp
  00069	6a 08		 push	 8
  0006b	8b 4d 08	 mov	 ecx, DWORD PTR _nMaxCount$[ebp]
  0006e	51		 push	 ecx
  0006f	ff 15 00 00 00
	00		 call	 DWORD PTR __imp__calloc
  00075	83 c4 08	 add	 esp, 8
  00078	3b f4		 cmp	 esi, esp
  0007a	e8 00 00 00 00	 call	 __RTC_CheckEsp
  0007f	89 45 f8	 mov	 DWORD PTR _pPool$[ebp], eax
  00082	eb 07		 jmp	 SHORT $LN2@alloc
$LN6@alloc:

; 110  : 	default: pPool=NULL;

  00084	c7 45 f8 00 00
	00 00		 mov	 DWORD PTR _pPool$[ebp], 0
$LN2@alloc:

; 111  : 	}	
; 112  : 	if (!pPool) {

  0008b	83 7d f8 00	 cmp	 DWORD PTR _pPool$[ebp], 0
  0008f	75 19		 jne	 SHORT $LN7@alloc

; 113  : 		_stprintf(g_szMessage, _T("CBMemPool::pPool alloc ERROR"));

  00091	68 00 00 00 00	 push	 OFFSET $SG45458
  00096	68 00 00 00 00	 push	 OFFSET ?g_szMessage@@3PADA ; g_szMessage
  0009b	e8 00 00 00 00	 call	 _sprintf
  000a0	83 c4 08	 add	 esp, 8

; 114  : 		return 0;

  000a3	33 c0		 xor	 eax, eax
  000a5	e9 88 00 00 00	 jmp	 $LN1@alloc
$LN7@alloc:

; 115  : 	}
; 116  : 
; 117  : 	char* pFlag = (char*)calloc(nMaxCount, sizeof(char));

  000aa	8b f4		 mov	 esi, esp
  000ac	6a 01		 push	 1
  000ae	8b 55 08	 mov	 edx, DWORD PTR _nMaxCount$[ebp]
  000b1	52		 push	 edx
  000b2	ff 15 00 00 00
	00		 call	 DWORD PTR __imp__calloc
  000b8	83 c4 08	 add	 esp, 8
  000bb	3b f4		 cmp	 esi, esp
  000bd	e8 00 00 00 00	 call	 __RTC_CheckEsp
  000c2	89 45 f4	 mov	 DWORD PTR _pFlag$[ebp], eax

; 118  : 	if (!pFlag) {

  000c5	83 7d f4 00	 cmp	 DWORD PTR _pFlag$[ebp], 0
  000c9	75 2c		 jne	 SHORT $LN8@alloc

; 119  : 		free(pPool);

  000cb	8b f4		 mov	 esi, esp
  000cd	8b 45 f8	 mov	 eax, DWORD PTR _pPool$[ebp]
  000d0	50		 push	 eax
  000d1	ff 15 00 00 00
	00		 call	 DWORD PTR __imp__free
  000d7	83 c4 04	 add	 esp, 4
  000da	3b f4		 cmp	 esi, esp
  000dc	e8 00 00 00 00	 call	 __RTC_CheckEsp

; 120  : 		_stprintf(g_szMessage, _T("CBMemPool::pFlag alloc ERROR"));

  000e1	68 00 00 00 00	 push	 OFFSET $SG45460
  000e6	68 00 00 00 00	 push	 OFFSET ?g_szMessage@@3PADA ; g_szMessage
  000eb	e8 00 00 00 00	 call	 _sprintf
  000f0	83 c4 08	 add	 esp, 8

; 121  : 		return 0;

  000f3	33 c0		 xor	 eax, eax
  000f5	eb 3b		 jmp	 SHORT $LN1@alloc
$LN8@alloc:

; 122  : 	}
; 123  : 	memset(pFlag, 0, sizeof(pFlag));

  000f7	6a 04		 push	 4
  000f9	6a 00		 push	 0
  000fb	8b 4d f4	 mov	 ecx, DWORD PTR _pFlag$[ebp]
  000fe	51		 push	 ecx
  000ff	e8 00 00 00 00	 call	 _memset
  00104	83 c4 0c	 add	 esp, 12			; 0000000cH

; 124  : 
; 125  : 	_stprintf(g_szMessage, _T("CBMemPool __alloc m_nAllocCount[%d]"), nMaxCount);

  00107	8b 55 08	 mov	 edx, DWORD PTR _nMaxCount$[ebp]
  0010a	52		 push	 edx
  0010b	68 00 00 00 00	 push	 OFFSET $SG45461
  00110	68 00 00 00 00	 push	 OFFSET ?g_szMessage@@3PADA ; g_szMessage
  00115	e8 00 00 00 00	 call	 _sprintf
  0011a	83 c4 0c	 add	 esp, 12			; 0000000cH

; 126  : 	m_pChunk = pPool;

  0011d	8b 45 fc	 mov	 eax, DWORD PTR _this$[ebp]
  00120	8b 4d f8	 mov	 ecx, DWORD PTR _pPool$[ebp]
  00123	89 48 14	 mov	 DWORD PTR [eax+20], ecx

; 127  : 	m_nFlagArray = pFlag;

  00126	8b 55 fc	 mov	 edx, DWORD PTR _this$[ebp]
  00129	8b 45 f4	 mov	 eax, DWORD PTR _pFlag$[ebp]
  0012c	89 42 10	 mov	 DWORD PTR [edx+16], eax

; 128  : 	return nMaxCount;

  0012f	8b 45 08	 mov	 eax, DWORD PTR _nMaxCount$[ebp]
$LN1@alloc:

; 129  : }

  00132	5e		 pop	 esi
  00133	83 c4 14	 add	 esp, 20			; 00000014H
  00136	3b ec		 cmp	 ebp, esp
  00138	e8 00 00 00 00	 call	 __RTC_CheckEsp
  0013d	8b e5		 mov	 esp, ebp
  0013f	5d		 pop	 ebp
  00140	c2 04 00	 ret	 4
?__alloc@?$CBMemPool@USTValue@@@@AAEHH@Z ENDP		; CBMemPool<STValue>::__alloc
_TEXT	ENDS
; Function compile flags: /Odtp /RTCsu
; File e:\infinia-library-3.0\com\include\combmempool.h
;	COMDAT ?__unit_alloc@?$CBMemPool@USTValue@@@@AAEPAUSTValue@@XZ
_TEXT	SEGMENT
tv65 = -12						; size = 4
$T1 = -8						; size = 4
_this$ = -4						; size = 4
?__unit_alloc@?$CBMemPool@USTValue@@@@AAEPAUSTValue@@XZ PROC ; CBMemPool<STValue>::__unit_alloc, COMDAT
; _this$ = ecx

; 134  : {

  00000	55		 push	 ebp
  00001	8b ec		 mov	 ebp, esp
  00003	83 ec 0c	 sub	 esp, 12			; 0000000cH
  00006	56		 push	 esi
  00007	c7 45 f4 cc cc
	cc cc		 mov	 DWORD PTR [ebp-12], -858993460 ; ccccccccH
  0000e	c7 45 f8 cc cc
	cc cc		 mov	 DWORD PTR [ebp-8], -858993460 ; ccccccccH
  00015	c7 45 fc cc cc
	cc cc		 mov	 DWORD PTR [ebp-4], -858993460 ; ccccccccH
  0001c	89 4d fc	 mov	 DWORD PTR _this$[ebp], ecx

; 135  : 	switch (m_nObjAllocType) {

  0001f	8b 45 fc	 mov	 eax, DWORD PTR _this$[ebp]
  00022	8b 48 0c	 mov	 ecx, DWORD PTR [eax+12]
  00025	89 4d f4	 mov	 DWORD PTR tv65[ebp], ecx
  00028	83 7d f4 02	 cmp	 DWORD PTR tv65[ebp], 2
  0002c	74 0e		 je	 SHORT $LN4@unit_alloc
  0002e	83 7d f4 03	 cmp	 DWORD PTR tv65[ebp], 3
  00032	74 1f		 je	 SHORT $LN5@unit_alloc
  00034	83 7d f4 05	 cmp	 DWORD PTR tv65[ebp], 5
  00038	74 02		 je	 SHORT $LN4@unit_alloc
  0003a	eb 2f		 jmp	 SHORT $LN6@unit_alloc
$LN4@unit_alloc:

; 136  : 	case eAlloc_Type_new		:	
; 137  : 	case eAlloc_Type_newArray	:	return new (std::nothrow) MEMTYPE;

  0003c	68 00 00 00 00	 push	 OFFSET ?nothrow@std@@3Unothrow_t@1@B ; std::nothrow
  00041	6a 08		 push	 8
  00043	e8 00 00 00 00	 call	 ??2@YAPAXIABUnothrow_t@std@@@Z ; operator new
  00048	83 c4 08	 add	 esp, 8
  0004b	89 45 f8	 mov	 DWORD PTR $T1[ebp], eax
  0004e	8b 45 f8	 mov	 eax, DWORD PTR $T1[ebp]
  00051	eb 1a		 jmp	 SHORT $LN1@unit_alloc
$LN5@unit_alloc:

; 138  : 	case eAlloc_Type_alloc		:	return (MEMTYPE *)calloc(1, sizeof(MEMTYPE));

  00053	8b f4		 mov	 esi, esp
  00055	6a 08		 push	 8
  00057	6a 01		 push	 1
  00059	ff 15 00 00 00
	00		 call	 DWORD PTR __imp__calloc
  0005f	83 c4 08	 add	 esp, 8
  00062	3b f4		 cmp	 esi, esp
  00064	e8 00 00 00 00	 call	 __RTC_CheckEsp
  00069	eb 02		 jmp	 SHORT $LN1@unit_alloc
$LN6@unit_alloc:

; 139  : 	default: return NULL;

  0006b	33 c0		 xor	 eax, eax
$LN1@unit_alloc:

; 140  : 	}
; 141  : }

  0006d	5e		 pop	 esi
  0006e	83 c4 0c	 add	 esp, 12			; 0000000cH
  00071	3b ec		 cmp	 ebp, esp
  00073	e8 00 00 00 00	 call	 __RTC_CheckEsp
  00078	8b e5		 mov	 esp, ebp
  0007a	5d		 pop	 ebp
  0007b	c3		 ret	 0
?__unit_alloc@?$CBMemPool@USTValue@@@@AAEPAUSTValue@@XZ ENDP ; CBMemPool<STValue>::__unit_alloc
_TEXT	ENDS
; Function compile flags: /Odtp /RTCsu
; File e:\infinia-library-3.0\com\include\combmempool.h
;	COMDAT ?delMem@?$CBMemPool@USTValue@@@@QAE_NPAUSTValue@@@Z
_TEXT	SEGMENT
tv88 = -20						; size = 4
tv84 = -16						; size = 4
$T1 = -12						; size = 4
_nIdx$ = -8						; size = 4
_this$ = -4						; size = 4
_pUsedMem$ = 8						; size = 4
?delMem@?$CBMemPool@USTValue@@@@QAE_NPAUSTValue@@@Z PROC ; CBMemPool<STValue>::delMem, COMDAT
; _this$ = ecx

; 193  : {

  00000	55		 push	 ebp
  00001	8b ec		 mov	 ebp, esp
  00003	83 ec 14	 sub	 esp, 20			; 00000014H
  00006	56		 push	 esi
  00007	b8 cc cc cc cc	 mov	 eax, -858993460		; ccccccccH
  0000c	89 45 ec	 mov	 DWORD PTR [ebp-20], eax
  0000f	89 45 f0	 mov	 DWORD PTR [ebp-16], eax
  00012	89 45 f4	 mov	 DWORD PTR [ebp-12], eax
  00015	89 45 f8	 mov	 DWORD PTR [ebp-8], eax
  00018	89 45 fc	 mov	 DWORD PTR [ebp-4], eax
  0001b	89 4d fc	 mov	 DWORD PTR _this$[ebp], ecx

; 194  : 	int nIdx = int(pUsedMem - m_pChunk);

  0001e	8b 45 fc	 mov	 eax, DWORD PTR _this$[ebp]
  00021	8b 4d 08	 mov	 ecx, DWORD PTR _pUsedMem$[ebp]
  00024	2b 48 14	 sub	 ecx, DWORD PTR [eax+20]
  00027	c1 f9 03	 sar	 ecx, 3
  0002a	89 4d f8	 mov	 DWORD PTR _nIdx$[ebp], ecx

; 195  : 
; 196  : 	if (ISINCLUDE(nIdx, m_nAllocCount)) {

  0002d	8b 55 fc	 mov	 edx, DWORD PTR _this$[ebp]
  00030	8b 42 08	 mov	 eax, DWORD PTR [edx+8]
  00033	50		 push	 eax
  00034	8b 4d f8	 mov	 ecx, DWORD PTR _nIdx$[ebp]
  00037	51		 push	 ecx
  00038	e8 00 00 00 00	 call	 ?ISINCLUDE@@YA_NHH@Z	; ISINCLUDE
  0003d	83 c4 08	 add	 esp, 8
  00040	0f b6 d0	 movzx	 edx, al
  00043	85 d2		 test	 edx, edx
  00045	74 20		 je	 SHORT $LN4@delMem

; 197  : 		m_nFlagArray[nIdx] = 0;

  00047	8b 45 fc	 mov	 eax, DWORD PTR _this$[ebp]
  0004a	8b 48 10	 mov	 ecx, DWORD PTR [eax+16]
  0004d	8b 55 f8	 mov	 edx, DWORD PTR _nIdx$[ebp]
  00050	c6 04 11 00	 mov	 BYTE PTR [ecx+edx], 0

; 198  : 		m_nUseCnt--;

  00054	8b 45 fc	 mov	 eax, DWORD PTR _this$[ebp]
  00057	8b 48 04	 mov	 ecx, DWORD PTR [eax+4]
  0005a	83 e9 01	 sub	 ecx, 1
  0005d	8b 55 fc	 mov	 edx, DWORD PTR _this$[ebp]
  00060	89 4a 04	 mov	 DWORD PTR [edx+4], ecx

; 199  : 		return true;

  00063	b0 01		 mov	 al, 1
  00065	eb 75		 jmp	 SHORT $LN1@delMem
$LN4@delMem:

; 200  : 	}
; 201  : 	if (m_bSlot) return false;

  00067	8b 45 fc	 mov	 eax, DWORD PTR _this$[ebp]
  0006a	0f b6 08	 movzx	 ecx, BYTE PTR [eax]
  0006d	85 c9		 test	 ecx, ecx
  0006f	74 04		 je	 SHORT $LN5@delMem
  00071	32 c0		 xor	 al, al
  00073	eb 67		 jmp	 SHORT $LN1@delMem
$LN5@delMem:

; 202  : 	switch (m_nObjAllocType) {

  00075	8b 55 fc	 mov	 edx, DWORD PTR _this$[ebp]
  00078	8b 42 0c	 mov	 eax, DWORD PTR [edx+12]
  0007b	89 45 f0	 mov	 DWORD PTR tv84[ebp], eax
  0007e	83 7d f0 02	 cmp	 DWORD PTR tv84[ebp], 2
  00082	74 0e		 je	 SHORT $LN6@delMem
  00084	83 7d f0 03	 cmp	 DWORD PTR tv84[ebp], 3
  00088	74 3a		 je	 SHORT $LN7@delMem
  0008a	83 7d f0 05	 cmp	 DWORD PTR tv84[ebp], 5
  0008e	74 02		 je	 SHORT $LN6@delMem
  00090	eb 48		 jmp	 SHORT $LN2@delMem
$LN6@delMem:

; 203  : 	case eAlloc_Type_new:	
; 204  : 	case eAlloc_Type_newArray:	delete pUsedMem; break;

  00092	8b 4d 08	 mov	 ecx, DWORD PTR _pUsedMem$[ebp]
  00095	89 4d f4	 mov	 DWORD PTR $T1[ebp], ecx
  00098	6a 08		 push	 8
  0009a	8b 55 f4	 mov	 edx, DWORD PTR $T1[ebp]
  0009d	52		 push	 edx
  0009e	e8 00 00 00 00	 call	 ??3@YAXPAXI@Z		; operator delete
  000a3	83 c4 08	 add	 esp, 8
  000a6	83 7d f4 00	 cmp	 DWORD PTR $T1[ebp], 0
  000aa	75 09		 jne	 SHORT $LN9@delMem
  000ac	c7 45 ec 00 00
	00 00		 mov	 DWORD PTR tv88[ebp], 0
  000b3	eb 0d		 jmp	 SHORT $LN10@delMem
$LN9@delMem:
  000b5	c7 45 08 23 81
	00 00		 mov	 DWORD PTR _pUsedMem$[ebp], 33059 ; 00008123H
  000bc	8b 45 08	 mov	 eax, DWORD PTR _pUsedMem$[ebp]
  000bf	89 45 ec	 mov	 DWORD PTR tv88[ebp], eax
$LN10@delMem:
  000c2	eb 16		 jmp	 SHORT $LN2@delMem
$LN7@delMem:

; 205  : 	case eAlloc_Type_alloc:	free(pUsedMem); break;

  000c4	8b f4		 mov	 esi, esp
  000c6	8b 4d 08	 mov	 ecx, DWORD PTR _pUsedMem$[ebp]
  000c9	51		 push	 ecx
  000ca	ff 15 00 00 00
	00		 call	 DWORD PTR __imp__free
  000d0	83 c4 04	 add	 esp, 4
  000d3	3b f4		 cmp	 esi, esp
  000d5	e8 00 00 00 00	 call	 __RTC_CheckEsp
$LN2@delMem:

; 206  : 	}
; 207  : 	return false;

  000da	32 c0		 xor	 al, al
$LN1@delMem:

; 208  : }

  000dc	5e		 pop	 esi
  000dd	83 c4 14	 add	 esp, 20			; 00000014H
  000e0	3b ec		 cmp	 ebp, esp
  000e2	e8 00 00 00 00	 call	 __RTC_CheckEsp
  000e7	8b e5		 mov	 esp, ebp
  000e9	5d		 pop	 ebp
  000ea	c2 04 00	 ret	 4
?delMem@?$CBMemPool@USTValue@@@@QAE_NPAUSTValue@@@Z ENDP ; CBMemPool<STValue>::delMem
_TEXT	ENDS
; Function compile flags: /Odtp /RTCsu
; File e:\infinia-library-3.0\com\include\combmempool.h
;	COMDAT ?newMem@?$CBMemPool@USTValue@@@@QAEPAUSTValue@@XZ
_TEXT	SEGMENT
_j$ = -12						; size = 4
_i$ = -8						; size = 4
_this$ = -4						; size = 4
?newMem@?$CBMemPool@USTValue@@@@QAEPAUSTValue@@XZ PROC	; CBMemPool<STValue>::newMem, COMDAT
; _this$ = ecx

; 145  : {

  00000	55		 push	 ebp
  00001	8b ec		 mov	 ebp, esp
  00003	83 ec 0c	 sub	 esp, 12			; 0000000cH
  00006	c7 45 f4 cc cc
	cc cc		 mov	 DWORD PTR [ebp-12], -858993460 ; ccccccccH
  0000d	c7 45 f8 cc cc
	cc cc		 mov	 DWORD PTR [ebp-8], -858993460 ; ccccccccH
  00014	c7 45 fc cc cc
	cc cc		 mov	 DWORD PTR [ebp-4], -858993460 ; ccccccccH
  0001b	89 4d fc	 mov	 DWORD PTR _this$[ebp], ecx

; 146  : 	int i = m_nUseCnt, j;

  0001e	8b 45 fc	 mov	 eax, DWORD PTR _this$[ebp]
  00021	8b 48 04	 mov	 ecx, DWORD PTR [eax+4]
  00024	89 4d f8	 mov	 DWORD PTR _i$[ebp], ecx

; 147  : 	if (m_nUseCnt == m_nAllocCount) {

  00027	8b 55 fc	 mov	 edx, DWORD PTR _this$[ebp]
  0002a	8b 45 fc	 mov	 eax, DWORD PTR _this$[ebp]
  0002d	8b 4a 04	 mov	 ecx, DWORD PTR [edx+4]
  00030	3b 48 08	 cmp	 ecx, DWORD PTR [eax+8]
  00033	75 1e		 jne	 SHORT $LN5@newMem

; 148  : 		if (m_bSlot) return NULL;

  00035	8b 55 fc	 mov	 edx, DWORD PTR _this$[ebp]
  00038	0f b6 02	 movzx	 eax, BYTE PTR [edx]
  0003b	85 c0		 test	 eax, eax
  0003d	74 07		 je	 SHORT $LN6@newMem
  0003f	33 c0		 xor	 eax, eax
  00041	e9 a8 00 00 00	 jmp	 $LN1@newMem
$LN6@newMem:

; 149  : 		return __unit_alloc();

  00046	8b 4d fc	 mov	 ecx, DWORD PTR _this$[ebp]
  00049	e8 00 00 00 00	 call	 ?__unit_alloc@?$CBMemPool@USTValue@@@@AAEPAUSTValue@@XZ ; CBMemPool<STValue>::__unit_alloc
  0004e	e9 9b 00 00 00	 jmp	 $LN1@newMem
$LN5@newMem:

; 150  : 	}
; 151  : 	for (j = 0; j < m_nAllocCount; j++) {

  00053	c7 45 f4 00 00
	00 00		 mov	 DWORD PTR _j$[ebp], 0
  0005a	eb 09		 jmp	 SHORT $LN4@newMem
$LN2@newMem:
  0005c	8b 4d f4	 mov	 ecx, DWORD PTR _j$[ebp]
  0005f	83 c1 01	 add	 ecx, 1
  00062	89 4d f4	 mov	 DWORD PTR _j$[ebp], ecx
$LN4@newMem:
  00065	8b 55 fc	 mov	 edx, DWORD PTR _this$[ebp]
  00068	8b 45 f4	 mov	 eax, DWORD PTR _j$[ebp]
  0006b	3b 42 08	 cmp	 eax, DWORD PTR [edx+8]
  0006e	7d 68		 jge	 SHORT $LN3@newMem

; 152  : 		if (i >= m_nAllocCount) { i = 0; }

  00070	8b 4d fc	 mov	 ecx, DWORD PTR _this$[ebp]
  00073	8b 55 f8	 mov	 edx, DWORD PTR _i$[ebp]
  00076	3b 51 08	 cmp	 edx, DWORD PTR [ecx+8]
  00079	7c 07		 jl	 SHORT $LN7@newMem
  0007b	c7 45 f8 00 00
	00 00		 mov	 DWORD PTR _i$[ebp], 0
$LN7@newMem:

; 153  : 		if (!m_nFlagArray[i]) {

  00082	8b 45 fc	 mov	 eax, DWORD PTR _this$[ebp]
  00085	8b 48 10	 mov	 ecx, DWORD PTR [eax+16]
  00088	8b 55 f8	 mov	 edx, DWORD PTR _i$[ebp]
  0008b	0f be 04 11	 movsx	 eax, BYTE PTR [ecx+edx]
  0008f	85 c0		 test	 eax, eax
  00091	75 43		 jne	 SHORT $LN8@newMem

; 154  : 			m_nFlagArray[i] = 1;

  00093	8b 4d fc	 mov	 ecx, DWORD PTR _this$[ebp]
  00096	8b 51 10	 mov	 edx, DWORD PTR [ecx+16]
  00099	8b 45 f8	 mov	 eax, DWORD PTR _i$[ebp]
  0009c	c6 04 02 01	 mov	 BYTE PTR [edx+eax], 1

; 155  : 			memset(&m_pChunk[i], 0, sizeof(MEMTYPE));

  000a0	6a 08		 push	 8
  000a2	6a 00		 push	 0
  000a4	8b 4d fc	 mov	 ecx, DWORD PTR _this$[ebp]
  000a7	8b 51 14	 mov	 edx, DWORD PTR [ecx+20]
  000aa	8b 45 f8	 mov	 eax, DWORD PTR _i$[ebp]
  000ad	8d 0c c2	 lea	 ecx, DWORD PTR [edx+eax*8]
  000b0	51		 push	 ecx
  000b1	e8 00 00 00 00	 call	 _memset
  000b6	83 c4 0c	 add	 esp, 12			; 0000000cH

; 156  : 			m_nUseCnt++;

  000b9	8b 55 fc	 mov	 edx, DWORD PTR _this$[ebp]
  000bc	8b 42 04	 mov	 eax, DWORD PTR [edx+4]
  000bf	83 c0 01	 add	 eax, 1
  000c2	8b 4d fc	 mov	 ecx, DWORD PTR _this$[ebp]
  000c5	89 41 04	 mov	 DWORD PTR [ecx+4], eax

; 157  : 			return &m_pChunk[i];

  000c8	8b 55 fc	 mov	 edx, DWORD PTR _this$[ebp]
  000cb	8b 42 14	 mov	 eax, DWORD PTR [edx+20]
  000ce	8b 4d f8	 mov	 ecx, DWORD PTR _i$[ebp]
  000d1	8d 04 c8	 lea	 eax, DWORD PTR [eax+ecx*8]
  000d4	eb 18		 jmp	 SHORT $LN1@newMem
$LN8@newMem:

; 158  : 		}
; 159  : 	}

  000d6	eb 84		 jmp	 SHORT $LN2@newMem
$LN3@newMem:

; 160  : 	if (m_bSlot) return NULL;

  000d8	8b 55 fc	 mov	 edx, DWORD PTR _this$[ebp]
  000db	0f b6 02	 movzx	 eax, BYTE PTR [edx]
  000de	85 c0		 test	 eax, eax
  000e0	74 04		 je	 SHORT $LN9@newMem
  000e2	33 c0		 xor	 eax, eax
  000e4	eb 08		 jmp	 SHORT $LN1@newMem
$LN9@newMem:

; 161  : 	return __unit_alloc();

  000e6	8b 4d fc	 mov	 ecx, DWORD PTR _this$[ebp]
  000e9	e8 00 00 00 00	 call	 ?__unit_alloc@?$CBMemPool@USTValue@@@@AAEPAUSTValue@@XZ ; CBMemPool<STValue>::__unit_alloc
$LN1@newMem:

; 162  : }

  000ee	83 c4 0c	 add	 esp, 12			; 0000000cH
  000f1	3b ec		 cmp	 ebp, esp
  000f3	e8 00 00 00 00	 call	 __RTC_CheckEsp
  000f8	8b e5		 mov	 esp, ebp
  000fa	5d		 pop	 ebp
  000fb	c3		 ret	 0
?newMem@?$CBMemPool@USTValue@@@@QAEPAUSTValue@@XZ ENDP	; CBMemPool<STValue>::newMem
_TEXT	ENDS
; Function compile flags: /Odtp /RTCsu
; File e:\infinia-library-3.0\com\include\combmempool.h
;	COMDAT ?alloc@?$CBMemPool@USTValue@@@@QAEHH@Z
_TEXT	SEGMENT
_this$ = -4						; size = 4
_nMaxCount$ = 8						; size = 4
?alloc@?$CBMemPool@USTValue@@@@QAEHH@Z PROC		; CBMemPool<STValue>::alloc, COMDAT
; _this$ = ecx

; 32   : 	inline int alloc(int nMaxCount) { m_nAllocCount = __alloc(nMaxCount); return m_nAllocCount; }

  00000	55		 push	 ebp
  00001	8b ec		 mov	 ebp, esp
  00003	51		 push	 ecx
  00004	c7 45 fc cc cc
	cc cc		 mov	 DWORD PTR [ebp-4], -858993460 ; ccccccccH
  0000b	89 4d fc	 mov	 DWORD PTR _this$[ebp], ecx
  0000e	8b 45 08	 mov	 eax, DWORD PTR _nMaxCount$[ebp]
  00011	50		 push	 eax
  00012	8b 4d fc	 mov	 ecx, DWORD PTR _this$[ebp]
  00015	e8 00 00 00 00	 call	 ?__alloc@?$CBMemPool@USTValue@@@@AAEHH@Z ; CBMemPool<STValue>::__alloc
  0001a	8b 4d fc	 mov	 ecx, DWORD PTR _this$[ebp]
  0001d	89 41 08	 mov	 DWORD PTR [ecx+8], eax
  00020	8b 55 fc	 mov	 edx, DWORD PTR _this$[ebp]
  00023	8b 42 08	 mov	 eax, DWORD PTR [edx+8]
  00026	83 c4 04	 add	 esp, 4
  00029	3b ec		 cmp	 ebp, esp
  0002b	e8 00 00 00 00	 call	 __RTC_CheckEsp
  00030	8b e5		 mov	 esp, ebp
  00032	5d		 pop	 ebp
  00033	c2 04 00	 ret	 4
?alloc@?$CBMemPool@USTValue@@@@QAEHH@Z ENDP		; CBMemPool<STValue>::alloc
_TEXT	ENDS
; Function compile flags: /Odtp /RTCsu
; File e:\infinia-library-3.0\com\include\combmempool.h
;	COMDAT ??1?$CBMemPool@USTValue@@@@QAE@XZ
_TEXT	SEGMENT
tv67 = -12						; size = 4
$T1 = -8						; size = 4
_this$ = -4						; size = 4
??1?$CBMemPool@USTValue@@@@QAE@XZ PROC			; CBMemPool<STValue>::~CBMemPool<STValue>, COMDAT
; _this$ = ecx

; 85   : {

  00000	55		 push	 ebp
  00001	8b ec		 mov	 ebp, esp
  00003	83 ec 0c	 sub	 esp, 12			; 0000000cH
  00006	56		 push	 esi
  00007	c7 45 f4 cc cc
	cc cc		 mov	 DWORD PTR [ebp-12], -858993460 ; ccccccccH
  0000e	c7 45 f8 cc cc
	cc cc		 mov	 DWORD PTR [ebp-8], -858993460 ; ccccccccH
  00015	c7 45 fc cc cc
	cc cc		 mov	 DWORD PTR [ebp-4], -858993460 ; ccccccccH
  0001c	89 4d fc	 mov	 DWORD PTR _this$[ebp], ecx

; 86   : 	if (m_pChunk) {

  0001f	8b 45 fc	 mov	 eax, DWORD PTR _this$[ebp]
  00022	83 78 14 00	 cmp	 DWORD PTR [eax+20], 0
  00026	74 57		 je	 SHORT $LN4@CBMemPool

; 87   : 		switch (m_nObjAllocType) {

  00028	8b 4d fc	 mov	 ecx, DWORD PTR _this$[ebp]
  0002b	8b 51 0c	 mov	 edx, DWORD PTR [ecx+12]
  0002e	89 55 f4	 mov	 DWORD PTR tv67[ebp], edx
  00031	83 7d f4 02	 cmp	 DWORD PTR tv67[ebp], 2
  00035	74 0e		 je	 SHORT $LN5@CBMemPool
  00037	83 7d f4 03	 cmp	 DWORD PTR tv67[ebp], 3
  0003b	74 1f		 je	 SHORT $LN6@CBMemPool
  0003d	83 7d f4 05	 cmp	 DWORD PTR tv67[ebp], 5
  00041	74 02		 je	 SHORT $LN5@CBMemPool
  00043	eb 30		 jmp	 SHORT $LN2@CBMemPool
$LN5@CBMemPool:

; 88   : 		case eAlloc_Type_new:		
; 89   : 		case eAlloc_Type_newArray:	delete[] m_pChunk;	break;

  00045	8b 45 fc	 mov	 eax, DWORD PTR _this$[ebp]
  00048	8b 48 14	 mov	 ecx, DWORD PTR [eax+20]
  0004b	89 4d f8	 mov	 DWORD PTR $T1[ebp], ecx
  0004e	8b 55 f8	 mov	 edx, DWORD PTR $T1[ebp]
  00051	52		 push	 edx
  00052	e8 00 00 00 00	 call	 ??_V@YAXPAX@Z		; operator delete[]
  00057	83 c4 04	 add	 esp, 4
  0005a	eb 19		 jmp	 SHORT $LN2@CBMemPool
$LN6@CBMemPool:

; 90   : 		case eAlloc_Type_alloc:		free(m_pChunk);		break;

  0005c	8b f4		 mov	 esi, esp
  0005e	8b 45 fc	 mov	 eax, DWORD PTR _this$[ebp]
  00061	8b 48 14	 mov	 ecx, DWORD PTR [eax+20]
  00064	51		 push	 ecx
  00065	ff 15 00 00 00
	00		 call	 DWORD PTR __imp__free
  0006b	83 c4 04	 add	 esp, 4
  0006e	3b f4		 cmp	 esi, esp
  00070	e8 00 00 00 00	 call	 __RTC_CheckEsp
$LN2@CBMemPool:

; 91   : 		}
; 92   : 
; 93   : 		m_pChunk = NULL;

  00075	8b 55 fc	 mov	 edx, DWORD PTR _this$[ebp]
  00078	c7 42 14 00 00
	00 00		 mov	 DWORD PTR [edx+20], 0
$LN4@CBMemPool:

; 94   : 	}
; 95   : 
; 96   : 	if (m_nFlagArray) {

  0007f	8b 45 fc	 mov	 eax, DWORD PTR _this$[ebp]
  00082	83 78 10 00	 cmp	 DWORD PTR [eax+16], 0
  00086	74 23		 je	 SHORT $LN8@CBMemPool

; 97   : 		free(m_nFlagArray);

  00088	8b f4		 mov	 esi, esp
  0008a	8b 4d fc	 mov	 ecx, DWORD PTR _this$[ebp]
  0008d	8b 51 10	 mov	 edx, DWORD PTR [ecx+16]
  00090	52		 push	 edx
  00091	ff 15 00 00 00
	00		 call	 DWORD PTR __imp__free
  00097	83 c4 04	 add	 esp, 4
  0009a	3b f4		 cmp	 esi, esp
  0009c	e8 00 00 00 00	 call	 __RTC_CheckEsp

; 98   : 		m_nFlagArray = NULL;

  000a1	8b 45 fc	 mov	 eax, DWORD PTR _this$[ebp]
  000a4	c7 40 10 00 00
	00 00		 mov	 DWORD PTR [eax+16], 0
$LN8@CBMemPool:

; 99   : 	}
; 100  : }

  000ab	5e		 pop	 esi
  000ac	83 c4 0c	 add	 esp, 12			; 0000000cH
  000af	3b ec		 cmp	 ebp, esp
  000b1	e8 00 00 00 00	 call	 __RTC_CheckEsp
  000b6	8b e5		 mov	 esp, ebp
  000b8	5d		 pop	 ebp
  000b9	c3		 ret	 0
??1?$CBMemPool@USTValue@@@@QAE@XZ ENDP			; CBMemPool<STValue>::~CBMemPool<STValue>
_TEXT	ENDS
; Function compile flags: /Odtp /RTCsu
; File e:\infinia-library-3.0\com\include\combmempool.h
;	COMDAT ??0?$CBMemPool@USTValue@@@@QAE@W4E_ALLOC_TYPE@@@Z
_TEXT	SEGMENT
_this$ = -4						; size = 4
_nType$ = 8						; size = 4
??0?$CBMemPool@USTValue@@@@QAE@W4E_ALLOC_TYPE@@@Z PROC	; CBMemPool<STValue>::CBMemPool<STValue>, COMDAT
; _this$ = ecx

; 74   : {

  00000	55		 push	 ebp
  00001	8b ec		 mov	 ebp, esp
  00003	51		 push	 ecx
  00004	c7 45 fc cc cc
	cc cc		 mov	 DWORD PTR [ebp-4], -858993460 ; ccccccccH
  0000b	89 4d fc	 mov	 DWORD PTR _this$[ebp], ecx

; 75   : 	m_nAllocCount = 0;

  0000e	8b 45 fc	 mov	 eax, DWORD PTR _this$[ebp]
  00011	c7 40 08 00 00
	00 00		 mov	 DWORD PTR [eax+8], 0

; 76   : 	m_pChunk = NULL;

  00018	8b 4d fc	 mov	 ecx, DWORD PTR _this$[ebp]
  0001b	c7 41 14 00 00
	00 00		 mov	 DWORD PTR [ecx+20], 0

; 77   : 	m_nUseCnt = 0;

  00022	8b 55 fc	 mov	 edx, DWORD PTR _this$[ebp]
  00025	c7 42 04 00 00
	00 00		 mov	 DWORD PTR [edx+4], 0

; 78   : 	m_nFlagArray = NULL;

  0002c	8b 45 fc	 mov	 eax, DWORD PTR _this$[ebp]
  0002f	c7 40 10 00 00
	00 00		 mov	 DWORD PTR [eax+16], 0

; 79   : 	m_nObjAllocType = nType;

  00036	8b 4d fc	 mov	 ecx, DWORD PTR _this$[ebp]
  00039	8b 55 08	 mov	 edx, DWORD PTR _nType$[ebp]
  0003c	89 51 0c	 mov	 DWORD PTR [ecx+12], edx

; 80   : 	m_bSlot = false;

  0003f	8b 45 fc	 mov	 eax, DWORD PTR _this$[ebp]
  00042	c6 00 00	 mov	 BYTE PTR [eax], 0

; 81   : }

  00045	8b 45 fc	 mov	 eax, DWORD PTR _this$[ebp]
  00048	8b e5		 mov	 esp, ebp
  0004a	5d		 pop	 ebp
  0004b	c2 04 00	 ret	 4
??0?$CBMemPool@USTValue@@@@QAE@W4E_ALLOC_TYPE@@@Z ENDP	; CBMemPool<STValue>::CBMemPool<STValue>
_TEXT	ENDS
; Function compile flags: /Odtp /RTCsu
; File e:\infinia-library-3.0\com\src\comdualkeyhash.cpp
_TEXT	SEGMENT
_pHash$1 = -12						; size = 4
_pNode$ = -8						; size = 4
_this$ = -4						; size = 4
_pKey1$ = 8						; size = 4
_pKey2$ = 12						; size = 4
?getNode@CDKeyHashMap@@QAEPAUSTHash_Node@@PAD0@Z PROC	; CDKeyHashMap::getNode
; _this$ = ecx

; 170  : {

  00000	55		 push	 ebp
  00001	8b ec		 mov	 ebp, esp
  00003	83 ec 0c	 sub	 esp, 12			; 0000000cH
  00006	c7 45 f4 cc cc
	cc cc		 mov	 DWORD PTR [ebp-12], -858993460 ; ccccccccH
  0000d	c7 45 f8 cc cc
	cc cc		 mov	 DWORD PTR [ebp-8], -858993460 ; ccccccccH
  00014	c7 45 fc cc cc
	cc cc		 mov	 DWORD PTR [ebp-4], -858993460 ; ccccccccH
  0001b	89 4d fc	 mov	 DWORD PTR _this$[ebp], ecx

; 171  : 	STHash_Node *pNode = m_pHashGroup->hashLookup(pKey1);

  0001e	8b 45 08	 mov	 eax, DWORD PTR _pKey1$[ebp]
  00021	50		 push	 eax
  00022	8b 4d fc	 mov	 ecx, DWORD PTR _this$[ebp]
  00025	8b 49 08	 mov	 ecx, DWORD PTR [ecx+8]
  00028	e8 00 00 00 00	 call	 ?hashLookup@CHash@@QAEPAUSTHash_Node@@PAD@Z ; CHash::hashLookup
  0002d	89 45 f8	 mov	 DWORD PTR _pNode$[ebp], eax

; 172  : 	if (pNode) {

  00030	83 7d f8 00	 cmp	 DWORD PTR _pNode$[ebp], 0
  00034	74 17		 je	 SHORT $LN2@getNode

; 173  : 		CHash *pHash = (CHash *)pNode->value;

  00036	8b 55 f8	 mov	 edx, DWORD PTR _pNode$[ebp]
  00039	8b 42 04	 mov	 eax, DWORD PTR [edx+4]
  0003c	89 45 f4	 mov	 DWORD PTR _pHash$1[ebp], eax

; 174  : 		return pHash->hashLookup(pKey2);

  0003f	8b 4d 0c	 mov	 ecx, DWORD PTR _pKey2$[ebp]
  00042	51		 push	 ecx
  00043	8b 4d f4	 mov	 ecx, DWORD PTR _pHash$1[ebp]
  00046	e8 00 00 00 00	 call	 ?hashLookup@CHash@@QAEPAUSTHash_Node@@PAD@Z ; CHash::hashLookup
  0004b	eb 02		 jmp	 SHORT $LN1@getNode
$LN2@getNode:

; 175  : 	}
; 176  : 	return NULL;

  0004d	33 c0		 xor	 eax, eax
$LN1@getNode:

; 177  : }

  0004f	83 c4 0c	 add	 esp, 12			; 0000000cH
  00052	3b ec		 cmp	 ebp, esp
  00054	e8 00 00 00 00	 call	 __RTC_CheckEsp
  00059	8b e5		 mov	 esp, ebp
  0005b	5d		 pop	 ebp
  0005c	c2 08 00	 ret	 8
?getNode@CDKeyHashMap@@QAEPAUSTHash_Node@@PAD0@Z ENDP	; CDKeyHashMap::getNode
_TEXT	ENDS
; Function compile flags: /Odtp /RTCsu
; File e:\infinia-library-3.0\com\src\comdualkeyhash.cpp
_TEXT	SEGMENT
_pNode$ = -8						; size = 4
_this$ = -4						; size = 4
_pKey1$ = 8						; size = 4
?getHashMap@CDKeyHashMap@@QAEPAVCHash@@PAD@Z PROC	; CDKeyHashMap::getHashMap
; _this$ = ecx

; 164  : {

  00000	55		 push	 ebp
  00001	8b ec		 mov	 ebp, esp
  00003	83 ec 08	 sub	 esp, 8
  00006	c7 45 f8 cc cc
	cc cc		 mov	 DWORD PTR [ebp-8], -858993460 ; ccccccccH
  0000d	c7 45 fc cc cc
	cc cc		 mov	 DWORD PTR [ebp-4], -858993460 ; ccccccccH
  00014	89 4d fc	 mov	 DWORD PTR _this$[ebp], ecx

; 165  : 	STHash_Node *pNode = m_pHashGroup->hashLookup(pKey1);

  00017	8b 45 08	 mov	 eax, DWORD PTR _pKey1$[ebp]
  0001a	50		 push	 eax
  0001b	8b 4d fc	 mov	 ecx, DWORD PTR _this$[ebp]
  0001e	8b 49 08	 mov	 ecx, DWORD PTR [ecx+8]
  00021	e8 00 00 00 00	 call	 ?hashLookup@CHash@@QAEPAUSTHash_Node@@PAD@Z ; CHash::hashLookup
  00026	89 45 f8	 mov	 DWORD PTR _pNode$[ebp], eax

; 166  : 	return (CHash *)pNode->value;		// return NULL 

  00029	8b 55 f8	 mov	 edx, DWORD PTR _pNode$[ebp]
  0002c	8b 42 04	 mov	 eax, DWORD PTR [edx+4]

; 167  : }

  0002f	83 c4 08	 add	 esp, 8
  00032	3b ec		 cmp	 ebp, esp
  00034	e8 00 00 00 00	 call	 __RTC_CheckEsp
  00039	8b e5		 mov	 esp, ebp
  0003b	5d		 pop	 ebp
  0003c	c2 04 00	 ret	 4
?getHashMap@CDKeyHashMap@@QAEPAVCHash@@PAD@Z ENDP	; CDKeyHashMap::getHashMap
_TEXT	ENDS
; Function compile flags: /Odtp /RTCsu
; File e:\infinia-library-3.0\com\src\comdualkeyhash.cpp
_TEXT	SEGMENT
_pHash$1 = -12						; size = 4
_pNode$ = -8						; size = 4
_this$ = -4						; size = 4
_pKey1$ = 8						; size = 4
_pKey2$ = 12						; size = 4
?isNode@CDKeyHashMap@@QAE_NPAD0@Z PROC			; CDKeyHashMap::isNode
; _this$ = ecx

; 154  : {

  00000	55		 push	 ebp
  00001	8b ec		 mov	 ebp, esp
  00003	83 ec 0c	 sub	 esp, 12			; 0000000cH
  00006	c7 45 f4 cc cc
	cc cc		 mov	 DWORD PTR [ebp-12], -858993460 ; ccccccccH
  0000d	c7 45 f8 cc cc
	cc cc		 mov	 DWORD PTR [ebp-8], -858993460 ; ccccccccH
  00014	c7 45 fc cc cc
	cc cc		 mov	 DWORD PTR [ebp-4], -858993460 ; ccccccccH
  0001b	89 4d fc	 mov	 DWORD PTR _this$[ebp], ecx

; 155  : 	STHash_Node *pNode = m_pHashGroup->hashLookup(pKey1);

  0001e	8b 45 08	 mov	 eax, DWORD PTR _pKey1$[ebp]
  00021	50		 push	 eax
  00022	8b 4d fc	 mov	 ecx, DWORD PTR _this$[ebp]
  00025	8b 49 08	 mov	 ecx, DWORD PTR [ecx+8]
  00028	e8 00 00 00 00	 call	 ?hashLookup@CHash@@QAEPAUSTHash_Node@@PAD@Z ; CHash::hashLookup
  0002d	89 45 f8	 mov	 DWORD PTR _pNode$[ebp], eax

; 156  : 	if (pNode) {

  00030	83 7d f8 00	 cmp	 DWORD PTR _pNode$[ebp], 0
  00034	74 1d		 je	 SHORT $LN2@isNode

; 157  : 		CHash *pHash = (CHash *)pNode->value;

  00036	8b 55 f8	 mov	 edx, DWORD PTR _pNode$[ebp]
  00039	8b 42 04	 mov	 eax, DWORD PTR [edx+4]
  0003c	89 45 f4	 mov	 DWORD PTR _pHash$1[ebp], eax

; 158  : 		if (pHash->hashLookup(pKey2)) return true;

  0003f	8b 4d 0c	 mov	 ecx, DWORD PTR _pKey2$[ebp]
  00042	51		 push	 ecx
  00043	8b 4d f4	 mov	 ecx, DWORD PTR _pHash$1[ebp]
  00046	e8 00 00 00 00	 call	 ?hashLookup@CHash@@QAEPAUSTHash_Node@@PAD@Z ; CHash::hashLookup
  0004b	85 c0		 test	 eax, eax
  0004d	74 04		 je	 SHORT $LN2@isNode
  0004f	b0 01		 mov	 al, 1
  00051	eb 02		 jmp	 SHORT $LN1@isNode
$LN2@isNode:

; 159  : 	}
; 160  : 	return false;

  00053	32 c0		 xor	 al, al
$LN1@isNode:

; 161  : }

  00055	83 c4 0c	 add	 esp, 12			; 0000000cH
  00058	3b ec		 cmp	 ebp, esp
  0005a	e8 00 00 00 00	 call	 __RTC_CheckEsp
  0005f	8b e5		 mov	 esp, ebp
  00061	5d		 pop	 ebp
  00062	c2 08 00	 ret	 8
?isNode@CDKeyHashMap@@QAE_NPAD0@Z ENDP			; CDKeyHashMap::isNode
_TEXT	ENDS
; Function compile flags: /Odtp /RTCsu
; File e:\infinia-library-3.0\com\src\comdualkeyhash.cpp
_TEXT	SEGMENT
_this$ = -4						; size = 4
_pValue$ = 8						; size = 4
?delValueBuf@CDKeyHashMap@@QAEXPAUSTValue@@@Z PROC	; CDKeyHashMap::delValueBuf
; _this$ = ecx

; 248  : { 

  00000	55		 push	 ebp
  00001	8b ec		 mov	 ebp, esp
  00003	51		 push	 ecx
  00004	c7 45 fc cc cc
	cc cc		 mov	 DWORD PTR [ebp-4], -858993460 ; ccccccccH
  0000b	89 4d fc	 mov	 DWORD PTR _this$[ebp], ecx

; 249  : 	if (m_bValInternal) {

  0000e	8b 45 fc	 mov	 eax, DWORD PTR _this$[ebp]
  00011	0f b6 48 14	 movzx	 ecx, BYTE PTR [eax+20]
  00015	85 c9		 test	 ecx, ecx
  00017	74 27		 je	 SHORT $LN1@delValueBu

; 250  : 		gs_pMMgr->delBufByIndex((TCHAR *)pValue->pValue, pValue->nIdx); m_pValue->delMem(pValue);

  00019	8b 55 08	 mov	 edx, DWORD PTR _pValue$[ebp]
  0001c	8b 02		 mov	 eax, DWORD PTR [edx]
  0001e	50		 push	 eax
  0001f	8b 4d 08	 mov	 ecx, DWORD PTR _pValue$[ebp]
  00022	8b 51 04	 mov	 edx, DWORD PTR [ecx+4]
  00025	52		 push	 edx
  00026	8b 0d 00 00 00
	00		 mov	 ecx, DWORD PTR ?gs_pMMgr@@3PAVCMemManager@@A ; gs_pMMgr
  0002c	e8 00 00 00 00	 call	 ?delBufByIndex@CMemManager@@QAEXPADH@Z ; CMemManager::delBufByIndex
  00031	8b 45 08	 mov	 eax, DWORD PTR _pValue$[ebp]
  00034	50		 push	 eax
  00035	8b 4d fc	 mov	 ecx, DWORD PTR _this$[ebp]
  00038	8b 49 04	 mov	 ecx, DWORD PTR [ecx+4]
  0003b	e8 00 00 00 00	 call	 ?delMem@?$CBMemPool@USTValue@@@@QAE_NPAUSTValue@@@Z ; CBMemPool<STValue>::delMem
$LN1@delValueBu:

; 251  : 	}
; 252  : 
; 253  : 	//   ...  
; 254  : } // value     

  00040	83 c4 04	 add	 esp, 4
  00043	3b ec		 cmp	 ebp, esp
  00045	e8 00 00 00 00	 call	 __RTC_CheckEsp
  0004a	8b e5		 mov	 esp, ebp
  0004c	5d		 pop	 ebp
  0004d	c2 04 00	 ret	 4
?delValueBuf@CDKeyHashMap@@QAEXPAUSTValue@@@Z ENDP	; CDKeyHashMap::delValueBuf
_TEXT	ENDS
; Function compile flags: /Odtp /RTCsu
; File e:\infinia-library-3.0\com\src\comdualkeyhash.cpp
_TEXT	SEGMENT
_pValueBuf$ = -28					; size = 4
_pSTValue$ = -24					; size = 4
_nIdx$ = -16						; size = 4
_this$ = -8						; size = 4
__$ArrayPad$ = -4					; size = 4
_size$ = 8						; size = 4
_pValue$ = 12						; size = 4
?newValueBuf@CDKeyHashMap@@QAEPAUSTValue@@HPAD@Z PROC	; CDKeyHashMap::newValueBuf
; _this$ = ecx

; 235  : {

  00000	55		 push	 ebp
  00001	8b ec		 mov	 ebp, esp
  00003	83 ec 1c	 sub	 esp, 28			; 0000001cH
  00006	b8 cc cc cc cc	 mov	 eax, -858993460		; ccccccccH
  0000b	89 45 e4	 mov	 DWORD PTR [ebp-28], eax
  0000e	89 45 e8	 mov	 DWORD PTR [ebp-24], eax
  00011	89 45 ec	 mov	 DWORD PTR [ebp-20], eax
  00014	89 45 f0	 mov	 DWORD PTR [ebp-16], eax
  00017	89 45 f4	 mov	 DWORD PTR [ebp-12], eax
  0001a	89 45 f8	 mov	 DWORD PTR [ebp-8], eax
  0001d	89 45 fc	 mov	 DWORD PTR [ebp-4], eax
  00020	a1 00 00 00 00	 mov	 eax, DWORD PTR ___security_cookie
  00025	33 c5		 xor	 eax, ebp
  00027	89 45 fc	 mov	 DWORD PTR __$ArrayPad$[ebp], eax
  0002a	89 4d f8	 mov	 DWORD PTR _this$[ebp], ecx

; 236  : 	int nIdx;
; 237  : 	STValue *pSTValue = m_pValue->newMem();

  0002d	8b 45 f8	 mov	 eax, DWORD PTR _this$[ebp]
  00030	8b 48 04	 mov	 ecx, DWORD PTR [eax+4]
  00033	e8 00 00 00 00	 call	 ?newMem@?$CBMemPool@USTValue@@@@QAEPAUSTValue@@XZ ; CBMemPool<STValue>::newMem
  00038	89 45 e8	 mov	 DWORD PTR _pSTValue$[ebp], eax

; 238  : 	TCHAR *pValueBuf = gs_pMMgr->newBuf(size, &nIdx);

  0003b	8d 4d f0	 lea	 ecx, DWORD PTR _nIdx$[ebp]
  0003e	51		 push	 ecx
  0003f	8b 55 08	 mov	 edx, DWORD PTR _size$[ebp]
  00042	52		 push	 edx
  00043	8b 0d 00 00 00
	00		 mov	 ecx, DWORD PTR ?gs_pMMgr@@3PAVCMemManager@@A ; gs_pMMgr
  00049	e8 00 00 00 00	 call	 ?newBuf@CMemManager@@QAEPADHPAH@Z ; CMemManager::newBuf
  0004e	89 45 e4	 mov	 DWORD PTR _pValueBuf$[ebp], eax

; 239  : 	c_memcpy(pValueBuf, pValue, size);

  00051	8b 45 08	 mov	 eax, DWORD PTR _size$[ebp]
  00054	50		 push	 eax
  00055	8b 4d 0c	 mov	 ecx, DWORD PTR _pValue$[ebp]
  00058	51		 push	 ecx
  00059	8b 55 e4	 mov	 edx, DWORD PTR _pValueBuf$[ebp]
  0005c	52		 push	 edx
  0005d	e8 00 00 00 00	 call	 ?c_memcpy@@YAPAXPAXPBXH@Z ; c_memcpy
  00062	83 c4 0c	 add	 esp, 12			; 0000000cH

; 240  : 	pSTValue->nIdx = nIdx;

  00065	8b 45 e8	 mov	 eax, DWORD PTR _pSTValue$[ebp]
  00068	8b 4d f0	 mov	 ecx, DWORD PTR _nIdx$[ebp]
  0006b	89 08		 mov	 DWORD PTR [eax], ecx

; 241  : 	pSTValue->pValue = pValueBuf;

  0006d	8b 55 e8	 mov	 edx, DWORD PTR _pSTValue$[ebp]
  00070	8b 45 e4	 mov	 eax, DWORD PTR _pValueBuf$[ebp]
  00073	89 42 04	 mov	 DWORD PTR [edx+4], eax

; 242  : 
; 243  : 	return pSTValue;

  00076	8b 45 e8	 mov	 eax, DWORD PTR _pSTValue$[ebp]

; 244  : }

  00079	52		 push	 edx
  0007a	8b cd		 mov	 ecx, ebp
  0007c	50		 push	 eax
  0007d	8d 15 00 00 00
	00		 lea	 edx, DWORD PTR $LN5@newValueBu
  00083	e8 00 00 00 00	 call	 @_RTC_CheckStackVars@8
  00088	58		 pop	 eax
  00089	5a		 pop	 edx
  0008a	8b 4d fc	 mov	 ecx, DWORD PTR __$ArrayPad$[ebp]
  0008d	33 cd		 xor	 ecx, ebp
  0008f	e8 00 00 00 00	 call	 @__security_check_cookie@4
  00094	83 c4 1c	 add	 esp, 28			; 0000001cH
  00097	3b ec		 cmp	 ebp, esp
  00099	e8 00 00 00 00	 call	 __RTC_CheckEsp
  0009e	8b e5		 mov	 esp, ebp
  000a0	5d		 pop	 ebp
  000a1	c2 08 00	 ret	 8
$LN5@newValueBu:
  000a4	01 00 00 00	 DD	 1
  000a8	00 00 00 00	 DD	 $LN4@newValueBu
$LN4@newValueBu:
  000ac	f0 ff ff ff	 DD	 -16			; fffffff0H
  000b0	04 00 00 00	 DD	 4
  000b4	00 00 00 00	 DD	 $LN3@newValueBu
$LN3@newValueBu:
  000b8	6e		 DB	 110			; 0000006eH
  000b9	49		 DB	 73			; 00000049H
  000ba	64		 DB	 100			; 00000064H
  000bb	78		 DB	 120			; 00000078H
  000bc	00		 DB	 0
?newValueBuf@CDKeyHashMap@@QAEPAUSTValue@@HPAD@Z ENDP	; CDKeyHashMap::newValueBuf
_TEXT	ENDS
; Function compile flags: /Odtp /RTCsu
; File e:\infinia-library-3.0\com\src\comdualkeyhash.cpp
_TEXT	SEGMENT
_pHash$1 = -20						; size = 4
_pCur2$ = -16						; size = 4
_pNext1$ = -12						; size = 4
_ppPrev$ = -8						; size = 4
_this$ = -4						; size = 4
_pKey1$ = 8						; size = 4
_pKey2$ = 12						; size = 4
?deleteNode@CDKeyHashMap@@QAE_NPAD0@Z PROC		; CDKeyHashMap::deleteNode
; _this$ = ecx

; 212  : {

  00000	55		 push	 ebp
  00001	8b ec		 mov	 ebp, esp
  00003	83 ec 14	 sub	 esp, 20			; 00000014H
  00006	b8 cc cc cc cc	 mov	 eax, -858993460		; ccccccccH
  0000b	89 45 ec	 mov	 DWORD PTR [ebp-20], eax
  0000e	89 45 f0	 mov	 DWORD PTR [ebp-16], eax
  00011	89 45 f4	 mov	 DWORD PTR [ebp-12], eax
  00014	89 45 f8	 mov	 DWORD PTR [ebp-8], eax
  00017	89 45 fc	 mov	 DWORD PTR [ebp-4], eax
  0001a	89 4d fc	 mov	 DWORD PTR _this$[ebp], ecx

; 213  : 	SThash_next **ppPrev=NULL;

  0001d	c7 45 f8 00 00
	00 00		 mov	 DWORD PTR _ppPrev$[ebp], 0

; 214  : 	SThash_next *pNext1, *pCur2;
; 215  : 
; 216  : 	pNext1 = m_pHashGroup->getNext(pKey1);

  00024	8b 45 08	 mov	 eax, DWORD PTR _pKey1$[ebp]
  00027	50		 push	 eax
  00028	8b 4d fc	 mov	 ecx, DWORD PTR _this$[ebp]
  0002b	8b 49 08	 mov	 ecx, DWORD PTR [ecx+8]
  0002e	e8 00 00 00 00	 call	 ?getNext@CHash@@QAEPAUSThash_next@@PAD@Z ; CHash::getNext
  00033	89 45 f4	 mov	 DWORD PTR _pNext1$[ebp], eax

; 217  : 
; 218  : 	if (pNext1) {

  00036	83 7d f4 00	 cmp	 DWORD PTR _pNext1$[ebp], 0
  0003a	74 7c		 je	 SHORT $LN2@deleteNode

; 219  : 		CHash *pHash = (CHash *)pNext1->pNode.value;

  0003c	8b 55 f4	 mov	 edx, DWORD PTR _pNext1$[ebp]
  0003f	8b 42 04	 mov	 eax, DWORD PTR [edx+4]
  00042	89 45 ec	 mov	 DWORD PTR _pHash$1[ebp], eax

; 220  : 		pCur2 = pHash->getNode(pKey2, ppPrev);

  00045	8b 4d f8	 mov	 ecx, DWORD PTR _ppPrev$[ebp]
  00048	51		 push	 ecx
  00049	8b 55 0c	 mov	 edx, DWORD PTR _pKey2$[ebp]
  0004c	52		 push	 edx
  0004d	8b 4d ec	 mov	 ecx, DWORD PTR _pHash$1[ebp]
  00050	e8 00 00 00 00	 call	 ?getNode@CHash@@QAEPAUSThash_next@@PADPAPAU2@@Z ; CHash::getNode
  00055	89 45 f0	 mov	 DWORD PTR _pCur2$[ebp], eax

; 221  : 		if (pCur2) {

  00058	83 7d f0 00	 cmp	 DWORD PTR _pCur2$[ebp], 0
  0005c	74 5a		 je	 SHORT $LN2@deleteNode

; 222  : 			*ppPrev = pCur2->next;  // NULL  .

  0005e	8b 45 f8	 mov	 eax, DWORD PTR _ppPrev$[ebp]
  00061	8b 4d f0	 mov	 ecx, DWORD PTR _pCur2$[ebp]
  00064	8b 51 08	 mov	 edx, DWORD PTR [ecx+8]
  00067	89 10		 mov	 DWORD PTR [eax], edx

; 223  : 			gs_pMMgr->delBuf(pCur2->pNode.pKey, STRING_SIZE(pCur2->pNode.pKey));	// key2  

  00069	8b 45 f0	 mov	 eax, DWORD PTR _pCur2$[ebp]
  0006c	8b 08		 mov	 ecx, DWORD PTR [eax]
  0006e	51		 push	 ecx
  0006f	e8 00 00 00 00	 call	 _strlen
  00074	83 c4 04	 add	 esp, 4
  00077	83 c0 01	 add	 eax, 1
  0007a	50		 push	 eax
  0007b	8b 55 f0	 mov	 edx, DWORD PTR _pCur2$[ebp]
  0007e	8b 02		 mov	 eax, DWORD PTR [edx]
  00080	50		 push	 eax
  00081	8b 0d 00 00 00
	00		 mov	 ecx, DWORD PTR ?gs_pMMgr@@3PAVCMemManager@@A ; gs_pMMgr
  00087	e8 00 00 00 00	 call	 ?delBuf@CMemManager@@QAEXPADH@Z ; CMemManager::delBuf

; 224  : 			if (m_bValInternal)delValueBuf((STValue *)pCur2->pNode.value);	// key2  value  

  0008c	8b 4d fc	 mov	 ecx, DWORD PTR _this$[ebp]
  0008f	0f b6 51 14	 movzx	 edx, BYTE PTR [ecx+20]
  00093	85 d2		 test	 edx, edx
  00095	74 0f		 je	 SHORT $LN4@deleteNode
  00097	8b 45 f0	 mov	 eax, DWORD PTR _pCur2$[ebp]
  0009a	8b 48 04	 mov	 ecx, DWORD PTR [eax+4]
  0009d	51		 push	 ecx
  0009e	8b 4d fc	 mov	 ecx, DWORD PTR _this$[ebp]
  000a1	e8 00 00 00 00	 call	 ?delValueBuf@CDKeyHashMap@@QAEXPAUSTValue@@@Z ; CDKeyHashMap::delValueBuf
$LN4@deleteNode:

; 225  : 			m_pHashNext->delMem(pCur2);										// key2,value,next  node 

  000a6	8b 55 f0	 mov	 edx, DWORD PTR _pCur2$[ebp]
  000a9	52		 push	 edx
  000aa	8b 45 fc	 mov	 eax, DWORD PTR _this$[ebp]
  000ad	8b 08		 mov	 ecx, DWORD PTR [eax]
  000af	e8 00 00 00 00	 call	 ?delMem@?$CBMemPool@USThash_next@@@@QAE_NPAUSThash_next@@@Z ; CBMemPool<SThash_next>::delMem

; 226  : 
; 227  : 			return true;

  000b4	b0 01		 mov	 al, 1
  000b6	eb 02		 jmp	 SHORT $LN1@deleteNode
$LN2@deleteNode:

; 228  : 		}
; 229  : 	}
; 230  : 	return false;

  000b8	32 c0		 xor	 al, al
$LN1@deleteNode:

; 231  : }

  000ba	83 c4 14	 add	 esp, 20			; 00000014H
  000bd	3b ec		 cmp	 ebp, esp
  000bf	e8 00 00 00 00	 call	 __RTC_CheckEsp
  000c4	8b e5		 mov	 esp, ebp
  000c6	5d		 pop	 ebp
  000c7	c2 08 00	 ret	 8
?deleteNode@CDKeyHashMap@@QAE_NPAD0@Z ENDP		; CDKeyHashMap::deleteNode
_TEXT	ENDS
; Function compile flags: /Odtp /RTCsu
; File e:\infinia-library-3.0\com\src\comdualkeyhash.cpp
_TEXT	SEGMENT
tv147 = -36						; size = 4
$T1 = -32						; size = 4
$T2 = -28						; size = 4
_j$ = -24						; size = 4
_pHash$ = -20						; size = 4
_pCur$ = -16						; size = 4
_pNext2$ = -12						; size = 4
_ppPrev$ = -8						; size = 4
_this$ = -4						; size = 4
_pKey1$ = 8						; size = 4
?deleteHash@CDKeyHashMap@@QAE_NPAD@Z PROC		; CDKeyHashMap::deleteHash
; _this$ = ecx

; 180  : {

  00000	55		 push	 ebp
  00001	8b ec		 mov	 ebp, esp
  00003	83 ec 24	 sub	 esp, 36			; 00000024H
  00006	b8 cc cc cc cc	 mov	 eax, -858993460		; ccccccccH
  0000b	89 45 dc	 mov	 DWORD PTR [ebp-36], eax
  0000e	89 45 e0	 mov	 DWORD PTR [ebp-32], eax
  00011	89 45 e4	 mov	 DWORD PTR [ebp-28], eax
  00014	89 45 e8	 mov	 DWORD PTR [ebp-24], eax
  00017	89 45 ec	 mov	 DWORD PTR [ebp-20], eax
  0001a	89 45 f0	 mov	 DWORD PTR [ebp-16], eax
  0001d	89 45 f4	 mov	 DWORD PTR [ebp-12], eax
  00020	89 45 f8	 mov	 DWORD PTR [ebp-8], eax
  00023	89 45 fc	 mov	 DWORD PTR [ebp-4], eax
  00026	89 4d fc	 mov	 DWORD PTR _this$[ebp], ecx

; 181  : 	SThash_next **ppPrev=NULL;

  00029	c7 45 f8 00 00
	00 00		 mov	 DWORD PTR _ppPrev$[ebp], 0

; 182  : 	SThash_next *pNext2;
; 183  : 	SThash_next *pCur = m_pHashGroup->getNode(pKey1, ppPrev);

  00030	8b 45 f8	 mov	 eax, DWORD PTR _ppPrev$[ebp]
  00033	50		 push	 eax
  00034	8b 4d 08	 mov	 ecx, DWORD PTR _pKey1$[ebp]
  00037	51		 push	 ecx
  00038	8b 55 fc	 mov	 edx, DWORD PTR _this$[ebp]
  0003b	8b 4a 08	 mov	 ecx, DWORD PTR [edx+8]
  0003e	e8 00 00 00 00	 call	 ?getNode@CHash@@QAEPAUSThash_next@@PADPAPAU2@@Z ; CHash::getNode
  00043	89 45 f0	 mov	 DWORD PTR _pCur$[ebp], eax

; 184  : 	CHash *pHash;
; 185  : 	unsigned int j;
; 186  : 
; 187  : 	if (pCur) {

  00046	83 7d f0 00	 cmp	 DWORD PTR _pCur$[ebp], 0
  0004a	0f 84 fe 00 00
	00		 je	 $LN7@deleteHash

; 188  : 		*ppPrev = pCur->next; // NULL  .

  00050	8b 45 f8	 mov	 eax, DWORD PTR _ppPrev$[ebp]
  00053	8b 4d f0	 mov	 ecx, DWORD PTR _pCur$[ebp]
  00056	8b 51 08	 mov	 edx, DWORD PTR [ecx+8]
  00059	89 10		 mov	 DWORD PTR [eax], edx

; 189  : 
; 190  : 		pHash = (CHash *)pCur->pNode.value;

  0005b	8b 45 f0	 mov	 eax, DWORD PTR _pCur$[ebp]
  0005e	8b 48 04	 mov	 ecx, DWORD PTR [eax+4]
  00061	89 4d ec	 mov	 DWORD PTR _pHash$[ebp], ecx

; 191  : 		for (j = 0; j < m_nMaxCount2; j++) {

  00064	c7 45 e8 00 00
	00 00		 mov	 DWORD PTR _j$[ebp], 0
  0006b	eb 09		 jmp	 SHORT $LN4@deleteHash
$LN2@deleteHash:
  0006d	8b 55 e8	 mov	 edx, DWORD PTR _j$[ebp]
  00070	83 c2 01	 add	 edx, 1
  00073	89 55 e8	 mov	 DWORD PTR _j$[ebp], edx
$LN4@deleteHash:
  00076	8b 45 fc	 mov	 eax, DWORD PTR _this$[ebp]
  00079	8b 4d e8	 mov	 ecx, DWORD PTR _j$[ebp]
  0007c	3b 48 10	 cmp	 ecx, DWORD PTR [eax+16]
  0007f	73 70		 jae	 SHORT $LN3@deleteHash

; 192  : 			pNext2 = pHash->getNext(j);

  00081	8b 55 e8	 mov	 edx, DWORD PTR _j$[ebp]
  00084	52		 push	 edx
  00085	8b 4d ec	 mov	 ecx, DWORD PTR _pHash$[ebp]
  00088	e8 00 00 00 00	 call	 ?getNext@CHash@@QAEPAUSThash_next@@I@Z ; CHash::getNext
  0008d	89 45 f4	 mov	 DWORD PTR _pNext2$[ebp], eax
$LN5@deleteHash:

; 193  : 			while (pNext2) {

  00090	83 7d f4 00	 cmp	 DWORD PTR _pNext2$[ebp], 0
  00094	74 56		 je	 SHORT $LN6@deleteHash

; 194  : 				gs_pMMgr->delBuf(pNext2->pNode.pKey, STRING_SIZE(pNext2->pNode.pKey));	// key2  

  00096	8b 45 f4	 mov	 eax, DWORD PTR _pNext2$[ebp]
  00099	8b 08		 mov	 ecx, DWORD PTR [eax]
  0009b	51		 push	 ecx
  0009c	e8 00 00 00 00	 call	 _strlen
  000a1	83 c4 04	 add	 esp, 4
  000a4	83 c0 01	 add	 eax, 1
  000a7	50		 push	 eax
  000a8	8b 55 f4	 mov	 edx, DWORD PTR _pNext2$[ebp]
  000ab	8b 02		 mov	 eax, DWORD PTR [edx]
  000ad	50		 push	 eax
  000ae	8b 0d 00 00 00
	00		 mov	 ecx, DWORD PTR ?gs_pMMgr@@3PAVCMemManager@@A ; gs_pMMgr
  000b4	e8 00 00 00 00	 call	 ?delBuf@CMemManager@@QAEXPADH@Z ; CMemManager::delBuf

; 195  : 				if (m_bValInternal) delValueBuf((STValue *)pNext2->pNode.value);	// key2  value  

  000b9	8b 4d fc	 mov	 ecx, DWORD PTR _this$[ebp]
  000bc	0f b6 51 14	 movzx	 edx, BYTE PTR [ecx+20]
  000c0	85 d2		 test	 edx, edx
  000c2	74 0f		 je	 SHORT $LN8@deleteHash
  000c4	8b 45 f4	 mov	 eax, DWORD PTR _pNext2$[ebp]
  000c7	8b 48 04	 mov	 ecx, DWORD PTR [eax+4]
  000ca	51		 push	 ecx
  000cb	8b 4d fc	 mov	 ecx, DWORD PTR _this$[ebp]
  000ce	e8 00 00 00 00	 call	 ?delValueBuf@CDKeyHashMap@@QAEXPAUSTValue@@@Z ; CDKeyHashMap::delValueBuf
$LN8@deleteHash:

; 196  : 				m_pHashNext->delMem(pNext2);										// key2,value,next  node 

  000d3	8b 55 f4	 mov	 edx, DWORD PTR _pNext2$[ebp]
  000d6	52		 push	 edx
  000d7	8b 45 fc	 mov	 eax, DWORD PTR _this$[ebp]
  000da	8b 08		 mov	 ecx, DWORD PTR [eax]
  000dc	e8 00 00 00 00	 call	 ?delMem@?$CBMemPool@USThash_next@@@@QAE_NPAUSThash_next@@@Z ; CBMemPool<SThash_next>::delMem

; 197  : 				pNext2 = pNext2->next;

  000e1	8b 4d f4	 mov	 ecx, DWORD PTR _pNext2$[ebp]
  000e4	8b 51 08	 mov	 edx, DWORD PTR [ecx+8]
  000e7	89 55 f4	 mov	 DWORD PTR _pNext2$[ebp], edx

; 198  : 			}

  000ea	eb a4		 jmp	 SHORT $LN5@deleteHash
$LN6@deleteHash:

; 199  : 		}

  000ec	e9 7c ff ff ff	 jmp	 $LN2@deleteHash
$LN3@deleteHash:

; 200  : 		gs_pMMgr->delBuf(pCur->pNode.pKey, STRING_SIZE(pCur->pNode.pKey));	// key1  

  000f1	8b 45 f0	 mov	 eax, DWORD PTR _pCur$[ebp]
  000f4	8b 08		 mov	 ecx, DWORD PTR [eax]
  000f6	51		 push	 ecx
  000f7	e8 00 00 00 00	 call	 _strlen
  000fc	83 c4 04	 add	 esp, 4
  000ff	83 c0 01	 add	 eax, 1
  00102	50		 push	 eax
  00103	8b 55 f0	 mov	 edx, DWORD PTR _pCur$[ebp]
  00106	8b 02		 mov	 eax, DWORD PTR [edx]
  00108	50		 push	 eax
  00109	8b 0d 00 00 00
	00		 mov	 ecx, DWORD PTR ?gs_pMMgr@@3PAVCMemManager@@A ; gs_pMMgr
  0010f	e8 00 00 00 00	 call	 ?delBuf@CMemManager@@QAEXPADH@Z ; CMemManager::delBuf

; 201  : 		delete pHash;															// key1  value  

  00114	8b 4d ec	 mov	 ecx, DWORD PTR _pHash$[ebp]
  00117	89 4d e0	 mov	 DWORD PTR $T1[ebp], ecx
  0011a	8b 55 e0	 mov	 edx, DWORD PTR $T1[ebp]
  0011d	89 55 e4	 mov	 DWORD PTR $T2[ebp], edx
  00120	83 7d e4 00	 cmp	 DWORD PTR $T2[ebp], 0
  00124	74 0f		 je	 SHORT $LN10@deleteHash
  00126	6a 01		 push	 1
  00128	8b 4d e4	 mov	 ecx, DWORD PTR $T2[ebp]
  0012b	e8 00 00 00 00	 call	 ??_GCHash@@QAEPAXI@Z
  00130	89 45 dc	 mov	 DWORD PTR tv147[ebp], eax
  00133	eb 07		 jmp	 SHORT $LN11@deleteHash
$LN10@deleteHash:
  00135	c7 45 dc 00 00
	00 00		 mov	 DWORD PTR tv147[ebp], 0
$LN11@deleteHash:

; 202  : 		m_pHashNext->delMem(pCur);												// key1,value,next  node 

  0013c	8b 45 f0	 mov	 eax, DWORD PTR _pCur$[ebp]
  0013f	50		 push	 eax
  00140	8b 4d fc	 mov	 ecx, DWORD PTR _this$[ebp]
  00143	8b 09		 mov	 ecx, DWORD PTR [ecx]
  00145	e8 00 00 00 00	 call	 ?delMem@?$CBMemPool@USThash_next@@@@QAE_NPAUSThash_next@@@Z ; CBMemPool<SThash_next>::delMem

; 203  : 
; 204  : 		return true;

  0014a	b0 01		 mov	 al, 1
  0014c	eb 02		 jmp	 SHORT $LN1@deleteHash
$LN7@deleteHash:

; 205  : 	}		
; 206  : 	return false;

  0014e	32 c0		 xor	 al, al
$LN1@deleteHash:

; 207  : }

  00150	83 c4 24	 add	 esp, 36			; 00000024H
  00153	3b ec		 cmp	 ebp, esp
  00155	e8 00 00 00 00	 call	 __RTC_CheckEsp
  0015a	8b e5		 mov	 esp, ebp
  0015c	5d		 pop	 ebp
  0015d	c2 04 00	 ret	 4
?deleteHash@CDKeyHashMap@@QAE_NPAD@Z ENDP		; CDKeyHashMap::deleteHash
_TEXT	ENDS
; Function compile flags: /Odtp /RTCsu
; File e:\infinia-library-3.0\com\src\comdualkeyhash.cpp
_TEXT	SEGMENT
_pNode$ = -12						; size = 4
_pHash$ = -8						; size = 4
_this$ = -4						; size = 4
_pKey1$ = 8						; size = 4
_pKey2$ = 12						; size = 4
_pValue$ = 16						; size = 4
?setValue@CDKeyHashMap@@QAEHPAD0PAX@Z PROC		; CDKeyHashMap::setValue
; _this$ = ecx

; 137  : {

  00000	55		 push	 ebp
  00001	8b ec		 mov	 ebp, esp
  00003	83 ec 0c	 sub	 esp, 12			; 0000000cH
  00006	c7 45 f4 cc cc
	cc cc		 mov	 DWORD PTR [ebp-12], -858993460 ; ccccccccH
  0000d	c7 45 f8 cc cc
	cc cc		 mov	 DWORD PTR [ebp-8], -858993460 ; ccccccccH
  00014	c7 45 fc cc cc
	cc cc		 mov	 DWORD PTR [ebp-4], -858993460 ; ccccccccH
  0001b	89 4d fc	 mov	 DWORD PTR _this$[ebp], ecx

; 138  : 	CHash *pHash;
; 139  : 	STHash_Node *pNode = m_pHashGroup->hashLookup(pKey1);

  0001e	8b 45 08	 mov	 eax, DWORD PTR _pKey1$[ebp]
  00021	50		 push	 eax
  00022	8b 4d fc	 mov	 ecx, DWORD PTR _this$[ebp]
  00025	8b 49 08	 mov	 ecx, DWORD PTR [ecx+8]
  00028	e8 00 00 00 00	 call	 ?hashLookup@CHash@@QAEPAUSTHash_Node@@PAD@Z ; CHash::hashLookup
  0002d	89 45 f4	 mov	 DWORD PTR _pNode$[ebp], eax

; 140  : 	if (pNode) {

  00030	83 7d f4 00	 cmp	 DWORD PTR _pNode$[ebp], 0
  00034	74 43		 je	 SHORT $LN2@setValue

; 141  : 		pHash = (CHash *)pNode->value;

  00036	8b 55 f4	 mov	 edx, DWORD PTR _pNode$[ebp]
  00039	8b 42 04	 mov	 eax, DWORD PTR [edx+4]
  0003c	89 45 f8	 mov	 DWORD PTR _pHash$[ebp], eax

; 142  : 		pNode = pHash->hashLookup(pKey2);

  0003f	8b 4d 0c	 mov	 ecx, DWORD PTR _pKey2$[ebp]
  00042	51		 push	 ecx
  00043	8b 4d f8	 mov	 ecx, DWORD PTR _pHash$[ebp]
  00046	e8 00 00 00 00	 call	 ?hashLookup@CHash@@QAEPAUSTHash_Node@@PAD@Z ; CHash::hashLookup
  0004b	89 45 f4	 mov	 DWORD PTR _pNode$[ebp], eax

; 143  : 		if (pNode) {

  0004e	83 7d f4 00	 cmp	 DWORD PTR _pNode$[ebp], 0
  00052	74 25		 je	 SHORT $LN2@setValue

; 144  : 			if (pNode->value) { delValueBuf((STValue *)pNode->value); }

  00054	8b 55 f4	 mov	 edx, DWORD PTR _pNode$[ebp]
  00057	83 7a 04 00	 cmp	 DWORD PTR [edx+4], 0
  0005b	74 0f		 je	 SHORT $LN4@setValue
  0005d	8b 45 f4	 mov	 eax, DWORD PTR _pNode$[ebp]
  00060	8b 48 04	 mov	 ecx, DWORD PTR [eax+4]
  00063	51		 push	 ecx
  00064	8b 4d fc	 mov	 ecx, DWORD PTR _this$[ebp]
  00067	e8 00 00 00 00	 call	 ?delValueBuf@CDKeyHashMap@@QAEXPAUSTValue@@@Z ; CDKeyHashMap::delValueBuf
$LN4@setValue:

; 145  : 			pNode->value = pValue; 

  0006c	8b 55 f4	 mov	 edx, DWORD PTR _pNode$[ebp]
  0006f	8b 45 10	 mov	 eax, DWORD PTR _pValue$[ebp]
  00072	89 42 04	 mov	 DWORD PTR [edx+4], eax

; 146  : 			return eHASH_RESULT_SUCESS;

  00075	33 c0		 xor	 eax, eax
  00077	eb 05		 jmp	 SHORT $LN1@setValue
$LN2@setValue:

; 147  : 		}
; 148  : 	}
; 149  : 	return eHASH_RESULT_INVALID_KEY;

  00079	b8 fd ff ff ff	 mov	 eax, -3			; fffffffdH
$LN1@setValue:

; 150  : }

  0007e	83 c4 0c	 add	 esp, 12			; 0000000cH
  00081	3b ec		 cmp	 ebp, esp
  00083	e8 00 00 00 00	 call	 __RTC_CheckEsp
  00088	8b e5		 mov	 esp, ebp
  0008a	5d		 pop	 ebp
  0008b	c2 0c 00	 ret	 12			; 0000000cH
?setValue@CDKeyHashMap@@QAEHPAD0PAX@Z ENDP		; CDKeyHashMap::setValue
_TEXT	ENDS
; Function compile flags: /Odtp /RTCsu
; File e:\infinia-library-3.0\com\src\comdualkeyhash.cpp
_TEXT	SEGMENT
_nRes$ = -24						; size = 4
_pHash$ = -16						; size = 4
_this$ = -8						; size = 4
__$ArrayPad$ = -4					; size = 4
_pKey1$ = 8						; size = 4
_pKey2$ = 12						; size = 4
_pValue$ = 16						; size = 4
_pHashValue$ = 20					; size = 4
?addKeyValue@CDKeyHashMap@@QAEHPAD0PAX1@Z PROC		; CDKeyHashMap::addKeyValue
; _this$ = ecx

; 123  : {

  00000	55		 push	 ebp
  00001	8b ec		 mov	 ebp, esp
  00003	83 ec 18	 sub	 esp, 24			; 00000018H
  00006	b8 cc cc cc cc	 mov	 eax, -858993460		; ccccccccH
  0000b	89 45 e8	 mov	 DWORD PTR [ebp-24], eax
  0000e	89 45 ec	 mov	 DWORD PTR [ebp-20], eax
  00011	89 45 f0	 mov	 DWORD PTR [ebp-16], eax
  00014	89 45 f4	 mov	 DWORD PTR [ebp-12], eax
  00017	89 45 f8	 mov	 DWORD PTR [ebp-8], eax
  0001a	89 45 fc	 mov	 DWORD PTR [ebp-4], eax
  0001d	a1 00 00 00 00	 mov	 eax, DWORD PTR ___security_cookie
  00022	33 c5		 xor	 eax, ebp
  00024	89 45 fc	 mov	 DWORD PTR __$ArrayPad$[ebp], eax
  00027	89 4d f8	 mov	 DWORD PTR _this$[ebp], ecx

; 124  : 	CHash *pHash;
; 125  : 	int nRes; // 1. key2's hashKey -> 2. nRes
; 126  : 	nRes = addKey(pKey1, pKey2, &pHash);

  0002a	6a 00		 push	 0
  0002c	8d 45 f0	 lea	 eax, DWORD PTR _pHash$[ebp]
  0002f	50		 push	 eax
  00030	8b 4d 0c	 mov	 ecx, DWORD PTR _pKey2$[ebp]
  00033	51		 push	 ecx
  00034	8b 55 08	 mov	 edx, DWORD PTR _pKey1$[ebp]
  00037	52		 push	 edx
  00038	8b 4d f8	 mov	 ecx, DWORD PTR _this$[ebp]
  0003b	e8 00 00 00 00	 call	 ?addKey@CDKeyHashMap@@QAEHPAD0PAPAVCHash@@PAX@Z ; CDKeyHashMap::addKey
  00040	89 45 e8	 mov	 DWORD PTR _nRes$[ebp], eax

; 127  : 	if (pHash) {

  00043	83 7d f0 00	 cmp	 DWORD PTR _pHash$[ebp], 0
  00047	74 2f		 je	 SHORT $LN2@addKeyValu

; 128  : 		if(pHashValue) pHash->setHashValue(pHashValue);

  00049	83 7d 14 00	 cmp	 DWORD PTR _pHashValue$[ebp], 0
  0004d	74 0c		 je	 SHORT $LN3@addKeyValu
  0004f	8b 45 14	 mov	 eax, DWORD PTR _pHashValue$[ebp]
  00052	50		 push	 eax
  00053	8b 4d f0	 mov	 ecx, DWORD PTR _pHash$[ebp]
  00056	e8 00 00 00 00	 call	 ?setHashValue@CHash@@QAEXPAX@Z ; CHash::setHashValue
$LN3@addKeyValu:

; 129  : 		if (nRes >= 0) {

  0005b	83 7d e8 00	 cmp	 DWORD PTR _nRes$[ebp], 0
  0005f	7c 17		 jl	 SHORT $LN2@addKeyValu

; 130  : 			nRes = pHash->setValue(nRes, pKey2, pValue);

  00061	8b 4d 10	 mov	 ecx, DWORD PTR _pValue$[ebp]
  00064	51		 push	 ecx
  00065	8b 55 0c	 mov	 edx, DWORD PTR _pKey2$[ebp]
  00068	52		 push	 edx
  00069	8b 45 e8	 mov	 eax, DWORD PTR _nRes$[ebp]
  0006c	50		 push	 eax
  0006d	8b 4d f0	 mov	 ecx, DWORD PTR _pHash$[ebp]
  00070	e8 00 00 00 00	 call	 ?setValue@CHash@@QAE?AW4HASH_RETURN_CODE@@IPADPAX@Z ; CHash::setValue
  00075	89 45 e8	 mov	 DWORD PTR _nRes$[ebp], eax
$LN2@addKeyValu:

; 131  : 		}
; 132  : 	}
; 133  : 	return nRes;

  00078	8b 45 e8	 mov	 eax, DWORD PTR _nRes$[ebp]

; 134  : }

  0007b	52		 push	 edx
  0007c	8b cd		 mov	 ecx, ebp
  0007e	50		 push	 eax
  0007f	8d 15 00 00 00
	00		 lea	 edx, DWORD PTR $LN8@addKeyValu
  00085	e8 00 00 00 00	 call	 @_RTC_CheckStackVars@8
  0008a	58		 pop	 eax
  0008b	5a		 pop	 edx
  0008c	8b 4d fc	 mov	 ecx, DWORD PTR __$ArrayPad$[ebp]
  0008f	33 cd		 xor	 ecx, ebp
  00091	e8 00 00 00 00	 call	 @__security_check_cookie@4
  00096	83 c4 18	 add	 esp, 24			; 00000018H
  00099	3b ec		 cmp	 ebp, esp
  0009b	e8 00 00 00 00	 call	 __RTC_CheckEsp
  000a0	8b e5		 mov	 esp, ebp
  000a2	5d		 pop	 ebp
  000a3	c2 10 00	 ret	 16			; 00000010H
  000a6	66 90		 npad	 2
$LN8@addKeyValu:
  000a8	01 00 00 00	 DD	 1
  000ac	00 00 00 00	 DD	 $LN7@addKeyValu
$LN7@addKeyValu:
  000b0	f0 ff ff ff	 DD	 -16			; fffffff0H
  000b4	04 00 00 00	 DD	 4
  000b8	00 00 00 00	 DD	 $LN6@addKeyValu
$LN6@addKeyValu:
  000bc	70		 DB	 112			; 00000070H
  000bd	48		 DB	 72			; 00000048H
  000be	61		 DB	 97			; 00000061H
  000bf	73		 DB	 115			; 00000073H
  000c0	68		 DB	 104			; 00000068H
  000c1	00		 DB	 0
?addKeyValue@CDKeyHashMap@@QAEHPAD0PAX1@Z ENDP		; CDKeyHashMap::addKeyValue
_TEXT	ENDS
; Function compile flags: /Odtp /RTCsu
; File e:\infinia-library-3.0\com\src\comdualkeyhash.cpp
_TEXT	SEGMENT
tv95 = -52						; size = 4
$T2 = -48						; size = 4
$T3 = -44						; size = 4
_pNode$ = -40						; size = 4
_nRes2$ = -36						; size = 4
_nRes1$ = -32						; size = 4
_pBuf$ = -28						; size = 4
_pHash$ = -24						; size = 4
_pNext$ = -20						; size = 4
_this$ = -16						; size = 4
__$EHRec$ = -12						; size = 12
_pKey1$ = 8						; size = 4
_pKey2$ = 12						; size = 4
_pTarget$ = 16						; size = 4
_pHashValue$ = 20					; size = 4
?addKey@CDKeyHashMap@@QAEHPAD0PAPAVCHash@@PAX@Z PROC	; CDKeyHashMap::addKey
; _this$ = ecx

; 75   : {

  00000	55		 push	 ebp
  00001	8b ec		 mov	 ebp, esp
  00003	6a ff		 push	 -1
  00005	68 00 00 00 00	 push	 __ehhandler$?addKey@CDKeyHashMap@@QAEHPAD0PAPAVCHash@@PAX@Z
  0000a	64 a1 00 00 00
	00		 mov	 eax, DWORD PTR fs:0
  00010	50		 push	 eax
  00011	83 ec 28	 sub	 esp, 40			; 00000028H
  00014	57		 push	 edi
  00015	51		 push	 ecx
  00016	8d 7d cc	 lea	 edi, DWORD PTR [ebp-52]
  00019	b9 0a 00 00 00	 mov	 ecx, 10			; 0000000aH
  0001e	b8 cc cc cc cc	 mov	 eax, -858993460		; ccccccccH
  00023	f3 ab		 rep stosd
  00025	59		 pop	 ecx
  00026	a1 00 00 00 00	 mov	 eax, DWORD PTR ___security_cookie
  0002b	33 c5		 xor	 eax, ebp
  0002d	50		 push	 eax
  0002e	8d 45 f4	 lea	 eax, DWORD PTR __$EHRec$[ebp]
  00031	64 a3 00 00 00
	00		 mov	 DWORD PTR fs:0, eax
  00037	89 4d f0	 mov	 DWORD PTR _this$[ebp], ecx

; 76   : 	SThash_next *pNext;
; 77   : 	CHash *pHash;
; 78   : 	TCHAR *pBuf;
; 79   : 	int nRes1=0, nRes2=0;

  0003a	c7 45 e0 00 00
	00 00		 mov	 DWORD PTR _nRes1$[ebp], 0
  00041	c7 45 dc 00 00
	00 00		 mov	 DWORD PTR _nRes2$[ebp], 0

; 80   : 
; 81   : 
; 82   : 	STHash_Node *pNode = m_pHashGroup->hashLookup(pKey1);

  00048	8b 45 08	 mov	 eax, DWORD PTR _pKey1$[ebp]
  0004b	50		 push	 eax
  0004c	8b 4d f0	 mov	 ecx, DWORD PTR _this$[ebp]
  0004f	8b 49 08	 mov	 ecx, DWORD PTR [ecx+8]
  00052	e8 00 00 00 00	 call	 ?hashLookup@CHash@@QAEPAUSTHash_Node@@PAD@Z ; CHash::hashLookup
  00057	89 45 d8	 mov	 DWORD PTR _pNode$[ebp], eax

; 83   : 	if (pNode) {

  0005a	83 7d d8 00	 cmp	 DWORD PTR _pNode$[ebp], 0
  0005e	74 49		 je	 SHORT $LN2@addKey

; 84   : 		pHash = (CHash *)pNode->value;

  00060	8b 55 d8	 mov	 edx, DWORD PTR _pNode$[ebp]
  00063	8b 42 04	 mov	 eax, DWORD PTR [edx+4]
  00066	89 45 e8	 mov	 DWORD PTR _pHash$[ebp], eax

; 85   : 		if (pHash->hashLookup(pKey2)) {

  00069	8b 4d 0c	 mov	 ecx, DWORD PTR _pKey2$[ebp]
  0006c	51		 push	 ecx
  0006d	8b 4d e8	 mov	 ecx, DWORD PTR _pHash$[ebp]
  00070	e8 00 00 00 00	 call	 ?hashLookup@CHash@@QAEPAUSTHash_Node@@PAD@Z ; CHash::hashLookup
  00075	85 c0		 test	 eax, eax
  00077	74 2b		 je	 SHORT $LN4@addKey

; 86   : 			gs_cLogger.DebugLog(LEVEL_ERROR, "DUPLICATE_KEYS pKey1[%s] pHash->hashLookup(pKey2[%s])", pKey1, pKey2);

  00079	8b 55 0c	 mov	 edx, DWORD PTR _pKey2$[ebp]
  0007c	52		 push	 edx
  0007d	8b 45 08	 mov	 eax, DWORD PTR _pKey1$[ebp]
  00080	50		 push	 eax
  00081	68 00 00 00 00	 push	 OFFSET $SG45114
  00086	6a 56		 push	 86			; 00000056H
  00088	68 00 00 00 00	 push	 OFFSET $SG45115
  0008d	6a 05		 push	 5
  0008f	68 00 00 00 00	 push	 OFFSET ?gs_cLogger@@3VCLogger@@A ; gs_cLogger
  00094	e8 00 00 00 00	 call	 ?__debugLog@CLogger@@QAAXHPBDH0ZZ ; CLogger::__debugLog
  00099	83 c4 1c	 add	 esp, 28			; 0000001cH

; 87   : 			return eHASH_RESULT_DUPLICATE_KEYS;

  0009c	83 c8 ff	 or	 eax, -1
  0009f	e9 e9 01 00 00	 jmp	 $LN1@addKey
$LN4@addKey:

; 88   : 		}
; 89   : 	}
; 90   : 	else {

  000a4	e9 2d 01 00 00	 jmp	 $LN3@addKey
$LN2@addKey:

; 91   : 		pHash = new (std::nothrow)CHash(m_nMaxCount2);					// key1  value  

  000a9	68 00 00 00 00	 push	 OFFSET ?nothrow@std@@3Unothrow_t@1@B ; std::nothrow
  000ae	6a 10		 push	 16			; 00000010H
  000b0	e8 00 00 00 00	 call	 ??2@YAPAXIABUnothrow_t@std@@@Z ; operator new
  000b5	83 c4 08	 add	 esp, 8
  000b8	89 45 d0	 mov	 DWORD PTR $T2[ebp], eax
  000bb	c7 45 fc 00 00
	00 00		 mov	 DWORD PTR __$EHRec$[ebp+8], 0
  000c2	83 7d d0 00	 cmp	 DWORD PTR $T2[ebp], 0
  000c6	74 14		 je	 SHORT $LN15@addKey
  000c8	8b 4d f0	 mov	 ecx, DWORD PTR _this$[ebp]
  000cb	8b 51 10	 mov	 edx, DWORD PTR [ecx+16]
  000ce	52		 push	 edx
  000cf	8b 4d d0	 mov	 ecx, DWORD PTR $T2[ebp]
  000d2	e8 00 00 00 00	 call	 ??0CHash@@QAE@I@Z	; CHash::CHash
  000d7	89 45 cc	 mov	 DWORD PTR tv95[ebp], eax
  000da	eb 07		 jmp	 SHORT $LN16@addKey
$LN15@addKey:
  000dc	c7 45 cc 00 00
	00 00		 mov	 DWORD PTR tv95[ebp], 0
$LN16@addKey:
  000e3	8b 45 cc	 mov	 eax, DWORD PTR tv95[ebp]
  000e6	89 45 d4	 mov	 DWORD PTR $T3[ebp], eax
  000e9	c7 45 fc ff ff
	ff ff		 mov	 DWORD PTR __$EHRec$[ebp+8], -1
  000f0	8b 4d d4	 mov	 ecx, DWORD PTR $T3[ebp]
  000f3	89 4d e8	 mov	 DWORD PTR _pHash$[ebp], ecx

; 92   : 		if (!pHash) return eHASH_RESULT_FAIL_ALLOCATION;

  000f6	83 7d e8 00	 cmp	 DWORD PTR _pHash$[ebp], 0
  000fa	75 0a		 jne	 SHORT $LN5@addKey
  000fc	b8 fb ff ff ff	 mov	 eax, -5			; fffffffbH
  00101	e9 87 01 00 00	 jmp	 $LN1@addKey
$LN5@addKey:

; 93   : 		pNext = m_pHashNext->newMem();						// key1,value,next  node 

  00106	8b 55 f0	 mov	 edx, DWORD PTR _this$[ebp]
  00109	8b 0a		 mov	 ecx, DWORD PTR [edx]
  0010b	e8 00 00 00 00	 call	 ?newMem@?$CBMemPool@USThash_next@@@@QAEPAUSThash_next@@XZ ; CBMemPool<SThash_next>::newMem
  00110	89 45 ec	 mov	 DWORD PTR _pNext$[ebp], eax

; 94   : 		if(!pNext) return eHASH_RESULT_FAIL_ALLOCATION;

  00113	83 7d ec 00	 cmp	 DWORD PTR _pNext$[ebp], 0
  00117	75 0a		 jne	 SHORT $LN6@addKey
  00119	b8 fb ff ff ff	 mov	 eax, -5			; fffffffbH
  0011e	e9 6a 01 00 00	 jmp	 $LN1@addKey
$LN6@addKey:

; 95   : 		pBuf = (TCHAR*)gs_pMMgr->newBuf(STRING_SIZE(pKey1));				// key1  

  00123	8b 45 08	 mov	 eax, DWORD PTR _pKey1$[ebp]
  00126	50		 push	 eax
  00127	e8 00 00 00 00	 call	 _strlen
  0012c	83 c4 04	 add	 esp, 4
  0012f	83 c0 01	 add	 eax, 1
  00132	50		 push	 eax
  00133	8b 0d 00 00 00
	00		 mov	 ecx, DWORD PTR ?gs_pMMgr@@3PAVCMemManager@@A ; gs_pMMgr
  00139	e8 00 00 00 00	 call	 ?newBuf@CMemManager@@QAEPADH@Z ; CMemManager::newBuf
  0013e	89 45 e4	 mov	 DWORD PTR _pBuf$[ebp], eax

; 96   : 		if(!pBuf) return eHASH_RESULT_FAIL_ALLOCATION;

  00141	83 7d e4 00	 cmp	 DWORD PTR _pBuf$[ebp], 0
  00145	75 0a		 jne	 SHORT $LN7@addKey
  00147	b8 fb ff ff ff	 mov	 eax, -5			; fffffffbH
  0014c	e9 3c 01 00 00	 jmp	 $LN1@addKey
$LN7@addKey:

; 97   : 		_tcscpy(pBuf, pKey1);

  00151	8b 4d 08	 mov	 ecx, DWORD PTR _pKey1$[ebp]
  00154	51		 push	 ecx
  00155	8b 55 e4	 mov	 edx, DWORD PTR _pBuf$[ebp]
  00158	52		 push	 edx
  00159	e8 00 00 00 00	 call	 _strcpy
  0015e	83 c4 08	 add	 esp, 8

; 98   : 		nRes1 = m_pHashGroup->addNode(pNext, pBuf, (void *)pHash);	// 1  

  00161	8b 45 e8	 mov	 eax, DWORD PTR _pHash$[ebp]
  00164	50		 push	 eax
  00165	8b 4d e4	 mov	 ecx, DWORD PTR _pBuf$[ebp]
  00168	51		 push	 ecx
  00169	8b 55 ec	 mov	 edx, DWORD PTR _pNext$[ebp]
  0016c	52		 push	 edx
  0016d	8b 45 f0	 mov	 eax, DWORD PTR _this$[ebp]
  00170	8b 48 08	 mov	 ecx, DWORD PTR [eax+8]
  00173	e8 00 00 00 00	 call	 ?addNode@CHash@@QAEHPAUSThash_next@@PADPAX@Z ; CHash::addNode
  00178	89 45 e0	 mov	 DWORD PTR _nRes1$[ebp], eax

; 99   : 		if (nRes1 < 0) {

  0017b	83 7d e0 00	 cmp	 DWORD PTR _nRes1$[ebp], 0
  0017f	7d 32		 jge	 SHORT $LN8@addKey

; 100  : 			gs_cLogger.DebugLog(LEVEL_ERROR, "errorNo[%d] new CHash(max:%d) key1:%s", nRes1, m_nMaxCount2, pBuf);

  00181	8b 4d e4	 mov	 ecx, DWORD PTR _pBuf$[ebp]
  00184	51		 push	 ecx
  00185	8b 55 f0	 mov	 edx, DWORD PTR _this$[ebp]
  00188	8b 42 10	 mov	 eax, DWORD PTR [edx+16]
  0018b	50		 push	 eax
  0018c	8b 4d e0	 mov	 ecx, DWORD PTR _nRes1$[ebp]
  0018f	51		 push	 ecx
  00190	68 00 00 00 00	 push	 OFFSET $SG45121
  00195	6a 64		 push	 100			; 00000064H
  00197	68 00 00 00 00	 push	 OFFSET $SG45122
  0019c	6a 05		 push	 5
  0019e	68 00 00 00 00	 push	 OFFSET ?gs_cLogger@@3VCLogger@@A ; gs_cLogger
  001a3	e8 00 00 00 00	 call	 ?__debugLog@CLogger@@QAAXHPBDH0ZZ ; CLogger::__debugLog
  001a8	83 c4 20	 add	 esp, 32			; 00000020H

; 101  : 			return nRes1;

  001ab	8b 45 e0	 mov	 eax, DWORD PTR _nRes1$[ebp]
  001ae	e9 da 00 00 00	 jmp	 $LN1@addKey
$LN8@addKey:

; 102  : 		}
; 103  : 		gs_cLogger.PutLogQueue(LEVEL_DEBUG, _T("new CHash(max:%d) key1:%s hashNo[%d]"), m_nMaxCount2, pBuf, nRes1);

  001b3	8b 55 e0	 mov	 edx, DWORD PTR _nRes1$[ebp]
  001b6	52		 push	 edx
  001b7	8b 45 e4	 mov	 eax, DWORD PTR _pBuf$[ebp]
  001ba	50		 push	 eax
  001bb	8b 4d f0	 mov	 ecx, DWORD PTR _this$[ebp]
  001be	8b 51 10	 mov	 edx, DWORD PTR [ecx+16]
  001c1	52		 push	 edx
  001c2	68 00 00 00 00	 push	 OFFSET $SG45123
  001c7	6a 01		 push	 1
  001c9	68 00 00 00 00	 push	 OFFSET ?gs_cLogger@@3VCLogger@@A ; gs_cLogger
  001ce	e8 00 00 00 00	 call	 ?PutLogQueue@CLogger@@QAAXHPBDZZ ; CLogger::PutLogQueue
  001d3	83 c4 18	 add	 esp, 24			; 00000018H
$LN3@addKey:

; 104  : 	}
; 105  : 
; 106  : 	pNext = m_pHashNext->newMem();						// key2, value, next  node 

  001d6	8b 45 f0	 mov	 eax, DWORD PTR _this$[ebp]
  001d9	8b 08		 mov	 ecx, DWORD PTR [eax]
  001db	e8 00 00 00 00	 call	 ?newMem@?$CBMemPool@USThash_next@@@@QAEPAUSThash_next@@XZ ; CBMemPool<SThash_next>::newMem
  001e0	89 45 ec	 mov	 DWORD PTR _pNext$[ebp], eax

; 107  : 	if (!pNext) return eHASH_RESULT_FAIL_ALLOCATION;

  001e3	83 7d ec 00	 cmp	 DWORD PTR _pNext$[ebp], 0
  001e7	75 0a		 jne	 SHORT $LN9@addKey
  001e9	b8 fb ff ff ff	 mov	 eax, -5			; fffffffbH
  001ee	e9 9a 00 00 00	 jmp	 $LN1@addKey
$LN9@addKey:

; 108  : 	pBuf = (TCHAR*)gs_pMMgr->newBuf(STRING_SIZE(pKey2));				// key2  

  001f3	8b 4d 0c	 mov	 ecx, DWORD PTR _pKey2$[ebp]
  001f6	51		 push	 ecx
  001f7	e8 00 00 00 00	 call	 _strlen
  001fc	83 c4 04	 add	 esp, 4
  001ff	83 c0 01	 add	 eax, 1
  00202	50		 push	 eax
  00203	8b 0d 00 00 00
	00		 mov	 ecx, DWORD PTR ?gs_pMMgr@@3PAVCMemManager@@A ; gs_pMMgr
  00209	e8 00 00 00 00	 call	 ?newBuf@CMemManager@@QAEPADH@Z ; CMemManager::newBuf
  0020e	89 45 e4	 mov	 DWORD PTR _pBuf$[ebp], eax

; 109  : 	if (!pBuf) return eHASH_RESULT_FAIL_ALLOCATION;

  00211	83 7d e4 00	 cmp	 DWORD PTR _pBuf$[ebp], 0
  00215	75 07		 jne	 SHORT $LN10@addKey
  00217	b8 fb ff ff ff	 mov	 eax, -5			; fffffffbH
  0021c	eb 6f		 jmp	 SHORT $LN1@addKey
$LN10@addKey:

; 110  : 	_tcscpy(pBuf, pKey2);

  0021e	8b 55 0c	 mov	 edx, DWORD PTR _pKey2$[ebp]
  00221	52		 push	 edx
  00222	8b 45 e4	 mov	 eax, DWORD PTR _pBuf$[ebp]
  00225	50		 push	 eax
  00226	e8 00 00 00 00	 call	 _strcpy
  0022b	83 c4 08	 add	 esp, 8

; 111  : 	if (pHashValue) pHash->setHashValue(pHashValue);

  0022e	83 7d 14 00	 cmp	 DWORD PTR _pHashValue$[ebp], 0
  00232	74 0c		 je	 SHORT $LN11@addKey
  00234	8b 4d 14	 mov	 ecx, DWORD PTR _pHashValue$[ebp]
  00237	51		 push	 ecx
  00238	8b 4d e8	 mov	 ecx, DWORD PTR _pHash$[ebp]
  0023b	e8 00 00 00 00	 call	 ?setHashValue@CHash@@QAEXPAX@Z ; CHash::setHashValue
$LN11@addKey:

; 112  : 	if(pTarget) *pTarget = pHash;

  00240	83 7d 10 00	 cmp	 DWORD PTR _pTarget$[ebp], 0
  00244	74 08		 je	 SHORT $LN12@addKey
  00246	8b 55 10	 mov	 edx, DWORD PTR _pTarget$[ebp]
  00249	8b 45 e8	 mov	 eax, DWORD PTR _pHash$[ebp]
  0024c	89 02		 mov	 DWORD PTR [edx], eax
$LN12@addKey:

; 113  : 	// 2   (key2  value   )
; 114  : 	nRes2 = pHash->addNode(pNext, pBuf); // 2   (key2  value   )

  0024e	6a 00		 push	 0
  00250	8b 4d e4	 mov	 ecx, DWORD PTR _pBuf$[ebp]
  00253	51		 push	 ecx
  00254	8b 55 ec	 mov	 edx, DWORD PTR _pNext$[ebp]
  00257	52		 push	 edx
  00258	8b 4d e8	 mov	 ecx, DWORD PTR _pHash$[ebp]
  0025b	e8 00 00 00 00	 call	 ?addNode@CHash@@QAEHPAUSThash_next@@PADPAX@Z ; CHash::addNode
  00260	89 45 dc	 mov	 DWORD PTR _nRes2$[ebp], eax

; 115  : 	if (nRes2 < 0) {

  00263	83 7d dc 00	 cmp	 DWORD PTR _nRes2$[ebp], 0
  00267	7d 21		 jge	 SHORT $LN13@addKey

; 116  : 		gs_cLogger.PutQueue(LEVEL_ERROR, "errorNo[%d] pHash->addNode(pNext, %s)", nRes2, pBuf);

  00269	8b 45 e4	 mov	 eax, DWORD PTR _pBuf$[ebp]
  0026c	50		 push	 eax
  0026d	8b 4d dc	 mov	 ecx, DWORD PTR _nRes2$[ebp]
  00270	51		 push	 ecx
  00271	68 00 00 00 00	 push	 OFFSET $SG45129
  00276	6a 05		 push	 5
  00278	68 00 00 00 00	 push	 OFFSET ?gs_cLogger@@3VCLogger@@A ; gs_cLogger
  0027d	e8 00 00 00 00	 call	 ?PutLogQueue@CLogger@@QAAXHPBDZZ ; CLogger::PutLogQueue
  00282	83 c4 14	 add	 esp, 20			; 00000014H

; 117  : 		return nRes2;

  00285	8b 45 dc	 mov	 eax, DWORD PTR _nRes2$[ebp]
  00288	eb 03		 jmp	 SHORT $LN1@addKey
$LN13@addKey:

; 118  : 	}
; 119  : 	return nRes2;

  0028a	8b 45 dc	 mov	 eax, DWORD PTR _nRes2$[ebp]
$LN1@addKey:

; 120  : }

  0028d	8b 4d f4	 mov	 ecx, DWORD PTR __$EHRec$[ebp]
  00290	64 89 0d 00 00
	00 00		 mov	 DWORD PTR fs:0, ecx
  00297	59		 pop	 ecx
  00298	5f		 pop	 edi
  00299	83 c4 34	 add	 esp, 52			; 00000034H
  0029c	3b ec		 cmp	 ebp, esp
  0029e	e8 00 00 00 00	 call	 __RTC_CheckEsp
  002a3	8b e5		 mov	 esp, ebp
  002a5	5d		 pop	 ebp
  002a6	c2 10 00	 ret	 16			; 00000010H
_TEXT	ENDS
text$x	SEGMENT
__unwindfunclet$?addKey@CDKeyHashMap@@QAEHPAD0PAPAVCHash@@PAX@Z$0:
  00000	68 00 00 00 00	 push	 OFFSET ?nothrow@std@@3Unothrow_t@1@B ; std::nothrow
  00005	8b 45 d0	 mov	 eax, DWORD PTR $T2[ebp]
  00008	50		 push	 eax
  00009	e8 00 00 00 00	 call	 ??3@YAXPAXABUnothrow_t@std@@@Z ; operator delete
  0000e	83 c4 08	 add	 esp, 8
  00011	c3		 ret	 0
__ehhandler$?addKey@CDKeyHashMap@@QAEHPAD0PAPAVCHash@@PAX@Z:
  00012	8b 54 24 08	 mov	 edx, DWORD PTR [esp+8]
  00016	8d 42 0c	 lea	 eax, DWORD PTR [edx+12]
  00019	8b 4a d0	 mov	 ecx, DWORD PTR [edx-48]
  0001c	33 c8		 xor	 ecx, eax
  0001e	e8 00 00 00 00	 call	 @__security_check_cookie@4
  00023	b8 00 00 00 00	 mov	 eax, OFFSET __ehfuncinfo$?addKey@CDKeyHashMap@@QAEHPAD0PAPAVCHash@@PAX@Z
  00028	e9 00 00 00 00	 jmp	 ___CxxFrameHandler3
text$x	ENDS
?addKey@CDKeyHashMap@@QAEHPAD0PAPAVCHash@@PAX@Z ENDP	; CDKeyHashMap::addKey
; Function compile flags: /Odtp /RTCsu
; File e:\infinia-library-3.0\com\src\comdualkeyhash.cpp
_TEXT	SEGMENT
tv170 = -88						; size = 4
tv164 = -84						; size = 4
tv158 = -80						; size = 4
tv148 = -76						; size = 4
$T2 = -72						; size = 4
$T3 = -68						; size = 4
$T4 = -64						; size = 4
$T5 = -60						; size = 4
$T6 = -56						; size = 4
$T7 = -52						; size = 4
$T8 = -48						; size = 4
$T9 = -44						; size = 4
_j$ = -40						; size = 4
_i$ = -36						; size = 4
_pHash$ = -32						; size = 4
_pDelNode$ = -28					; size = 4
_pNext2$ = -24						; size = 4
_pNext1$ = -20						; size = 4
_this$ = -16						; size = 4
__$EHRec$ = -12						; size = 12
??1CDKeyHashMap@@QAE@XZ PROC				; CDKeyHashMap::~CDKeyHashMap
; _this$ = ecx

; 37   : {

  00000	55		 push	 ebp
  00001	8b ec		 mov	 ebp, esp
  00003	6a ff		 push	 -1
  00005	68 00 00 00 00	 push	 __ehhandler$??1CDKeyHashMap@@QAE@XZ
  0000a	64 a1 00 00 00
	00		 mov	 eax, DWORD PTR fs:0
  00010	50		 push	 eax
  00011	83 ec 4c	 sub	 esp, 76			; 0000004cH
  00014	57		 push	 edi
  00015	51		 push	 ecx
  00016	8d 7d a8	 lea	 edi, DWORD PTR [ebp-88]
  00019	b9 13 00 00 00	 mov	 ecx, 19			; 00000013H
  0001e	b8 cc cc cc cc	 mov	 eax, -858993460		; ccccccccH
  00023	f3 ab		 rep stosd
  00025	59		 pop	 ecx
  00026	a1 00 00 00 00	 mov	 eax, DWORD PTR ___security_cookie
  0002b	33 c5		 xor	 eax, ebp
  0002d	50		 push	 eax
  0002e	8d 45 f4	 lea	 eax, DWORD PTR __$EHRec$[ebp]
  00031	64 a3 00 00 00
	00		 mov	 DWORD PTR fs:0, eax
  00037	89 4d f0	 mov	 DWORD PTR _this$[ebp], ecx

; 38   : 	SThash_next *pNext1, *pNext2, *pDelNode;
; 39   : 	CHash *pHash;
; 40   : 	unsigned int i,j;
; 41   : 	
; 42   : 	//      ,       . OS    .
; 43   : 	//                     .
; 44   : 	//              .
; 45   : 	for (i = 0; i < m_nMaxCount1; i++) {

  0003a	c7 45 dc 00 00
	00 00		 mov	 DWORD PTR _i$[ebp], 0
  00041	eb 09		 jmp	 SHORT $LN4@CDKeyHashM
$LN2@CDKeyHashM:
  00043	8b 45 dc	 mov	 eax, DWORD PTR _i$[ebp]
  00046	83 c0 01	 add	 eax, 1
  00049	89 45 dc	 mov	 DWORD PTR _i$[ebp], eax
$LN4@CDKeyHashM:
  0004c	8b 4d f0	 mov	 ecx, DWORD PTR _this$[ebp]
  0004f	8b 55 dc	 mov	 edx, DWORD PTR _i$[ebp]
  00052	3b 51 0c	 cmp	 edx, DWORD PTR [ecx+12]
  00055	0f 83 2a 01 00
	00		 jae	 $LN3@CDKeyHashM

; 46   : 		pNext1 = m_pHashGroup->getNext(i);

  0005b	8b 45 dc	 mov	 eax, DWORD PTR _i$[ebp]
  0005e	50		 push	 eax
  0005f	8b 4d f0	 mov	 ecx, DWORD PTR _this$[ebp]
  00062	8b 49 08	 mov	 ecx, DWORD PTR [ecx+8]
  00065	e8 00 00 00 00	 call	 ?getNext@CHash@@QAEPAUSThash_next@@I@Z ; CHash::getNext
  0006a	89 45 ec	 mov	 DWORD PTR _pNext1$[ebp], eax
$LN5@CDKeyHashM:

; 47   : 		while (pNext1) {

  0006d	83 7d ec 00	 cmp	 DWORD PTR _pNext1$[ebp], 0
  00071	0f 84 09 01 00
	00		 je	 $LN6@CDKeyHashM

; 48   : 			pHash = (CHash *)pNext1->pNode.value;

  00077	8b 55 ec	 mov	 edx, DWORD PTR _pNext1$[ebp]
  0007a	8b 42 04	 mov	 eax, DWORD PTR [edx+4]
  0007d	89 45 e0	 mov	 DWORD PTR _pHash$[ebp], eax

; 49   : 			for (j = 0; j < m_nMaxCount2; j++) {

  00080	c7 45 d8 00 00
	00 00		 mov	 DWORD PTR _j$[ebp], 0
  00087	eb 09		 jmp	 SHORT $LN9@CDKeyHashM
$LN7@CDKeyHashM:
  00089	8b 4d d8	 mov	 ecx, DWORD PTR _j$[ebp]
  0008c	83 c1 01	 add	 ecx, 1
  0008f	89 4d d8	 mov	 DWORD PTR _j$[ebp], ecx
$LN9@CDKeyHashM:
  00092	8b 55 f0	 mov	 edx, DWORD PTR _this$[ebp]
  00095	8b 45 d8	 mov	 eax, DWORD PTR _j$[ebp]
  00098	3b 42 10	 cmp	 eax, DWORD PTR [edx+16]
  0009b	73 76		 jae	 SHORT $LN8@CDKeyHashM

; 50   : 				pNext2 = pHash->getNext(j);

  0009d	8b 4d d8	 mov	 ecx, DWORD PTR _j$[ebp]
  000a0	51		 push	 ecx
  000a1	8b 4d e0	 mov	 ecx, DWORD PTR _pHash$[ebp]
  000a4	e8 00 00 00 00	 call	 ?getNext@CHash@@QAEPAUSThash_next@@I@Z ; CHash::getNext
  000a9	89 45 e8	 mov	 DWORD PTR _pNext2$[ebp], eax
$LN10@CDKeyHashM:

; 51   : 				while (pNext2) {

  000ac	83 7d e8 00	 cmp	 DWORD PTR _pNext2$[ebp], 0
  000b0	74 5c		 je	 SHORT $LN11@CDKeyHashM

; 52   : 					gs_pMMgr->delBuf(pNext2->pNode.pKey, STRING_SIZE(pNext2->pNode.pKey));	// key2  

  000b2	8b 55 e8	 mov	 edx, DWORD PTR _pNext2$[ebp]
  000b5	8b 02		 mov	 eax, DWORD PTR [edx]
  000b7	50		 push	 eax
  000b8	e8 00 00 00 00	 call	 _strlen
  000bd	83 c4 04	 add	 esp, 4
  000c0	83 c0 01	 add	 eax, 1
  000c3	50		 push	 eax
  000c4	8b 4d e8	 mov	 ecx, DWORD PTR _pNext2$[ebp]
  000c7	8b 11		 mov	 edx, DWORD PTR [ecx]
  000c9	52		 push	 edx
  000ca	8b 0d 00 00 00
	00		 mov	 ecx, DWORD PTR ?gs_pMMgr@@3PAVCMemManager@@A ; gs_pMMgr
  000d0	e8 00 00 00 00	 call	 ?delBuf@CMemManager@@QAEXPADH@Z ; CMemManager::delBuf

; 53   : 					if(m_bValInternal)delValueBuf((STValue *)pNext2->pNode.value);					// key2  value  

  000d5	8b 45 f0	 mov	 eax, DWORD PTR _this$[ebp]
  000d8	0f b6 48 14	 movzx	 ecx, BYTE PTR [eax+20]
  000dc	85 c9		 test	 ecx, ecx
  000de	74 0f		 je	 SHORT $LN12@CDKeyHashM
  000e0	8b 55 e8	 mov	 edx, DWORD PTR _pNext2$[ebp]
  000e3	8b 42 04	 mov	 eax, DWORD PTR [edx+4]
  000e6	50		 push	 eax
  000e7	8b 4d f0	 mov	 ecx, DWORD PTR _this$[ebp]
  000ea	e8 00 00 00 00	 call	 ?delValueBuf@CDKeyHashMap@@QAEXPAUSTValue@@@Z ; CDKeyHashMap::delValueBuf
$LN12@CDKeyHashM:

; 54   : 					pDelNode = pNext2;

  000ef	8b 4d e8	 mov	 ecx, DWORD PTR _pNext2$[ebp]
  000f2	89 4d e4	 mov	 DWORD PTR _pDelNode$[ebp], ecx

; 55   : 					pNext2 = pNext2->next;

  000f5	8b 55 e8	 mov	 edx, DWORD PTR _pNext2$[ebp]
  000f8	8b 42 08	 mov	 eax, DWORD PTR [edx+8]
  000fb	89 45 e8	 mov	 DWORD PTR _pNext2$[ebp], eax

; 56   : 					m_pHashNext->delMem(pDelNode);												// key2,value,next  node 

  000fe	8b 4d e4	 mov	 ecx, DWORD PTR _pDelNode$[ebp]
  00101	51		 push	 ecx
  00102	8b 55 f0	 mov	 edx, DWORD PTR _this$[ebp]
  00105	8b 0a		 mov	 ecx, DWORD PTR [edx]
  00107	e8 00 00 00 00	 call	 ?delMem@?$CBMemPool@USThash_next@@@@QAE_NPAUSThash_next@@@Z ; CBMemPool<SThash_next>::delMem

; 57   : 				}

  0010c	eb 9e		 jmp	 SHORT $LN10@CDKeyHashM
$LN11@CDKeyHashM:

; 58   : 			}

  0010e	e9 76 ff ff ff	 jmp	 $LN7@CDKeyHashM
$LN8@CDKeyHashM:

; 59   : 			gs_pMMgr->delBuf(pNext1->pNode.pKey, STRING_SIZE(pNext1->pNode.pKey));	// key1  

  00113	8b 45 ec	 mov	 eax, DWORD PTR _pNext1$[ebp]
  00116	8b 08		 mov	 ecx, DWORD PTR [eax]
  00118	51		 push	 ecx
  00119	e8 00 00 00 00	 call	 _strlen
  0011e	83 c4 04	 add	 esp, 4
  00121	83 c0 01	 add	 eax, 1
  00124	50		 push	 eax
  00125	8b 55 ec	 mov	 edx, DWORD PTR _pNext1$[ebp]
  00128	8b 02		 mov	 eax, DWORD PTR [edx]
  0012a	50		 push	 eax
  0012b	8b 0d 00 00 00
	00		 mov	 ecx, DWORD PTR ?gs_pMMgr@@3PAVCMemManager@@A ; gs_pMMgr
  00131	e8 00 00 00 00	 call	 ?delBuf@CMemManager@@QAEXPADH@Z ; CMemManager::delBuf

; 60   : 			delete pHash;																	// key1  value  

  00136	8b 4d e0	 mov	 ecx, DWORD PTR _pHash$[ebp]
  00139	89 4d d0	 mov	 DWORD PTR $T8[ebp], ecx
  0013c	8b 55 d0	 mov	 edx, DWORD PTR $T8[ebp]
  0013f	89 55 d4	 mov	 DWORD PTR $T9[ebp], edx
  00142	83 7d d4 00	 cmp	 DWORD PTR $T9[ebp], 0
  00146	74 0f		 je	 SHORT $LN14@CDKeyHashM
  00148	6a 01		 push	 1
  0014a	8b 4d d4	 mov	 ecx, DWORD PTR $T9[ebp]
  0014d	e8 00 00 00 00	 call	 ??_GCHash@@QAEPAXI@Z
  00152	89 45 b4	 mov	 DWORD PTR tv148[ebp], eax
  00155	eb 07		 jmp	 SHORT $LN15@CDKeyHashM
$LN14@CDKeyHashM:
  00157	c7 45 b4 00 00
	00 00		 mov	 DWORD PTR tv148[ebp], 0
$LN15@CDKeyHashM:

; 61   : 			pDelNode = pNext1;

  0015e	8b 45 ec	 mov	 eax, DWORD PTR _pNext1$[ebp]
  00161	89 45 e4	 mov	 DWORD PTR _pDelNode$[ebp], eax

; 62   : 			pNext1 = pNext1->next;

  00164	8b 4d ec	 mov	 ecx, DWORD PTR _pNext1$[ebp]
  00167	8b 51 08	 mov	 edx, DWORD PTR [ecx+8]
  0016a	89 55 ec	 mov	 DWORD PTR _pNext1$[ebp], edx

; 63   : 			m_pHashNext->delMem(pDelNode);												// key1,value,next  node 

  0016d	8b 45 e4	 mov	 eax, DWORD PTR _pDelNode$[ebp]
  00170	50		 push	 eax
  00171	8b 4d f0	 mov	 ecx, DWORD PTR _this$[ebp]
  00174	8b 09		 mov	 ecx, DWORD PTR [ecx]
  00176	e8 00 00 00 00	 call	 ?delMem@?$CBMemPool@USThash_next@@@@QAE_NPAUSThash_next@@@Z ; CBMemPool<SThash_next>::delMem

; 64   : 		}

  0017b	e9 ed fe ff ff	 jmp	 $LN5@CDKeyHashM
$LN6@CDKeyHashM:

; 65   : 	}

  00180	e9 be fe ff ff	 jmp	 $LN2@CDKeyHashM
$LN3@CDKeyHashM:

; 66   : 
; 67   : 	//        .
; 68   : 	delete m_pValue;

  00185	8b 55 f0	 mov	 edx, DWORD PTR _this$[ebp]
  00188	8b 42 04	 mov	 eax, DWORD PTR [edx+4]
  0018b	89 45 c8	 mov	 DWORD PTR $T6[ebp], eax
  0018e	8b 4d c8	 mov	 ecx, DWORD PTR $T6[ebp]
  00191	89 4d cc	 mov	 DWORD PTR $T7[ebp], ecx
  00194	83 7d cc 00	 cmp	 DWORD PTR $T7[ebp], 0
  00198	74 0f		 je	 SHORT $LN16@CDKeyHashM
  0019a	6a 01		 push	 1
  0019c	8b 4d cc	 mov	 ecx, DWORD PTR $T7[ebp]
  0019f	e8 00 00 00 00	 call	 ??_G?$CBMemPool@USTValue@@@@QAEPAXI@Z
  001a4	89 45 b0	 mov	 DWORD PTR tv158[ebp], eax
  001a7	eb 07		 jmp	 SHORT $LN17@CDKeyHashM
$LN16@CDKeyHashM:
  001a9	c7 45 b0 00 00
	00 00		 mov	 DWORD PTR tv158[ebp], 0
$LN17@CDKeyHashM:

; 69   : 	delete m_pHashNext;

  001b0	8b 55 f0	 mov	 edx, DWORD PTR _this$[ebp]
  001b3	8b 02		 mov	 eax, DWORD PTR [edx]
  001b5	89 45 c0	 mov	 DWORD PTR $T4[ebp], eax
  001b8	8b 4d c0	 mov	 ecx, DWORD PTR $T4[ebp]
  001bb	89 4d c4	 mov	 DWORD PTR $T5[ebp], ecx
  001be	83 7d c4 00	 cmp	 DWORD PTR $T5[ebp], 0
  001c2	74 0f		 je	 SHORT $LN18@CDKeyHashM
  001c4	6a 01		 push	 1
  001c6	8b 4d c4	 mov	 ecx, DWORD PTR $T5[ebp]
  001c9	e8 00 00 00 00	 call	 ??_G?$CBMemPool@USThash_next@@@@QAEPAXI@Z
  001ce	89 45 ac	 mov	 DWORD PTR tv164[ebp], eax
  001d1	eb 07		 jmp	 SHORT $LN19@CDKeyHashM
$LN18@CDKeyHashM:
  001d3	c7 45 ac 00 00
	00 00		 mov	 DWORD PTR tv164[ebp], 0
$LN19@CDKeyHashM:

; 70   : 	delete m_pHashGroup;

  001da	8b 55 f0	 mov	 edx, DWORD PTR _this$[ebp]
  001dd	8b 42 08	 mov	 eax, DWORD PTR [edx+8]
  001e0	89 45 b8	 mov	 DWORD PTR $T2[ebp], eax
  001e3	8b 4d b8	 mov	 ecx, DWORD PTR $T2[ebp]
  001e6	89 4d bc	 mov	 DWORD PTR $T3[ebp], ecx
  001e9	83 7d bc 00	 cmp	 DWORD PTR $T3[ebp], 0
  001ed	74 0f		 je	 SHORT $LN20@CDKeyHashM
  001ef	6a 01		 push	 1
  001f1	8b 4d bc	 mov	 ecx, DWORD PTR $T3[ebp]
  001f4	e8 00 00 00 00	 call	 ??_GCHash@@QAEPAXI@Z
  001f9	89 45 a8	 mov	 DWORD PTR tv170[ebp], eax
  001fc	eb 07		 jmp	 SHORT $LN13@CDKeyHashM
$LN20@CDKeyHashM:
  001fe	c7 45 a8 00 00
	00 00		 mov	 DWORD PTR tv170[ebp], 0
$LN13@CDKeyHashM:

; 71   : }

  00205	8b 4d f4	 mov	 ecx, DWORD PTR __$EHRec$[ebp]
  00208	64 89 0d 00 00
	00 00		 mov	 DWORD PTR fs:0, ecx
  0020f	59		 pop	 ecx
  00210	5f		 pop	 edi
  00211	83 c4 58	 add	 esp, 88			; 00000058H
  00214	3b ec		 cmp	 ebp, esp
  00216	e8 00 00 00 00	 call	 __RTC_CheckEsp
  0021b	8b e5		 mov	 esp, ebp
  0021d	5d		 pop	 ebp
  0021e	c3		 ret	 0
_TEXT	ENDS
text$x	SEGMENT
__ehhandler$??1CDKeyHashMap@@QAE@XZ:
  00000	8b 54 24 08	 mov	 edx, DWORD PTR [esp+8]
  00004	8d 42 0c	 lea	 eax, DWORD PTR [edx+12]
  00007	8b 4a ac	 mov	 ecx, DWORD PTR [edx-84]
  0000a	33 c8		 xor	 ecx, eax
  0000c	e8 00 00 00 00	 call	 @__security_check_cookie@4
  00011	b8 00 00 00 00	 mov	 eax, OFFSET __ehfuncinfo$??1CDKeyHashMap@@QAE@XZ
  00016	e9 00 00 00 00	 jmp	 ___CxxFrameHandler3
text$x	ENDS
??1CDKeyHashMap@@QAE@XZ ENDP				; CDKeyHashMap::~CDKeyHashMap
; Function compile flags: /Odtp /RTCsu
; File e:\infinia-library-3.0\com\src\comdualkeyhash.cpp
_TEXT	SEGMENT
tv180 = -56						; size = 4
tv133 = -52						; size = 4
tv81 = -48						; size = 4
$T2 = -44						; size = 4
$T3 = -40						; size = 4
$T4 = -36						; size = 4
$T5 = -32						; size = 4
$T6 = -28						; size = 4
$T7 = -24						; size = 4
_nBasicCount$ = -20					; size = 4
_this$ = -16						; size = 4
__$EHRec$ = -12						; size = 12
_nKey1Max$ = 8						; size = 4
_nKey2Max$ = 12						; size = 4
_bValInternal$ = 16					; size = 1
??0CDKeyHashMap@@QAE@HH_N@Z PROC			; CDKeyHashMap::CDKeyHashMap
; _this$ = ecx

; 9    : {

  00000	55		 push	 ebp
  00001	8b ec		 mov	 ebp, esp
  00003	6a ff		 push	 -1
  00005	68 00 00 00 00	 push	 __ehhandler$??0CDKeyHashMap@@QAE@HH_N@Z
  0000a	64 a1 00 00 00
	00		 mov	 eax, DWORD PTR fs:0
  00010	50		 push	 eax
  00011	83 ec 2c	 sub	 esp, 44			; 0000002cH
  00014	57		 push	 edi
  00015	51		 push	 ecx
  00016	8d 7d c8	 lea	 edi, DWORD PTR [ebp-56]
  00019	b9 0b 00 00 00	 mov	 ecx, 11			; 0000000bH
  0001e	b8 cc cc cc cc	 mov	 eax, -858993460		; ccccccccH
  00023	f3 ab		 rep stosd
  00025	59		 pop	 ecx
  00026	a1 00 00 00 00	 mov	 eax, DWORD PTR ___security_cookie
  0002b	33 c5		 xor	 eax, ebp
  0002d	50		 push	 eax
  0002e	8d 45 f4	 lea	 eax, DWORD PTR __$EHRec$[ebp]
  00031	64 a3 00 00 00
	00		 mov	 DWORD PTR fs:0, eax
  00037	89 4d f0	 mov	 DWORD PTR _this$[ebp], ecx

; 10   : 	m_nMaxCount1 = nKey1Max;

  0003a	8b 45 f0	 mov	 eax, DWORD PTR _this$[ebp]
  0003d	8b 4d 08	 mov	 ecx, DWORD PTR _nKey1Max$[ebp]
  00040	89 48 0c	 mov	 DWORD PTR [eax+12], ecx

; 11   : 	m_nMaxCount2 = nKey2Max;

  00043	8b 55 f0	 mov	 edx, DWORD PTR _this$[ebp]
  00046	8b 45 0c	 mov	 eax, DWORD PTR _nKey2Max$[ebp]
  00049	89 42 10	 mov	 DWORD PTR [edx+16], eax

; 12   : 	m_pHashNext = new CBMemPool<SThash_next>(eAlloc_Type_alloc);

  0004c	6a 18		 push	 24			; 00000018H
  0004e	e8 00 00 00 00	 call	 ??2@YAPAXI@Z		; operator new
  00053	83 c4 04	 add	 esp, 4
  00056	89 45 e4	 mov	 DWORD PTR $T6[ebp], eax
  00059	c7 45 fc 00 00
	00 00		 mov	 DWORD PTR __$EHRec$[ebp+8], 0
  00060	83 7d e4 00	 cmp	 DWORD PTR $T6[ebp], 0
  00064	74 19		 je	 SHORT $LN5@CDKeyHashM
  00066	6a 18		 push	 24			; 00000018H
  00068	8b 4d e4	 mov	 ecx, DWORD PTR $T6[ebp]
  0006b	e8 00 00 00 00	 call	 ?__autoclassinit2@?$CBMemPool@USThash_next@@@@QAEXI@Z
  00070	6a 03		 push	 3
  00072	8b 4d e4	 mov	 ecx, DWORD PTR $T6[ebp]
  00075	e8 00 00 00 00	 call	 ??0?$CBMemPool@USThash_next@@@@QAE@W4E_ALLOC_TYPE@@@Z ; CBMemPool<SThash_next>::CBMemPool<SThash_next>
  0007a	89 45 d0	 mov	 DWORD PTR tv81[ebp], eax
  0007d	eb 07		 jmp	 SHORT $LN6@CDKeyHashM
$LN5@CDKeyHashM:
  0007f	c7 45 d0 00 00
	00 00		 mov	 DWORD PTR tv81[ebp], 0
$LN6@CDKeyHashM:
  00086	8b 4d d0	 mov	 ecx, DWORD PTR tv81[ebp]
  00089	89 4d e8	 mov	 DWORD PTR $T7[ebp], ecx
  0008c	c7 45 fc ff ff
	ff ff		 mov	 DWORD PTR __$EHRec$[ebp+8], -1
  00093	8b 55 f0	 mov	 edx, DWORD PTR _this$[ebp]
  00096	8b 45 e8	 mov	 eax, DWORD PTR $T7[ebp]
  00099	89 02		 mov	 DWORD PTR [edx], eax

; 13   : 	m_pHashNext->alloc(nKey1Max + nKey2Max + 50);

  0009b	8b 4d 0c	 mov	 ecx, DWORD PTR _nKey2Max$[ebp]
  0009e	8b 55 08	 mov	 edx, DWORD PTR _nKey1Max$[ebp]
  000a1	8d 44 0a 32	 lea	 eax, DWORD PTR [edx+ecx+50]
  000a5	50		 push	 eax
  000a6	8b 4d f0	 mov	 ecx, DWORD PTR _this$[ebp]
  000a9	8b 09		 mov	 ecx, DWORD PTR [ecx]
  000ab	e8 00 00 00 00	 call	 ?alloc@?$CBMemPool@USThash_next@@@@QAEHH@Z ; CBMemPool<SThash_next>::alloc

; 14   : 	m_pHashGroup = new CHash(nKey1Max);

  000b0	6a 10		 push	 16			; 00000010H
  000b2	e8 00 00 00 00	 call	 ??2@YAPAXI@Z		; operator new
  000b7	83 c4 04	 add	 esp, 4
  000ba	89 45 dc	 mov	 DWORD PTR $T4[ebp], eax
  000bd	c7 45 fc 01 00
	00 00		 mov	 DWORD PTR __$EHRec$[ebp+8], 1
  000c4	83 7d dc 00	 cmp	 DWORD PTR $T4[ebp], 0
  000c8	74 1b		 je	 SHORT $LN7@CDKeyHashM
  000ca	6a 10		 push	 16			; 00000010H
  000cc	8b 4d dc	 mov	 ecx, DWORD PTR $T4[ebp]
  000cf	e8 00 00 00 00	 call	 ?__autoclassinit2@CHash@@QAEXI@Z
  000d4	8b 55 08	 mov	 edx, DWORD PTR _nKey1Max$[ebp]
  000d7	52		 push	 edx
  000d8	8b 4d dc	 mov	 ecx, DWORD PTR $T4[ebp]
  000db	e8 00 00 00 00	 call	 ??0CHash@@QAE@I@Z	; CHash::CHash
  000e0	89 45 cc	 mov	 DWORD PTR tv133[ebp], eax
  000e3	eb 07		 jmp	 SHORT $LN8@CDKeyHashM
$LN7@CDKeyHashM:
  000e5	c7 45 cc 00 00
	00 00		 mov	 DWORD PTR tv133[ebp], 0
$LN8@CDKeyHashM:
  000ec	8b 45 cc	 mov	 eax, DWORD PTR tv133[ebp]
  000ef	89 45 e0	 mov	 DWORD PTR $T5[ebp], eax
  000f2	c7 45 fc ff ff
	ff ff		 mov	 DWORD PTR __$EHRec$[ebp+8], -1
  000f9	8b 4d f0	 mov	 ecx, DWORD PTR _this$[ebp]
  000fc	8b 55 e0	 mov	 edx, DWORD PTR $T5[ebp]
  000ff	89 51 08	 mov	 DWORD PTR [ecx+8], edx

; 15   : 
; 16   : 	int nBasicCount = nKey2Max << 1;	//(nKey2Max * 2)

  00102	8b 45 0c	 mov	 eax, DWORD PTR _nKey2Max$[ebp]
  00105	d1 e0		 shl	 eax, 1
  00107	89 45 ec	 mov	 DWORD PTR _nBasicCount$[ebp], eax

; 17   : 	gs_pMMgr->init(IDX_BUF_4, nBasicCount);

  0010a	8b 4d ec	 mov	 ecx, DWORD PTR _nBasicCount$[ebp]
  0010d	51		 push	 ecx
  0010e	6a 02		 push	 2
  00110	8b 0d 00 00 00
	00		 mov	 ecx, DWORD PTR ?gs_pMMgr@@3PAVCMemManager@@A ; gs_pMMgr
  00116	e8 00 00 00 00	 call	 ?init@CMemManager@@QAEXW4E_IDX_BUF@@H@Z ; CMemManager::init

; 18   : 	gs_pMMgr->init(IDX_BUF_8, nBasicCount + 50);

  0011b	8b 55 ec	 mov	 edx, DWORD PTR _nBasicCount$[ebp]
  0011e	83 c2 32	 add	 edx, 50			; 00000032H
  00121	52		 push	 edx
  00122	6a 03		 push	 3
  00124	8b 0d 00 00 00
	00		 mov	 ecx, DWORD PTR ?gs_pMMgr@@3PAVCMemManager@@A ; gs_pMMgr
  0012a	e8 00 00 00 00	 call	 ?init@CMemManager@@QAEXW4E_IDX_BUF@@H@Z ; CMemManager::init

; 19   : 	gs_pMMgr->init(IDX_BUF_16, nBasicCount + 50);

  0012f	8b 45 ec	 mov	 eax, DWORD PTR _nBasicCount$[ebp]
  00132	83 c0 32	 add	 eax, 50			; 00000032H
  00135	50		 push	 eax
  00136	6a 04		 push	 4
  00138	8b 0d 00 00 00
	00		 mov	 ecx, DWORD PTR ?gs_pMMgr@@3PAVCMemManager@@A ; gs_pMMgr
  0013e	e8 00 00 00 00	 call	 ?init@CMemManager@@QAEXW4E_IDX_BUF@@H@Z ; CMemManager::init

; 20   : 	gs_pMMgr->init(IDX_BUF_32, nBasicCount + 50);

  00143	8b 4d ec	 mov	 ecx, DWORD PTR _nBasicCount$[ebp]
  00146	83 c1 32	 add	 ecx, 50			; 00000032H
  00149	51		 push	 ecx
  0014a	6a 05		 push	 5
  0014c	8b 0d 00 00 00
	00		 mov	 ecx, DWORD PTR ?gs_pMMgr@@3PAVCMemManager@@A ; gs_pMMgr
  00152	e8 00 00 00 00	 call	 ?init@CMemManager@@QAEXW4E_IDX_BUF@@H@Z ; CMemManager::init

; 21   : 	gs_pMMgr->init(IDX_BUF_64, nBasicCount);

  00157	8b 55 ec	 mov	 edx, DWORD PTR _nBasicCount$[ebp]
  0015a	52		 push	 edx
  0015b	6a 06		 push	 6
  0015d	8b 0d 00 00 00
	00		 mov	 ecx, DWORD PTR ?gs_pMMgr@@3PAVCMemManager@@A ; gs_pMMgr
  00163	e8 00 00 00 00	 call	 ?init@CMemManager@@QAEXW4E_IDX_BUF@@H@Z ; CMemManager::init

; 22   : 	gs_pMMgr->init(IDX_BUF_128, nBasicCount);

  00168	8b 45 ec	 mov	 eax, DWORD PTR _nBasicCount$[ebp]
  0016b	50		 push	 eax
  0016c	6a 07		 push	 7
  0016e	8b 0d 00 00 00
	00		 mov	 ecx, DWORD PTR ?gs_pMMgr@@3PAVCMemManager@@A ; gs_pMMgr
  00174	e8 00 00 00 00	 call	 ?init@CMemManager@@QAEXW4E_IDX_BUF@@H@Z ; CMemManager::init

; 23   : 	gs_pMMgr->init(IDX_BUF_256, 10);

  00179	6a 0a		 push	 10			; 0000000aH
  0017b	6a 08		 push	 8
  0017d	8b 0d 00 00 00
	00		 mov	 ecx, DWORD PTR ?gs_pMMgr@@3PAVCMemManager@@A ; gs_pMMgr
  00183	e8 00 00 00 00	 call	 ?init@CMemManager@@QAEXW4E_IDX_BUF@@H@Z ; CMemManager::init

; 24   : 	gs_pMMgr->init(IDX_BUF_512, 10);

  00188	6a 0a		 push	 10			; 0000000aH
  0018a	6a 09		 push	 9
  0018c	8b 0d 00 00 00
	00		 mov	 ecx, DWORD PTR ?gs_pMMgr@@3PAVCMemManager@@A ; gs_pMMgr
  00192	e8 00 00 00 00	 call	 ?init@CMemManager@@QAEXW4E_IDX_BUF@@H@Z ; CMemManager::init

; 25   : 
; 26   : 	m_bValInternal = bValInternal;

  00197	8b 4d f0	 mov	 ecx, DWORD PTR _this$[ebp]
  0019a	8a 55 10	 mov	 dl, BYTE PTR _bValInternal$[ebp]
  0019d	88 51 14	 mov	 BYTE PTR [ecx+20], dl

; 27   : 
; 28   : 	if (m_bValInternal) {

  001a0	8b 45 f0	 mov	 eax, DWORD PTR _this$[ebp]
  001a3	0f b6 48 14	 movzx	 ecx, BYTE PTR [eax+20]
  001a7	85 c9		 test	 ecx, ecx
  001a9	74 64		 je	 SHORT $LN2@CDKeyHashM

; 29   : 		m_pValue = new CBMemPool<STValue>(eAlloc_Type_alloc);

  001ab	6a 18		 push	 24			; 00000018H
  001ad	e8 00 00 00 00	 call	 ??2@YAPAXI@Z		; operator new
  001b2	83 c4 04	 add	 esp, 4
  001b5	89 45 d4	 mov	 DWORD PTR $T2[ebp], eax
  001b8	c7 45 fc 02 00
	00 00		 mov	 DWORD PTR __$EHRec$[ebp+8], 2
  001bf	83 7d d4 00	 cmp	 DWORD PTR $T2[ebp], 0
  001c3	74 19		 je	 SHORT $LN9@CDKeyHashM
  001c5	6a 18		 push	 24			; 00000018H
  001c7	8b 4d d4	 mov	 ecx, DWORD PTR $T2[ebp]
  001ca	e8 00 00 00 00	 call	 ?__autoclassinit2@?$CBMemPool@USTValue@@@@QAEXI@Z
  001cf	6a 03		 push	 3
  001d1	8b 4d d4	 mov	 ecx, DWORD PTR $T2[ebp]
  001d4	e8 00 00 00 00	 call	 ??0?$CBMemPool@USTValue@@@@QAE@W4E_ALLOC_TYPE@@@Z ; CBMemPool<STValue>::CBMemPool<STValue>
  001d9	89 45 c8	 mov	 DWORD PTR tv180[ebp], eax
  001dc	eb 07		 jmp	 SHORT $LN10@CDKeyHashM
$LN9@CDKeyHashM:
  001de	c7 45 c8 00 00
	00 00		 mov	 DWORD PTR tv180[ebp], 0
$LN10@CDKeyHashM:
  001e5	8b 55 c8	 mov	 edx, DWORD PTR tv180[ebp]
  001e8	89 55 d8	 mov	 DWORD PTR $T3[ebp], edx
  001eb	c7 45 fc ff ff
	ff ff		 mov	 DWORD PTR __$EHRec$[ebp+8], -1
  001f2	8b 45 f0	 mov	 eax, DWORD PTR _this$[ebp]
  001f5	8b 4d d8	 mov	 ecx, DWORD PTR $T3[ebp]
  001f8	89 48 04	 mov	 DWORD PTR [eax+4], ecx

; 30   : 		m_pValue->alloc(nKey2Max + 50);

  001fb	8b 55 0c	 mov	 edx, DWORD PTR _nKey2Max$[ebp]
  001fe	83 c2 32	 add	 edx, 50			; 00000032H
  00201	52		 push	 edx
  00202	8b 45 f0	 mov	 eax, DWORD PTR _this$[ebp]
  00205	8b 48 04	 mov	 ecx, DWORD PTR [eax+4]
  00208	e8 00 00 00 00	 call	 ?alloc@?$CBMemPool@USTValue@@@@QAEHH@Z ; CBMemPool<STValue>::alloc
  0020d	eb 0a		 jmp	 SHORT $LN1@CDKeyHashM
$LN2@CDKeyHashM:

; 31   : 	}
; 32   : 	else m_pValue = NULL;

  0020f	8b 4d f0	 mov	 ecx, DWORD PTR _this$[ebp]
  00212	c7 41 04 00 00
	00 00		 mov	 DWORD PTR [ecx+4], 0
$LN1@CDKeyHashM:

; 33   : }

  00219	8b 45 f0	 mov	 eax, DWORD PTR _this$[ebp]
  0021c	8b 4d f4	 mov	 ecx, DWORD PTR __$EHRec$[ebp]
  0021f	64 89 0d 00 00
	00 00		 mov	 DWORD PTR fs:0, ecx
  00226	59		 pop	 ecx
  00227	5f		 pop	 edi
  00228	83 c4 38	 add	 esp, 56			; 00000038H
  0022b	3b ec		 cmp	 ebp, esp
  0022d	e8 00 00 00 00	 call	 __RTC_CheckEsp
  00232	8b e5		 mov	 esp, ebp
  00234	5d		 pop	 ebp
  00235	c2 0c 00	 ret	 12			; 0000000cH
_TEXT	ENDS
text$x	SEGMENT
__unwindfunclet$??0CDKeyHashMap@@QAE@HH_N@Z$0:
  00000	6a 18		 push	 24			; 00000018H
  00002	8b 45 e4	 mov	 eax, DWORD PTR $T6[ebp]
  00005	50		 push	 eax
  00006	e8 00 00 00 00	 call	 ??3@YAXPAXI@Z		; operator delete
  0000b	83 c4 08	 add	 esp, 8
  0000e	c3		 ret	 0
__unwindfunclet$??0CDKeyHashMap@@QAE@HH_N@Z$1:
  0000f	6a 10		 push	 16			; 00000010H
  00011	8b 45 dc	 mov	 eax, DWORD PTR $T4[ebp]
  00014	50		 push	 eax
  00015	e8 00 00 00 00	 call	 ??3@YAXPAXI@Z		; operator delete
  0001a	83 c4 08	 add	 esp, 8
  0001d	c3		 ret	 0
__unwindfunclet$??0CDKeyHashMap@@QAE@HH_N@Z$2:
  0001e	6a 18		 push	 24			; 00000018H
  00020	8b 45 d4	 mov	 eax, DWORD PTR $T2[ebp]
  00023	50		 push	 eax
  00024	e8 00 00 00 00	 call	 ??3@YAXPAXI@Z		; operator delete
  00029	83 c4 08	 add	 esp, 8
  0002c	c3		 ret	 0
__ehhandler$??0CDKeyHashMap@@QAE@HH_N@Z:
  0002d	8b 54 24 08	 mov	 edx, DWORD PTR [esp+8]
  00031	8d 42 0c	 lea	 eax, DWORD PTR [edx+12]
  00034	8b 4a cc	 mov	 ecx, DWORD PTR [edx-52]
  00037	33 c8		 xor	 ecx, eax
  00039	e8 00 00 00 00	 call	 @__security_check_cookie@4
  0003e	b8 00 00 00 00	 mov	 eax, OFFSET __ehfuncinfo$??0CDKeyHashMap@@QAE@HH_N@Z
  00043	e9 00 00 00 00	 jmp	 ___CxxFrameHandler3
text$x	ENDS
??0CDKeyHashMap@@QAE@HH_N@Z ENDP			; CDKeyHashMap::CDKeyHashMap
; Function compile flags: /Odtp /RTCsu
; File e:\infinia-library-3.0\com\include\commemmanager.h
;	COMDAT ?delBuf@CMemManager@@QAEXPADH@Z
_TEXT	SEGMENT
_nIdx$ = -8						; size = 4
_this$ = -4						; size = 4
_pBuf$ = 8						; size = 4
_nSize$ = 12						; size = 4
?delBuf@CMemManager@@QAEXPADH@Z PROC			; CMemManager::delBuf, COMDAT
; _this$ = ecx

; 38   : 	inline void delBuf(char *pBuf, int nSize) { int nIdx = getIndex(nSize); delBufByIndex(pBuf, nIdx); }

  00000	55		 push	 ebp
  00001	8b ec		 mov	 ebp, esp
  00003	83 ec 08	 sub	 esp, 8
  00006	c7 45 f8 cc cc
	cc cc		 mov	 DWORD PTR [ebp-8], -858993460 ; ccccccccH
  0000d	c7 45 fc cc cc
	cc cc		 mov	 DWORD PTR [ebp-4], -858993460 ; ccccccccH
  00014	89 4d fc	 mov	 DWORD PTR _this$[ebp], ecx
  00017	8b 45 0c	 mov	 eax, DWORD PTR _nSize$[ebp]
  0001a	50		 push	 eax
  0001b	e8 00 00 00 00	 call	 ?getIndex@@YAHH@Z	; getIndex
  00020	83 c4 04	 add	 esp, 4
  00023	89 45 f8	 mov	 DWORD PTR _nIdx$[ebp], eax
  00026	8b 4d f8	 mov	 ecx, DWORD PTR _nIdx$[ebp]
  00029	51		 push	 ecx
  0002a	8b 55 08	 mov	 edx, DWORD PTR _pBuf$[ebp]
  0002d	52		 push	 edx
  0002e	8b 4d fc	 mov	 ecx, DWORD PTR _this$[ebp]
  00031	e8 00 00 00 00	 call	 ?delBufByIndex@CMemManager@@QAEXPADH@Z ; CMemManager::delBufByIndex
  00036	83 c4 08	 add	 esp, 8
  00039	3b ec		 cmp	 ebp, esp
  0003b	e8 00 00 00 00	 call	 __RTC_CheckEsp
  00040	8b e5		 mov	 esp, ebp
  00042	5d		 pop	 ebp
  00043	c2 08 00	 ret	 8
?delBuf@CMemManager@@QAEXPADH@Z ENDP			; CMemManager::delBuf
_TEXT	ENDS
; Function compile flags: /Odtp /RTCsu
; File e:\infinia-library-3.0\com\include\commemmanager.h
;	COMDAT ?newBuf@CMemManager@@QAEPADHPAH@Z
_TEXT	SEGMENT
_this$ = -4						; size = 4
_nSize$ = 8						; size = 4
_pIndex$ = 12						; size = 4
?newBuf@CMemManager@@QAEPADHPAH@Z PROC			; CMemManager::newBuf, COMDAT
; _this$ = ecx

; 35   : 	inline char *newBuf(int nSize, int *pIndex) { *pIndex = getIndex(nSize);  return __newBuf(*pIndex, nSize); }

  00000	55		 push	 ebp
  00001	8b ec		 mov	 ebp, esp
  00003	51		 push	 ecx
  00004	c7 45 fc cc cc
	cc cc		 mov	 DWORD PTR [ebp-4], -858993460 ; ccccccccH
  0000b	89 4d fc	 mov	 DWORD PTR _this$[ebp], ecx
  0000e	8b 45 08	 mov	 eax, DWORD PTR _nSize$[ebp]
  00011	50		 push	 eax
  00012	e8 00 00 00 00	 call	 ?getIndex@@YAHH@Z	; getIndex
  00017	83 c4 04	 add	 esp, 4
  0001a	8b 4d 0c	 mov	 ecx, DWORD PTR _pIndex$[ebp]
  0001d	89 01		 mov	 DWORD PTR [ecx], eax
  0001f	8b 55 08	 mov	 edx, DWORD PTR _nSize$[ebp]
  00022	52		 push	 edx
  00023	8b 45 0c	 mov	 eax, DWORD PTR _pIndex$[ebp]
  00026	8b 08		 mov	 ecx, DWORD PTR [eax]
  00028	51		 push	 ecx
  00029	8b 4d fc	 mov	 ecx, DWORD PTR _this$[ebp]
  0002c	e8 00 00 00 00	 call	 ?__newBuf@CMemManager@@AAEPADHI@Z ; CMemManager::__newBuf
  00031	83 c4 04	 add	 esp, 4
  00034	3b ec		 cmp	 ebp, esp
  00036	e8 00 00 00 00	 call	 __RTC_CheckEsp
  0003b	8b e5		 mov	 esp, ebp
  0003d	5d		 pop	 ebp
  0003e	c2 08 00	 ret	 8
?newBuf@CMemManager@@QAEPADHPAH@Z ENDP			; CMemManager::newBuf
_TEXT	ENDS
; Function compile flags: /Odtp /RTCsu
; File e:\infinia-library-3.0\com\include\commemmanager.h
;	COMDAT ?newBuf@CMemManager@@QAEPADH@Z
_TEXT	SEGMENT
_nIdx$ = -8						; size = 4
_this$ = -4						; size = 4
_nSize$ = 8						; size = 4
?newBuf@CMemManager@@QAEPADH@Z PROC			; CMemManager::newBuf, COMDAT
; _this$ = ecx

; 34   : 	inline char *newBuf(int nSize) { int nIdx = getIndex(nSize);  return __newBuf(nIdx, nSize); }

  00000	55		 push	 ebp
  00001	8b ec		 mov	 ebp, esp
  00003	83 ec 08	 sub	 esp, 8
  00006	c7 45 f8 cc cc
	cc cc		 mov	 DWORD PTR [ebp-8], -858993460 ; ccccccccH
  0000d	c7 45 fc cc cc
	cc cc		 mov	 DWORD PTR [ebp-4], -858993460 ; ccccccccH
  00014	89 4d fc	 mov	 DWORD PTR _this$[ebp], ecx
  00017	8b 45 08	 mov	 eax, DWORD PTR _nSize$[ebp]
  0001a	50		 push	 eax
  0001b	e8 00 00 00 00	 call	 ?getIndex@@YAHH@Z	; getIndex
  00020	83 c4 04	 add	 esp, 4
  00023	89 45 f8	 mov	 DWORD PTR _nIdx$[ebp], eax
  00026	8b 4d 08	 mov	 ecx, DWORD PTR _nSize$[ebp]
  00029	51		 push	 ecx
  0002a	8b 55 f8	 mov	 edx, DWORD PTR _nIdx$[ebp]
  0002d	52		 push	 edx
  0002e	8b 4d fc	 mov	 ecx, DWORD PTR _this$[ebp]
  00031	e8 00 00 00 00	 call	 ?__newBuf@CMemManager@@AAEPADHI@Z ; CMemManager::__newBuf
  00036	83 c4 08	 add	 esp, 8
  00039	3b ec		 cmp	 ebp, esp
  0003b	e8 00 00 00 00	 call	 __RTC_CheckEsp
  00040	8b e5		 mov	 esp, ebp
  00042	5d		 pop	 ebp
  00043	c2 04 00	 ret	 4
?newBuf@CMemManager@@QAEPADH@Z ENDP			; CMemManager::newBuf
_TEXT	ENDS
; Function compile flags: /Odtp /RTCsu
; File e:\infinia-library-3.0\com\include\commemmanager.h
;	COMDAT ?init@CMemManager@@QAEXW4E_IDX_BUF@@H@Z
_TEXT	SEGMENT
_this$ = -4						; size = 4
_eIdx$ = 8						; size = 4
_nMax$ = 12						; size = 4
?init@CMemManager@@QAEXW4E_IDX_BUF@@H@Z PROC		; CMemManager::init, COMDAT
; _this$ = ecx

; 29   : 	inline void init(E_IDX_BUF eIdx, int nMax) { m_stConfig.nMaxList[eIdx] += nMax; }

  00000	55		 push	 ebp
  00001	8b ec		 mov	 ebp, esp
  00003	51		 push	 ecx
  00004	c7 45 fc cc cc
	cc cc		 mov	 DWORD PTR [ebp-4], -858993460 ; ccccccccH
  0000b	89 4d fc	 mov	 DWORD PTR _this$[ebp], ecx
  0000e	8b 45 08	 mov	 eax, DWORD PTR _eIdx$[ebp]
  00011	8b 4d fc	 mov	 ecx, DWORD PTR _this$[ebp]
  00014	8b 54 81 58	 mov	 edx, DWORD PTR [ecx+eax*4+88]
  00018	03 55 0c	 add	 edx, DWORD PTR _nMax$[ebp]
  0001b	8b 45 08	 mov	 eax, DWORD PTR _eIdx$[ebp]
  0001e	8b 4d fc	 mov	 ecx, DWORD PTR _this$[ebp]
  00021	89 54 81 58	 mov	 DWORD PTR [ecx+eax*4+88], edx
  00025	8b e5		 mov	 esp, ebp
  00027	5d		 pop	 ebp
  00028	c2 08 00	 ret	 8
?init@CMemManager@@QAEXW4E_IDX_BUF@@H@Z ENDP		; CMemManager::init
_TEXT	ENDS
; Function compile flags: /Odtp /RTCsu
; File e:\infinia-library-3.0\com\include\combufpool.h
;	COMDAT ?getIndex@@YAHH@Z
_TEXT	SEGMENT
tv73 = -24						; size = 4
_$S1$ = -16						; size = 8
_m$ = -4						; size = 4
_s$ = 8							; size = 4
?getIndex@@YAHH@Z PROC					; getIndex, COMDAT

; 51   : inline int getIndex(int s) { int m; union { double x; int b[2]; }; x = s; m = (b[1] >> 20) - 1023; return m + ((s&(s - (1 << m))) ? 1 : 0); }

  00000	55		 push	 ebp
  00001	8b ec		 mov	 ebp, esp
  00003	83 ec 18	 sub	 esp, 24			; 00000018H
  00006	b8 cc cc cc cc	 mov	 eax, -858993460		; ccccccccH
  0000b	89 45 e8	 mov	 DWORD PTR [ebp-24], eax
  0000e	89 45 ec	 mov	 DWORD PTR [ebp-20], eax
  00011	89 45 f0	 mov	 DWORD PTR [ebp-16], eax
  00014	89 45 f4	 mov	 DWORD PTR [ebp-12], eax
  00017	89 45 f8	 mov	 DWORD PTR [ebp-8], eax
  0001a	89 45 fc	 mov	 DWORD PTR [ebp-4], eax
  0001d	f2 0f 2a 45 08	 cvtsi2sd xmm0, DWORD PTR _s$[ebp]
  00022	f2 0f 11 45 f0	 movsd	 QWORD PTR _$S1$[ebp], xmm0
  00027	b8 04 00 00 00	 mov	 eax, 4
  0002c	c1 e0 00	 shl	 eax, 0
  0002f	8b 4c 05 f0	 mov	 ecx, DWORD PTR _$S1$[ebp+eax]
  00033	c1 f9 14	 sar	 ecx, 20			; 00000014H
  00036	81 e9 ff 03 00
	00		 sub	 ecx, 1023		; 000003ffH
  0003c	89 4d fc	 mov	 DWORD PTR _m$[ebp], ecx
  0003f	ba 01 00 00 00	 mov	 edx, 1
  00044	8b 4d fc	 mov	 ecx, DWORD PTR _m$[ebp]
  00047	d3 e2		 shl	 edx, cl
  00049	8b 45 08	 mov	 eax, DWORD PTR _s$[ebp]
  0004c	2b c2		 sub	 eax, edx
  0004e	23 45 08	 and	 eax, DWORD PTR _s$[ebp]
  00051	74 09		 je	 SHORT $LN3@getIndex
  00053	c7 45 e8 01 00
	00 00		 mov	 DWORD PTR tv73[ebp], 1
  0005a	eb 07		 jmp	 SHORT $LN4@getIndex
$LN3@getIndex:
  0005c	c7 45 e8 00 00
	00 00		 mov	 DWORD PTR tv73[ebp], 0
$LN4@getIndex:
  00063	8b 45 fc	 mov	 eax, DWORD PTR _m$[ebp]
  00066	03 45 e8	 add	 eax, DWORD PTR tv73[ebp]
  00069	52		 push	 edx
  0006a	8b cd		 mov	 ecx, ebp
  0006c	50		 push	 eax
  0006d	8d 15 00 00 00
	00		 lea	 edx, DWORD PTR $LN7@getIndex
  00073	e8 00 00 00 00	 call	 @_RTC_CheckStackVars@8
  00078	58		 pop	 eax
  00079	5a		 pop	 edx
  0007a	8b e5		 mov	 esp, ebp
  0007c	5d		 pop	 ebp
  0007d	c3		 ret	 0
  0007e	66 90		 npad	 2
$LN7@getIndex:
  00080	01 00 00 00	 DD	 1
  00084	00 00 00 00	 DD	 $LN6@getIndex
$LN6@getIndex:
  00088	f0 ff ff ff	 DD	 -16			; fffffff0H
  0008c	08 00 00 00	 DD	 8
  00090	00 00 00 00	 DD	 $LN5@getIndex
$LN5@getIndex:
  00094	24		 DB	 36			; 00000024H
  00095	53		 DB	 83			; 00000053H
  00096	31		 DB	 49			; 00000031H
  00097	00		 DB	 0
?getIndex@@YAHH@Z ENDP					; getIndex
_TEXT	ENDS
; Function compile flags: /Odtp /RTCsu
; File e:\infinia-library-3.0\com\include\comtypes.h
;	COMDAT ?ISINCLUDE@@YA_NHH@Z
_TEXT	SEGMENT
_i$ = 8							; size = 4
_max$ = 12						; size = 4
?ISINCLUDE@@YA_NHH@Z PROC				; ISINCLUDE, COMDAT

; 322  : inline bool ISINCLUDE(int i, int max) { if (0 <= i && i < max) return true; return false; }

  00000	55		 push	 ebp
  00001	8b ec		 mov	 ebp, esp
  00003	83 7d 08 00	 cmp	 DWORD PTR _i$[ebp], 0
  00007	7c 0c		 jl	 SHORT $LN2@ISINCLUDE
  00009	8b 45 08	 mov	 eax, DWORD PTR _i$[ebp]
  0000c	3b 45 0c	 cmp	 eax, DWORD PTR _max$[ebp]
  0000f	7d 04		 jge	 SHORT $LN2@ISINCLUDE
  00011	b0 01		 mov	 al, 1
  00013	eb 02		 jmp	 SHORT $LN1@ISINCLUDE
$LN2@ISINCLUDE:
  00015	32 c0		 xor	 al, al
$LN1@ISINCLUDE:
  00017	5d		 pop	 ebp
  00018	c3		 ret	 0
?ISINCLUDE@@YA_NHH@Z ENDP				; ISINCLUDE
_TEXT	ENDS
; Function compile flags: /Odtp /RTCsu
; File e:\infinia-library-3.0\com\include\comtypes.h
;	COMDAT ?c_memcpy@@YAPAXPAXPBXH@Z
_TEXT	SEGMENT
tv65 = -12						; size = 4
_s$ = -8						; size = 4
_d$ = -4						; size = 4
_de$ = 8						; size = 4
_so$ = 12						; size = 4
_l$ = 16						; size = 4
?c_memcpy@@YAPAXPAXPBXH@Z PROC				; c_memcpy, COMDAT

; 309  : inline void *c_memcpy(void *de, const void *so, int l) { char *d = (char*)de; const char *s = (char*)so; while (l--) *d++ = *s++; return de;}

  00000	55		 push	 ebp
  00001	8b ec		 mov	 ebp, esp
  00003	83 ec 0c	 sub	 esp, 12			; 0000000cH
  00006	c7 45 f4 cc cc
	cc cc		 mov	 DWORD PTR [ebp-12], -858993460 ; ccccccccH
  0000d	c7 45 f8 cc cc
	cc cc		 mov	 DWORD PTR [ebp-8], -858993460 ; ccccccccH
  00014	c7 45 fc cc cc
	cc cc		 mov	 DWORD PTR [ebp-4], -858993460 ; ccccccccH
  0001b	8b 45 08	 mov	 eax, DWORD PTR _de$[ebp]
  0001e	89 45 fc	 mov	 DWORD PTR _d$[ebp], eax
  00021	8b 4d 0c	 mov	 ecx, DWORD PTR _so$[ebp]
  00024	89 4d f8	 mov	 DWORD PTR _s$[ebp], ecx
$LN2@c_memcpy:
  00027	8b 55 10	 mov	 edx, DWORD PTR _l$[ebp]
  0002a	89 55 f4	 mov	 DWORD PTR tv65[ebp], edx
  0002d	8b 45 10	 mov	 eax, DWORD PTR _l$[ebp]
  00030	83 e8 01	 sub	 eax, 1
  00033	89 45 10	 mov	 DWORD PTR _l$[ebp], eax
  00036	83 7d f4 00	 cmp	 DWORD PTR tv65[ebp], 0
  0003a	74 1e		 je	 SHORT $LN3@c_memcpy
  0003c	8b 4d fc	 mov	 ecx, DWORD PTR _d$[ebp]
  0003f	8b 55 f8	 mov	 edx, DWORD PTR _s$[ebp]
  00042	8a 02		 mov	 al, BYTE PTR [edx]
  00044	88 01		 mov	 BYTE PTR [ecx], al
  00046	8b 4d fc	 mov	 ecx, DWORD PTR _d$[ebp]
  00049	83 c1 01	 add	 ecx, 1
  0004c	89 4d fc	 mov	 DWORD PTR _d$[ebp], ecx
  0004f	8b 55 f8	 mov	 edx, DWORD PTR _s$[ebp]
  00052	83 c2 01	 add	 edx, 1
  00055	89 55 f8	 mov	 DWORD PTR _s$[ebp], edx
  00058	eb cd		 jmp	 SHORT $LN2@c_memcpy
$LN3@c_memcpy:
  0005a	8b 45 08	 mov	 eax, DWORD PTR _de$[ebp]
  0005d	8b e5		 mov	 esp, ebp
  0005f	5d		 pop	 ebp
  00060	c3		 ret	 0
?c_memcpy@@YAPAXPAXPBXH@Z ENDP				; c_memcpy
_TEXT	ENDS
; Function compile flags: /Odtp /RTCsu
; File c:\program files (x86)\windows kits\10\include\10.0.10240.0\ucrt\stdio.h
;	COMDAT _sprintf
_TEXT	SEGMENT
__ArgList$ = -8						; size = 4
__Result$ = -4						; size = 4
__Buffer$ = 8						; size = 4
__Format$ = 12						; size = 4
_sprintf PROC						; COMDAT

; 1776 : {

  00000	55		 push	 ebp
  00001	8b ec		 mov	 ebp, esp
  00003	83 ec 08	 sub	 esp, 8
  00006	c7 45 f8 cc cc
	cc cc		 mov	 DWORD PTR [ebp-8], -858993460 ; ccccccccH
  0000d	c7 45 fc cc cc
	cc cc		 mov	 DWORD PTR [ebp-4], -858993460 ; ccccccccH

; 1777 :     int _Result;
; 1778 :     va_list _ArgList;
; 1779 :     __crt_va_start(_ArgList, _Format);

  00014	e8 00 00 00 00	 call	 ??$__vcrt_va_start_verify_argument_type@QBD@@YAXXZ ; __vcrt_va_start_verify_argument_type<char const * const>
  00019	8d 45 10	 lea	 eax, DWORD PTR __Format$[ebp+4]
  0001c	89 45 f8	 mov	 DWORD PTR __ArgList$[ebp], eax

; 1780 : 
; 1781 :     #pragma warning(push)
; 1782 :     #pragma warning(disable: 4996) // Deprecation
; 1783 :     _Result = _vsprintf_l(_Buffer, _Format, NULL, _ArgList);

  0001f	8b 4d f8	 mov	 ecx, DWORD PTR __ArgList$[ebp]
  00022	51		 push	 ecx
  00023	6a 00		 push	 0
  00025	8b 55 0c	 mov	 edx, DWORD PTR __Format$[ebp]
  00028	52		 push	 edx
  00029	8b 45 08	 mov	 eax, DWORD PTR __Buffer$[ebp]
  0002c	50		 push	 eax
  0002d	e8 00 00 00 00	 call	 __vsprintf_l
  00032	83 c4 10	 add	 esp, 16			; 00000010H
  00035	89 45 fc	 mov	 DWORD PTR __Result$[ebp], eax

; 1784 :     #pragma warning(pop)
; 1785 : 
; 1786 :     __crt_va_end(_ArgList);

  00038	c7 45 f8 00 00
	00 00		 mov	 DWORD PTR __ArgList$[ebp], 0

; 1787 :     return _Result;

  0003f	8b 45 fc	 mov	 eax, DWORD PTR __Result$[ebp]

; 1788 : }

  00042	83 c4 08	 add	 esp, 8
  00045	3b ec		 cmp	 ebp, esp
  00047	e8 00 00 00 00	 call	 __RTC_CheckEsp
  0004c	8b e5		 mov	 esp, ebp
  0004e	5d		 pop	 ebp
  0004f	c3		 ret	 0
_sprintf ENDP
_TEXT	ENDS
; Function compile flags: /Odtp /RTCsu
; File c:\program files (x86)\windows kits\10\include\10.0.10240.0\ucrt\stdio.h
;	COMDAT __vsprintf_l
_TEXT	SEGMENT
__Buffer$ = 8						; size = 4
__Format$ = 12						; size = 4
__Locale$ = 16						; size = 4
__ArgList$ = 20						; size = 4
__vsprintf_l PROC					; COMDAT

; 1455 : {

  00000	55		 push	 ebp
  00001	8b ec		 mov	 ebp, esp

; 1456 :     #pragma warning(push)
; 1457 :     #pragma warning(disable: 4996) // Deprecation
; 1458 :     return _vsnprintf_l(_Buffer, (size_t)-1, _Format, _Locale, _ArgList);

  00003	8b 45 14	 mov	 eax, DWORD PTR __ArgList$[ebp]
  00006	50		 push	 eax
  00007	8b 4d 10	 mov	 ecx, DWORD PTR __Locale$[ebp]
  0000a	51		 push	 ecx
  0000b	8b 55 0c	 mov	 edx, DWORD PTR __Format$[ebp]
  0000e	52		 push	 edx
  0000f	6a ff		 push	 -1
  00011	8b 45 08	 mov	 eax, DWORD PTR __Buffer$[ebp]
  00014	50		 push	 eax
  00015	e8 00 00 00 00	 call	 __vsnprintf_l
  0001a	83 c4 14	 add	 esp, 20			; 00000014H

; 1459 :     #pragma warning(pop)
; 1460 : }

  0001d	3b ec		 cmp	 ebp, esp
  0001f	e8 00 00 00 00	 call	 __RTC_CheckEsp
  00024	5d		 pop	 ebp
  00025	c3		 ret	 0
__vsprintf_l ENDP
_TEXT	ENDS
; Function compile flags: /Odtp /RTCsu
; File c:\program files (x86)\windows kits\10\include\10.0.10240.0\ucrt\stdio.h
;	COMDAT __vsnprintf_l
_TEXT	SEGMENT
tv74 = -8						; size = 4
__Result$ = -4						; size = 4
__Buffer$ = 8						; size = 4
__BufferCount$ = 12					; size = 4
__Format$ = 16						; size = 4
__Locale$ = 20						; size = 4
__ArgList$ = 24						; size = 4
__vsnprintf_l PROC					; COMDAT

; 1385 : {

  00000	55		 push	 ebp
  00001	8b ec		 mov	 ebp, esp
  00003	83 ec 08	 sub	 esp, 8
  00006	56		 push	 esi
  00007	c7 45 f8 cc cc
	cc cc		 mov	 DWORD PTR [ebp-8], -858993460 ; ccccccccH
  0000e	c7 45 fc cc cc
	cc cc		 mov	 DWORD PTR [ebp-4], -858993460 ; ccccccccH

; 1386 :     int const _Result = __stdio_common_vsprintf(

  00015	8b f4		 mov	 esi, esp
  00017	8b 45 18	 mov	 eax, DWORD PTR __ArgList$[ebp]
  0001a	50		 push	 eax
  0001b	8b 4d 14	 mov	 ecx, DWORD PTR __Locale$[ebp]
  0001e	51		 push	 ecx
  0001f	8b 55 10	 mov	 edx, DWORD PTR __Format$[ebp]
  00022	52		 push	 edx
  00023	8b 45 0c	 mov	 eax, DWORD PTR __BufferCount$[ebp]
  00026	50		 push	 eax
  00027	8b 4d 08	 mov	 ecx, DWORD PTR __Buffer$[ebp]
  0002a	51		 push	 ecx
  0002b	e8 00 00 00 00	 call	 ___local_stdio_printf_options
  00030	8b 10		 mov	 edx, DWORD PTR [eax]
  00032	83 ca 01	 or	 edx, 1
  00035	8b 40 04	 mov	 eax, DWORD PTR [eax+4]
  00038	50		 push	 eax
  00039	52		 push	 edx
  0003a	ff 15 00 00 00
	00		 call	 DWORD PTR __imp____stdio_common_vsprintf
  00040	83 c4 1c	 add	 esp, 28			; 0000001cH
  00043	3b f4		 cmp	 esi, esp
  00045	e8 00 00 00 00	 call	 __RTC_CheckEsp
  0004a	89 45 fc	 mov	 DWORD PTR __Result$[ebp], eax

; 1387 :         _CRT_INTERNAL_LOCAL_PRINTF_OPTIONS | _CRT_INTERNAL_PRINTF_LEGACY_VSPRINTF_NULL_TERMINATION,
; 1388 :         _Buffer, _BufferCount, _Format, _Locale, _ArgList);
; 1389 : 
; 1390 :     return _Result < 0 ? -1 : _Result;

  0004d	83 7d fc 00	 cmp	 DWORD PTR __Result$[ebp], 0
  00051	7d 09		 jge	 SHORT $LN3@vsnprintf_
  00053	c7 45 f8 ff ff
	ff ff		 mov	 DWORD PTR tv74[ebp], -1
  0005a	eb 06		 jmp	 SHORT $LN4@vsnprintf_
$LN3@vsnprintf_:
  0005c	8b 4d fc	 mov	 ecx, DWORD PTR __Result$[ebp]
  0005f	89 4d f8	 mov	 DWORD PTR tv74[ebp], ecx
$LN4@vsnprintf_:
  00062	8b 45 f8	 mov	 eax, DWORD PTR tv74[ebp]

; 1391 : }

  00065	5e		 pop	 esi
  00066	83 c4 08	 add	 esp, 8
  00069	3b ec		 cmp	 ebp, esp
  0006b	e8 00 00 00 00	 call	 __RTC_CheckEsp
  00070	8b e5		 mov	 esp, ebp
  00072	5d		 pop	 ebp
  00073	c3		 ret	 0
__vsnprintf_l ENDP
_TEXT	ENDS
; Function compile flags: /Odtp /RTCsu
; File c:\program files (x86)\microsoft visual studio 14.0\vc\include\vadefs.h
;	COMDAT ??$__vcrt_va_start_verify_argument_type@QBD@@YAXXZ
_TEXT	SEGMENT
??$__vcrt_va_start_verify_argument_type@QBD@@YAXXZ PROC	; __vcrt_va_start_verify_argument_type<char const * const>, COMDAT

; 144  :         {

  00000	55		 push	 ebp
  00001	8b ec		 mov	 ebp, esp

; 145  :             static_assert(!__vcrt_va_list_is_reference<_Ty>::__the_value, "va_start argument must not have reference type and must not be parenthesized");
; 146  :         }

  00003	5d		 pop	 ebp
  00004	c3		 ret	 0
??$__vcrt_va_start_verify_argument_type@QBD@@YAXXZ ENDP	; __vcrt_va_start_verify_argument_type<char const * const>
_TEXT	ENDS
; Function compile flags: /Odtp /RTCsu
; File c:\program files (x86)\windows kits\10\include\10.0.10240.0\ucrt\corecrt_stdio_config.h
;	COMDAT ___local_stdio_printf_options
_TEXT	SEGMENT
___local_stdio_printf_options PROC			; COMDAT

; 73   : {

  00000	55		 push	 ebp
  00001	8b ec		 mov	 ebp, esp

; 74   :     static unsigned __int64 _OptionsStorage;
; 75   :     return &_OptionsStorage;

  00003	b8 00 00 00 00	 mov	 eax, OFFSET ?_OptionsStorage@?1??__local_stdio_printf_options@@9@4_KA ; `__local_stdio_printf_options'::`2'::_OptionsStorage

; 76   : }

  00008	5d		 pop	 ebp
  00009	c3		 ret	 0
___local_stdio_printf_options ENDP
_TEXT	ENDS
; Function compile flags: /Odtp /RTCsu
;	COMDAT ??_GCHash@@QAEPAXI@Z
_TEXT	SEGMENT
_this$ = -4						; size = 4
___flags$ = 8						; size = 4
??_GCHash@@QAEPAXI@Z PROC				; CHash::`scalar deleting destructor', COMDAT
; _this$ = ecx
  00000	55		 push	 ebp
  00001	8b ec		 mov	 ebp, esp
  00003	51		 push	 ecx
  00004	c7 45 fc cc cc
	cc cc		 mov	 DWORD PTR [ebp-4], -858993460 ; ccccccccH
  0000b	89 4d fc	 mov	 DWORD PTR _this$[ebp], ecx
  0000e	8b 4d fc	 mov	 ecx, DWORD PTR _this$[ebp]
  00011	e8 00 00 00 00	 call	 ??1CHash@@QAE@XZ	; CHash::~CHash
  00016	8b 45 08	 mov	 eax, DWORD PTR ___flags$[ebp]
  00019	83 e0 01	 and	 eax, 1
  0001c	74 0e		 je	 SHORT $LN2@scalar
  0001e	6a 10		 push	 16			; 00000010H
  00020	8b 4d fc	 mov	 ecx, DWORD PTR _this$[ebp]
  00023	51		 push	 ecx
  00024	e8 00 00 00 00	 call	 ??3@YAXPAXI@Z		; operator delete
  00029	83 c4 08	 add	 esp, 8
$LN2@scalar:
  0002c	8b 45 fc	 mov	 eax, DWORD PTR _this$[ebp]
  0002f	83 c4 04	 add	 esp, 4
  00032	3b ec		 cmp	 ebp, esp
  00034	e8 00 00 00 00	 call	 __RTC_CheckEsp
  00039	8b e5		 mov	 esp, ebp
  0003b	5d		 pop	 ebp
  0003c	c2 04 00	 ret	 4
??_GCHash@@QAEPAXI@Z ENDP				; CHash::`scalar deleting destructor'
_TEXT	ENDS
; Function compile flags: /Odtp /RTCsu
;	COMDAT ?__autoclassinit2@CHash@@QAEXI@Z
_TEXT	SEGMENT
_this$ = -4						; size = 4
_classSize$ = 8						; size = 4
?__autoclassinit2@CHash@@QAEXI@Z PROC			; CHash::__autoclassinit2, COMDAT
; _this$ = ecx
  00000	55		 push	 ebp
  00001	8b ec		 mov	 ebp, esp
  00003	51		 push	 ecx
  00004	c7 45 fc cc cc
	cc cc		 mov	 DWORD PTR [ebp-4], -858993460 ; ccccccccH
  0000b	89 4d fc	 mov	 DWORD PTR _this$[ebp], ecx
  0000e	8b 45 08	 mov	 eax, DWORD PTR _classSize$[ebp]
  00011	50		 push	 eax
  00012	6a 00		 push	 0
  00014	8b 4d fc	 mov	 ecx, DWORD PTR _this$[ebp]
  00017	51		 push	 ecx
  00018	e8 00 00 00 00	 call	 _memset
  0001d	83 c4 0c	 add	 esp, 12			; 0000000cH
  00020	83 c4 04	 add	 esp, 4
  00023	3b ec		 cmp	 ebp, esp
  00025	e8 00 00 00 00	 call	 __RTC_CheckEsp
  0002a	8b e5		 mov	 esp, ebp
  0002c	5d		 pop	 ebp
  0002d	c2 04 00	 ret	 4
?__autoclassinit2@CHash@@QAEXI@Z ENDP			; CHash::__autoclassinit2
_TEXT	ENDS
; Function compile flags: /Odtp /RTCsu
; File e:\infinia-library-3.0\com\include\comhash.h
;	COMDAT ?setHashValue@CHash@@QAEXPAX@Z
_TEXT	SEGMENT
_this$ = -4						; size = 4
_p$ = 8							; size = 4
?setHashValue@CHash@@QAEXPAX@Z PROC			; CHash::setHashValue, COMDAT
; _this$ = ecx

; 86   : 	inline void setHashValue(void *p) { m_pHashValue = p; }

  00000	55		 push	 ebp
  00001	8b ec		 mov	 ebp, esp
  00003	51		 push	 ecx
  00004	c7 45 fc cc cc
	cc cc		 mov	 DWORD PTR [ebp-4], -858993460 ; ccccccccH
  0000b	89 4d fc	 mov	 DWORD PTR _this$[ebp], ecx
  0000e	8b 45 fc	 mov	 eax, DWORD PTR _this$[ebp]
  00011	8b 4d 08	 mov	 ecx, DWORD PTR _p$[ebp]
  00014	89 48 0c	 mov	 DWORD PTR [eax+12], ecx
  00017	8b e5		 mov	 esp, ebp
  00019	5d		 pop	 ebp
  0001a	c2 04 00	 ret	 4
?setHashValue@CHash@@QAEXPAX@Z ENDP			; CHash::setHashValue
_TEXT	ENDS
END
