; Listing generated by Microsoft (R) Optimizing Compiler Version 19.00.24215.1 

	TITLE	D:\NewProject2\com\src\comMisc.cpp
	.686P
	.XMM
	include listing.inc
	.model	flat

INCLUDELIB MSVCRTD
INCLUDELIB OLDNAMES

CONST	SEGMENT
$SG79212 DB	'getmsec : %lld, %ld (milli seconds)', 0aH, 00H
CONST	ENDS
PUBLIC	___local_stdio_printf_options
PUBLIC	__vfprintf_l
PUBLIC	??$__vcrt_va_start_verify_argument_type@QBD@@YAXXZ ; __vcrt_va_start_verify_argument_type<char const * const>
PUBLIC	_printf
PUBLIC	?m_Sleep@Misc@@SAXH@Z				; Misc::m_Sleep
PUBLIC	?u_Sleep@Misc@@SAXH@Z				; Misc::u_Sleep
PUBLIC	?timespec_diff_ns@Misc@@SAXPAUtimespec@@00@Z	; Misc::timespec_diff_ns
PUBLIC	?timespec_diff_ms@Misc@@SAXPAUtimespec@@00@Z	; Misc::timespec_diff_ms
PUBLIC	?getmsec@Misc@@SAXPAUtimespec@@@Z		; Misc::getmsec
PUBLIC	?_OptionsStorage@?1??__local_stdio_printf_options@@9@4_KA ; `__local_stdio_printf_options'::`2'::_OptionsStorage
EXTRN	__imp____acrt_iob_func:PROC
EXTRN	__imp____stdio_common_vfprintf:PROC
EXTRN	__imp___time64:PROC
EXTRN	__imp__Sleep@4:PROC
EXTRN	__imp__GetSystemTime@4:PROC
EXTRN	@_RTC_CheckStackVars@8:PROC
EXTRN	@__security_check_cookie@4:PROC
EXTRN	__RTC_CheckEsp:PROC
EXTRN	__RTC_InitBase:PROC
EXTRN	__RTC_Shutdown:PROC
EXTRN	___security_cookie:DWORD
;	COMDAT ?_OptionsStorage@?1??__local_stdio_printf_options@@9@4_KA
_BSS	SEGMENT
?_OptionsStorage@?1??__local_stdio_printf_options@@9@4_KA DQ 01H DUP (?) ; `__local_stdio_printf_options'::`2'::_OptionsStorage
_BSS	ENDS
;	COMDAT rtc$TMZ
rtc$TMZ	SEGMENT
__RTC_Shutdown.rtc$TMZ DD FLAT:__RTC_Shutdown
rtc$TMZ	ENDS
;	COMDAT rtc$IMZ
rtc$IMZ	SEGMENT
__RTC_InitBase.rtc$IMZ DD FLAT:__RTC_InitBase
rtc$IMZ	ENDS
; Function compile flags: /Odtp /RTCsu
; File d:\newproject2\com\src\commisc.cpp
_TEXT	SEGMENT
_sysTm$ = -24						; size = 16
__$ArrayPad$ = -4					; size = 4
_cur$ = 8						; size = 4
?getmsec@Misc@@SAXPAUtimespec@@@Z PROC			; Misc::getmsec

; 66   : {

  00000	55		 push	 ebp
  00001	8b ec		 mov	 ebp, esp
  00003	83 ec 1c	 sub	 esp, 28			; 0000001cH
  00006	56		 push	 esi
  00007	b8 cc cc cc cc	 mov	 eax, -858993460		; ccccccccH
  0000c	89 45 e4	 mov	 DWORD PTR [ebp-28], eax
  0000f	89 45 e8	 mov	 DWORD PTR [ebp-24], eax
  00012	89 45 ec	 mov	 DWORD PTR [ebp-20], eax
  00015	89 45 f0	 mov	 DWORD PTR [ebp-16], eax
  00018	89 45 f4	 mov	 DWORD PTR [ebp-12], eax
  0001b	89 45 f8	 mov	 DWORD PTR [ebp-8], eax
  0001e	89 45 fc	 mov	 DWORD PTR [ebp-4], eax
  00021	a1 00 00 00 00	 mov	 eax, DWORD PTR ___security_cookie
  00026	33 c5		 xor	 eax, ebp
  00028	89 45 fc	 mov	 DWORD PTR __$ArrayPad$[ebp], eax

; 67   : #ifndef WIN32
; 68   : 	clock_gettime(CLOCK_REALTIME, cur);
; 69   : 	cur->tv_nsec = cur->tv_nsec / MSEC_PER_SEC;
; 70   : #else
; 71   : 	SYSTEMTIME	sysTm;
; 72   : 	GetSystemTime(&sysTm);

  0002b	8b f4		 mov	 esi, esp
  0002d	8d 45 e8	 lea	 eax, DWORD PTR _sysTm$[ebp]
  00030	50		 push	 eax
  00031	ff 15 00 00 00
	00		 call	 DWORD PTR __imp__GetSystemTime@4
  00037	3b f4		 cmp	 esi, esp
  00039	e8 00 00 00 00	 call	 __RTC_CheckEsp

; 73   : 	cur->tv_sec = (int)time(NULL);

  0003e	6a 00		 push	 0
  00040	e8 00 00 00 00	 call	 _time
  00045	83 c4 04	 add	 esp, 4
  00048	99		 cdq
  00049	8b 4d 08	 mov	 ecx, DWORD PTR _cur$[ebp]
  0004c	89 01		 mov	 DWORD PTR [ecx], eax
  0004e	89 51 04	 mov	 DWORD PTR [ecx+4], edx

; 74   : 	cur->tv_nsec = sysTm.wMilliseconds;

  00051	0f b7 55 f6	 movzx	 edx, WORD PTR _sysTm$[ebp+14]
  00055	8b 45 08	 mov	 eax, DWORD PTR _cur$[ebp]
  00058	89 50 08	 mov	 DWORD PTR [eax+8], edx

; 75   : 	printf("getmsec : %lld, %ld (milli seconds)\n", cur->tv_sec, cur->tv_nsec);

  0005b	8b 4d 08	 mov	 ecx, DWORD PTR _cur$[ebp]
  0005e	8b 51 08	 mov	 edx, DWORD PTR [ecx+8]
  00061	52		 push	 edx
  00062	8b 45 08	 mov	 eax, DWORD PTR _cur$[ebp]
  00065	8b 48 04	 mov	 ecx, DWORD PTR [eax+4]
  00068	51		 push	 ecx
  00069	8b 10		 mov	 edx, DWORD PTR [eax]
  0006b	52		 push	 edx
  0006c	68 00 00 00 00	 push	 OFFSET $SG79212
  00071	e8 00 00 00 00	 call	 _printf
  00076	83 c4 10	 add	 esp, 16			; 00000010H

; 76   : #endif
; 77   : }

  00079	52		 push	 edx
  0007a	8b cd		 mov	 ecx, ebp
  0007c	50		 push	 eax
  0007d	8d 15 00 00 00
	00		 lea	 edx, DWORD PTR $LN5@getmsec
  00083	e8 00 00 00 00	 call	 @_RTC_CheckStackVars@8
  00088	58		 pop	 eax
  00089	5a		 pop	 edx
  0008a	5e		 pop	 esi
  0008b	8b 4d fc	 mov	 ecx, DWORD PTR __$ArrayPad$[ebp]
  0008e	33 cd		 xor	 ecx, ebp
  00090	e8 00 00 00 00	 call	 @__security_check_cookie@4
  00095	83 c4 1c	 add	 esp, 28			; 0000001cH
  00098	3b ec		 cmp	 ebp, esp
  0009a	e8 00 00 00 00	 call	 __RTC_CheckEsp
  0009f	8b e5		 mov	 esp, ebp
  000a1	5d		 pop	 ebp
  000a2	c3		 ret	 0
  000a3	90		 npad	 1
$LN5@getmsec:
  000a4	01 00 00 00	 DD	 1
  000a8	00 00 00 00	 DD	 $LN4@getmsec
$LN4@getmsec:
  000ac	e8 ff ff ff	 DD	 -24			; ffffffe8H
  000b0	10 00 00 00	 DD	 16			; 00000010H
  000b4	00 00 00 00	 DD	 $LN3@getmsec
$LN3@getmsec:
  000b8	73		 DB	 115			; 00000073H
  000b9	79		 DB	 121			; 00000079H
  000ba	73		 DB	 115			; 00000073H
  000bb	54		 DB	 84			; 00000054H
  000bc	6d		 DB	 109			; 0000006dH
  000bd	00		 DB	 0
?getmsec@Misc@@SAXPAUtimespec@@@Z ENDP			; Misc::getmsec
_TEXT	ENDS
; Function compile flags: /Odtp /RTCsu
; File d:\newproject2\com\src\commisc.cpp
_TEXT	SEGMENT
_start$ = 8						; size = 4
_stop$ = 12						; size = 4
_result$ = 16						; size = 4
?timespec_diff_ms@Misc@@SAXPAUtimespec@@00@Z PROC	; Misc::timespec_diff_ms

; 54   : {

  00000	55		 push	 ebp
  00001	8b ec		 mov	 ebp, esp

; 55   : 	if ((stop->tv_nsec - start->tv_nsec) < 0) {

  00003	8b 45 0c	 mov	 eax, DWORD PTR _stop$[ebp]
  00006	8b 4d 08	 mov	 ecx, DWORD PTR _start$[ebp]
  00009	8b 50 08	 mov	 edx, DWORD PTR [eax+8]
  0000c	2b 51 08	 sub	 edx, DWORD PTR [ecx+8]
  0000f	79 38		 jns	 SHORT $LN2@timespec_d

; 56   : 		result->tv_sec = stop->tv_sec - start->tv_sec - 1;

  00011	8b 45 0c	 mov	 eax, DWORD PTR _stop$[ebp]
  00014	8b 4d 08	 mov	 ecx, DWORD PTR _start$[ebp]
  00017	8b 10		 mov	 edx, DWORD PTR [eax]
  00019	2b 11		 sub	 edx, DWORD PTR [ecx]
  0001b	8b 40 04	 mov	 eax, DWORD PTR [eax+4]
  0001e	1b 41 04	 sbb	 eax, DWORD PTR [ecx+4]
  00021	83 ea 01	 sub	 edx, 1
  00024	83 d8 00	 sbb	 eax, 0
  00027	8b 4d 10	 mov	 ecx, DWORD PTR _result$[ebp]
  0002a	89 11		 mov	 DWORD PTR [ecx], edx
  0002c	89 41 04	 mov	 DWORD PTR [ecx+4], eax

; 57   : 		result->tv_nsec = stop->tv_nsec - start->tv_nsec + MSEC_PER_SEC;

  0002f	8b 55 0c	 mov	 edx, DWORD PTR _stop$[ebp]
  00032	8b 45 08	 mov	 eax, DWORD PTR _start$[ebp]
  00035	8b 4a 08	 mov	 ecx, DWORD PTR [edx+8]
  00038	2b 48 08	 sub	 ecx, DWORD PTR [eax+8]
  0003b	81 c1 40 42 0f
	00		 add	 ecx, 1000000		; 000f4240H
  00041	8b 55 10	 mov	 edx, DWORD PTR _result$[ebp]
  00044	89 4a 08	 mov	 DWORD PTR [edx+8], ecx

; 58   : 	}
; 59   : 	else {

  00047	eb 2a		 jmp	 SHORT $LN1@timespec_d
$LN2@timespec_d:

; 60   : 		result->tv_sec = stop->tv_sec - start->tv_sec;

  00049	8b 45 0c	 mov	 eax, DWORD PTR _stop$[ebp]
  0004c	8b 4d 08	 mov	 ecx, DWORD PTR _start$[ebp]
  0004f	8b 10		 mov	 edx, DWORD PTR [eax]
  00051	2b 11		 sub	 edx, DWORD PTR [ecx]
  00053	8b 40 04	 mov	 eax, DWORD PTR [eax+4]
  00056	1b 41 04	 sbb	 eax, DWORD PTR [ecx+4]
  00059	8b 4d 10	 mov	 ecx, DWORD PTR _result$[ebp]
  0005c	89 11		 mov	 DWORD PTR [ecx], edx
  0005e	89 41 04	 mov	 DWORD PTR [ecx+4], eax

; 61   : 		result->tv_nsec = stop->tv_nsec - start->tv_nsec;

  00061	8b 55 0c	 mov	 edx, DWORD PTR _stop$[ebp]
  00064	8b 45 08	 mov	 eax, DWORD PTR _start$[ebp]
  00067	8b 4a 08	 mov	 ecx, DWORD PTR [edx+8]
  0006a	2b 48 08	 sub	 ecx, DWORD PTR [eax+8]
  0006d	8b 55 10	 mov	 edx, DWORD PTR _result$[ebp]
  00070	89 4a 08	 mov	 DWORD PTR [edx+8], ecx
$LN1@timespec_d:

; 62   : 	}
; 63   : }

  00073	5d		 pop	 ebp
  00074	c3		 ret	 0
?timespec_diff_ms@Misc@@SAXPAUtimespec@@00@Z ENDP	; Misc::timespec_diff_ms
_TEXT	ENDS
; Function compile flags: /Odtp /RTCsu
; File d:\newproject2\com\src\commisc.cpp
_TEXT	SEGMENT
_start$ = 8						; size = 4
_stop$ = 12						; size = 4
_result$ = 16						; size = 4
?timespec_diff_ns@Misc@@SAXPAUtimespec@@00@Z PROC	; Misc::timespec_diff_ns

; 43   : {

  00000	55		 push	 ebp
  00001	8b ec		 mov	 ebp, esp

; 44   : 	if ((stop->tv_nsec - start->tv_nsec) < 0) {

  00003	8b 45 0c	 mov	 eax, DWORD PTR _stop$[ebp]
  00006	8b 4d 08	 mov	 ecx, DWORD PTR _start$[ebp]
  00009	8b 50 08	 mov	 edx, DWORD PTR [eax+8]
  0000c	2b 51 08	 sub	 edx, DWORD PTR [ecx+8]
  0000f	79 38		 jns	 SHORT $LN2@timespec_d

; 45   : 		result->tv_sec = stop->tv_sec - start->tv_sec - 1;

  00011	8b 45 0c	 mov	 eax, DWORD PTR _stop$[ebp]
  00014	8b 4d 08	 mov	 ecx, DWORD PTR _start$[ebp]
  00017	8b 10		 mov	 edx, DWORD PTR [eax]
  00019	2b 11		 sub	 edx, DWORD PTR [ecx]
  0001b	8b 40 04	 mov	 eax, DWORD PTR [eax+4]
  0001e	1b 41 04	 sbb	 eax, DWORD PTR [ecx+4]
  00021	83 ea 01	 sub	 edx, 1
  00024	83 d8 00	 sbb	 eax, 0
  00027	8b 4d 10	 mov	 ecx, DWORD PTR _result$[ebp]
  0002a	89 11		 mov	 DWORD PTR [ecx], edx
  0002c	89 41 04	 mov	 DWORD PTR [ecx+4], eax

; 46   : 		result->tv_nsec = stop->tv_nsec - start->tv_nsec + NSEC_PER_SEC;

  0002f	8b 55 0c	 mov	 edx, DWORD PTR _stop$[ebp]
  00032	8b 45 08	 mov	 eax, DWORD PTR _start$[ebp]
  00035	8b 4a 08	 mov	 ecx, DWORD PTR [edx+8]
  00038	2b 48 08	 sub	 ecx, DWORD PTR [eax+8]
  0003b	81 c1 00 ca 9a
	3b		 add	 ecx, 1000000000		; 3b9aca00H
  00041	8b 55 10	 mov	 edx, DWORD PTR _result$[ebp]
  00044	89 4a 08	 mov	 DWORD PTR [edx+8], ecx

; 47   : 	}
; 48   : 	else {

  00047	eb 2a		 jmp	 SHORT $LN1@timespec_d
$LN2@timespec_d:

; 49   : 		result->tv_sec = stop->tv_sec - start->tv_sec;

  00049	8b 45 0c	 mov	 eax, DWORD PTR _stop$[ebp]
  0004c	8b 4d 08	 mov	 ecx, DWORD PTR _start$[ebp]
  0004f	8b 10		 mov	 edx, DWORD PTR [eax]
  00051	2b 11		 sub	 edx, DWORD PTR [ecx]
  00053	8b 40 04	 mov	 eax, DWORD PTR [eax+4]
  00056	1b 41 04	 sbb	 eax, DWORD PTR [ecx+4]
  00059	8b 4d 10	 mov	 ecx, DWORD PTR _result$[ebp]
  0005c	89 11		 mov	 DWORD PTR [ecx], edx
  0005e	89 41 04	 mov	 DWORD PTR [ecx+4], eax

; 50   : 		result->tv_nsec = stop->tv_nsec - start->tv_nsec;

  00061	8b 55 0c	 mov	 edx, DWORD PTR _stop$[ebp]
  00064	8b 45 08	 mov	 eax, DWORD PTR _start$[ebp]
  00067	8b 4a 08	 mov	 ecx, DWORD PTR [edx+8]
  0006a	2b 48 08	 sub	 ecx, DWORD PTR [eax+8]
  0006d	8b 55 10	 mov	 edx, DWORD PTR _result$[ebp]
  00070	89 4a 08	 mov	 DWORD PTR [edx+8], ecx
$LN1@timespec_d:

; 51   : 	}
; 52   : }

  00073	5d		 pop	 ebp
  00074	c3		 ret	 0
?timespec_diff_ns@Misc@@SAXPAUtimespec@@00@Z ENDP	; Misc::timespec_diff_ns
_TEXT	ENDS
; Function compile flags: /Odtp /RTCsu
; File d:\newproject2\com\src\commisc.cpp
_TEXT	SEGMENT
_iuSec$ = 8						; size = 4
?u_Sleep@Misc@@SAXH@Z PROC				; Misc::u_Sleep

; 30   : {

  00000	55		 push	 ebp
  00001	8b ec		 mov	 ebp, esp
  00003	56		 push	 esi

; 31   : #ifndef WIN32
; 32   : 	//struct  timeval timedelay;
; 33   : 	//timedelay.tv_sec = (iuSec) / 1000000;
; 34   : 	//timedelay.tv_usec = (iuSec) % 1000000;
; 35   : 	//select(0,(fd_set*)0,(fd_set*)0,(fd_set*)0,&timedelay);
; 36   : 	usleep(iuSec);
; 37   : #else
; 38   : 	Sleep(1);

  00004	8b f4		 mov	 esi, esp
  00006	6a 01		 push	 1
  00008	ff 15 00 00 00
	00		 call	 DWORD PTR __imp__Sleep@4
  0000e	3b f4		 cmp	 esi, esp
  00010	e8 00 00 00 00	 call	 __RTC_CheckEsp

; 39   : 	//WINDOW 에서 10ms 이하는 정확하게 보장할수 없음
; 40   : #endif
; 41   : }

  00015	5e		 pop	 esi
  00016	3b ec		 cmp	 ebp, esp
  00018	e8 00 00 00 00	 call	 __RTC_CheckEsp
  0001d	5d		 pop	 ebp
  0001e	c3		 ret	 0
?u_Sleep@Misc@@SAXH@Z ENDP				; Misc::u_Sleep
_TEXT	ENDS
; Function compile flags: /Odtp /RTCsu
; File d:\newproject2\com\src\commisc.cpp
_TEXT	SEGMENT
_iMiliSec$ = 8						; size = 4
?m_Sleep@Misc@@SAXH@Z PROC				; Misc::m_Sleep

; 17   : {

  00000	55		 push	 ebp
  00001	8b ec		 mov	 ebp, esp
  00003	56		 push	 esi

; 18   : #ifndef WIN32
; 19   : 	//struct  timeval timedelay;
; 20   : 	//timedelay.tv_sec = (iMiliSec * 1000) / 1000000;
; 21   : 	//timedelay.tv_usec = (iMiliSec * 1000) % 1000000;
; 22   : 	//select(0,(fd_set*)0,(fd_set*)0,(fd_set*)0,&timedelay);
; 23   : 	usleep(iMiliSec * 1000);
; 24   : #else
; 25   : 	Sleep(iMiliSec);

  00004	8b f4		 mov	 esi, esp
  00006	8b 45 08	 mov	 eax, DWORD PTR _iMiliSec$[ebp]
  00009	50		 push	 eax
  0000a	ff 15 00 00 00
	00		 call	 DWORD PTR __imp__Sleep@4
  00010	3b f4		 cmp	 esi, esp
  00012	e8 00 00 00 00	 call	 __RTC_CheckEsp

; 26   : #endif
; 27   : }

  00017	5e		 pop	 esi
  00018	3b ec		 cmp	 ebp, esp
  0001a	e8 00 00 00 00	 call	 __RTC_CheckEsp
  0001f	5d		 pop	 ebp
  00020	c3		 ret	 0
?m_Sleep@Misc@@SAXH@Z ENDP				; Misc::m_Sleep
_TEXT	ENDS
; Function compile flags: /Odtp /RTCsu
; File c:\program files (x86)\windows kits\10\include\10.0.10240.0\ucrt\time.h
_TEXT	SEGMENT
__Time$ = 8						; size = 4
_time	PROC

; 534  :         {

  00000	55		 push	 ebp
  00001	8b ec		 mov	 ebp, esp
  00003	56		 push	 esi

; 535  :             return _time64(_Time);

  00004	8b f4		 mov	 esi, esp
  00006	8b 45 08	 mov	 eax, DWORD PTR __Time$[ebp]
  00009	50		 push	 eax
  0000a	ff 15 00 00 00
	00		 call	 DWORD PTR __imp___time64
  00010	83 c4 04	 add	 esp, 4
  00013	3b f4		 cmp	 esi, esp
  00015	e8 00 00 00 00	 call	 __RTC_CheckEsp

; 536  :         }

  0001a	5e		 pop	 esi
  0001b	3b ec		 cmp	 ebp, esp
  0001d	e8 00 00 00 00	 call	 __RTC_CheckEsp
  00022	5d		 pop	 ebp
  00023	c3		 ret	 0
_time	ENDP
_TEXT	ENDS
; Function compile flags: /Odtp /RTCsu
; File c:\program files (x86)\windows kits\10\include\10.0.10240.0\ucrt\stdio.h
;	COMDAT _printf
_TEXT	SEGMENT
__ArgList$ = -8						; size = 4
__Result$ = -4						; size = 4
__Format$ = 8						; size = 4
_printf	PROC						; COMDAT

; 950  : {

  00000	55		 push	 ebp
  00001	8b ec		 mov	 ebp, esp
  00003	83 ec 08	 sub	 esp, 8
  00006	56		 push	 esi
  00007	c7 45 f8 cc cc
	cc cc		 mov	 DWORD PTR [ebp-8], -858993460 ; ccccccccH
  0000e	c7 45 fc cc cc
	cc cc		 mov	 DWORD PTR [ebp-4], -858993460 ; ccccccccH

; 951  :     int _Result;
; 952  :     va_list _ArgList;
; 953  :     __crt_va_start(_ArgList, _Format);

  00015	e8 00 00 00 00	 call	 ??$__vcrt_va_start_verify_argument_type@QBD@@YAXXZ ; __vcrt_va_start_verify_argument_type<char const * const>
  0001a	8d 45 0c	 lea	 eax, DWORD PTR __Format$[ebp+4]
  0001d	89 45 f8	 mov	 DWORD PTR __ArgList$[ebp], eax

; 954  :     _Result = _vfprintf_l(stdout, _Format, NULL, _ArgList);

  00020	8b 4d f8	 mov	 ecx, DWORD PTR __ArgList$[ebp]
  00023	51		 push	 ecx
  00024	6a 00		 push	 0
  00026	8b 55 08	 mov	 edx, DWORD PTR __Format$[ebp]
  00029	52		 push	 edx
  0002a	8b f4		 mov	 esi, esp
  0002c	6a 01		 push	 1
  0002e	ff 15 00 00 00
	00		 call	 DWORD PTR __imp____acrt_iob_func
  00034	83 c4 04	 add	 esp, 4
  00037	3b f4		 cmp	 esi, esp
  00039	e8 00 00 00 00	 call	 __RTC_CheckEsp
  0003e	50		 push	 eax
  0003f	e8 00 00 00 00	 call	 __vfprintf_l
  00044	83 c4 10	 add	 esp, 16			; 00000010H
  00047	89 45 fc	 mov	 DWORD PTR __Result$[ebp], eax

; 955  :     __crt_va_end(_ArgList);

  0004a	c7 45 f8 00 00
	00 00		 mov	 DWORD PTR __ArgList$[ebp], 0

; 956  :     return _Result;

  00051	8b 45 fc	 mov	 eax, DWORD PTR __Result$[ebp]

; 957  : }

  00054	5e		 pop	 esi
  00055	83 c4 08	 add	 esp, 8
  00058	3b ec		 cmp	 ebp, esp
  0005a	e8 00 00 00 00	 call	 __RTC_CheckEsp
  0005f	8b e5		 mov	 esp, ebp
  00061	5d		 pop	 ebp
  00062	c3		 ret	 0
_printf	ENDP
_TEXT	ENDS
; Function compile flags: /Odtp /RTCsu
; File c:\program files (x86)\microsoft visual studio 14.0\vc\include\vadefs.h
;	COMDAT ??$__vcrt_va_start_verify_argument_type@QBD@@YAXXZ
_TEXT	SEGMENT
??$__vcrt_va_start_verify_argument_type@QBD@@YAXXZ PROC	; __vcrt_va_start_verify_argument_type<char const * const>, COMDAT

; 144  :         {

  00000	55		 push	 ebp
  00001	8b ec		 mov	 ebp, esp

; 145  :             static_assert(!__vcrt_va_list_is_reference<_Ty>::__the_value, "va_start argument must not have reference type and must not be parenthesized");
; 146  :         }

  00003	5d		 pop	 ebp
  00004	c3		 ret	 0
??$__vcrt_va_start_verify_argument_type@QBD@@YAXXZ ENDP	; __vcrt_va_start_verify_argument_type<char const * const>
_TEXT	ENDS
; Function compile flags: /Odtp /RTCsu
; File c:\program files (x86)\windows kits\10\include\10.0.10240.0\ucrt\stdio.h
;	COMDAT __vfprintf_l
_TEXT	SEGMENT
__Stream$ = 8						; size = 4
__Format$ = 12						; size = 4
__Locale$ = 16						; size = 4
__ArgList$ = 20						; size = 4
__vfprintf_l PROC					; COMDAT

; 638  : {

  00000	55		 push	 ebp
  00001	8b ec		 mov	 ebp, esp
  00003	56		 push	 esi

; 639  :     return __stdio_common_vfprintf(_CRT_INTERNAL_LOCAL_PRINTF_OPTIONS, _Stream, _Format, _Locale, _ArgList);

  00004	8b f4		 mov	 esi, esp
  00006	8b 45 14	 mov	 eax, DWORD PTR __ArgList$[ebp]
  00009	50		 push	 eax
  0000a	8b 4d 10	 mov	 ecx, DWORD PTR __Locale$[ebp]
  0000d	51		 push	 ecx
  0000e	8b 55 0c	 mov	 edx, DWORD PTR __Format$[ebp]
  00011	52		 push	 edx
  00012	8b 45 08	 mov	 eax, DWORD PTR __Stream$[ebp]
  00015	50		 push	 eax
  00016	e8 00 00 00 00	 call	 ___local_stdio_printf_options
  0001b	8b 48 04	 mov	 ecx, DWORD PTR [eax+4]
  0001e	51		 push	 ecx
  0001f	8b 10		 mov	 edx, DWORD PTR [eax]
  00021	52		 push	 edx
  00022	ff 15 00 00 00
	00		 call	 DWORD PTR __imp____stdio_common_vfprintf
  00028	83 c4 18	 add	 esp, 24			; 00000018H
  0002b	3b f4		 cmp	 esi, esp
  0002d	e8 00 00 00 00	 call	 __RTC_CheckEsp

; 640  : }

  00032	5e		 pop	 esi
  00033	3b ec		 cmp	 ebp, esp
  00035	e8 00 00 00 00	 call	 __RTC_CheckEsp
  0003a	5d		 pop	 ebp
  0003b	c3		 ret	 0
__vfprintf_l ENDP
_TEXT	ENDS
; Function compile flags: /Odtp /RTCsu
; File c:\program files (x86)\windows kits\10\include\10.0.10240.0\ucrt\corecrt_stdio_config.h
;	COMDAT ___local_stdio_printf_options
_TEXT	SEGMENT
___local_stdio_printf_options PROC			; COMDAT

; 73   : {

  00000	55		 push	 ebp
  00001	8b ec		 mov	 ebp, esp

; 74   :     static unsigned __int64 _OptionsStorage;
; 75   :     return &_OptionsStorage;

  00003	b8 00 00 00 00	 mov	 eax, OFFSET ?_OptionsStorage@?1??__local_stdio_printf_options@@9@4_KA ; `__local_stdio_printf_options'::`2'::_OptionsStorage

; 76   : }

  00008	5d		 pop	 ebp
  00009	c3		 ret	 0
___local_stdio_printf_options ENDP
_TEXT	ENDS
END
