; Listing generated by Microsoft (R) Optimizing Compiler Version 19.00.24215.1 

	TITLE	D:\NewProject2\com\src\comSTLogger.cpp
	.686P
	.XMM
	include listing.inc
	.model	flat

INCLUDELIB MSVCRTD
INCLUDELIB OLDNAMES

PUBLIC	?gs_pLogger@@3PAVCSTLogger@@A			; gs_pLogger
PUBLIC	?gs_pToday_time@@3PAUSTTodayTime@@A		; gs_pToday_time
_BSS	SEGMENT
?gs_pLogger@@3PAVCSTLogger@@A DD 01H DUP (?)		; gs_pLogger
?gs_pToday_time@@3PAUSTTodayTime@@A DD 01H DUP (?)	; gs_pToday_time
_BSS	ENDS
CONST	SEGMENT
$SG44341 DB	00H
	ORG $+3
$SG44342 DB	'[DEBUG] ', 00H
	ORG $+3
$SG44343 DB	'[TRACE] ', 00H
	ORG $+3
$SG44344 DB	'[WARNING] ', 00H
	ORG $+1
$SG44345 DB	'[INFO] ', 00H
$SG44346 DB	'[ERROR] ', 00H
	ORG $+3
$SG44347 DB	'[FATAL] [ALARM] ', 00H
	ORG $+3
$SG44410 DB	'LIST_MAX', 00H
	ORG $+3
$SG44411 DB	'LOG', 00H
$SG44412 DB	'IDX_BUF_%d', 00H
	ORG $+1
$SG44413 DB	'MPOOL', 00H
	ORG $+2
$SG44414 DB	'IDX_BUF_%d', 00H
	ORG $+1
$SG44415 DB	'MPOOL', 00H
	ORG $+2
$SG44416 DB	'IDX_BUF_%d', 00H
	ORG $+1
$SG44417 DB	'MPOOL', 00H
	ORG $+2
$SG44425 DB	'CSTLogger::initMemory ERROR! IS_CREATE_LOGGER flag off', 00H
	ORG $+1
$SG44427 DB	'CSTLogger::initMemory ERROR! m_sLogQueue.pList is NULL', 00H
	ORG $+1
$SG44445 DB	'CSTLogger::initCSLogger ERROR! IS_CREATE_LOGGER flag off'
	DB	00H
	ORG $+3
$SG44456 DB	'CSTLogger::Start ERROR! IS_CREATE_LOGGER flag off', 00H
	ORG $+2
$SG44458 DB	'FAIL CREATE LogThread !!', 0aH, 00H
	ORG $+2
$SG44479 DB	'[%04d%02d%02d %02d%02d%02d] nSIdx[%d] Send [%d] PKIdx[%d'
	DB	'] ', 00H
	ORG $+1
$SG44480 DB	'[%04d%02d%02d %02d%02d%02d] nSIdx[%d] Recv [%d] PKIdx[%d'
	DB	'] ', 00H
	ORG $+1
$SG44481 DB	'[%04d%02d%02d %02d%02d%02d] nSIdx[%d] send Queue [%d] PK'
	DB	'Idx[%d] ', 00H
	ORG $+3
$SG44483 DB	'[%04d%02d%02d %02d%02d%02d] Undefind nkind[%d] [%d] PKId'
	DB	'x[%d] ', 00H
	ORG $+1
$SG44512 DB	'[%s %s] %s', 00H
	ORG $+1
$SG44482 DB	'[%04d%02d%02d %02d%02d%02d] nSIdx[%d] recv Queue [%d] PK'
	DB	'Idx[%d] ', 00H
	ORG $+3
$SG44486 DB	'%02x ', 00H
	ORG $+2
$SG44537 DB	'[%s %s] %s', 00H
	ORG $+1
$SG44567 DB	'%s %s %d', 00H
	ORG $+3
$SG44568 DB	'[%s %s] [%s] %s', 00H
$SG44578 DB	'%s%s', 0aH, 00H
	ORG $+2
$SG44580 DB	'CSTLogger::_putLogQueue m_sLogQueue is FULL!! ', 0aH, 0aH
	DB	00H
	ORG $+3
$SG44581 DB	'%s', 00H
	ORG $+1
$SG44616 DB	'm_pfDayChange Proc', 00H
	ORG $+1
$SG44623 DB	'nLogSize[%d] nLimitSize[%d] [%s-%s]', 00H
$SG44631 DB	'CSTLogger::dayChangedProc Day Changed! ', 00H
$SG44633 DB	'delete log file count[%d] date[%s]', 00H
	ORG $+1
$SG44645 DB	'%s/%s-%s-%d.log', 00H
$SG44648 DB	'%s/%s_%d.log', 00H
	ORG $+3
$SG44649 DB	'delete Log[%s] nRes[%d]', 00H
$SG44652 DB	'%s/%s_%d.log', 00H
	ORG $+3
$SG44653 DB	'delete Log[%s] nRes[%d]', 00H
$SG44655 DB	'%s/%s_%d.log', 00H
	ORG $+3
$SG44656 DB	'delete Log[%s] nRes[%d]', 00H
$SG44657 DB	'%s/%s_%d.log', 00H
	ORG $+3
$SG44658 DB	'[%s] Logger Open', 0aH, 00H
CONST	ENDS
_DATA	SEGMENT
?gs_fmtStr@@3PAPBDA DD FLAT:$SG44341			; gs_fmtStr
	DD	FLAT:$SG44342
	DD	FLAT:$SG44343
	DD	FLAT:$SG44344
	DD	FLAT:$SG44345
	DD	FLAT:$SG44346
	DD	FLAT:$SG44347
	ORG $+4
_DATA	ENDS
PUBLIC	?SetLogLevel@CLogger@@QAEXH@Z			; CLogger::SetLogLevel
PUBLIC	?SetDateTimeFlag@CLogger@@QAEXH@Z		; CLogger::SetDateTimeFlag
PUBLIC	?__autoclassinit2@CLogger@@QAEXI@Z		; CLogger::__autoclassinit2
PUBLIC	??_GCLogger@@QAEPAXI@Z				; CLogger::`scalar deleting destructor'
PUBLIC	___local_stdio_printf_options
PUBLIC	__vfprintf_l
PUBLIC	??$__vcrt_va_start_verify_argument_type@QBD@@YAXXZ ; __vcrt_va_start_verify_argument_type<char const * const>
PUBLIC	_printf
PUBLIC	__vsnprintf_l
PUBLIC	__vsnprintf
PUBLIC	_vsnprintf
PUBLIC	__vsprintf_l
PUBLIC	_sprintf
PUBLIC	??1abstract_condition@common@@UAE@XZ		; common::abstract_condition::~abstract_condition
PUBLIC	??0abstract_condition@common@@QAE@XZ		; common::abstract_condition::abstract_condition
PUBLIC	??_Gabstract_condition@common@@UAEPAXI@Z	; common::abstract_condition::`scalar deleting destructor'
PUBLIC	??0condition@win32@common@@QAE@XZ		; common::win32::condition::condition
PUBLIC	??1condition@win32@common@@UAE@XZ		; common::win32::condition::~condition
PUBLIC	?signal@condition@win32@common@@UAEXXZ		; common::win32::condition::signal
PUBLIC	?signal_all@condition@win32@common@@UAEXXZ	; common::win32::condition::signal_all
PUBLIC	?wait@condition@win32@common@@QAE_NHPAVcritical_section@23@@Z ; common::win32::condition::wait
PUBLIC	??_Gcondition@win32@common@@UAEPAXI@Z		; common::win32::condition::`scalar deleting destructor'
PUBLIC	?size@StCOMQueue@@QAEHXZ			; StCOMQueue::size
PUBLIC	?pop@StCOMQueue@@QAEXXZ				; StCOMQueue::pop
PUBLIC	?push@StCOMQueue@@QAEXPAX@Z			; StCOMQueue::push
PUBLIC	?isFull@StCOMQueue@@QAE_NXZ			; StCOMQueue::isFull
PUBLIC	?front@StCOMQueue@@QAEPAXXZ			; StCOMQueue::front
PUBLIC	?Year@CDateTime@@QAEHXZ				; CDateTime::Year
PUBLIC	?Month@CDateTime@@QAEHXZ			; CDateTime::Month
PUBLIC	?Mday@CDateTime@@QAEHXZ				; CDateTime::Mday
PUBLIC	?Wday@CDateTime@@QAEHXZ				; CDateTime::Wday
PUBLIC	?Hour@CDateTime@@QAEHXZ				; CDateTime::Hour
PUBLIC	?Minute@CDateTime@@QAEHXZ			; CDateTime::Minute
PUBLIC	?Sec@CDateTime@@QAEHXZ				; CDateTime::Sec
PUBLIC	??0CSTLogger@@QAE@XZ				; CSTLogger::CSTLogger
PUBLIC	??0CSTLogger@@QAE@_N@Z				; CSTLogger::CSTLogger
PUBLIC	??1CSTLogger@@QAE@XZ				; CSTLogger::~CSTLogger
PUBLIC	?initSystem@CSTLogger@@QAE_NXZ			; CSTLogger::initSystem
PUBLIC	?init@CSTLogger@@QAE_NH@Z			; CSTLogger::init
PUBLIC	?initCSLogger@CSTLogger@@QAEXPBD0H@Z		; CSTLogger::initCSLogger
PUBLIC	?Start@CSTLogger@@QAE_NXZ			; CSTLogger::Start
PUBLIC	?DoWritePacket@CSTLogger@@QAEXHHHPADH@Z		; CSTLogger::DoWritePacket
PUBLIC	?PutLogQueue@CSTLogger@@QAAXHPBDZZ		; CSTLogger::PutLogQueue
PUBLIC	?PutLogQueueL@CSTLogger@@QAAXHHPBDZZ		; CSTLogger::PutLogQueueL
PUBLIC	?GetQueue@CSTLogger@@QAEXXZ			; CSTLogger::GetQueue
PUBLIC	?LogThread@CSTLogger@@SGKPAX@Z			; CSTLogger::LogThread
PUBLIC	?setPFDayChange@CSTLogger@@QAEXP6AXH@Z@Z	; CSTLogger::setPFDayChange
PUBLIC	?setPFHourChange@CSTLogger@@QAEXP6AXH@Z@Z	; CSTLogger::setPFHourChange
PUBLIC	?setPFProcessDataFromQueue@CSTLogger@@QAEXP6AXPAX0@Z0@Z ; CSTLogger::setPFProcessDataFromQueue
PUBLIC	?TimeProc@CSTLogger@@QAEXPAVCDateTime@@@Z	; CSTLogger::TimeProc
PUBLIC	?addSeq@CSTLogger@@QAEXXZ			; CSTLogger::addSeq
PUBLIC	?__Log@CSTLogger@@QAAXHPBD0H0ZZ			; CSTLogger::__Log
PUBLIC	?dayChangedProc@CSTLogger@@AAEXPAVCDateTime@@@Z	; CSTLogger::dayChangedProc
PUBLIC	?myLoggerOpen@CSTLogger@@AAEXPAVCDateTime@@@Z	; CSTLogger::myLoggerOpen
PUBLIC	?_putLogQueue@CSTLogger@@AAEXPAD0H0@Z		; CSTLogger::_putLogQueue
PUBLIC	?_initClass@CSTLogger@@AAEX_N@Z			; CSTLogger::_initClass
PUBLIC	??$__vcrt_va_start_verify_argument_type@PBD@@YAXXZ ; __vcrt_va_start_verify_argument_type<char const *>
PUBLIC	??$__vcrt_va_start_verify_argument_type@$$BY0CAA@D@@YAXXZ ; __vcrt_va_start_verify_argument_type<char [512]>
PUBLIC	?_OptionsStorage@?1??__local_stdio_printf_options@@9@4_KA ; `__local_stdio_printf_options'::`2'::_OptionsStorage
PUBLIC	??_7abstract_condition@common@@6B@		; common::abstract_condition::`vftable'
PUBLIC	??_7condition@win32@common@@6B@			; common::win32::condition::`vftable'
PUBLIC	??_R4abstract_condition@common@@6B@		; common::abstract_condition::`RTTI Complete Object Locator'
PUBLIC	??_R0?AVabstract_condition@common@@@8		; common::abstract_condition `RTTI Type Descriptor'
PUBLIC	??_R3abstract_condition@common@@8		; common::abstract_condition::`RTTI Class Hierarchy Descriptor'
PUBLIC	??_R2abstract_condition@common@@8		; common::abstract_condition::`RTTI Base Class Array'
PUBLIC	??_R1A@?0A@EA@abstract_condition@common@@8	; common::abstract_condition::`RTTI Base Class Descriptor at (0,-1,0,64)'
PUBLIC	??_R4condition@win32@common@@6B@		; common::win32::condition::`RTTI Complete Object Locator'
PUBLIC	??_R0?AVcondition@win32@common@@@8		; common::win32::condition `RTTI Type Descriptor'
PUBLIC	??_R3condition@win32@common@@8			; common::win32::condition::`RTTI Class Hierarchy Descriptor'
PUBLIC	??_R2condition@win32@common@@8			; common::win32::condition::`RTTI Base Class Array'
PUBLIC	??_R1A@?0A@EA@condition@win32@common@@8		; common::win32::condition::`RTTI Base Class Descriptor at (0,-1,0,64)'
EXTRN	__purecall:PROC
EXTRN	??2@YAPAXI@Z:PROC				; operator new
EXTRN	??3@YAXPAXI@Z:PROC				; operator delete
EXTRN	??_U@YAPAXI@Z:PROC				; operator new[]
EXTRN	_memset:PROC
EXTRN	_strcpy:PROC
EXTRN	_strlen:PROC
EXTRN	??0CLogger@@QAE@XZ:PROC				; CLogger::CLogger
EXTRN	??1CLogger@@QAE@XZ:PROC				; CLogger::~CLogger
EXTRN	?OpenLogger@CLogger@@QAEXPBD@Z:PROC		; CLogger::OpenLogger
EXTRN	?LogPrint@CLogger@@QAEXPAD@Z:PROC		; CLogger::LogPrint
EXTRN	?getLogSize@CLogger@@QAEHXZ:PROC		; CLogger::getLogSize
EXTRN	__imp____acrt_iob_func:PROC
EXTRN	__imp__remove:PROC
EXTRN	__imp____stdio_common_vfprintf:PROC
EXTRN	__imp____stdio_common_vsprintf:PROC
EXTRN	__imp__calloc:PROC
EXTRN	__imp__free:PROC
EXTRN	__imp__abort:PROC
EXTRN	__imp__atoi:PROC
EXTRN	__imp__InitializeSRWLock@4:PROC
EXTRN	__imp__ReleaseSRWLockExclusive@4:PROC
EXTRN	__imp__AcquireSRWLockExclusive@4:PROC
EXTRN	__imp__CreateThread@24:PROC
EXTRN	__imp__SetEvent@4:PROC
EXTRN	__imp__ResetEvent@4:PROC
EXTRN	__imp__WaitForSingleObject@8:PROC
EXTRN	__imp__CloseHandle@4:PROC
EXTRN	__imp__CreateEventA@16:PROC
EXTRN	__imp__GetPrivateProfileIntA@16:PROC
EXTRN	??_Eabstract_condition@common@@UAEPAXI@Z:PROC	; common::abstract_condition::`vector deleting destructor'
EXTRN	??_Econdition@win32@common@@UAEPAXI@Z:PROC	; common::win32::condition::`vector deleting destructor'
EXTRN	?init@CMemManager@@QAEXPAUSTBufConf@@@Z:PROC	; CMemManager::init
EXTRN	?newBuf@CMemManager@@QAEPADI@Z:PROC		; CMemManager::newBuf
EXTRN	?newBuf@CMemManager@@QAEPADIPAH@Z:PROC		; CMemManager::newBuf
EXTRN	?delBuf@CMemManager@@QAEXPADI@Z:PROC		; CMemManager::delBuf
EXTRN	??0CDateTime@@QAE@XZ:PROC			; CDateTime::CDateTime
EXTRN	??1CDateTime@@QAE@XZ:PROC			; CDateTime::~CDateTime
EXTRN	?addDateString@CDateTime@@QAEPBDHH@Z:PROC	; CDateTime::addDateString
EXTRN	?DateString@CDateTime@@QAEPBDH@Z:PROC		; CDateTime::DateString
EXTRN	?TimeString@CDateTime@@QAEPBDH@Z:PROC		; CDateTime::TimeString
EXTRN	?DateString2@CDateTime@@QAEPBDXZ:PROC		; CDateTime::DateString2
EXTRN	?TimeString2@CDateTime@@QAEPBDXZ:PROC		; CDateTime::TimeString2
EXTRN	?TimeString3@CDateTime@@QAEPBDXZ:PROC		; CDateTime::TimeString3
EXTRN	?delSSFile@CFileUtil@@SAHPADH0@Z:PROC		; CFileUtil::delSSFile
EXTRN	?initSystem@CEnv@@SAHPAD@Z:PROC			; CEnv::initSystem
EXTRN	?getPathSystem@CEnv@@SAPADXZ:PROC		; CEnv::getPathSystem
EXTRN	@_RTC_CheckStackVars@8:PROC
EXTRN	@__security_check_cookie@4:PROC
EXTRN	__RTC_CheckEsp:PROC
EXTRN	__RTC_InitBase:PROC
EXTRN	__RTC_Shutdown:PROC
EXTRN	___CxxFrameHandler3:PROC
EXTRN	__chkstk:PROC
EXTRN	_memset:PROC
EXTRN	?g_cMMgr@@3VCMemManager@@A:BYTE			; g_cMMgr
EXTRN	??_7type_info@@6B@:QWORD			; type_info::`vftable'
EXTRN	___security_cookie:DWORD
;	COMDAT ?_OptionsStorage@?1??__local_stdio_printf_options@@9@4_KA
_BSS	SEGMENT
?_OptionsStorage@?1??__local_stdio_printf_options@@9@4_KA DQ 01H DUP (?) ; `__local_stdio_printf_options'::`2'::_OptionsStorage
_BSS	ENDS
_BSS	SEGMENT
?Lock_Logger@@3U_RTL_SRWLOCK@@A DD 01H DUP (?)		; Lock_Logger
?gs_today_time@@3USTTodayTime@@A DB 01cH DUP (?)	; gs_today_time
_BSS	ENDS
;	COMDAT rtc$TMZ
rtc$TMZ	SEGMENT
__RTC_Shutdown.rtc$TMZ DD FLAT:__RTC_Shutdown
rtc$TMZ	ENDS
;	COMDAT rtc$IMZ
rtc$IMZ	SEGMENT
__RTC_InitBase.rtc$IMZ DD FLAT:__RTC_InitBase
rtc$IMZ	ENDS
;	COMDAT ??_R1A@?0A@EA@condition@win32@common@@8
rdata$r	SEGMENT
??_R1A@?0A@EA@condition@win32@common@@8 DD FLAT:??_R0?AVcondition@win32@common@@@8 ; common::win32::condition::`RTTI Base Class Descriptor at (0,-1,0,64)'
	DD	01H
	DD	00H
	DD	0ffffffffH
	DD	00H
	DD	040H
	DD	FLAT:??_R3condition@win32@common@@8
rdata$r	ENDS
;	COMDAT ??_R2condition@win32@common@@8
rdata$r	SEGMENT
??_R2condition@win32@common@@8 DD FLAT:??_R1A@?0A@EA@condition@win32@common@@8 ; common::win32::condition::`RTTI Base Class Array'
	DD	FLAT:??_R1A@?0A@EA@abstract_condition@common@@8
rdata$r	ENDS
;	COMDAT ??_R3condition@win32@common@@8
rdata$r	SEGMENT
??_R3condition@win32@common@@8 DD 00H			; common::win32::condition::`RTTI Class Hierarchy Descriptor'
	DD	00H
	DD	02H
	DD	FLAT:??_R2condition@win32@common@@8
rdata$r	ENDS
;	COMDAT ??_R0?AVcondition@win32@common@@@8
data$r	SEGMENT
??_R0?AVcondition@win32@common@@@8 DD FLAT:??_7type_info@@6B@ ; common::win32::condition `RTTI Type Descriptor'
	DD	00H
	DB	'.?AVcondition@win32@common@@', 00H
data$r	ENDS
;	COMDAT ??_R4condition@win32@common@@6B@
rdata$r	SEGMENT
??_R4condition@win32@common@@6B@ DD 00H			; common::win32::condition::`RTTI Complete Object Locator'
	DD	00H
	DD	00H
	DD	FLAT:??_R0?AVcondition@win32@common@@@8
	DD	FLAT:??_R3condition@win32@common@@8
rdata$r	ENDS
;	COMDAT ??_R1A@?0A@EA@abstract_condition@common@@8
rdata$r	SEGMENT
??_R1A@?0A@EA@abstract_condition@common@@8 DD FLAT:??_R0?AVabstract_condition@common@@@8 ; common::abstract_condition::`RTTI Base Class Descriptor at (0,-1,0,64)'
	DD	00H
	DD	00H
	DD	0ffffffffH
	DD	00H
	DD	040H
	DD	FLAT:??_R3abstract_condition@common@@8
rdata$r	ENDS
;	COMDAT ??_R2abstract_condition@common@@8
rdata$r	SEGMENT
??_R2abstract_condition@common@@8 DD FLAT:??_R1A@?0A@EA@abstract_condition@common@@8 ; common::abstract_condition::`RTTI Base Class Array'
rdata$r	ENDS
;	COMDAT ??_R3abstract_condition@common@@8
rdata$r	SEGMENT
??_R3abstract_condition@common@@8 DD 00H		; common::abstract_condition::`RTTI Class Hierarchy Descriptor'
	DD	00H
	DD	01H
	DD	FLAT:??_R2abstract_condition@common@@8
rdata$r	ENDS
;	COMDAT ??_R0?AVabstract_condition@common@@@8
data$r	SEGMENT
??_R0?AVabstract_condition@common@@@8 DD FLAT:??_7type_info@@6B@ ; common::abstract_condition `RTTI Type Descriptor'
	DD	00H
	DB	'.?AVabstract_condition@common@@', 00H
data$r	ENDS
;	COMDAT ??_R4abstract_condition@common@@6B@
rdata$r	SEGMENT
??_R4abstract_condition@common@@6B@ DD 00H		; common::abstract_condition::`RTTI Complete Object Locator'
	DD	00H
	DD	00H
	DD	FLAT:??_R0?AVabstract_condition@common@@@8
	DD	FLAT:??_R3abstract_condition@common@@8
rdata$r	ENDS
;	COMDAT ??_7condition@win32@common@@6B@
CONST	SEGMENT
??_7condition@win32@common@@6B@ DD FLAT:??_R4condition@win32@common@@6B@ ; common::win32::condition::`vftable'
	DD	FLAT:??_Econdition@win32@common@@UAEPAXI@Z
	DD	FLAT:?signal@condition@win32@common@@UAEXXZ
	DD	FLAT:?signal_all@condition@win32@common@@UAEXXZ
CONST	ENDS
;	COMDAT ??_7abstract_condition@common@@6B@
CONST	SEGMENT
??_7abstract_condition@common@@6B@ DD FLAT:??_R4abstract_condition@common@@6B@ ; common::abstract_condition::`vftable'
	DD	FLAT:??_Eabstract_condition@common@@UAEPAXI@Z
	DD	FLAT:__purecall
	DD	FLAT:__purecall
CONST	ENDS
xdata$x	SEGMENT
__unwindtable$?_initClass@CSTLogger@@AAEX_N@Z DD 0ffffffffH
	DD	FLAT:__unwindfunclet$?_initClass@CSTLogger@@AAEX_N@Z$0
__unwindtable$?dayChangedProc@CSTLogger@@AAEXPAVCDateTime@@@Z DD 0ffffffffH
	DD	FLAT:__unwindfunclet$?dayChangedProc@CSTLogger@@AAEXPAVCDateTime@@@Z$0
__unwindtable$?__Log@CSTLogger@@QAAXHPBD0H0ZZ DD 0ffffffffH
	DD	FLAT:__unwindfunclet$?__Log@CSTLogger@@QAAXHPBD0H0ZZ$0
__unwindtable$?PutLogQueueL@CSTLogger@@QAAXHHPBDZZ DD 0ffffffffH
	DD	FLAT:__unwindfunclet$?PutLogQueueL@CSTLogger@@QAAXHHPBDZZ$0
__unwindtable$?PutLogQueue@CSTLogger@@QAAXHPBDZZ DD 0ffffffffH
	DD	FLAT:__unwindfunclet$?PutLogQueue@CSTLogger@@QAAXHPBDZZ$0
__unwindtable$?DoWritePacket@CSTLogger@@QAEXHHHPADH@Z DD 0ffffffffH
	DD	FLAT:__unwindfunclet$?DoWritePacket@CSTLogger@@QAEXHHHPADH@Z$0
__unwindtable$??0CSTLogger@@QAE@_N@Z DD 0ffffffffH
	DD	FLAT:__unwindfunclet$??0CSTLogger@@QAE@_N@Z$0
__unwindtable$??0CSTLogger@@QAE@XZ DD 0ffffffffH
	DD	FLAT:__unwindfunclet$??0CSTLogger@@QAE@XZ$0
__unwindtable$?initCSLogger@CSTLogger@@QAEXPBD0H@Z DD 0ffffffffH
	DD	FLAT:__unwindfunclet$?initCSLogger@CSTLogger@@QAEXPBD0H@Z$0
	DD	00H
	DD	FLAT:__unwindfunclet$?initCSLogger@CSTLogger@@QAEXPBD0H@Z$1
__ehfuncinfo$?_initClass@CSTLogger@@AAEX_N@Z DD 019930522H
	DD	01H
	DD	FLAT:__unwindtable$?_initClass@CSTLogger@@AAEX_N@Z
	DD	2 DUP(00H)
	DD	2 DUP(00H)
	DD	00H
	DD	01H
__ehfuncinfo$?dayChangedProc@CSTLogger@@AAEXPAVCDateTime@@@Z DD 019930522H
	DD	01H
	DD	FLAT:__unwindtable$?dayChangedProc@CSTLogger@@AAEXPAVCDateTime@@@Z
	DD	2 DUP(00H)
	DD	2 DUP(00H)
	DD	00H
	DD	01H
__ehfuncinfo$?__Log@CSTLogger@@QAAXHPBD0H0ZZ DD 019930522H
	DD	01H
	DD	FLAT:__unwindtable$?__Log@CSTLogger@@QAAXHPBD0H0ZZ
	DD	2 DUP(00H)
	DD	2 DUP(00H)
	DD	00H
	DD	01H
__ehfuncinfo$?PutLogQueueL@CSTLogger@@QAAXHHPBDZZ DD 019930522H
	DD	01H
	DD	FLAT:__unwindtable$?PutLogQueueL@CSTLogger@@QAAXHHPBDZZ
	DD	2 DUP(00H)
	DD	2 DUP(00H)
	DD	00H
	DD	01H
__ehfuncinfo$?PutLogQueue@CSTLogger@@QAAXHPBDZZ DD 019930522H
	DD	01H
	DD	FLAT:__unwindtable$?PutLogQueue@CSTLogger@@QAAXHPBDZZ
	DD	2 DUP(00H)
	DD	2 DUP(00H)
	DD	00H
	DD	01H
__ehfuncinfo$?DoWritePacket@CSTLogger@@QAEXHHHPADH@Z DD 019930522H
	DD	01H
	DD	FLAT:__unwindtable$?DoWritePacket@CSTLogger@@QAEXHHHPADH@Z
	DD	2 DUP(00H)
	DD	2 DUP(00H)
	DD	00H
	DD	01H
__ehfuncinfo$?initCSLogger@CSTLogger@@QAEXPBD0H@Z DD 019930522H
	DD	02H
	DD	FLAT:__unwindtable$?initCSLogger@CSTLogger@@QAEXPBD0H@Z
	DD	2 DUP(00H)
	DD	2 DUP(00H)
	DD	00H
	DD	01H
__ehfuncinfo$??0CSTLogger@@QAE@_N@Z DD 019930522H
	DD	01H
	DD	FLAT:__unwindtable$??0CSTLogger@@QAE@_N@Z
	DD	2 DUP(00H)
	DD	2 DUP(00H)
	DD	00H
	DD	01H
__ehfuncinfo$??0CSTLogger@@QAE@XZ DD 019930522H
	DD	01H
	DD	FLAT:__unwindtable$??0CSTLogger@@QAE@XZ
	DD	2 DUP(00H)
	DD	2 DUP(00H)
	DD	00H
	DD	01H
xdata$x	ENDS
; Function compile flags: /Odtp /RTCsu
; File c:\program files (x86)\microsoft visual studio 14.0\vc\include\vadefs.h
;	COMDAT ??$__vcrt_va_start_verify_argument_type@$$BY0CAA@D@@YAXXZ
_TEXT	SEGMENT
??$__vcrt_va_start_verify_argument_type@$$BY0CAA@D@@YAXXZ PROC ; __vcrt_va_start_verify_argument_type<char [512]>, COMDAT

; 144  :         {

  00000	55		 push	 ebp
  00001	8b ec		 mov	 ebp, esp

; 145  :             static_assert(!__vcrt_va_list_is_reference<_Ty>::__the_value, "va_start argument must not have reference type and must not be parenthesized");
; 146  :         }

  00003	5d		 pop	 ebp
  00004	c3		 ret	 0
??$__vcrt_va_start_verify_argument_type@$$BY0CAA@D@@YAXXZ ENDP ; __vcrt_va_start_verify_argument_type<char [512]>
_TEXT	ENDS
; Function compile flags: /Odtp /RTCsu
; File c:\program files (x86)\microsoft visual studio 14.0\vc\include\vadefs.h
;	COMDAT ??$__vcrt_va_start_verify_argument_type@PBD@@YAXXZ
_TEXT	SEGMENT
??$__vcrt_va_start_verify_argument_type@PBD@@YAXXZ PROC	; __vcrt_va_start_verify_argument_type<char const *>, COMDAT

; 144  :         {

  00000	55		 push	 ebp
  00001	8b ec		 mov	 ebp, esp

; 145  :             static_assert(!__vcrt_va_list_is_reference<_Ty>::__the_value, "va_start argument must not have reference type and must not be parenthesized");
; 146  :         }

  00003	5d		 pop	 ebp
  00004	c3		 ret	 0
??$__vcrt_va_start_verify_argument_type@PBD@@YAXXZ ENDP	; __vcrt_va_start_verify_argument_type<char const *>
_TEXT	ENDS
; Function compile flags: /Odtp /RTCsu
; File d:\newproject2\com\src\comstlogger.cpp
_TEXT	SEGMENT
_curTm$ = -140						; size = 116
_this$ = -20						; size = 4
__$ArrayPad$ = -16					; size = 4
__$EHRec$ = -12						; size = 12
_bAble$ = 8						; size = 1
?_initClass@CSTLogger@@AAEX_N@Z PROC			; CSTLogger::_initClass
; _this$ = ecx

; 37   : {

  00000	55		 push	 ebp
  00001	8b ec		 mov	 ebp, esp
  00003	6a ff		 push	 -1
  00005	68 00 00 00 00	 push	 __ehhandler$?_initClass@CSTLogger@@AAEX_N@Z
  0000a	64 a1 00 00 00
	00		 mov	 eax, DWORD PTR fs:0
  00010	50		 push	 eax
  00011	81 ec 84 00 00
	00		 sub	 esp, 132		; 00000084H
  00017	56		 push	 esi
  00018	57		 push	 edi
  00019	51		 push	 ecx
  0001a	8d bd 70 ff ff
	ff		 lea	 edi, DWORD PTR [ebp-144]
  00020	b9 21 00 00 00	 mov	 ecx, 33			; 00000021H
  00025	b8 cc cc cc cc	 mov	 eax, -858993460		; ccccccccH
  0002a	f3 ab		 rep stosd
  0002c	59		 pop	 ecx
  0002d	a1 00 00 00 00	 mov	 eax, DWORD PTR ___security_cookie
  00032	33 c5		 xor	 eax, ebp
  00034	89 45 f0	 mov	 DWORD PTR __$ArrayPad$[ebp], eax
  00037	50		 push	 eax
  00038	8d 45 f4	 lea	 eax, DWORD PTR __$EHRec$[ebp]
  0003b	64 a3 00 00 00
	00		 mov	 DWORD PTR fs:0, eax
  00041	89 4d ec	 mov	 DWORD PTR _this$[ebp], ecx

; 38   : 	m_pLogger = NULL;

  00044	8b 45 ec	 mov	 eax, DWORD PTR _this$[ebp]
  00047	c7 40 0c 00 00
	00 00		 mov	 DWORD PTR [eax+12], 0

; 39   : 	m_pLogDir = NULL;

  0004e	8b 4d ec	 mov	 ecx, DWORD PTR _this$[ebp]
  00051	c7 41 18 00 00
	00 00		 mov	 DWORD PTR [ecx+24], 0

; 40   : 	m_pLogName = NULL;

  00058	8b 55 ec	 mov	 edx, DWORD PTR _this$[ebp]
  0005b	c7 42 1c 00 00
	00 00		 mov	 DWORD PTR [edx+28], 0

; 41   : 	m_bQuit = false;

  00062	8b 45 ec	 mov	 eax, DWORD PTR _this$[ebp]
  00065	c6 40 10 00	 mov	 BYTE PTR [eax+16], 0

; 42   : 	m_nLogLevel = 0;

  00069	8b 4d ec	 mov	 ecx, DWORD PTR _this$[ebp]
  0006c	c7 41 14 00 00
	00 00		 mov	 DWORD PTR [ecx+20], 0

; 43   : 	memset(&m_sLogQueue, 0, sizeof(m_sLogQueue));

  00073	6a 10		 push	 16			; 00000010H
  00075	6a 00		 push	 0
  00077	8b 55 ec	 mov	 edx, DWORD PTR _this$[ebp]
  0007a	83 c2 34	 add	 edx, 52			; 00000034H
  0007d	52		 push	 edx
  0007e	e8 00 00 00 00	 call	 _memset
  00083	83 c4 0c	 add	 esp, 12			; 0000000cH

; 44   : 	gs_pToday_time = &gs_today_time;

  00086	c7 05 00 00 00
	00 00 00 00 00	 mov	 DWORD PTR ?gs_pToday_time@@3PAUSTTodayTime@@A, OFFSET ?gs_today_time@@3USTTodayTime@@A ; gs_pToday_time

; 45   : 	memset(gs_pToday_time, 0, sizeof(STTodayTime));

  00090	6a 1c		 push	 28			; 0000001cH
  00092	6a 00		 push	 0
  00094	a1 00 00 00 00	 mov	 eax, DWORD PTR ?gs_pToday_time@@3PAUSTTodayTime@@A ; gs_pToday_time
  00099	50		 push	 eax
  0009a	e8 00 00 00 00	 call	 _memset
  0009f	83 c4 0c	 add	 esp, 12			; 0000000cH

; 46   : 
; 47   : 	// 함수 포인터
; 48   : 	m_pfDayChange = NULL;

  000a2	8b 4d ec	 mov	 ecx, DWORD PTR _this$[ebp]
  000a5	c7 01 00 00 00
	00		 mov	 DWORD PTR [ecx], 0

; 49   : 	m_pfHourChange = NULL;

  000ab	8b 55 ec	 mov	 edx, DWORD PTR _this$[ebp]
  000ae	c7 42 04 00 00
	00 00		 mov	 DWORD PTR [edx+4], 0

; 50   : 	m_pfProcessDataFromQueue = NULL;

  000b5	8b 45 ec	 mov	 eax, DWORD PTR _this$[ebp]
  000b8	c7 40 08 00 00
	00 00		 mov	 DWORD PTR [eax+8], 0

; 51   : 
; 52   : 	m_nSizeLimit = 0;

  000bf	8b 4d ec	 mov	 ecx, DWORD PTR _this$[ebp]
  000c2	c7 41 28 00 00
	00 00		 mov	 DWORD PTR [ecx+40], 0

; 53   : 	m_nDaysExistence = 0;

  000c9	8b 55 ec	 mov	 edx, DWORD PTR _this$[ebp]
  000cc	c7 42 2c 00 00
	00 00		 mov	 DWORD PTR [edx+44], 0

; 54   : 	
; 55   : 	if(bAble) m_nFlag = IS_CREATE_THREAD;

  000d3	0f b6 45 08	 movzx	 eax, BYTE PTR _bAble$[ebp]
  000d7	85 c0		 test	 eax, eax
  000d9	74 0c		 je	 SHORT $LN2@initClass
  000db	8b 4d ec	 mov	 ecx, DWORD PTR _this$[ebp]
  000de	c7 41 20 01 00
	00 00		 mov	 DWORD PTR [ecx+32], 1
  000e5	eb 0a		 jmp	 SHORT $LN3@initClass
$LN2@initClass:

; 56   : 	else m_nFlag = 0;

  000e7	8b 55 ec	 mov	 edx, DWORD PTR _this$[ebp]
  000ea	c7 42 20 00 00
	00 00		 mov	 DWORD PTR [edx+32], 0
$LN3@initClass:

; 57   : 
; 58   : 	FAST_LOCK_INIT(&Lock_Logger);

  000f1	8b f4		 mov	 esi, esp
  000f3	68 00 00 00 00	 push	 OFFSET ?Lock_Logger@@3U_RTL_SRWLOCK@@A
  000f8	ff 15 00 00 00
	00		 call	 DWORD PTR __imp__InitializeSRWLock@4
  000fe	3b f4		 cmp	 esi, esp
  00100	e8 00 00 00 00	 call	 __RTC_CheckEsp

; 59   : 
; 60   : 	CDateTime curTm;

  00105	8d 8d 74 ff ff
	ff		 lea	 ecx, DWORD PTR _curTm$[ebp]
  0010b	e8 00 00 00 00	 call	 ??0CDateTime@@QAE@XZ	; CDateTime::CDateTime
  00110	c7 45 fc 00 00
	00 00		 mov	 DWORD PTR __$EHRec$[ebp+8], 0

; 61   : 
; 62   : 	gs_today_time.date  = _ttoi(curTm.DateString());

  00117	6a 00		 push	 0
  00119	8d 8d 74 ff ff
	ff		 lea	 ecx, DWORD PTR _curTm$[ebp]
  0011f	e8 00 00 00 00	 call	 ?DateString@CDateTime@@QAEPBDH@Z ; CDateTime::DateString
  00124	8b f4		 mov	 esi, esp
  00126	50		 push	 eax
  00127	ff 15 00 00 00
	00		 call	 DWORD PTR __imp__atoi
  0012d	83 c4 04	 add	 esp, 4
  00130	3b f4		 cmp	 esi, esp
  00132	e8 00 00 00 00	 call	 __RTC_CheckEsp
  00137	a3 18 00 00 00	 mov	 DWORD PTR ?gs_today_time@@3USTTodayTime@@A+24, eax

; 63   : 	gs_today_time.year	= curTm.Year();

  0013c	8d 8d 74 ff ff
	ff		 lea	 ecx, DWORD PTR _curTm$[ebp]
  00142	e8 00 00 00 00	 call	 ?Year@CDateTime@@QAEHXZ	; CDateTime::Year
  00147	a3 00 00 00 00	 mov	 DWORD PTR ?gs_today_time@@3USTTodayTime@@A, eax

; 64   : 	gs_today_time.month	= curTm.Month();

  0014c	8d 8d 74 ff ff
	ff		 lea	 ecx, DWORD PTR _curTm$[ebp]
  00152	e8 00 00 00 00	 call	 ?Month@CDateTime@@QAEHXZ ; CDateTime::Month
  00157	a3 04 00 00 00	 mov	 DWORD PTR ?gs_today_time@@3USTTodayTime@@A+4, eax

; 65   : 	gs_today_time.mday	= curTm.Mday();

  0015c	8d 8d 74 ff ff
	ff		 lea	 ecx, DWORD PTR _curTm$[ebp]
  00162	e8 00 00 00 00	 call	 ?Mday@CDateTime@@QAEHXZ	; CDateTime::Mday
  00167	a3 08 00 00 00	 mov	 DWORD PTR ?gs_today_time@@3USTTodayTime@@A+8, eax

; 66   : 	gs_today_time.wday	= curTm.Wday();

  0016c	8d 8d 74 ff ff
	ff		 lea	 ecx, DWORD PTR _curTm$[ebp]
  00172	e8 00 00 00 00	 call	 ?Wday@CDateTime@@QAEHXZ	; CDateTime::Wday
  00177	a3 0c 00 00 00	 mov	 DWORD PTR ?gs_today_time@@3USTTodayTime@@A+12, eax

; 67   : 	gs_today_time.hour  = curTm.Hour();

  0017c	8d 8d 74 ff ff
	ff		 lea	 ecx, DWORD PTR _curTm$[ebp]
  00182	e8 00 00 00 00	 call	 ?Hour@CDateTime@@QAEHXZ	; CDateTime::Hour
  00187	a3 10 00 00 00	 mov	 DWORD PTR ?gs_today_time@@3USTTodayTime@@A+16, eax

; 68   : 	gs_today_time.minute = curTm.Minute();

  0018c	8d 8d 74 ff ff
	ff		 lea	 ecx, DWORD PTR _curTm$[ebp]
  00192	e8 00 00 00 00	 call	 ?Minute@CDateTime@@QAEHXZ ; CDateTime::Minute
  00197	a3 14 00 00 00	 mov	 DWORD PTR ?gs_today_time@@3USTTodayTime@@A+20, eax

; 69   : 	m_nSeq = 0;

  0019c	8b 45 ec	 mov	 eax, DWORD PTR _this$[ebp]
  0019f	c7 40 24 00 00
	00 00		 mov	 DWORD PTR [eax+36], 0

; 70   : 
; 71   : }

  001a6	c7 45 fc ff ff
	ff ff		 mov	 DWORD PTR __$EHRec$[ebp+8], -1
  001ad	8d 8d 74 ff ff
	ff		 lea	 ecx, DWORD PTR _curTm$[ebp]
  001b3	e8 00 00 00 00	 call	 ??1CDateTime@@QAE@XZ	; CDateTime::~CDateTime
  001b8	52		 push	 edx
  001b9	8b cd		 mov	 ecx, ebp
  001bb	50		 push	 eax
  001bc	8d 15 00 00 00
	00		 lea	 edx, DWORD PTR $LN9@initClass
  001c2	e8 00 00 00 00	 call	 @_RTC_CheckStackVars@8
  001c7	58		 pop	 eax
  001c8	5a		 pop	 edx
  001c9	8b 4d f4	 mov	 ecx, DWORD PTR __$EHRec$[ebp]
  001cc	64 89 0d 00 00
	00 00		 mov	 DWORD PTR fs:0, ecx
  001d3	59		 pop	 ecx
  001d4	5f		 pop	 edi
  001d5	5e		 pop	 esi
  001d6	8b 4d f0	 mov	 ecx, DWORD PTR __$ArrayPad$[ebp]
  001d9	33 cd		 xor	 ecx, ebp
  001db	e8 00 00 00 00	 call	 @__security_check_cookie@4
  001e0	81 c4 90 00 00
	00		 add	 esp, 144		; 00000090H
  001e6	3b ec		 cmp	 ebp, esp
  001e8	e8 00 00 00 00	 call	 __RTC_CheckEsp
  001ed	8b e5		 mov	 esp, ebp
  001ef	5d		 pop	 ebp
  001f0	c2 04 00	 ret	 4
  001f3	90		 npad	 1
$LN9@initClass:
  001f4	01 00 00 00	 DD	 1
  001f8	00 00 00 00	 DD	 $LN8@initClass
$LN8@initClass:
  001fc	74 ff ff ff	 DD	 -140			; ffffff74H
  00200	74 00 00 00	 DD	 116			; 00000074H
  00204	00 00 00 00	 DD	 $LN6@initClass
$LN6@initClass:
  00208	63		 DB	 99			; 00000063H
  00209	75		 DB	 117			; 00000075H
  0020a	72		 DB	 114			; 00000072H
  0020b	54		 DB	 84			; 00000054H
  0020c	6d		 DB	 109			; 0000006dH
  0020d	00		 DB	 0
_TEXT	ENDS
text$x	SEGMENT
__unwindfunclet$?_initClass@CSTLogger@@AAEX_N@Z$0:
  00000	8d 8d 74 ff ff
	ff		 lea	 ecx, DWORD PTR _curTm$[ebp]
  00006	e9 00 00 00 00	 jmp	 ??1CDateTime@@QAE@XZ	; CDateTime::~CDateTime
__ehhandler$?_initClass@CSTLogger@@AAEX_N@Z:
  0000b	8b 54 24 08	 mov	 edx, DWORD PTR [esp+8]
  0000f	8d 42 0c	 lea	 eax, DWORD PTR [edx+12]
  00012	8b 8a 70 ff ff
	ff		 mov	 ecx, DWORD PTR [edx-144]
  00018	33 c8		 xor	 ecx, eax
  0001a	e8 00 00 00 00	 call	 @__security_check_cookie@4
  0001f	8b 4a fc	 mov	 ecx, DWORD PTR [edx-4]
  00022	33 c8		 xor	 ecx, eax
  00024	e8 00 00 00 00	 call	 @__security_check_cookie@4
  00029	b8 00 00 00 00	 mov	 eax, OFFSET __ehfuncinfo$?_initClass@CSTLogger@@AAEX_N@Z
  0002e	e9 00 00 00 00	 jmp	 ___CxxFrameHandler3
text$x	ENDS
?_initClass@CSTLogger@@AAEX_N@Z ENDP			; CSTLogger::_initClass
; Function compile flags: /Odtp /RTCsu
; File d:\newproject2\com\src\comstlogger.cpp
_TEXT	SEGMENT
_this$ = -4						; size = 4
_pLogHeader$ = 8					; size = 4
_pMsg$ = 12						; size = 4
_nSize$ = 16						; size = 4
_pBuf$ = 20						; size = 4
?_putLogQueue@CSTLogger@@AAEXPAD0H0@Z PROC		; CSTLogger::_putLogQueue
; _this$ = ecx

; 444  : {

  00000	55		 push	 ebp
  00001	8b ec		 mov	 ebp, esp
  00003	51		 push	 ecx
  00004	56		 push	 esi
  00005	c7 45 fc cc cc
	cc cc		 mov	 DWORD PTR [ebp-4], -858993460 ; ccccccccH
  0000c	89 4d fc	 mov	 DWORD PTR _this$[ebp], ecx

; 445  : 	if (!pBuf) {

  0000f	83 7d 14 00	 cmp	 DWORD PTR _pBuf$[ebp], 0
  00013	75 33		 jne	 SHORT $LN2@putLogQueu

; 446  : 		nSize += 2; //\n + \0

  00015	8b 45 10	 mov	 eax, DWORD PTR _nSize$[ebp]
  00018	83 c0 02	 add	 eax, 2
  0001b	89 45 10	 mov	 DWORD PTR _nSize$[ebp], eax

; 447  : 		pBuf = g_cMMgr.newBuf(nSize);

  0001e	8b 4d 10	 mov	 ecx, DWORD PTR _nSize$[ebp]
  00021	51		 push	 ecx
  00022	b9 00 00 00 00	 mov	 ecx, OFFSET ?g_cMMgr@@3VCMemManager@@A ; g_cMMgr
  00027	e8 00 00 00 00	 call	 ?newBuf@CMemManager@@QAEPADI@Z ; CMemManager::newBuf
  0002c	89 45 14	 mov	 DWORD PTR _pBuf$[ebp], eax

; 448  : 		_stprintf(pBuf, _T("%s%s\n"), pLogHeader, pMsg);

  0002f	8b 55 0c	 mov	 edx, DWORD PTR _pMsg$[ebp]
  00032	52		 push	 edx
  00033	8b 45 08	 mov	 eax, DWORD PTR _pLogHeader$[ebp]
  00036	50		 push	 eax
  00037	68 00 00 00 00	 push	 OFFSET $SG44578
  0003c	8b 4d 14	 mov	 ecx, DWORD PTR _pBuf$[ebp]
  0003f	51		 push	 ecx
  00040	e8 00 00 00 00	 call	 _sprintf
  00045	83 c4 10	 add	 esp, 16			; 00000010H
$LN2@putLogQueu:

; 449  : 	}
; 450  : 	if(m_sLogQueue.isFull()) {

  00048	8b 4d fc	 mov	 ecx, DWORD PTR _this$[ebp]
  0004b	83 c1 34	 add	 ecx, 52			; 00000034H
  0004e	e8 00 00 00 00	 call	 ?isFull@StCOMQueue@@QAE_NXZ ; StCOMQueue::isFull
  00053	0f b6 d0	 movzx	 edx, al
  00056	85 d2		 test	 edx, edx
  00058	74 21		 je	 SHORT $LN3@putLogQueu

; 451  : 		_tprintf(_T("CSTLogger::_putLogQueue m_sLogQueue is FULL!! \n\n"));

  0005a	68 00 00 00 00	 push	 OFFSET $SG44580
  0005f	e8 00 00 00 00	 call	 _printf
  00064	83 c4 04	 add	 esp, 4

; 452  : 		g_cMMgr.delBuf(pBuf, nSize);

  00067	8b 45 10	 mov	 eax, DWORD PTR _nSize$[ebp]
  0006a	50		 push	 eax
  0006b	8b 4d 14	 mov	 ecx, DWORD PTR _pBuf$[ebp]
  0006e	51		 push	 ecx
  0006f	b9 00 00 00 00	 mov	 ecx, OFFSET ?g_cMMgr@@3VCMemManager@@A ; g_cMMgr
  00074	e8 00 00 00 00	 call	 ?delBuf@CMemManager@@QAEXPADI@Z ; CMemManager::delBuf

; 453  : 		return;

  00079	eb 62		 jmp	 SHORT $LN1@putLogQueu
$LN3@putLogQueu:

; 454  : 	}
; 455  : 	printf("%s", pBuf);

  0007b	8b 55 14	 mov	 edx, DWORD PTR _pBuf$[ebp]
  0007e	52		 push	 edx
  0007f	68 00 00 00 00	 push	 OFFSET $SG44581
  00084	e8 00 00 00 00	 call	 _printf
  00089	83 c4 08	 add	 esp, 8

; 456  :     FAST_LOCK_ENTER(&Lock_Logger);

  0008c	8b f4		 mov	 esi, esp
  0008e	68 00 00 00 00	 push	 OFFSET ?Lock_Logger@@3U_RTL_SRWLOCK@@A
  00093	ff 15 00 00 00
	00		 call	 DWORD PTR __imp__AcquireSRWLockExclusive@4
  00099	3b f4		 cmp	 esi, esp
  0009b	e8 00 00 00 00	 call	 __RTC_CheckEsp

; 457  : 	m_sLogQueue.push((void *)pBuf);

  000a0	8b 45 14	 mov	 eax, DWORD PTR _pBuf$[ebp]
  000a3	50		 push	 eax
  000a4	8b 4d fc	 mov	 ecx, DWORD PTR _this$[ebp]
  000a7	83 c1 34	 add	 ecx, 52			; 00000034H
  000aa	e8 00 00 00 00	 call	 ?push@StCOMQueue@@QAEXPAX@Z ; StCOMQueue::push

; 458  :     FAST_LOCK_LEAVE(&Lock_Logger);

  000af	8b f4		 mov	 esi, esp
  000b1	68 00 00 00 00	 push	 OFFSET ?Lock_Logger@@3U_RTL_SRWLOCK@@A
  000b6	ff 15 00 00 00
	00		 call	 DWORD PTR __imp__ReleaseSRWLockExclusive@4
  000bc	3b f4		 cmp	 esi, esp
  000be	e8 00 00 00 00	 call	 __RTC_CheckEsp

; 459  : 
; 460  :     m_thCondLog.signal();

  000c3	8b 4d fc	 mov	 ecx, DWORD PTR _this$[ebp]
  000c6	83 c1 44	 add	 ecx, 68			; 00000044H
  000c9	8b 55 fc	 mov	 edx, DWORD PTR _this$[ebp]
  000cc	8b 42 44	 mov	 eax, DWORD PTR [edx+68]
  000cf	8b f4		 mov	 esi, esp
  000d1	8b 50 04	 mov	 edx, DWORD PTR [eax+4]
  000d4	ff d2		 call	 edx
  000d6	3b f4		 cmp	 esi, esp
  000d8	e8 00 00 00 00	 call	 __RTC_CheckEsp
$LN1@putLogQueu:

; 461  : }

  000dd	5e		 pop	 esi
  000de	83 c4 04	 add	 esp, 4
  000e1	3b ec		 cmp	 ebp, esp
  000e3	e8 00 00 00 00	 call	 __RTC_CheckEsp
  000e8	8b e5		 mov	 esp, ebp
  000ea	5d		 pop	 ebp
  000eb	c2 10 00	 ret	 16			; 00000010H
?_putLogQueue@CSTLogger@@AAEXPAD0H0@Z ENDP		; CSTLogger::_putLogQueue
_TEXT	ENDS
; Function compile flags: /Odtp /RTCsu
; File d:\newproject2\com\src\comstlogger.cpp
_TEXT	SEGMENT
_nSeq$1 = -280						; size = 4
_nRes$2 = -276						; size = 4
_szLogName$ = -268					; size = 256
_this$ = -8						; size = 4
__$ArrayPad$ = -4					; size = 4
_curDT$ = 8						; size = 4
?myLoggerOpen@CSTLogger@@AAEXPAVCDateTime@@@Z PROC	; CSTLogger::myLoggerOpen
; _this$ = ecx

; 570  : {

  00000	55		 push	 ebp
  00001	8b ec		 mov	 ebp, esp
  00003	81 ec 18 01 00
	00		 sub	 esp, 280		; 00000118H
  00009	56		 push	 esi
  0000a	57		 push	 edi
  0000b	51		 push	 ecx
  0000c	8d bd e8 fe ff
	ff		 lea	 edi, DWORD PTR [ebp-280]
  00012	b9 46 00 00 00	 mov	 ecx, 70			; 00000046H
  00017	b8 cc cc cc cc	 mov	 eax, -858993460		; ccccccccH
  0001c	f3 ab		 rep stosd
  0001e	59		 pop	 ecx
  0001f	a1 00 00 00 00	 mov	 eax, DWORD PTR ___security_cookie
  00024	33 c5		 xor	 eax, ebp
  00026	89 45 fc	 mov	 DWORD PTR __$ArrayPad$[ebp], eax
  00029	89 4d f8	 mov	 DWORD PTR _this$[ebp], ecx

; 571  : 	// Logger 
; 572  : 	TCHAR szLogName[256];  // jSERVER#_#_DATE.log -> 1번째 # : 서버 종류, 2번째 # : 
; 573  : 
; 574  : 	memset(szLogName,  0, sizeof(szLogName));

  0002c	68 00 01 00 00	 push	 256			; 00000100H
  00031	6a 00		 push	 0
  00033	8d 85 f4 fe ff
	ff		 lea	 eax, DWORD PTR _szLogName$[ebp]
  00039	50		 push	 eax
  0003a	e8 00 00 00 00	 call	 _memset
  0003f	83 c4 0c	 add	 esp, 12			; 0000000cH

; 575  : 
; 576  : 	if (m_nFlag & IS_ACTIVE_DAYCHANGE_LOG) {

  00042	8b 4d f8	 mov	 ecx, DWORD PTR _this$[ebp]
  00045	8b 51 20	 mov	 edx, DWORD PTR [ecx+32]
  00048	83 e2 10	 and	 edx, 16			; 00000010H
  0004b	74 39		 je	 SHORT $LN4@myLoggerOp

; 577  : 		_stprintf(szLogName, _T("%s/%s-%s-%d.log"), m_pLogDir, m_pLogName, curDT->DateString(), m_nSeq);

  0004d	8b 45 f8	 mov	 eax, DWORD PTR _this$[ebp]
  00050	8b 48 24	 mov	 ecx, DWORD PTR [eax+36]
  00053	51		 push	 ecx
  00054	6a 00		 push	 0
  00056	8b 4d 08	 mov	 ecx, DWORD PTR _curDT$[ebp]
  00059	e8 00 00 00 00	 call	 ?DateString@CDateTime@@QAEPBDH@Z ; CDateTime::DateString
  0005e	50		 push	 eax
  0005f	8b 55 f8	 mov	 edx, DWORD PTR _this$[ebp]
  00062	8b 42 1c	 mov	 eax, DWORD PTR [edx+28]
  00065	50		 push	 eax
  00066	8b 4d f8	 mov	 ecx, DWORD PTR _this$[ebp]
  00069	8b 51 18	 mov	 edx, DWORD PTR [ecx+24]
  0006c	52		 push	 edx
  0006d	68 00 00 00 00	 push	 OFFSET $SG44645
  00072	8d 85 f4 fe ff
	ff		 lea	 eax, DWORD PTR _szLogName$[ebp]
  00078	50		 push	 eax
  00079	e8 00 00 00 00	 call	 _sprintf
  0007e	83 c4 18	 add	 esp, 24			; 00000018H

; 578  : 	}
; 579  : 	else {

  00081	e9 e2 01 00 00	 jmp	 $LN5@myLoggerOp
$LN4@myLoggerOp:

; 580  : 		int nRes = 0; // 0 : 성공, 음수 : 실패

  00086	c7 85 ec fe ff
	ff 00 00 00 00	 mov	 DWORD PTR _nRes$2[ebp], 0

; 581  : 		if (2 < m_nSeq) {

  00090	8b 4d f8	 mov	 ecx, DWORD PTR _this$[ebp]
  00093	83 79 24 02	 cmp	 DWORD PTR [ecx+36], 2
  00097	0f 8e a7 00 00
	00		 jle	 $LN6@myLoggerOp

; 582  : 			int nSeq = m_nSeq - 2;

  0009d	8b 55 f8	 mov	 edx, DWORD PTR _this$[ebp]
  000a0	8b 42 24	 mov	 eax, DWORD PTR [edx+36]
  000a3	83 e8 02	 sub	 eax, 2
  000a6	89 85 e8 fe ff
	ff		 mov	 DWORD PTR _nSeq$1[ebp], eax
$LN2@myLoggerOp:

; 583  : 			while (!nRes && nSeq) {

  000ac	83 bd ec fe ff
	ff 00		 cmp	 DWORD PTR _nRes$2[ebp], 0
  000b3	0f 85 86 00 00
	00		 jne	 $LN3@myLoggerOp
  000b9	83 bd e8 fe ff
	ff 00		 cmp	 DWORD PTR _nSeq$1[ebp], 0
  000c0	74 7d		 je	 SHORT $LN3@myLoggerOp

; 584  : 				_stprintf(szLogName, _T("%s/%s_%d.log"), m_pLogDir, m_pLogName, nSeq);

  000c2	8b 8d e8 fe ff
	ff		 mov	 ecx, DWORD PTR _nSeq$1[ebp]
  000c8	51		 push	 ecx
  000c9	8b 55 f8	 mov	 edx, DWORD PTR _this$[ebp]
  000cc	8b 42 1c	 mov	 eax, DWORD PTR [edx+28]
  000cf	50		 push	 eax
  000d0	8b 4d f8	 mov	 ecx, DWORD PTR _this$[ebp]
  000d3	8b 51 18	 mov	 edx, DWORD PTR [ecx+24]
  000d6	52		 push	 edx
  000d7	68 00 00 00 00	 push	 OFFSET $SG44648
  000dc	8d 85 f4 fe ff
	ff		 lea	 eax, DWORD PTR _szLogName$[ebp]
  000e2	50		 push	 eax
  000e3	e8 00 00 00 00	 call	 _sprintf
  000e8	83 c4 14	 add	 esp, 20			; 00000014H

; 585  : 				nRes = _tremove(szLogName);

  000eb	8b f4		 mov	 esi, esp
  000ed	8d 8d f4 fe ff
	ff		 lea	 ecx, DWORD PTR _szLogName$[ebp]
  000f3	51		 push	 ecx
  000f4	ff 15 00 00 00
	00		 call	 DWORD PTR __imp__remove
  000fa	83 c4 04	 add	 esp, 4
  000fd	3b f4		 cmp	 esi, esp
  000ff	e8 00 00 00 00	 call	 __RTC_CheckEsp
  00104	89 85 ec fe ff
	ff		 mov	 DWORD PTR _nRes$2[ebp], eax

; 586  : 				CSTLogger::PutLogQueue(LOG_INFO, _T("delete Log[%s] nRes[%d]"), szLogName, nRes);

  0010a	8b 95 ec fe ff
	ff		 mov	 edx, DWORD PTR _nRes$2[ebp]
  00110	52		 push	 edx
  00111	8d 85 f4 fe ff
	ff		 lea	 eax, DWORD PTR _szLogName$[ebp]
  00117	50		 push	 eax
  00118	68 00 00 00 00	 push	 OFFSET $SG44649
  0011d	6a 04		 push	 4
  0011f	8b 4d f8	 mov	 ecx, DWORD PTR _this$[ebp]
  00122	51		 push	 ecx
  00123	e8 00 00 00 00	 call	 ?PutLogQueue@CSTLogger@@QAAXHPBDZZ ; CSTLogger::PutLogQueue
  00128	83 c4 14	 add	 esp, 20			; 00000014H

; 587  : 				nSeq--;

  0012b	8b 95 e8 fe ff
	ff		 mov	 edx, DWORD PTR _nSeq$1[ebp]
  00131	83 ea 01	 sub	 edx, 1
  00134	89 95 e8 fe ff
	ff		 mov	 DWORD PTR _nSeq$1[ebp], edx

; 588  : 			}

  0013a	e9 6d ff ff ff	 jmp	 $LN2@myLoggerOp
$LN3@myLoggerOp:

; 589  : 		}
; 590  : 		else if (m_nSeq == 2) {

  0013f	e9 e2 00 00 00	 jmp	 $LN7@myLoggerOp
$LN6@myLoggerOp:
  00144	8b 45 f8	 mov	 eax, DWORD PTR _this$[ebp]
  00147	83 78 24 02	 cmp	 DWORD PTR [eax+36], 2
  0014b	75 69		 jne	 SHORT $LN8@myLoggerOp

; 591  : 			_stprintf(szLogName, _T("%s/%s_%d.log"), m_pLogDir, m_pLogName, MAX_SEQ);

  0014d	68 7f 96 98 00	 push	 9999999			; 0098967fH
  00152	8b 4d f8	 mov	 ecx, DWORD PTR _this$[ebp]
  00155	8b 51 1c	 mov	 edx, DWORD PTR [ecx+28]
  00158	52		 push	 edx
  00159	8b 45 f8	 mov	 eax, DWORD PTR _this$[ebp]
  0015c	8b 48 18	 mov	 ecx, DWORD PTR [eax+24]
  0015f	51		 push	 ecx
  00160	68 00 00 00 00	 push	 OFFSET $SG44652
  00165	8d 95 f4 fe ff
	ff		 lea	 edx, DWORD PTR _szLogName$[ebp]
  0016b	52		 push	 edx
  0016c	e8 00 00 00 00	 call	 _sprintf
  00171	83 c4 14	 add	 esp, 20			; 00000014H

; 592  : 			nRes = _tremove(szLogName);

  00174	8b f4		 mov	 esi, esp
  00176	8d 85 f4 fe ff
	ff		 lea	 eax, DWORD PTR _szLogName$[ebp]
  0017c	50		 push	 eax
  0017d	ff 15 00 00 00
	00		 call	 DWORD PTR __imp__remove
  00183	83 c4 04	 add	 esp, 4
  00186	3b f4		 cmp	 esi, esp
  00188	e8 00 00 00 00	 call	 __RTC_CheckEsp
  0018d	89 85 ec fe ff
	ff		 mov	 DWORD PTR _nRes$2[ebp], eax

; 593  : 			CSTLogger::PutLogQueue(LOG_INFO, _T("delete Log[%s] nRes[%d]"), szLogName, nRes);

  00193	8b 8d ec fe ff
	ff		 mov	 ecx, DWORD PTR _nRes$2[ebp]
  00199	51		 push	 ecx
  0019a	8d 95 f4 fe ff
	ff		 lea	 edx, DWORD PTR _szLogName$[ebp]
  001a0	52		 push	 edx
  001a1	68 00 00 00 00	 push	 OFFSET $SG44653
  001a6	6a 04		 push	 4
  001a8	8b 45 f8	 mov	 eax, DWORD PTR _this$[ebp]
  001ab	50		 push	 eax
  001ac	e8 00 00 00 00	 call	 ?PutLogQueue@CSTLogger@@QAAXHPBDZZ ; CSTLogger::PutLogQueue
  001b1	83 c4 14	 add	 esp, 20			; 00000014H
  001b4	eb 70		 jmp	 SHORT $LN7@myLoggerOp
$LN8@myLoggerOp:

; 594  : 		}
; 595  : 		else if (m_nSeq == 1) {

  001b6	8b 4d f8	 mov	 ecx, DWORD PTR _this$[ebp]
  001b9	83 79 24 01	 cmp	 DWORD PTR [ecx+36], 1
  001bd	75 67		 jne	 SHORT $LN7@myLoggerOp

; 596  : 			_stprintf(szLogName, _T("%s/%s_%d.log"), m_pLogDir, m_pLogName, MAX_SEQ-1);

  001bf	68 7e 96 98 00	 push	 9999998			; 0098967eH
  001c4	8b 55 f8	 mov	 edx, DWORD PTR _this$[ebp]
  001c7	8b 42 1c	 mov	 eax, DWORD PTR [edx+28]
  001ca	50		 push	 eax
  001cb	8b 4d f8	 mov	 ecx, DWORD PTR _this$[ebp]
  001ce	8b 51 18	 mov	 edx, DWORD PTR [ecx+24]
  001d1	52		 push	 edx
  001d2	68 00 00 00 00	 push	 OFFSET $SG44655
  001d7	8d 85 f4 fe ff
	ff		 lea	 eax, DWORD PTR _szLogName$[ebp]
  001dd	50		 push	 eax
  001de	e8 00 00 00 00	 call	 _sprintf
  001e3	83 c4 14	 add	 esp, 20			; 00000014H

; 597  : 			nRes = _tremove(szLogName);

  001e6	8b f4		 mov	 esi, esp
  001e8	8d 8d f4 fe ff
	ff		 lea	 ecx, DWORD PTR _szLogName$[ebp]
  001ee	51		 push	 ecx
  001ef	ff 15 00 00 00
	00		 call	 DWORD PTR __imp__remove
  001f5	83 c4 04	 add	 esp, 4
  001f8	3b f4		 cmp	 esi, esp
  001fa	e8 00 00 00 00	 call	 __RTC_CheckEsp
  001ff	89 85 ec fe ff
	ff		 mov	 DWORD PTR _nRes$2[ebp], eax

; 598  : 			CSTLogger::PutLogQueue(LOG_INFO, _T("delete Log[%s] nRes[%d]"), szLogName, nRes);

  00205	8b 95 ec fe ff
	ff		 mov	 edx, DWORD PTR _nRes$2[ebp]
  0020b	52		 push	 edx
  0020c	8d 85 f4 fe ff
	ff		 lea	 eax, DWORD PTR _szLogName$[ebp]
  00212	50		 push	 eax
  00213	68 00 00 00 00	 push	 OFFSET $SG44656
  00218	6a 04		 push	 4
  0021a	8b 4d f8	 mov	 ecx, DWORD PTR _this$[ebp]
  0021d	51		 push	 ecx
  0021e	e8 00 00 00 00	 call	 ?PutLogQueue@CSTLogger@@QAAXHPBDZZ ; CSTLogger::PutLogQueue
  00223	83 c4 14	 add	 esp, 20			; 00000014H
$LN7@myLoggerOp:

; 599  : 		}
; 600  : 		_stprintf(szLogName, _T("%s/%s_%d.log"), m_pLogDir, m_pLogName, m_nSeq);

  00226	8b 55 f8	 mov	 edx, DWORD PTR _this$[ebp]
  00229	8b 42 24	 mov	 eax, DWORD PTR [edx+36]
  0022c	50		 push	 eax
  0022d	8b 4d f8	 mov	 ecx, DWORD PTR _this$[ebp]
  00230	8b 51 1c	 mov	 edx, DWORD PTR [ecx+28]
  00233	52		 push	 edx
  00234	8b 45 f8	 mov	 eax, DWORD PTR _this$[ebp]
  00237	8b 48 18	 mov	 ecx, DWORD PTR [eax+24]
  0023a	51		 push	 ecx
  0023b	68 00 00 00 00	 push	 OFFSET $SG44657
  00240	8d 95 f4 fe ff
	ff		 lea	 edx, DWORD PTR _szLogName$[ebp]
  00246	52		 push	 edx
  00247	e8 00 00 00 00	 call	 _sprintf
  0024c	83 c4 14	 add	 esp, 20			; 00000014H

; 601  : 		_tremove(szLogName);

  0024f	8b f4		 mov	 esi, esp
  00251	8d 85 f4 fe ff
	ff		 lea	 eax, DWORD PTR _szLogName$[ebp]
  00257	50		 push	 eax
  00258	ff 15 00 00 00
	00		 call	 DWORD PTR __imp__remove
  0025e	83 c4 04	 add	 esp, 4
  00261	3b f4		 cmp	 esi, esp
  00263	e8 00 00 00 00	 call	 __RTC_CheckEsp
$LN5@myLoggerOp:

; 602  : 	}
; 603  : 
; 604  : 
; 605  : 	_tprintf(_T("[%s] Logger Open\n"),szLogName);

  00268	8d 8d f4 fe ff
	ff		 lea	 ecx, DWORD PTR _szLogName$[ebp]
  0026e	51		 push	 ecx
  0026f	68 00 00 00 00	 push	 OFFSET $SG44658
  00274	e8 00 00 00 00	 call	 _printf
  00279	83 c4 08	 add	 esp, 8

; 606  : 	m_pLogger->OpenLogger(szLogName);			// Logger Open

  0027c	8d 95 f4 fe ff
	ff		 lea	 edx, DWORD PTR _szLogName$[ebp]
  00282	52		 push	 edx
  00283	8b 45 f8	 mov	 eax, DWORD PTR _this$[ebp]
  00286	8b 48 0c	 mov	 ecx, DWORD PTR [eax+12]
  00289	e8 00 00 00 00	 call	 ?OpenLogger@CLogger@@QAEXPBD@Z ; CLogger::OpenLogger

; 607  : 	m_pLogger->SetLogLevel(m_nLogLevel);		// Logger Level setting

  0028e	8b 4d f8	 mov	 ecx, DWORD PTR _this$[ebp]
  00291	8b 51 14	 mov	 edx, DWORD PTR [ecx+20]
  00294	52		 push	 edx
  00295	8b 45 f8	 mov	 eax, DWORD PTR _this$[ebp]
  00298	8b 48 0c	 mov	 ecx, DWORD PTR [eax+12]
  0029b	e8 00 00 00 00	 call	 ?SetLogLevel@CLogger@@QAEXH@Z ; CLogger::SetLogLevel

; 608  : }

  002a0	52		 push	 edx
  002a1	8b cd		 mov	 ecx, ebp
  002a3	50		 push	 eax
  002a4	8d 15 00 00 00
	00		 lea	 edx, DWORD PTR $LN14@myLoggerOp
  002aa	e8 00 00 00 00	 call	 @_RTC_CheckStackVars@8
  002af	58		 pop	 eax
  002b0	5a		 pop	 edx
  002b1	5f		 pop	 edi
  002b2	5e		 pop	 esi
  002b3	8b 4d fc	 mov	 ecx, DWORD PTR __$ArrayPad$[ebp]
  002b6	33 cd		 xor	 ecx, ebp
  002b8	e8 00 00 00 00	 call	 @__security_check_cookie@4
  002bd	81 c4 18 01 00
	00		 add	 esp, 280		; 00000118H
  002c3	3b ec		 cmp	 ebp, esp
  002c5	e8 00 00 00 00	 call	 __RTC_CheckEsp
  002ca	8b e5		 mov	 esp, ebp
  002cc	5d		 pop	 ebp
  002cd	c2 04 00	 ret	 4
$LN14@myLoggerOp:
  002d0	01 00 00 00	 DD	 1
  002d4	00 00 00 00	 DD	 $LN13@myLoggerOp
$LN13@myLoggerOp:
  002d8	f4 fe ff ff	 DD	 -268			; fffffef4H
  002dc	00 01 00 00	 DD	 256			; 00000100H
  002e0	00 00 00 00	 DD	 $LN12@myLoggerOp
$LN12@myLoggerOp:
  002e4	73		 DB	 115			; 00000073H
  002e5	7a		 DB	 122			; 0000007aH
  002e6	4c		 DB	 76			; 0000004cH
  002e7	6f		 DB	 111			; 0000006fH
  002e8	67		 DB	 103			; 00000067H
  002e9	4e		 DB	 78			; 0000004eH
  002ea	61		 DB	 97			; 00000061H
  002eb	6d		 DB	 109			; 0000006dH
  002ec	65		 DB	 101			; 00000065H
  002ed	00		 DB	 0
?myLoggerOpen@CSTLogger@@AAEXPAVCDateTime@@@Z ENDP	; CSTLogger::myLoggerOpen
_TEXT	ENDS
; Function compile flags: /Odtp /RTCsu
; File d:\newproject2\com\src\comstlogger.cpp
_TEXT	SEGMENT
_curTm$2 = -176						; size = 116
_res$3 = -56						; size = 4
_szDate$4 = -48						; size = 24
_this$ = -20						; size = 4
__$ArrayPad$ = -16					; size = 4
__$EHRec$ = -12						; size = 12
_curDT$ = 8						; size = 4
?dayChangedProc@CSTLogger@@AAEXPAVCDateTime@@@Z PROC	; CSTLogger::dayChangedProc
; _this$ = ecx

; 553  : {

  00000	55		 push	 ebp
  00001	8b ec		 mov	 ebp, esp
  00003	6a ff		 push	 -1
  00005	68 00 00 00 00	 push	 __ehhandler$?dayChangedProc@CSTLogger@@AAEXPAVCDateTime@@@Z
  0000a	64 a1 00 00 00
	00		 mov	 eax, DWORD PTR fs:0
  00010	50		 push	 eax
  00011	81 ec a8 00 00
	00		 sub	 esp, 168		; 000000a8H
  00017	57		 push	 edi
  00018	51		 push	 ecx
  00019	8d bd 4c ff ff
	ff		 lea	 edi, DWORD PTR [ebp-180]
  0001f	b9 2a 00 00 00	 mov	 ecx, 42			; 0000002aH
  00024	b8 cc cc cc cc	 mov	 eax, -858993460		; ccccccccH
  00029	f3 ab		 rep stosd
  0002b	59		 pop	 ecx
  0002c	a1 00 00 00 00	 mov	 eax, DWORD PTR ___security_cookie
  00031	33 c5		 xor	 eax, ebp
  00033	89 45 f0	 mov	 DWORD PTR __$ArrayPad$[ebp], eax
  00036	50		 push	 eax
  00037	8d 45 f4	 lea	 eax, DWORD PTR __$EHRec$[ebp]
  0003a	64 a3 00 00 00
	00		 mov	 DWORD PTR fs:0, eax
  00040	89 4d ec	 mov	 DWORD PTR _this$[ebp], ecx

; 554  : 	myLoggerOpen(curDT);

  00043	8b 45 08	 mov	 eax, DWORD PTR _curDT$[ebp]
  00046	50		 push	 eax
  00047	8b 4d ec	 mov	 ecx, DWORD PTR _this$[ebp]
  0004a	e8 00 00 00 00	 call	 ?myLoggerOpen@CSTLogger@@AAEXPAVCDateTime@@@Z ; CSTLogger::myLoggerOpen

; 555  : 	PutLogQueue(LOG_INFO, _T("CSTLogger::dayChangedProc Day Changed! "));

  0004f	68 00 00 00 00	 push	 OFFSET $SG44631
  00054	6a 04		 push	 4
  00056	8b 4d ec	 mov	 ecx, DWORD PTR _this$[ebp]
  00059	51		 push	 ecx
  0005a	e8 00 00 00 00	 call	 ?PutLogQueue@CSTLogger@@QAAXHPBDZZ ; CSTLogger::PutLogQueue
  0005f	83 c4 0c	 add	 esp, 12			; 0000000cH

; 556  : 
; 557  : 	// delete proc
; 558  : 	if (m_nDaysExistence) {

  00062	8b 55 ec	 mov	 edx, DWORD PTR _this$[ebp]
  00065	83 7a 2c 00	 cmp	 DWORD PTR [edx+44], 0
  00069	74 7b		 je	 SHORT $LN1@dayChanged

; 559  : 		TCHAR szDate[24];
; 560  : 		int res;
; 561  : 		CDateTime	curTm;

  0006b	8d 8d 50 ff ff
	ff		 lea	 ecx, DWORD PTR _curTm$2[ebp]
  00071	e8 00 00 00 00	 call	 ??0CDateTime@@QAE@XZ	; CDateTime::CDateTime
  00076	c7 45 fc 00 00
	00 00		 mov	 DWORD PTR __$EHRec$[ebp+8], 0

; 562  : 		_tcscpy(szDate, curTm.addDateString(m_nDaysExistence-1));

  0007d	6a 00		 push	 0
  0007f	8b 45 ec	 mov	 eax, DWORD PTR _this$[ebp]
  00082	8b 48 2c	 mov	 ecx, DWORD PTR [eax+44]
  00085	83 e9 01	 sub	 ecx, 1
  00088	51		 push	 ecx
  00089	8d 8d 50 ff ff
	ff		 lea	 ecx, DWORD PTR _curTm$2[ebp]
  0008f	e8 00 00 00 00	 call	 ?addDateString@CDateTime@@QAEPBDHH@Z ; CDateTime::addDateString
  00094	50		 push	 eax
  00095	8d 55 d0	 lea	 edx, DWORD PTR _szDate$4[ebp]
  00098	52		 push	 edx
  00099	e8 00 00 00 00	 call	 _strcpy
  0009e	83 c4 08	 add	 esp, 8

; 563  : 		res = CFileUtil::delSSFile(m_pLogDir, 1, szDate);

  000a1	8d 45 d0	 lea	 eax, DWORD PTR _szDate$4[ebp]
  000a4	50		 push	 eax
  000a5	6a 01		 push	 1
  000a7	8b 4d ec	 mov	 ecx, DWORD PTR _this$[ebp]
  000aa	8b 51 18	 mov	 edx, DWORD PTR [ecx+24]
  000ad	52		 push	 edx
  000ae	e8 00 00 00 00	 call	 ?delSSFile@CFileUtil@@SAHPADH0@Z ; CFileUtil::delSSFile
  000b3	83 c4 0c	 add	 esp, 12			; 0000000cH
  000b6	89 45 c8	 mov	 DWORD PTR _res$3[ebp], eax

; 564  : 		PutLogQueue(LOG_INFO, _T("delete log file count[%d] date[%s]"), res, szDate);

  000b9	8d 45 d0	 lea	 eax, DWORD PTR _szDate$4[ebp]
  000bc	50		 push	 eax
  000bd	8b 4d c8	 mov	 ecx, DWORD PTR _res$3[ebp]
  000c0	51		 push	 ecx
  000c1	68 00 00 00 00	 push	 OFFSET $SG44633
  000c6	6a 04		 push	 4
  000c8	8b 55 ec	 mov	 edx, DWORD PTR _this$[ebp]
  000cb	52		 push	 edx
  000cc	e8 00 00 00 00	 call	 ?PutLogQueue@CSTLogger@@QAAXHPBDZZ ; CSTLogger::PutLogQueue
  000d1	83 c4 14	 add	 esp, 20			; 00000014H

; 565  : 	}

  000d4	c7 45 fc ff ff
	ff ff		 mov	 DWORD PTR __$EHRec$[ebp+8], -1
  000db	8d 8d 50 ff ff
	ff		 lea	 ecx, DWORD PTR _curTm$2[ebp]
  000e1	e8 00 00 00 00	 call	 ??1CDateTime@@QAE@XZ	; CDateTime::~CDateTime
$LN1@dayChanged:

; 566  : 
; 567  : }

  000e6	52		 push	 edx
  000e7	8b cd		 mov	 ecx, ebp
  000e9	50		 push	 eax
  000ea	8d 15 00 00 00
	00		 lea	 edx, DWORD PTR $LN9@dayChanged
  000f0	e8 00 00 00 00	 call	 @_RTC_CheckStackVars@8
  000f5	58		 pop	 eax
  000f6	5a		 pop	 edx
  000f7	8b 4d f4	 mov	 ecx, DWORD PTR __$EHRec$[ebp]
  000fa	64 89 0d 00 00
	00 00		 mov	 DWORD PTR fs:0, ecx
  00101	59		 pop	 ecx
  00102	5f		 pop	 edi
  00103	8b 4d f0	 mov	 ecx, DWORD PTR __$ArrayPad$[ebp]
  00106	33 cd		 xor	 ecx, ebp
  00108	e8 00 00 00 00	 call	 @__security_check_cookie@4
  0010d	81 c4 b4 00 00
	00		 add	 esp, 180		; 000000b4H
  00113	3b ec		 cmp	 ebp, esp
  00115	e8 00 00 00 00	 call	 __RTC_CheckEsp
  0011a	8b e5		 mov	 esp, ebp
  0011c	5d		 pop	 ebp
  0011d	c2 04 00	 ret	 4
$LN9@dayChanged:
  00120	02 00 00 00	 DD	 2
  00124	00 00 00 00	 DD	 $LN8@dayChanged
$LN8@dayChanged:
  00128	d0 ff ff ff	 DD	 -48			; ffffffd0H
  0012c	18 00 00 00	 DD	 24			; 00000018H
  00130	00 00 00 00	 DD	 $LN5@dayChanged
  00134	50 ff ff ff	 DD	 -176			; ffffff50H
  00138	74 00 00 00	 DD	 116			; 00000074H
  0013c	00 00 00 00	 DD	 $LN6@dayChanged
$LN6@dayChanged:
  00140	63		 DB	 99			; 00000063H
  00141	75		 DB	 117			; 00000075H
  00142	72		 DB	 114			; 00000072H
  00143	54		 DB	 84			; 00000054H
  00144	6d		 DB	 109			; 0000006dH
  00145	00		 DB	 0
$LN5@dayChanged:
  00146	73		 DB	 115			; 00000073H
  00147	7a		 DB	 122			; 0000007aH
  00148	44		 DB	 68			; 00000044H
  00149	61		 DB	 97			; 00000061H
  0014a	74		 DB	 116			; 00000074H
  0014b	65		 DB	 101			; 00000065H
  0014c	00		 DB	 0
_TEXT	ENDS
text$x	SEGMENT
__unwindfunclet$?dayChangedProc@CSTLogger@@AAEXPAVCDateTime@@@Z$0:
  00000	8d 8d 50 ff ff
	ff		 lea	 ecx, DWORD PTR _curTm$2[ebp]
  00006	e9 00 00 00 00	 jmp	 ??1CDateTime@@QAE@XZ	; CDateTime::~CDateTime
__ehhandler$?dayChangedProc@CSTLogger@@AAEXPAVCDateTime@@@Z:
  0000b	8b 54 24 08	 mov	 edx, DWORD PTR [esp+8]
  0000f	8d 42 0c	 lea	 eax, DWORD PTR [edx+12]
  00012	8b 8a 50 ff ff
	ff		 mov	 ecx, DWORD PTR [edx-176]
  00018	33 c8		 xor	 ecx, eax
  0001a	e8 00 00 00 00	 call	 @__security_check_cookie@4
  0001f	8b 4a fc	 mov	 ecx, DWORD PTR [edx-4]
  00022	33 c8		 xor	 ecx, eax
  00024	e8 00 00 00 00	 call	 @__security_check_cookie@4
  00029	b8 00 00 00 00	 mov	 eax, OFFSET __ehfuncinfo$?dayChangedProc@CSTLogger@@AAEXPAVCDateTime@@@Z
  0002e	e9 00 00 00 00	 jmp	 ___CxxFrameHandler3
text$x	ENDS
?dayChangedProc@CSTLogger@@AAEXPAVCDateTime@@@Z ENDP	; CSTLogger::dayChangedProc
; Function compile flags: /Odtp /RTCsu
; File d:\newproject2\com\src\comstlogger.cpp
_TEXT	SEGMENT
_ap$ = -5300						; size = 4
_header$ = -5292					; size = 512
_msgBuf$ = -4772					; size = 4096
_nLen$ = -664						; size = 4
_tmpBuf$ = -656						; size = 512
_curTm$ = -136						; size = 116
__$ArrayPad$ = -16					; size = 4
__$EHRec$ = -12						; size = 12
_this$ = 8						; size = 4
_level$ = 12						; size = 4
__szFile$ = 16						; size = 4
__szFunc$ = 20						; size = 4
__nLine$ = 24						; size = 4
__szFormat$ = 28					; size = 4
?__Log@CSTLogger@@QAAXHPBD0H0ZZ PROC			; CSTLogger::__Log

; 302  : {

  00000	55		 push	 ebp
  00001	8b ec		 mov	 ebp, esp
  00003	6a ff		 push	 -1
  00005	68 00 00 00 00	 push	 __ehhandler$?__Log@CSTLogger@@QAAXHPBD0H0ZZ
  0000a	64 a1 00 00 00
	00		 mov	 eax, DWORD PTR fs:0
  00010	50		 push	 eax
  00011	b8 a8 14 00 00	 mov	 eax, 5288		; 000014a8H
  00016	e8 00 00 00 00	 call	 __chkstk
  0001b	57		 push	 edi
  0001c	8d bd 4c eb ff
	ff		 lea	 edi, DWORD PTR [ebp-5300]
  00022	b9 2a 05 00 00	 mov	 ecx, 1322		; 0000052aH
  00027	b8 cc cc cc cc	 mov	 eax, -858993460		; ccccccccH
  0002c	f3 ab		 rep stosd
  0002e	a1 00 00 00 00	 mov	 eax, DWORD PTR ___security_cookie
  00033	33 c5		 xor	 eax, ebp
  00035	89 45 f0	 mov	 DWORD PTR __$ArrayPad$[ebp], eax
  00038	50		 push	 eax
  00039	8d 45 f4	 lea	 eax, DWORD PTR __$EHRec$[ebp]
  0003c	64 a3 00 00 00
	00		 mov	 DWORD PTR fs:0, eax

; 303  : 	if (!(m_nFlag & IS_ACTIVE_PUT_QUEUE)) return;

  00042	8b 45 08	 mov	 eax, DWORD PTR _this$[ebp]
  00045	8b 48 20	 mov	 ecx, DWORD PTR [eax+32]
  00048	83 e1 04	 and	 ecx, 4
  0004b	75 05		 jne	 SHORT $LN2@Log
  0004d	e9 ed 00 00 00	 jmp	 $LN1@Log
$LN2@Log:

; 304  : 
; 305  : 	CDateTime	curTm;

  00052	8d 8d 78 ff ff
	ff		 lea	 ecx, DWORD PTR _curTm$[ebp]
  00058	e8 00 00 00 00	 call	 ??0CDateTime@@QAE@XZ	; CDateTime::CDateTime
  0005d	c7 45 fc 00 00
	00 00		 mov	 DWORD PTR __$EHRec$[ebp+8], 0

; 306  : 	char tmpBuf[512];
; 307  : 	int nLen, wlen;
; 308  : 	int clen;
; 309  : 
; 310  : 	TCHAR	msgBuf[MAX_LOGBUF_LEN];
; 311  : 	TCHAR	header[512];
; 312  : 	va_list	ap;
; 313  : 	sprintf(tmpBuf, "%s %s %d", _szFile, _szFunc, _nLine);

  00064	8b 55 18	 mov	 edx, DWORD PTR __nLine$[ebp]
  00067	52		 push	 edx
  00068	8b 45 14	 mov	 eax, DWORD PTR __szFunc$[ebp]
  0006b	50		 push	 eax
  0006c	8b 4d 10	 mov	 ecx, DWORD PTR __szFile$[ebp]
  0006f	51		 push	 ecx
  00070	68 00 00 00 00	 push	 OFFSET $SG44567
  00075	8d 95 70 fd ff
	ff		 lea	 edx, DWORD PTR _tmpBuf$[ebp]
  0007b	52		 push	 edx
  0007c	e8 00 00 00 00	 call	 _sprintf
  00081	83 c4 14	 add	 esp, 20			; 00000014H

; 314  : 
; 315  : #ifdef UNICODE
; 316  : 	wchar_t wstr[256] = { 0, };
; 317  : 	clen = strlen(tmpBuf);
; 318  : 	wlen = MultiByteToWideChar(CP_ACP, 0, tmpBuf, clen, NULL, NULL);
; 319  : 	MultiByteToWideChar(CP_ACP, MB_PRECOMPOSED, tmpBuf, clen, wstr, wlen);
; 320  : 	nLen = _stprintf(header, _T("[%s %s] [%s] %s"), curTm.DateString2(), curTm.TimeString2(), gs_fmtStr[level], wstr);
; 321  : 
; 322  : 	clen = strlen(_szFormat);
; 323  : 	wlen = MultiByteToWideChar(CP_ACP, 0, _szFormat, clen, NULL, NULL);
; 324  : 	MultiByteToWideChar(CP_ACP, MB_PRECOMPOSED, _szFormat, clen, wstr, wlen);
; 325  : 	va_start(ap, wstr);
; 326  : 	nLen += _vsntprintf(msgBuf, MAX_LOGBUF_LEN - 1, wstr, ap);
; 327  : 
; 328  : #else
; 329  : 	nLen = _stprintf(header, _T("[%s %s] [%s] %s"), curTm.DateString2(), curTm.TimeString2(), gs_fmtStr[level], tmpBuf);

  00084	8d 85 70 fd ff
	ff		 lea	 eax, DWORD PTR _tmpBuf$[ebp]
  0008a	50		 push	 eax
  0008b	8b 4d 0c	 mov	 ecx, DWORD PTR _level$[ebp]
  0008e	8b 14 8d 00 00
	00 00		 mov	 edx, DWORD PTR ?gs_fmtStr@@3PAPBDA[ecx*4]
  00095	52		 push	 edx
  00096	8d 8d 78 ff ff
	ff		 lea	 ecx, DWORD PTR _curTm$[ebp]
  0009c	e8 00 00 00 00	 call	 ?TimeString2@CDateTime@@QAEPBDXZ ; CDateTime::TimeString2
  000a1	50		 push	 eax
  000a2	8d 8d 78 ff ff
	ff		 lea	 ecx, DWORD PTR _curTm$[ebp]
  000a8	e8 00 00 00 00	 call	 ?DateString2@CDateTime@@QAEPBDXZ ; CDateTime::DateString2
  000ad	50		 push	 eax
  000ae	68 00 00 00 00	 push	 OFFSET $SG44568
  000b3	8d 85 54 eb ff
	ff		 lea	 eax, DWORD PTR _header$[ebp]
  000b9	50		 push	 eax
  000ba	e8 00 00 00 00	 call	 _sprintf
  000bf	83 c4 18	 add	 esp, 24			; 00000018H
  000c2	89 85 68 fd ff
	ff		 mov	 DWORD PTR _nLen$[ebp], eax

; 330  : 	va_start(ap, header);

  000c8	e8 00 00 00 00	 call	 ??$__vcrt_va_start_verify_argument_type@$$BY0CAA@D@@YAXXZ ; __vcrt_va_start_verify_argument_type<char [512]>
  000cd	8d 8d 54 ed ff
	ff		 lea	 ecx, DWORD PTR _header$[ebp+512]
  000d3	89 8d 4c eb ff
	ff		 mov	 DWORD PTR _ap$[ebp], ecx

; 331  : 	nLen += vsnprintf(msgBuf, MAX_LOGBUF_LEN - 1, _szFormat, ap);

  000d9	8b 95 4c eb ff
	ff		 mov	 edx, DWORD PTR _ap$[ebp]
  000df	52		 push	 edx
  000e0	8b 45 1c	 mov	 eax, DWORD PTR __szFormat$[ebp]
  000e3	50		 push	 eax
  000e4	68 ff 0f 00 00	 push	 4095			; 00000fffH
  000e9	8d 8d 5c ed ff
	ff		 lea	 ecx, DWORD PTR _msgBuf$[ebp]
  000ef	51		 push	 ecx
  000f0	e8 00 00 00 00	 call	 _vsnprintf
  000f5	83 c4 10	 add	 esp, 16			; 00000010H
  000f8	03 85 68 fd ff
	ff		 add	 eax, DWORD PTR _nLen$[ebp]
  000fe	89 85 68 fd ff
	ff		 mov	 DWORD PTR _nLen$[ebp], eax

; 332  : #endif
; 333  : 
; 334  : 	va_end(ap);

  00104	c7 85 4c eb ff
	ff 00 00 00 00	 mov	 DWORD PTR _ap$[ebp], 0

; 335  : 	_putLogQueue(header, msgBuf, nLen);

  0010e	6a 00		 push	 0
  00110	8b 95 68 fd ff
	ff		 mov	 edx, DWORD PTR _nLen$[ebp]
  00116	52		 push	 edx
  00117	8d 85 5c ed ff
	ff		 lea	 eax, DWORD PTR _msgBuf$[ebp]
  0011d	50		 push	 eax
  0011e	8d 8d 54 eb ff
	ff		 lea	 ecx, DWORD PTR _header$[ebp]
  00124	51		 push	 ecx
  00125	8b 4d 08	 mov	 ecx, DWORD PTR _this$[ebp]
  00128	e8 00 00 00 00	 call	 ?_putLogQueue@CSTLogger@@AAEXPAD0H0@Z ; CSTLogger::_putLogQueue

; 336  : }

  0012d	c7 45 fc ff ff
	ff ff		 mov	 DWORD PTR __$EHRec$[ebp+8], -1
  00134	8d 8d 78 ff ff
	ff		 lea	 ecx, DWORD PTR _curTm$[ebp]
  0013a	e8 00 00 00 00	 call	 ??1CDateTime@@QAE@XZ	; CDateTime::~CDateTime
$LN1@Log:
  0013f	52		 push	 edx
  00140	8b cd		 mov	 ecx, ebp
  00142	50		 push	 eax
  00143	8d 15 00 00 00
	00		 lea	 edx, DWORD PTR $LN11@Log
  00149	e8 00 00 00 00	 call	 @_RTC_CheckStackVars@8
  0014e	58		 pop	 eax
  0014f	5a		 pop	 edx
  00150	8b 4d f4	 mov	 ecx, DWORD PTR __$EHRec$[ebp]
  00153	64 89 0d 00 00
	00 00		 mov	 DWORD PTR fs:0, ecx
  0015a	59		 pop	 ecx
  0015b	5f		 pop	 edi
  0015c	8b 4d f0	 mov	 ecx, DWORD PTR __$ArrayPad$[ebp]
  0015f	33 cd		 xor	 ecx, ebp
  00161	e8 00 00 00 00	 call	 @__security_check_cookie@4
  00166	81 c4 b4 14 00
	00		 add	 esp, 5300		; 000014b4H
  0016c	3b ec		 cmp	 ebp, esp
  0016e	e8 00 00 00 00	 call	 __RTC_CheckEsp
  00173	8b e5		 mov	 esp, ebp
  00175	5d		 pop	 ebp
  00176	c3		 ret	 0
  00177	90		 npad	 1
$LN11@Log:
  00178	04 00 00 00	 DD	 4
  0017c	00 00 00 00	 DD	 $LN10@Log
$LN10@Log:
  00180	78 ff ff ff	 DD	 -136			; ffffff78H
  00184	74 00 00 00	 DD	 116			; 00000074H
  00188	00 00 00 00	 DD	 $LN5@Log
  0018c	70 fd ff ff	 DD	 -656			; fffffd70H
  00190	00 02 00 00	 DD	 512			; 00000200H
  00194	00 00 00 00	 DD	 $LN6@Log
  00198	5c ed ff ff	 DD	 -4772			; ffffed5cH
  0019c	00 10 00 00	 DD	 4096			; 00001000H
  001a0	00 00 00 00	 DD	 $LN7@Log
  001a4	54 eb ff ff	 DD	 -5292			; ffffeb54H
  001a8	00 02 00 00	 DD	 512			; 00000200H
  001ac	00 00 00 00	 DD	 $LN8@Log
$LN8@Log:
  001b0	68		 DB	 104			; 00000068H
  001b1	65		 DB	 101			; 00000065H
  001b2	61		 DB	 97			; 00000061H
  001b3	64		 DB	 100			; 00000064H
  001b4	65		 DB	 101			; 00000065H
  001b5	72		 DB	 114			; 00000072H
  001b6	00		 DB	 0
$LN7@Log:
  001b7	6d		 DB	 109			; 0000006dH
  001b8	73		 DB	 115			; 00000073H
  001b9	67		 DB	 103			; 00000067H
  001ba	42		 DB	 66			; 00000042H
  001bb	75		 DB	 117			; 00000075H
  001bc	66		 DB	 102			; 00000066H
  001bd	00		 DB	 0
$LN6@Log:
  001be	74		 DB	 116			; 00000074H
  001bf	6d		 DB	 109			; 0000006dH
  001c0	70		 DB	 112			; 00000070H
  001c1	42		 DB	 66			; 00000042H
  001c2	75		 DB	 117			; 00000075H
  001c3	66		 DB	 102			; 00000066H
  001c4	00		 DB	 0
$LN5@Log:
  001c5	63		 DB	 99			; 00000063H
  001c6	75		 DB	 117			; 00000075H
  001c7	72		 DB	 114			; 00000072H
  001c8	54		 DB	 84			; 00000054H
  001c9	6d		 DB	 109			; 0000006dH
  001ca	00		 DB	 0
_TEXT	ENDS
text$x	SEGMENT
__unwindfunclet$?__Log@CSTLogger@@QAAXHPBD0H0ZZ$0:
  00000	8d 8d 78 ff ff
	ff		 lea	 ecx, DWORD PTR _curTm$[ebp]
  00006	e9 00 00 00 00	 jmp	 ??1CDateTime@@QAE@XZ	; CDateTime::~CDateTime
__ehhandler$?__Log@CSTLogger@@QAAXHPBD0H0ZZ:
  0000b	8b 54 24 08	 mov	 edx, DWORD PTR [esp+8]
  0000f	8d 42 0c	 lea	 eax, DWORD PTR [edx+12]
  00012	8b 8a 50 eb ff
	ff		 mov	 ecx, DWORD PTR [edx-5296]
  00018	33 c8		 xor	 ecx, eax
  0001a	e8 00 00 00 00	 call	 @__security_check_cookie@4
  0001f	8b 4a fc	 mov	 ecx, DWORD PTR [edx-4]
  00022	33 c8		 xor	 ecx, eax
  00024	e8 00 00 00 00	 call	 @__security_check_cookie@4
  00029	b8 00 00 00 00	 mov	 eax, OFFSET __ehfuncinfo$?__Log@CSTLogger@@QAAXHPBD0H0ZZ
  0002e	e9 00 00 00 00	 jmp	 ___CxxFrameHandler3
text$x	ENDS
?__Log@CSTLogger@@QAAXHPBD0H0ZZ ENDP			; CSTLogger::__Log
; Function compile flags: /Odtp /RTCsu
; File d:\newproject2\com\include\comstlogger.h
;	COMDAT ?addSeq@CSTLogger@@QAEXXZ
_TEXT	SEGMENT
_this$ = -4						; size = 4
?addSeq@CSTLogger@@QAEXXZ PROC				; CSTLogger::addSeq, COMDAT
; _this$ = ecx

; 97   : 	inline void addSeq() { m_nSeq++; if (m_nSeq > MAX_SEQ) m_nSeq = 1; }

  00000	55		 push	 ebp
  00001	8b ec		 mov	 ebp, esp
  00003	51		 push	 ecx
  00004	c7 45 fc cc cc
	cc cc		 mov	 DWORD PTR [ebp-4], -858993460 ; ccccccccH
  0000b	89 4d fc	 mov	 DWORD PTR _this$[ebp], ecx
  0000e	8b 45 fc	 mov	 eax, DWORD PTR _this$[ebp]
  00011	8b 48 24	 mov	 ecx, DWORD PTR [eax+36]
  00014	83 c1 01	 add	 ecx, 1
  00017	8b 55 fc	 mov	 edx, DWORD PTR _this$[ebp]
  0001a	89 4a 24	 mov	 DWORD PTR [edx+36], ecx
  0001d	8b 45 fc	 mov	 eax, DWORD PTR _this$[ebp]
  00020	81 78 24 7f 96
	98 00		 cmp	 DWORD PTR [eax+36], 9999999 ; 0098967fH
  00027	7e 0a		 jle	 SHORT $LN1@addSeq
  00029	8b 4d fc	 mov	 ecx, DWORD PTR _this$[ebp]
  0002c	c7 41 24 01 00
	00 00		 mov	 DWORD PTR [ecx+36], 1
$LN1@addSeq:
  00033	8b e5		 mov	 esp, ebp
  00035	5d		 pop	 ebp
  00036	c3		 ret	 0
?addSeq@CSTLogger@@QAEXXZ ENDP				; CSTLogger::addSeq
_TEXT	ENDS
; Function compile flags: /Odtp /RTCsu
; File d:\newproject2\com\src\comstlogger.cpp
_TEXT	SEGMENT
_nLimitSize$1 = -140					; size = 4
_nLogSize$2 = -136					; size = 4
_ltm$3 = -128						; size = 116
_this$ = -8						; size = 4
__$ArrayPad$ = -4					; size = 4
_pDateTime$ = 8						; size = 4
?TimeProc@CSTLogger@@QAEXPAVCDateTime@@@Z PROC		; CSTLogger::TimeProc
; _this$ = ecx

; 506  : {

  00000	55		 push	 ebp
  00001	8b ec		 mov	 ebp, esp
  00003	81 ec 8c 00 00
	00		 sub	 esp, 140		; 0000008cH
  00009	56		 push	 esi
  0000a	57		 push	 edi
  0000b	51		 push	 ecx
  0000c	8d bd 74 ff ff
	ff		 lea	 edi, DWORD PTR [ebp-140]
  00012	b9 23 00 00 00	 mov	 ecx, 35			; 00000023H
  00017	b8 cc cc cc cc	 mov	 eax, -858993460		; ccccccccH
  0001c	f3 ab		 rep stosd
  0001e	59		 pop	 ecx
  0001f	a1 00 00 00 00	 mov	 eax, DWORD PTR ___security_cookie
  00024	33 c5		 xor	 eax, ebp
  00026	89 45 fc	 mov	 DWORD PTR __$ArrayPad$[ebp], eax
  00029	89 4d f8	 mov	 DWORD PTR _this$[ebp], ecx

; 507  : 	//CDateTime	ltm;
; 508  : 	if(!pDateTime) {

  0002c	83 7d 08 00	 cmp	 DWORD PTR _pDateTime$[ebp], 0
  00030	75 16		 jne	 SHORT $LN2@TimeProc

; 509  : 		CDateTime	ltm;

  00032	8d 4d 80	 lea	 ecx, DWORD PTR _ltm$3[ebp]
  00035	e8 00 00 00 00	 call	 ??0CDateTime@@QAE@XZ	; CDateTime::CDateTime

; 510  : 		pDateTime = &ltm;

  0003a	8d 45 80	 lea	 eax, DWORD PTR _ltm$3[ebp]
  0003d	89 45 08	 mov	 DWORD PTR _pDateTime$[ebp], eax

; 511  : 	}

  00040	8d 4d 80	 lea	 ecx, DWORD PTR _ltm$3[ebp]
  00043	e8 00 00 00 00	 call	 ??1CDateTime@@QAE@XZ	; CDateTime::~CDateTime
$LN2@TimeProc:

; 512  : 
; 513  : 	if (pDateTime->Mday() != gs_today_time.mday) { // 1. Day Change 체크

  00048	8b 4d 08	 mov	 ecx, DWORD PTR _pDateTime$[ebp]
  0004b	e8 00 00 00 00	 call	 ?Mday@CDateTime@@QAEHXZ	; CDateTime::Mday
  00050	3b 05 08 00 00
	00		 cmp	 eax, DWORD PTR ?gs_today_time@@3USTTodayTime@@A+8
  00056	0f 84 a2 00 00
	00		 je	 $LN3@TimeProc

; 514  : 		if(m_nFlag & IS_ACTIVE_DAYCHANGE_LOG) dayChangedProc(pDateTime); // 로그 체인지

  0005c	8b 4d f8	 mov	 ecx, DWORD PTR _this$[ebp]
  0005f	8b 51 20	 mov	 edx, DWORD PTR [ecx+32]
  00062	83 e2 10	 and	 edx, 16			; 00000010H
  00065	74 0c		 je	 SHORT $LN4@TimeProc
  00067	8b 45 08	 mov	 eax, DWORD PTR _pDateTime$[ebp]
  0006a	50		 push	 eax
  0006b	8b 4d f8	 mov	 ecx, DWORD PTR _this$[ebp]
  0006e	e8 00 00 00 00	 call	 ?dayChangedProc@CSTLogger@@AAEXPAVCDateTime@@@Z ; CSTLogger::dayChangedProc
$LN4@TimeProc:

; 515  : 
; 516  : 		gs_today_time.date  = _ttoi(pDateTime->DateString());

  00073	6a 00		 push	 0
  00075	8b 4d 08	 mov	 ecx, DWORD PTR _pDateTime$[ebp]
  00078	e8 00 00 00 00	 call	 ?DateString@CDateTime@@QAEPBDH@Z ; CDateTime::DateString
  0007d	8b f4		 mov	 esi, esp
  0007f	50		 push	 eax
  00080	ff 15 00 00 00
	00		 call	 DWORD PTR __imp__atoi
  00086	83 c4 04	 add	 esp, 4
  00089	3b f4		 cmp	 esi, esp
  0008b	e8 00 00 00 00	 call	 __RTC_CheckEsp
  00090	a3 18 00 00 00	 mov	 DWORD PTR ?gs_today_time@@3USTTodayTime@@A+24, eax

; 517  : 		gs_today_time.year	= pDateTime->Year();

  00095	8b 4d 08	 mov	 ecx, DWORD PTR _pDateTime$[ebp]
  00098	e8 00 00 00 00	 call	 ?Year@CDateTime@@QAEHXZ	; CDateTime::Year
  0009d	a3 00 00 00 00	 mov	 DWORD PTR ?gs_today_time@@3USTTodayTime@@A, eax

; 518  : 		gs_today_time.month	= pDateTime->Month();

  000a2	8b 4d 08	 mov	 ecx, DWORD PTR _pDateTime$[ebp]
  000a5	e8 00 00 00 00	 call	 ?Month@CDateTime@@QAEHXZ ; CDateTime::Month
  000aa	a3 04 00 00 00	 mov	 DWORD PTR ?gs_today_time@@3USTTodayTime@@A+4, eax

; 519  : 		gs_today_time.mday	= pDateTime->Mday();

  000af	8b 4d 08	 mov	 ecx, DWORD PTR _pDateTime$[ebp]
  000b2	e8 00 00 00 00	 call	 ?Mday@CDateTime@@QAEHXZ	; CDateTime::Mday
  000b7	a3 08 00 00 00	 mov	 DWORD PTR ?gs_today_time@@3USTTodayTime@@A+8, eax

; 520  : 		gs_today_time.wday	= pDateTime->Wday();

  000bc	8b 4d 08	 mov	 ecx, DWORD PTR _pDateTime$[ebp]
  000bf	e8 00 00 00 00	 call	 ?Wday@CDateTime@@QAEHXZ	; CDateTime::Wday
  000c4	a3 0c 00 00 00	 mov	 DWORD PTR ?gs_today_time@@3USTTodayTime@@A+12, eax

; 521  : 		if(m_pfDayChange) // 등록된 콜백 함수 처리

  000c9	8b 4d f8	 mov	 ecx, DWORD PTR _this$[ebp]
  000cc	83 39 00	 cmp	 DWORD PTR [ecx], 0
  000cf	74 2d		 je	 SHORT $LN3@TimeProc

; 522  : 		{ 
; 523  : 			m_pfDayChange(gs_today_time.date);

  000d1	8b f4		 mov	 esi, esp
  000d3	8b 15 18 00 00
	00		 mov	 edx, DWORD PTR ?gs_today_time@@3USTTodayTime@@A+24
  000d9	52		 push	 edx
  000da	8b 45 f8	 mov	 eax, DWORD PTR _this$[ebp]
  000dd	8b 08		 mov	 ecx, DWORD PTR [eax]
  000df	ff d1		 call	 ecx
  000e1	83 c4 04	 add	 esp, 4
  000e4	3b f4		 cmp	 esi, esp
  000e6	e8 00 00 00 00	 call	 __RTC_CheckEsp

; 524  : 			CSTLogger::PutLogQueue(LOG_INFO, _T("m_pfDayChange Proc"));

  000eb	68 00 00 00 00	 push	 OFFSET $SG44616
  000f0	6a 04		 push	 4
  000f2	8b 55 f8	 mov	 edx, DWORD PTR _this$[ebp]
  000f5	52		 push	 edx
  000f6	e8 00 00 00 00	 call	 ?PutLogQueue@CSTLogger@@QAAXHPBDZZ ; CSTLogger::PutLogQueue
  000fb	83 c4 0c	 add	 esp, 12			; 0000000cH
$LN3@TimeProc:

; 525  : 		}
; 526  : 	}
; 527  : 	
; 528  : 	if(pDateTime->Hour() != gs_today_time.hour) {

  000fe	8b 4d 08	 mov	 ecx, DWORD PTR _pDateTime$[ebp]
  00101	e8 00 00 00 00	 call	 ?Hour@CDateTime@@QAEHXZ	; CDateTime::Hour
  00106	3b 05 10 00 00
	00		 cmp	 eax, DWORD PTR ?gs_today_time@@3USTTodayTime@@A+16
  0010c	74 31		 je	 SHORT $LN6@TimeProc

; 529  : 		gs_today_time.hour	= pDateTime->Hour();

  0010e	8b 4d 08	 mov	 ecx, DWORD PTR _pDateTime$[ebp]
  00111	e8 00 00 00 00	 call	 ?Hour@CDateTime@@QAEHXZ	; CDateTime::Hour
  00116	a3 10 00 00 00	 mov	 DWORD PTR ?gs_today_time@@3USTTodayTime@@A+16, eax

; 530  : 		if(m_pfHourChange) {

  0011b	8b 45 f8	 mov	 eax, DWORD PTR _this$[ebp]
  0011e	83 78 04 00	 cmp	 DWORD PTR [eax+4], 0
  00122	74 1b		 je	 SHORT $LN6@TimeProc

; 531  : 			m_pfHourChange(gs_today_time.hour);

  00124	8b f4		 mov	 esi, esp
  00126	8b 0d 10 00 00
	00		 mov	 ecx, DWORD PTR ?gs_today_time@@3USTTodayTime@@A+16
  0012c	51		 push	 ecx
  0012d	8b 55 f8	 mov	 edx, DWORD PTR _this$[ebp]
  00130	8b 42 04	 mov	 eax, DWORD PTR [edx+4]
  00133	ff d0		 call	 eax
  00135	83 c4 04	 add	 esp, 4
  00138	3b f4		 cmp	 esi, esp
  0013a	e8 00 00 00 00	 call	 __RTC_CheckEsp
$LN6@TimeProc:

; 532  : 		}
; 533  : 	}
; 534  : 
; 535  : 	if (pDateTime->Minute() != gs_today_time.minute) {

  0013f	8b 4d 08	 mov	 ecx, DWORD PTR _pDateTime$[ebp]
  00142	e8 00 00 00 00	 call	 ?Minute@CDateTime@@QAEHXZ ; CDateTime::Minute
  00147	3b 05 14 00 00
	00		 cmp	 eax, DWORD PTR ?gs_today_time@@3USTTodayTime@@A+20
  0014d	0f 84 a1 00 00
	00		 je	 $LN1@TimeProc

; 536  : 		int nLogSize, nLimitSize;
; 537  : 		gs_today_time.minute = pDateTime->Minute();

  00153	8b 4d 08	 mov	 ecx, DWORD PTR _pDateTime$[ebp]
  00156	e8 00 00 00 00	 call	 ?Minute@CDateTime@@QAEHXZ ; CDateTime::Minute
  0015b	a3 14 00 00 00	 mov	 DWORD PTR ?gs_today_time@@3USTTodayTime@@A+20, eax

; 538  : 		if (m_nSizeLimit) {

  00160	8b 4d f8	 mov	 ecx, DWORD PTR _this$[ebp]
  00163	83 79 28 00	 cmp	 DWORD PTR [ecx+40], 0
  00167	74 0e		 je	 SHORT $LN9@TimeProc

; 539  : 			nLimitSize = m_nSizeLimit;

  00169	8b 55 f8	 mov	 edx, DWORD PTR _this$[ebp]
  0016c	8b 42 28	 mov	 eax, DWORD PTR [edx+40]
  0016f	89 85 74 ff ff
	ff		 mov	 DWORD PTR _nLimitSize$1[ebp], eax
  00175	eb 0a		 jmp	 SHORT $LN10@TimeProc
$LN9@TimeProc:

; 540  : 		}
; 541  : 		else nLimitSize = MAX_LOGFILE_SIZE;

  00177	c7 85 74 ff ff
	ff 00 46 c3 23	 mov	 DWORD PTR _nLimitSize$1[ebp], 600000000 ; 23c34600H
$LN10@TimeProc:

; 542  : 		nLogSize = m_pLogger->getLogSize();

  00181	8b 4d f8	 mov	 ecx, DWORD PTR _this$[ebp]
  00184	8b 49 0c	 mov	 ecx, DWORD PTR [ecx+12]
  00187	e8 00 00 00 00	 call	 ?getLogSize@CLogger@@QAEHXZ ; CLogger::getLogSize
  0018c	89 85 78 ff ff
	ff		 mov	 DWORD PTR _nLogSize$2[ebp], eax

; 543  : 		if (nLimitSize && nLogSize > nLimitSize) {

  00192	83 bd 74 ff ff
	ff 00		 cmp	 DWORD PTR _nLimitSize$1[ebp], 0
  00199	74 59		 je	 SHORT $LN1@TimeProc
  0019b	8b 95 78 ff ff
	ff		 mov	 edx, DWORD PTR _nLogSize$2[ebp]
  001a1	3b 95 74 ff ff
	ff		 cmp	 edx, DWORD PTR _nLimitSize$1[ebp]
  001a7	7e 4b		 jle	 SHORT $LN1@TimeProc

; 544  : 			addSeq();

  001a9	8b 4d f8	 mov	 ecx, DWORD PTR _this$[ebp]
  001ac	e8 00 00 00 00	 call	 ?addSeq@CSTLogger@@QAEXXZ ; CSTLogger::addSeq

; 545  : 			myLoggerOpen(pDateTime);

  001b1	8b 45 08	 mov	 eax, DWORD PTR _pDateTime$[ebp]
  001b4	50		 push	 eax
  001b5	8b 4d f8	 mov	 ecx, DWORD PTR _this$[ebp]
  001b8	e8 00 00 00 00	 call	 ?myLoggerOpen@CSTLogger@@AAEXPAVCDateTime@@@Z ; CSTLogger::myLoggerOpen

; 546  : 			CSTLogger::PutLogQueue(LOG_INFO, _T("nLogSize[%d] nLimitSize[%d] [%s-%s]"), nLogSize, nLimitSize, pDateTime->DateString('/'), pDateTime->TimeString(':'));

  001bd	6a 3a		 push	 58			; 0000003aH
  001bf	8b 4d 08	 mov	 ecx, DWORD PTR _pDateTime$[ebp]
  001c2	e8 00 00 00 00	 call	 ?TimeString@CDateTime@@QAEPBDH@Z ; CDateTime::TimeString
  001c7	50		 push	 eax
  001c8	6a 2f		 push	 47			; 0000002fH
  001ca	8b 4d 08	 mov	 ecx, DWORD PTR _pDateTime$[ebp]
  001cd	e8 00 00 00 00	 call	 ?DateString@CDateTime@@QAEPBDH@Z ; CDateTime::DateString
  001d2	50		 push	 eax
  001d3	8b 8d 74 ff ff
	ff		 mov	 ecx, DWORD PTR _nLimitSize$1[ebp]
  001d9	51		 push	 ecx
  001da	8b 95 78 ff ff
	ff		 mov	 edx, DWORD PTR _nLogSize$2[ebp]
  001e0	52		 push	 edx
  001e1	68 00 00 00 00	 push	 OFFSET $SG44623
  001e6	6a 04		 push	 4
  001e8	8b 45 f8	 mov	 eax, DWORD PTR _this$[ebp]
  001eb	50		 push	 eax
  001ec	e8 00 00 00 00	 call	 ?PutLogQueue@CSTLogger@@QAAXHPBDZZ ; CSTLogger::PutLogQueue
  001f1	83 c4 1c	 add	 esp, 28			; 0000001cH
$LN1@TimeProc:

; 547  : 		}
; 548  : 	}
; 549  : }

  001f4	52		 push	 edx
  001f5	8b cd		 mov	 ecx, ebp
  001f7	50		 push	 eax
  001f8	8d 15 00 00 00
	00		 lea	 edx, DWORD PTR $LN16@TimeProc
  001fe	e8 00 00 00 00	 call	 @_RTC_CheckStackVars@8
  00203	58		 pop	 eax
  00204	5a		 pop	 edx
  00205	5f		 pop	 edi
  00206	5e		 pop	 esi
  00207	8b 4d fc	 mov	 ecx, DWORD PTR __$ArrayPad$[ebp]
  0020a	33 cd		 xor	 ecx, ebp
  0020c	e8 00 00 00 00	 call	 @__security_check_cookie@4
  00211	81 c4 8c 00 00
	00		 add	 esp, 140		; 0000008cH
  00217	3b ec		 cmp	 ebp, esp
  00219	e8 00 00 00 00	 call	 __RTC_CheckEsp
  0021e	8b e5		 mov	 esp, ebp
  00220	5d		 pop	 ebp
  00221	c2 04 00	 ret	 4
$LN16@TimeProc:
  00224	01 00 00 00	 DD	 1
  00228	00 00 00 00	 DD	 $LN15@TimeProc
$LN15@TimeProc:
  0022c	80 ff ff ff	 DD	 -128			; ffffff80H
  00230	74 00 00 00	 DD	 116			; 00000074H
  00234	00 00 00 00	 DD	 $LN14@TimeProc
$LN14@TimeProc:
  00238	6c		 DB	 108			; 0000006cH
  00239	74		 DB	 116			; 00000074H
  0023a	6d		 DB	 109			; 0000006dH
  0023b	00		 DB	 0
?TimeProc@CSTLogger@@QAEXPAVCDateTime@@@Z ENDP		; CSTLogger::TimeProc
_TEXT	ENDS
; Function compile flags: /Odtp /RTCsu
; File d:\newproject2\com\src\comstlogger.cpp
_TEXT	SEGMENT
_this$ = -4						; size = 4
_pfDC$ = 8						; size = 4
_pObj$ = 12						; size = 4
?setPFProcessDataFromQueue@CSTLogger@@QAEXP6AXPAX0@Z0@Z PROC ; CSTLogger::setPFProcessDataFromQueue
; _this$ = ecx

; 114  : {

  00000	55		 push	 ebp
  00001	8b ec		 mov	 ebp, esp
  00003	51		 push	 ecx
  00004	c7 45 fc cc cc
	cc cc		 mov	 DWORD PTR [ebp-4], -858993460 ; ccccccccH
  0000b	89 4d fc	 mov	 DWORD PTR _this$[ebp], ecx

; 115  : 	m_pfProcessDataFromQueue=pfDC; 

  0000e	8b 45 fc	 mov	 eax, DWORD PTR _this$[ebp]
  00011	8b 4d 08	 mov	 ecx, DWORD PTR _pfDC$[ebp]
  00014	89 48 08	 mov	 DWORD PTR [eax+8], ecx

; 116  : 	m_nObj=pObj; 

  00017	8b 55 fc	 mov	 edx, DWORD PTR _this$[ebp]
  0001a	8b 45 0c	 mov	 eax, DWORD PTR _pObj$[ebp]
  0001d	89 42 30	 mov	 DWORD PTR [edx+48], eax

; 117  : 	m_nFlag |= IS_ACTIVE_PUT_QUEUE;

  00020	8b 4d fc	 mov	 ecx, DWORD PTR _this$[ebp]
  00023	8b 51 20	 mov	 edx, DWORD PTR [ecx+32]
  00026	83 ca 04	 or	 edx, 4
  00029	8b 45 fc	 mov	 eax, DWORD PTR _this$[ebp]
  0002c	89 50 20	 mov	 DWORD PTR [eax+32], edx

; 118  : }

  0002f	8b e5		 mov	 esp, ebp
  00031	5d		 pop	 ebp
  00032	c2 08 00	 ret	 8
?setPFProcessDataFromQueue@CSTLogger@@QAEXP6AXPAX0@Z0@Z ENDP ; CSTLogger::setPFProcessDataFromQueue
_TEXT	ENDS
; Function compile flags: /Odtp /RTCsu
; File d:\newproject2\com\src\comstlogger.cpp
_TEXT	SEGMENT
_this$ = -4						; size = 4
_pfDC$ = 8						; size = 4
?setPFHourChange@CSTLogger@@QAEXP6AXH@Z@Z PROC		; CSTLogger::setPFHourChange
; _this$ = ecx

; 110  : { 

  00000	55		 push	 ebp
  00001	8b ec		 mov	 ebp, esp
  00003	51		 push	 ecx
  00004	c7 45 fc cc cc
	cc cc		 mov	 DWORD PTR [ebp-4], -858993460 ; ccccccccH
  0000b	89 4d fc	 mov	 DWORD PTR _this$[ebp], ecx

; 111  : 	m_pfHourChange = pfDC;

  0000e	8b 45 fc	 mov	 eax, DWORD PTR _this$[ebp]
  00011	8b 4d 08	 mov	 ecx, DWORD PTR _pfDC$[ebp]
  00014	89 48 04	 mov	 DWORD PTR [eax+4], ecx

; 112  : }

  00017	8b e5		 mov	 esp, ebp
  00019	5d		 pop	 ebp
  0001a	c2 04 00	 ret	 4
?setPFHourChange@CSTLogger@@QAEXP6AXH@Z@Z ENDP		; CSTLogger::setPFHourChange
_TEXT	ENDS
; Function compile flags: /Odtp /RTCsu
; File d:\newproject2\com\src\comstlogger.cpp
_TEXT	SEGMENT
_this$ = -4						; size = 4
_pfDC$ = 8						; size = 4
?setPFDayChange@CSTLogger@@QAEXP6AXH@Z@Z PROC		; CSTLogger::setPFDayChange
; _this$ = ecx

; 106  : { 

  00000	55		 push	 ebp
  00001	8b ec		 mov	 ebp, esp
  00003	51		 push	 ecx
  00004	c7 45 fc cc cc
	cc cc		 mov	 DWORD PTR [ebp-4], -858993460 ; ccccccccH
  0000b	89 4d fc	 mov	 DWORD PTR _this$[ebp], ecx

; 107  : 	m_pfDayChange = pfDC; 

  0000e	8b 45 fc	 mov	 eax, DWORD PTR _this$[ebp]
  00011	8b 4d 08	 mov	 ecx, DWORD PTR _pfDC$[ebp]
  00014	89 08		 mov	 DWORD PTR [eax], ecx

; 108  : }

  00016	8b e5		 mov	 esp, ebp
  00018	5d		 pop	 ebp
  00019	c2 04 00	 ret	 4
?setPFDayChange@CSTLogger@@QAEXP6AXH@Z@Z ENDP		; CSTLogger::setPFDayChange
_TEXT	ENDS
; Function compile flags: /Odtp /RTCsu
; File d:\newproject2\com\src\comstlogger.cpp
_TEXT	SEGMENT
_pBasic$ = -4						; size = 4
_ptr$ = 8						; size = 4
?LogThread@CSTLogger@@SGKPAX@Z PROC			; CSTLogger::LogThread

; 488  : {

  00000	55		 push	 ebp
  00001	8b ec		 mov	 ebp, esp
  00003	51		 push	 ecx
  00004	c7 45 fc cc cc
	cc cc		 mov	 DWORD PTR [ebp-4], -858993460 ; ccccccccH

; 489  : 	//pthread_detach(pthread_self());	
; 490  : 	CSTLogger *pBasic = (CSTLogger *)ptr;

  0000b	8b 45 08	 mov	 eax, DWORD PTR _ptr$[ebp]
  0000e	89 45 fc	 mov	 DWORD PTR _pBasic$[ebp], eax
$LN2@LogThread:

; 491  : 
; 492  : 	while (!pBasic->m_bQuit) 

  00011	8b 4d fc	 mov	 ecx, DWORD PTR _pBasic$[ebp]
  00014	0f b6 51 10	 movzx	 edx, BYTE PTR [ecx+16]
  00018	85 d2		 test	 edx, edx
  0001a	75 39		 jne	 SHORT $LN3@LogThread

; 493  : 	{
; 494  : 		pBasic->m_thCondLog.wait(INFINITE, NULL);	// -1 : INFINITE

  0001c	6a 00		 push	 0
  0001e	6a ff		 push	 -1
  00020	8b 4d fc	 mov	 ecx, DWORD PTR _pBasic$[ebp]
  00023	83 c1 44	 add	 ecx, 68			; 00000044H
  00026	e8 00 00 00 00	 call	 ?wait@condition@win32@common@@QAE_NHPAVcritical_section@23@@Z ; common::win32::condition::wait

; 495  : 		
; 496  : 		// date 변경 체크
; 497  : 		if(pBasic->m_nFlag & IS_ACTIVE_TIMEPROC_INTHREAD) pBasic->TimeProc();

  0002b	8b 45 fc	 mov	 eax, DWORD PTR _pBasic$[ebp]
  0002e	8b 48 20	 mov	 ecx, DWORD PTR [eax+32]
  00031	83 e1 08	 and	 ecx, 8
  00034	74 0a		 je	 SHORT $LN4@LogThread
  00036	6a 00		 push	 0
  00038	8b 4d fc	 mov	 ecx, DWORD PTR _pBasic$[ebp]
  0003b	e8 00 00 00 00	 call	 ?TimeProc@CSTLogger@@QAEXPAVCDateTime@@@Z ; CSTLogger::TimeProc
$LN4@LogThread:

; 498  : 		if(pBasic->m_nFlag & IS_ACTIVE_PUT_QUEUE) pBasic->GetQueue();

  00040	8b 55 fc	 mov	 edx, DWORD PTR _pBasic$[ebp]
  00043	8b 42 20	 mov	 eax, DWORD PTR [edx+32]
  00046	83 e0 04	 and	 eax, 4
  00049	74 08		 je	 SHORT $LN5@LogThread
  0004b	8b 4d fc	 mov	 ecx, DWORD PTR _pBasic$[ebp]
  0004e	e8 00 00 00 00	 call	 ?GetQueue@CSTLogger@@QAEXXZ ; CSTLogger::GetQueue
$LN5@LogThread:

; 499  : 	}

  00053	eb bc		 jmp	 SHORT $LN2@LogThread
$LN3@LogThread:

; 500  : 
; 501  : 	return 0;

  00055	33 c0		 xor	 eax, eax

; 502  : }

  00057	83 c4 04	 add	 esp, 4
  0005a	3b ec		 cmp	 ebp, esp
  0005c	e8 00 00 00 00	 call	 __RTC_CheckEsp
  00061	8b e5		 mov	 esp, ebp
  00063	5d		 pop	 ebp
  00064	c2 04 00	 ret	 4
?LogThread@CSTLogger@@SGKPAX@Z ENDP			; CSTLogger::LogThread
_TEXT	ENDS
; Function compile flags: /Odtp /RTCsu
; File d:\newproject2\com\src\comstlogger.cpp
_TEXT	SEGMENT
_nLen$1 = -20						; size = 4
_pData$ = -16						; size = 4
_i$ = -12						; size = 4
_nCount$ = -8						; size = 4
_this$ = -4						; size = 4
?GetQueue@CSTLogger@@QAEXXZ PROC			; CSTLogger::GetQueue
; _this$ = ecx

; 465  : {

  00000	55		 push	 ebp
  00001	8b ec		 mov	 ebp, esp
  00003	83 ec 14	 sub	 esp, 20			; 00000014H
  00006	56		 push	 esi
  00007	b8 cc cc cc cc	 mov	 eax, -858993460		; ccccccccH
  0000c	89 45 ec	 mov	 DWORD PTR [ebp-20], eax
  0000f	89 45 f0	 mov	 DWORD PTR [ebp-16], eax
  00012	89 45 f4	 mov	 DWORD PTR [ebp-12], eax
  00015	89 45 f8	 mov	 DWORD PTR [ebp-8], eax
  00018	89 45 fc	 mov	 DWORD PTR [ebp-4], eax
  0001b	89 4d fc	 mov	 DWORD PTR _this$[ebp], ecx

; 466  :  	int nCount,i;
; 467  : 	TCHAR *pData;
; 468  : 	nCount = m_sLogQueue.size();

  0001e	8b 4d fc	 mov	 ecx, DWORD PTR _this$[ebp]
  00021	83 c1 34	 add	 ecx, 52			; 00000034H
  00024	e8 00 00 00 00	 call	 ?size@StCOMQueue@@QAEHXZ ; StCOMQueue::size
  00029	89 45 f8	 mov	 DWORD PTR _nCount$[ebp], eax

; 469  : 	for(i=0; i < nCount; i++)

  0002c	c7 45 f4 00 00
	00 00		 mov	 DWORD PTR _i$[ebp], 0
  00033	eb 09		 jmp	 SHORT $LN4@GetQueue
$LN2@GetQueue:
  00035	8b 45 f4	 mov	 eax, DWORD PTR _i$[ebp]
  00038	83 c0 01	 add	 eax, 1
  0003b	89 45 f4	 mov	 DWORD PTR _i$[ebp], eax
$LN4@GetQueue:
  0003e	8b 4d f4	 mov	 ecx, DWORD PTR _i$[ebp]
  00041	3b 4d f8	 cmp	 ecx, DWORD PTR _nCount$[ebp]
  00044	0f 8d 81 00 00
	00		 jge	 $LN1@GetQueue

; 470  : 	{
; 471  : 		pData = (TCHAR *)m_sLogQueue.front();

  0004a	8b 4d fc	 mov	 ecx, DWORD PTR _this$[ebp]
  0004d	83 c1 34	 add	 ecx, 52			; 00000034H
  00050	e8 00 00 00 00	 call	 ?front@StCOMQueue@@QAEPAXXZ ; StCOMQueue::front
  00055	89 45 f0	 mov	 DWORD PTR _pData$[ebp], eax

; 472  : 		if(pData)

  00058	83 7d f0 00	 cmp	 DWORD PTR _pData$[ebp], 0
  0005c	74 68		 je	 SHORT $LN5@GetQueue

; 473  : 		{
; 474  : 			m_sLogQueue.pop();

  0005e	8b 4d fc	 mov	 ecx, DWORD PTR _this$[ebp]
  00061	83 c1 34	 add	 ecx, 52			; 00000034H
  00064	e8 00 00 00 00	 call	 ?pop@StCOMQueue@@QAEXXZ	; StCOMQueue::pop

; 475  : 			int nLen = _tcslen(pData) + 1;

  00069	8b 55 f0	 mov	 edx, DWORD PTR _pData$[ebp]
  0006c	52		 push	 edx
  0006d	e8 00 00 00 00	 call	 _strlen
  00072	83 c4 04	 add	 esp, 4
  00075	83 c0 01	 add	 eax, 1
  00078	89 45 ec	 mov	 DWORD PTR _nLen$1[ebp], eax

; 476  : 			if(m_pfProcessDataFromQueue) m_pfProcessDataFromQueue(pData, m_nObj);

  0007b	8b 45 fc	 mov	 eax, DWORD PTR _this$[ebp]
  0007e	83 78 08 00	 cmp	 DWORD PTR [eax+8], 0
  00082	74 21		 je	 SHORT $LN6@GetQueue
  00084	8b f4		 mov	 esi, esp
  00086	8b 4d fc	 mov	 ecx, DWORD PTR _this$[ebp]
  00089	8b 51 30	 mov	 edx, DWORD PTR [ecx+48]
  0008c	52		 push	 edx
  0008d	8b 45 f0	 mov	 eax, DWORD PTR _pData$[ebp]
  00090	50		 push	 eax
  00091	8b 4d fc	 mov	 ecx, DWORD PTR _this$[ebp]
  00094	8b 51 08	 mov	 edx, DWORD PTR [ecx+8]
  00097	ff d2		 call	 edx
  00099	83 c4 08	 add	 esp, 8
  0009c	3b f4		 cmp	 esi, esp
  0009e	e8 00 00 00 00	 call	 __RTC_CheckEsp
  000a3	eb 0f		 jmp	 SHORT $LN7@GetQueue
$LN6@GetQueue:

; 477  : 			else m_pLogger->LogPrint(pData);

  000a5	8b 45 f0	 mov	 eax, DWORD PTR _pData$[ebp]
  000a8	50		 push	 eax
  000a9	8b 4d fc	 mov	 ecx, DWORD PTR _this$[ebp]
  000ac	8b 49 0c	 mov	 ecx, DWORD PTR [ecx+12]
  000af	e8 00 00 00 00	 call	 ?LogPrint@CLogger@@QAEXPAD@Z ; CLogger::LogPrint
$LN7@GetQueue:

; 478  : 			g_cMMgr.delBuf(pData,nLen);

  000b4	8b 55 ec	 mov	 edx, DWORD PTR _nLen$1[ebp]
  000b7	52		 push	 edx
  000b8	8b 45 f0	 mov	 eax, DWORD PTR _pData$[ebp]
  000bb	50		 push	 eax
  000bc	b9 00 00 00 00	 mov	 ecx, OFFSET ?g_cMMgr@@3VCMemManager@@A ; g_cMMgr
  000c1	e8 00 00 00 00	 call	 ?delBuf@CMemManager@@QAEXPADI@Z ; CMemManager::delBuf
$LN5@GetQueue:

; 479  : 		}
; 480  : 	}

  000c6	e9 6a ff ff ff	 jmp	 $LN2@GetQueue
$LN1@GetQueue:

; 481  : }

  000cb	5e		 pop	 esi
  000cc	83 c4 14	 add	 esp, 20			; 00000014H
  000cf	3b ec		 cmp	 ebp, esp
  000d1	e8 00 00 00 00	 call	 __RTC_CheckEsp
  000d6	8b e5		 mov	 esp, ebp
  000d8	5d		 pop	 ebp
  000d9	c3		 ret	 0
?GetQueue@CSTLogger@@QAEXXZ ENDP			; CSTLogger::GetQueue
_TEXT	ENDS
; Function compile flags: /Odtp /RTCsu
; File d:\newproject2\com\src\comstlogger.cpp
_TEXT	SEGMENT
_ap$ = -236						; size = 4
_pBuf$ = -232						; size = 4
_nIdx$ = -224						; size = 4
_nLen2$ = -216						; size = 4
_tmpBuf$ = -208						; size = 64
_curTm$ = -136						; size = 116
__$ArrayPad$ = -16					; size = 4
__$EHRec$ = -12						; size = 12
_this$ = 8						; size = 4
_nLevel$ = 12						; size = 4
_nLen$ = 16						; size = 4
_fmt$ = 20						; size = 4
?PutLogQueueL@CSTLogger@@QAAXHHPBDZZ PROC		; CSTLogger::PutLogQueueL

; 281  : {

  00000	55		 push	 ebp
  00001	8b ec		 mov	 ebp, esp
  00003	6a ff		 push	 -1
  00005	68 00 00 00 00	 push	 __ehhandler$?PutLogQueueL@CSTLogger@@QAAXHHPBDZZ
  0000a	64 a1 00 00 00
	00		 mov	 eax, DWORD PTR fs:0
  00010	50		 push	 eax
  00011	81 ec e0 00 00
	00		 sub	 esp, 224		; 000000e0H
  00017	57		 push	 edi
  00018	8d bd 14 ff ff
	ff		 lea	 edi, DWORD PTR [ebp-236]
  0001e	b9 38 00 00 00	 mov	 ecx, 56			; 00000038H
  00023	b8 cc cc cc cc	 mov	 eax, -858993460		; ccccccccH
  00028	f3 ab		 rep stosd
  0002a	a1 00 00 00 00	 mov	 eax, DWORD PTR ___security_cookie
  0002f	33 c5		 xor	 eax, ebp
  00031	89 45 f0	 mov	 DWORD PTR __$ArrayPad$[ebp], eax
  00034	50		 push	 eax
  00035	8d 45 f4	 lea	 eax, DWORD PTR __$EHRec$[ebp]
  00038	64 a3 00 00 00
	00		 mov	 DWORD PTR fs:0, eax

; 282  : 	if (!(m_nFlag & IS_ACTIVE_PUT_QUEUE)) return;

  0003e	8b 45 08	 mov	 eax, DWORD PTR _this$[ebp]
  00041	8b 48 20	 mov	 ecx, DWORD PTR [eax+32]
  00044	83 e1 04	 and	 ecx, 4
  00047	75 05		 jne	 SHORT $LN2@PutLogQueu
  00049	e9 12 01 00 00	 jmp	 $LN1@PutLogQueu
$LN2@PutLogQueu:

; 283  : 	if (nLevel < m_nLogLevel) return;

  0004e	8b 55 08	 mov	 edx, DWORD PTR _this$[ebp]
  00051	8b 45 0c	 mov	 eax, DWORD PTR _nLevel$[ebp]
  00054	3b 42 14	 cmp	 eax, DWORD PTR [edx+20]
  00057	7d 05		 jge	 SHORT $LN3@PutLogQueu
  00059	e9 02 01 00 00	 jmp	 $LN1@PutLogQueu
$LN3@PutLogQueu:

; 284  : 
; 285  : 	CDateTime	curTm;

  0005e	8d 8d 78 ff ff
	ff		 lea	 ecx, DWORD PTR _curTm$[ebp]
  00064	e8 00 00 00 00	 call	 ??0CDateTime@@QAE@XZ	; CDateTime::CDateTime
  00069	c7 45 fc 00 00
	00 00		 mov	 DWORD PTR __$EHRec$[ebp+8], 0

; 286  : 	TCHAR    tmpBuf[LEN_LOG_HEADER];
; 287  : 
; 288  : 	int nLen2 = _stprintf(tmpBuf, _T("[%s %s] %s"), curTm.DateString2(), curTm.TimeString3(), gs_fmtStr[nLevel]);

  00070	8b 4d 0c	 mov	 ecx, DWORD PTR _nLevel$[ebp]
  00073	8b 14 8d 00 00
	00 00		 mov	 edx, DWORD PTR ?gs_fmtStr@@3PAPBDA[ecx*4]
  0007a	52		 push	 edx
  0007b	8d 8d 78 ff ff
	ff		 lea	 ecx, DWORD PTR _curTm$[ebp]
  00081	e8 00 00 00 00	 call	 ?TimeString3@CDateTime@@QAEPBDXZ ; CDateTime::TimeString3
  00086	50		 push	 eax
  00087	8d 8d 78 ff ff
	ff		 lea	 ecx, DWORD PTR _curTm$[ebp]
  0008d	e8 00 00 00 00	 call	 ?DateString2@CDateTime@@QAEPBDXZ ; CDateTime::DateString2
  00092	50		 push	 eax
  00093	68 00 00 00 00	 push	 OFFSET $SG44537
  00098	8d 85 30 ff ff
	ff		 lea	 eax, DWORD PTR _tmpBuf$[ebp]
  0009e	50		 push	 eax
  0009f	e8 00 00 00 00	 call	 _sprintf
  000a4	83 c4 14	 add	 esp, 20			; 00000014H
  000a7	89 85 28 ff ff
	ff		 mov	 DWORD PTR _nLen2$[ebp], eax

; 289  : 	int nIdx;
; 290  : 	TCHAR *pBuf = (TCHAR *)g_cMMgr.newBuf(nLen2+nLen+2, &nIdx);

  000ad	8d 8d 20 ff ff
	ff		 lea	 ecx, DWORD PTR _nIdx$[ebp]
  000b3	51		 push	 ecx
  000b4	8b 55 10	 mov	 edx, DWORD PTR _nLen$[ebp]
  000b7	8b 85 28 ff ff
	ff		 mov	 eax, DWORD PTR _nLen2$[ebp]
  000bd	8d 4c 10 02	 lea	 ecx, DWORD PTR [eax+edx+2]
  000c1	51		 push	 ecx
  000c2	b9 00 00 00 00	 mov	 ecx, OFFSET ?g_cMMgr@@3VCMemManager@@A ; g_cMMgr
  000c7	e8 00 00 00 00	 call	 ?newBuf@CMemManager@@QAEPADIPAH@Z ; CMemManager::newBuf
  000cc	89 85 18 ff ff
	ff		 mov	 DWORD PTR _pBuf$[ebp], eax

; 291  : 	_tcscpy(pBuf, tmpBuf);

  000d2	8d 95 30 ff ff
	ff		 lea	 edx, DWORD PTR _tmpBuf$[ebp]
  000d8	52		 push	 edx
  000d9	8b 85 18 ff ff
	ff		 mov	 eax, DWORD PTR _pBuf$[ebp]
  000df	50		 push	 eax
  000e0	e8 00 00 00 00	 call	 _strcpy
  000e5	83 c4 08	 add	 esp, 8

; 292  : 
; 293  : 	va_list	ap;
; 294  : 	va_start(ap, fmt);

  000e8	e8 00 00 00 00	 call	 ??$__vcrt_va_start_verify_argument_type@PBD@@YAXXZ ; __vcrt_va_start_verify_argument_type<char const *>
  000ed	8d 4d 18	 lea	 ecx, DWORD PTR _fmt$[ebp+4]
  000f0	89 8d 14 ff ff
	ff		 mov	 DWORD PTR _ap$[ebp], ecx

; 295  : 	nLen+=_vsntprintf(pBuf+nLen2, nLen + 2, fmt, ap);

  000f6	8b 95 14 ff ff
	ff		 mov	 edx, DWORD PTR _ap$[ebp]
  000fc	52		 push	 edx
  000fd	8b 45 14	 mov	 eax, DWORD PTR _fmt$[ebp]
  00100	50		 push	 eax
  00101	8b 4d 10	 mov	 ecx, DWORD PTR _nLen$[ebp]
  00104	83 c1 02	 add	 ecx, 2
  00107	51		 push	 ecx
  00108	8b 95 18 ff ff
	ff		 mov	 edx, DWORD PTR _pBuf$[ebp]
  0010e	03 95 28 ff ff
	ff		 add	 edx, DWORD PTR _nLen2$[ebp]
  00114	52		 push	 edx
  00115	e8 00 00 00 00	 call	 __vsnprintf
  0011a	83 c4 10	 add	 esp, 16			; 00000010H
  0011d	03 45 10	 add	 eax, DWORD PTR _nLen$[ebp]
  00120	89 45 10	 mov	 DWORD PTR _nLen$[ebp], eax

; 296  : 	va_end(ap);

  00123	c7 85 14 ff ff
	ff 00 00 00 00	 mov	 DWORD PTR _ap$[ebp], 0

; 297  : 	_putLogQueue(NULL, NULL, nLen2+nLen+2, pBuf);

  0012d	8b 85 18 ff ff
	ff		 mov	 eax, DWORD PTR _pBuf$[ebp]
  00133	50		 push	 eax
  00134	8b 4d 10	 mov	 ecx, DWORD PTR _nLen$[ebp]
  00137	8b 95 28 ff ff
	ff		 mov	 edx, DWORD PTR _nLen2$[ebp]
  0013d	8d 44 0a 02	 lea	 eax, DWORD PTR [edx+ecx+2]
  00141	50		 push	 eax
  00142	6a 00		 push	 0
  00144	6a 00		 push	 0
  00146	8b 4d 08	 mov	 ecx, DWORD PTR _this$[ebp]
  00149	e8 00 00 00 00	 call	 ?_putLogQueue@CSTLogger@@AAEXPAD0H0@Z ; CSTLogger::_putLogQueue

; 298  : }

  0014e	c7 45 fc ff ff
	ff ff		 mov	 DWORD PTR __$EHRec$[ebp+8], -1
  00155	8d 8d 78 ff ff
	ff		 lea	 ecx, DWORD PTR _curTm$[ebp]
  0015b	e8 00 00 00 00	 call	 ??1CDateTime@@QAE@XZ	; CDateTime::~CDateTime
$LN1@PutLogQueu:
  00160	52		 push	 edx
  00161	8b cd		 mov	 ecx, ebp
  00163	50		 push	 eax
  00164	8d 15 00 00 00
	00		 lea	 edx, DWORD PTR $LN11@PutLogQueu
  0016a	e8 00 00 00 00	 call	 @_RTC_CheckStackVars@8
  0016f	58		 pop	 eax
  00170	5a		 pop	 edx
  00171	8b 4d f4	 mov	 ecx, DWORD PTR __$EHRec$[ebp]
  00174	64 89 0d 00 00
	00 00		 mov	 DWORD PTR fs:0, ecx
  0017b	59		 pop	 ecx
  0017c	5f		 pop	 edi
  0017d	8b 4d f0	 mov	 ecx, DWORD PTR __$ArrayPad$[ebp]
  00180	33 cd		 xor	 ecx, ebp
  00182	e8 00 00 00 00	 call	 @__security_check_cookie@4
  00187	81 c4 ec 00 00
	00		 add	 esp, 236		; 000000ecH
  0018d	3b ec		 cmp	 ebp, esp
  0018f	e8 00 00 00 00	 call	 __RTC_CheckEsp
  00194	8b e5		 mov	 esp, ebp
  00196	5d		 pop	 ebp
  00197	c3		 ret	 0
$LN11@PutLogQueu:
  00198	03 00 00 00	 DD	 3
  0019c	00 00 00 00	 DD	 $LN10@PutLogQueu
$LN10@PutLogQueu:
  001a0	78 ff ff ff	 DD	 -136			; ffffff78H
  001a4	74 00 00 00	 DD	 116			; 00000074H
  001a8	00 00 00 00	 DD	 $LN6@PutLogQueu
  001ac	30 ff ff ff	 DD	 -208			; ffffff30H
  001b0	40 00 00 00	 DD	 64			; 00000040H
  001b4	00 00 00 00	 DD	 $LN7@PutLogQueu
  001b8	20 ff ff ff	 DD	 -224			; ffffff20H
  001bc	04 00 00 00	 DD	 4
  001c0	00 00 00 00	 DD	 $LN8@PutLogQueu
$LN8@PutLogQueu:
  001c4	6e		 DB	 110			; 0000006eH
  001c5	49		 DB	 73			; 00000049H
  001c6	64		 DB	 100			; 00000064H
  001c7	78		 DB	 120			; 00000078H
  001c8	00		 DB	 0
$LN7@PutLogQueu:
  001c9	74		 DB	 116			; 00000074H
  001ca	6d		 DB	 109			; 0000006dH
  001cb	70		 DB	 112			; 00000070H
  001cc	42		 DB	 66			; 00000042H
  001cd	75		 DB	 117			; 00000075H
  001ce	66		 DB	 102			; 00000066H
  001cf	00		 DB	 0
$LN6@PutLogQueu:
  001d0	63		 DB	 99			; 00000063H
  001d1	75		 DB	 117			; 00000075H
  001d2	72		 DB	 114			; 00000072H
  001d3	54		 DB	 84			; 00000054H
  001d4	6d		 DB	 109			; 0000006dH
  001d5	00		 DB	 0
_TEXT	ENDS
text$x	SEGMENT
__unwindfunclet$?PutLogQueueL@CSTLogger@@QAAXHHPBDZZ$0:
  00000	8d 8d 78 ff ff
	ff		 lea	 ecx, DWORD PTR _curTm$[ebp]
  00006	e9 00 00 00 00	 jmp	 ??1CDateTime@@QAE@XZ	; CDateTime::~CDateTime
__ehhandler$?PutLogQueueL@CSTLogger@@QAAXHHPBDZZ:
  0000b	8b 54 24 08	 mov	 edx, DWORD PTR [esp+8]
  0000f	8d 42 0c	 lea	 eax, DWORD PTR [edx+12]
  00012	8b 8a 18 ff ff
	ff		 mov	 ecx, DWORD PTR [edx-232]
  00018	33 c8		 xor	 ecx, eax
  0001a	e8 00 00 00 00	 call	 @__security_check_cookie@4
  0001f	8b 4a fc	 mov	 ecx, DWORD PTR [edx-4]
  00022	33 c8		 xor	 ecx, eax
  00024	e8 00 00 00 00	 call	 @__security_check_cookie@4
  00029	b8 00 00 00 00	 mov	 eax, OFFSET __ehfuncinfo$?PutLogQueueL@CSTLogger@@QAAXHHPBDZZ
  0002e	e9 00 00 00 00	 jmp	 ___CxxFrameHandler3
text$x	ENDS
?PutLogQueueL@CSTLogger@@QAAXHHPBDZZ ENDP		; CSTLogger::PutLogQueueL
; Function compile flags: /Odtp /RTCsu
; File d:\newproject2\com\src\comstlogger.cpp
_TEXT	SEGMENT
_ap$ = -4324						; size = 4
_msgBuf$ = -4316					; size = 4096
_nLen$ = -216						; size = 4
_tmpBuf$ = -208						; size = 64
_curTm$ = -136						; size = 116
__$ArrayPad$ = -16					; size = 4
__$EHRec$ = -12						; size = 12
_this$ = 8						; size = 4
_nLevel$ = 12						; size = 4
_fmt$ = 16						; size = 4
?PutLogQueue@CSTLogger@@QAAXHPBDZZ PROC			; CSTLogger::PutLogQueue

; 258  : {

  00000	55		 push	 ebp
  00001	8b ec		 mov	 ebp, esp
  00003	6a ff		 push	 -1
  00005	68 00 00 00 00	 push	 __ehhandler$?PutLogQueue@CSTLogger@@QAAXHPBDZZ
  0000a	64 a1 00 00 00
	00		 mov	 eax, DWORD PTR fs:0
  00010	50		 push	 eax
  00011	b8 d8 10 00 00	 mov	 eax, 4312		; 000010d8H
  00016	e8 00 00 00 00	 call	 __chkstk
  0001b	57		 push	 edi
  0001c	8d bd 1c ef ff
	ff		 lea	 edi, DWORD PTR [ebp-4324]
  00022	b9 36 04 00 00	 mov	 ecx, 1078		; 00000436H
  00027	b8 cc cc cc cc	 mov	 eax, -858993460		; ccccccccH
  0002c	f3 ab		 rep stosd
  0002e	a1 00 00 00 00	 mov	 eax, DWORD PTR ___security_cookie
  00033	33 c5		 xor	 eax, ebp
  00035	89 45 f0	 mov	 DWORD PTR __$ArrayPad$[ebp], eax
  00038	50		 push	 eax
  00039	8d 45 f4	 lea	 eax, DWORD PTR __$EHRec$[ebp]
  0003c	64 a3 00 00 00
	00		 mov	 DWORD PTR fs:0, eax

; 259  : 	if(!(m_nFlag & IS_ACTIVE_PUT_QUEUE)) return ;

  00042	8b 45 08	 mov	 eax, DWORD PTR _this$[ebp]
  00045	8b 48 20	 mov	 ecx, DWORD PTR [eax+32]
  00048	83 e1 04	 and	 ecx, 4
  0004b	75 05		 jne	 SHORT $LN2@PutLogQueu
  0004d	e9 e9 00 00 00	 jmp	 $LN1@PutLogQueu
$LN2@PutLogQueu:

; 260  : 	if(nLevel < m_nLogLevel) return;

  00052	8b 55 08	 mov	 edx, DWORD PTR _this$[ebp]
  00055	8b 45 0c	 mov	 eax, DWORD PTR _nLevel$[ebp]
  00058	3b 42 14	 cmp	 eax, DWORD PTR [edx+20]
  0005b	7d 05		 jge	 SHORT $LN3@PutLogQueu
  0005d	e9 d9 00 00 00	 jmp	 $LN1@PutLogQueu
$LN3@PutLogQueu:

; 261  : 
; 262  :  	CDateTime	curTm;

  00062	8d 8d 78 ff ff
	ff		 lea	 ecx, DWORD PTR _curTm$[ebp]
  00068	e8 00 00 00 00	 call	 ??0CDateTime@@QAE@XZ	; CDateTime::CDateTime
  0006d	c7 45 fc 00 00
	00 00		 mov	 DWORD PTR __$EHRec$[ebp+8], 0

; 263  : 	TCHAR    tmpBuf[LEN_LOG_HEADER];
; 264  : 
; 265  : 
; 266  : 	int nLen = _stprintf(tmpBuf, _T("[%s %s] %s"),curTm.DateString2(),curTm.TimeString3(), gs_fmtStr[nLevel]);

  00074	8b 4d 0c	 mov	 ecx, DWORD PTR _nLevel$[ebp]
  00077	8b 14 8d 00 00
	00 00		 mov	 edx, DWORD PTR ?gs_fmtStr@@3PAPBDA[ecx*4]
  0007e	52		 push	 edx
  0007f	8d 8d 78 ff ff
	ff		 lea	 ecx, DWORD PTR _curTm$[ebp]
  00085	e8 00 00 00 00	 call	 ?TimeString3@CDateTime@@QAEPBDXZ ; CDateTime::TimeString3
  0008a	50		 push	 eax
  0008b	8d 8d 78 ff ff
	ff		 lea	 ecx, DWORD PTR _curTm$[ebp]
  00091	e8 00 00 00 00	 call	 ?DateString2@CDateTime@@QAEPBDXZ ; CDateTime::DateString2
  00096	50		 push	 eax
  00097	68 00 00 00 00	 push	 OFFSET $SG44512
  0009c	8d 85 30 ff ff
	ff		 lea	 eax, DWORD PTR _tmpBuf$[ebp]
  000a2	50		 push	 eax
  000a3	e8 00 00 00 00	 call	 _sprintf
  000a8	83 c4 14	 add	 esp, 20			; 00000014H
  000ab	89 85 28 ff ff
	ff		 mov	 DWORD PTR _nLen$[ebp], eax

; 267  : 
; 268  : 	TCHAR	msgBuf[MAX_LOGBUF_LEN];
; 269  : 	memset(msgBuf, 0, MAX_LOGBUF_LEN);

  000b1	68 00 10 00 00	 push	 4096			; 00001000H
  000b6	6a 00		 push	 0
  000b8	8d 8d 24 ef ff
	ff		 lea	 ecx, DWORD PTR _msgBuf$[ebp]
  000be	51		 push	 ecx
  000bf	e8 00 00 00 00	 call	 _memset
  000c4	83 c4 0c	 add	 esp, 12			; 0000000cH

; 270  : 	va_list	ap;
; 271  : 	va_start(ap, fmt);

  000c7	e8 00 00 00 00	 call	 ??$__vcrt_va_start_verify_argument_type@PBD@@YAXXZ ; __vcrt_va_start_verify_argument_type<char const *>
  000cc	8d 55 14	 lea	 edx, DWORD PTR _fmt$[ebp+4]
  000cf	89 95 1c ef ff
	ff		 mov	 DWORD PTR _ap$[ebp], edx

; 272  : 
; 273  : 	nLen+=_vsntprintf(msgBuf, MAX_LOGBUF_LEN-1, fmt, ap);

  000d5	8b 85 1c ef ff
	ff		 mov	 eax, DWORD PTR _ap$[ebp]
  000db	50		 push	 eax
  000dc	8b 4d 10	 mov	 ecx, DWORD PTR _fmt$[ebp]
  000df	51		 push	 ecx
  000e0	68 ff 0f 00 00	 push	 4095			; 00000fffH
  000e5	8d 95 24 ef ff
	ff		 lea	 edx, DWORD PTR _msgBuf$[ebp]
  000eb	52		 push	 edx
  000ec	e8 00 00 00 00	 call	 __vsnprintf
  000f1	83 c4 10	 add	 esp, 16			; 00000010H
  000f4	03 85 28 ff ff
	ff		 add	 eax, DWORD PTR _nLen$[ebp]
  000fa	89 85 28 ff ff
	ff		 mov	 DWORD PTR _nLen$[ebp], eax

; 274  : 	va_end(ap);

  00100	c7 85 1c ef ff
	ff 00 00 00 00	 mov	 DWORD PTR _ap$[ebp], 0

; 275  : 
; 276  :     _putLogQueue(tmpBuf, msgBuf,nLen);

  0010a	6a 00		 push	 0
  0010c	8b 85 28 ff ff
	ff		 mov	 eax, DWORD PTR _nLen$[ebp]
  00112	50		 push	 eax
  00113	8d 8d 24 ef ff
	ff		 lea	 ecx, DWORD PTR _msgBuf$[ebp]
  00119	51		 push	 ecx
  0011a	8d 95 30 ff ff
	ff		 lea	 edx, DWORD PTR _tmpBuf$[ebp]
  00120	52		 push	 edx
  00121	8b 4d 08	 mov	 ecx, DWORD PTR _this$[ebp]
  00124	e8 00 00 00 00	 call	 ?_putLogQueue@CSTLogger@@AAEXPAD0H0@Z ; CSTLogger::_putLogQueue

; 277  : 
; 278  : }

  00129	c7 45 fc ff ff
	ff ff		 mov	 DWORD PTR __$EHRec$[ebp+8], -1
  00130	8d 8d 78 ff ff
	ff		 lea	 ecx, DWORD PTR _curTm$[ebp]
  00136	e8 00 00 00 00	 call	 ??1CDateTime@@QAE@XZ	; CDateTime::~CDateTime
$LN1@PutLogQueu:
  0013b	52		 push	 edx
  0013c	8b cd		 mov	 ecx, ebp
  0013e	50		 push	 eax
  0013f	8d 15 00 00 00
	00		 lea	 edx, DWORD PTR $LN11@PutLogQueu
  00145	e8 00 00 00 00	 call	 @_RTC_CheckStackVars@8
  0014a	58		 pop	 eax
  0014b	5a		 pop	 edx
  0014c	8b 4d f4	 mov	 ecx, DWORD PTR __$EHRec$[ebp]
  0014f	64 89 0d 00 00
	00 00		 mov	 DWORD PTR fs:0, ecx
  00156	59		 pop	 ecx
  00157	5f		 pop	 edi
  00158	8b 4d f0	 mov	 ecx, DWORD PTR __$ArrayPad$[ebp]
  0015b	33 cd		 xor	 ecx, ebp
  0015d	e8 00 00 00 00	 call	 @__security_check_cookie@4
  00162	81 c4 e4 10 00
	00		 add	 esp, 4324		; 000010e4H
  00168	3b ec		 cmp	 ebp, esp
  0016a	e8 00 00 00 00	 call	 __RTC_CheckEsp
  0016f	8b e5		 mov	 esp, ebp
  00171	5d		 pop	 ebp
  00172	c3		 ret	 0
  00173	90		 npad	 1
$LN11@PutLogQueu:
  00174	03 00 00 00	 DD	 3
  00178	00 00 00 00	 DD	 $LN10@PutLogQueu
$LN10@PutLogQueu:
  0017c	78 ff ff ff	 DD	 -136			; ffffff78H
  00180	74 00 00 00	 DD	 116			; 00000074H
  00184	00 00 00 00	 DD	 $LN6@PutLogQueu
  00188	30 ff ff ff	 DD	 -208			; ffffff30H
  0018c	40 00 00 00	 DD	 64			; 00000040H
  00190	00 00 00 00	 DD	 $LN7@PutLogQueu
  00194	24 ef ff ff	 DD	 -4316			; ffffef24H
  00198	00 10 00 00	 DD	 4096			; 00001000H
  0019c	00 00 00 00	 DD	 $LN8@PutLogQueu
$LN8@PutLogQueu:
  001a0	6d		 DB	 109			; 0000006dH
  001a1	73		 DB	 115			; 00000073H
  001a2	67		 DB	 103			; 00000067H
  001a3	42		 DB	 66			; 00000042H
  001a4	75		 DB	 117			; 00000075H
  001a5	66		 DB	 102			; 00000066H
  001a6	00		 DB	 0
$LN7@PutLogQueu:
  001a7	74		 DB	 116			; 00000074H
  001a8	6d		 DB	 109			; 0000006dH
  001a9	70		 DB	 112			; 00000070H
  001aa	42		 DB	 66			; 00000042H
  001ab	75		 DB	 117			; 00000075H
  001ac	66		 DB	 102			; 00000066H
  001ad	00		 DB	 0
$LN6@PutLogQueu:
  001ae	63		 DB	 99			; 00000063H
  001af	75		 DB	 117			; 00000075H
  001b0	72		 DB	 114			; 00000072H
  001b1	54		 DB	 84			; 00000054H
  001b2	6d		 DB	 109			; 0000006dH
  001b3	00		 DB	 0
_TEXT	ENDS
text$x	SEGMENT
__unwindfunclet$?PutLogQueue@CSTLogger@@QAAXHPBDZZ$0:
  00000	8d 8d 78 ff ff
	ff		 lea	 ecx, DWORD PTR _curTm$[ebp]
  00006	e9 00 00 00 00	 jmp	 ??1CDateTime@@QAE@XZ	; CDateTime::~CDateTime
__ehhandler$?PutLogQueue@CSTLogger@@QAAXHPBDZZ:
  0000b	8b 54 24 08	 mov	 edx, DWORD PTR [esp+8]
  0000f	8d 42 0c	 lea	 eax, DWORD PTR [edx+12]
  00012	8b 8a 20 ef ff
	ff		 mov	 ecx, DWORD PTR [edx-4320]
  00018	33 c8		 xor	 ecx, eax
  0001a	e8 00 00 00 00	 call	 @__security_check_cookie@4
  0001f	8b 4a fc	 mov	 ecx, DWORD PTR [edx-4]
  00022	33 c8		 xor	 ecx, eax
  00024	e8 00 00 00 00	 call	 @__security_check_cookie@4
  00029	b8 00 00 00 00	 mov	 eax, OFFSET __ehfuncinfo$?PutLogQueue@CSTLogger@@QAAXHPBDZZ
  0002e	e9 00 00 00 00	 jmp	 ___CxxFrameHandler3
text$x	ENDS
?PutLogQueue@CSTLogger@@QAAXHPBDZZ ENDP			; CSTLogger::PutLogQueue
; Function compile flags: /Odtp /RTCsu
; File d:\newproject2\com\src\comstlogger.cpp
_TEXT	SEGMENT
tv133 = -4376						; size = 4
_len$ = -4372						; size = 4
_nLCompare$ = -4368					; size = 4
_i$ = -4364						; size = 4
_idx$ = -4360						; size = 4
_fmtStr$ = -4352					; size = 20
_tmpBuf$ = -4324					; size = 70
_packetBuf$ = -4244					; size = 4096
_curTm$ = -140						; size = 116
_this$ = -20						; size = 4
__$ArrayPad$ = -16					; size = 4
__$EHRec$ = -12						; size = 12
_nLevel$ = 8						; size = 4
_nKind$ = 12						; size = 4
_nSocket$ = 16						; size = 4
_szBuffer$ = 20						; size = 4
_nPacketSize$ = 24					; size = 4
?DoWritePacket@CSTLogger@@QAEXHHHPADH@Z PROC		; CSTLogger::DoWritePacket
; _this$ = ecx

; 223  : {

  00000	55		 push	 ebp
  00001	8b ec		 mov	 ebp, esp
  00003	6a ff		 push	 -1
  00005	68 00 00 00 00	 push	 __ehhandler$?DoWritePacket@CSTLogger@@QAEXHHHPADH@Z
  0000a	64 a1 00 00 00
	00		 mov	 eax, DWORD PTR fs:0
  00010	50		 push	 eax
  00011	b8 0c 11 00 00	 mov	 eax, 4364		; 0000110cH
  00016	e8 00 00 00 00	 call	 __chkstk
  0001b	57		 push	 edi
  0001c	51		 push	 ecx
  0001d	8d bd e8 ee ff
	ff		 lea	 edi, DWORD PTR [ebp-4376]
  00023	b9 43 04 00 00	 mov	 ecx, 1091		; 00000443H
  00028	b8 cc cc cc cc	 mov	 eax, -858993460		; ccccccccH
  0002d	f3 ab		 rep stosd
  0002f	59		 pop	 ecx
  00030	a1 00 00 00 00	 mov	 eax, DWORD PTR ___security_cookie
  00035	33 c5		 xor	 eax, ebp
  00037	89 45 f0	 mov	 DWORD PTR __$ArrayPad$[ebp], eax
  0003a	50		 push	 eax
  0003b	8d 45 f4	 lea	 eax, DWORD PTR __$EHRec$[ebp]
  0003e	64 a3 00 00 00
	00		 mov	 DWORD PTR fs:0, eax
  00044	89 4d ec	 mov	 DWORD PTR _this$[ebp], ecx

; 224  : 	if(!(m_nFlag & IS_CREATE_LOGGER)) {

  00047	8b 45 ec	 mov	 eax, DWORD PTR _this$[ebp]
  0004a	8b 48 20	 mov	 ecx, DWORD PTR [eax+32]
  0004d	83 e1 02	 and	 ecx, 2
  00050	75 05		 jne	 SHORT $LN4@DoWritePac

; 225  : 		return ;

  00052	e9 bc 01 00 00	 jmp	 $LN1@DoWritePac
$LN4@DoWritePac:

; 226  : 	}
; 227  : 
; 228  : 	if(nLevel < m_nLogLevel) return;

  00057	8b 55 ec	 mov	 edx, DWORD PTR _this$[ebp]
  0005a	8b 45 08	 mov	 eax, DWORD PTR _nLevel$[ebp]
  0005d	3b 42 14	 cmp	 eax, DWORD PTR [edx+20]
  00060	7d 05		 jge	 SHORT $LN5@DoWritePac
  00062	e9 ac 01 00 00	 jmp	 $LN1@DoWritePac
$LN5@DoWritePac:

; 229  : 
; 230  :  	CDateTime curTm;

  00067	8d 8d 74 ff ff
	ff		 lea	 ecx, DWORD PTR _curTm$[ebp]
  0006d	e8 00 00 00 00	 call	 ??0CDateTime@@QAE@XZ	; CDateTime::CDateTime
  00072	c7 45 fc 00 00
	00 00		 mov	 DWORD PTR __$EHRec$[ebp+8], 0

; 231  : 	TCHAR packetBuf[MAX_LOGBUF_LEN];
; 232  : 	TCHAR tmpBuf[70];
; 233  : 	const TCHAR	*fmtStr[5] = {
; 234  : 		_T("[%04d%02d%02d %02d%02d%02d] nSIdx[%d] Send [%d] PKIdx[%d] "),

  00079	c7 85 00 ef ff
	ff 00 00 00 00	 mov	 DWORD PTR _fmtStr$[ebp], OFFSET $SG44479

; 235  : 		_T("[%04d%02d%02d %02d%02d%02d] nSIdx[%d] Recv [%d] PKIdx[%d] "),

  00083	c7 85 04 ef ff
	ff 00 00 00 00	 mov	 DWORD PTR _fmtStr$[ebp+4], OFFSET $SG44480

; 236  : 		_T("[%04d%02d%02d %02d%02d%02d] nSIdx[%d] send Queue [%d] PKIdx[%d] "),

  0008d	c7 85 08 ef ff
	ff 00 00 00 00	 mov	 DWORD PTR _fmtStr$[ebp+8], OFFSET $SG44481

; 237  : 		_T("[%04d%02d%02d %02d%02d%02d] nSIdx[%d] recv Queue [%d] PKIdx[%d] "),

  00097	c7 85 0c ef ff
	ff 00 00 00 00	 mov	 DWORD PTR _fmtStr$[ebp+12], OFFSET $SG44482

; 238  : 		_T("[%04d%02d%02d %02d%02d%02d] Undefind nkind[%d] [%d] PKIdx[%d] ")

  000a1	c7 85 10 ef ff
	ff 00 00 00 00	 mov	 DWORD PTR _fmtStr$[ebp+16], OFFSET $SG44483

; 239  : 	};
; 240  : 
; 241  : 	int	idx, i, nLCompare = MAX_LOGBUF_LEN-4;

  000ab	c7 85 f0 ee ff
	ff fc 0f 00 00	 mov	 DWORD PTR _nLCompare$[ebp], 4092 ; 00000ffcH

; 242  : 
; 243  : 	idx = nKind;

  000b5	8b 4d 0c	 mov	 ecx, DWORD PTR _nKind$[ebp]
  000b8	89 8d f8 ee ff
	ff		 mov	 DWORD PTR _idx$[ebp], ecx

; 244  : 	if (idx < 0 || idx > 4) idx = 4;

  000be	83 bd f8 ee ff
	ff 00		 cmp	 DWORD PTR _idx$[ebp], 0
  000c5	7c 09		 jl	 SHORT $LN7@DoWritePac
  000c7	83 bd f8 ee ff
	ff 04		 cmp	 DWORD PTR _idx$[ebp], 4
  000ce	7e 0a		 jle	 SHORT $LN6@DoWritePac
$LN7@DoWritePac:
  000d0	c7 85 f8 ee ff
	ff 04 00 00 00	 mov	 DWORD PTR _idx$[ebp], 4
$LN6@DoWritePac:

; 245  : 
; 246  : 	int len = _stprintf(tmpBuf, fmtStr[idx], curTm.Year(),curTm.Month(),curTm.Mday(), curTm.Hour(), curTm.Minute(), curTm.Sec(), nSocket, nPacketSize, 0);

  000da	6a 00		 push	 0
  000dc	8b 55 18	 mov	 edx, DWORD PTR _nPacketSize$[ebp]
  000df	52		 push	 edx
  000e0	8b 45 10	 mov	 eax, DWORD PTR _nSocket$[ebp]
  000e3	50		 push	 eax
  000e4	8d 8d 74 ff ff
	ff		 lea	 ecx, DWORD PTR _curTm$[ebp]
  000ea	e8 00 00 00 00	 call	 ?Sec@CDateTime@@QAEHXZ	; CDateTime::Sec
  000ef	50		 push	 eax
  000f0	8d 8d 74 ff ff
	ff		 lea	 ecx, DWORD PTR _curTm$[ebp]
  000f6	e8 00 00 00 00	 call	 ?Minute@CDateTime@@QAEHXZ ; CDateTime::Minute
  000fb	50		 push	 eax
  000fc	8d 8d 74 ff ff
	ff		 lea	 ecx, DWORD PTR _curTm$[ebp]
  00102	e8 00 00 00 00	 call	 ?Hour@CDateTime@@QAEHXZ	; CDateTime::Hour
  00107	50		 push	 eax
  00108	8d 8d 74 ff ff
	ff		 lea	 ecx, DWORD PTR _curTm$[ebp]
  0010e	e8 00 00 00 00	 call	 ?Mday@CDateTime@@QAEHXZ	; CDateTime::Mday
  00113	50		 push	 eax
  00114	8d 8d 74 ff ff
	ff		 lea	 ecx, DWORD PTR _curTm$[ebp]
  0011a	e8 00 00 00 00	 call	 ?Month@CDateTime@@QAEHXZ ; CDateTime::Month
  0011f	50		 push	 eax
  00120	8d 8d 74 ff ff
	ff		 lea	 ecx, DWORD PTR _curTm$[ebp]
  00126	e8 00 00 00 00	 call	 ?Year@CDateTime@@QAEHXZ	; CDateTime::Year
  0012b	50		 push	 eax
  0012c	8b 8d f8 ee ff
	ff		 mov	 ecx, DWORD PTR _idx$[ebp]
  00132	8b 94 8d 00 ef
	ff ff		 mov	 edx, DWORD PTR _fmtStr$[ebp+ecx*4]
  00139	52		 push	 edx
  0013a	8d 85 1c ef ff
	ff		 lea	 eax, DWORD PTR _tmpBuf$[ebp]
  00140	50		 push	 eax
  00141	e8 00 00 00 00	 call	 _sprintf
  00146	83 c4 2c	 add	 esp, 44			; 0000002cH
  00149	89 85 ec ee ff
	ff		 mov	 DWORD PTR _len$[ebp], eax

; 247  : 
; 248  : 	i = 0; idx = 0;

  0014f	c7 85 f4 ee ff
	ff 00 00 00 00	 mov	 DWORD PTR _i$[ebp], 0
  00159	c7 85 f8 ee ff
	ff 00 00 00 00	 mov	 DWORD PTR _idx$[ebp], 0
$LN2@DoWritePac:

; 249  : 	while(nPacketSize--) {

  00163	8b 4d 18	 mov	 ecx, DWORD PTR _nPacketSize$[ebp]
  00166	89 8d e8 ee ff
	ff		 mov	 DWORD PTR tv133[ebp], ecx
  0016c	8b 55 18	 mov	 edx, DWORD PTR _nPacketSize$[ebp]
  0016f	83 ea 01	 sub	 edx, 1
  00172	89 55 18	 mov	 DWORD PTR _nPacketSize$[ebp], edx
  00175	83 bd e8 ee ff
	ff 00		 cmp	 DWORD PTR tv133[ebp], 0
  0017c	74 5e		 je	 SHORT $LN3@DoWritePac

; 250  : 		_stprintf(&packetBuf[idx], _T("%02x "), szBuffer[i] & 0x0ff);

  0017e	8b 45 14	 mov	 eax, DWORD PTR _szBuffer$[ebp]
  00181	03 85 f4 ee ff
	ff		 add	 eax, DWORD PTR _i$[ebp]
  00187	0f be 08	 movsx	 ecx, BYTE PTR [eax]
  0018a	81 e1 ff 00 00
	00		 and	 ecx, 255		; 000000ffH
  00190	51		 push	 ecx
  00191	68 00 00 00 00	 push	 OFFSET $SG44486
  00196	8b 95 f8 ee ff
	ff		 mov	 edx, DWORD PTR _idx$[ebp]
  0019c	8d 84 15 6c ef
	ff ff		 lea	 eax, DWORD PTR _packetBuf$[ebp+edx]
  001a3	50		 push	 eax
  001a4	e8 00 00 00 00	 call	 _sprintf
  001a9	83 c4 0c	 add	 esp, 12			; 0000000cH

; 251  : 		idx += 3; i++;

  001ac	8b 8d f8 ee ff
	ff		 mov	 ecx, DWORD PTR _idx$[ebp]
  001b2	83 c1 03	 add	 ecx, 3
  001b5	89 8d f8 ee ff
	ff		 mov	 DWORD PTR _idx$[ebp], ecx
  001bb	8b 95 f4 ee ff
	ff		 mov	 edx, DWORD PTR _i$[ebp]
  001c1	83 c2 01	 add	 edx, 1
  001c4	89 95 f4 ee ff
	ff		 mov	 DWORD PTR _i$[ebp], edx

; 252  : 		if(nLCompare <= idx) break;

  001ca	8b 85 f0 ee ff
	ff		 mov	 eax, DWORD PTR _nLCompare$[ebp]
  001d0	3b 85 f8 ee ff
	ff		 cmp	 eax, DWORD PTR _idx$[ebp]
  001d6	7f 02		 jg	 SHORT $LN8@DoWritePac
  001d8	eb 02		 jmp	 SHORT $LN3@DoWritePac
$LN8@DoWritePac:

; 253  : 	}

  001da	eb 87		 jmp	 SHORT $LN2@DoWritePac
$LN3@DoWritePac:

; 254  :     _putLogQueue(tmpBuf, packetBuf, len + idx);

  001dc	6a 00		 push	 0
  001de	8b 8d ec ee ff
	ff		 mov	 ecx, DWORD PTR _len$[ebp]
  001e4	03 8d f8 ee ff
	ff		 add	 ecx, DWORD PTR _idx$[ebp]
  001ea	51		 push	 ecx
  001eb	8d 95 6c ef ff
	ff		 lea	 edx, DWORD PTR _packetBuf$[ebp]
  001f1	52		 push	 edx
  001f2	8d 85 1c ef ff
	ff		 lea	 eax, DWORD PTR _tmpBuf$[ebp]
  001f8	50		 push	 eax
  001f9	8b 4d ec	 mov	 ecx, DWORD PTR _this$[ebp]
  001fc	e8 00 00 00 00	 call	 ?_putLogQueue@CSTLogger@@AAEXPAD0H0@Z ; CSTLogger::_putLogQueue

; 255  : }

  00201	c7 45 fc ff ff
	ff ff		 mov	 DWORD PTR __$EHRec$[ebp+8], -1
  00208	8d 8d 74 ff ff
	ff		 lea	 ecx, DWORD PTR _curTm$[ebp]
  0020e	e8 00 00 00 00	 call	 ??1CDateTime@@QAE@XZ	; CDateTime::~CDateTime
$LN1@DoWritePac:
  00213	52		 push	 edx
  00214	8b cd		 mov	 ecx, ebp
  00216	50		 push	 eax
  00217	8d 15 00 00 00
	00		 lea	 edx, DWORD PTR $LN17@DoWritePac
  0021d	e8 00 00 00 00	 call	 @_RTC_CheckStackVars@8
  00222	58		 pop	 eax
  00223	5a		 pop	 edx
  00224	8b 4d f4	 mov	 ecx, DWORD PTR __$EHRec$[ebp]
  00227	64 89 0d 00 00
	00 00		 mov	 DWORD PTR fs:0, ecx
  0022e	59		 pop	 ecx
  0022f	5f		 pop	 edi
  00230	8b 4d f0	 mov	 ecx, DWORD PTR __$ArrayPad$[ebp]
  00233	33 cd		 xor	 ecx, ebp
  00235	e8 00 00 00 00	 call	 @__security_check_cookie@4
  0023a	81 c4 18 11 00
	00		 add	 esp, 4376		; 00001118H
  00240	3b ec		 cmp	 ebp, esp
  00242	e8 00 00 00 00	 call	 __RTC_CheckEsp
  00247	8b e5		 mov	 esp, ebp
  00249	5d		 pop	 ebp
  0024a	c2 14 00	 ret	 20			; 00000014H
  0024d	0f 1f 00	 npad	 3
$LN17@DoWritePac:
  00250	04 00 00 00	 DD	 4
  00254	00 00 00 00	 DD	 $LN16@DoWritePac
$LN16@DoWritePac:
  00258	74 ff ff ff	 DD	 -140			; ffffff74H
  0025c	74 00 00 00	 DD	 116			; 00000074H
  00260	00 00 00 00	 DD	 $LN11@DoWritePac
  00264	6c ef ff ff	 DD	 -4244			; ffffef6cH
  00268	00 10 00 00	 DD	 4096			; 00001000H
  0026c	00 00 00 00	 DD	 $LN12@DoWritePac
  00270	1c ef ff ff	 DD	 -4324			; ffffef1cH
  00274	46 00 00 00	 DD	 70			; 00000046H
  00278	00 00 00 00	 DD	 $LN13@DoWritePac
  0027c	00 ef ff ff	 DD	 -4352			; ffffef00H
  00280	14 00 00 00	 DD	 20			; 00000014H
  00284	00 00 00 00	 DD	 $LN14@DoWritePac
$LN14@DoWritePac:
  00288	66		 DB	 102			; 00000066H
  00289	6d		 DB	 109			; 0000006dH
  0028a	74		 DB	 116			; 00000074H
  0028b	53		 DB	 83			; 00000053H
  0028c	74		 DB	 116			; 00000074H
  0028d	72		 DB	 114			; 00000072H
  0028e	00		 DB	 0
$LN13@DoWritePac:
  0028f	74		 DB	 116			; 00000074H
  00290	6d		 DB	 109			; 0000006dH
  00291	70		 DB	 112			; 00000070H
  00292	42		 DB	 66			; 00000042H
  00293	75		 DB	 117			; 00000075H
  00294	66		 DB	 102			; 00000066H
  00295	00		 DB	 0
$LN12@DoWritePac:
  00296	70		 DB	 112			; 00000070H
  00297	61		 DB	 97			; 00000061H
  00298	63		 DB	 99			; 00000063H
  00299	6b		 DB	 107			; 0000006bH
  0029a	65		 DB	 101			; 00000065H
  0029b	74		 DB	 116			; 00000074H
  0029c	42		 DB	 66			; 00000042H
  0029d	75		 DB	 117			; 00000075H
  0029e	66		 DB	 102			; 00000066H
  0029f	00		 DB	 0
$LN11@DoWritePac:
  002a0	63		 DB	 99			; 00000063H
  002a1	75		 DB	 117			; 00000075H
  002a2	72		 DB	 114			; 00000072H
  002a3	54		 DB	 84			; 00000054H
  002a4	6d		 DB	 109			; 0000006dH
  002a5	00		 DB	 0
_TEXT	ENDS
text$x	SEGMENT
__unwindfunclet$?DoWritePacket@CSTLogger@@QAEXHHHPADH@Z$0:
  00000	8d 8d 74 ff ff
	ff		 lea	 ecx, DWORD PTR _curTm$[ebp]
  00006	e9 00 00 00 00	 jmp	 ??1CDateTime@@QAE@XZ	; CDateTime::~CDateTime
__ehhandler$?DoWritePacket@CSTLogger@@QAEXHHHPADH@Z:
  0000b	8b 54 24 08	 mov	 edx, DWORD PTR [esp+8]
  0000f	8d 42 0c	 lea	 eax, DWORD PTR [edx+12]
  00012	8b 8a ec ee ff
	ff		 mov	 ecx, DWORD PTR [edx-4372]
  00018	33 c8		 xor	 ecx, eax
  0001a	e8 00 00 00 00	 call	 @__security_check_cookie@4
  0001f	8b 4a fc	 mov	 ecx, DWORD PTR [edx-4]
  00022	33 c8		 xor	 ecx, eax
  00024	e8 00 00 00 00	 call	 @__security_check_cookie@4
  00029	b8 00 00 00 00	 mov	 eax, OFFSET __ehfuncinfo$?DoWritePacket@CSTLogger@@QAEXHHHPADH@Z
  0002e	e9 00 00 00 00	 jmp	 ___CxxFrameHandler3
text$x	ENDS
?DoWritePacket@CSTLogger@@QAEXHHHPADH@Z ENDP		; CSTLogger::DoWritePacket
; Function compile flags: /Odtp /RTCsu
; File d:\newproject2\com\src\comstlogger.cpp
_TEXT	SEGMENT
_pthid$ = -8						; size = 4
_this$ = -4						; size = 4
?Start@CSTLogger@@QAE_NXZ PROC				; CSTLogger::Start
; _this$ = ecx

; 204  : {

  00000	55		 push	 ebp
  00001	8b ec		 mov	 ebp, esp
  00003	83 ec 08	 sub	 esp, 8
  00006	56		 push	 esi
  00007	c7 45 f8 cc cc
	cc cc		 mov	 DWORD PTR [ebp-8], -858993460 ; ccccccccH
  0000e	c7 45 fc cc cc
	cc cc		 mov	 DWORD PTR [ebp-4], -858993460 ; ccccccccH
  00015	89 4d fc	 mov	 DWORD PTR _this$[ebp], ecx

; 205  : 	if(!(m_nFlag & IS_CREATE_THREAD)) {

  00018	8b 45 fc	 mov	 eax, DWORD PTR _this$[ebp]
  0001b	8b 48 20	 mov	 ecx, DWORD PTR [eax+32]
  0001e	83 e1 01	 and	 ecx, 1
  00021	75 11		 jne	 SHORT $LN2@Start

; 206  : 		printf("CSTLogger::Start ERROR! IS_CREATE_LOGGER flag off");

  00023	68 00 00 00 00	 push	 OFFSET $SG44456
  00028	e8 00 00 00 00	 call	 _printf
  0002d	83 c4 04	 add	 esp, 4

; 207  : 		return false;

  00030	32 c0		 xor	 al, al
  00032	eb 3c		 jmp	 SHORT $LN1@Start
$LN2@Start:

; 208  : 	}
; 209  : 
; 210  : 	THREAD_ID	pthid;
; 211  : 	// create Single Thread
; 212  : 	if (!THREAD_CREATE(&pthid, LogThread, this)) {

  00034	8b f4		 mov	 esi, esp
  00036	6a 00		 push	 0
  00038	6a 00		 push	 0
  0003a	8b 55 fc	 mov	 edx, DWORD PTR _this$[ebp]
  0003d	52		 push	 edx
  0003e	68 00 00 00 00	 push	 OFFSET ?LogThread@CSTLogger@@SGKPAX@Z ; CSTLogger::LogThread
  00043	6a 00		 push	 0
  00045	6a 00		 push	 0
  00047	ff 15 00 00 00
	00		 call	 DWORD PTR __imp__CreateThread@24
  0004d	3b f4		 cmp	 esi, esp
  0004f	e8 00 00 00 00	 call	 __RTC_CheckEsp
  00054	89 45 f8	 mov	 DWORD PTR _pthid$[ebp], eax
  00057	83 7d f8 00	 cmp	 DWORD PTR _pthid$[ebp], 0
  0005b	75 11		 jne	 SHORT $LN3@Start

; 213  : 		printf("FAIL CREATE LogThread !!\n");

  0005d	68 00 00 00 00	 push	 OFFSET $SG44458
  00062	e8 00 00 00 00	 call	 _printf
  00067	83 c4 04	 add	 esp, 4

; 214  : 		return false;

  0006a	32 c0		 xor	 al, al
  0006c	eb 02		 jmp	 SHORT $LN1@Start
$LN3@Start:

; 215  : 	}
; 216  : 	//m_thCondLog.wait(-1, NULL);
; 217  : 	return true;

  0006e	b0 01		 mov	 al, 1
$LN1@Start:

; 218  : }

  00070	5e		 pop	 esi
  00071	83 c4 08	 add	 esp, 8
  00074	3b ec		 cmp	 ebp, esp
  00076	e8 00 00 00 00	 call	 __RTC_CheckEsp
  0007b	8b e5		 mov	 esp, ebp
  0007d	5d		 pop	 ebp
  0007e	c3		 ret	 0
?Start@CSTLogger@@QAE_NXZ ENDP				; CSTLogger::Start
_TEXT	ENDS
; Function compile flags: /Odtp /RTCsu
; File d:\newproject2\com\src\comstlogger.cpp
_TEXT	SEGMENT
tv150 = -168						; size = 4
$T2 = -164						; size = 4
$T3 = -160						; size = 4
$T4 = -156						; size = 4
$T5 = -152						; size = 4
_nLen$ = -148						; size = 4
_curTm$ = -140						; size = 116
_this$ = -20						; size = 4
__$ArrayPad$ = -16					; size = 4
__$EHRec$ = -12						; size = 12
_pLogDir$ = 8						; size = 4
_pLogName$ = 12						; size = 4
_nLogLevel$ = 16					; size = 4
?initCSLogger@CSTLogger@@QAEXPBD0H@Z PROC		; CSTLogger::initCSLogger
; _this$ = ecx

; 173  : {

  00000	55		 push	 ebp
  00001	8b ec		 mov	 ebp, esp
  00003	6a ff		 push	 -1
  00005	68 00 00 00 00	 push	 __ehhandler$?initCSLogger@CSTLogger@@QAEXPBD0H@Z
  0000a	64 a1 00 00 00
	00		 mov	 eax, DWORD PTR fs:0
  00010	50		 push	 eax
  00011	81 ec 9c 00 00
	00		 sub	 esp, 156		; 0000009cH
  00017	57		 push	 edi
  00018	51		 push	 ecx
  00019	8d bd 58 ff ff
	ff		 lea	 edi, DWORD PTR [ebp-168]
  0001f	b9 27 00 00 00	 mov	 ecx, 39			; 00000027H
  00024	b8 cc cc cc cc	 mov	 eax, -858993460		; ccccccccH
  00029	f3 ab		 rep stosd
  0002b	59		 pop	 ecx
  0002c	a1 00 00 00 00	 mov	 eax, DWORD PTR ___security_cookie
  00031	33 c5		 xor	 eax, ebp
  00033	89 45 f0	 mov	 DWORD PTR __$ArrayPad$[ebp], eax
  00036	50		 push	 eax
  00037	8d 45 f4	 lea	 eax, DWORD PTR __$EHRec$[ebp]
  0003a	64 a3 00 00 00
	00		 mov	 DWORD PTR fs:0, eax
  00040	89 4d ec	 mov	 DWORD PTR _this$[ebp], ecx

; 174  : 	if(!(m_nFlag & IS_CREATE_THREAD)) {

  00043	8b 45 ec	 mov	 eax, DWORD PTR _this$[ebp]
  00046	8b 48 20	 mov	 ecx, DWORD PTR [eax+32]
  00049	83 e1 01	 and	 ecx, 1
  0004c	75 0d		 jne	 SHORT $LN2@initCSLogg

; 175  : 		printf("CSTLogger::initCSLogger ERROR! IS_CREATE_LOGGER flag off");

  0004e	68 00 00 00 00	 push	 OFFSET $SG44445
  00053	e8 00 00 00 00	 call	 _printf
  00058	83 c4 04	 add	 esp, 4
$LN2@initCSLogg:

; 176  : 	}
; 177  : 	CDateTime curTm;

  0005b	8d 8d 74 ff ff
	ff		 lea	 ecx, DWORD PTR _curTm$[ebp]
  00061	e8 00 00 00 00	 call	 ??0CDateTime@@QAE@XZ	; CDateTime::CDateTime
  00066	c7 45 fc 00 00
	00 00		 mov	 DWORD PTR __$EHRec$[ebp+8], 0

; 178  : 	size_t nLen = _tcslen(pLogDir) + 1;

  0006d	8b 55 08	 mov	 edx, DWORD PTR _pLogDir$[ebp]
  00070	52		 push	 edx
  00071	e8 00 00 00 00	 call	 _strlen
  00076	83 c4 04	 add	 esp, 4
  00079	83 c0 01	 add	 eax, 1
  0007c	89 85 6c ff ff
	ff		 mov	 DWORD PTR _nLen$[ebp], eax

; 179  : 
; 180  : 	m_nLogLevel = nLogLevel;

  00082	8b 45 ec	 mov	 eax, DWORD PTR _this$[ebp]
  00085	8b 4d 10	 mov	 ecx, DWORD PTR _nLogLevel$[ebp]
  00088	89 48 14	 mov	 DWORD PTR [eax+20], ecx

; 181  : 
; 182  : 	// setup default Logger
; 183  : 	m_pLogDir = new TCHAR[nLen];

  0008b	8b 95 6c ff ff
	ff		 mov	 edx, DWORD PTR _nLen$[ebp]
  00091	52		 push	 edx
  00092	e8 00 00 00 00	 call	 ??_U@YAPAXI@Z		; operator new[]
  00097	83 c4 04	 add	 esp, 4
  0009a	89 85 68 ff ff
	ff		 mov	 DWORD PTR $T5[ebp], eax
  000a0	8b 45 ec	 mov	 eax, DWORD PTR _this$[ebp]
  000a3	8b 8d 68 ff ff
	ff		 mov	 ecx, DWORD PTR $T5[ebp]
  000a9	89 48 18	 mov	 DWORD PTR [eax+24], ecx

; 184  : 	memset(m_pLogDir, 0, nLen);

  000ac	8b 95 6c ff ff
	ff		 mov	 edx, DWORD PTR _nLen$[ebp]
  000b2	52		 push	 edx
  000b3	6a 00		 push	 0
  000b5	8b 45 ec	 mov	 eax, DWORD PTR _this$[ebp]
  000b8	8b 48 18	 mov	 ecx, DWORD PTR [eax+24]
  000bb	51		 push	 ecx
  000bc	e8 00 00 00 00	 call	 _memset
  000c1	83 c4 0c	 add	 esp, 12			; 0000000cH

; 185  : 	_tcscpy(m_pLogDir, pLogDir);

  000c4	8b 55 08	 mov	 edx, DWORD PTR _pLogDir$[ebp]
  000c7	52		 push	 edx
  000c8	8b 45 ec	 mov	 eax, DWORD PTR _this$[ebp]
  000cb	8b 48 18	 mov	 ecx, DWORD PTR [eax+24]
  000ce	51		 push	 ecx
  000cf	e8 00 00 00 00	 call	 _strcpy
  000d4	83 c4 08	 add	 esp, 8

; 186  : 
; 187  : 	nLen = _tcslen(pLogName)+1;

  000d7	8b 55 0c	 mov	 edx, DWORD PTR _pLogName$[ebp]
  000da	52		 push	 edx
  000db	e8 00 00 00 00	 call	 _strlen
  000e0	83 c4 04	 add	 esp, 4
  000e3	83 c0 01	 add	 eax, 1
  000e6	89 85 6c ff ff
	ff		 mov	 DWORD PTR _nLen$[ebp], eax

; 188  : 	m_pLogName = new TCHAR[nLen];

  000ec	8b 85 6c ff ff
	ff		 mov	 eax, DWORD PTR _nLen$[ebp]
  000f2	50		 push	 eax
  000f3	e8 00 00 00 00	 call	 ??_U@YAPAXI@Z		; operator new[]
  000f8	83 c4 04	 add	 esp, 4
  000fb	89 85 64 ff ff
	ff		 mov	 DWORD PTR $T4[ebp], eax
  00101	8b 4d ec	 mov	 ecx, DWORD PTR _this$[ebp]
  00104	8b 95 64 ff ff
	ff		 mov	 edx, DWORD PTR $T4[ebp]
  0010a	89 51 1c	 mov	 DWORD PTR [ecx+28], edx

; 189  : 	memset(m_pLogName, 0, nLen);

  0010d	8b 85 6c ff ff
	ff		 mov	 eax, DWORD PTR _nLen$[ebp]
  00113	50		 push	 eax
  00114	6a 00		 push	 0
  00116	8b 4d ec	 mov	 ecx, DWORD PTR _this$[ebp]
  00119	8b 51 1c	 mov	 edx, DWORD PTR [ecx+28]
  0011c	52		 push	 edx
  0011d	e8 00 00 00 00	 call	 _memset
  00122	83 c4 0c	 add	 esp, 12			; 0000000cH

; 190  : 	_tcscpy(m_pLogName, pLogName);

  00125	8b 45 0c	 mov	 eax, DWORD PTR _pLogName$[ebp]
  00128	50		 push	 eax
  00129	8b 4d ec	 mov	 ecx, DWORD PTR _this$[ebp]
  0012c	8b 51 1c	 mov	 edx, DWORD PTR [ecx+28]
  0012f	52		 push	 edx
  00130	e8 00 00 00 00	 call	 _strcpy
  00135	83 c4 08	 add	 esp, 8

; 191  : 
; 192  : 	m_pLogger = new CLogger();

  00138	6a 1c		 push	 28			; 0000001cH
  0013a	e8 00 00 00 00	 call	 ??2@YAPAXI@Z		; operator new
  0013f	83 c4 04	 add	 esp, 4
  00142	89 85 5c ff ff
	ff		 mov	 DWORD PTR $T2[ebp], eax
  00148	c6 45 fc 01	 mov	 BYTE PTR __$EHRec$[ebp+8], 1
  0014c	83 bd 5c ff ff
	ff 00		 cmp	 DWORD PTR $T2[ebp], 0
  00153	74 20		 je	 SHORT $LN4@initCSLogg
  00155	6a 1c		 push	 28			; 0000001cH
  00157	8b 8d 5c ff ff
	ff		 mov	 ecx, DWORD PTR $T2[ebp]
  0015d	e8 00 00 00 00	 call	 ?__autoclassinit2@CLogger@@QAEXI@Z
  00162	8b 8d 5c ff ff
	ff		 mov	 ecx, DWORD PTR $T2[ebp]
  00168	e8 00 00 00 00	 call	 ??0CLogger@@QAE@XZ	; CLogger::CLogger
  0016d	89 85 58 ff ff
	ff		 mov	 DWORD PTR tv150[ebp], eax
  00173	eb 0a		 jmp	 SHORT $LN5@initCSLogg
$LN4@initCSLogg:
  00175	c7 85 58 ff ff
	ff 00 00 00 00	 mov	 DWORD PTR tv150[ebp], 0
$LN5@initCSLogg:
  0017f	8b 85 58 ff ff
	ff		 mov	 eax, DWORD PTR tv150[ebp]
  00185	89 85 60 ff ff
	ff		 mov	 DWORD PTR $T3[ebp], eax
  0018b	c6 45 fc 00	 mov	 BYTE PTR __$EHRec$[ebp+8], 0
  0018f	8b 4d ec	 mov	 ecx, DWORD PTR _this$[ebp]
  00192	8b 95 60 ff ff
	ff		 mov	 edx, DWORD PTR $T3[ebp]
  00198	89 51 0c	 mov	 DWORD PTR [ecx+12], edx

; 193  : 	m_pLogger->SetDateTimeFlag(0);

  0019b	6a 00		 push	 0
  0019d	8b 45 ec	 mov	 eax, DWORD PTR _this$[ebp]
  001a0	8b 48 0c	 mov	 ecx, DWORD PTR [eax+12]
  001a3	e8 00 00 00 00	 call	 ?SetDateTimeFlag@CLogger@@QAEXH@Z ; CLogger::SetDateTimeFlag

; 194  : 	myLoggerOpen(&curTm);

  001a8	8d 8d 74 ff ff
	ff		 lea	 ecx, DWORD PTR _curTm$[ebp]
  001ae	51		 push	 ecx
  001af	8b 4d ec	 mov	 ecx, DWORD PTR _this$[ebp]
  001b2	e8 00 00 00 00	 call	 ?myLoggerOpen@CSTLogger@@AAEXPAVCDateTime@@@Z ; CSTLogger::myLoggerOpen

; 195  : 
; 196  : 
; 197  : 	//printf("initCSLogger m_pLogDir[%s] m_pLogName[%s]\n", m_pLogDir, m_pLogName);
; 198  : 
; 199  : 	m_nFlag |= IS_CREATE_LOGGER;

  001b7	8b 55 ec	 mov	 edx, DWORD PTR _this$[ebp]
  001ba	8b 42 20	 mov	 eax, DWORD PTR [edx+32]
  001bd	83 c8 02	 or	 eax, 2
  001c0	8b 4d ec	 mov	 ecx, DWORD PTR _this$[ebp]
  001c3	89 41 20	 mov	 DWORD PTR [ecx+32], eax

; 200  : }

  001c6	c7 45 fc ff ff
	ff ff		 mov	 DWORD PTR __$EHRec$[ebp+8], -1
  001cd	8d 8d 74 ff ff
	ff		 lea	 ecx, DWORD PTR _curTm$[ebp]
  001d3	e8 00 00 00 00	 call	 ??1CDateTime@@QAE@XZ	; CDateTime::~CDateTime
  001d8	52		 push	 edx
  001d9	8b cd		 mov	 ecx, ebp
  001db	50		 push	 eax
  001dc	8d 15 00 00 00
	00		 lea	 edx, DWORD PTR $LN11@initCSLogg
  001e2	e8 00 00 00 00	 call	 @_RTC_CheckStackVars@8
  001e7	58		 pop	 eax
  001e8	5a		 pop	 edx
  001e9	8b 4d f4	 mov	 ecx, DWORD PTR __$EHRec$[ebp]
  001ec	64 89 0d 00 00
	00 00		 mov	 DWORD PTR fs:0, ecx
  001f3	59		 pop	 ecx
  001f4	5f		 pop	 edi
  001f5	8b 4d f0	 mov	 ecx, DWORD PTR __$ArrayPad$[ebp]
  001f8	33 cd		 xor	 ecx, ebp
  001fa	e8 00 00 00 00	 call	 @__security_check_cookie@4
  001ff	81 c4 a8 00 00
	00		 add	 esp, 168		; 000000a8H
  00205	3b ec		 cmp	 ebp, esp
  00207	e8 00 00 00 00	 call	 __RTC_CheckEsp
  0020c	8b e5		 mov	 esp, ebp
  0020e	5d		 pop	 ebp
  0020f	c2 0c 00	 ret	 12			; 0000000cH
  00212	66 90		 npad	 2
$LN11@initCSLogg:
  00214	01 00 00 00	 DD	 1
  00218	00 00 00 00	 DD	 $LN10@initCSLogg
$LN10@initCSLogg:
  0021c	74 ff ff ff	 DD	 -140			; ffffff74H
  00220	74 00 00 00	 DD	 116			; 00000074H
  00224	00 00 00 00	 DD	 $LN8@initCSLogg
$LN8@initCSLogg:
  00228	63		 DB	 99			; 00000063H
  00229	75		 DB	 117			; 00000075H
  0022a	72		 DB	 114			; 00000072H
  0022b	54		 DB	 84			; 00000054H
  0022c	6d		 DB	 109			; 0000006dH
  0022d	00		 DB	 0
_TEXT	ENDS
text$x	SEGMENT
__unwindfunclet$?initCSLogger@CSTLogger@@QAEXPBD0H@Z$0:
  00000	8d 8d 74 ff ff
	ff		 lea	 ecx, DWORD PTR _curTm$[ebp]
  00006	e9 00 00 00 00	 jmp	 ??1CDateTime@@QAE@XZ	; CDateTime::~CDateTime
__unwindfunclet$?initCSLogger@CSTLogger@@QAEXPBD0H@Z$1:
  0000b	6a 1c		 push	 28			; 0000001cH
  0000d	8b 85 5c ff ff
	ff		 mov	 eax, DWORD PTR $T2[ebp]
  00013	50		 push	 eax
  00014	e8 00 00 00 00	 call	 ??3@YAXPAXI@Z		; operator delete
  00019	83 c4 08	 add	 esp, 8
  0001c	c3		 ret	 0
__ehhandler$?initCSLogger@CSTLogger@@QAEXPBD0H@Z:
  0001d	8b 54 24 08	 mov	 edx, DWORD PTR [esp+8]
  00021	8d 42 0c	 lea	 eax, DWORD PTR [edx+12]
  00024	8b 8a 5c ff ff
	ff		 mov	 ecx, DWORD PTR [edx-164]
  0002a	33 c8		 xor	 ecx, eax
  0002c	e8 00 00 00 00	 call	 @__security_check_cookie@4
  00031	8b 4a fc	 mov	 ecx, DWORD PTR [edx-4]
  00034	33 c8		 xor	 ecx, eax
  00036	e8 00 00 00 00	 call	 @__security_check_cookie@4
  0003b	b8 00 00 00 00	 mov	 eax, OFFSET __ehfuncinfo$?initCSLogger@CSTLogger@@QAEXPBD0H@Z
  00040	e9 00 00 00 00	 jmp	 ___CxxFrameHandler3
text$x	ENDS
?initCSLogger@CSTLogger@@QAEXPBD0H@Z ENDP		; CSTLogger::initCSLogger
; Function compile flags: /Odtp /RTCsu
; File d:\newproject2\com\src\comstlogger.cpp
_TEXT	SEGMENT
_this$ = -4						; size = 4
_nMax$ = 8						; size = 4
?init@CSTLogger@@QAE_NH@Z PROC				; CSTLogger::init
; _this$ = ecx

; 151  : {

  00000	55		 push	 ebp
  00001	8b ec		 mov	 ebp, esp
  00003	51		 push	 ecx
  00004	56		 push	 esi
  00005	c7 45 fc cc cc
	cc cc		 mov	 DWORD PTR [ebp-4], -858993460 ; ccccccccH
  0000c	89 4d fc	 mov	 DWORD PTR _this$[ebp], ecx

; 152  : 	if (!(m_nFlag & IS_CREATE_THREAD)) {

  0000f	8b 45 fc	 mov	 eax, DWORD PTR _this$[ebp]
  00012	8b 48 20	 mov	 ecx, DWORD PTR [eax+32]
  00015	83 e1 01	 and	 ecx, 1
  00018	75 11		 jne	 SHORT $LN2@init

; 153  : 		printf("CSTLogger::initMemory ERROR! IS_CREATE_LOGGER flag off");

  0001a	68 00 00 00 00	 push	 OFFSET $SG44425
  0001f	e8 00 00 00 00	 call	 _printf
  00024	83 c4 04	 add	 esp, 4

; 154  : 		return false;

  00027	32 c0		 xor	 al, al
  00029	eb 66		 jmp	 SHORT $LN1@init
$LN2@init:

; 155  : 	}
; 156  : 	// setup LogQueue
; 157  : 	m_sLogQueue.nMax = nMax;

  0002b	8b 55 fc	 mov	 edx, DWORD PTR _this$[ebp]
  0002e	8b 45 08	 mov	 eax, DWORD PTR _nMax$[ebp]
  00031	89 42 3c	 mov	 DWORD PTR [edx+60], eax

; 158  : 	m_sLogQueue.nLast = 0;

  00034	8b 4d fc	 mov	 ecx, DWORD PTR _this$[ebp]
  00037	c7 41 34 00 00
	00 00		 mov	 DWORD PTR [ecx+52], 0

; 159  : 	m_sLogQueue.nFront = 0;

  0003e	8b 55 fc	 mov	 edx, DWORD PTR _this$[ebp]
  00041	c7 42 38 00 00
	00 00		 mov	 DWORD PTR [edx+56], 0

; 160  : 
; 161  : 	m_sLogQueue.pList = (void **)calloc(nMax, sizeof(char *));

  00048	8b f4		 mov	 esi, esp
  0004a	6a 04		 push	 4
  0004c	8b 45 08	 mov	 eax, DWORD PTR _nMax$[ebp]
  0004f	50		 push	 eax
  00050	ff 15 00 00 00
	00		 call	 DWORD PTR __imp__calloc
  00056	83 c4 08	 add	 esp, 8
  00059	3b f4		 cmp	 esi, esp
  0005b	e8 00 00 00 00	 call	 __RTC_CheckEsp
  00060	8b 4d fc	 mov	 ecx, DWORD PTR _this$[ebp]
  00063	89 41 40	 mov	 DWORD PTR [ecx+64], eax

; 162  : 	if (!m_sLogQueue.pList) {

  00066	8b 55 fc	 mov	 edx, DWORD PTR _this$[ebp]
  00069	83 7a 40 00	 cmp	 DWORD PTR [edx+64], 0
  0006d	75 11		 jne	 SHORT $LN3@init

; 163  : 		// LOG
; 164  : 		printf("CSTLogger::initMemory ERROR! m_sLogQueue.pList is NULL");

  0006f	68 00 00 00 00	 push	 OFFSET $SG44427
  00074	e8 00 00 00 00	 call	 _printf
  00079	83 c4 04	 add	 esp, 4

; 165  : 		return false;

  0007c	32 c0		 xor	 al, al
  0007e	eb 11		 jmp	 SHORT $LN1@init
$LN3@init:

; 166  : 	}
; 167  : 	m_nFlag |= (IS_ACTIVE_PUT_QUEUE | IS_ACTIVE_TIMEPROC_INTHREAD | IS_ACTIVE_DAYCHANGE_LOG);

  00080	8b 45 fc	 mov	 eax, DWORD PTR _this$[ebp]
  00083	8b 48 20	 mov	 ecx, DWORD PTR [eax+32]
  00086	83 c9 1c	 or	 ecx, 28			; 0000001cH
  00089	8b 55 fc	 mov	 edx, DWORD PTR _this$[ebp]
  0008c	89 4a 20	 mov	 DWORD PTR [edx+32], ecx

; 168  : 	return true;

  0008f	b0 01		 mov	 al, 1
$LN1@init:

; 169  : }

  00091	5e		 pop	 esi
  00092	83 c4 04	 add	 esp, 4
  00095	3b ec		 cmp	 ebp, esp
  00097	e8 00 00 00 00	 call	 __RTC_CheckEsp
  0009c	8b e5		 mov	 esp, ebp
  0009e	5d		 pop	 ebp
  0009f	c2 04 00	 ret	 4
?init@CSTLogger@@QAE_NH@Z ENDP				; CSTLogger::init
_TEXT	ENDS
; Function compile flags: /Odtp /RTCsu
; File d:\newproject2\com\src\comstlogger.cpp
_TEXT	SEGMENT
_nAdd$ = -140						; size = 4
_nMax$ = -136						; size = 4
_i$ = -132						; size = 4
_szKey$ = -124						; size = 16
_szConf$ = -100						; size = 88
_this$ = -8						; size = 4
__$ArrayPad$ = -4					; size = 4
?initSystem@CSTLogger@@QAE_NXZ PROC			; CSTLogger::initSystem
; _this$ = ecx

; 121  : {

  00000	55		 push	 ebp
  00001	8b ec		 mov	 ebp, esp
  00003	81 ec 8c 00 00
	00		 sub	 esp, 140		; 0000008cH
  00009	56		 push	 esi
  0000a	57		 push	 edi
  0000b	51		 push	 ecx
  0000c	8d bd 74 ff ff
	ff		 lea	 edi, DWORD PTR [ebp-140]
  00012	b9 23 00 00 00	 mov	 ecx, 35			; 00000023H
  00017	b8 cc cc cc cc	 mov	 eax, -858993460		; ccccccccH
  0001c	f3 ab		 rep stosd
  0001e	59		 pop	 ecx
  0001f	a1 00 00 00 00	 mov	 eax, DWORD PTR ___security_cookie
  00024	33 c5		 xor	 eax, ebp
  00026	89 45 fc	 mov	 DWORD PTR __$ArrayPad$[ebp], eax
  00029	89 4d f8	 mov	 DWORD PTR _this$[ebp], ecx

; 122  : 	if (!CEnv::initSystem()) return false;

  0002c	6a 00		 push	 0
  0002e	e8 00 00 00 00	 call	 ?initSystem@CEnv@@SAHPAD@Z ; CEnv::initSystem
  00033	83 c4 04	 add	 esp, 4
  00036	85 c0		 test	 eax, eax
  00038	75 07		 jne	 SHORT $LN11@initSystem
  0003a	32 c0		 xor	 al, al
  0003c	e9 bc 01 00 00	 jmp	 $LN1@initSystem
$LN11@initSystem:

; 123  : 	STBufConf szConf;
; 124  : 	memset(&szConf, 0, sizeof(STBufConf));

  00041	6a 58		 push	 88			; 00000058H
  00043	6a 00		 push	 0
  00045	8d 45 9c	 lea	 eax, DWORD PTR _szConf$[ebp]
  00048	50		 push	 eax
  00049	e8 00 00 00 00	 call	 _memset
  0004e	83 c4 0c	 add	 esp, 12			; 0000000cH

; 125  : 
; 126  : 	TCHAR szKey[16];
; 127  : 	int i, nMax, nAdd;
; 128  : 	nMax = GetPrivateProfileInt(_T("LOG"), _T("LIST_MAX"), 20, CEnv::getPathSystem());

  00051	e8 00 00 00 00	 call	 ?getPathSystem@CEnv@@SAPADXZ ; CEnv::getPathSystem
  00056	8b f4		 mov	 esi, esp
  00058	50		 push	 eax
  00059	6a 14		 push	 20			; 00000014H
  0005b	68 00 00 00 00	 push	 OFFSET $SG44410
  00060	68 00 00 00 00	 push	 OFFSET $SG44411
  00065	ff 15 00 00 00
	00		 call	 DWORD PTR __imp__GetPrivateProfileIntA@16
  0006b	3b f4		 cmp	 esi, esp
  0006d	e8 00 00 00 00	 call	 __RTC_CheckEsp
  00072	89 85 78 ff ff
	ff		 mov	 DWORD PTR _nMax$[ebp], eax

; 129  : 	nAdd = nMax >> 1;

  00078	8b 8d 78 ff ff
	ff		 mov	 ecx, DWORD PTR _nMax$[ebp]
  0007e	d1 f9		 sar	 ecx, 1
  00080	89 8d 74 ff ff
	ff		 mov	 DWORD PTR _nAdd$[ebp], ecx

; 130  : 	for (i = IDX_BUF_4; i < IDX_BUF_16k; i++)

  00086	c7 85 7c ff ff
	ff 02 00 00 00	 mov	 DWORD PTR _i$[ebp], 2
  00090	eb 0f		 jmp	 SHORT $LN4@initSystem
$LN2@initSystem:
  00092	8b 95 7c ff ff
	ff		 mov	 edx, DWORD PTR _i$[ebp]
  00098	83 c2 01	 add	 edx, 1
  0009b	89 95 7c ff ff
	ff		 mov	 DWORD PTR _i$[ebp], edx
$LN4@initSystem:
  000a1	83 bd 7c ff ff
	ff 0e		 cmp	 DWORD PTR _i$[ebp], 14	; 0000000eH
  000a8	7d 55		 jge	 SHORT $LN3@initSystem

; 131  : 	{
; 132  : 		_stprintf(szKey, _T("IDX_BUF_%d"), 1 << i);

  000aa	b8 01 00 00 00	 mov	 eax, 1
  000af	8b 8d 7c ff ff
	ff		 mov	 ecx, DWORD PTR _i$[ebp]
  000b5	d3 e0		 shl	 eax, cl
  000b7	50		 push	 eax
  000b8	68 00 00 00 00	 push	 OFFSET $SG44412
  000bd	8d 4d 84	 lea	 ecx, DWORD PTR _szKey$[ebp]
  000c0	51		 push	 ecx
  000c1	e8 00 00 00 00	 call	 _sprintf
  000c6	83 c4 0c	 add	 esp, 12			; 0000000cH

; 133  : 		szConf.nMaxList[i] = GetPrivateProfileInt(_T("MPOOL"), szKey, 0, CEnv::getPathSystem()) + nAdd + 32;

  000c9	e8 00 00 00 00	 call	 ?getPathSystem@CEnv@@SAPADXZ ; CEnv::getPathSystem
  000ce	8b f4		 mov	 esi, esp
  000d0	50		 push	 eax
  000d1	6a 00		 push	 0
  000d3	8d 55 84	 lea	 edx, DWORD PTR _szKey$[ebp]
  000d6	52		 push	 edx
  000d7	68 00 00 00 00	 push	 OFFSET $SG44413
  000dc	ff 15 00 00 00
	00		 call	 DWORD PTR __imp__GetPrivateProfileIntA@16
  000e2	3b f4		 cmp	 esi, esp
  000e4	e8 00 00 00 00	 call	 __RTC_CheckEsp
  000e9	8b 8d 74 ff ff
	ff		 mov	 ecx, DWORD PTR _nAdd$[ebp]
  000ef	8d 54 08 20	 lea	 edx, DWORD PTR [eax+ecx+32]
  000f3	8b 85 7c ff ff
	ff		 mov	 eax, DWORD PTR _i$[ebp]
  000f9	89 54 85 9c	 mov	 DWORD PTR _szConf$[ebp+eax*4], edx

; 134  : 	}

  000fd	eb 93		 jmp	 SHORT $LN2@initSystem
$LN3@initSystem:

; 135  : 	for (i = IDX_BUF_16k; i < IDX_BUF_64k; i++)

  000ff	c7 85 7c ff ff
	ff 0e 00 00 00	 mov	 DWORD PTR _i$[ebp], 14	; 0000000eH
  00109	eb 0f		 jmp	 SHORT $LN7@initSystem
$LN5@initSystem:
  0010b	8b 8d 7c ff ff
	ff		 mov	 ecx, DWORD PTR _i$[ebp]
  00111	83 c1 01	 add	 ecx, 1
  00114	89 8d 7c ff ff
	ff		 mov	 DWORD PTR _i$[ebp], ecx
$LN7@initSystem:
  0011a	83 bd 7c ff ff
	ff 10		 cmp	 DWORD PTR _i$[ebp], 16	; 00000010H
  00121	7d 4e		 jge	 SHORT $LN6@initSystem

; 136  : 	{
; 137  : 		_stprintf(szKey, _T("IDX_BUF_%d"), 1 << i);

  00123	ba 01 00 00 00	 mov	 edx, 1
  00128	8b 8d 7c ff ff
	ff		 mov	 ecx, DWORD PTR _i$[ebp]
  0012e	d3 e2		 shl	 edx, cl
  00130	52		 push	 edx
  00131	68 00 00 00 00	 push	 OFFSET $SG44414
  00136	8d 45 84	 lea	 eax, DWORD PTR _szKey$[ebp]
  00139	50		 push	 eax
  0013a	e8 00 00 00 00	 call	 _sprintf
  0013f	83 c4 0c	 add	 esp, 12			; 0000000cH

; 138  : 		szConf.nMaxList[i] = GetPrivateProfileInt(_T("MPOOL"), szKey, 0, CEnv::getPathSystem()) + 2;

  00142	e8 00 00 00 00	 call	 ?getPathSystem@CEnv@@SAPADXZ ; CEnv::getPathSystem
  00147	8b f4		 mov	 esi, esp
  00149	50		 push	 eax
  0014a	6a 00		 push	 0
  0014c	8d 4d 84	 lea	 ecx, DWORD PTR _szKey$[ebp]
  0014f	51		 push	 ecx
  00150	68 00 00 00 00	 push	 OFFSET $SG44415
  00155	ff 15 00 00 00
	00		 call	 DWORD PTR __imp__GetPrivateProfileIntA@16
  0015b	3b f4		 cmp	 esi, esp
  0015d	e8 00 00 00 00	 call	 __RTC_CheckEsp
  00162	83 c0 02	 add	 eax, 2
  00165	8b 95 7c ff ff
	ff		 mov	 edx, DWORD PTR _i$[ebp]
  0016b	89 44 95 9c	 mov	 DWORD PTR _szConf$[ebp+edx*4], eax

; 139  : 	}

  0016f	eb 9a		 jmp	 SHORT $LN5@initSystem
$LN6@initSystem:

; 140  : 	for (i = IDX_BUF_64k; i < IDX_BUF_MAX; i++)

  00171	c7 85 7c ff ff
	ff 10 00 00 00	 mov	 DWORD PTR _i$[ebp], 16	; 00000010H
  0017b	eb 0f		 jmp	 SHORT $LN10@initSystem
$LN8@initSystem:
  0017d	8b 85 7c ff ff
	ff		 mov	 eax, DWORD PTR _i$[ebp]
  00183	83 c0 01	 add	 eax, 1
  00186	89 85 7c ff ff
	ff		 mov	 DWORD PTR _i$[ebp], eax
$LN10@initSystem:
  0018c	83 bd 7c ff ff
	ff 16		 cmp	 DWORD PTR _i$[ebp], 22	; 00000016H
  00193	7d 4b		 jge	 SHORT $LN9@initSystem

; 141  : 	{
; 142  : 		_stprintf(szKey, _T("IDX_BUF_%d"), 1 << i);

  00195	ba 01 00 00 00	 mov	 edx, 1
  0019a	8b 8d 7c ff ff
	ff		 mov	 ecx, DWORD PTR _i$[ebp]
  001a0	d3 e2		 shl	 edx, cl
  001a2	52		 push	 edx
  001a3	68 00 00 00 00	 push	 OFFSET $SG44416
  001a8	8d 45 84	 lea	 eax, DWORD PTR _szKey$[ebp]
  001ab	50		 push	 eax
  001ac	e8 00 00 00 00	 call	 _sprintf
  001b1	83 c4 0c	 add	 esp, 12			; 0000000cH

; 143  : 		szConf.nMaxList[i] = GetPrivateProfileInt(_T("MPOOL"), szKey, 0, CEnv::getPathSystem());

  001b4	e8 00 00 00 00	 call	 ?getPathSystem@CEnv@@SAPADXZ ; CEnv::getPathSystem
  001b9	8b f4		 mov	 esi, esp
  001bb	50		 push	 eax
  001bc	6a 00		 push	 0
  001be	8d 4d 84	 lea	 ecx, DWORD PTR _szKey$[ebp]
  001c1	51		 push	 ecx
  001c2	68 00 00 00 00	 push	 OFFSET $SG44417
  001c7	ff 15 00 00 00
	00		 call	 DWORD PTR __imp__GetPrivateProfileIntA@16
  001cd	3b f4		 cmp	 esi, esp
  001cf	e8 00 00 00 00	 call	 __RTC_CheckEsp
  001d4	8b 95 7c ff ff
	ff		 mov	 edx, DWORD PTR _i$[ebp]
  001da	89 44 95 9c	 mov	 DWORD PTR _szConf$[ebp+edx*4], eax

; 144  : 	}

  001de	eb 9d		 jmp	 SHORT $LN8@initSystem
$LN9@initSystem:

; 145  : 
; 146  : 	g_cMMgr.init(&szConf);

  001e0	8d 45 9c	 lea	 eax, DWORD PTR _szConf$[ebp]
  001e3	50		 push	 eax
  001e4	b9 00 00 00 00	 mov	 ecx, OFFSET ?g_cMMgr@@3VCMemManager@@A ; g_cMMgr
  001e9	e8 00 00 00 00	 call	 ?init@CMemManager@@QAEXPAUSTBufConf@@@Z ; CMemManager::init

; 147  : 	return init(nMax);

  001ee	8b 8d 78 ff ff
	ff		 mov	 ecx, DWORD PTR _nMax$[ebp]
  001f4	51		 push	 ecx
  001f5	8b 4d f8	 mov	 ecx, DWORD PTR _this$[ebp]
  001f8	e8 00 00 00 00	 call	 ?init@CSTLogger@@QAE_NH@Z ; CSTLogger::init
$LN1@initSystem:

; 148  : }

  001fd	52		 push	 edx
  001fe	8b cd		 mov	 ecx, ebp
  00200	50		 push	 eax
  00201	8d 15 00 00 00
	00		 lea	 edx, DWORD PTR $LN16@initSystem
  00207	e8 00 00 00 00	 call	 @_RTC_CheckStackVars@8
  0020c	58		 pop	 eax
  0020d	5a		 pop	 edx
  0020e	5f		 pop	 edi
  0020f	5e		 pop	 esi
  00210	8b 4d fc	 mov	 ecx, DWORD PTR __$ArrayPad$[ebp]
  00213	33 cd		 xor	 ecx, ebp
  00215	e8 00 00 00 00	 call	 @__security_check_cookie@4
  0021a	81 c4 8c 00 00
	00		 add	 esp, 140		; 0000008cH
  00220	3b ec		 cmp	 ebp, esp
  00222	e8 00 00 00 00	 call	 __RTC_CheckEsp
  00227	8b e5		 mov	 esp, ebp
  00229	5d		 pop	 ebp
  0022a	c3		 ret	 0
  0022b	90		 npad	 1
$LN16@initSystem:
  0022c	02 00 00 00	 DD	 2
  00230	00 00 00 00	 DD	 $LN15@initSystem
$LN15@initSystem:
  00234	9c ff ff ff	 DD	 -100			; ffffff9cH
  00238	58 00 00 00	 DD	 88			; 00000058H
  0023c	00 00 00 00	 DD	 $LN13@initSystem
  00240	84 ff ff ff	 DD	 -124			; ffffff84H
  00244	10 00 00 00	 DD	 16			; 00000010H
  00248	00 00 00 00	 DD	 $LN14@initSystem
$LN14@initSystem:
  0024c	73		 DB	 115			; 00000073H
  0024d	7a		 DB	 122			; 0000007aH
  0024e	4b		 DB	 75			; 0000004bH
  0024f	65		 DB	 101			; 00000065H
  00250	79		 DB	 121			; 00000079H
  00251	00		 DB	 0
$LN13@initSystem:
  00252	73		 DB	 115			; 00000073H
  00253	7a		 DB	 122			; 0000007aH
  00254	43		 DB	 67			; 00000043H
  00255	6f		 DB	 111			; 0000006fH
  00256	6e		 DB	 110			; 0000006eH
  00257	66		 DB	 102			; 00000066H
  00258	00		 DB	 0
?initSystem@CSTLogger@@QAE_NXZ ENDP			; CSTLogger::initSystem
_TEXT	ENDS
; Function compile flags: /Odtp /RTCsu
; File d:\newproject2\com\src\comstlogger.cpp
_TEXT	SEGMENT
tv86 = -24						; size = 4
$T1 = -20						; size = 4
$T2 = -16						; size = 4
$T3 = -12						; size = 4
$T4 = -8						; size = 4
_this$ = -4						; size = 4
??1CSTLogger@@QAE@XZ PROC				; CSTLogger::~CSTLogger
; _this$ = ecx

; 82   : {

  00000	55		 push	 ebp
  00001	8b ec		 mov	 ebp, esp
  00003	83 ec 18	 sub	 esp, 24			; 00000018H
  00006	56		 push	 esi
  00007	b8 cc cc cc cc	 mov	 eax, -858993460		; ccccccccH
  0000c	89 45 e8	 mov	 DWORD PTR [ebp-24], eax
  0000f	89 45 ec	 mov	 DWORD PTR [ebp-20], eax
  00012	89 45 f0	 mov	 DWORD PTR [ebp-16], eax
  00015	89 45 f4	 mov	 DWORD PTR [ebp-12], eax
  00018	89 45 f8	 mov	 DWORD PTR [ebp-8], eax
  0001b	89 45 fc	 mov	 DWORD PTR [ebp-4], eax
  0001e	89 4d fc	 mov	 DWORD PTR _this$[ebp], ecx

; 83   : 
; 84   :     m_bQuit = true;

  00021	8b 45 fc	 mov	 eax, DWORD PTR _this$[ebp]
  00024	c6 40 10 01	 mov	 BYTE PTR [eax+16], 1

; 85   :     if(m_pLogDir)           {

  00028	8b 4d fc	 mov	 ecx, DWORD PTR _this$[ebp]
  0002b	83 79 18 00	 cmp	 DWORD PTR [ecx+24], 0
  0002f	74 21		 je	 SHORT $LN2@CSTLogger

; 86   :         delete m_pLogDir;

  00031	8b 55 fc	 mov	 edx, DWORD PTR _this$[ebp]
  00034	8b 42 18	 mov	 eax, DWORD PTR [edx+24]
  00037	89 45 f8	 mov	 DWORD PTR $T4[ebp], eax
  0003a	6a 01		 push	 1
  0003c	8b 4d f8	 mov	 ecx, DWORD PTR $T4[ebp]
  0003f	51		 push	 ecx
  00040	e8 00 00 00 00	 call	 ??3@YAXPAXI@Z		; operator delete
  00045	83 c4 08	 add	 esp, 8

; 87   :         m_pLogDir = NULL;

  00048	8b 55 fc	 mov	 edx, DWORD PTR _this$[ebp]
  0004b	c7 42 18 00 00
	00 00		 mov	 DWORD PTR [edx+24], 0
$LN2@CSTLogger:

; 88   :     }
; 89   :     if(m_pLogName)          {

  00052	8b 45 fc	 mov	 eax, DWORD PTR _this$[ebp]
  00055	83 78 1c 00	 cmp	 DWORD PTR [eax+28], 0
  00059	74 21		 je	 SHORT $LN3@CSTLogger

; 90   :         delete m_pLogName;

  0005b	8b 4d fc	 mov	 ecx, DWORD PTR _this$[ebp]
  0005e	8b 51 1c	 mov	 edx, DWORD PTR [ecx+28]
  00061	89 55 f4	 mov	 DWORD PTR $T3[ebp], edx
  00064	6a 01		 push	 1
  00066	8b 45 f4	 mov	 eax, DWORD PTR $T3[ebp]
  00069	50		 push	 eax
  0006a	e8 00 00 00 00	 call	 ??3@YAXPAXI@Z		; operator delete
  0006f	83 c4 08	 add	 esp, 8

; 91   :         m_pLogName = NULL;

  00072	8b 4d fc	 mov	 ecx, DWORD PTR _this$[ebp]
  00075	c7 41 1c 00 00
	00 00		 mov	 DWORD PTR [ecx+28], 0
$LN3@CSTLogger:

; 92   :     }
; 93   :     if(m_pLogger)			{

  0007c	8b 55 fc	 mov	 edx, DWORD PTR _this$[ebp]
  0007f	83 7a 0c 00	 cmp	 DWORD PTR [edx+12], 0
  00083	74 35		 je	 SHORT $LN4@CSTLogger

; 94   :         delete m_pLogger;

  00085	8b 45 fc	 mov	 eax, DWORD PTR _this$[ebp]
  00088	8b 48 0c	 mov	 ecx, DWORD PTR [eax+12]
  0008b	89 4d ec	 mov	 DWORD PTR $T1[ebp], ecx
  0008e	8b 55 ec	 mov	 edx, DWORD PTR $T1[ebp]
  00091	89 55 f0	 mov	 DWORD PTR $T2[ebp], edx
  00094	83 7d f0 00	 cmp	 DWORD PTR $T2[ebp], 0
  00098	74 0f		 je	 SHORT $LN7@CSTLogger
  0009a	6a 01		 push	 1
  0009c	8b 4d f0	 mov	 ecx, DWORD PTR $T2[ebp]
  0009f	e8 00 00 00 00	 call	 ??_GCLogger@@QAEPAXI@Z
  000a4	89 45 e8	 mov	 DWORD PTR tv86[ebp], eax
  000a7	eb 07		 jmp	 SHORT $LN8@CSTLogger
$LN7@CSTLogger:
  000a9	c7 45 e8 00 00
	00 00		 mov	 DWORD PTR tv86[ebp], 0
$LN8@CSTLogger:

; 95   :         m_pLogger = NULL;

  000b0	8b 45 fc	 mov	 eax, DWORD PTR _this$[ebp]
  000b3	c7 40 0c 00 00
	00 00		 mov	 DWORD PTR [eax+12], 0
$LN4@CSTLogger:

; 96   :     }
; 97   :     if(m_sLogQueue.pList)	{

  000ba	8b 4d fc	 mov	 ecx, DWORD PTR _this$[ebp]
  000bd	83 79 40 00	 cmp	 DWORD PTR [ecx+64], 0
  000c1	74 23		 je	 SHORT $LN5@CSTLogger

; 98   :         free(m_sLogQueue.pList);

  000c3	8b f4		 mov	 esi, esp
  000c5	8b 55 fc	 mov	 edx, DWORD PTR _this$[ebp]
  000c8	8b 42 40	 mov	 eax, DWORD PTR [edx+64]
  000cb	50		 push	 eax
  000cc	ff 15 00 00 00
	00		 call	 DWORD PTR __imp__free
  000d2	83 c4 04	 add	 esp, 4
  000d5	3b f4		 cmp	 esi, esp
  000d7	e8 00 00 00 00	 call	 __RTC_CheckEsp

; 99   :         m_sLogQueue.pList = NULL;

  000dc	8b 4d fc	 mov	 ecx, DWORD PTR _this$[ebp]
  000df	c7 41 40 00 00
	00 00		 mov	 DWORD PTR [ecx+64], 0
$LN5@CSTLogger:

; 100  :     }
; 101  : 	m_nFlag = 0;

  000e6	8b 55 fc	 mov	 edx, DWORD PTR _this$[ebp]
  000e9	c7 42 20 00 00
	00 00		 mov	 DWORD PTR [edx+32], 0

; 102  : }

  000f0	8b 4d fc	 mov	 ecx, DWORD PTR _this$[ebp]
  000f3	83 c1 44	 add	 ecx, 68			; 00000044H
  000f6	e8 00 00 00 00	 call	 ??1condition@win32@common@@UAE@XZ ; common::win32::condition::~condition
  000fb	5e		 pop	 esi
  000fc	83 c4 18	 add	 esp, 24			; 00000018H
  000ff	3b ec		 cmp	 ebp, esp
  00101	e8 00 00 00 00	 call	 __RTC_CheckEsp
  00106	8b e5		 mov	 esp, ebp
  00108	5d		 pop	 ebp
  00109	c3		 ret	 0
??1CSTLogger@@QAE@XZ ENDP				; CSTLogger::~CSTLogger
_TEXT	ENDS
; Function compile flags: /Odtp /RTCsu
; File d:\newproject2\com\src\comstlogger.cpp
_TEXT	SEGMENT
_this$ = -16						; size = 4
__$EHRec$ = -12						; size = 12
_bAble$ = 8						; size = 1
??0CSTLogger@@QAE@_N@Z PROC				; CSTLogger::CSTLogger
; _this$ = ecx

; 77   : {

  00000	55		 push	 ebp
  00001	8b ec		 mov	 ebp, esp
  00003	6a ff		 push	 -1
  00005	68 00 00 00 00	 push	 __ehhandler$??0CSTLogger@@QAE@_N@Z
  0000a	64 a1 00 00 00
	00		 mov	 eax, DWORD PTR fs:0
  00010	50		 push	 eax
  00011	51		 push	 ecx
  00012	c7 45 f0 cc cc
	cc cc		 mov	 DWORD PTR [ebp-16], -858993460 ; ccccccccH
  00019	a1 00 00 00 00	 mov	 eax, DWORD PTR ___security_cookie
  0001e	33 c5		 xor	 eax, ebp
  00020	50		 push	 eax
  00021	8d 45 f4	 lea	 eax, DWORD PTR __$EHRec$[ebp]
  00024	64 a3 00 00 00
	00		 mov	 DWORD PTR fs:0, eax
  0002a	89 4d f0	 mov	 DWORD PTR _this$[ebp], ecx
  0002d	8b 4d f0	 mov	 ecx, DWORD PTR _this$[ebp]
  00030	83 c1 44	 add	 ecx, 68			; 00000044H
  00033	e8 00 00 00 00	 call	 ??0condition@win32@common@@QAE@XZ ; common::win32::condition::condition
  00038	c7 45 fc 00 00
	00 00		 mov	 DWORD PTR __$EHRec$[ebp+8], 0

; 78   : 	_initClass(bAble);

  0003f	0f b6 45 08	 movzx	 eax, BYTE PTR _bAble$[ebp]
  00043	50		 push	 eax
  00044	8b 4d f0	 mov	 ecx, DWORD PTR _this$[ebp]
  00047	e8 00 00 00 00	 call	 ?_initClass@CSTLogger@@AAEX_N@Z ; CSTLogger::_initClass

; 79   : }

  0004c	c7 45 fc ff ff
	ff ff		 mov	 DWORD PTR __$EHRec$[ebp+8], -1
  00053	8b 45 f0	 mov	 eax, DWORD PTR _this$[ebp]
  00056	8b 4d f4	 mov	 ecx, DWORD PTR __$EHRec$[ebp]
  00059	64 89 0d 00 00
	00 00		 mov	 DWORD PTR fs:0, ecx
  00060	59		 pop	 ecx
  00061	83 c4 10	 add	 esp, 16			; 00000010H
  00064	3b ec		 cmp	 ebp, esp
  00066	e8 00 00 00 00	 call	 __RTC_CheckEsp
  0006b	8b e5		 mov	 esp, ebp
  0006d	5d		 pop	 ebp
  0006e	c2 04 00	 ret	 4
_TEXT	ENDS
text$x	SEGMENT
__unwindfunclet$??0CSTLogger@@QAE@_N@Z$0:
  00000	8b 4d f0	 mov	 ecx, DWORD PTR _this$[ebp]
  00003	83 c1 44	 add	 ecx, 68			; 00000044H
  00006	e9 00 00 00 00	 jmp	 ??1condition@win32@common@@UAE@XZ ; common::win32::condition::~condition
__ehhandler$??0CSTLogger@@QAE@_N@Z:
  0000b	8b 54 24 08	 mov	 edx, DWORD PTR [esp+8]
  0000f	8d 42 0c	 lea	 eax, DWORD PTR [edx+12]
  00012	8b 4a f8	 mov	 ecx, DWORD PTR [edx-8]
  00015	33 c8		 xor	 ecx, eax
  00017	e8 00 00 00 00	 call	 @__security_check_cookie@4
  0001c	b8 00 00 00 00	 mov	 eax, OFFSET __ehfuncinfo$??0CSTLogger@@QAE@_N@Z
  00021	e9 00 00 00 00	 jmp	 ___CxxFrameHandler3
text$x	ENDS
??0CSTLogger@@QAE@_N@Z ENDP				; CSTLogger::CSTLogger
; Function compile flags: /Odtp /RTCsu
; File d:\newproject2\com\src\comstlogger.cpp
_TEXT	SEGMENT
_this$ = -16						; size = 4
__$EHRec$ = -12						; size = 12
??0CSTLogger@@QAE@XZ PROC				; CSTLogger::CSTLogger
; _this$ = ecx

; 73   : {

  00000	55		 push	 ebp
  00001	8b ec		 mov	 ebp, esp
  00003	6a ff		 push	 -1
  00005	68 00 00 00 00	 push	 __ehhandler$??0CSTLogger@@QAE@XZ
  0000a	64 a1 00 00 00
	00		 mov	 eax, DWORD PTR fs:0
  00010	50		 push	 eax
  00011	51		 push	 ecx
  00012	c7 45 f0 cc cc
	cc cc		 mov	 DWORD PTR [ebp-16], -858993460 ; ccccccccH
  00019	a1 00 00 00 00	 mov	 eax, DWORD PTR ___security_cookie
  0001e	33 c5		 xor	 eax, ebp
  00020	50		 push	 eax
  00021	8d 45 f4	 lea	 eax, DWORD PTR __$EHRec$[ebp]
  00024	64 a3 00 00 00
	00		 mov	 DWORD PTR fs:0, eax
  0002a	89 4d f0	 mov	 DWORD PTR _this$[ebp], ecx
  0002d	8b 4d f0	 mov	 ecx, DWORD PTR _this$[ebp]
  00030	83 c1 44	 add	 ecx, 68			; 00000044H
  00033	e8 00 00 00 00	 call	 ??0condition@win32@common@@QAE@XZ ; common::win32::condition::condition
  00038	c7 45 fc 00 00
	00 00		 mov	 DWORD PTR __$EHRec$[ebp+8], 0

; 74   : 	_initClass(true);

  0003f	6a 01		 push	 1
  00041	8b 4d f0	 mov	 ecx, DWORD PTR _this$[ebp]
  00044	e8 00 00 00 00	 call	 ?_initClass@CSTLogger@@AAEX_N@Z ; CSTLogger::_initClass

; 75   : }

  00049	c7 45 fc ff ff
	ff ff		 mov	 DWORD PTR __$EHRec$[ebp+8], -1
  00050	8b 45 f0	 mov	 eax, DWORD PTR _this$[ebp]
  00053	8b 4d f4	 mov	 ecx, DWORD PTR __$EHRec$[ebp]
  00056	64 89 0d 00 00
	00 00		 mov	 DWORD PTR fs:0, ecx
  0005d	59		 pop	 ecx
  0005e	83 c4 10	 add	 esp, 16			; 00000010H
  00061	3b ec		 cmp	 ebp, esp
  00063	e8 00 00 00 00	 call	 __RTC_CheckEsp
  00068	8b e5		 mov	 esp, ebp
  0006a	5d		 pop	 ebp
  0006b	c3		 ret	 0
_TEXT	ENDS
text$x	SEGMENT
__unwindfunclet$??0CSTLogger@@QAE@XZ$0:
  00000	8b 4d f0	 mov	 ecx, DWORD PTR _this$[ebp]
  00003	83 c1 44	 add	 ecx, 68			; 00000044H
  00006	e9 00 00 00 00	 jmp	 ??1condition@win32@common@@UAE@XZ ; common::win32::condition::~condition
__ehhandler$??0CSTLogger@@QAE@XZ:
  0000b	8b 54 24 08	 mov	 edx, DWORD PTR [esp+8]
  0000f	8d 42 0c	 lea	 eax, DWORD PTR [edx+12]
  00012	8b 4a f8	 mov	 ecx, DWORD PTR [edx-8]
  00015	33 c8		 xor	 ecx, eax
  00017	e8 00 00 00 00	 call	 @__security_check_cookie@4
  0001c	b8 00 00 00 00	 mov	 eax, OFFSET __ehfuncinfo$??0CSTLogger@@QAE@XZ
  00021	e9 00 00 00 00	 jmp	 ___CxxFrameHandler3
text$x	ENDS
??0CSTLogger@@QAE@XZ ENDP				; CSTLogger::CSTLogger
; Function compile flags: /Odtp /RTCsu
; File d:\newproject2\com\include\comdatetime.h
;	COMDAT ?Sec@CDateTime@@QAEHXZ
_TEXT	SEGMENT
_this$ = -4						; size = 4
?Sec@CDateTime@@QAEHXZ PROC				; CDateTime::Sec, COMDAT
; _this$ = ecx

; 49   : 	inline int	Sec()		{ return m_tm.tm_sec; }

  00000	55		 push	 ebp
  00001	8b ec		 mov	 ebp, esp
  00003	51		 push	 ecx
  00004	c7 45 fc cc cc
	cc cc		 mov	 DWORD PTR [ebp-4], -858993460 ; ccccccccH
  0000b	89 4d fc	 mov	 DWORD PTR _this$[ebp], ecx
  0000e	8b 45 fc	 mov	 eax, DWORD PTR _this$[ebp]
  00011	8b 00		 mov	 eax, DWORD PTR [eax]
  00013	8b e5		 mov	 esp, ebp
  00015	5d		 pop	 ebp
  00016	c3		 ret	 0
?Sec@CDateTime@@QAEHXZ ENDP				; CDateTime::Sec
_TEXT	ENDS
; Function compile flags: /Odtp /RTCsu
; File d:\newproject2\com\include\comdatetime.h
;	COMDAT ?Minute@CDateTime@@QAEHXZ
_TEXT	SEGMENT
_this$ = -4						; size = 4
?Minute@CDateTime@@QAEHXZ PROC				; CDateTime::Minute, COMDAT
; _this$ = ecx

; 48   : 	inline int	Minute()	{ return m_tm.tm_min; }

  00000	55		 push	 ebp
  00001	8b ec		 mov	 ebp, esp
  00003	51		 push	 ecx
  00004	c7 45 fc cc cc
	cc cc		 mov	 DWORD PTR [ebp-4], -858993460 ; ccccccccH
  0000b	89 4d fc	 mov	 DWORD PTR _this$[ebp], ecx
  0000e	8b 45 fc	 mov	 eax, DWORD PTR _this$[ebp]
  00011	8b 40 04	 mov	 eax, DWORD PTR [eax+4]
  00014	8b e5		 mov	 esp, ebp
  00016	5d		 pop	 ebp
  00017	c3		 ret	 0
?Minute@CDateTime@@QAEHXZ ENDP				; CDateTime::Minute
_TEXT	ENDS
; Function compile flags: /Odtp /RTCsu
; File d:\newproject2\com\include\comdatetime.h
;	COMDAT ?Hour@CDateTime@@QAEHXZ
_TEXT	SEGMENT
_this$ = -4						; size = 4
?Hour@CDateTime@@QAEHXZ PROC				; CDateTime::Hour, COMDAT
; _this$ = ecx

; 47   : 	inline int	Hour()		{ return m_tm.tm_hour; }

  00000	55		 push	 ebp
  00001	8b ec		 mov	 ebp, esp
  00003	51		 push	 ecx
  00004	c7 45 fc cc cc
	cc cc		 mov	 DWORD PTR [ebp-4], -858993460 ; ccccccccH
  0000b	89 4d fc	 mov	 DWORD PTR _this$[ebp], ecx
  0000e	8b 45 fc	 mov	 eax, DWORD PTR _this$[ebp]
  00011	8b 40 08	 mov	 eax, DWORD PTR [eax+8]
  00014	8b e5		 mov	 esp, ebp
  00016	5d		 pop	 ebp
  00017	c3		 ret	 0
?Hour@CDateTime@@QAEHXZ ENDP				; CDateTime::Hour
_TEXT	ENDS
; Function compile flags: /Odtp /RTCsu
; File d:\newproject2\com\include\comdatetime.h
;	COMDAT ?Wday@CDateTime@@QAEHXZ
_TEXT	SEGMENT
_this$ = -4						; size = 4
?Wday@CDateTime@@QAEHXZ PROC				; CDateTime::Wday, COMDAT
; _this$ = ecx

; 46   : 	inline int	Wday()		{ return m_tm.tm_wday; }

  00000	55		 push	 ebp
  00001	8b ec		 mov	 ebp, esp
  00003	51		 push	 ecx
  00004	c7 45 fc cc cc
	cc cc		 mov	 DWORD PTR [ebp-4], -858993460 ; ccccccccH
  0000b	89 4d fc	 mov	 DWORD PTR _this$[ebp], ecx
  0000e	8b 45 fc	 mov	 eax, DWORD PTR _this$[ebp]
  00011	8b 40 18	 mov	 eax, DWORD PTR [eax+24]
  00014	8b e5		 mov	 esp, ebp
  00016	5d		 pop	 ebp
  00017	c3		 ret	 0
?Wday@CDateTime@@QAEHXZ ENDP				; CDateTime::Wday
_TEXT	ENDS
; Function compile flags: /Odtp /RTCsu
; File d:\newproject2\com\include\comdatetime.h
;	COMDAT ?Mday@CDateTime@@QAEHXZ
_TEXT	SEGMENT
_this$ = -4						; size = 4
?Mday@CDateTime@@QAEHXZ PROC				; CDateTime::Mday, COMDAT
; _this$ = ecx

; 45   : 	inline int	Mday()		{ return m_tm.tm_mday; }

  00000	55		 push	 ebp
  00001	8b ec		 mov	 ebp, esp
  00003	51		 push	 ecx
  00004	c7 45 fc cc cc
	cc cc		 mov	 DWORD PTR [ebp-4], -858993460 ; ccccccccH
  0000b	89 4d fc	 mov	 DWORD PTR _this$[ebp], ecx
  0000e	8b 45 fc	 mov	 eax, DWORD PTR _this$[ebp]
  00011	8b 40 0c	 mov	 eax, DWORD PTR [eax+12]
  00014	8b e5		 mov	 esp, ebp
  00016	5d		 pop	 ebp
  00017	c3		 ret	 0
?Mday@CDateTime@@QAEHXZ ENDP				; CDateTime::Mday
_TEXT	ENDS
; Function compile flags: /Odtp /RTCsu
; File d:\newproject2\com\include\comdatetime.h
;	COMDAT ?Month@CDateTime@@QAEHXZ
_TEXT	SEGMENT
_this$ = -4						; size = 4
?Month@CDateTime@@QAEHXZ PROC				; CDateTime::Month, COMDAT
; _this$ = ecx

; 44   : 	inline int	Month()		{ return m_tm.tm_mon + 1; }

  00000	55		 push	 ebp
  00001	8b ec		 mov	 ebp, esp
  00003	51		 push	 ecx
  00004	c7 45 fc cc cc
	cc cc		 mov	 DWORD PTR [ebp-4], -858993460 ; ccccccccH
  0000b	89 4d fc	 mov	 DWORD PTR _this$[ebp], ecx
  0000e	8b 45 fc	 mov	 eax, DWORD PTR _this$[ebp]
  00011	8b 40 10	 mov	 eax, DWORD PTR [eax+16]
  00014	83 c0 01	 add	 eax, 1
  00017	8b e5		 mov	 esp, ebp
  00019	5d		 pop	 ebp
  0001a	c3		 ret	 0
?Month@CDateTime@@QAEHXZ ENDP				; CDateTime::Month
_TEXT	ENDS
; Function compile flags: /Odtp /RTCsu
; File d:\newproject2\com\include\comdatetime.h
;	COMDAT ?Year@CDateTime@@QAEHXZ
_TEXT	SEGMENT
_this$ = -4						; size = 4
?Year@CDateTime@@QAEHXZ PROC				; CDateTime::Year, COMDAT
; _this$ = ecx

; 43   : 	inline int	Year()		{ return m_tm.tm_year + 1900; }

  00000	55		 push	 ebp
  00001	8b ec		 mov	 ebp, esp
  00003	51		 push	 ecx
  00004	c7 45 fc cc cc
	cc cc		 mov	 DWORD PTR [ebp-4], -858993460 ; ccccccccH
  0000b	89 4d fc	 mov	 DWORD PTR _this$[ebp], ecx
  0000e	8b 45 fc	 mov	 eax, DWORD PTR _this$[ebp]
  00011	8b 40 14	 mov	 eax, DWORD PTR [eax+20]
  00014	05 6c 07 00 00	 add	 eax, 1900		; 0000076cH
  00019	8b e5		 mov	 esp, ebp
  0001b	5d		 pop	 ebp
  0001c	c3		 ret	 0
?Year@CDateTime@@QAEHXZ ENDP				; CDateTime::Year
_TEXT	ENDS
; Function compile flags: /Odtp /RTCsu
; File d:\newproject2\com\include\comtypes.h
;	COMDAT ?front@StCOMQueue@@QAEPAXXZ
_TEXT	SEGMENT
_this$ = -4						; size = 4
?front@StCOMQueue@@QAEPAXXZ PROC			; StCOMQueue::front, COMDAT
; _this$ = ecx

; 237  : 	inline void * front()				{ return pList[nFront]; } // single thread (No Lock required)

  00000	55		 push	 ebp
  00001	8b ec		 mov	 ebp, esp
  00003	51		 push	 ecx
  00004	c7 45 fc cc cc
	cc cc		 mov	 DWORD PTR [ebp-4], -858993460 ; ccccccccH
  0000b	89 4d fc	 mov	 DWORD PTR _this$[ebp], ecx
  0000e	8b 45 fc	 mov	 eax, DWORD PTR _this$[ebp]
  00011	8b 48 04	 mov	 ecx, DWORD PTR [eax+4]
  00014	8b 55 fc	 mov	 edx, DWORD PTR _this$[ebp]
  00017	8b 42 0c	 mov	 eax, DWORD PTR [edx+12]
  0001a	8b 04 88	 mov	 eax, DWORD PTR [eax+ecx*4]
  0001d	8b e5		 mov	 esp, ebp
  0001f	5d		 pop	 ebp
  00020	c3		 ret	 0
?front@StCOMQueue@@QAEPAXXZ ENDP			; StCOMQueue::front
_TEXT	ENDS
; Function compile flags: /Odtp /RTCsu
; File d:\newproject2\com\include\comtypes.h
;	COMDAT ?isFull@StCOMQueue@@QAE_NXZ
_TEXT	SEGMENT
tv68 = -8						; size = 4
_this$ = -4						; size = 4
?isFull@StCOMQueue@@QAE_NXZ PROC			; StCOMQueue::isFull, COMDAT
; _this$ = ecx

; 236  : 	inline bool isFull()				{ return (nMax == size()); }

  00000	55		 push	 ebp
  00001	8b ec		 mov	 ebp, esp
  00003	83 ec 08	 sub	 esp, 8
  00006	c7 45 f8 cc cc
	cc cc		 mov	 DWORD PTR [ebp-8], -858993460 ; ccccccccH
  0000d	c7 45 fc cc cc
	cc cc		 mov	 DWORD PTR [ebp-4], -858993460 ; ccccccccH
  00014	89 4d fc	 mov	 DWORD PTR _this$[ebp], ecx
  00017	8b 4d fc	 mov	 ecx, DWORD PTR _this$[ebp]
  0001a	e8 00 00 00 00	 call	 ?size@StCOMQueue@@QAEHXZ ; StCOMQueue::size
  0001f	8b 4d fc	 mov	 ecx, DWORD PTR _this$[ebp]
  00022	39 41 08	 cmp	 DWORD PTR [ecx+8], eax
  00025	75 09		 jne	 SHORT $LN3@isFull
  00027	c7 45 f8 01 00
	00 00		 mov	 DWORD PTR tv68[ebp], 1
  0002e	eb 07		 jmp	 SHORT $LN4@isFull
$LN3@isFull:
  00030	c7 45 f8 00 00
	00 00		 mov	 DWORD PTR tv68[ebp], 0
$LN4@isFull:
  00037	8a 45 f8	 mov	 al, BYTE PTR tv68[ebp]
  0003a	83 c4 08	 add	 esp, 8
  0003d	3b ec		 cmp	 ebp, esp
  0003f	e8 00 00 00 00	 call	 __RTC_CheckEsp
  00044	8b e5		 mov	 esp, ebp
  00046	5d		 pop	 ebp
  00047	c3		 ret	 0
?isFull@StCOMQueue@@QAE_NXZ ENDP			; StCOMQueue::isFull
_TEXT	ENDS
; Function compile flags: /Odtp /RTCsu
; File d:\newproject2\com\include\comtypes.h
;	COMDAT ?push@StCOMQueue@@QAEXPAX@Z
_TEXT	SEGMENT
_this$ = -4						; size = 4
_pData$ = 8						; size = 4
?push@StCOMQueue@@QAEXPAX@Z PROC			; StCOMQueue::push, COMDAT
; _this$ = ecx

; 235  : 	inline void push(void *pData)		{ pList[nLast] = pData; nLast++; if(nLast==nMax) nLast=0; } // multi thread (Lock required)

  00000	55		 push	 ebp
  00001	8b ec		 mov	 ebp, esp
  00003	51		 push	 ecx
  00004	c7 45 fc cc cc
	cc cc		 mov	 DWORD PTR [ebp-4], -858993460 ; ccccccccH
  0000b	89 4d fc	 mov	 DWORD PTR _this$[ebp], ecx
  0000e	8b 45 fc	 mov	 eax, DWORD PTR _this$[ebp]
  00011	8b 08		 mov	 ecx, DWORD PTR [eax]
  00013	8b 55 fc	 mov	 edx, DWORD PTR _this$[ebp]
  00016	8b 42 0c	 mov	 eax, DWORD PTR [edx+12]
  00019	8b 55 08	 mov	 edx, DWORD PTR _pData$[ebp]
  0001c	89 14 88	 mov	 DWORD PTR [eax+ecx*4], edx
  0001f	8b 45 fc	 mov	 eax, DWORD PTR _this$[ebp]
  00022	8b 08		 mov	 ecx, DWORD PTR [eax]
  00024	83 c1 01	 add	 ecx, 1
  00027	8b 55 fc	 mov	 edx, DWORD PTR _this$[ebp]
  0002a	89 0a		 mov	 DWORD PTR [edx], ecx
  0002c	8b 45 fc	 mov	 eax, DWORD PTR _this$[ebp]
  0002f	8b 4d fc	 mov	 ecx, DWORD PTR _this$[ebp]
  00032	8b 10		 mov	 edx, DWORD PTR [eax]
  00034	3b 51 08	 cmp	 edx, DWORD PTR [ecx+8]
  00037	75 09		 jne	 SHORT $LN1@push
  00039	8b 45 fc	 mov	 eax, DWORD PTR _this$[ebp]
  0003c	c7 00 00 00 00
	00		 mov	 DWORD PTR [eax], 0
$LN1@push:
  00042	8b e5		 mov	 esp, ebp
  00044	5d		 pop	 ebp
  00045	c2 04 00	 ret	 4
?push@StCOMQueue@@QAEXPAX@Z ENDP			; StCOMQueue::push
_TEXT	ENDS
; Function compile flags: /Odtp /RTCsu
; File d:\newproject2\com\include\comtypes.h
;	COMDAT ?pop@StCOMQueue@@QAEXXZ
_TEXT	SEGMENT
_this$ = -4						; size = 4
?pop@StCOMQueue@@QAEXXZ PROC				; StCOMQueue::pop, COMDAT
; _this$ = ecx

; 234  : 	inline void pop()					{ pList[nFront] = NULL; nFront++; if(nFront==nMax) nFront=0; } // single thread (No Lock required)

  00000	55		 push	 ebp
  00001	8b ec		 mov	 ebp, esp
  00003	51		 push	 ecx
  00004	c7 45 fc cc cc
	cc cc		 mov	 DWORD PTR [ebp-4], -858993460 ; ccccccccH
  0000b	89 4d fc	 mov	 DWORD PTR _this$[ebp], ecx
  0000e	8b 45 fc	 mov	 eax, DWORD PTR _this$[ebp]
  00011	8b 48 04	 mov	 ecx, DWORD PTR [eax+4]
  00014	8b 55 fc	 mov	 edx, DWORD PTR _this$[ebp]
  00017	8b 42 0c	 mov	 eax, DWORD PTR [edx+12]
  0001a	c7 04 88 00 00
	00 00		 mov	 DWORD PTR [eax+ecx*4], 0
  00021	8b 4d fc	 mov	 ecx, DWORD PTR _this$[ebp]
  00024	8b 51 04	 mov	 edx, DWORD PTR [ecx+4]
  00027	83 c2 01	 add	 edx, 1
  0002a	8b 45 fc	 mov	 eax, DWORD PTR _this$[ebp]
  0002d	89 50 04	 mov	 DWORD PTR [eax+4], edx
  00030	8b 4d fc	 mov	 ecx, DWORD PTR _this$[ebp]
  00033	8b 55 fc	 mov	 edx, DWORD PTR _this$[ebp]
  00036	8b 41 04	 mov	 eax, DWORD PTR [ecx+4]
  00039	3b 42 08	 cmp	 eax, DWORD PTR [edx+8]
  0003c	75 0a		 jne	 SHORT $LN1@pop
  0003e	8b 4d fc	 mov	 ecx, DWORD PTR _this$[ebp]
  00041	c7 41 04 00 00
	00 00		 mov	 DWORD PTR [ecx+4], 0
$LN1@pop:
  00048	8b e5		 mov	 esp, ebp
  0004a	5d		 pop	 ebp
  0004b	c3		 ret	 0
?pop@StCOMQueue@@QAEXXZ ENDP				; StCOMQueue::pop
_TEXT	ENDS
; Function compile flags: /Odtp /RTCsu
; File d:\newproject2\com\include\comtypes.h
;	COMDAT ?size@StCOMQueue@@QAEHXZ
_TEXT	SEGMENT
_res$ = -8						; size = 4
_this$ = -4						; size = 4
?size@StCOMQueue@@QAEHXZ PROC				; StCOMQueue::size, COMDAT
; _this$ = ecx

; 233  : 	inline int size() { int res = nLast - nFront; if (res < 0) return -res; return res; } // single thread (No Lock required)

  00000	55		 push	 ebp
  00001	8b ec		 mov	 ebp, esp
  00003	83 ec 08	 sub	 esp, 8
  00006	c7 45 f8 cc cc
	cc cc		 mov	 DWORD PTR [ebp-8], -858993460 ; ccccccccH
  0000d	c7 45 fc cc cc
	cc cc		 mov	 DWORD PTR [ebp-4], -858993460 ; ccccccccH
  00014	89 4d fc	 mov	 DWORD PTR _this$[ebp], ecx
  00017	8b 45 fc	 mov	 eax, DWORD PTR _this$[ebp]
  0001a	8b 4d fc	 mov	 ecx, DWORD PTR _this$[ebp]
  0001d	8b 10		 mov	 edx, DWORD PTR [eax]
  0001f	2b 51 04	 sub	 edx, DWORD PTR [ecx+4]
  00022	89 55 f8	 mov	 DWORD PTR _res$[ebp], edx
  00025	79 07		 jns	 SHORT $LN2@size
  00027	8b 45 f8	 mov	 eax, DWORD PTR _res$[ebp]
  0002a	f7 d8		 neg	 eax
  0002c	eb 03		 jmp	 SHORT $LN1@size
$LN2@size:
  0002e	8b 45 f8	 mov	 eax, DWORD PTR _res$[ebp]
$LN1@size:
  00031	8b e5		 mov	 esp, ebp
  00033	5d		 pop	 ebp
  00034	c3		 ret	 0
?size@StCOMQueue@@QAEHXZ ENDP				; StCOMQueue::size
_TEXT	ENDS
; Function compile flags: /Odtp /RTCsu
;	COMDAT ??_Gcondition@win32@common@@UAEPAXI@Z
_TEXT	SEGMENT
_this$ = -4						; size = 4
___flags$ = 8						; size = 4
??_Gcondition@win32@common@@UAEPAXI@Z PROC		; common::win32::condition::`scalar deleting destructor', COMDAT
; _this$ = ecx
  00000	55		 push	 ebp
  00001	8b ec		 mov	 ebp, esp
  00003	51		 push	 ecx
  00004	c7 45 fc cc cc
	cc cc		 mov	 DWORD PTR [ebp-4], -858993460 ; ccccccccH
  0000b	89 4d fc	 mov	 DWORD PTR _this$[ebp], ecx
  0000e	8b 4d fc	 mov	 ecx, DWORD PTR _this$[ebp]
  00011	e8 00 00 00 00	 call	 ??1condition@win32@common@@UAE@XZ ; common::win32::condition::~condition
  00016	8b 45 08	 mov	 eax, DWORD PTR ___flags$[ebp]
  00019	83 e0 01	 and	 eax, 1
  0001c	74 0e		 je	 SHORT $LN2@scalar
  0001e	6a 08		 push	 8
  00020	8b 4d fc	 mov	 ecx, DWORD PTR _this$[ebp]
  00023	51		 push	 ecx
  00024	e8 00 00 00 00	 call	 ??3@YAXPAXI@Z		; operator delete
  00029	83 c4 08	 add	 esp, 8
$LN2@scalar:
  0002c	8b 45 fc	 mov	 eax, DWORD PTR _this$[ebp]
  0002f	83 c4 04	 add	 esp, 4
  00032	3b ec		 cmp	 ebp, esp
  00034	e8 00 00 00 00	 call	 __RTC_CheckEsp
  00039	8b e5		 mov	 esp, ebp
  0003b	5d		 pop	 ebp
  0003c	c2 04 00	 ret	 4
??_Gcondition@win32@common@@UAEPAXI@Z ENDP		; common::win32::condition::`scalar deleting destructor'
_TEXT	ENDS
; Function compile flags: /Odtp /RTCsu
; File d:\newproject2\com\include\com\win32\win32_mtsync.h
;	COMDAT ?wait@condition@win32@common@@QAE_NHPAVcritical_section@23@@Z
_TEXT	SEGMENT
tv80 = -20						; size = 4
tv65 = -16						; size = 4
_rv$ = -9						; size = 1
_timeout$ = -8						; size = 4
_this$ = -4						; size = 4
_milliseconds$ = 8					; size = 4
_p$ = 12						; size = 4
?wait@condition@win32@common@@QAE_NHPAVcritical_section@23@@Z PROC ; common::win32::condition::wait, COMDAT
; _this$ = ecx

; 115  : 	  {

  00000	55		 push	 ebp
  00001	8b ec		 mov	 ebp, esp
  00003	83 ec 14	 sub	 esp, 20			; 00000014H
  00006	56		 push	 esi
  00007	b8 cc cc cc cc	 mov	 eax, -858993460		; ccccccccH
  0000c	89 45 ec	 mov	 DWORD PTR [ebp-20], eax
  0000f	89 45 f0	 mov	 DWORD PTR [ebp-16], eax
  00012	89 45 f4	 mov	 DWORD PTR [ebp-12], eax
  00015	89 45 f8	 mov	 DWORD PTR [ebp-8], eax
  00018	89 45 fc	 mov	 DWORD PTR [ebp-4], eax
  0001b	89 4d fc	 mov	 DWORD PTR _this$[ebp], ecx

; 116  : 			DWORD timeout = milliseconds < 0 ? INFINITE : milliseconds;

  0001e	83 7d 08 00	 cmp	 DWORD PTR _milliseconds$[ebp], 0
  00022	7d 09		 jge	 SHORT $LN5@wait
  00024	c7 45 f0 ff ff
	ff ff		 mov	 DWORD PTR tv65[ebp], -1
  0002b	eb 06		 jmp	 SHORT $LN6@wait
$LN5@wait:
  0002d	8b 45 08	 mov	 eax, DWORD PTR _milliseconds$[ebp]
  00030	89 45 f0	 mov	 DWORD PTR tv65[ebp], eax
$LN6@wait:
  00033	8b 4d f0	 mov	 ecx, DWORD PTR tv65[ebp]
  00036	89 4d f8	 mov	 DWORD PTR _timeout$[ebp], ecx

; 117  : 			if(p) p->enter();

  00039	83 7d 0c 00	 cmp	 DWORD PTR _p$[ebp], 0
  0003d	74 18		 je	 SHORT $LN2@wait
  0003f	8b f4		 mov	 esi, esp
  00041	6a 01		 push	 1
  00043	8b 55 0c	 mov	 edx, DWORD PTR _p$[ebp]
  00046	8b 02		 mov	 eax, DWORD PTR [edx]
  00048	8b 4d 0c	 mov	 ecx, DWORD PTR _p$[ebp]
  0004b	8b 50 04	 mov	 edx, DWORD PTR [eax+4]
  0004e	ff d2		 call	 edx
  00050	3b f4		 cmp	 esi, esp
  00052	e8 00 00 00 00	 call	 __RTC_CheckEsp
$LN2@wait:

; 118  : 			bool rv = WaitForSingleObject(m_event, timeout) == WAIT_OBJECT_0;

  00057	8b f4		 mov	 esi, esp
  00059	8b 45 f8	 mov	 eax, DWORD PTR _timeout$[ebp]
  0005c	50		 push	 eax
  0005d	8b 4d fc	 mov	 ecx, DWORD PTR _this$[ebp]
  00060	8b 51 04	 mov	 edx, DWORD PTR [ecx+4]
  00063	52		 push	 edx
  00064	ff 15 00 00 00
	00		 call	 DWORD PTR __imp__WaitForSingleObject@8
  0006a	3b f4		 cmp	 esi, esp
  0006c	e8 00 00 00 00	 call	 __RTC_CheckEsp
  00071	85 c0		 test	 eax, eax
  00073	75 09		 jne	 SHORT $LN7@wait
  00075	c7 45 ec 01 00
	00 00		 mov	 DWORD PTR tv80[ebp], 1
  0007c	eb 07		 jmp	 SHORT $LN8@wait
$LN7@wait:
  0007e	c7 45 ec 00 00
	00 00		 mov	 DWORD PTR tv80[ebp], 0
$LN8@wait:
  00085	8a 45 ec	 mov	 al, BYTE PTR tv80[ebp]
  00088	88 45 f7	 mov	 BYTE PTR _rv$[ebp], al

; 119  : 			ResetEvent(m_event);

  0008b	8b f4		 mov	 esi, esp
  0008d	8b 4d fc	 mov	 ecx, DWORD PTR _this$[ebp]
  00090	8b 51 04	 mov	 edx, DWORD PTR [ecx+4]
  00093	52		 push	 edx
  00094	ff 15 00 00 00
	00		 call	 DWORD PTR __imp__ResetEvent@4
  0009a	3b f4		 cmp	 esi, esp
  0009c	e8 00 00 00 00	 call	 __RTC_CheckEsp

; 120  : 			if(p) p->leave();

  000a1	83 7d 0c 00	 cmp	 DWORD PTR _p$[ebp], 0
  000a5	74 16		 je	 SHORT $LN3@wait
  000a7	8b 45 0c	 mov	 eax, DWORD PTR _p$[ebp]
  000aa	8b 10		 mov	 edx, DWORD PTR [eax]
  000ac	8b f4		 mov	 esi, esp
  000ae	8b 4d 0c	 mov	 ecx, DWORD PTR _p$[ebp]
  000b1	8b 42 08	 mov	 eax, DWORD PTR [edx+8]
  000b4	ff d0		 call	 eax
  000b6	3b f4		 cmp	 esi, esp
  000b8	e8 00 00 00 00	 call	 __RTC_CheckEsp
$LN3@wait:

; 121  : 			return rv;

  000bd	8a 45 f7	 mov	 al, BYTE PTR _rv$[ebp]

; 122  : 	  }

  000c0	5e		 pop	 esi
  000c1	83 c4 14	 add	 esp, 20			; 00000014H
  000c4	3b ec		 cmp	 ebp, esp
  000c6	e8 00 00 00 00	 call	 __RTC_CheckEsp
  000cb	8b e5		 mov	 esp, ebp
  000cd	5d		 pop	 ebp
  000ce	c2 08 00	 ret	 8
?wait@condition@win32@common@@QAE_NHPAVcritical_section@23@@Z ENDP ; common::win32::condition::wait
_TEXT	ENDS
; Function compile flags: /Odtp /RTCsu
; File d:\newproject2\com\include\com\win32\win32_mtsync.h
;	COMDAT ?signal_all@condition@win32@common@@UAEXXZ
_TEXT	SEGMENT
_this$ = -4						; size = 4
?signal_all@condition@win32@common@@UAEXXZ PROC		; common::win32::condition::signal_all, COMDAT
; _this$ = ecx

; 111  : 	  void signal_all() { abort(); }

  00000	55		 push	 ebp
  00001	8b ec		 mov	 ebp, esp
  00003	51		 push	 ecx
  00004	56		 push	 esi
  00005	c7 45 fc cc cc
	cc cc		 mov	 DWORD PTR [ebp-4], -858993460 ; ccccccccH
  0000c	89 4d fc	 mov	 DWORD PTR _this$[ebp], ecx
  0000f	8b f4		 mov	 esi, esp
  00011	ff 15 00 00 00
	00		 call	 DWORD PTR __imp__abort
  00017	3b f4		 cmp	 esi, esp
  00019	e8 00 00 00 00	 call	 __RTC_CheckEsp
$LN2@signal_all:
  0001e	5e		 pop	 esi
  0001f	83 c4 04	 add	 esp, 4
  00022	3b ec		 cmp	 ebp, esp
  00024	e8 00 00 00 00	 call	 __RTC_CheckEsp
  00029	8b e5		 mov	 esp, ebp
  0002b	5d		 pop	 ebp
  0002c	c3		 ret	 0
?signal_all@condition@win32@common@@UAEXXZ ENDP		; common::win32::condition::signal_all
_TEXT	ENDS
; Function compile flags: /Odtp /RTCsu
; File d:\newproject2\com\include\com\win32\win32_mtsync.h
;	COMDAT ?signal@condition@win32@common@@UAEXXZ
_TEXT	SEGMENT
_this$ = -4						; size = 4
?signal@condition@win32@common@@UAEXXZ PROC		; common::win32::condition::signal, COMDAT
; _this$ = ecx

; 110  : 	  void signal() { SetEvent(m_event); }

  00000	55		 push	 ebp
  00001	8b ec		 mov	 ebp, esp
  00003	51		 push	 ecx
  00004	56		 push	 esi
  00005	c7 45 fc cc cc
	cc cc		 mov	 DWORD PTR [ebp-4], -858993460 ; ccccccccH
  0000c	89 4d fc	 mov	 DWORD PTR _this$[ebp], ecx
  0000f	8b f4		 mov	 esi, esp
  00011	8b 45 fc	 mov	 eax, DWORD PTR _this$[ebp]
  00014	8b 48 04	 mov	 ecx, DWORD PTR [eax+4]
  00017	51		 push	 ecx
  00018	ff 15 00 00 00
	00		 call	 DWORD PTR __imp__SetEvent@4
  0001e	3b f4		 cmp	 esi, esp
  00020	e8 00 00 00 00	 call	 __RTC_CheckEsp
  00025	5e		 pop	 esi
  00026	83 c4 04	 add	 esp, 4
  00029	3b ec		 cmp	 ebp, esp
  0002b	e8 00 00 00 00	 call	 __RTC_CheckEsp
  00030	8b e5		 mov	 esp, ebp
  00032	5d		 pop	 ebp
  00033	c3		 ret	 0
?signal@condition@win32@common@@UAEXXZ ENDP		; common::win32::condition::signal
_TEXT	ENDS
; Function compile flags: /Odtp /RTCsu
; File d:\newproject2\com\include\com\win32\win32_mtsync.h
;	COMDAT ??1condition@win32@common@@UAE@XZ
_TEXT	SEGMENT
_this$ = -4						; size = 4
??1condition@win32@common@@UAE@XZ PROC			; common::win32::condition::~condition, COMDAT
; _this$ = ecx

; 108  : 	  ~condition() { CloseHandle(m_event); }

  00000	55		 push	 ebp
  00001	8b ec		 mov	 ebp, esp
  00003	51		 push	 ecx
  00004	56		 push	 esi
  00005	c7 45 fc cc cc
	cc cc		 mov	 DWORD PTR [ebp-4], -858993460 ; ccccccccH
  0000c	89 4d fc	 mov	 DWORD PTR _this$[ebp], ecx
  0000f	8b 45 fc	 mov	 eax, DWORD PTR _this$[ebp]
  00012	c7 00 00 00 00
	00		 mov	 DWORD PTR [eax], OFFSET ??_7condition@win32@common@@6B@
  00018	8b f4		 mov	 esi, esp
  0001a	8b 4d fc	 mov	 ecx, DWORD PTR _this$[ebp]
  0001d	8b 51 04	 mov	 edx, DWORD PTR [ecx+4]
  00020	52		 push	 edx
  00021	ff 15 00 00 00
	00		 call	 DWORD PTR __imp__CloseHandle@4
  00027	3b f4		 cmp	 esi, esp
  00029	e8 00 00 00 00	 call	 __RTC_CheckEsp
  0002e	8b 4d fc	 mov	 ecx, DWORD PTR _this$[ebp]
  00031	e8 00 00 00 00	 call	 ??1abstract_condition@common@@UAE@XZ ; common::abstract_condition::~abstract_condition
  00036	5e		 pop	 esi
  00037	83 c4 04	 add	 esp, 4
  0003a	3b ec		 cmp	 ebp, esp
  0003c	e8 00 00 00 00	 call	 __RTC_CheckEsp
  00041	8b e5		 mov	 esp, ebp
  00043	5d		 pop	 ebp
  00044	c3		 ret	 0
??1condition@win32@common@@UAE@XZ ENDP			; common::win32::condition::~condition
_TEXT	ENDS
; Function compile flags: /Odtp /RTCsu
; File d:\newproject2\com\include\com\win32\win32_mtsync.h
;	COMDAT ??0condition@win32@common@@QAE@XZ
_TEXT	SEGMENT
_this$ = -4						; size = 4
??0condition@win32@common@@QAE@XZ PROC			; common::win32::condition::condition, COMDAT
; _this$ = ecx

; 107  : 	  condition() { m_event = CreateEvent(NULL, TRUE, FALSE, NULL);}

  00000	55		 push	 ebp
  00001	8b ec		 mov	 ebp, esp
  00003	51		 push	 ecx
  00004	56		 push	 esi
  00005	c7 45 fc cc cc
	cc cc		 mov	 DWORD PTR [ebp-4], -858993460 ; ccccccccH
  0000c	89 4d fc	 mov	 DWORD PTR _this$[ebp], ecx
  0000f	8b 4d fc	 mov	 ecx, DWORD PTR _this$[ebp]
  00012	e8 00 00 00 00	 call	 ??0abstract_condition@common@@QAE@XZ
  00017	8b 45 fc	 mov	 eax, DWORD PTR _this$[ebp]
  0001a	c7 00 00 00 00
	00		 mov	 DWORD PTR [eax], OFFSET ??_7condition@win32@common@@6B@
  00020	8b f4		 mov	 esi, esp
  00022	6a 00		 push	 0
  00024	6a 00		 push	 0
  00026	6a 01		 push	 1
  00028	6a 00		 push	 0
  0002a	ff 15 00 00 00
	00		 call	 DWORD PTR __imp__CreateEventA@16
  00030	3b f4		 cmp	 esi, esp
  00032	e8 00 00 00 00	 call	 __RTC_CheckEsp
  00037	8b 4d fc	 mov	 ecx, DWORD PTR _this$[ebp]
  0003a	89 41 04	 mov	 DWORD PTR [ecx+4], eax
  0003d	8b 45 fc	 mov	 eax, DWORD PTR _this$[ebp]
  00040	5e		 pop	 esi
  00041	83 c4 04	 add	 esp, 4
  00044	3b ec		 cmp	 ebp, esp
  00046	e8 00 00 00 00	 call	 __RTC_CheckEsp
  0004b	8b e5		 mov	 esp, ebp
  0004d	5d		 pop	 ebp
  0004e	c3		 ret	 0
??0condition@win32@common@@QAE@XZ ENDP			; common::win32::condition::condition
_TEXT	ENDS
; Function compile flags: /Odtp /RTCsu
;	COMDAT ??_Gabstract_condition@common@@UAEPAXI@Z
_TEXT	SEGMENT
_this$ = -4						; size = 4
___flags$ = 8						; size = 4
??_Gabstract_condition@common@@UAEPAXI@Z PROC		; common::abstract_condition::`scalar deleting destructor', COMDAT
; _this$ = ecx
  00000	55		 push	 ebp
  00001	8b ec		 mov	 ebp, esp
  00003	51		 push	 ecx
  00004	c7 45 fc cc cc
	cc cc		 mov	 DWORD PTR [ebp-4], -858993460 ; ccccccccH
  0000b	89 4d fc	 mov	 DWORD PTR _this$[ebp], ecx
  0000e	8b 4d fc	 mov	 ecx, DWORD PTR _this$[ebp]
  00011	e8 00 00 00 00	 call	 ??1abstract_condition@common@@UAE@XZ ; common::abstract_condition::~abstract_condition
  00016	8b 45 08	 mov	 eax, DWORD PTR ___flags$[ebp]
  00019	83 e0 01	 and	 eax, 1
  0001c	74 0e		 je	 SHORT $LN2@scalar
  0001e	6a 04		 push	 4
  00020	8b 4d fc	 mov	 ecx, DWORD PTR _this$[ebp]
  00023	51		 push	 ecx
  00024	e8 00 00 00 00	 call	 ??3@YAXPAXI@Z		; operator delete
  00029	83 c4 08	 add	 esp, 8
$LN2@scalar:
  0002c	8b 45 fc	 mov	 eax, DWORD PTR _this$[ebp]
  0002f	83 c4 04	 add	 esp, 4
  00032	3b ec		 cmp	 ebp, esp
  00034	e8 00 00 00 00	 call	 __RTC_CheckEsp
  00039	8b e5		 mov	 esp, ebp
  0003b	5d		 pop	 ebp
  0003c	c2 04 00	 ret	 4
??_Gabstract_condition@common@@UAEPAXI@Z ENDP		; common::abstract_condition::`scalar deleting destructor'
_TEXT	ENDS
; Function compile flags: /Odtp /RTCsu
;	COMDAT ??0abstract_condition@common@@QAE@XZ
_TEXT	SEGMENT
_this$ = -4						; size = 4
??0abstract_condition@common@@QAE@XZ PROC		; common::abstract_condition::abstract_condition, COMDAT
; _this$ = ecx
  00000	55		 push	 ebp
  00001	8b ec		 mov	 ebp, esp
  00003	51		 push	 ecx
  00004	c7 45 fc cc cc
	cc cc		 mov	 DWORD PTR [ebp-4], -858993460 ; ccccccccH
  0000b	89 4d fc	 mov	 DWORD PTR _this$[ebp], ecx
  0000e	8b 45 fc	 mov	 eax, DWORD PTR _this$[ebp]
  00011	c7 00 00 00 00
	00		 mov	 DWORD PTR [eax], OFFSET ??_7abstract_condition@common@@6B@
  00017	8b 45 fc	 mov	 eax, DWORD PTR _this$[ebp]
  0001a	8b e5		 mov	 esp, ebp
  0001c	5d		 pop	 ebp
  0001d	c3		 ret	 0
??0abstract_condition@common@@QAE@XZ ENDP		; common::abstract_condition::abstract_condition
_TEXT	ENDS
; Function compile flags: /Odtp /RTCsu
; File d:\newproject2\com\include\com\abstract_mtsync.h
;	COMDAT ??1abstract_condition@common@@UAE@XZ
_TEXT	SEGMENT
_this$ = -4						; size = 4
??1abstract_condition@common@@UAE@XZ PROC		; common::abstract_condition::~abstract_condition, COMDAT
; _this$ = ecx

; 72   : 	virtual ~abstract_condition() {}

  00000	55		 push	 ebp
  00001	8b ec		 mov	 ebp, esp
  00003	51		 push	 ecx
  00004	c7 45 fc cc cc
	cc cc		 mov	 DWORD PTR [ebp-4], -858993460 ; ccccccccH
  0000b	89 4d fc	 mov	 DWORD PTR _this$[ebp], ecx
  0000e	8b 45 fc	 mov	 eax, DWORD PTR _this$[ebp]
  00011	c7 00 00 00 00
	00		 mov	 DWORD PTR [eax], OFFSET ??_7abstract_condition@common@@6B@
  00017	8b e5		 mov	 esp, ebp
  00019	5d		 pop	 ebp
  0001a	c3		 ret	 0
??1abstract_condition@common@@UAE@XZ ENDP		; common::abstract_condition::~abstract_condition
_TEXT	ENDS
; Function compile flags: /Odtp /RTCsu
; File c:\program files (x86)\windows kits\10\include\10.0.10240.0\ucrt\stdio.h
;	COMDAT _sprintf
_TEXT	SEGMENT
__ArgList$ = -8						; size = 4
__Result$ = -4						; size = 4
__Buffer$ = 8						; size = 4
__Format$ = 12						; size = 4
_sprintf PROC						; COMDAT

; 1776 : {

  00000	55		 push	 ebp
  00001	8b ec		 mov	 ebp, esp
  00003	83 ec 08	 sub	 esp, 8
  00006	c7 45 f8 cc cc
	cc cc		 mov	 DWORD PTR [ebp-8], -858993460 ; ccccccccH
  0000d	c7 45 fc cc cc
	cc cc		 mov	 DWORD PTR [ebp-4], -858993460 ; ccccccccH

; 1777 :     int _Result;
; 1778 :     va_list _ArgList;
; 1779 :     __crt_va_start(_ArgList, _Format);

  00014	e8 00 00 00 00	 call	 ??$__vcrt_va_start_verify_argument_type@QBD@@YAXXZ ; __vcrt_va_start_verify_argument_type<char const * const>
  00019	8d 45 10	 lea	 eax, DWORD PTR __Format$[ebp+4]
  0001c	89 45 f8	 mov	 DWORD PTR __ArgList$[ebp], eax

; 1780 : 
; 1781 :     #pragma warning(push)
; 1782 :     #pragma warning(disable: 4996) // Deprecation
; 1783 :     _Result = _vsprintf_l(_Buffer, _Format, NULL, _ArgList);

  0001f	8b 4d f8	 mov	 ecx, DWORD PTR __ArgList$[ebp]
  00022	51		 push	 ecx
  00023	6a 00		 push	 0
  00025	8b 55 0c	 mov	 edx, DWORD PTR __Format$[ebp]
  00028	52		 push	 edx
  00029	8b 45 08	 mov	 eax, DWORD PTR __Buffer$[ebp]
  0002c	50		 push	 eax
  0002d	e8 00 00 00 00	 call	 __vsprintf_l
  00032	83 c4 10	 add	 esp, 16			; 00000010H
  00035	89 45 fc	 mov	 DWORD PTR __Result$[ebp], eax

; 1784 :     #pragma warning(pop)
; 1785 : 
; 1786 :     __crt_va_end(_ArgList);

  00038	c7 45 f8 00 00
	00 00		 mov	 DWORD PTR __ArgList$[ebp], 0

; 1787 :     return _Result;

  0003f	8b 45 fc	 mov	 eax, DWORD PTR __Result$[ebp]

; 1788 : }

  00042	83 c4 08	 add	 esp, 8
  00045	3b ec		 cmp	 ebp, esp
  00047	e8 00 00 00 00	 call	 __RTC_CheckEsp
  0004c	8b e5		 mov	 esp, ebp
  0004e	5d		 pop	 ebp
  0004f	c3		 ret	 0
_sprintf ENDP
_TEXT	ENDS
; Function compile flags: /Odtp /RTCsu
; File c:\program files (x86)\windows kits\10\include\10.0.10240.0\ucrt\stdio.h
;	COMDAT __vsprintf_l
_TEXT	SEGMENT
__Buffer$ = 8						; size = 4
__Format$ = 12						; size = 4
__Locale$ = 16						; size = 4
__ArgList$ = 20						; size = 4
__vsprintf_l PROC					; COMDAT

; 1455 : {

  00000	55		 push	 ebp
  00001	8b ec		 mov	 ebp, esp

; 1456 :     #pragma warning(push)
; 1457 :     #pragma warning(disable: 4996) // Deprecation
; 1458 :     return _vsnprintf_l(_Buffer, (size_t)-1, _Format, _Locale, _ArgList);

  00003	8b 45 14	 mov	 eax, DWORD PTR __ArgList$[ebp]
  00006	50		 push	 eax
  00007	8b 4d 10	 mov	 ecx, DWORD PTR __Locale$[ebp]
  0000a	51		 push	 ecx
  0000b	8b 55 0c	 mov	 edx, DWORD PTR __Format$[ebp]
  0000e	52		 push	 edx
  0000f	6a ff		 push	 -1
  00011	8b 45 08	 mov	 eax, DWORD PTR __Buffer$[ebp]
  00014	50		 push	 eax
  00015	e8 00 00 00 00	 call	 __vsnprintf_l
  0001a	83 c4 14	 add	 esp, 20			; 00000014H

; 1459 :     #pragma warning(pop)
; 1460 : }

  0001d	3b ec		 cmp	 ebp, esp
  0001f	e8 00 00 00 00	 call	 __RTC_CheckEsp
  00024	5d		 pop	 ebp
  00025	c3		 ret	 0
__vsprintf_l ENDP
_TEXT	ENDS
; Function compile flags: /Odtp /RTCsu
; File c:\program files (x86)\windows kits\10\include\10.0.10240.0\ucrt\stdio.h
;	COMDAT _vsnprintf
_TEXT	SEGMENT
tv74 = -8						; size = 4
__Result$ = -4						; size = 4
__Buffer$ = 8						; size = 4
__BufferCount$ = 12					; size = 4
__Format$ = 16						; size = 4
__ArgList$ = 20						; size = 4
_vsnprintf PROC						; COMDAT

; 1435 : {

  00000	55		 push	 ebp
  00001	8b ec		 mov	 ebp, esp
  00003	83 ec 08	 sub	 esp, 8
  00006	56		 push	 esi
  00007	c7 45 f8 cc cc
	cc cc		 mov	 DWORD PTR [ebp-8], -858993460 ; ccccccccH
  0000e	c7 45 fc cc cc
	cc cc		 mov	 DWORD PTR [ebp-4], -858993460 ; ccccccccH

; 1436 :     int const _Result = __stdio_common_vsprintf(

  00015	8b f4		 mov	 esi, esp
  00017	8b 45 14	 mov	 eax, DWORD PTR __ArgList$[ebp]
  0001a	50		 push	 eax
  0001b	6a 00		 push	 0
  0001d	8b 4d 10	 mov	 ecx, DWORD PTR __Format$[ebp]
  00020	51		 push	 ecx
  00021	8b 55 0c	 mov	 edx, DWORD PTR __BufferCount$[ebp]
  00024	52		 push	 edx
  00025	8b 45 08	 mov	 eax, DWORD PTR __Buffer$[ebp]
  00028	50		 push	 eax
  00029	e8 00 00 00 00	 call	 ___local_stdio_printf_options
  0002e	8b 08		 mov	 ecx, DWORD PTR [eax]
  00030	83 c9 02	 or	 ecx, 2
  00033	8b 50 04	 mov	 edx, DWORD PTR [eax+4]
  00036	52		 push	 edx
  00037	51		 push	 ecx
  00038	ff 15 00 00 00
	00		 call	 DWORD PTR __imp____stdio_common_vsprintf
  0003e	83 c4 1c	 add	 esp, 28			; 0000001cH
  00041	3b f4		 cmp	 esi, esp
  00043	e8 00 00 00 00	 call	 __RTC_CheckEsp
  00048	89 45 fc	 mov	 DWORD PTR __Result$[ebp], eax

; 1437 :         _CRT_INTERNAL_LOCAL_PRINTF_OPTIONS | _CRT_INTERNAL_PRINTF_STANDARD_SNPRINTF_BEHAVIOR,
; 1438 :         _Buffer, _BufferCount, _Format, NULL, _ArgList);
; 1439 : 
; 1440 :     return _Result < 0 ? -1 : _Result;

  0004b	83 7d fc 00	 cmp	 DWORD PTR __Result$[ebp], 0
  0004f	7d 09		 jge	 SHORT $LN3@vsnprintf
  00051	c7 45 f8 ff ff
	ff ff		 mov	 DWORD PTR tv74[ebp], -1
  00058	eb 06		 jmp	 SHORT $LN4@vsnprintf
$LN3@vsnprintf:
  0005a	8b 45 fc	 mov	 eax, DWORD PTR __Result$[ebp]
  0005d	89 45 f8	 mov	 DWORD PTR tv74[ebp], eax
$LN4@vsnprintf:
  00060	8b 45 f8	 mov	 eax, DWORD PTR tv74[ebp]

; 1441 : }

  00063	5e		 pop	 esi
  00064	83 c4 08	 add	 esp, 8
  00067	3b ec		 cmp	 ebp, esp
  00069	e8 00 00 00 00	 call	 __RTC_CheckEsp
  0006e	8b e5		 mov	 esp, ebp
  00070	5d		 pop	 ebp
  00071	c3		 ret	 0
_vsnprintf ENDP
_TEXT	ENDS
; Function compile flags: /Odtp /RTCsu
; File c:\program files (x86)\windows kits\10\include\10.0.10240.0\ucrt\stdio.h
;	COMDAT __vsnprintf
_TEXT	SEGMENT
__Buffer$ = 8						; size = 4
__BufferCount$ = 12					; size = 4
__Format$ = 16						; size = 4
__ArgList$ = 20						; size = 4
__vsnprintf PROC					; COMDAT

; 1405 : {

  00000	55		 push	 ebp
  00001	8b ec		 mov	 ebp, esp

; 1406 :     #pragma warning(push)
; 1407 :     #pragma warning(disable: 4996) // Deprecation
; 1408 :     return _vsnprintf_l(_Buffer, _BufferCount, _Format, NULL, _ArgList);

  00003	8b 45 14	 mov	 eax, DWORD PTR __ArgList$[ebp]
  00006	50		 push	 eax
  00007	6a 00		 push	 0
  00009	8b 4d 10	 mov	 ecx, DWORD PTR __Format$[ebp]
  0000c	51		 push	 ecx
  0000d	8b 55 0c	 mov	 edx, DWORD PTR __BufferCount$[ebp]
  00010	52		 push	 edx
  00011	8b 45 08	 mov	 eax, DWORD PTR __Buffer$[ebp]
  00014	50		 push	 eax
  00015	e8 00 00 00 00	 call	 __vsnprintf_l
  0001a	83 c4 14	 add	 esp, 20			; 00000014H

; 1409 :     #pragma warning(pop)
; 1410 : }

  0001d	3b ec		 cmp	 ebp, esp
  0001f	e8 00 00 00 00	 call	 __RTC_CheckEsp
  00024	5d		 pop	 ebp
  00025	c3		 ret	 0
__vsnprintf ENDP
_TEXT	ENDS
; Function compile flags: /Odtp /RTCsu
; File c:\program files (x86)\windows kits\10\include\10.0.10240.0\ucrt\stdio.h
;	COMDAT __vsnprintf_l
_TEXT	SEGMENT
tv74 = -8						; size = 4
__Result$ = -4						; size = 4
__Buffer$ = 8						; size = 4
__BufferCount$ = 12					; size = 4
__Format$ = 16						; size = 4
__Locale$ = 20						; size = 4
__ArgList$ = 24						; size = 4
__vsnprintf_l PROC					; COMDAT

; 1385 : {

  00000	55		 push	 ebp
  00001	8b ec		 mov	 ebp, esp
  00003	83 ec 08	 sub	 esp, 8
  00006	56		 push	 esi
  00007	c7 45 f8 cc cc
	cc cc		 mov	 DWORD PTR [ebp-8], -858993460 ; ccccccccH
  0000e	c7 45 fc cc cc
	cc cc		 mov	 DWORD PTR [ebp-4], -858993460 ; ccccccccH

; 1386 :     int const _Result = __stdio_common_vsprintf(

  00015	8b f4		 mov	 esi, esp
  00017	8b 45 18	 mov	 eax, DWORD PTR __ArgList$[ebp]
  0001a	50		 push	 eax
  0001b	8b 4d 14	 mov	 ecx, DWORD PTR __Locale$[ebp]
  0001e	51		 push	 ecx
  0001f	8b 55 10	 mov	 edx, DWORD PTR __Format$[ebp]
  00022	52		 push	 edx
  00023	8b 45 0c	 mov	 eax, DWORD PTR __BufferCount$[ebp]
  00026	50		 push	 eax
  00027	8b 4d 08	 mov	 ecx, DWORD PTR __Buffer$[ebp]
  0002a	51		 push	 ecx
  0002b	e8 00 00 00 00	 call	 ___local_stdio_printf_options
  00030	8b 10		 mov	 edx, DWORD PTR [eax]
  00032	83 ca 01	 or	 edx, 1
  00035	8b 40 04	 mov	 eax, DWORD PTR [eax+4]
  00038	50		 push	 eax
  00039	52		 push	 edx
  0003a	ff 15 00 00 00
	00		 call	 DWORD PTR __imp____stdio_common_vsprintf
  00040	83 c4 1c	 add	 esp, 28			; 0000001cH
  00043	3b f4		 cmp	 esi, esp
  00045	e8 00 00 00 00	 call	 __RTC_CheckEsp
  0004a	89 45 fc	 mov	 DWORD PTR __Result$[ebp], eax

; 1387 :         _CRT_INTERNAL_LOCAL_PRINTF_OPTIONS | _CRT_INTERNAL_PRINTF_LEGACY_VSPRINTF_NULL_TERMINATION,
; 1388 :         _Buffer, _BufferCount, _Format, _Locale, _ArgList);
; 1389 : 
; 1390 :     return _Result < 0 ? -1 : _Result;

  0004d	83 7d fc 00	 cmp	 DWORD PTR __Result$[ebp], 0
  00051	7d 09		 jge	 SHORT $LN3@vsnprintf_
  00053	c7 45 f8 ff ff
	ff ff		 mov	 DWORD PTR tv74[ebp], -1
  0005a	eb 06		 jmp	 SHORT $LN4@vsnprintf_
$LN3@vsnprintf_:
  0005c	8b 4d fc	 mov	 ecx, DWORD PTR __Result$[ebp]
  0005f	89 4d f8	 mov	 DWORD PTR tv74[ebp], ecx
$LN4@vsnprintf_:
  00062	8b 45 f8	 mov	 eax, DWORD PTR tv74[ebp]

; 1391 : }

  00065	5e		 pop	 esi
  00066	83 c4 08	 add	 esp, 8
  00069	3b ec		 cmp	 ebp, esp
  0006b	e8 00 00 00 00	 call	 __RTC_CheckEsp
  00070	8b e5		 mov	 esp, ebp
  00072	5d		 pop	 ebp
  00073	c3		 ret	 0
__vsnprintf_l ENDP
_TEXT	ENDS
; Function compile flags: /Odtp /RTCsu
; File c:\program files (x86)\windows kits\10\include\10.0.10240.0\ucrt\stdio.h
;	COMDAT _printf
_TEXT	SEGMENT
__ArgList$ = -8						; size = 4
__Result$ = -4						; size = 4
__Format$ = 8						; size = 4
_printf	PROC						; COMDAT

; 950  : {

  00000	55		 push	 ebp
  00001	8b ec		 mov	 ebp, esp
  00003	83 ec 08	 sub	 esp, 8
  00006	56		 push	 esi
  00007	c7 45 f8 cc cc
	cc cc		 mov	 DWORD PTR [ebp-8], -858993460 ; ccccccccH
  0000e	c7 45 fc cc cc
	cc cc		 mov	 DWORD PTR [ebp-4], -858993460 ; ccccccccH

; 951  :     int _Result;
; 952  :     va_list _ArgList;
; 953  :     __crt_va_start(_ArgList, _Format);

  00015	e8 00 00 00 00	 call	 ??$__vcrt_va_start_verify_argument_type@QBD@@YAXXZ ; __vcrt_va_start_verify_argument_type<char const * const>
  0001a	8d 45 0c	 lea	 eax, DWORD PTR __Format$[ebp+4]
  0001d	89 45 f8	 mov	 DWORD PTR __ArgList$[ebp], eax

; 954  :     _Result = _vfprintf_l(stdout, _Format, NULL, _ArgList);

  00020	8b 4d f8	 mov	 ecx, DWORD PTR __ArgList$[ebp]
  00023	51		 push	 ecx
  00024	6a 00		 push	 0
  00026	8b 55 08	 mov	 edx, DWORD PTR __Format$[ebp]
  00029	52		 push	 edx
  0002a	8b f4		 mov	 esi, esp
  0002c	6a 01		 push	 1
  0002e	ff 15 00 00 00
	00		 call	 DWORD PTR __imp____acrt_iob_func
  00034	83 c4 04	 add	 esp, 4
  00037	3b f4		 cmp	 esi, esp
  00039	e8 00 00 00 00	 call	 __RTC_CheckEsp
  0003e	50		 push	 eax
  0003f	e8 00 00 00 00	 call	 __vfprintf_l
  00044	83 c4 10	 add	 esp, 16			; 00000010H
  00047	89 45 fc	 mov	 DWORD PTR __Result$[ebp], eax

; 955  :     __crt_va_end(_ArgList);

  0004a	c7 45 f8 00 00
	00 00		 mov	 DWORD PTR __ArgList$[ebp], 0

; 956  :     return _Result;

  00051	8b 45 fc	 mov	 eax, DWORD PTR __Result$[ebp]

; 957  : }

  00054	5e		 pop	 esi
  00055	83 c4 08	 add	 esp, 8
  00058	3b ec		 cmp	 ebp, esp
  0005a	e8 00 00 00 00	 call	 __RTC_CheckEsp
  0005f	8b e5		 mov	 esp, ebp
  00061	5d		 pop	 ebp
  00062	c3		 ret	 0
_printf	ENDP
_TEXT	ENDS
; Function compile flags: /Odtp /RTCsu
; File c:\program files (x86)\microsoft visual studio 14.0\vc\include\vadefs.h
;	COMDAT ??$__vcrt_va_start_verify_argument_type@QBD@@YAXXZ
_TEXT	SEGMENT
??$__vcrt_va_start_verify_argument_type@QBD@@YAXXZ PROC	; __vcrt_va_start_verify_argument_type<char const * const>, COMDAT

; 144  :         {

  00000	55		 push	 ebp
  00001	8b ec		 mov	 ebp, esp

; 145  :             static_assert(!__vcrt_va_list_is_reference<_Ty>::__the_value, "va_start argument must not have reference type and must not be parenthesized");
; 146  :         }

  00003	5d		 pop	 ebp
  00004	c3		 ret	 0
??$__vcrt_va_start_verify_argument_type@QBD@@YAXXZ ENDP	; __vcrt_va_start_verify_argument_type<char const * const>
_TEXT	ENDS
; Function compile flags: /Odtp /RTCsu
; File c:\program files (x86)\windows kits\10\include\10.0.10240.0\ucrt\stdio.h
;	COMDAT __vfprintf_l
_TEXT	SEGMENT
__Stream$ = 8						; size = 4
__Format$ = 12						; size = 4
__Locale$ = 16						; size = 4
__ArgList$ = 20						; size = 4
__vfprintf_l PROC					; COMDAT

; 638  : {

  00000	55		 push	 ebp
  00001	8b ec		 mov	 ebp, esp
  00003	56		 push	 esi

; 639  :     return __stdio_common_vfprintf(_CRT_INTERNAL_LOCAL_PRINTF_OPTIONS, _Stream, _Format, _Locale, _ArgList);

  00004	8b f4		 mov	 esi, esp
  00006	8b 45 14	 mov	 eax, DWORD PTR __ArgList$[ebp]
  00009	50		 push	 eax
  0000a	8b 4d 10	 mov	 ecx, DWORD PTR __Locale$[ebp]
  0000d	51		 push	 ecx
  0000e	8b 55 0c	 mov	 edx, DWORD PTR __Format$[ebp]
  00011	52		 push	 edx
  00012	8b 45 08	 mov	 eax, DWORD PTR __Stream$[ebp]
  00015	50		 push	 eax
  00016	e8 00 00 00 00	 call	 ___local_stdio_printf_options
  0001b	8b 48 04	 mov	 ecx, DWORD PTR [eax+4]
  0001e	51		 push	 ecx
  0001f	8b 10		 mov	 edx, DWORD PTR [eax]
  00021	52		 push	 edx
  00022	ff 15 00 00 00
	00		 call	 DWORD PTR __imp____stdio_common_vfprintf
  00028	83 c4 18	 add	 esp, 24			; 00000018H
  0002b	3b f4		 cmp	 esi, esp
  0002d	e8 00 00 00 00	 call	 __RTC_CheckEsp

; 640  : }

  00032	5e		 pop	 esi
  00033	3b ec		 cmp	 ebp, esp
  00035	e8 00 00 00 00	 call	 __RTC_CheckEsp
  0003a	5d		 pop	 ebp
  0003b	c3		 ret	 0
__vfprintf_l ENDP
_TEXT	ENDS
; Function compile flags: /Odtp /RTCsu
; File c:\program files (x86)\windows kits\10\include\10.0.10240.0\ucrt\corecrt_stdio_config.h
;	COMDAT ___local_stdio_printf_options
_TEXT	SEGMENT
___local_stdio_printf_options PROC			; COMDAT

; 73   : {

  00000	55		 push	 ebp
  00001	8b ec		 mov	 ebp, esp

; 74   :     static unsigned __int64 _OptionsStorage;
; 75   :     return &_OptionsStorage;

  00003	b8 00 00 00 00	 mov	 eax, OFFSET ?_OptionsStorage@?1??__local_stdio_printf_options@@9@4_KA ; `__local_stdio_printf_options'::`2'::_OptionsStorage

; 76   : }

  00008	5d		 pop	 ebp
  00009	c3		 ret	 0
___local_stdio_printf_options ENDP
_TEXT	ENDS
; Function compile flags: /Odtp /RTCsu
;	COMDAT ??_GCLogger@@QAEPAXI@Z
_TEXT	SEGMENT
_this$ = -4						; size = 4
___flags$ = 8						; size = 4
??_GCLogger@@QAEPAXI@Z PROC				; CLogger::`scalar deleting destructor', COMDAT
; _this$ = ecx
  00000	55		 push	 ebp
  00001	8b ec		 mov	 ebp, esp
  00003	51		 push	 ecx
  00004	c7 45 fc cc cc
	cc cc		 mov	 DWORD PTR [ebp-4], -858993460 ; ccccccccH
  0000b	89 4d fc	 mov	 DWORD PTR _this$[ebp], ecx
  0000e	8b 4d fc	 mov	 ecx, DWORD PTR _this$[ebp]
  00011	e8 00 00 00 00	 call	 ??1CLogger@@QAE@XZ	; CLogger::~CLogger
  00016	8b 45 08	 mov	 eax, DWORD PTR ___flags$[ebp]
  00019	83 e0 01	 and	 eax, 1
  0001c	74 0e		 je	 SHORT $LN2@scalar
  0001e	6a 1c		 push	 28			; 0000001cH
  00020	8b 4d fc	 mov	 ecx, DWORD PTR _this$[ebp]
  00023	51		 push	 ecx
  00024	e8 00 00 00 00	 call	 ??3@YAXPAXI@Z		; operator delete
  00029	83 c4 08	 add	 esp, 8
$LN2@scalar:
  0002c	8b 45 fc	 mov	 eax, DWORD PTR _this$[ebp]
  0002f	83 c4 04	 add	 esp, 4
  00032	3b ec		 cmp	 ebp, esp
  00034	e8 00 00 00 00	 call	 __RTC_CheckEsp
  00039	8b e5		 mov	 esp, ebp
  0003b	5d		 pop	 ebp
  0003c	c2 04 00	 ret	 4
??_GCLogger@@QAEPAXI@Z ENDP				; CLogger::`scalar deleting destructor'
_TEXT	ENDS
; Function compile flags: /Odtp /RTCsu
;	COMDAT ?__autoclassinit2@CLogger@@QAEXI@Z
_TEXT	SEGMENT
_this$ = -4						; size = 4
_classSize$ = 8						; size = 4
?__autoclassinit2@CLogger@@QAEXI@Z PROC			; CLogger::__autoclassinit2, COMDAT
; _this$ = ecx
  00000	55		 push	 ebp
  00001	8b ec		 mov	 ebp, esp
  00003	51		 push	 ecx
  00004	c7 45 fc cc cc
	cc cc		 mov	 DWORD PTR [ebp-4], -858993460 ; ccccccccH
  0000b	89 4d fc	 mov	 DWORD PTR _this$[ebp], ecx
  0000e	8b 45 08	 mov	 eax, DWORD PTR _classSize$[ebp]
  00011	50		 push	 eax
  00012	6a 00		 push	 0
  00014	8b 4d fc	 mov	 ecx, DWORD PTR _this$[ebp]
  00017	51		 push	 ecx
  00018	e8 00 00 00 00	 call	 _memset
  0001d	83 c4 0c	 add	 esp, 12			; 0000000cH
  00020	83 c4 04	 add	 esp, 4
  00023	3b ec		 cmp	 ebp, esp
  00025	e8 00 00 00 00	 call	 __RTC_CheckEsp
  0002a	8b e5		 mov	 esp, ebp
  0002c	5d		 pop	 ebp
  0002d	c2 04 00	 ret	 4
?__autoclassinit2@CLogger@@QAEXI@Z ENDP			; CLogger::__autoclassinit2
_TEXT	ENDS
; Function compile flags: /Odtp /RTCsu
; File d:\newproject2\com\include\comlogger.h
;	COMDAT ?SetDateTimeFlag@CLogger@@QAEXH@Z
_TEXT	SEGMENT
_this$ = -4						; size = 4
_nDateTimeSet$ = 8					; size = 4
?SetDateTimeFlag@CLogger@@QAEXH@Z PROC			; CLogger::SetDateTimeFlag, COMDAT
; _this$ = ecx

; 55   : 	inline void	SetDateTimeFlag(int nDateTimeSet) {m_nDateTimeFlag = nDateTimeSet;}

  00000	55		 push	 ebp
  00001	8b ec		 mov	 ebp, esp
  00003	51		 push	 ecx
  00004	c7 45 fc cc cc
	cc cc		 mov	 DWORD PTR [ebp-4], -858993460 ; ccccccccH
  0000b	89 4d fc	 mov	 DWORD PTR _this$[ebp], ecx
  0000e	8b 45 fc	 mov	 eax, DWORD PTR _this$[ebp]
  00011	8b 4d 08	 mov	 ecx, DWORD PTR _nDateTimeSet$[ebp]
  00014	89 48 18	 mov	 DWORD PTR [eax+24], ecx
  00017	8b e5		 mov	 esp, ebp
  00019	5d		 pop	 ebp
  0001a	c2 04 00	 ret	 4
?SetDateTimeFlag@CLogger@@QAEXH@Z ENDP			; CLogger::SetDateTimeFlag
_TEXT	ENDS
; Function compile flags: /Odtp /RTCsu
; File d:\newproject2\com\include\comlogger.h
;	COMDAT ?SetLogLevel@CLogger@@QAEXH@Z
_TEXT	SEGMENT
_this$ = -4						; size = 4
_nLevel$ = 8						; size = 4
?SetLogLevel@CLogger@@QAEXH@Z PROC			; CLogger::SetLogLevel, COMDAT
; _this$ = ecx

; 51   : 	inline void	SetLogLevel(int nLevel)	{ m_nLogLevel = nLevel; }

  00000	55		 push	 ebp
  00001	8b ec		 mov	 ebp, esp
  00003	51		 push	 ecx
  00004	c7 45 fc cc cc
	cc cc		 mov	 DWORD PTR [ebp-4], -858993460 ; ccccccccH
  0000b	89 4d fc	 mov	 DWORD PTR _this$[ebp], ecx
  0000e	8b 45 fc	 mov	 eax, DWORD PTR _this$[ebp]
  00011	8b 4d 08	 mov	 ecx, DWORD PTR _nLevel$[ebp]
  00014	89 08		 mov	 DWORD PTR [eax], ecx
  00016	8b e5		 mov	 esp, ebp
  00018	5d		 pop	 ebp
  00019	c2 04 00	 ret	 4
?SetLogLevel@CLogger@@QAEXH@Z ENDP			; CLogger::SetLogLevel
_TEXT	ENDS
END
