; Listing generated by Microsoft (R) Optimizing Compiler Version 19.00.24215.1 

	TITLE	E:\InfiniA-Library-3.0\com\src\comCore.cpp
	.686P
	.XMM
	include listing.inc
	.model	flat

INCLUDELIB MSVCRT
INCLUDELIB OLDNAMES

PUBLIC	?gs_pCore@@3PAVCCoreList@@A			; gs_pCore
PUBLIC	?gs_today_time@@3USTTodayTime@@A		; gs_today_time
_BSS	SEGMENT
?gs_pCore@@3PAVCCoreList@@A DD 01H DUP (?)		; gs_pCore
?gs_today_time@@3USTTodayTime@@A DB 01cH DUP (?)	; gs_today_time
_BSS	ENDS
PUBLIC	___local_stdio_printf_options
PUBLIC	??$__vcrt_va_start_verify_argument_type@QBD@@YAXXZ ; __vcrt_va_start_verify_argument_type<char const * const>
PUBLIC	_printf
PUBLIC	_sprintf
PUBLIC	??1abstract_condition@common@@UAE@XZ		; common::abstract_condition::~abstract_condition
PUBLIC	??_Gabstract_condition@common@@UAEPAXI@Z	; common::abstract_condition::`scalar deleting destructor'
PUBLIC	?signal@condition@win32@common@@UAEXXZ		; common::win32::condition::signal
PUBLIC	?signal_all@condition@win32@common@@UAEXXZ	; common::win32::condition::signal_all
PUBLIC	??_Gcondition@win32@common@@UAEPAXI@Z		; common::win32::condition::`scalar deleting destructor'
PUBLIC	??0win_atomic@win32@common@@QAE@XZ		; common::win32::win_atomic::win_atomic
PUBLIC	??1win_atomic@win32@common@@QAE@XZ		; common::win32::win_atomic::~win_atomic
PUBLIC	??_Ewin_atomic@win32@common@@QAEPAXI@Z		; common::win32::win_atomic::`vector deleting destructor'
PUBLIC	?comGlobalErrorProc@@YAXPADPBDH@Z		; comGlobalErrorProc
PUBLIC	??0CComThread@@QAE@XZ				; CComThread::CComThread
PUBLIC	??1CComThread@@QAE@XZ				; CComThread::~CComThread
PUBLIC	?init@CComThread@@QAE_NP6AXPAUSTThreadInfo@@@ZPAXH2@Z ; CComThread::init
PUBLIC	?start@CComThread@@QAE_NXZ			; CComThread::start
PUBLIC	?quit@CComThread@@QAE_NXZ			; CComThread::quit
PUBLIC	?ProcThread@CComThread@@SGKPAX@Z		; CComThread::ProcThread
PUBLIC	?loggerLoop@@YAXPAUSTThreadInfo@@@Z		; loggerLoop
PUBLIC	??0CSTLogger@@QAE@XZ				; CSTLogger::CSTLogger
PUBLIC	??1CSTLogger@@QAE@XZ				; CSTLogger::~CSTLogger
PUBLIC	?initConfig@CSTLogger@@QAE_NPADH0@Z		; CSTLogger::initConfig
PUBLIC	?init@CSTLogger@@QAE_NHH@Z			; CSTLogger::init
PUBLIC	?start@CSTLogger@@QAE_NXZ			; CSTLogger::start
PUBLIC	?quit@CSTLogger@@QAE_NXZ			; CSTLogger::quit
PUBLIC	?IsCommand@CSTLogger@@QAE_NXZ			; CSTLogger::IsCommand
PUBLIC	?GetQueue@CSTLogger@@QAEXXZ			; CSTLogger::GetQueue
PUBLIC	?TimeProc@CSTLogger@@QAEXXZ			; CSTLogger::TimeProc
PUBLIC	?procLoggerEnable@CSTLogger@@QAEXPAVCLogger@@@Z	; CSTLogger::procLoggerEnable
PUBLIC	?porcLoggerDisable@CSTLogger@@QAEXPAVCLogger@@@Z ; CSTLogger::porcLoggerDisable
PUBLIC	?_init@CSTLogger@@AAE_NH@Z			; CSTLogger::_init
PUBLIC	?schedulerLoop@@YAXPAUSTThreadInfo@@@Z		; schedulerLoop
PUBLIC	??0CScheduler@@QAE@XZ				; CScheduler::CScheduler
PUBLIC	??1CScheduler@@QAE@XZ				; CScheduler::~CScheduler
PUBLIC	?initConfig@CScheduler@@QAE_NPADH0@Z		; CScheduler::initConfig
PUBLIC	?init@CScheduler@@QAE_NHHH@Z			; CScheduler::init
PUBLIC	?start@CScheduler@@QAE_NXZ			; CScheduler::start
PUBLIC	?quit@CScheduler@@QAE_NXZ			; CScheduler::quit
PUBLIC	??0?$CMemList@USTIntervalInfo@@@@QAE@XZ		; CMemList<STIntervalInfo>::CMemList<STIntervalInfo>
PUBLIC	??1?$CMemList@USTIntervalInfo@@@@QAE@XZ		; CMemList<STIntervalInfo>::~CMemList<STIntervalInfo>
PUBLIC	?alloc@?$CMemList@USTIntervalInfo@@@@QAEHHW4E_ALLOC_TYPE@@@Z ; CMemList<STIntervalInfo>::alloc
PUBLIC	?getNext@?$CMemList@USTIntervalInfo@@@@QAEPAUSTIntervalInfo@@PAH@Z ; CMemList<STIntervalInfo>::getNext
PUBLIC	?add@?$CMemList@USTIntervalInfo@@@@QAEHPAUSTIntervalInfo@@@Z ; CMemList<STIntervalInfo>::add
PUBLIC	?del@?$CMemList@USTIntervalInfo@@@@QAE_NPAUSTIntervalInfo@@@Z ; CMemList<STIntervalInfo>::del
PUBLIC	?_del@?$CMemList@USTIntervalInfo@@@@AAEXH@Z	; CMemList<STIntervalInfo>::_del
PUBLIC	?eventThreadLoop@@YAXPAUSTThreadInfo@@@Z	; eventThreadLoop
PUBLIC	??0CComQueueThread@@QAE@XZ			; CComQueueThread::CComQueueThread
PUBLIC	??1CComQueueThread@@QAE@XZ			; CComQueueThread::~CComQueueThread
PUBLIC	?initConfig@CComQueueThread@@QAE_NPADH0@Z	; CComQueueThread::initConfig
PUBLIC	?init@CComQueueThread@@QAE_NHH@Z		; CComQueueThread::init
PUBLIC	?start@CComQueueThread@@QAE_NXZ			; CComQueueThread::start
PUBLIC	?quit@CComQueueThread@@QAE_NXZ			; CComQueueThread::quit
PUBLIC	??_GCComQueueThread@@QAEPAXI@Z			; CComQueueThread::`scalar deleting destructor'
PUBLIC	??0CCoreList@@QAE@XZ				; CCoreList::CCoreList
PUBLIC	??1CCoreList@@QAE@XZ				; CCoreList::~CCoreList
PUBLIC	?initSystemFile@CCoreList@@QAE_NXZ		; CCoreList::initSystemFile
PUBLIC	?initDefaultPool@CCoreList@@QAE_NHHH@Z		; CCoreList::initDefaultPool
PUBLIC	?initLogger@CCoreList@@QAE_NPAVCLogger@@PAD1@Z	; CCoreList::initLogger
PUBLIC	?initLogger@CCoreList@@QAE_NPAVCLogger@@@Z	; CCoreList::initLogger
PUBLIC	?setLoggerEnable@CCoreList@@QAE_NPAVCLogger@@@Z	; CCoreList::setLoggerEnable
PUBLIC	?setLoggerDisable@CCoreList@@QAE_NPAVCLogger@@@Z ; CCoreList::setLoggerDisable
PUBLIC	?start@CCoreList@@QAE_NXZ			; CCoreList::start
PUBLIC	?destroy@CCoreList@@QAEXXZ			; CCoreList::destroy
PUBLIC	?putEvent@CCoreList@@QAE_NPAUSTEvent@@@Z	; CCoreList::putEvent
PUBLIC	?putTimer@CCoreList@@QAE_NPAUSTIntervalInfo@@@Z	; CCoreList::putTimer
PUBLIC	?addComThread@CCoreList@@QAEHP6AXPAUSTThreadInfo@@@ZPAXH2@Z ; CCoreList::addComThread
PUBLIC	?delComThread@CCoreList@@QAE_NH@Z		; CCoreList::delComThread
PUBLIC	?addLogWriter@CCoreList@@QAEHH@Z		; CCoreList::addLogWriter
PUBLIC	?addScheduler@CCoreList@@QAEHHH@Z		; CCoreList::addScheduler
PUBLIC	?addQueueThread@CCoreList@@QAEHH@Z		; CCoreList::addQueueThread
PUBLIC	?initComThread@CCoreList@@QAE_NPAD0@Z		; CCoreList::initComThread
PUBLIC	?initLogWriter@CCoreList@@QAE_NPAD0_N@Z		; CCoreList::initLogWriter
PUBLIC	?initScheduler@CCoreList@@QAE_NPAD0@Z		; CCoreList::initScheduler
PUBLIC	?initQueueThread@CCoreList@@QAE_NPAD0@Z		; CCoreList::initQueueThread
PUBLIC	?initComThread@CCoreList@@QAE_NH@Z		; CCoreList::initComThread
PUBLIC	?initLogWriter@CCoreList@@QAE_NH@Z		; CCoreList::initLogWriter
PUBLIC	?initScheduler@CCoreList@@QAE_NHH@Z		; CCoreList::initScheduler
PUBLIC	?initQueueThread@CCoreList@@QAE_NHH@Z		; CCoreList::initQueueThread
PUBLIC	?setListAllocType@CCoreList@@QAEXW4E_ALLOC_TYPE@@W4E_SYS_LIST_TYPE@@@Z ; CCoreList::setListAllocType
PUBLIC	??0?$CMemPool@USTIntervalInfo@@@@QAE@XZ		; CMemPool<STIntervalInfo>::CMemPool<STIntervalInfo>
PUBLIC	??1?$CMemPool@USTIntervalInfo@@@@QAE@XZ		; CMemPool<STIntervalInfo>::~CMemPool<STIntervalInfo>
PUBLIC	?clear@?$CMemPool@USTIntervalInfo@@@@QAEXXZ	; CMemPool<STIntervalInfo>::clear
PUBLIC	?alloc@?$CMemPool@USTIntervalInfo@@@@QAEHHW4E_ALLOC_TYPE@@@Z ; CMemPool<STIntervalInfo>::alloc
PUBLIC	??0?$CMemPool@USTEvent@@@@QAE@XZ		; CMemPool<STEvent>::CMemPool<STEvent>
PUBLIC	??1?$CMemPool@USTEvent@@@@QAE@XZ		; CMemPool<STEvent>::~CMemPool<STEvent>
PUBLIC	?clear@?$CMemPool@USTEvent@@@@QAEXXZ		; CMemPool<STEvent>::clear
PUBLIC	?alloc@?$CMemPool@USTEvent@@@@QAEHHW4E_ALLOC_TYPE@@@Z ; CMemPool<STEvent>::alloc
PUBLIC	?delMem@?$CMemPool@USTEvent@@@@QAE_NPAUSTEvent@@@Z ; CMemPool<STEvent>::delMem
PUBLIC	??0?$CTList@VCLogger@@@@QAE@XZ			; CTList<CLogger>::CTList<CLogger>
PUBLIC	??1?$CTList@VCLogger@@@@QAE@XZ			; CTList<CLogger>::~CTList<CLogger>
PUBLIC	?alloc@?$CTList@VCLogger@@@@QAEHHW4E_ALLOC_TYPE@@@Z ; CTList<CLogger>::alloc
PUBLIC	?push_back@?$CTList@VCLogger@@@@QAE_NPAVCLogger@@PAH@Z ; CTList<CLogger>::push_back
PUBLIC	?IsExist@?$CTList@VCLogger@@@@QAE_NPAVCLogger@@@Z ; CTList<CLogger>::IsExist
PUBLIC	?del@?$CTList@VCLogger@@@@QAE_NPAVCLogger@@@Z	; CTList<CLogger>::del
PUBLIC	?__alloc@?$CTList@VCLogger@@@@AAEHH@Z		; CTList<CLogger>::__alloc
PUBLIC	??0?$CTList@VCSTLogger@@@@QAE@XZ		; CTList<CSTLogger>::CTList<CSTLogger>
PUBLIC	??1?$CTList@VCSTLogger@@@@QAE@XZ		; CTList<CSTLogger>::~CTList<CSTLogger>
PUBLIC	?alloc@?$CTList@VCSTLogger@@@@QAEHHW4E_ALLOC_TYPE@@@Z ; CTList<CSTLogger>::alloc
PUBLIC	?push_back@?$CTList@VCSTLogger@@@@QAE_NPAVCSTLogger@@PAH@Z ; CTList<CSTLogger>::push_back
PUBLIC	?del@?$CTList@VCSTLogger@@@@QAE_NH@Z		; CTList<CSTLogger>::del
PUBLIC	?__alloc@?$CTList@VCSTLogger@@@@AAEHH@Z		; CTList<CSTLogger>::__alloc
PUBLIC	??0?$CTList@VCScheduler@@@@QAE@XZ		; CTList<CScheduler>::CTList<CScheduler>
PUBLIC	??1?$CTList@VCScheduler@@@@QAE@XZ		; CTList<CScheduler>::~CTList<CScheduler>
PUBLIC	?alloc@?$CTList@VCScheduler@@@@QAEHHW4E_ALLOC_TYPE@@@Z ; CTList<CScheduler>::alloc
PUBLIC	?push_back@?$CTList@VCScheduler@@@@QAE_NPAVCScheduler@@PAH@Z ; CTList<CScheduler>::push_back
PUBLIC	?del@?$CTList@VCScheduler@@@@QAE_NH@Z		; CTList<CScheduler>::del
PUBLIC	?__alloc@?$CTList@VCScheduler@@@@AAEHH@Z	; CTList<CScheduler>::__alloc
PUBLIC	??0?$CTList@VCComThread@@@@QAE@XZ		; CTList<CComThread>::CTList<CComThread>
PUBLIC	??1?$CTList@VCComThread@@@@QAE@XZ		; CTList<CComThread>::~CTList<CComThread>
PUBLIC	?alloc@?$CTList@VCComThread@@@@QAEHHW4E_ALLOC_TYPE@@@Z ; CTList<CComThread>::alloc
PUBLIC	?push_back@?$CTList@VCComThread@@@@QAE_NPAVCComThread@@PAH@Z ; CTList<CComThread>::push_back
PUBLIC	?del@?$CTList@VCComThread@@@@QAE_NH@Z		; CTList<CComThread>::del
PUBLIC	?__alloc@?$CTList@VCComThread@@@@AAEHH@Z	; CTList<CComThread>::__alloc
PUBLIC	??0?$CTList@VCComQueueThread@@@@QAE@XZ		; CTList<CComQueueThread>::CTList<CComQueueThread>
PUBLIC	??1?$CTList@VCComQueueThread@@@@QAE@XZ		; CTList<CComQueueThread>::~CTList<CComQueueThread>
PUBLIC	?alloc@?$CTList@VCComQueueThread@@@@QAEHHW4E_ALLOC_TYPE@@@Z ; CTList<CComQueueThread>::alloc
PUBLIC	?push_back@?$CTList@VCComQueueThread@@@@QAE_NPAVCComQueueThread@@PAH@Z ; CTList<CComQueueThread>::push_back
PUBLIC	?del@?$CTList@VCComQueueThread@@@@QAE_NH@Z	; CTList<CComQueueThread>::del
PUBLIC	?__alloc@?$CTList@VCComQueueThread@@@@AAEHH@Z	; CTList<CComQueueThread>::__alloc
PUBLIC	?_OptionsStorage@?1??__local_stdio_printf_options@@9@4_KA ; `__local_stdio_printf_options'::`2'::_OptionsStorage
PUBLIC	??_7abstract_condition@common@@6B@		; common::abstract_condition::`vftable'
PUBLIC	??_7condition@win32@common@@6B@			; common::win32::condition::`vftable'
PUBLIC	??_C@_0BD@KEHDJCKJ@ERROR?$CB?5?$FL?$CFs?3?$CFd?$FN?5?$CFs?6?$AA@ ; `string'
PUBLIC	??_C@_0BC@HFOBLFLD@CComThread?3?3start?$AA@	; `string'
PUBLIC	??_C@_0BF@PBJEBOGJ@m_fpLoopProc?5is?5NULL?$AA@	; `string'
PUBLIC	??_C@_0BC@FMPLMNEG@0?5?$DO?5m_stInfo?4nIdx?$AA@	; `string'
PUBLIC	??_C@_0BJ@FKABIJJM@THREAD_CREATE?5has?5Failed?$AA@ ; `string'
PUBLIC	??_C@_05LFHGFJK@?$CFs_?$CFd?$AA@		; `string'
PUBLIC	??_C@_0L@GOMEIANA@LIST_COUNT?$AA@		; `string'
PUBLIC	??_C@_0BB@FFIPJKHK@CSTLogger?3?3start?$AA@	; `string'
PUBLIC	??_C@_0BA@OBGMEFJD@m_cThread?4start?$AA@	; `string'
PUBLIC	??_C@_0BE@HDKADMG@CSTLogger?3?3start?$CI?$CJ?6?$AA@ ; `string'
PUBLIC	??_C@_0BL@MFPMGOMN@Logger?5is?5already?5Enabled?$CB?$AA@ ; `string'
PUBLIC	??_C@_0BM@IFPFCMMM@CSTLogger?3?3procLoggerEnable?$AA@ ; `string'
PUBLIC	??_C@_0BM@IAMIGODD@Logger?5has?5not?5Initialized?$CB?$AA@ ; `string'
PUBLIC	??_C@_0BH@MHPMOLCC@Logger?5already?5exist?$CB?6?$AA@ ; `string'
PUBLIC	??_C@_0CC@OEPCKACG@m_pLoggerList?9?$DOpush_back?5failed?$CB@ ; `string'
PUBLIC	??_C@_0BH@GGEBDGFN@?$FL?$CFs?$FN?5procLoggerEnable?6?$AA@ ; `string'
PUBLIC	??_C@_0CH@ICKMJPFC@writeCount?$FL?$CFd?$FN?5?$FL?$CFs?$FN?5porcLoggerDi@ ; `string'
PUBLIC	??_C@_09IPMPDBLL@TIME_WAIT?$AA@			; `string'
PUBLIC	??_C@_0CF@NHNDBAHP@has?5Failed?$CB?$CB?5m_pTimeList?9?$DOalloc?$CI@ ; `string'
PUBLIC	??_C@_0BC@IDJCBBDP@CScheduler?3?3start?$AA@	; `string'
PUBLIC	??_C@_0CE@FNDHGGOO@has?5Failed?$CB?$CB?5m_sLogQueue?4alloc?$CI?$CF@ ; `string'
PUBLIC	??_C@_0BH@PGJBCDJH@CComQueueThread?3?3start?$AA@ ; `string'
PUBLIC	??_C@_0BF@NDGHGDGJ@CCoreList?3?3CCoreList?$AA@	; `string'
PUBLIC	??_C@_0BN@HDEHFGON@gs_pMMgr?5alloc?5has?5Failed?$CB?$CB?$CB?$AA@ ; `string'
PUBLIC	??_C@_0BP@LAGKIGDN@initSystemFile?$CI?$CJ?5has?5Failed?$CB?$CB?$CB?$AA@ ; `string'
PUBLIC	??_C@_0BG@MKOFPAPC@start?$CI?$CJ?5has?5Failed?$CB?$CB?$CB?$AA@ ; `string'
PUBLIC	??_C@_0L@OLPHIMBG@IDX_BUF_32?$AA@		; `string'
PUBLIC	??_C@_05CBJFAKLK@MPOOL?$AA@			; `string'
PUBLIC	??_C@_09CIHGEJAE@IDX_BUF_2?$AA@			; `string'
PUBLIC	??_C@_0L@BPLNKJAG@IDX_BUF_?$CFd?$AA@		; `string'
PUBLIC	??_C@_0M@GPHFKKPA@IDX_BUF_?$CFdk?$AA@		; `string'
PUBLIC	??_C@_0N@MEIFEIPH@IDX_BUF_512k?$AA@		; `string'
PUBLIC	??_C@_0L@NFFABJOD@IDX_BUF_1m?$AA@		; `string'
PUBLIC	??_C@_0L@NHBGKHLK@IDX_BUF_2m?$AA@		; `string'
PUBLIC	??_C@_0BK@EAIHANHD@CCoreList?3?3initSystemFile?$AA@ ; `string'
PUBLIC	??_C@_0CA@HMFOBAAE@gs_pMMgr?9?$DOalloc?$CI?$CJ?5has?5Failed?$CB?$CB?$CB?$AA@ ; `string'
PUBLIC	??_C@_09OFIOCMDH@COMTHREAD?$AA@			; `string'
PUBLIC	??_C@_0L@FJAKLKEH@LOG_WRITER?$AA@		; `string'
PUBLIC	??_C@_09OCGIJDP@SCHEDULER?$AA@			; `string'
PUBLIC	??_C@_09HOHNDFAE@EVENTPROC?$AA@			; `string'
PUBLIC	??_C@_0CH@DODOCLKM@gs_DTEManager?4initConfig?5has?5Fai@ ; `string'
PUBLIC	??_C@_03MLIHNEFJ@LOG?$AA@			; `string'
PUBLIC	??_C@_0BJ@JODHBGOK@initLogger?5has?5Failed?$CB?$CB?$CB?$AA@ ; `string'
PUBLIC	??_C@_0BL@NLNFPADL@CCoreList?3?3initDefaultPool?$AA@ ; `string'
PUBLIC	??_C@_0BJ@BBEFOIEG@CCoreList?3?3initComThread?$AA@ ; `string'
PUBLIC	??_C@_0DB@HEKPNAHG@m_pThreadList?5?$DN?5new?5CTList?$DMCComT@ ; `string'
PUBLIC	??_C@_0CI@DDFMBICL@new?5?$CIstd?3?3nothrow?$CJ?5CComThread?$CI?$CJ?5@ ; `string'
PUBLIC	??_C@_0BJ@NIEOMMJI@m_pThreadList?9?$DOpush_back?$AA@ ; `string'
PUBLIC	??_C@_0BO@MFEFFEHB@m_pWriterList?9?$DOalloc?5nCnt?$FL?$CFd?$FN?$AA@ ; `string'
PUBLIC	??_C@_0BJ@GCPBPAB@CCoreList?3?3initLogWriter?$AA@ ; `string'
PUBLIC	??_C@_0DA@CIMDAAPF@?$FLseq?3?$CFd?$FN?5new?5?$CIstd?3?3nothrow?$CJ?5CSTL@ ; `string'
PUBLIC	??_C@_0BH@HINHAJPK@?$FLseq?3?$CFd?$FN?5pWriter?9?$DOinit?$AA@ ; `string'
PUBLIC	??_C@_0BM@PJKPLDJG@?$FLseq?3?$CFd?$FN?5pWriter?9?$DOpush_back?$AA@ ; `string'
PUBLIC	??_C@_0DA@MNBINEIB@new?5?$CIstd?3?3nothrow?$CJ?5CTList?$DMCSched@ ; `string'
PUBLIC	??_C@_0BJ@DFFAHENC@CCoreList?3?3initScheduler?$AA@ ; `string'
PUBLIC	??_C@_0CB@EFDKLENI@m_pSchedulerList?9?$DOalloc?5nCnt?$FL?$CFd?$FN@ ; `string'
PUBLIC	??_C@_0O@PDAGDBGK@TIME_POOL_MAX?$AA@		; `string'
PUBLIC	??_C@_0CI@NHCIEDL@has?5Failed?$CB?$CB?5m_pIntervalPool?4all@ ; `string'
PUBLIC	??_C@_0DB@EGHIILBA@?$FLseq?3?$CFd?$FN?5new?5?$CIstd?3?3nothrow?$CJ?5CSch@ ; `string'
PUBLIC	??_C@_0BK@JFJEJDBI@?$FLseq?3?$CFd?$FN?5pScheduler?9?$DOinit?$AA@ ; `string'
PUBLIC	??_C@_0BP@OAEKJINB@?$FLseq?3?$CFd?$FN?5pScheduler?9?$DOpush_back?$AA@ ; `string'
PUBLIC	??_C@_0EB@PHMKJEKB@has?5Failed?$CB?$CB?5m_pEventThreadList?5@ ; `string'
PUBLIC	??_C@_0P@GPCADKBB@EVENT_POOL_MAX?$AA@		; `string'
PUBLIC	??_C@_0CF@NMFNAPDO@has?5Failed?$CB?$CB?5m_pEventPool?4alloc?$CI@ ; `string'
PUBLIC	??_C@_0EL@EOHMNHFJ@has?5Failed?$CB?$CB?5?$FLseq?3?$CFd?$FN?5pEventThre@ ; `string'
PUBLIC	??_C@_0CM@LDNDJLEG@has?5Failed?$CB?$CB?5?$FLseq?3?$CFd?$FN?5pEventThre@ ; `string'
PUBLIC	??_C@_0EB@LDCGOHOI@has?5Failed?$CB?$CB?5?$FLseq?3?$CFd?$FN?5m_pEventTh@ ; `string'
PUBLIC	??_C@_0BJ@NFOCBANB@pLogger?5is?5NULL?$CB?5?$FL?$CFs?3?$CFs?$FN?$AA@ ; `string'
PUBLIC	??_C@_0BG@OEODDGOM@CCoreList?3?3initLogger?$AA@	; `string'
PUBLIC	??_C@_0CJ@HLHCDNGF@pLogger?9?$DOinitConfig?5has?5Failed?$CB?$CB@ ; `string'
PUBLIC	??_C@_0CG@BAIAACPP@pWriter?5is?5NULL?$CB?$CB?$CB?$FL?$CFs?3?$CFs?$FN?5?$FLnSTLN@ ; `string'
PUBLIC	??_C@_0BP@CCFKGOFH@pWriter?5is?5NULL?$CB?$CB?$CB?$FLnSTLNo?3?$CFd?$FN?6?$AA@ ; `string'
PUBLIC	??_C@_0CE@PKNKGKGA@pWriter?5is?5NULL?$CB?5pLogger?$FLnSTLNo?3@ ; `string'
PUBLIC	??_C@_0BL@FHGEEEFH@CCoreList?3?3setLoggerEnable?$AA@ ; `string'
PUBLIC	??_C@_0BM@CGPJEBN@CCoreList?3?3setLoggerDisable?$AA@ ; `string'
PUBLIC	??_C@_0BM@FKIFMFOP@?$FLlastIdx?3?$CFd?$FN?5new?5CComThread?$AA@ ; `string'
PUBLIC	??_C@_0BI@KPALNNB@CCoreList?3?3addComThread?$AA@ ; `string'
PUBLIC	??_C@_0CE@EIFCBLIK@?$FLidx?3?$CFd?$FN?5m_pThreadList?9?$DOpush_bac@ ; `string'
PUBLIC	??_C@_0BN@OLBGEPKC@?$FLidx?3?$CFd?$FN?5pComThread?9?$DOstart?$CI?$CJ?$AA@ ; `string'
PUBLIC	??_C@_0BI@BNJKEKJG@CCoreList?3?3addLogWriter?$AA@ ; `string'
PUBLIC	??_C@_0CJ@ELILGOLM@pWriter?5?$DN?5new?5?$CIstd?3?3nothrow?$CJ?5CST@ ; `string'
PUBLIC	??_C@_0CF@KCNJDDOF@?$FLidx?3?$CFd?$FN?5pWriter?9?$DOpush_back?$CIpWri@ ; `string'
PUBLIC	??_C@_0CB@ECBGLGCJ@pWriter?9?$DOinit?$CInCount?3?$CFd?0?5idx?3?$CFd?$CJ@ ; `string'
PUBLIC	??_C@_0BL@IJMLHCIC@?$FLidx?3?$CFd?$FN?5pWriter?9?$DOstart?$CI?$CJ?$CB?$AA@ ; `string'
PUBLIC	??_C@_0BI@COOFCBEF@CCoreList?3?3addScheduler?$AA@ ; `string'
PUBLIC	??_C@_0CN@NLDECHHM@pScheduler?5?$DN?5new?5?$CIstd?3?3nothrow?$CJ?5@ ; `string'
PUBLIC	??_C@_0CI@NLNIOEJC@?$FLidx?3?$CFd?$FN?5pScheduler?9?$DOpush_back?$CIp@ ; `string'
PUBLIC	??_C@_0DF@FNNGIHIK@pScheduler?9?$DOinit?$CInCount?3?$CFd?0?5mill@ ; `string'
PUBLIC	??_C@_0BN@KNJLAJGH@?$FLidx?3?$CFd?$FN?5pScheduler?9?$DOstart?$CI?$CJ?$AA@ ; `string'
PUBLIC	??_C@_0BK@FLFKIHIN@CCoreList?3?3addQueueThread?$AA@ ; `string'
PUBLIC	??_C@_0DK@MFBIKLPL@FAIL?$CB?5pEventThread?5?$DN?5new?5?$CIstd?3?3n@ ; `string'
PUBLIC	??_C@_0DF@OMHILDFF@?$FLidx?3?$CFd?$FN?5m_pEventThreadList?9?$DOpus@ ; `string'
PUBLIC	??_C@_0CG@PPDMMDKD@pEventThread?9?$DOinit?$CInCount?3?$CFd?0?5id@ ; `string'
PUBLIC	??_C@_0CB@HLGPKJLB@?$FLidx?3?$CFd?$FN?5pEventThread?9?$DOstart?$CI?$CJ?$CB?5@ ; `string'
PUBLIC	??_C@_0BJ@MCPALMDL@m_pThreadList?9?$DOalloc?$CI?$CFd?$CJ?$AA@ ; `string'
PUBLIC	??_C@_0BJ@NMIDHJOA@m_pWriterList?9?$DOalloc?$CI?$CFd?$CJ?$AA@ ; `string'
PUBLIC	??_C@_0BM@OGIKNPEH@m_pSchedulerList?9?$DOalloc?$CI?$CFd?$CJ?$AA@ ; `string'
PUBLIC	??_C@_0CJ@NBAOIFOJ@has?5Failed?$CB?$CB?5m_pIntervalPool?9?$DOal@ ; `string'
PUBLIC	??_C@_0BO@JEMJGFJG@m_pEventThreadList?9?$DOalloc?$CI?$CFd?$CJ?$AA@ ; `string'
PUBLIC	??_C@_0BL@HOFLCFJO@CCoreList?3?3initQueueThread?$AA@ ; `string'
PUBLIC	??_C@_0CG@KBLFFOON@has?5Failed?$CB?$CB?5m_pEventPool?9?$DOalloc@ ; `string'
PUBLIC	??_C@_0BM@PMNIAOLF@?5del?5FAIL?$CB?5i?$FL?$CFd?$FN?5m_nMax?$FL?$CFd?$FN?$AA@ ; `string'
PUBLIC	??_C@_0BF@ENADEEIE@pList?5calloc?5is?5NULL?$AA@	; `string'
PUBLIC	??_C@_0BG@GLCFBGFL@FULL?$CB?5m_nMaxCount?$FL?$CFd?$FN?$AA@ ; `string'
PUBLIC	??_C@_0CF@ECAEFAC@CMemList?$DMstruct?5STIntervalInfo?$DO?3@ ; `string'
PUBLIC	??_C@_0CF@PKOFFFAP@CMemList?$DMstruct?5STIntervalInfo?$DO?3@ ; `string'
PUBLIC	??_C@_0P@CNFDBGJN@can?8t?5find?5obj?$AA@	; `string'
PUBLIC	??_C@_0BB@GJFHJAKG@i?$FL?$CFd?$FN?5m_nMax?$FL?$CFd?$FN?$AA@ ; `string'
PUBLIC	??_C@_0BG@IBHMGBFD@atomic_nr?$FL?$CFd?$FN?5is?5NULL?$AA@ ; `string'
PUBLIC	??_C@_0BG@JLOFHIPO@m_pChunk?5is?5NULL?5?$FL?$CFd?$FN?$AA@ ; `string'
PUBLIC	??_R4abstract_condition@common@@6B@		; common::abstract_condition::`RTTI Complete Object Locator'
PUBLIC	??_R0?AVabstract_condition@common@@@8		; common::abstract_condition `RTTI Type Descriptor'
PUBLIC	??_R3abstract_condition@common@@8		; common::abstract_condition::`RTTI Class Hierarchy Descriptor'
PUBLIC	??_R2abstract_condition@common@@8		; common::abstract_condition::`RTTI Base Class Array'
PUBLIC	??_R1A@?0A@EA@abstract_condition@common@@8	; common::abstract_condition::`RTTI Base Class Descriptor at (0,-1,0,64)'
PUBLIC	??_R4condition@win32@common@@6B@		; common::win32::condition::`RTTI Complete Object Locator'
PUBLIC	??_R0?AVcondition@win32@common@@@8		; common::win32::condition `RTTI Type Descriptor'
PUBLIC	??_R3condition@win32@common@@8			; common::win32::condition::`RTTI Class Hierarchy Descriptor'
PUBLIC	??_R2condition@win32@common@@8			; common::win32::condition::`RTTI Base Class Array'
PUBLIC	??_R1A@?0A@EA@condition@win32@common@@8		; common::win32::condition::`RTTI Base Class Descriptor at (0,-1,0,64)'
PUBLIC	__real@4020000000000000
EXTRN	??_L@YGXPAXIIP6EX0@Z1@Z:PROC			; `eh vector constructor iterator'
EXTRN	??_M@YGXPAXIIP6EX0@Z@Z:PROC			; `eh vector destructor iterator'
EXTRN	__purecall:PROC
EXTRN	??2@YAPAXI@Z:PROC				; operator new
EXTRN	??3@YAXPAXI@Z:PROC				; operator delete
EXTRN	??_V@YAXPAX@Z:PROC				; operator delete[]
EXTRN	??_V@YAXPAXI@Z:PROC				; operator delete[]
EXTRN	___std_terminate:PROC
EXTRN	?initSystem@CEnv@@SAHPAD@Z:PROC			; CEnv::initSystem
EXTRN	__imp____acrt_iob_func:PROC
EXTRN	__imp____stdio_common_vfprintf:PROC
EXTRN	__imp____stdio_common_vsprintf:PROC
EXTRN	__imp__calloc:PROC
EXTRN	__imp__free:PROC
EXTRN	__imp__exit:PROC
EXTRN	__imp__abort:PROC
EXTRN	__imp__atoi:PROC
EXTRN	??2@YAPAXIABUnothrow_t@std@@@Z:PROC		; operator new
EXTRN	??_U@YAPAXIABUnothrow_t@std@@@Z:PROC		; operator new[]
EXTRN	??3@YAXPAXABUnothrow_t@std@@@Z:PROC		; operator delete
EXTRN	??_V@YAXPAXABUnothrow_t@std@@@Z:PROC		; operator delete[]
EXTRN	__imp__InterlockedIncrement@4:PROC
EXTRN	__imp__InterlockedDecrement@4:PROC
EXTRN	__imp__InterlockedCompareExchange@12:PROC
EXTRN	__imp__CreateThread@24:PROC
EXTRN	__imp__SetEvent@4:PROC
EXTRN	__imp__ResetEvent@4:PROC
EXTRN	__imp__WaitForSingleObject@8:PROC
EXTRN	__imp__CloseHandle@4:PROC
EXTRN	__imp__GetTickCount@0:PROC
EXTRN	__imp__CreateEventA@16:PROC
EXTRN	__imp__GetPrivateProfileIntA@16:PROC
EXTRN	??_Eabstract_condition@common@@UAEPAXI@Z:PROC	; common::abstract_condition::`vector deleting destructor'
EXTRN	??_Econdition@win32@common@@UAEPAXI@Z:PROC	; common::win32::condition::`vector deleting destructor'
EXTRN	??0CQueueS@@QAE@XZ:PROC				; CQueueS::CQueueS
EXTRN	??1CQueueS@@QAE@XZ:PROC				; CQueueS::~CQueueS
EXTRN	?alloc@CQueueS@@QAE_NHW4E_ALLOC_TYPE@@@Z:PROC	; CQueueS::alloc
EXTRN	?push@CQueueS@@QAE_NPAX@Z:PROC			; CQueueS::push
EXTRN	?pop@CQueueS@@QAEPAXXZ:PROC			; CQueueS::pop
EXTRN	??0CDateTime@@QAE@W4DT_TYPE@@W4TZ_TYPE@@@Z:PROC	; CDateTime::CDateTime
EXTRN	??1CDateTime@@QAE@XZ:PROC			; CDateTime::~CDateTime
EXTRN	?DateString@CDateTime@@QAEPBDD@Z:PROC		; CDateTime::DateString
EXTRN	??0CMemManager@@QAE@XZ:PROC			; CMemManager::CMemManager
EXTRN	?init@CMemManager@@QAEXPAUSTBufConf@@@Z:PROC	; CMemManager::init
EXTRN	?alloc@CMemManager@@QAE_NXZ:PROC		; CMemManager::alloc
EXTRN	?delBufByIndex@CMemManager@@QAEXPADH@Z:PROC	; CMemManager::delBufByIndex
EXTRN	?__newBuf@CMemManager@@AAEPADHI@Z:PROC		; CMemManager::__newBuf
EXTRN	?initConfig@CTimeExpManager@@QAE_NPAD@Z:PROC	; CTimeExpManager::initConfig
EXTRN	??1CLogger@@QAE@XZ:PROC				; CLogger::~CLogger
EXTRN	?initConfig@CLogger@@QAE?AW4E_LOG_INIT_RES@@PAD0@Z:PROC ; CLogger::initConfig
EXTRN	?OpenLogger@CLogger@@QAEXXZ:PROC		; CLogger::OpenLogger
EXTRN	?LogPrint@CLogger@@QAEXPAD@Z:PROC		; CLogger::LogPrint
EXTRN	?disable@CLogger@@QAEXXZ:PROC			; CLogger::disable
EXTRN	?checkChangeProc@CLogger@@QAEXH@Z:PROC		; CLogger::checkChangeProc
EXTRN	@__security_check_cookie@4:PROC
EXTRN	___CxxFrameHandler3:PROC
EXTRN	_memcpy:PROC
EXTRN	_memset:PROC
EXTRN	?nothrow@std@@3Unothrow_t@1@B:BYTE		; std::nothrow
EXTRN	?g_pSystem@@3PADA:DWORD				; g_pSystem
EXTRN	?g_szSystemError@@3PADA:BYTE			; g_szSystemError
EXTRN	?g_szMessage@@3PADA:BYTE			; g_szMessage
EXTRN	?gs_pMMgr@@3PAVCMemManager@@A:DWORD		; gs_pMMgr
EXTRN	?gs_cLogger@@3VCLogger@@A:BYTE			; gs_cLogger
EXTRN	?gs_DTEManager@@3VCTimeExpManager@@A:DWORD	; gs_DTEManager
EXTRN	??_7type_info@@6B@:QWORD			; type_info::`vftable'
EXTRN	___security_cookie:DWORD
EXTRN	__fltused:DWORD
;	COMDAT ?_OptionsStorage@?1??__local_stdio_printf_options@@9@4_KA
_BSS	SEGMENT
?_OptionsStorage@?1??__local_stdio_printf_options@@9@4_KA DQ 01H DUP (?) ; `__local_stdio_printf_options'::`2'::_OptionsStorage
_BSS	ENDS
;	COMDAT __real@4020000000000000
CONST	SEGMENT
__real@4020000000000000 DQ 04020000000000000r	; 8
CONST	ENDS
;	COMDAT ??_R1A@?0A@EA@condition@win32@common@@8
rdata$r	SEGMENT
??_R1A@?0A@EA@condition@win32@common@@8 DD FLAT:??_R0?AVcondition@win32@common@@@8 ; common::win32::condition::`RTTI Base Class Descriptor at (0,-1,0,64)'
	DD	01H
	DD	00H
	DD	0ffffffffH
	DD	00H
	DD	040H
	DD	FLAT:??_R3condition@win32@common@@8
rdata$r	ENDS
;	COMDAT ??_R2condition@win32@common@@8
rdata$r	SEGMENT
??_R2condition@win32@common@@8 DD FLAT:??_R1A@?0A@EA@condition@win32@common@@8 ; common::win32::condition::`RTTI Base Class Array'
	DD	FLAT:??_R1A@?0A@EA@abstract_condition@common@@8
rdata$r	ENDS
;	COMDAT ??_R3condition@win32@common@@8
rdata$r	SEGMENT
??_R3condition@win32@common@@8 DD 00H			; common::win32::condition::`RTTI Class Hierarchy Descriptor'
	DD	00H
	DD	02H
	DD	FLAT:??_R2condition@win32@common@@8
rdata$r	ENDS
;	COMDAT ??_R0?AVcondition@win32@common@@@8
data$r	SEGMENT
??_R0?AVcondition@win32@common@@@8 DD FLAT:??_7type_info@@6B@ ; common::win32::condition `RTTI Type Descriptor'
	DD	00H
	DB	'.?AVcondition@win32@common@@', 00H
data$r	ENDS
;	COMDAT ??_R4condition@win32@common@@6B@
rdata$r	SEGMENT
??_R4condition@win32@common@@6B@ DD 00H			; common::win32::condition::`RTTI Complete Object Locator'
	DD	00H
	DD	00H
	DD	FLAT:??_R0?AVcondition@win32@common@@@8
	DD	FLAT:??_R3condition@win32@common@@8
rdata$r	ENDS
;	COMDAT ??_R1A@?0A@EA@abstract_condition@common@@8
rdata$r	SEGMENT
??_R1A@?0A@EA@abstract_condition@common@@8 DD FLAT:??_R0?AVabstract_condition@common@@@8 ; common::abstract_condition::`RTTI Base Class Descriptor at (0,-1,0,64)'
	DD	00H
	DD	00H
	DD	0ffffffffH
	DD	00H
	DD	040H
	DD	FLAT:??_R3abstract_condition@common@@8
rdata$r	ENDS
;	COMDAT ??_R2abstract_condition@common@@8
rdata$r	SEGMENT
??_R2abstract_condition@common@@8 DD FLAT:??_R1A@?0A@EA@abstract_condition@common@@8 ; common::abstract_condition::`RTTI Base Class Array'
rdata$r	ENDS
;	COMDAT ??_R3abstract_condition@common@@8
rdata$r	SEGMENT
??_R3abstract_condition@common@@8 DD 00H		; common::abstract_condition::`RTTI Class Hierarchy Descriptor'
	DD	00H
	DD	01H
	DD	FLAT:??_R2abstract_condition@common@@8
rdata$r	ENDS
;	COMDAT ??_R0?AVabstract_condition@common@@@8
data$r	SEGMENT
??_R0?AVabstract_condition@common@@@8 DD FLAT:??_7type_info@@6B@ ; common::abstract_condition `RTTI Type Descriptor'
	DD	00H
	DB	'.?AVabstract_condition@common@@', 00H
data$r	ENDS
;	COMDAT ??_R4abstract_condition@common@@6B@
rdata$r	SEGMENT
??_R4abstract_condition@common@@6B@ DD 00H		; common::abstract_condition::`RTTI Complete Object Locator'
	DD	00H
	DD	00H
	DD	FLAT:??_R0?AVabstract_condition@common@@@8
	DD	FLAT:??_R3abstract_condition@common@@8
rdata$r	ENDS
;	COMDAT ??_C@_0BG@JLOFHIPO@m_pChunk?5is?5NULL?5?$FL?$CFd?$FN?$AA@
CONST	SEGMENT
??_C@_0BG@JLOFHIPO@m_pChunk?5is?5NULL?5?$FL?$CFd?$FN?$AA@ DB 'm_pChunk is'
	DB	' NULL [%d]', 00H				; `string'
CONST	ENDS
;	COMDAT ??_C@_0BG@IBHMGBFD@atomic_nr?$FL?$CFd?$FN?5is?5NULL?$AA@
CONST	SEGMENT
??_C@_0BG@IBHMGBFD@atomic_nr?$FL?$CFd?$FN?5is?5NULL?$AA@ DB 'atomic_nr[%d'
	DB	'] is NULL', 00H				; `string'
CONST	ENDS
;	COMDAT ??_C@_0BB@GJFHJAKG@i?$FL?$CFd?$FN?5m_nMax?$FL?$CFd?$FN?$AA@
CONST	SEGMENT
??_C@_0BB@GJFHJAKG@i?$FL?$CFd?$FN?5m_nMax?$FL?$CFd?$FN?$AA@ DB 'i[%d] m_n'
	DB	'Max[%d]', 00H				; `string'
CONST	ENDS
;	COMDAT ??_C@_0P@CNFDBGJN@can?8t?5find?5obj?$AA@
CONST	SEGMENT
??_C@_0P@CNFDBGJN@can?8t?5find?5obj?$AA@ DB 'can''t find obj', 00H ; `string'
CONST	ENDS
;	COMDAT ??_C@_0CF@PKOFFFAP@CMemList?$DMstruct?5STIntervalInfo?$DO?3@
CONST	SEGMENT
??_C@_0CF@PKOFFFAP@CMemList?$DMstruct?5STIntervalInfo?$DO?3@ DB 'CMemList'
	DB	'<struct STIntervalInfo>::del', 00H		; `string'
CONST	ENDS
;	COMDAT ??_C@_0CF@ECAEFAC@CMemList?$DMstruct?5STIntervalInfo?$DO?3@
CONST	SEGMENT
??_C@_0CF@ECAEFAC@CMemList?$DMstruct?5STIntervalInfo?$DO?3@ DB 'CMemList<'
	DB	'struct STIntervalInfo>::add', 00H		; `string'
CONST	ENDS
;	COMDAT ??_C@_0BG@GLCFBGFL@FULL?$CB?5m_nMaxCount?$FL?$CFd?$FN?$AA@
CONST	SEGMENT
??_C@_0BG@GLCFBGFL@FULL?$CB?5m_nMaxCount?$FL?$CFd?$FN?$AA@ DB 'FULL! m_nM'
	DB	'axCount[%d]', 00H				; `string'
CONST	ENDS
;	COMDAT ??_C@_0BF@ENADEEIE@pList?5calloc?5is?5NULL?$AA@
CONST	SEGMENT
??_C@_0BF@ENADEEIE@pList?5calloc?5is?5NULL?$AA@ DB 'pList calloc is NULL', 00H ; `string'
CONST	ENDS
;	COMDAT ??_C@_0BM@PMNIAOLF@?5del?5FAIL?$CB?5i?$FL?$CFd?$FN?5m_nMax?$FL?$CFd?$FN?$AA@
CONST	SEGMENT
??_C@_0BM@PMNIAOLF@?5del?5FAIL?$CB?5i?$FL?$CFd?$FN?5m_nMax?$FL?$CFd?$FN?$AA@ DB ' '
	DB	'del FAIL! i[%d] m_nMax[%d]', 00H		; `string'
CONST	ENDS
;	COMDAT ??_C@_0CG@KBLFFOON@has?5Failed?$CB?$CB?5m_pEventPool?9?$DOalloc@
CONST	SEGMENT
??_C@_0CG@KBLFFOON@has?5Failed?$CB?$CB?5m_pEventPool?9?$DOalloc@ DB 'has '
	DB	'Failed!! m_pEventPool->alloc(%d)', 0aH, 00H	; `string'
CONST	ENDS
;	COMDAT ??_C@_0BL@HOFLCFJO@CCoreList?3?3initQueueThread?$AA@
CONST	SEGMENT
??_C@_0BL@HOFLCFJO@CCoreList?3?3initQueueThread?$AA@ DB 'CCoreList::initQ'
	DB	'ueueThread', 00H				; `string'
CONST	ENDS
;	COMDAT ??_C@_0BO@JEMJGFJG@m_pEventThreadList?9?$DOalloc?$CI?$CFd?$CJ?$AA@
CONST	SEGMENT
??_C@_0BO@JEMJGFJG@m_pEventThreadList?9?$DOalloc?$CI?$CFd?$CJ?$AA@ DB 'm_'
	DB	'pEventThreadList->alloc(%d)', 00H		; `string'
CONST	ENDS
;	COMDAT ??_C@_0CJ@NBAOIFOJ@has?5Failed?$CB?$CB?5m_pIntervalPool?9?$DOal@
CONST	SEGMENT
??_C@_0CJ@NBAOIFOJ@has?5Failed?$CB?$CB?5m_pIntervalPool?9?$DOal@ DB 'has '
	DB	'Failed!! m_pIntervalPool->alloc(%d)', 0aH, 00H ; `string'
CONST	ENDS
;	COMDAT ??_C@_0BM@OGIKNPEH@m_pSchedulerList?9?$DOalloc?$CI?$CFd?$CJ?$AA@
CONST	SEGMENT
??_C@_0BM@OGIKNPEH@m_pSchedulerList?9?$DOalloc?$CI?$CFd?$CJ?$AA@ DB 'm_pS'
	DB	'chedulerList->alloc(%d)', 00H		; `string'
CONST	ENDS
;	COMDAT ??_C@_0BJ@NMIDHJOA@m_pWriterList?9?$DOalloc?$CI?$CFd?$CJ?$AA@
CONST	SEGMENT
??_C@_0BJ@NMIDHJOA@m_pWriterList?9?$DOalloc?$CI?$CFd?$CJ?$AA@ DB 'm_pWrit'
	DB	'erList->alloc(%d)', 00H			; `string'
CONST	ENDS
;	COMDAT ??_C@_0BJ@MCPALMDL@m_pThreadList?9?$DOalloc?$CI?$CFd?$CJ?$AA@
CONST	SEGMENT
??_C@_0BJ@MCPALMDL@m_pThreadList?9?$DOalloc?$CI?$CFd?$CJ?$AA@ DB 'm_pThre'
	DB	'adList->alloc(%d)', 00H			; `string'
CONST	ENDS
;	COMDAT ??_C@_0CB@HLGPKJLB@?$FLidx?3?$CFd?$FN?5pEventThread?9?$DOstart?$CI?$CJ?$CB?5@
CONST	SEGMENT
??_C@_0CB@HLGPKJLB@?$FLidx?3?$CFd?$FN?5pEventThread?9?$DOstart?$CI?$CJ?$CB?5@ DB '['
	DB	'idx:%d] pEventThread->start()! ', 00H	; `string'
CONST	ENDS
;	COMDAT ??_C@_0CG@PPDMMDKD@pEventThread?9?$DOinit?$CInCount?3?$CFd?0?5id@
CONST	SEGMENT
??_C@_0CG@PPDMMDKD@pEventThread?9?$DOinit?$CInCount?3?$CFd?0?5id@ DB 'pEv'
	DB	'entThread->init(nCount:%d, idx:%d)', 00H	; `string'
CONST	ENDS
;	COMDAT ??_C@_0DF@OMHILDFF@?$FLidx?3?$CFd?$FN?5m_pEventThreadList?9?$DOpus@
CONST	SEGMENT
??_C@_0DF@OMHILDFF@?$FLidx?3?$CFd?$FN?5m_pEventThreadList?9?$DOpus@ DB '['
	DB	'idx:%d] m_pEventThreadList->push_back(pEventThread)', 00H ; `string'
CONST	ENDS
;	COMDAT ??_C@_0DK@MFBIKLPL@FAIL?$CB?5pEventThread?5?$DN?5new?5?$CIstd?3?3n@
CONST	SEGMENT
??_C@_0DK@MFBIKLPL@FAIL?$CB?5pEventThread?5?$DN?5new?5?$CIstd?3?3n@ DB 'F'
	DB	'AIL! pEventThread = new (std::nothrow) CComQueueThread()', 00H ; `string'
CONST	ENDS
;	COMDAT ??_C@_0BK@FLFKIHIN@CCoreList?3?3addQueueThread?$AA@
CONST	SEGMENT
??_C@_0BK@FLFKIHIN@CCoreList?3?3addQueueThread?$AA@ DB 'CCoreList::addQue'
	DB	'ueThread', 00H				; `string'
CONST	ENDS
;	COMDAT ??_C@_0BN@KNJLAJGH@?$FLidx?3?$CFd?$FN?5pScheduler?9?$DOstart?$CI?$CJ?$AA@
CONST	SEGMENT
??_C@_0BN@KNJLAJGH@?$FLidx?3?$CFd?$FN?5pScheduler?9?$DOstart?$CI?$CJ?$AA@ DB '['
	DB	'idx:%d] pScheduler->start()', 00H		; `string'
CONST	ENDS
;	COMDAT ??_C@_0DF@FNNGIHIK@pScheduler?9?$DOinit?$CInCount?3?$CFd?0?5mill@
CONST	SEGMENT
??_C@_0DF@FNNGIHIK@pScheduler?9?$DOinit?$CInCount?3?$CFd?0?5mill@ DB 'pSc'
	DB	'heduler->init(nCount:%d, millisecWait:%d, idx:%d)', 00H ; `string'
CONST	ENDS
;	COMDAT ??_C@_0CI@NLNIOEJC@?$FLidx?3?$CFd?$FN?5pScheduler?9?$DOpush_back?$CIp@
CONST	SEGMENT
??_C@_0CI@NLNIOEJC@?$FLidx?3?$CFd?$FN?5pScheduler?9?$DOpush_back?$CIp@ DB '['
	DB	'idx:%d] pScheduler->push_back(pWriter)', 00H ; `string'
CONST	ENDS
;	COMDAT ??_C@_0CN@NLDECHHM@pScheduler?5?$DN?5new?5?$CIstd?3?3nothrow?$CJ?5@
CONST	SEGMENT
??_C@_0CN@NLDECHHM@pScheduler?5?$DN?5new?5?$CIstd?3?3nothrow?$CJ?5@ DB 'p'
	DB	'Scheduler = new (std::nothrow) CScheduler()', 00H ; `string'
CONST	ENDS
;	COMDAT ??_C@_0BI@COOFCBEF@CCoreList?3?3addScheduler?$AA@
CONST	SEGMENT
??_C@_0BI@COOFCBEF@CCoreList?3?3addScheduler?$AA@ DB 'CCoreList::addSched'
	DB	'uler', 00H					; `string'
CONST	ENDS
;	COMDAT ??_C@_0BL@IJMLHCIC@?$FLidx?3?$CFd?$FN?5pWriter?9?$DOstart?$CI?$CJ?$CB?$AA@
CONST	SEGMENT
??_C@_0BL@IJMLHCIC@?$FLidx?3?$CFd?$FN?5pWriter?9?$DOstart?$CI?$CJ?$CB?$AA@ DB '['
	DB	'idx:%d] pWriter->start()!', 00H		; `string'
CONST	ENDS
;	COMDAT ??_C@_0CB@ECBGLGCJ@pWriter?9?$DOinit?$CInCount?3?$CFd?0?5idx?3?$CFd?$CJ@
CONST	SEGMENT
??_C@_0CB@ECBGLGCJ@pWriter?9?$DOinit?$CInCount?3?$CFd?0?5idx?3?$CFd?$CJ@ DB 'p'
	DB	'Writer->init(nCount:%d, idx:%d)', 00H	; `string'
CONST	ENDS
;	COMDAT ??_C@_0CF@KCNJDDOF@?$FLidx?3?$CFd?$FN?5pWriter?9?$DOpush_back?$CIpWri@
CONST	SEGMENT
??_C@_0CF@KCNJDDOF@?$FLidx?3?$CFd?$FN?5pWriter?9?$DOpush_back?$CIpWri@ DB '['
	DB	'idx:%d] pWriter->push_back(pWriter)', 00H	; `string'
CONST	ENDS
;	COMDAT ??_C@_0CJ@ELILGOLM@pWriter?5?$DN?5new?5?$CIstd?3?3nothrow?$CJ?5CST@
CONST	SEGMENT
??_C@_0CJ@ELILGOLM@pWriter?5?$DN?5new?5?$CIstd?3?3nothrow?$CJ?5CST@ DB 'p'
	DB	'Writer = new (std::nothrow) CSTLogger()', 00H ; `string'
CONST	ENDS
;	COMDAT ??_C@_0BI@BNJKEKJG@CCoreList?3?3addLogWriter?$AA@
CONST	SEGMENT
??_C@_0BI@BNJKEKJG@CCoreList?3?3addLogWriter?$AA@ DB 'CCoreList::addLogWr'
	DB	'iter', 00H					; `string'
CONST	ENDS
;	COMDAT ??_C@_0BN@OLBGEPKC@?$FLidx?3?$CFd?$FN?5pComThread?9?$DOstart?$CI?$CJ?$AA@
CONST	SEGMENT
??_C@_0BN@OLBGEPKC@?$FLidx?3?$CFd?$FN?5pComThread?9?$DOstart?$CI?$CJ?$AA@ DB '['
	DB	'idx:%d] pComThread->start()', 00H		; `string'
CONST	ENDS
;	COMDAT ??_C@_0CE@EIFCBLIK@?$FLidx?3?$CFd?$FN?5m_pThreadList?9?$DOpush_bac@
CONST	SEGMENT
??_C@_0CE@EIFCBLIK@?$FLidx?3?$CFd?$FN?5m_pThreadList?9?$DOpush_bac@ DB '['
	DB	'idx:%d] m_pThreadList->push_back()', 00H	; `string'
CONST	ENDS
;	COMDAT ??_C@_0BI@KPALNNB@CCoreList?3?3addComThread?$AA@
CONST	SEGMENT
??_C@_0BI@KPALNNB@CCoreList?3?3addComThread?$AA@ DB 'CCoreList::addComThr'
	DB	'ead', 00H					; `string'
CONST	ENDS
;	COMDAT ??_C@_0BM@FKIFMFOP@?$FLlastIdx?3?$CFd?$FN?5new?5CComThread?$AA@
CONST	SEGMENT
??_C@_0BM@FKIFMFOP@?$FLlastIdx?3?$CFd?$FN?5new?5CComThread?$AA@ DB '[last'
	DB	'Idx:%d] new CComThread', 00H		; `string'
CONST	ENDS
;	COMDAT ??_C@_0BM@CGPJEBN@CCoreList?3?3setLoggerDisable?$AA@
CONST	SEGMENT
??_C@_0BM@CGPJEBN@CCoreList?3?3setLoggerDisable?$AA@ DB 'CCoreList::setLo'
	DB	'ggerDisable', 00H				; `string'
CONST	ENDS
;	COMDAT ??_C@_0BL@FHGEEEFH@CCoreList?3?3setLoggerEnable?$AA@
CONST	SEGMENT
??_C@_0BL@FHGEEEFH@CCoreList?3?3setLoggerEnable?$AA@ DB 'CCoreList::setLo'
	DB	'ggerEnable', 00H				; `string'
CONST	ENDS
;	COMDAT ??_C@_0CE@PKNKGKGA@pWriter?5is?5NULL?$CB?5pLogger?$FLnSTLNo?3@
CONST	SEGMENT
??_C@_0CE@PKNKGKGA@pWriter?5is?5NULL?$CB?5pLogger?$FLnSTLNo?3@ DB 'pWrite'
	DB	'r is NULL! pLogger[nSTLNo:%d]', 00H		; `string'
CONST	ENDS
;	COMDAT ??_C@_0BP@CCFKGOFH@pWriter?5is?5NULL?$CB?$CB?$CB?$FLnSTLNo?3?$CFd?$FN?6?$AA@
CONST	SEGMENT
??_C@_0BP@CCFKGOFH@pWriter?5is?5NULL?$CB?$CB?$CB?$FLnSTLNo?3?$CFd?$FN?6?$AA@ DB 'p'
	DB	'Writer is NULL!!![nSTLNo:%d]', 0aH, 00H	; `string'
CONST	ENDS
;	COMDAT ??_C@_0CG@BAIAACPP@pWriter?5is?5NULL?$CB?$CB?$CB?$FL?$CFs?3?$CFs?$FN?5?$FLnSTLN@
CONST	SEGMENT
??_C@_0CG@BAIAACPP@pWriter?5is?5NULL?$CB?$CB?$CB?$FL?$CFs?3?$CFs?$FN?5?$FLnSTLN@ DB 'p'
	DB	'Writer is NULL!!![%s:%s] [nSTLNo:%d]', 00H	; `string'
CONST	ENDS
;	COMDAT ??_C@_0CJ@HLHCDNGF@pLogger?9?$DOinitConfig?5has?5Failed?$CB?$CB@
CONST	SEGMENT
??_C@_0CJ@HLHCDNGF@pLogger?9?$DOinitConfig?5has?5Failed?$CB?$CB@ DB 'pLog'
	DB	'ger->initConfig has Failed!!![%s:%s]', 00H	; `string'
CONST	ENDS
;	COMDAT ??_C@_0BG@OEODDGOM@CCoreList?3?3initLogger?$AA@
CONST	SEGMENT
??_C@_0BG@OEODDGOM@CCoreList?3?3initLogger?$AA@ DB 'CCoreList::initLogger'
	DB	00H						; `string'
CONST	ENDS
;	COMDAT ??_C@_0BJ@NFOCBANB@pLogger?5is?5NULL?$CB?5?$FL?$CFs?3?$CFs?$FN?$AA@
CONST	SEGMENT
??_C@_0BJ@NFOCBANB@pLogger?5is?5NULL?$CB?5?$FL?$CFs?3?$CFs?$FN?$AA@ DB 'p'
	DB	'Logger is NULL! [%s:%s]', 00H		; `string'
CONST	ENDS
;	COMDAT ??_C@_0EB@LDCGOHOI@has?5Failed?$CB?$CB?5?$FLseq?3?$CFd?$FN?5m_pEventTh@
CONST	SEGMENT
??_C@_0EB@LDCGOHOI@has?5Failed?$CB?$CB?5?$FLseq?3?$CFd?$FN?5m_pEventTh@ DB 'h'
	DB	'as Failed!! [seq:%d] m_pEventThreadList->setNewObj(pScheduler'
	DB	')', 0aH, 00H				; `string'
CONST	ENDS
;	COMDAT ??_C@_0CM@LDNDJLEG@has?5Failed?$CB?$CB?5?$FLseq?3?$CFd?$FN?5pEventThre@
CONST	SEGMENT
??_C@_0CM@LDNDJLEG@has?5Failed?$CB?$CB?5?$FLseq?3?$CFd?$FN?5pEventThre@ DB 'h'
	DB	'as Failed!! [seq:%d] pEventThread->init()', 0aH, 00H ; `string'
CONST	ENDS
;	COMDAT ??_C@_0EL@EOHMNHFJ@has?5Failed?$CB?$CB?5?$FLseq?3?$CFd?$FN?5pEventThre@
CONST	SEGMENT
??_C@_0EL@EOHMNHFJ@has?5Failed?$CB?$CB?5?$FLseq?3?$CFd?$FN?5pEventThre@ DB 'h'
	DB	'as Failed!! [seq:%d] pEventThread = new (std::nothrow) CComQu'
	DB	'eueThread()', 0aH, 00H			; `string'
CONST	ENDS
;	COMDAT ??_C@_0CF@NMFNAPDO@has?5Failed?$CB?$CB?5m_pEventPool?4alloc?$CI@
CONST	SEGMENT
??_C@_0CF@NMFNAPDO@has?5Failed?$CB?$CB?5m_pEventPool?4alloc?$CI@ DB 'has '
	DB	'Failed!! m_pEventPool.alloc(%d)', 0aH, 00H	; `string'
CONST	ENDS
;	COMDAT ??_C@_0P@GPCADKBB@EVENT_POOL_MAX?$AA@
CONST	SEGMENT
??_C@_0P@GPCADKBB@EVENT_POOL_MAX?$AA@ DB 'EVENT_POOL_MAX', 00H ; `string'
CONST	ENDS
;	COMDAT ??_C@_0EB@PHMKJEKB@has?5Failed?$CB?$CB?5m_pEventThreadList?5@
CONST	SEGMENT
??_C@_0EB@PHMKJEKB@has?5Failed?$CB?$CB?5m_pEventThreadList?5@ DB 'has Fai'
	DB	'led!! m_pEventThreadList = new CTList<CComQueueThread>()', 0aH
	DB	00H						; `string'
CONST	ENDS
;	COMDAT ??_C@_0BP@OAEKJINB@?$FLseq?3?$CFd?$FN?5pScheduler?9?$DOpush_back?$AA@
CONST	SEGMENT
??_C@_0BP@OAEKJINB@?$FLseq?3?$CFd?$FN?5pScheduler?9?$DOpush_back?$AA@ DB '['
	DB	'seq:%d] pScheduler->push_back', 00H		; `string'
CONST	ENDS
;	COMDAT ??_C@_0BK@JFJEJDBI@?$FLseq?3?$CFd?$FN?5pScheduler?9?$DOinit?$AA@
CONST	SEGMENT
??_C@_0BK@JFJEJDBI@?$FLseq?3?$CFd?$FN?5pScheduler?9?$DOinit?$AA@ DB '[seq'
	DB	':%d] pScheduler->init', 00H			; `string'
CONST	ENDS
;	COMDAT ??_C@_0DB@EGHIILBA@?$FLseq?3?$CFd?$FN?5new?5?$CIstd?3?3nothrow?$CJ?5CSch@
CONST	SEGMENT
??_C@_0DB@EGHIILBA@?$FLseq?3?$CFd?$FN?5new?5?$CIstd?3?3nothrow?$CJ?5CSch@ DB '['
	DB	'seq:%d] new (std::nothrow) CScheduler() is NULL', 00H ; `string'
CONST	ENDS
;	COMDAT ??_C@_0CI@NHCIEDL@has?5Failed?$CB?$CB?5m_pIntervalPool?4all@
CONST	SEGMENT
??_C@_0CI@NHCIEDL@has?5Failed?$CB?$CB?5m_pIntervalPool?4all@ DB 'has Fail'
	DB	'ed!! m_pIntervalPool.alloc(%d)', 0aH, 00H	; `string'
CONST	ENDS
;	COMDAT ??_C@_0O@PDAGDBGK@TIME_POOL_MAX?$AA@
CONST	SEGMENT
??_C@_0O@PDAGDBGK@TIME_POOL_MAX?$AA@ DB 'TIME_POOL_MAX', 00H ; `string'
CONST	ENDS
;	COMDAT ??_C@_0CB@EFDKLENI@m_pSchedulerList?9?$DOalloc?5nCnt?$FL?$CFd?$FN@
CONST	SEGMENT
??_C@_0CB@EFDKLENI@m_pSchedulerList?9?$DOalloc?5nCnt?$FL?$CFd?$FN@ DB 'm_'
	DB	'pSchedulerList->alloc nCnt[%d]', 00H	; `string'
CONST	ENDS
;	COMDAT ??_C@_0BJ@DFFAHENC@CCoreList?3?3initScheduler?$AA@
CONST	SEGMENT
??_C@_0BJ@DFFAHENC@CCoreList?3?3initScheduler?$AA@ DB 'CCoreList::initSch'
	DB	'eduler', 00H				; `string'
CONST	ENDS
;	COMDAT ??_C@_0DA@MNBINEIB@new?5?$CIstd?3?3nothrow?$CJ?5CTList?$DMCSched@
CONST	SEGMENT
??_C@_0DA@MNBINEIB@new?5?$CIstd?3?3nothrow?$CJ?5CTList?$DMCSched@ DB 'new'
	DB	' (std::nothrow) CTList<CScheduler>() is NULL', 00H ; `string'
CONST	ENDS
;	COMDAT ??_C@_0BM@PJKPLDJG@?$FLseq?3?$CFd?$FN?5pWriter?9?$DOpush_back?$AA@
CONST	SEGMENT
??_C@_0BM@PJKPLDJG@?$FLseq?3?$CFd?$FN?5pWriter?9?$DOpush_back?$AA@ DB '[s'
	DB	'eq:%d] pWriter->push_back', 00H		; `string'
CONST	ENDS
;	COMDAT ??_C@_0BH@HINHAJPK@?$FLseq?3?$CFd?$FN?5pWriter?9?$DOinit?$AA@
CONST	SEGMENT
??_C@_0BH@HINHAJPK@?$FLseq?3?$CFd?$FN?5pWriter?9?$DOinit?$AA@ DB '[seq:%d'
	DB	'] pWriter->init', 00H			; `string'
CONST	ENDS
;	COMDAT ??_C@_0DA@CIMDAAPF@?$FLseq?3?$CFd?$FN?5new?5?$CIstd?3?3nothrow?$CJ?5CSTL@
CONST	SEGMENT
??_C@_0DA@CIMDAAPF@?$FLseq?3?$CFd?$FN?5new?5?$CIstd?3?3nothrow?$CJ?5CSTL@ DB '['
	DB	'seq:%d] new (std::nothrow) CSTLogger() is NULL', 00H ; `string'
CONST	ENDS
;	COMDAT ??_C@_0BJ@GCPBPAB@CCoreList?3?3initLogWriter?$AA@
CONST	SEGMENT
??_C@_0BJ@GCPBPAB@CCoreList?3?3initLogWriter?$AA@ DB 'CCoreList::initLogW'
	DB	'riter', 00H					; `string'
CONST	ENDS
;	COMDAT ??_C@_0BO@MFEFFEHB@m_pWriterList?9?$DOalloc?5nCnt?$FL?$CFd?$FN?$AA@
CONST	SEGMENT
??_C@_0BO@MFEFFEHB@m_pWriterList?9?$DOalloc?5nCnt?$FL?$CFd?$FN?$AA@ DB 'm'
	DB	'_pWriterList->alloc nCnt[%d]', 00H		; `string'
CONST	ENDS
;	COMDAT ??_C@_0BJ@NIEOMMJI@m_pThreadList?9?$DOpush_back?$AA@
CONST	SEGMENT
??_C@_0BJ@NIEOMMJI@m_pThreadList?9?$DOpush_back?$AA@ DB 'm_pThreadList->p'
	DB	'ush_back', 00H				; `string'
CONST	ENDS
;	COMDAT ??_C@_0CI@DDFMBICL@new?5?$CIstd?3?3nothrow?$CJ?5CComThread?$CI?$CJ?5@
CONST	SEGMENT
??_C@_0CI@DDFMBICL@new?5?$CIstd?3?3nothrow?$CJ?5CComThread?$CI?$CJ?5@ DB 'n'
	DB	'ew (std::nothrow) CComThread() is NULL', 00H ; `string'
CONST	ENDS
;	COMDAT ??_C@_0DB@HEKPNAHG@m_pThreadList?5?$DN?5new?5CTList?$DMCComT@
CONST	SEGMENT
??_C@_0DB@HEKPNAHG@m_pThreadList?5?$DN?5new?5CTList?$DMCComT@ DB 'm_pThre'
	DB	'adList = new CTList<CComThread>() is NULL', 00H ; `string'
CONST	ENDS
;	COMDAT ??_C@_0BJ@BBEFOIEG@CCoreList?3?3initComThread?$AA@
CONST	SEGMENT
??_C@_0BJ@BBEFOIEG@CCoreList?3?3initComThread?$AA@ DB 'CCoreList::initCom'
	DB	'Thread', 00H				; `string'
CONST	ENDS
;	COMDAT ??_C@_0BL@NLNFPADL@CCoreList?3?3initDefaultPool?$AA@
CONST	SEGMENT
??_C@_0BL@NLNFPADL@CCoreList?3?3initDefaultPool?$AA@ DB 'CCoreList::initD'
	DB	'efaultPool', 00H				; `string'
CONST	ENDS
;	COMDAT ??_C@_0BJ@JODHBGOK@initLogger?5has?5Failed?$CB?$CB?$CB?$AA@
CONST	SEGMENT
??_C@_0BJ@JODHBGOK@initLogger?5has?5Failed?$CB?$CB?$CB?$AA@ DB 'initLogge'
	DB	'r has Failed!!!', 00H			; `string'
CONST	ENDS
;	COMDAT ??_C@_03MLIHNEFJ@LOG?$AA@
CONST	SEGMENT
??_C@_03MLIHNEFJ@LOG?$AA@ DB 'LOG', 00H			; `string'
CONST	ENDS
;	COMDAT ??_C@_0CH@DODOCLKM@gs_DTEManager?4initConfig?5has?5Fai@
CONST	SEGMENT
??_C@_0CH@DODOCLKM@gs_DTEManager?4initConfig?5has?5Fai@ DB 'gs_DTEManager'
	DB	'.initConfig has Failed!!!', 00H		; `string'
CONST	ENDS
;	COMDAT ??_C@_09HOHNDFAE@EVENTPROC?$AA@
CONST	SEGMENT
??_C@_09HOHNDFAE@EVENTPROC?$AA@ DB 'EVENTPROC', 00H	; `string'
CONST	ENDS
;	COMDAT ??_C@_09OCGIJDP@SCHEDULER?$AA@
CONST	SEGMENT
??_C@_09OCGIJDP@SCHEDULER?$AA@ DB 'SCHEDULER', 00H	; `string'
CONST	ENDS
;	COMDAT ??_C@_0L@FJAKLKEH@LOG_WRITER?$AA@
CONST	SEGMENT
??_C@_0L@FJAKLKEH@LOG_WRITER?$AA@ DB 'LOG_WRITER', 00H	; `string'
CONST	ENDS
;	COMDAT ??_C@_09OFIOCMDH@COMTHREAD?$AA@
CONST	SEGMENT
??_C@_09OFIOCMDH@COMTHREAD?$AA@ DB 'COMTHREAD', 00H	; `string'
CONST	ENDS
;	COMDAT ??_C@_0CA@HMFOBAAE@gs_pMMgr?9?$DOalloc?$CI?$CJ?5has?5Failed?$CB?$CB?$CB?$AA@
CONST	SEGMENT
??_C@_0CA@HMFOBAAE@gs_pMMgr?9?$DOalloc?$CI?$CJ?5has?5Failed?$CB?$CB?$CB?$AA@ DB 'g'
	DB	's_pMMgr->alloc() has Failed!!!', 00H	; `string'
CONST	ENDS
;	COMDAT ??_C@_0BK@EAIHANHD@CCoreList?3?3initSystemFile?$AA@
CONST	SEGMENT
??_C@_0BK@EAIHANHD@CCoreList?3?3initSystemFile?$AA@ DB 'CCoreList::initSy'
	DB	'stemFile', 00H				; `string'
CONST	ENDS
;	COMDAT ??_C@_0L@NHBGKHLK@IDX_BUF_2m?$AA@
CONST	SEGMENT
??_C@_0L@NHBGKHLK@IDX_BUF_2m?$AA@ DB 'IDX_BUF_2m', 00H	; `string'
CONST	ENDS
;	COMDAT ??_C@_0L@NFFABJOD@IDX_BUF_1m?$AA@
CONST	SEGMENT
??_C@_0L@NFFABJOD@IDX_BUF_1m?$AA@ DB 'IDX_BUF_1m', 00H	; `string'
CONST	ENDS
;	COMDAT ??_C@_0N@MEIFEIPH@IDX_BUF_512k?$AA@
CONST	SEGMENT
??_C@_0N@MEIFEIPH@IDX_BUF_512k?$AA@ DB 'IDX_BUF_512k', 00H ; `string'
CONST	ENDS
;	COMDAT ??_C@_0M@GPHFKKPA@IDX_BUF_?$CFdk?$AA@
CONST	SEGMENT
??_C@_0M@GPHFKKPA@IDX_BUF_?$CFdk?$AA@ DB 'IDX_BUF_%dk', 00H ; `string'
CONST	ENDS
;	COMDAT ??_C@_0L@BPLNKJAG@IDX_BUF_?$CFd?$AA@
CONST	SEGMENT
??_C@_0L@BPLNKJAG@IDX_BUF_?$CFd?$AA@ DB 'IDX_BUF_%d', 00H ; `string'
CONST	ENDS
;	COMDAT ??_C@_09CIHGEJAE@IDX_BUF_2?$AA@
CONST	SEGMENT
??_C@_09CIHGEJAE@IDX_BUF_2?$AA@ DB 'IDX_BUF_2', 00H	; `string'
CONST	ENDS
;	COMDAT ??_C@_05CBJFAKLK@MPOOL?$AA@
CONST	SEGMENT
??_C@_05CBJFAKLK@MPOOL?$AA@ DB 'MPOOL', 00H		; `string'
CONST	ENDS
;	COMDAT ??_C@_0L@OLPHIMBG@IDX_BUF_32?$AA@
CONST	SEGMENT
??_C@_0L@OLPHIMBG@IDX_BUF_32?$AA@ DB 'IDX_BUF_32', 00H	; `string'
CONST	ENDS
;	COMDAT ??_C@_0BG@MKOFPAPC@start?$CI?$CJ?5has?5Failed?$CB?$CB?$CB?$AA@
CONST	SEGMENT
??_C@_0BG@MKOFPAPC@start?$CI?$CJ?5has?5Failed?$CB?$CB?$CB?$AA@ DB 'start('
	DB	') has Failed!!!', 00H			; `string'
CONST	ENDS
;	COMDAT ??_C@_0BP@LAGKIGDN@initSystemFile?$CI?$CJ?5has?5Failed?$CB?$CB?$CB?$AA@
CONST	SEGMENT
??_C@_0BP@LAGKIGDN@initSystemFile?$CI?$CJ?5has?5Failed?$CB?$CB?$CB?$AA@ DB 'i'
	DB	'nitSystemFile() has Failed!!!', 00H		; `string'
CONST	ENDS
;	COMDAT ??_C@_0BN@HDEHFGON@gs_pMMgr?5alloc?5has?5Failed?$CB?$CB?$CB?$AA@
CONST	SEGMENT
??_C@_0BN@HDEHFGON@gs_pMMgr?5alloc?5has?5Failed?$CB?$CB?$CB?$AA@ DB 'gs_p'
	DB	'MMgr alloc has Failed!!!', 00H		; `string'
CONST	ENDS
;	COMDAT ??_C@_0BF@NDGHGDGJ@CCoreList?3?3CCoreList?$AA@
CONST	SEGMENT
??_C@_0BF@NDGHGDGJ@CCoreList?3?3CCoreList?$AA@ DB 'CCoreList::CCoreList', 00H ; `string'
CONST	ENDS
;	COMDAT ??_C@_0BH@PGJBCDJH@CComQueueThread?3?3start?$AA@
CONST	SEGMENT
??_C@_0BH@PGJBCDJH@CComQueueThread?3?3start?$AA@ DB 'CComQueueThread::sta'
	DB	'rt', 00H					; `string'
CONST	ENDS
;	COMDAT ??_C@_0CE@FNDHGGOO@has?5Failed?$CB?$CB?5m_sLogQueue?4alloc?$CI?$CF@
CONST	SEGMENT
??_C@_0CE@FNDHGGOO@has?5Failed?$CB?$CB?5m_sLogQueue?4alloc?$CI?$CF@ DB 'h'
	DB	'as Failed!! m_sLogQueue.alloc(%d)', 0aH, 00H ; `string'
CONST	ENDS
;	COMDAT ??_C@_0BC@IDJCBBDP@CScheduler?3?3start?$AA@
CONST	SEGMENT
??_C@_0BC@IDJCBBDP@CScheduler?3?3start?$AA@ DB 'CScheduler::start', 00H ; `string'
CONST	ENDS
;	COMDAT ??_C@_0CF@NHNDBAHP@has?5Failed?$CB?$CB?5m_pTimeList?9?$DOalloc?$CI@
CONST	SEGMENT
??_C@_0CF@NHNDBAHP@has?5Failed?$CB?$CB?5m_pTimeList?9?$DOalloc?$CI@ DB 'h'
	DB	'as Failed!! m_pTimeList->alloc(%d)', 0aH, 00H ; `string'
CONST	ENDS
;	COMDAT ??_C@_09IPMPDBLL@TIME_WAIT?$AA@
CONST	SEGMENT
??_C@_09IPMPDBLL@TIME_WAIT?$AA@ DB 'TIME_WAIT', 00H	; `string'
CONST	ENDS
;	COMDAT ??_C@_0CH@ICKMJPFC@writeCount?$FL?$CFd?$FN?5?$FL?$CFs?$FN?5porcLoggerDi@
CONST	SEGMENT
??_C@_0CH@ICKMJPFC@writeCount?$FL?$CFd?$FN?5?$FL?$CFs?$FN?5porcLoggerDi@ DB 'w'
	DB	'riteCount[%d] [%s] porcLoggerDisable', 0aH, 00H ; `string'
CONST	ENDS
;	COMDAT ??_C@_0BH@GGEBDGFN@?$FL?$CFs?$FN?5procLoggerEnable?6?$AA@
CONST	SEGMENT
??_C@_0BH@GGEBDGFN@?$FL?$CFs?$FN?5procLoggerEnable?6?$AA@ DB '[%s] procLo'
	DB	'ggerEnable', 0aH, 00H			; `string'
CONST	ENDS
;	COMDAT ??_C@_0CC@OEPCKACG@m_pLoggerList?9?$DOpush_back?5failed?$CB@
CONST	SEGMENT
??_C@_0CC@OEPCKACG@m_pLoggerList?9?$DOpush_back?5failed?$CB@ DB 'm_pLogge'
	DB	'rList->push_back failed!', 0aH, 00H		; `string'
CONST	ENDS
;	COMDAT ??_C@_0BH@MHPMOLCC@Logger?5already?5exist?$CB?6?$AA@
CONST	SEGMENT
??_C@_0BH@MHPMOLCC@Logger?5already?5exist?$CB?6?$AA@ DB 'Logger already e'
	DB	'xist!', 0aH, 00H				; `string'
CONST	ENDS
;	COMDAT ??_C@_0BM@IAMIGODD@Logger?5has?5not?5Initialized?$CB?$AA@
CONST	SEGMENT
??_C@_0BM@IAMIGODD@Logger?5has?5not?5Initialized?$CB?$AA@ DB 'Logger has '
	DB	'not Initialized!', 00H			; `string'
CONST	ENDS
;	COMDAT ??_C@_0BM@IFPFCMMM@CSTLogger?3?3procLoggerEnable?$AA@
CONST	SEGMENT
??_C@_0BM@IFPFCMMM@CSTLogger?3?3procLoggerEnable?$AA@ DB 'CSTLogger::proc'
	DB	'LoggerEnable', 00H				; `string'
CONST	ENDS
;	COMDAT ??_C@_0BL@MFPMGOMN@Logger?5is?5already?5Enabled?$CB?$AA@
CONST	SEGMENT
??_C@_0BL@MFPMGOMN@Logger?5is?5already?5Enabled?$CB?$AA@ DB 'Logger is al'
	DB	'ready Enabled!', 00H			; `string'
CONST	ENDS
;	COMDAT ??_C@_0BE@HDKADMG@CSTLogger?3?3start?$CI?$CJ?6?$AA@
CONST	SEGMENT
??_C@_0BE@HDKADMG@CSTLogger?3?3start?$CI?$CJ?6?$AA@ DB 'CSTLogger::start('
	DB	')', 0aH, 00H				; `string'
CONST	ENDS
;	COMDAT ??_C@_0BA@OBGMEFJD@m_cThread?4start?$AA@
CONST	SEGMENT
??_C@_0BA@OBGMEFJD@m_cThread?4start?$AA@ DB 'm_cThread.start', 00H ; `string'
CONST	ENDS
;	COMDAT ??_C@_0BB@FFIPJKHK@CSTLogger?3?3start?$AA@
CONST	SEGMENT
??_C@_0BB@FFIPJKHK@CSTLogger?3?3start?$AA@ DB 'CSTLogger::start', 00H ; `string'
CONST	ENDS
;	COMDAT ??_C@_0L@GOMEIANA@LIST_COUNT?$AA@
CONST	SEGMENT
??_C@_0L@GOMEIANA@LIST_COUNT?$AA@ DB 'LIST_COUNT', 00H	; `string'
CONST	ENDS
;	COMDAT ??_C@_05LFHGFJK@?$CFs_?$CFd?$AA@
CONST	SEGMENT
??_C@_05LFHGFJK@?$CFs_?$CFd?$AA@ DB '%s_%d', 00H	; `string'
CONST	ENDS
;	COMDAT ??_C@_0BJ@FKABIJJM@THREAD_CREATE?5has?5Failed?$AA@
CONST	SEGMENT
??_C@_0BJ@FKABIJJM@THREAD_CREATE?5has?5Failed?$AA@ DB 'THREAD_CREATE has '
	DB	'Failed', 00H				; `string'
CONST	ENDS
;	COMDAT ??_C@_0BC@FMPLMNEG@0?5?$DO?5m_stInfo?4nIdx?$AA@
CONST	SEGMENT
??_C@_0BC@FMPLMNEG@0?5?$DO?5m_stInfo?4nIdx?$AA@ DB '0 > m_stInfo.nIdx', 00H ; `string'
CONST	ENDS
;	COMDAT ??_C@_0BF@PBJEBOGJ@m_fpLoopProc?5is?5NULL?$AA@
CONST	SEGMENT
??_C@_0BF@PBJEBOGJ@m_fpLoopProc?5is?5NULL?$AA@ DB 'm_fpLoopProc is NULL', 00H ; `string'
CONST	ENDS
;	COMDAT ??_C@_0BC@HFOBLFLD@CComThread?3?3start?$AA@
CONST	SEGMENT
??_C@_0BC@HFOBLFLD@CComThread?3?3start?$AA@ DB 'CComThread::start', 00H ; `string'
CONST	ENDS
;	COMDAT ??_C@_0BD@KEHDJCKJ@ERROR?$CB?5?$FL?$CFs?3?$CFd?$FN?5?$CFs?6?$AA@
CONST	SEGMENT
??_C@_0BD@KEHDJCKJ@ERROR?$CB?5?$FL?$CFs?3?$CFd?$FN?5?$CFs?6?$AA@ DB 'ERRO'
	DB	'R! [%s:%d] %s', 0aH, 00H			; `string'
CONST	ENDS
;	COMDAT ??_7condition@win32@common@@6B@
CONST	SEGMENT
??_7condition@win32@common@@6B@ DD FLAT:??_R4condition@win32@common@@6B@ ; common::win32::condition::`vftable'
	DD	FLAT:??_Econdition@win32@common@@UAEPAXI@Z
	DD	FLAT:?signal@condition@win32@common@@UAEXXZ
	DD	FLAT:?signal_all@condition@win32@common@@UAEXXZ
CONST	ENDS
;	COMDAT ??_7abstract_condition@common@@6B@
CONST	SEGMENT
??_7abstract_condition@common@@6B@ DD FLAT:??_R4abstract_condition@common@@6B@ ; common::abstract_condition::`vftable'
	DD	FLAT:??_Eabstract_condition@common@@UAEPAXI@Z
	DD	FLAT:__purecall
	DD	FLAT:__purecall
CONST	ENDS
;	COMDAT xdata$x
xdata$x	SEGMENT
__unwindtable$??1?$CTList@VCComQueueThread@@@@QAE@XZ DD 0ffffffffH
	DD	FLAT:__unwindfunclet$??1?$CTList@VCComQueueThread@@@@QAE@XZ$0
__ehfuncinfo$??1?$CTList@VCComQueueThread@@@@QAE@XZ DD 019930522H
	DD	01H
	DD	FLAT:__unwindtable$??1?$CTList@VCComQueueThread@@@@QAE@XZ
	DD	2 DUP(00H)
	DD	2 DUP(00H)
	DD	00H
	DD	05H
xdata$x	ENDS
;	COMDAT xdata$x
xdata$x	SEGMENT
__unwindtable$??1?$CTList@VCComThread@@@@QAE@XZ DD 0ffffffffH
	DD	FLAT:__unwindfunclet$??1?$CTList@VCComThread@@@@QAE@XZ$5
__ehfuncinfo$??1?$CTList@VCComThread@@@@QAE@XZ DD 019930522H
	DD	01H
	DD	FLAT:__unwindtable$??1?$CTList@VCComThread@@@@QAE@XZ
	DD	2 DUP(00H)
	DD	2 DUP(00H)
	DD	00H
	DD	05H
xdata$x	ENDS
;	COMDAT xdata$x
xdata$x	SEGMENT
__unwindtable$??1?$CTList@VCScheduler@@@@QAE@XZ DD 0ffffffffH
	DD	FLAT:__unwindfunclet$??1?$CTList@VCScheduler@@@@QAE@XZ$1
__ehfuncinfo$??1?$CTList@VCScheduler@@@@QAE@XZ DD 019930522H
	DD	01H
	DD	FLAT:__unwindtable$??1?$CTList@VCScheduler@@@@QAE@XZ
	DD	2 DUP(00H)
	DD	2 DUP(00H)
	DD	00H
	DD	05H
xdata$x	ENDS
;	COMDAT xdata$x
xdata$x	SEGMENT
__unwindtable$??1?$CTList@VCSTLogger@@@@QAE@XZ DD 0ffffffffH
	DD	FLAT:__unwindfunclet$??1?$CTList@VCSTLogger@@@@QAE@XZ$1
__ehfuncinfo$??1?$CTList@VCSTLogger@@@@QAE@XZ DD 019930522H
	DD	01H
	DD	FLAT:__unwindtable$??1?$CTList@VCSTLogger@@@@QAE@XZ
	DD	2 DUP(00H)
	DD	2 DUP(00H)
	DD	00H
	DD	05H
xdata$x	ENDS
;	COMDAT xdata$x
xdata$x	SEGMENT
__unwindtable$??1?$CTList@VCLogger@@@@QAE@XZ DD 0ffffffffH
	DD	FLAT:__unwindfunclet$??1?$CTList@VCLogger@@@@QAE@XZ$1
__ehfuncinfo$??1?$CTList@VCLogger@@@@QAE@XZ DD 019930522H
	DD	01H
	DD	FLAT:__unwindtable$??1?$CTList@VCLogger@@@@QAE@XZ
	DD	2 DUP(00H)
	DD	2 DUP(00H)
	DD	00H
	DD	05H
xdata$x	ENDS
;	COMDAT xdata$x
xdata$x	SEGMENT
__unwindtable$?alloc@?$CMemPool@USTEvent@@@@QAEHHW4E_ALLOC_TYPE@@@Z DD 0ffffffffH
	DD	FLAT:__unwindfunclet$?alloc@?$CMemPool@USTEvent@@@@QAEHHW4E_ALLOC_TYPE@@@Z$0
	DD	0ffffffffH
	DD	FLAT:__unwindfunclet$?alloc@?$CMemPool@USTEvent@@@@QAEHHW4E_ALLOC_TYPE@@@Z$1
__ehfuncinfo$?alloc@?$CMemPool@USTEvent@@@@QAEHHW4E_ALLOC_TYPE@@@Z DD 019930522H
	DD	02H
	DD	FLAT:__unwindtable$?alloc@?$CMemPool@USTEvent@@@@QAEHHW4E_ALLOC_TYPE@@@Z
	DD	2 DUP(00H)
	DD	2 DUP(00H)
	DD	00H
	DD	01H
xdata$x	ENDS
;	COMDAT xdata$x
xdata$x	SEGMENT
__unwindtable$??1?$CMemPool@USTEvent@@@@QAE@XZ DD 0ffffffffH
	DD	FLAT:__unwindfunclet$??1?$CMemPool@USTEvent@@@@QAE@XZ$0
__ehfuncinfo$??1?$CMemPool@USTEvent@@@@QAE@XZ DD 019930522H
	DD	01H
	DD	FLAT:__unwindtable$??1?$CMemPool@USTEvent@@@@QAE@XZ
	DD	2 DUP(00H)
	DD	2 DUP(00H)
	DD	00H
	DD	05H
xdata$x	ENDS
;	COMDAT xdata$x
xdata$x	SEGMENT
__unwindtable$?alloc@?$CMemPool@USTIntervalInfo@@@@QAEHHW4E_ALLOC_TYPE@@@Z DD 0ffffffffH
	DD	FLAT:__unwindfunclet$?alloc@?$CMemPool@USTIntervalInfo@@@@QAEHHW4E_ALLOC_TYPE@@@Z$0
	DD	0ffffffffH
	DD	FLAT:__unwindfunclet$?alloc@?$CMemPool@USTIntervalInfo@@@@QAEHHW4E_ALLOC_TYPE@@@Z$1
__ehfuncinfo$?alloc@?$CMemPool@USTIntervalInfo@@@@QAEHHW4E_ALLOC_TYPE@@@Z DD 019930522H
	DD	02H
	DD	FLAT:__unwindtable$?alloc@?$CMemPool@USTIntervalInfo@@@@QAEHHW4E_ALLOC_TYPE@@@Z
	DD	2 DUP(00H)
	DD	2 DUP(00H)
	DD	00H
	DD	01H
xdata$x	ENDS
;	COMDAT xdata$x
xdata$x	SEGMENT
__unwindtable$??1?$CMemPool@USTIntervalInfo@@@@QAE@XZ DD 0ffffffffH
	DD	FLAT:__unwindfunclet$??1?$CMemPool@USTIntervalInfo@@@@QAE@XZ$0
__ehfuncinfo$??1?$CMemPool@USTIntervalInfo@@@@QAE@XZ DD 019930522H
	DD	01H
	DD	FLAT:__unwindtable$??1?$CMemPool@USTIntervalInfo@@@@QAE@XZ
	DD	2 DUP(00H)
	DD	2 DUP(00H)
	DD	00H
	DD	05H
xdata$x	ENDS
;	COMDAT xdata$x
xdata$x	SEGMENT
__unwindtable$?initQueueThread@CCoreList@@QAE_NPAD0@Z DD 0ffffffffH
	DD	FLAT:__unwindfunclet$?initQueueThread@CCoreList@@QAE_NPAD0@Z$2
__ehfuncinfo$?initQueueThread@CCoreList@@QAE_NPAD0@Z DD 019930522H
	DD	01H
	DD	FLAT:__unwindtable$?initQueueThread@CCoreList@@QAE_NPAD0@Z
	DD	2 DUP(00H)
	DD	2 DUP(00H)
	DD	00H
	DD	01H
xdata$x	ENDS
;	COMDAT xdata$x
xdata$x	SEGMENT
__unwindtable$?addQueueThread@CCoreList@@QAEHH@Z DD 0ffffffffH
	DD	FLAT:__unwindfunclet$?addQueueThread@CCoreList@@QAEHH@Z$3
__ehfuncinfo$?addQueueThread@CCoreList@@QAEHH@Z DD 019930522H
	DD	01H
	DD	FLAT:__unwindtable$?addQueueThread@CCoreList@@QAEHH@Z
	DD	2 DUP(00H)
	DD	2 DUP(00H)
	DD	00H
	DD	01H
xdata$x	ENDS
;	COMDAT xdata$x
xdata$x	SEGMENT
__unwindtable$?start@CCoreList@@QAE_NXZ DD 0ffffffffH
	DD	FLAT:__unwindfunclet$?start@CCoreList@@QAE_NXZ$4
__ehfuncinfo$?start@CCoreList@@QAE_NXZ DD 019930522H
	DD	01H
	DD	FLAT:__unwindtable$?start@CCoreList@@QAE_NXZ
	DD	2 DUP(00H)
	DD	2 DUP(00H)
	DD	00H
	DD	01H
xdata$x	ENDS
;	COMDAT xdata$x
xdata$x	SEGMENT
__unwindtable$??0CCoreList@@QAE@XZ DD 0ffffffffH
	DD	FLAT:__unwindfunclet$??0CCoreList@@QAE@XZ$0
__ehfuncinfo$??0CCoreList@@QAE@XZ DD 019930522H
	DD	01H
	DD	FLAT:__unwindtable$??0CCoreList@@QAE@XZ
	DD	2 DUP(00H)
	DD	2 DUP(00H)
	DD	00H
	DD	01H
xdata$x	ENDS
;	COMDAT xdata$x
xdata$x	SEGMENT
__ehfuncinfo$??_ECComQueueThread@@QAEPAXI@Z DD 019930522H
	DD	00H
	DD	00H
	DD	2 DUP(00H)
	DD	2 DUP(00H)
	DD	00H
	DD	05H
xdata$x	ENDS
;	COMDAT xdata$x
xdata$x	SEGMENT
__unwindtable$??0CComQueueThread@@QAE@XZ DD 0ffffffffH
	DD	FLAT:__unwindfunclet$??0CComQueueThread@@QAE@XZ$0
__ehfuncinfo$??0CComQueueThread@@QAE@XZ DD 019930522H
	DD	01H
	DD	FLAT:__unwindtable$??0CComQueueThread@@QAE@XZ
	DD	2 DUP(00H)
	DD	2 DUP(00H)
	DD	00H
	DD	01H
xdata$x	ENDS
;	COMDAT xdata$x
xdata$x	SEGMENT
__unwindtable$?alloc@?$CMemList@USTIntervalInfo@@@@QAEHHW4E_ALLOC_TYPE@@@Z DD 0ffffffffH
	DD	FLAT:__unwindfunclet$?alloc@?$CMemList@USTIntervalInfo@@@@QAEHHW4E_ALLOC_TYPE@@@Z$0
__ehfuncinfo$?alloc@?$CMemList@USTIntervalInfo@@@@QAEHHW4E_ALLOC_TYPE@@@Z DD 019930522H
	DD	01H
	DD	FLAT:__unwindtable$?alloc@?$CMemList@USTIntervalInfo@@@@QAEHHW4E_ALLOC_TYPE@@@Z
	DD	2 DUP(00H)
	DD	2 DUP(00H)
	DD	00H
	DD	01H
xdata$x	ENDS
;	COMDAT xdata$x
xdata$x	SEGMENT
__unwindtable$??1?$CMemList@USTIntervalInfo@@@@QAE@XZ DD 0ffffffffH
	DD	FLAT:__unwindfunclet$??1?$CMemList@USTIntervalInfo@@@@QAE@XZ$0
__ehfuncinfo$??1?$CMemList@USTIntervalInfo@@@@QAE@XZ DD 019930522H
	DD	01H
	DD	FLAT:__unwindtable$??1?$CMemList@USTIntervalInfo@@@@QAE@XZ
	DD	2 DUP(00H)
	DD	2 DUP(00H)
	DD	00H
	DD	05H
xdata$x	ENDS
;	COMDAT xdata$x
xdata$x	SEGMENT
__ehfuncinfo$??_ECScheduler@@QAEPAXI@Z DD 019930522H
	DD	00H
	DD	00H
	DD	2 DUP(00H)
	DD	2 DUP(00H)
	DD	00H
	DD	05H
xdata$x	ENDS
;	COMDAT xdata$x
xdata$x	SEGMENT
__ehfuncinfo$??_ECSTLogger@@QAEPAXI@Z DD 019930522H
	DD	00H
	DD	00H
	DD	2 DUP(00H)
	DD	2 DUP(00H)
	DD	00H
	DD	05H
xdata$x	ENDS
;	COMDAT xdata$x
xdata$x	SEGMENT
__unwindtable$?_init@CSTLogger@@AAE_NH@Z DD 0ffffffffH
	DD	FLAT:__unwindfunclet$?_init@CSTLogger@@AAE_NH@Z$1
__ehfuncinfo$?_init@CSTLogger@@AAE_NH@Z DD 019930522H
	DD	01H
	DD	FLAT:__unwindtable$?_init@CSTLogger@@AAE_NH@Z
	DD	2 DUP(00H)
	DD	2 DUP(00H)
	DD	00H
	DD	01H
xdata$x	ENDS
;	COMDAT xdata$x
xdata$x	SEGMENT
__unwindtable$?TimeProc@CSTLogger@@QAEXXZ DD 0ffffffffH
	DD	FLAT:__unwindfunclet$?TimeProc@CSTLogger@@QAEXXZ$0
__ehfuncinfo$?TimeProc@CSTLogger@@QAEXXZ DD 019930522H
	DD	01H
	DD	FLAT:__unwindtable$?TimeProc@CSTLogger@@QAEXXZ
	DD	2 DUP(00H)
	DD	2 DUP(00H)
	DD	00H
	DD	01H
xdata$x	ENDS
;	COMDAT xdata$x
xdata$x	SEGMENT
__ehfuncinfo$??_ECComThread@@QAEPAXI@Z DD 019930522H
	DD	00H
	DD	00H
	DD	2 DUP(00H)
	DD	2 DUP(00H)
	DD	00H
	DD	05H
xdata$x	ENDS
;	COMDAT xdata$x
xdata$x	SEGMENT
__ehfuncinfo$??_ECLogger@@QAEPAXI@Z DD 019930522H
	DD	00H
	DD	00H
	DD	2 DUP(00H)
	DD	2 DUP(00H)
	DD	00H
	DD	05H
xdata$x	ENDS
;	COMDAT xdata$x
xdata$x	SEGMENT
__ehfuncinfo$??_Ewin_atomic@win32@common@@QAEPAXI@Z DD 019930522H
	DD	00H
	DD	00H
	DD	2 DUP(00H)
	DD	2 DUP(00H)
	DD	00H
	DD	05H
xdata$x	ENDS
; Function compile flags: /Ogtp
;	COMDAT ??_G?$CTList@VCComQueueThread@@@@QAEPAXI@Z
_TEXT	SEGMENT
___flags$ = 8						; size = 4
??_G?$CTList@VCComQueueThread@@@@QAEPAXI@Z PROC		; CTList<CComQueueThread>::`scalar deleting destructor', COMDAT
; _this$ = ecx
  00000	55		 push	 ebp
  00001	8b ec		 mov	 ebp, esp
  00003	56		 push	 esi
  00004	8b f1		 mov	 esi, ecx
  00006	e8 00 00 00 00	 call	 ??1?$CTList@VCComQueueThread@@@@QAE@XZ ; CTList<CComQueueThread>::~CTList<CComQueueThread>
  0000b	f6 45 08 01	 test	 BYTE PTR ___flags$[ebp], 1
  0000f	74 0b		 je	 SHORT $LN4@scalar
  00011	6a 18		 push	 24			; 00000018H
  00013	56		 push	 esi
  00014	e8 00 00 00 00	 call	 ??3@YAXPAXI@Z		; operator delete
  00019	83 c4 08	 add	 esp, 8
$LN4@scalar:
  0001c	8b c6		 mov	 eax, esi
  0001e	5e		 pop	 esi
  0001f	5d		 pop	 ebp
  00020	c2 04 00	 ret	 4
??_G?$CTList@VCComQueueThread@@@@QAEPAXI@Z ENDP		; CTList<CComQueueThread>::`scalar deleting destructor'
_TEXT	ENDS
; Function compile flags: /Ogtp
;	COMDAT ?__autoclassinit2@?$CTList@VCComQueueThread@@@@QAEXI@Z
_TEXT	SEGMENT
_classSize$ = 8						; size = 4
?__autoclassinit2@?$CTList@VCComQueueThread@@@@QAEXI@Z PROC ; CTList<CComQueueThread>::__autoclassinit2, COMDAT
; _this$ = ecx
  00000	55		 push	 ebp
  00001	8b ec		 mov	 ebp, esp
  00003	ff 75 08	 push	 DWORD PTR _classSize$[ebp]
  00006	6a 00		 push	 0
  00008	51		 push	 ecx
  00009	e8 00 00 00 00	 call	 _memset
  0000e	83 c4 0c	 add	 esp, 12			; 0000000cH
  00011	5d		 pop	 ebp
  00012	c2 04 00	 ret	 4
?__autoclassinit2@?$CTList@VCComQueueThread@@@@QAEXI@Z ENDP ; CTList<CComQueueThread>::__autoclassinit2
_TEXT	ENDS
; Function compile flags: /Ogtp
; File e:\infinia-library-3.0\com\include\comtlist.h
;	COMDAT ?_DEL@?$CTList@VCComQueueThread@@@@AAEXH@Z
_TEXT	SEGMENT
_i$ = 8							; size = 4
?_DEL@?$CTList@VCComQueueThread@@@@AAEXH@Z PROC		; CTList<CComQueueThread>::_DEL, COMDAT
; _this$ = ecx

; 360  : 	inline void _DEL(int i) { m_pArray[i] = 0; m_nUse--; m_nDelIdx = i; }

  00000	55		 push	 ebp
  00001	8b ec		 mov	 ebp, esp
  00003	8b 55 08	 mov	 edx, DWORD PTR _i$[ebp]
  00006	8b 01		 mov	 eax, DWORD PTR [ecx]
  00008	c7 04 90 00 00
	00 00		 mov	 DWORD PTR [eax+edx*4], 0
  0000f	ff 49 04	 dec	 DWORD PTR [ecx+4]
  00012	89 51 0c	 mov	 DWORD PTR [ecx+12], edx
  00015	5d		 pop	 ebp
  00016	c2 04 00	 ret	 4
?_DEL@?$CTList@VCComQueueThread@@@@AAEXH@Z ENDP		; CTList<CComQueueThread>::_DEL
_TEXT	ENDS
; Function compile flags: /Ogtp
; File e:\infinia-library-3.0\com\include\comtlist.h
;	COMDAT ?__alloc@?$CTList@VCComQueueThread@@@@AAEHH@Z
_TEXT	SEGMENT
_nMaxCount$ = 8						; size = 4
?__alloc@?$CTList@VCComQueueThread@@@@AAEHH@Z PROC	; CTList<CComQueueThread>::__alloc, COMDAT
; _this$ = ecx

; 402  : {

  00000	55		 push	 ebp
  00001	8b ec		 mov	 ebp, esp
  00003	56		 push	 esi
  00004	57		 push	 edi

; 403  : 	T** pList = (T**)calloc(nMaxCount, sizeof(T*));

  00005	6a 04		 push	 4
  00007	ff 75 08	 push	 DWORD PTR _nMaxCount$[ebp]
  0000a	8b f1		 mov	 esi, ecx
  0000c	ff 15 00 00 00
	00		 call	 DWORD PTR __imp__calloc
  00012	8b f8		 mov	 edi, eax
  00014	83 c4 08	 add	 esp, 8

; 404  : 	if (!pList) {

  00017	85 ff		 test	 edi, edi
  00019	75 1a		 jne	 SHORT $LN2@alloc

; 405  : 		_stprintf(g_szMessage, "pList calloc is NULL");

  0001b	68 00 00 00 00	 push	 OFFSET ??_C@_0BF@ENADEEIE@pList?5calloc?5is?5NULL?$AA@
  00020	68 00 00 00 00	 push	 OFFSET ?g_szMessage@@3PADA ; g_szMessage
  00025	e8 00 00 00 00	 call	 _sprintf
  0002a	83 c4 08	 add	 esp, 8

; 406  : 		return 0;

  0002d	33 c0		 xor	 eax, eax
  0002f	5f		 pop	 edi
  00030	5e		 pop	 esi

; 415  : }

  00031	5d		 pop	 ebp
  00032	c2 04 00	 ret	 4
$LN2@alloc:

; 407  : 	}
; 408  : 	//_stprintf(g_szMessage, _T("CTList::__alloc list m_nMaxCount[%d]"), nMaxCount);
; 409  : 	if (m_pArray) {

  00035	8b 0e		 mov	 ecx, DWORD PTR [esi]
  00037	85 c9		 test	 ecx, ecx
  00039	74 19		 je	 SHORT $LN3@alloc

; 410  : 		memcpy(pList, m_pArray, m_nMax * sizeof(T*));

  0003b	8b 46 10	 mov	 eax, DWORD PTR [esi+16]
  0003e	c1 e0 02	 shl	 eax, 2
  00041	50		 push	 eax
  00042	51		 push	 ecx
  00043	57		 push	 edi
  00044	e8 00 00 00 00	 call	 _memcpy

; 411  : 		free(m_pArray);

  00049	ff 36		 push	 DWORD PTR [esi]
  0004b	ff 15 00 00 00
	00		 call	 DWORD PTR __imp__free
  00051	83 c4 10	 add	 esp, 16			; 00000010H
$LN3@alloc:

; 412  : 	}
; 413  : 	m_pArray = pList;
; 414  : 	return nMaxCount;

  00054	8b 45 08	 mov	 eax, DWORD PTR _nMaxCount$[ebp]
  00057	89 3e		 mov	 DWORD PTR [esi], edi
  00059	5f		 pop	 edi
  0005a	5e		 pop	 esi

; 415  : }

  0005b	5d		 pop	 ebp
  0005c	c2 04 00	 ret	 4
?__alloc@?$CTList@VCComQueueThread@@@@AAEHH@Z ENDP	; CTList<CComQueueThread>::__alloc
_TEXT	ENDS
; Function compile flags: /Ogtp
; File e:\infinia-library-3.0\com\include\comtlist.h
;	COMDAT ?setObjAllocType@?$CTList@VCComQueueThread@@@@QAEXW4E_ALLOC_TYPE@@@Z
_TEXT	SEGMENT
_type$ = 8						; size = 4
?setObjAllocType@?$CTList@VCComQueueThread@@@@QAEXW4E_ALLOC_TYPE@@@Z PROC ; CTList<CComQueueThread>::setObjAllocType, COMDAT
; _this$ = ecx

; 350  : 	inline void setObjAllocType(E_ALLOC_TYPE type) { m_nObjAllocType = type; }

  00000	55		 push	 ebp
  00001	8b ec		 mov	 ebp, esp
  00003	8b 45 08	 mov	 eax, DWORD PTR _type$[ebp]
  00006	89 41 14	 mov	 DWORD PTR [ecx+20], eax
  00009	5d		 pop	 ebp
  0000a	c2 04 00	 ret	 4
?setObjAllocType@?$CTList@VCComQueueThread@@@@QAEXW4E_ALLOC_TYPE@@@Z ENDP ; CTList<CComQueueThread>::setObjAllocType
_TEXT	ENDS
; Function compile flags: /Ogtp
; File e:\infinia-library-3.0\com\include\comtlist.h
;	COMDAT ?size@?$CTList@VCComQueueThread@@@@QAEHXZ
_TEXT	SEGMENT
?size@?$CTList@VCComQueueThread@@@@QAEHXZ PROC		; CTList<CComQueueThread>::size, COMDAT
; _this$ = ecx

; 347  : 	inline int  size() { return m_nUse; }

  00000	8b 41 04	 mov	 eax, DWORD PTR [ecx+4]
  00003	c3		 ret	 0
?size@?$CTList@VCComQueueThread@@@@QAEHXZ ENDP		; CTList<CComQueueThread>::size
_TEXT	ENDS
; Function compile flags: /Ogtp
; File e:\infinia-library-3.0\com\include\comtlist.h
;	COMDAT ?getNext@?$CTList@VCComQueueThread@@@@QAEPAVCComQueueThread@@PAH@Z
_TEXT	SEGMENT
_pIdx$ = 8						; size = 4
?getNext@?$CTList@VCComQueueThread@@@@QAEPAVCComQueueThread@@PAH@Z PROC ; CTList<CComQueueThread>::getNext, COMDAT
; _this$ = ecx

; 334  : 	inline T* getNext(int *pIdx) {

  00000	55		 push	 ebp
  00001	8b ec		 mov	 ebp, esp
  00003	56		 push	 esi

; 335  : 		for (*pIdx; *pIdx < m_nMax; (*pIdx)++) {

  00004	8b 75 08	 mov	 esi, DWORD PTR _pIdx$[ebp]
  00007	8b d1		 mov	 edx, ecx
  00009	8b 06		 mov	 eax, DWORD PTR [esi]
  0000b	3b 42 10	 cmp	 eax, DWORD PTR [edx+16]
  0000e	7d 14		 jge	 SHORT $LN3@getNext
$LL4@getNext:

; 336  : 			if (m_pArray[*pIdx]) { return m_pArray[*pIdx]; }

  00010	8b 0e		 mov	 ecx, DWORD PTR [esi]
  00012	8b 02		 mov	 eax, DWORD PTR [edx]
  00014	83 3c 88 00	 cmp	 DWORD PTR [eax+ecx*4], 0
  00018	75 11		 jne	 SHORT $LN8@getNext

; 335  : 		for (*pIdx; *pIdx < m_nMax; (*pIdx)++) {

  0001a	8d 41 01	 lea	 eax, DWORD PTR [ecx+1]
  0001d	89 06		 mov	 DWORD PTR [esi], eax
  0001f	3b 42 10	 cmp	 eax, DWORD PTR [edx+16]
  00022	7c ec		 jl	 SHORT $LL4@getNext
$LN3@getNext:

; 337  : 		}
; 338  : 		return NULL;

  00024	33 c0		 xor	 eax, eax
  00026	5e		 pop	 esi

; 339  : 	}

  00027	5d		 pop	 ebp
  00028	c2 04 00	 ret	 4
$LN8@getNext:

; 336  : 			if (m_pArray[*pIdx]) { return m_pArray[*pIdx]; }

  0002b	8b 04 88	 mov	 eax, DWORD PTR [eax+ecx*4]
  0002e	5e		 pop	 esi

; 339  : 	}

  0002f	5d		 pop	 ebp
  00030	c2 04 00	 ret	 4
?getNext@?$CTList@VCComQueueThread@@@@QAEPAVCComQueueThread@@PAH@Z ENDP ; CTList<CComQueueThread>::getNext
_TEXT	ENDS
; Function compile flags: /Ogtp
; File e:\infinia-library-3.0\com\include\comtlist.h
; File e:\infinia-library-3.0\com\include\comtypes.h
; File e:\infinia-library-3.0\com\include\comtlist.h
;	COMDAT ?getObj@?$CTList@VCComQueueThread@@@@QAEPAVCComQueueThread@@H@Z
_TEXT	SEGMENT
_i$ = 8							; size = 4
?getObj@?$CTList@VCComQueueThread@@@@QAEPAVCComQueueThread@@H@Z PROC ; CTList<CComQueueThread>::getObj, COMDAT
; _this$ = ecx

; 332  : 	inline T* getObj(int i) { if (ISINCLUDE(i, m_nMax)) return m_pArray[i]; return NULL; }

  00000	55		 push	 ebp
  00001	8b ec		 mov	 ebp, esp
; File e:\infinia-library-3.0\com\include\comtypes.h

; 322  : inline bool ISINCLUDE(int i, int max) { if (0 <= i && i < max) return true; return false; }

  00003	8b 55 08	 mov	 edx, DWORD PTR _i$[ebp]
  00006	85 d2		 test	 edx, edx
  00008	78 0e		 js	 SHORT $LN2@getObj
  0000a	3b 51 10	 cmp	 edx, DWORD PTR [ecx+16]
  0000d	7d 09		 jge	 SHORT $LN2@getObj
; File e:\infinia-library-3.0\com\include\comtlist.h

; 332  : 	inline T* getObj(int i) { if (ISINCLUDE(i, m_nMax)) return m_pArray[i]; return NULL; }

  0000f	8b 01		 mov	 eax, DWORD PTR [ecx]
  00011	8b 04 90	 mov	 eax, DWORD PTR [eax+edx*4]
  00014	5d		 pop	 ebp
  00015	c2 04 00	 ret	 4
$LN2@getObj:
  00018	33 c0		 xor	 eax, eax
  0001a	5d		 pop	 ebp
  0001b	c2 04 00	 ret	 4
?getObj@?$CTList@VCComQueueThread@@@@QAEPAVCComQueueThread@@H@Z ENDP ; CTList<CComQueueThread>::getObj
_TEXT	ENDS
; Function compile flags: /Ogtp
; File e:\infinia-library-3.0\com\include\comtlist.h
; File e:\infinia-library-3.0\com\include\comtypes.h
; File e:\infinia-library-3.0\com\include\comtlist.h
;	COMDAT ?del@?$CTList@VCComQueueThread@@@@QAE_NH@Z
_TEXT	SEGMENT
_i$ = 8							; size = 4
?del@?$CTList@VCComQueueThread@@@@QAE_NH@Z PROC		; CTList<CComQueueThread>::del, COMDAT
; _this$ = ecx

; 523  : {

  00000	55		 push	 ebp
  00001	8b ec		 mov	 ebp, esp
; File e:\infinia-library-3.0\com\include\comtypes.h

; 322  : inline bool ISINCLUDE(int i, int max) { if (0 <= i && i < max) return true; return false; }

  00003	8b 55 08	 mov	 edx, DWORD PTR _i$[ebp]
  00006	85 d2		 test	 edx, edx
  00008	78 1a		 js	 SHORT $LN5@del
  0000a	3b 51 10	 cmp	 edx, DWORD PTR [ecx+16]
  0000d	7d 15		 jge	 SHORT $LN5@del
; File e:\infinia-library-3.0\com\include\comtlist.h

; 360  : 	inline void _DEL(int i) { m_pArray[i] = 0; m_nUse--; m_nDelIdx = i; }

  0000f	8b 01		 mov	 eax, DWORD PTR [ecx]
  00011	c7 04 90 00 00
	00 00		 mov	 DWORD PTR [eax+edx*4], 0

; 527  : 	}
; 528  : 	_DEL(i);
; 529  : 	//_stprintf(g_szMessage, _T("CMemList::del i[%d] m_nLast[%d] m_nCurCount[%d]"), i, m_nLast, m_nUse);
; 530  : 	return true;

  00018	b0 01		 mov	 al, 1

; 360  : 	inline void _DEL(int i) { m_pArray[i] = 0; m_nUse--; m_nDelIdx = i; }

  0001a	ff 49 04	 dec	 DWORD PTR [ecx+4]
  0001d	89 51 0c	 mov	 DWORD PTR [ecx+12], edx

; 531  : }

  00020	5d		 pop	 ebp
  00021	c2 04 00	 ret	 4
$LN5@del:

; 524  : 	if (!ISINCLUDE(i, m_nMax)) {
; 525  : 		_stprintf(g_szMessage, "i[%d] m_nMax[%d]", i, m_nMax);

  00024	ff 71 10	 push	 DWORD PTR [ecx+16]
  00027	52		 push	 edx
  00028	68 00 00 00 00	 push	 OFFSET ??_C@_0BB@GJFHJAKG@i?$FL?$CFd?$FN?5m_nMax?$FL?$CFd?$FN?$AA@
  0002d	68 00 00 00 00	 push	 OFFSET ?g_szMessage@@3PADA ; g_szMessage
  00032	e8 00 00 00 00	 call	 _sprintf
  00037	83 c4 10	 add	 esp, 16			; 00000010H

; 526  : 		return false;

  0003a	32 c0		 xor	 al, al

; 531  : }

  0003c	5d		 pop	 ebp
  0003d	c2 04 00	 ret	 4
?del@?$CTList@VCComQueueThread@@@@QAE_NH@Z ENDP		; CTList<CComQueueThread>::del
_TEXT	ENDS
; Function compile flags: /Ogtp
; File e:\infinia-library-3.0\com\include\comtlist.h
;	COMDAT ?push_back@?$CTList@VCComQueueThread@@@@QAE_NPAVCComQueueThread@@PAH@Z
_TEXT	SEGMENT
_Obj$ = 8						; size = 4
_pIdx$ = 12						; size = 4
?push_back@?$CTList@VCComQueueThread@@@@QAE_NPAVCComQueueThread@@PAH@Z PROC ; CTList<CComQueueThread>::push_back, COMDAT
; _this$ = ecx

; 472  : {

  00000	55		 push	 ebp
  00001	8b ec		 mov	 ebp, esp
  00003	53		 push	 ebx
  00004	56		 push	 esi
  00005	8b f1		 mov	 esi, ecx
  00007	57		 push	 edi

; 473  : 	int nIdx, i;
; 474  : 
; 475  : 	if (m_nUse >= m_nMax) {

  00008	8b 4e 10	 mov	 ecx, DWORD PTR [esi+16]
  0000b	39 4e 04	 cmp	 DWORD PTR [esi+4], ecx
  0000e	7c 38		 jl	 SHORT $LN5@push_back

; 476  : 		if (!__alloc(m_nMax + TLIST_ADD_SIZE)) return false;

  00010	8d 41 40	 lea	 eax, DWORD PTR [ecx+64]
  00013	8b ce		 mov	 ecx, esi
  00015	50		 push	 eax
  00016	e8 00 00 00 00	 call	 ?__alloc@?$CTList@VCComQueueThread@@@@AAEHH@Z ; CTList<CComQueueThread>::__alloc
  0001b	85 c0		 test	 eax, eax
  0001d	74 56		 je	 SHORT $LN3@push_back

; 477  : 		nIdx = m_nMax;

  0001f	8b 56 10	 mov	 edx, DWORD PTR [esi+16]

; 478  : 		m_nMax += TLIST_ADD_SIZE;

  00022	8d 42 40	 lea	 eax, DWORD PTR [edx+64]
  00025	89 46 10	 mov	 DWORD PTR [esi+16], eax
$ADD_SUCCESS$21:

; 495  : 
; 496  : ADD_SUCCESS:
; 497  : 	m_nUse++;
; 498  : 	m_pArray[nIdx] = Obj;

  00028	8b 0e		 mov	 ecx, DWORD PTR [esi]
  0002a	ff 46 04	 inc	 DWORD PTR [esi+4]
  0002d	8b 45 08	 mov	 eax, DWORD PTR _Obj$[ebp]
  00030	89 04 91	 mov	 DWORD PTR [ecx+edx*4], eax

; 499  : 	m_nLast++;

  00033	ff 46 08	 inc	 DWORD PTR [esi+8]

; 500  : 	//_stprintf(g_szMessage, _T("CMemList::add i[%d] m_nLast[%d] m_nCurCount[%d]"), nIdx, m_nLast, m_nUse);
; 501  : 	if (pIdx) *pIdx = nIdx;

  00036	8b 45 0c	 mov	 eax, DWORD PTR _pIdx$[ebp]
  00039	85 c0		 test	 eax, eax
  0003b	74 02		 je	 SHORT $LN13@push_back
  0003d	89 10		 mov	 DWORD PTR [eax], edx
$LN13@push_back:
  0003f	5f		 pop	 edi
  00040	5e		 pop	 esi

; 502  : 	return true;

  00041	b0 01		 mov	 al, 1
  00043	5b		 pop	 ebx

; 503  : }

  00044	5d		 pop	 ebp
  00045	c2 08 00	 ret	 8
$LN5@push_back:

; 479  : 		goto ADD_SUCCESS;
; 480  : 	}
; 481  : 
; 482  : 	if (!m_pArray[m_nLast]) { nIdx = m_nLast;  goto ADD_SUCCESS; }

  00048	8b 56 08	 mov	 edx, DWORD PTR [esi+8]
  0004b	8b 1e		 mov	 ebx, DWORD PTR [esi]
  0004d	83 3c 93 00	 cmp	 DWORD PTR [ebx+edx*4], 0
  00051	74 d5		 je	 SHORT $ADD_SUCCESS$21

; 483  : 
; 484  : 	nIdx = m_nLast;
; 485  : 	for (i = 0; i < m_nMax; i++)

  00053	33 c0		 xor	 eax, eax
  00055	8b fa		 mov	 edi, edx
  00057	85 c9		 test	 ecx, ecx
  00059	7e 1a		 jle	 SHORT $LN3@push_back
  0005b	0f 1f 44 00 00	 npad	 5
$LL4@push_back:
  00060	33 d2		 xor	 edx, edx
  00062	3b f9		 cmp	 edi, ecx
  00064	0f 4c d7	 cmovl	 edx, edi

; 486  : 	{
; 487  : 		if (nIdx >= m_nMax) nIdx = 0;
; 488  : 		if (!m_pArray[nIdx]) {

  00067	83 3c 93 00	 cmp	 DWORD PTR [ebx+edx*4], 0
  0006b	74 bb		 je	 SHORT $ADD_SUCCESS$21

; 489  : 			goto ADD_SUCCESS;
; 490  : 		}
; 491  : 		nIdx++;

  0006d	40		 inc	 eax
  0006e	8d 7a 01	 lea	 edi, DWORD PTR [edx+1]
  00071	3b c1		 cmp	 eax, ecx
  00073	7c eb		 jl	 SHORT $LL4@push_back
$LN3@push_back:
  00075	5f		 pop	 edi
  00076	5e		 pop	 esi

; 492  : 	}
; 493  : 	//_stprintf(m_szMessage, _T("add FAIL! m_nLast[%d] m_nCurCount[%d] m_nMax[%d]"), m_nLast, m_nUse, m_nMax);
; 494  : 	return false;

  00077	32 c0		 xor	 al, al
  00079	5b		 pop	 ebx

; 503  : }

  0007a	5d		 pop	 ebp
  0007b	c2 08 00	 ret	 8
?push_back@?$CTList@VCComQueueThread@@@@QAE_NPAVCComQueueThread@@PAH@Z ENDP ; CTList<CComQueueThread>::push_back
_TEXT	ENDS
; Function compile flags: /Ogtp
; File e:\infinia-library-3.0\com\include\comtlist.h
;	COMDAT ?alloc@?$CTList@VCComQueueThread@@@@QAEHHW4E_ALLOC_TYPE@@@Z
_TEXT	SEGMENT
_nMaxCount$ = 8						; size = 4
_type$ = 12						; size = 4
?alloc@?$CTList@VCComQueueThread@@@@QAEHHW4E_ALLOC_TYPE@@@Z PROC ; CTList<CComQueueThread>::alloc, COMDAT
; _this$ = ecx

; 326  : 	int alloc(int nMaxCount, E_ALLOC_TYPE type = eAlloc_Type_new) { m_nObjAllocType = type;  m_nMax = __alloc(nMaxCount); return m_nMax; }

  00000	55		 push	 ebp
  00001	8b ec		 mov	 ebp, esp
  00003	8b 45 0c	 mov	 eax, DWORD PTR _type$[ebp]
  00006	53		 push	 ebx
  00007	56		 push	 esi
  00008	57		 push	 edi

; 403  : 	T** pList = (T**)calloc(nMaxCount, sizeof(T*));

  00009	8b 7d 08	 mov	 edi, DWORD PTR _nMaxCount$[ebp]

; 326  : 	int alloc(int nMaxCount, E_ALLOC_TYPE type = eAlloc_Type_new) { m_nObjAllocType = type;  m_nMax = __alloc(nMaxCount); return m_nMax; }

  0000c	8b f1		 mov	 esi, ecx

; 403  : 	T** pList = (T**)calloc(nMaxCount, sizeof(T*));

  0000e	6a 04		 push	 4
  00010	57		 push	 edi

; 326  : 	int alloc(int nMaxCount, E_ALLOC_TYPE type = eAlloc_Type_new) { m_nObjAllocType = type;  m_nMax = __alloc(nMaxCount); return m_nMax; }

  00011	89 46 14	 mov	 DWORD PTR [esi+20], eax

; 403  : 	T** pList = (T**)calloc(nMaxCount, sizeof(T*));

  00014	ff 15 00 00 00
	00		 call	 DWORD PTR __imp__calloc
  0001a	8b d8		 mov	 ebx, eax
  0001c	83 c4 08	 add	 esp, 8

; 404  : 	if (!pList) {

  0001f	85 db		 test	 ebx, ebx
  00021	75 1e		 jne	 SHORT $LN4@alloc

; 405  : 		_stprintf(g_szMessage, "pList calloc is NULL");

  00023	68 00 00 00 00	 push	 OFFSET ??_C@_0BF@ENADEEIE@pList?5calloc?5is?5NULL?$AA@
  00028	68 00 00 00 00	 push	 OFFSET ?g_szMessage@@3PADA ; g_szMessage
  0002d	e8 00 00 00 00	 call	 _sprintf
  00032	83 c4 08	 add	 esp, 8

; 326  : 	int alloc(int nMaxCount, E_ALLOC_TYPE type = eAlloc_Type_new) { m_nObjAllocType = type;  m_nMax = __alloc(nMaxCount); return m_nMax; }

  00035	89 5e 10	 mov	 DWORD PTR [esi+16], ebx
  00038	33 c0		 xor	 eax, eax
  0003a	5f		 pop	 edi
  0003b	5e		 pop	 esi
  0003c	5b		 pop	 ebx
  0003d	5d		 pop	 ebp
  0003e	c2 08 00	 ret	 8
$LN4@alloc:

; 409  : 	if (m_pArray) {

  00041	8b 0e		 mov	 ecx, DWORD PTR [esi]
  00043	85 c9		 test	 ecx, ecx
  00045	74 19		 je	 SHORT $LN5@alloc

; 410  : 		memcpy(pList, m_pArray, m_nMax * sizeof(T*));

  00047	8b 46 10	 mov	 eax, DWORD PTR [esi+16]
  0004a	c1 e0 02	 shl	 eax, 2
  0004d	50		 push	 eax
  0004e	51		 push	 ecx
  0004f	53		 push	 ebx
  00050	e8 00 00 00 00	 call	 _memcpy

; 411  : 		free(m_pArray);

  00055	ff 36		 push	 DWORD PTR [esi]
  00057	ff 15 00 00 00
	00		 call	 DWORD PTR __imp__free
  0005d	83 c4 10	 add	 esp, 16			; 00000010H
$LN5@alloc:

; 326  : 	int alloc(int nMaxCount, E_ALLOC_TYPE type = eAlloc_Type_new) { m_nObjAllocType = type;  m_nMax = __alloc(nMaxCount); return m_nMax; }

  00060	89 7e 10	 mov	 DWORD PTR [esi+16], edi
  00063	8b c7		 mov	 eax, edi
  00065	5f		 pop	 edi

; 413  : 	m_pArray = pList;

  00066	89 1e		 mov	 DWORD PTR [esi], ebx
  00068	5e		 pop	 esi
  00069	5b		 pop	 ebx

; 326  : 	int alloc(int nMaxCount, E_ALLOC_TYPE type = eAlloc_Type_new) { m_nObjAllocType = type;  m_nMax = __alloc(nMaxCount); return m_nMax; }

  0006a	5d		 pop	 ebp
  0006b	c2 08 00	 ret	 8
?alloc@?$CTList@VCComQueueThread@@@@QAEHHW4E_ALLOC_TYPE@@@Z ENDP ; CTList<CComQueueThread>::alloc
_TEXT	ENDS
; Function compile flags: /Ogtp
; File e:\infinia-library-3.0\com\include\comtlist.h
; File e:\infinia-library-3.0\com\include\combufpool.h
; File e:\infinia-library-3.0\com\include\comtlist.h
; File e:\infinia-library-3.0\com\include\combufpool.h
; File e:\infinia-library-3.0\com\include\commemmanager.h
; File e:\infinia-library-3.0\com\include\comtlist.h
;	COMDAT ??1?$CTList@VCComQueueThread@@@@QAE@XZ
_TEXT	SEGMENT
_$S1$2 = -24						; size = 8
_this$1$ = -16						; size = 4
__$EHRec$ = -12						; size = 12
??1?$CTList@VCComQueueThread@@@@QAE@XZ PROC		; CTList<CComQueueThread>::~CTList<CComQueueThread>, COMDAT
; _this$ = ecx

; 376  : {

  00000	55		 push	 ebp
  00001	8b ec		 mov	 ebp, esp
  00003	6a ff		 push	 -1
  00005	68 00 00 00 00	 push	 __ehhandler$??1?$CTList@VCComQueueThread@@@@QAE@XZ
  0000a	64 a1 00 00 00
	00		 mov	 eax, DWORD PTR fs:0
  00010	50		 push	 eax
  00011	83 ec 0c	 sub	 esp, 12			; 0000000cH
  00014	53		 push	 ebx
  00015	56		 push	 esi
  00016	57		 push	 edi
  00017	a1 00 00 00 00	 mov	 eax, DWORD PTR ___security_cookie
  0001c	33 c5		 xor	 eax, ebp
  0001e	50		 push	 eax
  0001f	8d 45 f4	 lea	 eax, DWORD PTR __$EHRec$[ebp]
  00022	64 a3 00 00 00
	00		 mov	 DWORD PTR fs:0, eax
  00028	8b f1		 mov	 esi, ecx
  0002a	89 75 f0	 mov	 DWORD PTR _this$1$[ebp], esi

; 377  : 	if (!m_pArray) return;

  0002d	8b 1e		 mov	 ebx, DWORD PTR [esi]
  0002f	85 db		 test	 ebx, ebx
  00031	0f 84 2c 01 00
	00		 je	 $LN1@CTList

; 378  : 
; 379  : 	if (ISABLETODELETE(m_nObjAllocType)) {

  00037	83 7e 14 01	 cmp	 DWORD PTR [esi+20], 1
  0003b	8b 15 00 00 00
	00		 mov	 edx, DWORD PTR __imp__free
  00041	0f 8e 0a 01 00
	00		 jle	 $LN84@CTList

; 335  : 		for (*pIdx; *pIdx < m_nMax; (*pIdx)++) {

  00047	8b 4e 10	 mov	 ecx, DWORD PTR [esi+16]

; 380  : 		int idx = 0;

  0004a	33 ff		 xor	 edi, edi

; 335  : 		for (*pIdx; *pIdx < m_nMax; (*pIdx)++) {

  0004c	85 c9		 test	 ecx, ecx
  0004e	0f 8e fd 00 00
	00		 jle	 $LN84@CTList

; 336  : 			if (m_pArray[*pIdx]) { return m_pArray[*pIdx]; }

  00054	8b c3		 mov	 eax, ebx
$LL26@CTList:
  00056	83 38 00	 cmp	 DWORD PTR [eax], 0
  00059	75 0d		 jne	 SHORT $LN71@CTList

; 335  : 		for (*pIdx; *pIdx < m_nMax; (*pIdx)++) {

  0005b	47		 inc	 edi
  0005c	83 c0 04	 add	 eax, 4
  0005f	3b f9		 cmp	 edi, ecx
  00061	7c f3		 jl	 SHORT $LL26@CTList

; 336  : 			if (m_pArray[*pIdx]) { return m_pArray[*pIdx]; }

  00063	e9 e9 00 00 00	 jmp	 $LN84@CTList
$LN71@CTList:
  00068	8b 1c bb	 mov	 ebx, DWORD PTR [ebx+edi*4]

; 381  : 		T *p = getNext(&idx);
; 382  : 		while (p) {

  0006b	85 db		 test	 ebx, ebx
  0006d	0f 84 de 00 00
	00		 je	 $LN84@CTList
$LL2@CTList:

; 383  : 			idx++;
; 384  : 			switch (m_nObjAllocType) {

  00073	8b 46 14	 mov	 eax, DWORD PTR [esi+20]
  00076	47		 inc	 edi
  00077	83 c0 fe	 add	 eax, -2			; fffffffeH
  0007a	83 f8 03	 cmp	 eax, 3
  0007d	0f 87 a8 00 00
	00		 ja	 $LN18@CTList
  00083	ff 24 85 00 00
	00 00		 jmp	 DWORD PTR $LN88@CTList[eax*4]
$LN8@CTList:

; 385  : 				case eAlloc_Type_new		:	delete p; break;

  0008a	6a 01		 push	 1
  0008c	8b cb		 mov	 ecx, ebx
  0008e	e8 00 00 00 00	 call	 ??_GCComQueueThread@@QAEPAXI@Z
  00093	e9 8d 00 00 00	 jmp	 $LN86@CTList
$LN9@CTList:

; 386  : 				case eAlloc_Type_alloc		:	free(p); break;

  00098	53		 push	 ebx
  00099	ff d2		 call	 edx
  0009b	83 c4 04	 add	 esp, 4
  0009e	e9 82 00 00 00	 jmp	 $LN86@CTList
$LN10@CTList:

; 387  : 				case eAlloc_Type_BufPool	:	gs_pMMgr->delBuf((char *)p, STRING_SIZE((TCHAR *)p)); break;

  000a3	8b d3		 mov	 edx, ebx
  000a5	8d 4a 01	 lea	 ecx, DWORD PTR [edx+1]
$LL83@CTList:
  000a8	8a 02		 mov	 al, BYTE PTR [edx]
  000aa	42		 inc	 edx
  000ab	84 c0		 test	 al, al
  000ad	75 f9		 jne	 SHORT $LL83@CTList
  000af	2b d1		 sub	 edx, ecx
; File e:\infinia-library-3.0\com\include\combufpool.h

; 51   : inline int getIndex(int s) { int m; union { double x; int b[2]; }; x = s; m = (b[1] >> 20) - 1023; return m + ((s&(s - (1 << m))) ? 1 : 0); }

  000b1	b8 01 00 00 00	 mov	 eax, 1
; File e:\infinia-library-3.0\com\include\comtlist.h

; 387  : 				case eAlloc_Type_BufPool	:	gs_pMMgr->delBuf((char *)p, STRING_SIZE((TCHAR *)p)); break;

  000b6	42		 inc	 edx
  000b7	66 0f 6e c2	 movd	 xmm0, edx
; File e:\infinia-library-3.0\com\include\combufpool.h

; 51   : inline int getIndex(int s) { int m; union { double x; int b[2]; }; x = s; m = (b[1] >> 20) - 1023; return m + ((s&(s - (1 << m))) ? 1 : 0); }

  000bb	f3 0f e6 c0	 cvtdq2pd xmm0, xmm0
  000bf	f2 0f 11 45 e8	 movsd	 QWORD PTR _$S1$2[ebp], xmm0
  000c4	8b 75 ec	 mov	 esi, DWORD PTR _$S1$2[ebp+4]
  000c7	c1 fe 14	 sar	 esi, 20			; 00000014H
  000ca	81 ee ff 03 00
	00		 sub	 esi, 1023		; 000003ffH
  000d0	8b ce		 mov	 ecx, esi
  000d2	d3 e0		 shl	 eax, cl
  000d4	8b ca		 mov	 ecx, edx
  000d6	2b c8		 sub	 ecx, eax
  000d8	23 ca		 and	 ecx, edx
  000da	f7 d9		 neg	 ecx
  000dc	1b c9		 sbb	 ecx, ecx
  000de	f7 d9		 neg	 ecx
  000e0	03 ce		 add	 ecx, esi
; File e:\infinia-library-3.0\com\include\commemmanager.h

; 38   : 	inline void delBuf(char *pBuf, int nSize) { int nIdx = getIndex(nSize); delBufByIndex(pBuf, nIdx); }

  000e2	51		 push	 ecx
  000e3	8b 0d 00 00 00
	00		 mov	 ecx, DWORD PTR ?gs_pMMgr@@3PAVCMemManager@@A ; gs_pMMgr
  000e9	53		 push	 ebx
  000ea	e8 00 00 00 00	 call	 ?delBufByIndex@CMemManager@@QAEXPADH@Z ; CMemManager::delBufByIndex
; File e:\infinia-library-3.0\com\include\comtlist.h

; 387  : 				case eAlloc_Type_BufPool	:	gs_pMMgr->delBuf((char *)p, STRING_SIZE((TCHAR *)p)); break;

  000ef	eb 31		 jmp	 SHORT $LN87@CTList
$LN11@CTList:
  000f1	68 00 00 00 00	 push	 OFFSET ??1CComQueueThread@@QAE@XZ ; CComQueueThread::~CComQueueThread
  000f6	ff 73 fc	 push	 DWORD PTR [ebx-4]
  000f9	8d 73 fc	 lea	 esi, DWORD PTR [ebx-4]
  000fc	c7 45 fc 00 00
	00 00		 mov	 DWORD PTR __$EHRec$[ebp+8], 0
  00103	6a 68		 push	 104			; 00000068H
  00105	53		 push	 ebx
  00106	e8 00 00 00 00	 call	 ??_M@YGXPAXIIP6EX0@Z@Z
  0010b	6b 06 68	 imul	 eax, DWORD PTR [esi], 104
  0010e	83 c0 04	 add	 eax, 4
  00111	50		 push	 eax
  00112	56		 push	 esi
  00113	e8 00 00 00 00	 call	 ??_V@YAXPAXI@Z		; operator delete[]
  00118	83 c4 08	 add	 esp, 8
  0011b	c7 45 fc ff ff
	ff ff		 mov	 DWORD PTR __$EHRec$[ebp+8], -1
$LN87@CTList:
  00122	8b 75 f0	 mov	 esi, DWORD PTR _this$1$[ebp]
$LN86@CTList:
  00125	8b 15 00 00 00
	00		 mov	 edx, DWORD PTR __imp__free
$LN18@CTList:

; 335  : 		for (*pIdx; *pIdx < m_nMax; (*pIdx)++) {

  0012b	8b 4e 10	 mov	 ecx, DWORD PTR [esi+16]
  0012e	3b f9		 cmp	 edi, ecx
  00130	7d 1f		 jge	 SHORT $LN84@CTList

; 336  : 			if (m_pArray[*pIdx]) { return m_pArray[*pIdx]; }

  00132	8b 1e		 mov	 ebx, DWORD PTR [esi]
  00134	8d 04 bb	 lea	 eax, DWORD PTR [ebx+edi*4]
$LL65@CTList:
  00137	83 38 00	 cmp	 DWORD PTR [eax], 0
  0013a	75 0a		 jne	 SHORT $LN72@CTList

; 335  : 		for (*pIdx; *pIdx < m_nMax; (*pIdx)++) {

  0013c	47		 inc	 edi
  0013d	83 c0 04	 add	 eax, 4
  00140	3b f9		 cmp	 edi, ecx
  00142	7c f3		 jl	 SHORT $LL65@CTList
  00144	eb 0b		 jmp	 SHORT $LN84@CTList
$LN72@CTList:

; 336  : 			if (m_pArray[*pIdx]) { return m_pArray[*pIdx]; }

  00146	8b 1c bb	 mov	 ebx, DWORD PTR [ebx+edi*4]

; 381  : 		T *p = getNext(&idx);
; 382  : 		while (p) {

  00149	85 db		 test	 ebx, ebx
  0014b	0f 85 22 ff ff
	ff		 jne	 $LL2@CTList
$LN84@CTList:

; 388  : 				case eAlloc_Type_newArray	:	delete[] p; break;
; 389  : 				case eAlloc_Type_none		:	break;
; 390  : 				case eAlloc_Type_MemPool	:	break;
; 391  : 			}
; 392  : 			p = getNext(&idx);
; 393  : 		}
; 394  : 	}
; 395  : 
; 396  : 	if (m_pArray)	free(m_pArray);

  00151	8b 06		 mov	 eax, DWORD PTR [esi]
  00153	85 c0		 test	 eax, eax
  00155	74 06		 je	 SHORT $LN14@CTList
  00157	50		 push	 eax
  00158	ff d2		 call	 edx
  0015a	83 c4 04	 add	 esp, 4
$LN14@CTList:

; 397  : 	m_pArray = 0;

  0015d	c7 06 00 00 00
	00		 mov	 DWORD PTR [esi], 0
$LN1@CTList:

; 398  : }

  00163	8b 4d f4	 mov	 ecx, DWORD PTR __$EHRec$[ebp]
  00166	64 89 0d 00 00
	00 00		 mov	 DWORD PTR fs:0, ecx
  0016d	59		 pop	 ecx
  0016e	5f		 pop	 edi
  0016f	5e		 pop	 esi
  00170	5b		 pop	 ebx
  00171	8b e5		 mov	 esp, ebp
  00173	5d		 pop	 ebp
  00174	c3		 ret	 0
  00175	0f 1f 00	 npad	 3
$LN88@CTList:
  00178	00 00 00 00	 DD	 $LN8@CTList
  0017c	00 00 00 00	 DD	 $LN9@CTList
  00180	00 00 00 00	 DD	 $LN10@CTList
  00184	00 00 00 00	 DD	 $LN11@CTList
_TEXT	ENDS
;	COMDAT text$x
text$x	SEGMENT
__unwindfunclet$??1?$CTList@VCComQueueThread@@@@QAE@XZ$0:
  00000	e8 00 00 00 00	 call	 ___std_terminate
  00005	c3		 ret	 0
__ehhandler$??1?$CTList@VCComQueueThread@@@@QAE@XZ:
  00006	8b 54 24 08	 mov	 edx, DWORD PTR [esp+8]
  0000a	8d 42 0c	 lea	 eax, DWORD PTR [edx+12]
  0000d	8b 4a e4	 mov	 ecx, DWORD PTR [edx-28]
  00010	33 c8		 xor	 ecx, eax
  00012	e8 00 00 00 00	 call	 @__security_check_cookie@4
  00017	b8 00 00 00 00	 mov	 eax, OFFSET __ehfuncinfo$??1?$CTList@VCComQueueThread@@@@QAE@XZ
  0001c	e9 00 00 00 00	 jmp	 ___CxxFrameHandler3
text$x	ENDS
??1?$CTList@VCComQueueThread@@@@QAE@XZ ENDP		; CTList<CComQueueThread>::~CTList<CComQueueThread>
; Function compile flags: /Ogtp
; File e:\infinia-library-3.0\com\include\comtlist.h
;	COMDAT ??0?$CTList@VCComQueueThread@@@@QAE@XZ
_TEXT	SEGMENT
??0?$CTList@VCComQueueThread@@@@QAE@XZ PROC		; CTList<CComQueueThread>::CTList<CComQueueThread>, COMDAT
; _this$ = ecx

; 366  : 	m_pArray = NULL;

  00000	c7 01 00 00 00
	00		 mov	 DWORD PTR [ecx], 0

; 367  : 	m_nUse = 0;
; 368  : 	m_nLast = 0;
; 369  : 	m_nDelIdx = 0;
; 370  : 	m_nMax = 0;
; 371  : 	m_nObjAllocType = eAlloc_Type_none;
; 372  : }

  00006	8b c1		 mov	 eax, ecx
  00008	c7 41 04 00 00
	00 00		 mov	 DWORD PTR [ecx+4], 0
  0000f	c7 41 08 00 00
	00 00		 mov	 DWORD PTR [ecx+8], 0
  00016	c7 41 0c 00 00
	00 00		 mov	 DWORD PTR [ecx+12], 0
  0001d	c7 41 10 00 00
	00 00		 mov	 DWORD PTR [ecx+16], 0
  00024	c7 41 14 00 00
	00 00		 mov	 DWORD PTR [ecx+20], 0
  0002b	c3		 ret	 0
??0?$CTList@VCComQueueThread@@@@QAE@XZ ENDP		; CTList<CComQueueThread>::CTList<CComQueueThread>
_TEXT	ENDS
; Function compile flags: /Ogtp
;	COMDAT ??_G?$CTList@VCComThread@@@@QAEPAXI@Z
_TEXT	SEGMENT
___flags$ = 8						; size = 4
??_G?$CTList@VCComThread@@@@QAEPAXI@Z PROC		; CTList<CComThread>::`scalar deleting destructor', COMDAT
; _this$ = ecx
  00000	55		 push	 ebp
  00001	8b ec		 mov	 ebp, esp
  00003	56		 push	 esi
  00004	8b f1		 mov	 esi, ecx
  00006	e8 00 00 00 00	 call	 ??1?$CTList@VCComThread@@@@QAE@XZ ; CTList<CComThread>::~CTList<CComThread>
  0000b	f6 45 08 01	 test	 BYTE PTR ___flags$[ebp], 1
  0000f	74 0b		 je	 SHORT $LN4@scalar
  00011	6a 18		 push	 24			; 00000018H
  00013	56		 push	 esi
  00014	e8 00 00 00 00	 call	 ??3@YAXPAXI@Z		; operator delete
  00019	83 c4 08	 add	 esp, 8
$LN4@scalar:
  0001c	8b c6		 mov	 eax, esi
  0001e	5e		 pop	 esi
  0001f	5d		 pop	 ebp
  00020	c2 04 00	 ret	 4
??_G?$CTList@VCComThread@@@@QAEPAXI@Z ENDP		; CTList<CComThread>::`scalar deleting destructor'
_TEXT	ENDS
; Function compile flags: /Ogtp
;	COMDAT ?__autoclassinit2@?$CTList@VCComThread@@@@QAEXI@Z
_TEXT	SEGMENT
_classSize$ = 8						; size = 4
?__autoclassinit2@?$CTList@VCComThread@@@@QAEXI@Z PROC	; CTList<CComThread>::__autoclassinit2, COMDAT
; _this$ = ecx
  00000	55		 push	 ebp
  00001	8b ec		 mov	 ebp, esp
  00003	ff 75 08	 push	 DWORD PTR _classSize$[ebp]
  00006	6a 00		 push	 0
  00008	51		 push	 ecx
  00009	e8 00 00 00 00	 call	 _memset
  0000e	83 c4 0c	 add	 esp, 12			; 0000000cH
  00011	5d		 pop	 ebp
  00012	c2 04 00	 ret	 4
?__autoclassinit2@?$CTList@VCComThread@@@@QAEXI@Z ENDP	; CTList<CComThread>::__autoclassinit2
_TEXT	ENDS
; Function compile flags: /Ogtp
; File e:\infinia-library-3.0\com\include\comtlist.h
;	COMDAT ?_DEL@?$CTList@VCComThread@@@@AAEXH@Z
_TEXT	SEGMENT
_i$ = 8							; size = 4
?_DEL@?$CTList@VCComThread@@@@AAEXH@Z PROC		; CTList<CComThread>::_DEL, COMDAT
; _this$ = ecx

; 360  : 	inline void _DEL(int i) { m_pArray[i] = 0; m_nUse--; m_nDelIdx = i; }

  00000	55		 push	 ebp
  00001	8b ec		 mov	 ebp, esp
  00003	8b 55 08	 mov	 edx, DWORD PTR _i$[ebp]
  00006	8b 01		 mov	 eax, DWORD PTR [ecx]
  00008	c7 04 90 00 00
	00 00		 mov	 DWORD PTR [eax+edx*4], 0
  0000f	ff 49 04	 dec	 DWORD PTR [ecx+4]
  00012	89 51 0c	 mov	 DWORD PTR [ecx+12], edx
  00015	5d		 pop	 ebp
  00016	c2 04 00	 ret	 4
?_DEL@?$CTList@VCComThread@@@@AAEXH@Z ENDP		; CTList<CComThread>::_DEL
_TEXT	ENDS
; Function compile flags: /Ogtp
; File e:\infinia-library-3.0\com\include\comtlist.h
;	COMDAT ?__alloc@?$CTList@VCComThread@@@@AAEHH@Z
_TEXT	SEGMENT
_nMaxCount$ = 8						; size = 4
?__alloc@?$CTList@VCComThread@@@@AAEHH@Z PROC		; CTList<CComThread>::__alloc, COMDAT
; _this$ = ecx

; 402  : {

  00000	55		 push	 ebp
  00001	8b ec		 mov	 ebp, esp
  00003	56		 push	 esi
  00004	57		 push	 edi

; 403  : 	T** pList = (T**)calloc(nMaxCount, sizeof(T*));

  00005	6a 04		 push	 4
  00007	ff 75 08	 push	 DWORD PTR _nMaxCount$[ebp]
  0000a	8b f1		 mov	 esi, ecx
  0000c	ff 15 00 00 00
	00		 call	 DWORD PTR __imp__calloc
  00012	8b f8		 mov	 edi, eax
  00014	83 c4 08	 add	 esp, 8

; 404  : 	if (!pList) {

  00017	85 ff		 test	 edi, edi
  00019	75 1a		 jne	 SHORT $LN2@alloc

; 405  : 		_stprintf(g_szMessage, "pList calloc is NULL");

  0001b	68 00 00 00 00	 push	 OFFSET ??_C@_0BF@ENADEEIE@pList?5calloc?5is?5NULL?$AA@
  00020	68 00 00 00 00	 push	 OFFSET ?g_szMessage@@3PADA ; g_szMessage
  00025	e8 00 00 00 00	 call	 _sprintf
  0002a	83 c4 08	 add	 esp, 8

; 406  : 		return 0;

  0002d	33 c0		 xor	 eax, eax
  0002f	5f		 pop	 edi
  00030	5e		 pop	 esi

; 415  : }

  00031	5d		 pop	 ebp
  00032	c2 04 00	 ret	 4
$LN2@alloc:

; 407  : 	}
; 408  : 	//_stprintf(g_szMessage, _T("CTList::__alloc list m_nMaxCount[%d]"), nMaxCount);
; 409  : 	if (m_pArray) {

  00035	8b 0e		 mov	 ecx, DWORD PTR [esi]
  00037	85 c9		 test	 ecx, ecx
  00039	74 19		 je	 SHORT $LN3@alloc

; 410  : 		memcpy(pList, m_pArray, m_nMax * sizeof(T*));

  0003b	8b 46 10	 mov	 eax, DWORD PTR [esi+16]
  0003e	c1 e0 02	 shl	 eax, 2
  00041	50		 push	 eax
  00042	51		 push	 ecx
  00043	57		 push	 edi
  00044	e8 00 00 00 00	 call	 _memcpy

; 411  : 		free(m_pArray);

  00049	ff 36		 push	 DWORD PTR [esi]
  0004b	ff 15 00 00 00
	00		 call	 DWORD PTR __imp__free
  00051	83 c4 10	 add	 esp, 16			; 00000010H
$LN3@alloc:

; 412  : 	}
; 413  : 	m_pArray = pList;
; 414  : 	return nMaxCount;

  00054	8b 45 08	 mov	 eax, DWORD PTR _nMaxCount$[ebp]
  00057	89 3e		 mov	 DWORD PTR [esi], edi
  00059	5f		 pop	 edi
  0005a	5e		 pop	 esi

; 415  : }

  0005b	5d		 pop	 ebp
  0005c	c2 04 00	 ret	 4
?__alloc@?$CTList@VCComThread@@@@AAEHH@Z ENDP		; CTList<CComThread>::__alloc
_TEXT	ENDS
; Function compile flags: /Ogtp
; File e:\infinia-library-3.0\com\include\comtlist.h
;	COMDAT ?setObjAllocType@?$CTList@VCComThread@@@@QAEXW4E_ALLOC_TYPE@@@Z
_TEXT	SEGMENT
_type$ = 8						; size = 4
?setObjAllocType@?$CTList@VCComThread@@@@QAEXW4E_ALLOC_TYPE@@@Z PROC ; CTList<CComThread>::setObjAllocType, COMDAT
; _this$ = ecx

; 350  : 	inline void setObjAllocType(E_ALLOC_TYPE type) { m_nObjAllocType = type; }

  00000	55		 push	 ebp
  00001	8b ec		 mov	 ebp, esp
  00003	8b 45 08	 mov	 eax, DWORD PTR _type$[ebp]
  00006	89 41 14	 mov	 DWORD PTR [ecx+20], eax
  00009	5d		 pop	 ebp
  0000a	c2 04 00	 ret	 4
?setObjAllocType@?$CTList@VCComThread@@@@QAEXW4E_ALLOC_TYPE@@@Z ENDP ; CTList<CComThread>::setObjAllocType
_TEXT	ENDS
; Function compile flags: /Ogtp
; File e:\infinia-library-3.0\com\include\comtlist.h
;	COMDAT ?lastIdx@?$CTList@VCComThread@@@@QAEHXZ
_TEXT	SEGMENT
?lastIdx@?$CTList@VCComThread@@@@QAEHXZ PROC		; CTList<CComThread>::lastIdx, COMDAT
; _this$ = ecx

; 348  : 	inline int  lastIdx() { return m_nLast; }

  00000	8b 41 08	 mov	 eax, DWORD PTR [ecx+8]
  00003	c3		 ret	 0
?lastIdx@?$CTList@VCComThread@@@@QAEHXZ ENDP		; CTList<CComThread>::lastIdx
_TEXT	ENDS
; Function compile flags: /Ogtp
; File e:\infinia-library-3.0\com\include\comtlist.h
;	COMDAT ?size@?$CTList@VCComThread@@@@QAEHXZ
_TEXT	SEGMENT
?size@?$CTList@VCComThread@@@@QAEHXZ PROC		; CTList<CComThread>::size, COMDAT
; _this$ = ecx

; 347  : 	inline int  size() { return m_nUse; }

  00000	8b 41 04	 mov	 eax, DWORD PTR [ecx+4]
  00003	c3		 ret	 0
?size@?$CTList@VCComThread@@@@QAEHXZ ENDP		; CTList<CComThread>::size
_TEXT	ENDS
; Function compile flags: /Ogtp
; File e:\infinia-library-3.0\com\include\comtlist.h
;	COMDAT ?getNext@?$CTList@VCComThread@@@@QAEPAVCComThread@@PAH@Z
_TEXT	SEGMENT
_pIdx$ = 8						; size = 4
?getNext@?$CTList@VCComThread@@@@QAEPAVCComThread@@PAH@Z PROC ; CTList<CComThread>::getNext, COMDAT
; _this$ = ecx

; 334  : 	inline T* getNext(int *pIdx) {

  00000	55		 push	 ebp
  00001	8b ec		 mov	 ebp, esp
  00003	56		 push	 esi

; 335  : 		for (*pIdx; *pIdx < m_nMax; (*pIdx)++) {

  00004	8b 75 08	 mov	 esi, DWORD PTR _pIdx$[ebp]
  00007	8b d1		 mov	 edx, ecx
  00009	8b 06		 mov	 eax, DWORD PTR [esi]
  0000b	3b 42 10	 cmp	 eax, DWORD PTR [edx+16]
  0000e	7d 14		 jge	 SHORT $LN3@getNext
$LL4@getNext:

; 336  : 			if (m_pArray[*pIdx]) { return m_pArray[*pIdx]; }

  00010	8b 0e		 mov	 ecx, DWORD PTR [esi]
  00012	8b 02		 mov	 eax, DWORD PTR [edx]
  00014	83 3c 88 00	 cmp	 DWORD PTR [eax+ecx*4], 0
  00018	75 11		 jne	 SHORT $LN8@getNext

; 335  : 		for (*pIdx; *pIdx < m_nMax; (*pIdx)++) {

  0001a	8d 41 01	 lea	 eax, DWORD PTR [ecx+1]
  0001d	89 06		 mov	 DWORD PTR [esi], eax
  0001f	3b 42 10	 cmp	 eax, DWORD PTR [edx+16]
  00022	7c ec		 jl	 SHORT $LL4@getNext
$LN3@getNext:

; 337  : 		}
; 338  : 		return NULL;

  00024	33 c0		 xor	 eax, eax
  00026	5e		 pop	 esi

; 339  : 	}

  00027	5d		 pop	 ebp
  00028	c2 04 00	 ret	 4
$LN8@getNext:

; 336  : 			if (m_pArray[*pIdx]) { return m_pArray[*pIdx]; }

  0002b	8b 04 88	 mov	 eax, DWORD PTR [eax+ecx*4]
  0002e	5e		 pop	 esi

; 339  : 	}

  0002f	5d		 pop	 ebp
  00030	c2 04 00	 ret	 4
?getNext@?$CTList@VCComThread@@@@QAEPAVCComThread@@PAH@Z ENDP ; CTList<CComThread>::getNext
_TEXT	ENDS
; Function compile flags: /Ogtp
; File e:\infinia-library-3.0\com\include\comtlist.h
; File e:\infinia-library-3.0\com\include\comtypes.h
; File e:\infinia-library-3.0\com\include\comtlist.h
;	COMDAT ?getObj@?$CTList@VCComThread@@@@QAEPAVCComThread@@H@Z
_TEXT	SEGMENT
_i$ = 8							; size = 4
?getObj@?$CTList@VCComThread@@@@QAEPAVCComThread@@H@Z PROC ; CTList<CComThread>::getObj, COMDAT
; _this$ = ecx

; 332  : 	inline T* getObj(int i) { if (ISINCLUDE(i, m_nMax)) return m_pArray[i]; return NULL; }

  00000	55		 push	 ebp
  00001	8b ec		 mov	 ebp, esp
; File e:\infinia-library-3.0\com\include\comtypes.h

; 322  : inline bool ISINCLUDE(int i, int max) { if (0 <= i && i < max) return true; return false; }

  00003	8b 55 08	 mov	 edx, DWORD PTR _i$[ebp]
  00006	85 d2		 test	 edx, edx
  00008	78 0e		 js	 SHORT $LN2@getObj
  0000a	3b 51 10	 cmp	 edx, DWORD PTR [ecx+16]
  0000d	7d 09		 jge	 SHORT $LN2@getObj
; File e:\infinia-library-3.0\com\include\comtlist.h

; 332  : 	inline T* getObj(int i) { if (ISINCLUDE(i, m_nMax)) return m_pArray[i]; return NULL; }

  0000f	8b 01		 mov	 eax, DWORD PTR [ecx]
  00011	8b 04 90	 mov	 eax, DWORD PTR [eax+edx*4]
  00014	5d		 pop	 ebp
  00015	c2 04 00	 ret	 4
$LN2@getObj:
  00018	33 c0		 xor	 eax, eax
  0001a	5d		 pop	 ebp
  0001b	c2 04 00	 ret	 4
?getObj@?$CTList@VCComThread@@@@QAEPAVCComThread@@H@Z ENDP ; CTList<CComThread>::getObj
_TEXT	ENDS
; Function compile flags: /Ogtp
; File e:\infinia-library-3.0\com\include\comtlist.h
; File e:\infinia-library-3.0\com\include\comtypes.h
; File e:\infinia-library-3.0\com\include\comtlist.h
;	COMDAT ?del@?$CTList@VCComThread@@@@QAE_NH@Z
_TEXT	SEGMENT
_i$ = 8							; size = 4
?del@?$CTList@VCComThread@@@@QAE_NH@Z PROC		; CTList<CComThread>::del, COMDAT
; _this$ = ecx

; 523  : {

  00000	55		 push	 ebp
  00001	8b ec		 mov	 ebp, esp
; File e:\infinia-library-3.0\com\include\comtypes.h

; 322  : inline bool ISINCLUDE(int i, int max) { if (0 <= i && i < max) return true; return false; }

  00003	8b 55 08	 mov	 edx, DWORD PTR _i$[ebp]
  00006	85 d2		 test	 edx, edx
  00008	78 1a		 js	 SHORT $LN5@del
  0000a	3b 51 10	 cmp	 edx, DWORD PTR [ecx+16]
  0000d	7d 15		 jge	 SHORT $LN5@del
; File e:\infinia-library-3.0\com\include\comtlist.h

; 360  : 	inline void _DEL(int i) { m_pArray[i] = 0; m_nUse--; m_nDelIdx = i; }

  0000f	8b 01		 mov	 eax, DWORD PTR [ecx]
  00011	c7 04 90 00 00
	00 00		 mov	 DWORD PTR [eax+edx*4], 0

; 527  : 	}
; 528  : 	_DEL(i);
; 529  : 	//_stprintf(g_szMessage, _T("CMemList::del i[%d] m_nLast[%d] m_nCurCount[%d]"), i, m_nLast, m_nUse);
; 530  : 	return true;

  00018	b0 01		 mov	 al, 1

; 360  : 	inline void _DEL(int i) { m_pArray[i] = 0; m_nUse--; m_nDelIdx = i; }

  0001a	ff 49 04	 dec	 DWORD PTR [ecx+4]
  0001d	89 51 0c	 mov	 DWORD PTR [ecx+12], edx

; 531  : }

  00020	5d		 pop	 ebp
  00021	c2 04 00	 ret	 4
$LN5@del:

; 524  : 	if (!ISINCLUDE(i, m_nMax)) {
; 525  : 		_stprintf(g_szMessage, "i[%d] m_nMax[%d]", i, m_nMax);

  00024	ff 71 10	 push	 DWORD PTR [ecx+16]
  00027	52		 push	 edx
  00028	68 00 00 00 00	 push	 OFFSET ??_C@_0BB@GJFHJAKG@i?$FL?$CFd?$FN?5m_nMax?$FL?$CFd?$FN?$AA@
  0002d	68 00 00 00 00	 push	 OFFSET ?g_szMessage@@3PADA ; g_szMessage
  00032	e8 00 00 00 00	 call	 _sprintf
  00037	83 c4 10	 add	 esp, 16			; 00000010H

; 526  : 		return false;

  0003a	32 c0		 xor	 al, al

; 531  : }

  0003c	5d		 pop	 ebp
  0003d	c2 04 00	 ret	 4
?del@?$CTList@VCComThread@@@@QAE_NH@Z ENDP		; CTList<CComThread>::del
_TEXT	ENDS
; Function compile flags: /Ogtp
; File e:\infinia-library-3.0\com\include\comtlist.h
;	COMDAT ?push_back@?$CTList@VCComThread@@@@QAE_NPAVCComThread@@PAH@Z
_TEXT	SEGMENT
_Obj$ = 8						; size = 4
_pIdx$ = 12						; size = 4
?push_back@?$CTList@VCComThread@@@@QAE_NPAVCComThread@@PAH@Z PROC ; CTList<CComThread>::push_back, COMDAT
; _this$ = ecx

; 472  : {

  00000	55		 push	 ebp
  00001	8b ec		 mov	 ebp, esp
  00003	53		 push	 ebx
  00004	56		 push	 esi
  00005	8b f1		 mov	 esi, ecx
  00007	57		 push	 edi

; 473  : 	int nIdx, i;
; 474  : 
; 475  : 	if (m_nUse >= m_nMax) {

  00008	8b 4e 10	 mov	 ecx, DWORD PTR [esi+16]
  0000b	39 4e 04	 cmp	 DWORD PTR [esi+4], ecx
  0000e	7c 38		 jl	 SHORT $LN5@push_back

; 476  : 		if (!__alloc(m_nMax + TLIST_ADD_SIZE)) return false;

  00010	8d 41 40	 lea	 eax, DWORD PTR [ecx+64]
  00013	8b ce		 mov	 ecx, esi
  00015	50		 push	 eax
  00016	e8 00 00 00 00	 call	 ?__alloc@?$CTList@VCComThread@@@@AAEHH@Z ; CTList<CComThread>::__alloc
  0001b	85 c0		 test	 eax, eax
  0001d	74 56		 je	 SHORT $LN3@push_back

; 477  : 		nIdx = m_nMax;

  0001f	8b 56 10	 mov	 edx, DWORD PTR [esi+16]

; 478  : 		m_nMax += TLIST_ADD_SIZE;

  00022	8d 42 40	 lea	 eax, DWORD PTR [edx+64]
  00025	89 46 10	 mov	 DWORD PTR [esi+16], eax
$ADD_SUCCESS$21:

; 495  : 
; 496  : ADD_SUCCESS:
; 497  : 	m_nUse++;
; 498  : 	m_pArray[nIdx] = Obj;

  00028	8b 0e		 mov	 ecx, DWORD PTR [esi]
  0002a	ff 46 04	 inc	 DWORD PTR [esi+4]
  0002d	8b 45 08	 mov	 eax, DWORD PTR _Obj$[ebp]
  00030	89 04 91	 mov	 DWORD PTR [ecx+edx*4], eax

; 499  : 	m_nLast++;

  00033	ff 46 08	 inc	 DWORD PTR [esi+8]

; 500  : 	//_stprintf(g_szMessage, _T("CMemList::add i[%d] m_nLast[%d] m_nCurCount[%d]"), nIdx, m_nLast, m_nUse);
; 501  : 	if (pIdx) *pIdx = nIdx;

  00036	8b 45 0c	 mov	 eax, DWORD PTR _pIdx$[ebp]
  00039	85 c0		 test	 eax, eax
  0003b	74 02		 je	 SHORT $LN13@push_back
  0003d	89 10		 mov	 DWORD PTR [eax], edx
$LN13@push_back:
  0003f	5f		 pop	 edi
  00040	5e		 pop	 esi

; 502  : 	return true;

  00041	b0 01		 mov	 al, 1
  00043	5b		 pop	 ebx

; 503  : }

  00044	5d		 pop	 ebp
  00045	c2 08 00	 ret	 8
$LN5@push_back:

; 479  : 		goto ADD_SUCCESS;
; 480  : 	}
; 481  : 
; 482  : 	if (!m_pArray[m_nLast]) { nIdx = m_nLast;  goto ADD_SUCCESS; }

  00048	8b 56 08	 mov	 edx, DWORD PTR [esi+8]
  0004b	8b 1e		 mov	 ebx, DWORD PTR [esi]
  0004d	83 3c 93 00	 cmp	 DWORD PTR [ebx+edx*4], 0
  00051	74 d5		 je	 SHORT $ADD_SUCCESS$21

; 483  : 
; 484  : 	nIdx = m_nLast;
; 485  : 	for (i = 0; i < m_nMax; i++)

  00053	33 c0		 xor	 eax, eax
  00055	8b fa		 mov	 edi, edx
  00057	85 c9		 test	 ecx, ecx
  00059	7e 1a		 jle	 SHORT $LN3@push_back
  0005b	0f 1f 44 00 00	 npad	 5
$LL4@push_back:
  00060	33 d2		 xor	 edx, edx
  00062	3b f9		 cmp	 edi, ecx
  00064	0f 4c d7	 cmovl	 edx, edi

; 486  : 	{
; 487  : 		if (nIdx >= m_nMax) nIdx = 0;
; 488  : 		if (!m_pArray[nIdx]) {

  00067	83 3c 93 00	 cmp	 DWORD PTR [ebx+edx*4], 0
  0006b	74 bb		 je	 SHORT $ADD_SUCCESS$21

; 489  : 			goto ADD_SUCCESS;
; 490  : 		}
; 491  : 		nIdx++;

  0006d	40		 inc	 eax
  0006e	8d 7a 01	 lea	 edi, DWORD PTR [edx+1]
  00071	3b c1		 cmp	 eax, ecx
  00073	7c eb		 jl	 SHORT $LL4@push_back
$LN3@push_back:
  00075	5f		 pop	 edi
  00076	5e		 pop	 esi

; 492  : 	}
; 493  : 	//_stprintf(m_szMessage, _T("add FAIL! m_nLast[%d] m_nCurCount[%d] m_nMax[%d]"), m_nLast, m_nUse, m_nMax);
; 494  : 	return false;

  00077	32 c0		 xor	 al, al
  00079	5b		 pop	 ebx

; 503  : }

  0007a	5d		 pop	 ebp
  0007b	c2 08 00	 ret	 8
?push_back@?$CTList@VCComThread@@@@QAE_NPAVCComThread@@PAH@Z ENDP ; CTList<CComThread>::push_back
_TEXT	ENDS
; Function compile flags: /Ogtp
; File e:\infinia-library-3.0\com\include\comtlist.h
;	COMDAT ?alloc@?$CTList@VCComThread@@@@QAEHHW4E_ALLOC_TYPE@@@Z
_TEXT	SEGMENT
_nMaxCount$ = 8						; size = 4
_type$ = 12						; size = 4
?alloc@?$CTList@VCComThread@@@@QAEHHW4E_ALLOC_TYPE@@@Z PROC ; CTList<CComThread>::alloc, COMDAT
; _this$ = ecx

; 326  : 	int alloc(int nMaxCount, E_ALLOC_TYPE type = eAlloc_Type_new) { m_nObjAllocType = type;  m_nMax = __alloc(nMaxCount); return m_nMax; }

  00000	55		 push	 ebp
  00001	8b ec		 mov	 ebp, esp
  00003	8b 45 0c	 mov	 eax, DWORD PTR _type$[ebp]
  00006	53		 push	 ebx
  00007	56		 push	 esi
  00008	57		 push	 edi

; 403  : 	T** pList = (T**)calloc(nMaxCount, sizeof(T*));

  00009	8b 7d 08	 mov	 edi, DWORD PTR _nMaxCount$[ebp]

; 326  : 	int alloc(int nMaxCount, E_ALLOC_TYPE type = eAlloc_Type_new) { m_nObjAllocType = type;  m_nMax = __alloc(nMaxCount); return m_nMax; }

  0000c	8b f1		 mov	 esi, ecx

; 403  : 	T** pList = (T**)calloc(nMaxCount, sizeof(T*));

  0000e	6a 04		 push	 4
  00010	57		 push	 edi

; 326  : 	int alloc(int nMaxCount, E_ALLOC_TYPE type = eAlloc_Type_new) { m_nObjAllocType = type;  m_nMax = __alloc(nMaxCount); return m_nMax; }

  00011	89 46 14	 mov	 DWORD PTR [esi+20], eax

; 403  : 	T** pList = (T**)calloc(nMaxCount, sizeof(T*));

  00014	ff 15 00 00 00
	00		 call	 DWORD PTR __imp__calloc
  0001a	8b d8		 mov	 ebx, eax
  0001c	83 c4 08	 add	 esp, 8

; 404  : 	if (!pList) {

  0001f	85 db		 test	 ebx, ebx
  00021	75 1e		 jne	 SHORT $LN4@alloc

; 405  : 		_stprintf(g_szMessage, "pList calloc is NULL");

  00023	68 00 00 00 00	 push	 OFFSET ??_C@_0BF@ENADEEIE@pList?5calloc?5is?5NULL?$AA@
  00028	68 00 00 00 00	 push	 OFFSET ?g_szMessage@@3PADA ; g_szMessage
  0002d	e8 00 00 00 00	 call	 _sprintf
  00032	83 c4 08	 add	 esp, 8

; 326  : 	int alloc(int nMaxCount, E_ALLOC_TYPE type = eAlloc_Type_new) { m_nObjAllocType = type;  m_nMax = __alloc(nMaxCount); return m_nMax; }

  00035	89 5e 10	 mov	 DWORD PTR [esi+16], ebx
  00038	33 c0		 xor	 eax, eax
  0003a	5f		 pop	 edi
  0003b	5e		 pop	 esi
  0003c	5b		 pop	 ebx
  0003d	5d		 pop	 ebp
  0003e	c2 08 00	 ret	 8
$LN4@alloc:

; 409  : 	if (m_pArray) {

  00041	8b 0e		 mov	 ecx, DWORD PTR [esi]
  00043	85 c9		 test	 ecx, ecx
  00045	74 19		 je	 SHORT $LN5@alloc

; 410  : 		memcpy(pList, m_pArray, m_nMax * sizeof(T*));

  00047	8b 46 10	 mov	 eax, DWORD PTR [esi+16]
  0004a	c1 e0 02	 shl	 eax, 2
  0004d	50		 push	 eax
  0004e	51		 push	 ecx
  0004f	53		 push	 ebx
  00050	e8 00 00 00 00	 call	 _memcpy

; 411  : 		free(m_pArray);

  00055	ff 36		 push	 DWORD PTR [esi]
  00057	ff 15 00 00 00
	00		 call	 DWORD PTR __imp__free
  0005d	83 c4 10	 add	 esp, 16			; 00000010H
$LN5@alloc:

; 326  : 	int alloc(int nMaxCount, E_ALLOC_TYPE type = eAlloc_Type_new) { m_nObjAllocType = type;  m_nMax = __alloc(nMaxCount); return m_nMax; }

  00060	89 7e 10	 mov	 DWORD PTR [esi+16], edi
  00063	8b c7		 mov	 eax, edi
  00065	5f		 pop	 edi

; 413  : 	m_pArray = pList;

  00066	89 1e		 mov	 DWORD PTR [esi], ebx
  00068	5e		 pop	 esi
  00069	5b		 pop	 ebx

; 326  : 	int alloc(int nMaxCount, E_ALLOC_TYPE type = eAlloc_Type_new) { m_nObjAllocType = type;  m_nMax = __alloc(nMaxCount); return m_nMax; }

  0006a	5d		 pop	 ebp
  0006b	c2 08 00	 ret	 8
?alloc@?$CTList@VCComThread@@@@QAEHHW4E_ALLOC_TYPE@@@Z ENDP ; CTList<CComThread>::alloc
_TEXT	ENDS
; Function compile flags: /Ogtp
; File e:\infinia-library-3.0\com\include\comtlist.h
; File e:\infinia-library-3.0\com\src\comcore.cpp
; File e:\infinia-library-3.0\com\include\com\win32\win32_mtsync.h
; File e:\infinia-library-3.0\com\include\com\abstract_mtsync.h
; File e:\infinia-library-3.0\com\include\comtlist.h
; File e:\infinia-library-3.0\com\include\combufpool.h
; File e:\infinia-library-3.0\com\include\comtlist.h
; File e:\infinia-library-3.0\com\include\combufpool.h
; File e:\infinia-library-3.0\com\include\commemmanager.h
; File e:\infinia-library-3.0\com\include\comtlist.h
;	COMDAT ??1?$CTList@VCComThread@@@@QAE@XZ
_TEXT	SEGMENT
_$S1$2 = -24						; size = 8
_this$1$ = -16						; size = 4
__$EHRec$ = -12						; size = 12
??1?$CTList@VCComThread@@@@QAE@XZ PROC			; CTList<CComThread>::~CTList<CComThread>, COMDAT
; _this$ = ecx

; 376  : {

  00000	55		 push	 ebp
  00001	8b ec		 mov	 ebp, esp
  00003	6a ff		 push	 -1
  00005	68 00 00 00 00	 push	 __ehhandler$??1?$CTList@VCComThread@@@@QAE@XZ
  0000a	64 a1 00 00 00
	00		 mov	 eax, DWORD PTR fs:0
  00010	50		 push	 eax
  00011	83 ec 0c	 sub	 esp, 12			; 0000000cH
  00014	53		 push	 ebx
  00015	56		 push	 esi
  00016	57		 push	 edi
  00017	a1 00 00 00 00	 mov	 eax, DWORD PTR ___security_cookie
  0001c	33 c5		 xor	 eax, ebp
  0001e	50		 push	 eax
  0001f	8d 45 f4	 lea	 eax, DWORD PTR __$EHRec$[ebp]
  00022	64 a3 00 00 00
	00		 mov	 DWORD PTR fs:0, eax
  00028	8b f1		 mov	 esi, ecx
  0002a	89 75 f0	 mov	 DWORD PTR _this$1$[ebp], esi

; 377  : 	if (!m_pArray) return;

  0002d	8b 1e		 mov	 ebx, DWORD PTR [esi]
  0002f	85 db		 test	 ebx, ebx
  00031	0f 84 73 01 00
	00		 je	 $LN1@CTList

; 378  : 
; 379  : 	if (ISABLETODELETE(m_nObjAllocType)) {

  00037	83 7e 14 01	 cmp	 DWORD PTR [esi+20], 1
  0003b	8b 15 00 00 00
	00		 mov	 edx, DWORD PTR __imp__free
  00041	0f 8e 51 01 00
	00		 jle	 $LN95@CTList

; 335  : 		for (*pIdx; *pIdx < m_nMax; (*pIdx)++) {

  00047	8b 4e 10	 mov	 ecx, DWORD PTR [esi+16]

; 380  : 		int idx = 0;

  0004a	33 ff		 xor	 edi, edi

; 335  : 		for (*pIdx; *pIdx < m_nMax; (*pIdx)++) {

  0004c	85 c9		 test	 ecx, ecx
  0004e	0f 8e 44 01 00
	00		 jle	 $LN95@CTList

; 336  : 			if (m_pArray[*pIdx]) { return m_pArray[*pIdx]; }

  00054	8b c3		 mov	 eax, ebx
$LL26@CTList:
  00056	83 38 00	 cmp	 DWORD PTR [eax], 0
  00059	75 0d		 jne	 SHORT $LN82@CTList

; 335  : 		for (*pIdx; *pIdx < m_nMax; (*pIdx)++) {

  0005b	47		 inc	 edi
  0005c	83 c0 04	 add	 eax, 4
  0005f	3b f9		 cmp	 edi, ecx
  00061	7c f3		 jl	 SHORT $LL26@CTList

; 336  : 			if (m_pArray[*pIdx]) { return m_pArray[*pIdx]; }

  00063	e9 30 01 00 00	 jmp	 $LN95@CTList
$LN82@CTList:
  00068	8b 1c bb	 mov	 ebx, DWORD PTR [ebx+edi*4]

; 381  : 		T *p = getNext(&idx);
; 382  : 		while (p) {

  0006b	85 db		 test	 ebx, ebx
  0006d	0f 84 25 01 00
	00		 je	 $LN95@CTList
  00073	8b 0d 00 00 00
	00		 mov	 ecx, DWORD PTR __imp__CloseHandle@4
  00079	0f 1f 80 00 00
	00 00		 npad	 7
$LL2@CTList:

; 383  : 			idx++;
; 384  : 			switch (m_nObjAllocType) {

  00080	8b 46 14	 mov	 eax, DWORD PTR [esi+20]
  00083	47		 inc	 edi
  00084	83 c0 fe	 add	 eax, -2			; fffffffeH
  00087	83 f8 03	 cmp	 eax, 3
  0008a	0f 87 dc 00 00
	00		 ja	 $LN18@CTList
  00090	ff 24 85 00 00
	00 00		 jmp	 DWORD PTR $LN99@CTList[eax*4]
$LN8@CTList:
; File e:\infinia-library-3.0\com\src\comcore.cpp

; 66   : 	if (!m_stInfo.hTHID) return false;

  00097	8b 43 04	 mov	 eax, DWORD PTR [ebx+4]
  0009a	85 c0		 test	 eax, eax
  0009c	74 0d		 je	 SHORT $LN36@CTList

; 67   : 	int nStatus = 0; // for linux
; 68   : 	m_stInfo.bActive = false;
; 69   : 	THREAD_JOIN(m_stInfo.hTHID, (void **)&nStatus);

  0009e	50		 push	 eax
  0009f	c6 43 1c 00	 mov	 BYTE PTR [ebx+28], 0
  000a3	ff d1		 call	 ecx
  000a5	8b 0d 00 00 00
	00		 mov	 ecx, DWORD PTR __imp__CloseHandle@4
$LN36@CTList:
; File e:\infinia-library-3.0\com\include\com\win32\win32_mtsync.h

; 64   : 	  ~condition() { CloseHandle(m_event); }

  000ab	ff 73 0c	 push	 DWORD PTR [ebx+12]
  000ae	c7 43 08 00 00
	00 00		 mov	 DWORD PTR [ebx+8], OFFSET ??_7condition@win32@common@@6B@
  000b5	ff d1		 call	 ecx
  000b7	6a 28		 push	 40			; 00000028H
  000b9	53		 push	 ebx
; File e:\infinia-library-3.0\com\include\com\abstract_mtsync.h

; 72   : 	virtual ~abstract_condition() {}

  000ba	c7 43 08 00 00
	00 00		 mov	 DWORD PTR [ebx+8], OFFSET ??_7abstract_condition@common@@6B@
  000c1	e8 00 00 00 00	 call	 ??3@YAXPAXI@Z		; operator delete
; File e:\infinia-library-3.0\com\include\comtlist.h

; 385  : 				case eAlloc_Type_new		:	delete p; break;

  000c6	e9 98 00 00 00	 jmp	 $LN97@CTList
$LN9@CTList:

; 386  : 				case eAlloc_Type_alloc		:	free(p); break;

  000cb	53		 push	 ebx
  000cc	ff d2		 call	 edx
  000ce	83 c4 04	 add	 esp, 4
  000d1	e9 90 00 00 00	 jmp	 $LN98@CTList
$LN10@CTList:

; 387  : 				case eAlloc_Type_BufPool	:	gs_pMMgr->delBuf((char *)p, STRING_SIZE((TCHAR *)p)); break;

  000d6	8b d3		 mov	 edx, ebx
  000d8	8d 4a 01	 lea	 ecx, DWORD PTR [edx+1]
  000db	0f 1f 44 00 00	 npad	 5
$LL94@CTList:
  000e0	8a 02		 mov	 al, BYTE PTR [edx]
  000e2	42		 inc	 edx
  000e3	84 c0		 test	 al, al
  000e5	75 f9		 jne	 SHORT $LL94@CTList
  000e7	2b d1		 sub	 edx, ecx
; File e:\infinia-library-3.0\com\include\combufpool.h

; 51   : inline int getIndex(int s) { int m; union { double x; int b[2]; }; x = s; m = (b[1] >> 20) - 1023; return m + ((s&(s - (1 << m))) ? 1 : 0); }

  000e9	b8 01 00 00 00	 mov	 eax, 1
; File e:\infinia-library-3.0\com\include\comtlist.h

; 387  : 				case eAlloc_Type_BufPool	:	gs_pMMgr->delBuf((char *)p, STRING_SIZE((TCHAR *)p)); break;

  000ee	42		 inc	 edx
  000ef	66 0f 6e c2	 movd	 xmm0, edx
; File e:\infinia-library-3.0\com\include\combufpool.h

; 51   : inline int getIndex(int s) { int m; union { double x; int b[2]; }; x = s; m = (b[1] >> 20) - 1023; return m + ((s&(s - (1 << m))) ? 1 : 0); }

  000f3	f3 0f e6 c0	 cvtdq2pd xmm0, xmm0
  000f7	f2 0f 11 45 e8	 movsd	 QWORD PTR _$S1$2[ebp], xmm0
  000fc	8b 75 ec	 mov	 esi, DWORD PTR _$S1$2[ebp+4]
  000ff	c1 fe 14	 sar	 esi, 20			; 00000014H
  00102	81 ee ff 03 00
	00		 sub	 esi, 1023		; 000003ffH
  00108	8b ce		 mov	 ecx, esi
  0010a	d3 e0		 shl	 eax, cl
  0010c	8b ca		 mov	 ecx, edx
  0010e	2b c8		 sub	 ecx, eax
  00110	23 ca		 and	 ecx, edx
  00112	f7 d9		 neg	 ecx
  00114	1b c9		 sbb	 ecx, ecx
  00116	f7 d9		 neg	 ecx
  00118	03 ce		 add	 ecx, esi
; File e:\infinia-library-3.0\com\include\commemmanager.h

; 38   : 	inline void delBuf(char *pBuf, int nSize) { int nIdx = getIndex(nSize); delBufByIndex(pBuf, nIdx); }

  0011a	51		 push	 ecx
  0011b	8b 0d 00 00 00
	00		 mov	 ecx, DWORD PTR ?gs_pMMgr@@3PAVCMemManager@@A ; gs_pMMgr
  00121	53		 push	 ebx
  00122	e8 00 00 00 00	 call	 ?delBufByIndex@CMemManager@@QAEXPADH@Z ; CMemManager::delBufByIndex
; File e:\infinia-library-3.0\com\include\comtlist.h

; 387  : 				case eAlloc_Type_BufPool	:	gs_pMMgr->delBuf((char *)p, STRING_SIZE((TCHAR *)p)); break;

  00127	8b 75 f0	 mov	 esi, DWORD PTR _this$1$[ebp]
  0012a	eb 3a		 jmp	 SHORT $LN98@CTList
$LN11@CTList:
  0012c	68 00 00 00 00	 push	 OFFSET ??1CComThread@@QAE@XZ ; CComThread::~CComThread
  00131	ff 73 fc	 push	 DWORD PTR [ebx-4]
  00134	8d 73 fc	 lea	 esi, DWORD PTR [ebx-4]
  00137	c7 45 fc 00 00
	00 00		 mov	 DWORD PTR __$EHRec$[ebp+8], 0
  0013e	6a 28		 push	 40			; 00000028H
  00140	53		 push	 ebx
  00141	e8 00 00 00 00	 call	 ??_M@YGXPAXIIP6EX0@Z@Z
  00146	8b 06		 mov	 eax, DWORD PTR [esi]
  00148	8d 04 80	 lea	 eax, DWORD PTR [eax+eax*4]
  0014b	8d 04 c5 04 00
	00 00		 lea	 eax, DWORD PTR [eax*8+4]
  00152	50		 push	 eax
  00153	56		 push	 esi
  00154	e8 00 00 00 00	 call	 ??_V@YAXPAXI@Z		; operator delete[]
  00159	8b 75 f0	 mov	 esi, DWORD PTR _this$1$[ebp]
  0015c	c7 45 fc ff ff
	ff ff		 mov	 DWORD PTR __$EHRec$[ebp+8], -1
$LN97@CTList:
  00163	83 c4 08	 add	 esp, 8
$LN98@CTList:
  00166	8b 15 00 00 00
	00		 mov	 edx, DWORD PTR __imp__free
$LN18@CTList:

; 335  : 		for (*pIdx; *pIdx < m_nMax; (*pIdx)++) {

  0016c	8b 4e 10	 mov	 ecx, DWORD PTR [esi+16]
  0016f	3b f9		 cmp	 edi, ecx
  00171	7d 25		 jge	 SHORT $LN95@CTList

; 336  : 			if (m_pArray[*pIdx]) { return m_pArray[*pIdx]; }

  00173	8b 1e		 mov	 ebx, DWORD PTR [esi]
  00175	8d 04 bb	 lea	 eax, DWORD PTR [ebx+edi*4]
$LL76@CTList:
  00178	83 38 00	 cmp	 DWORD PTR [eax], 0
  0017b	75 0a		 jne	 SHORT $LN83@CTList

; 335  : 		for (*pIdx; *pIdx < m_nMax; (*pIdx)++) {

  0017d	47		 inc	 edi
  0017e	83 c0 04	 add	 eax, 4
  00181	3b f9		 cmp	 edi, ecx
  00183	7c f3		 jl	 SHORT $LL76@CTList
  00185	eb 11		 jmp	 SHORT $LN95@CTList
$LN83@CTList:

; 336  : 			if (m_pArray[*pIdx]) { return m_pArray[*pIdx]; }

  00187	8b 1c bb	 mov	 ebx, DWORD PTR [ebx+edi*4]

; 381  : 		T *p = getNext(&idx);
; 382  : 		while (p) {

  0018a	8b 0d 00 00 00
	00		 mov	 ecx, DWORD PTR __imp__CloseHandle@4
  00190	85 db		 test	 ebx, ebx
  00192	0f 85 e8 fe ff
	ff		 jne	 $LL2@CTList
$LN95@CTList:

; 388  : 				case eAlloc_Type_newArray	:	delete[] p; break;
; 389  : 				case eAlloc_Type_none		:	break;
; 390  : 				case eAlloc_Type_MemPool	:	break;
; 391  : 			}
; 392  : 			p = getNext(&idx);
; 393  : 		}
; 394  : 	}
; 395  : 
; 396  : 	if (m_pArray)	free(m_pArray);

  00198	8b 06		 mov	 eax, DWORD PTR [esi]
  0019a	85 c0		 test	 eax, eax
  0019c	74 06		 je	 SHORT $LN14@CTList
  0019e	50		 push	 eax
  0019f	ff d2		 call	 edx
  001a1	83 c4 04	 add	 esp, 4
$LN14@CTList:

; 397  : 	m_pArray = 0;

  001a4	c7 06 00 00 00
	00		 mov	 DWORD PTR [esi], 0
$LN1@CTList:

; 398  : }

  001aa	8b 4d f4	 mov	 ecx, DWORD PTR __$EHRec$[ebp]
  001ad	64 89 0d 00 00
	00 00		 mov	 DWORD PTR fs:0, ecx
  001b4	59		 pop	 ecx
  001b5	5f		 pop	 edi
  001b6	5e		 pop	 esi
  001b7	5b		 pop	 ebx
  001b8	8b e5		 mov	 esp, ebp
  001ba	5d		 pop	 ebp
  001bb	c3		 ret	 0
$LN99@CTList:
  001bc	00 00 00 00	 DD	 $LN8@CTList
  001c0	00 00 00 00	 DD	 $LN9@CTList
  001c4	00 00 00 00	 DD	 $LN10@CTList
  001c8	00 00 00 00	 DD	 $LN11@CTList
_TEXT	ENDS
;	COMDAT text$x
text$x	SEGMENT
__unwindfunclet$??1?$CTList@VCComThread@@@@QAE@XZ$5:
  00000	e8 00 00 00 00	 call	 ___std_terminate
  00005	c3		 ret	 0
__ehhandler$??1?$CTList@VCComThread@@@@QAE@XZ:
  00006	8b 54 24 08	 mov	 edx, DWORD PTR [esp+8]
  0000a	8d 42 0c	 lea	 eax, DWORD PTR [edx+12]
  0000d	8b 4a e4	 mov	 ecx, DWORD PTR [edx-28]
  00010	33 c8		 xor	 ecx, eax
  00012	e8 00 00 00 00	 call	 @__security_check_cookie@4
  00017	b8 00 00 00 00	 mov	 eax, OFFSET __ehfuncinfo$??1?$CTList@VCComThread@@@@QAE@XZ
  0001c	e9 00 00 00 00	 jmp	 ___CxxFrameHandler3
text$x	ENDS
??1?$CTList@VCComThread@@@@QAE@XZ ENDP			; CTList<CComThread>::~CTList<CComThread>
; Function compile flags: /Ogtp
; File e:\infinia-library-3.0\com\include\comtlist.h
;	COMDAT ??0?$CTList@VCComThread@@@@QAE@XZ
_TEXT	SEGMENT
??0?$CTList@VCComThread@@@@QAE@XZ PROC			; CTList<CComThread>::CTList<CComThread>, COMDAT
; _this$ = ecx

; 366  : 	m_pArray = NULL;

  00000	c7 01 00 00 00
	00		 mov	 DWORD PTR [ecx], 0

; 367  : 	m_nUse = 0;
; 368  : 	m_nLast = 0;
; 369  : 	m_nDelIdx = 0;
; 370  : 	m_nMax = 0;
; 371  : 	m_nObjAllocType = eAlloc_Type_none;
; 372  : }

  00006	8b c1		 mov	 eax, ecx
  00008	c7 41 04 00 00
	00 00		 mov	 DWORD PTR [ecx+4], 0
  0000f	c7 41 08 00 00
	00 00		 mov	 DWORD PTR [ecx+8], 0
  00016	c7 41 0c 00 00
	00 00		 mov	 DWORD PTR [ecx+12], 0
  0001d	c7 41 10 00 00
	00 00		 mov	 DWORD PTR [ecx+16], 0
  00024	c7 41 14 00 00
	00 00		 mov	 DWORD PTR [ecx+20], 0
  0002b	c3		 ret	 0
??0?$CTList@VCComThread@@@@QAE@XZ ENDP			; CTList<CComThread>::CTList<CComThread>
_TEXT	ENDS
; Function compile flags: /Ogtp
;	COMDAT ??_G?$CTList@VCScheduler@@@@QAEPAXI@Z
_TEXT	SEGMENT
___flags$ = 8						; size = 4
??_G?$CTList@VCScheduler@@@@QAEPAXI@Z PROC		; CTList<CScheduler>::`scalar deleting destructor', COMDAT
; _this$ = ecx
  00000	55		 push	 ebp
  00001	8b ec		 mov	 ebp, esp
  00003	56		 push	 esi
  00004	8b f1		 mov	 esi, ecx
  00006	e8 00 00 00 00	 call	 ??1?$CTList@VCScheduler@@@@QAE@XZ ; CTList<CScheduler>::~CTList<CScheduler>
  0000b	f6 45 08 01	 test	 BYTE PTR ___flags$[ebp], 1
  0000f	74 0b		 je	 SHORT $LN4@scalar
  00011	6a 18		 push	 24			; 00000018H
  00013	56		 push	 esi
  00014	e8 00 00 00 00	 call	 ??3@YAXPAXI@Z		; operator delete
  00019	83 c4 08	 add	 esp, 8
$LN4@scalar:
  0001c	8b c6		 mov	 eax, esi
  0001e	5e		 pop	 esi
  0001f	5d		 pop	 ebp
  00020	c2 04 00	 ret	 4
??_G?$CTList@VCScheduler@@@@QAEPAXI@Z ENDP		; CTList<CScheduler>::`scalar deleting destructor'
_TEXT	ENDS
; Function compile flags: /Ogtp
;	COMDAT ?__autoclassinit2@?$CTList@VCScheduler@@@@QAEXI@Z
_TEXT	SEGMENT
_classSize$ = 8						; size = 4
?__autoclassinit2@?$CTList@VCScheduler@@@@QAEXI@Z PROC	; CTList<CScheduler>::__autoclassinit2, COMDAT
; _this$ = ecx
  00000	55		 push	 ebp
  00001	8b ec		 mov	 ebp, esp
  00003	ff 75 08	 push	 DWORD PTR _classSize$[ebp]
  00006	6a 00		 push	 0
  00008	51		 push	 ecx
  00009	e8 00 00 00 00	 call	 _memset
  0000e	83 c4 0c	 add	 esp, 12			; 0000000cH
  00011	5d		 pop	 ebp
  00012	c2 04 00	 ret	 4
?__autoclassinit2@?$CTList@VCScheduler@@@@QAEXI@Z ENDP	; CTList<CScheduler>::__autoclassinit2
_TEXT	ENDS
; Function compile flags: /Ogtp
; File e:\infinia-library-3.0\com\include\comtlist.h
;	COMDAT ?_DEL@?$CTList@VCScheduler@@@@AAEXH@Z
_TEXT	SEGMENT
_i$ = 8							; size = 4
?_DEL@?$CTList@VCScheduler@@@@AAEXH@Z PROC		; CTList<CScheduler>::_DEL, COMDAT
; _this$ = ecx

; 360  : 	inline void _DEL(int i) { m_pArray[i] = 0; m_nUse--; m_nDelIdx = i; }

  00000	55		 push	 ebp
  00001	8b ec		 mov	 ebp, esp
  00003	8b 55 08	 mov	 edx, DWORD PTR _i$[ebp]
  00006	8b 01		 mov	 eax, DWORD PTR [ecx]
  00008	c7 04 90 00 00
	00 00		 mov	 DWORD PTR [eax+edx*4], 0
  0000f	ff 49 04	 dec	 DWORD PTR [ecx+4]
  00012	89 51 0c	 mov	 DWORD PTR [ecx+12], edx
  00015	5d		 pop	 ebp
  00016	c2 04 00	 ret	 4
?_DEL@?$CTList@VCScheduler@@@@AAEXH@Z ENDP		; CTList<CScheduler>::_DEL
_TEXT	ENDS
; Function compile flags: /Ogtp
; File e:\infinia-library-3.0\com\include\comtlist.h
;	COMDAT ?__alloc@?$CTList@VCScheduler@@@@AAEHH@Z
_TEXT	SEGMENT
_nMaxCount$ = 8						; size = 4
?__alloc@?$CTList@VCScheduler@@@@AAEHH@Z PROC		; CTList<CScheduler>::__alloc, COMDAT
; _this$ = ecx

; 402  : {

  00000	55		 push	 ebp
  00001	8b ec		 mov	 ebp, esp
  00003	56		 push	 esi
  00004	57		 push	 edi

; 403  : 	T** pList = (T**)calloc(nMaxCount, sizeof(T*));

  00005	6a 04		 push	 4
  00007	ff 75 08	 push	 DWORD PTR _nMaxCount$[ebp]
  0000a	8b f1		 mov	 esi, ecx
  0000c	ff 15 00 00 00
	00		 call	 DWORD PTR __imp__calloc
  00012	8b f8		 mov	 edi, eax
  00014	83 c4 08	 add	 esp, 8

; 404  : 	if (!pList) {

  00017	85 ff		 test	 edi, edi
  00019	75 1a		 jne	 SHORT $LN2@alloc

; 405  : 		_stprintf(g_szMessage, "pList calloc is NULL");

  0001b	68 00 00 00 00	 push	 OFFSET ??_C@_0BF@ENADEEIE@pList?5calloc?5is?5NULL?$AA@
  00020	68 00 00 00 00	 push	 OFFSET ?g_szMessage@@3PADA ; g_szMessage
  00025	e8 00 00 00 00	 call	 _sprintf
  0002a	83 c4 08	 add	 esp, 8

; 406  : 		return 0;

  0002d	33 c0		 xor	 eax, eax
  0002f	5f		 pop	 edi
  00030	5e		 pop	 esi

; 415  : }

  00031	5d		 pop	 ebp
  00032	c2 04 00	 ret	 4
$LN2@alloc:

; 407  : 	}
; 408  : 	//_stprintf(g_szMessage, _T("CTList::__alloc list m_nMaxCount[%d]"), nMaxCount);
; 409  : 	if (m_pArray) {

  00035	8b 0e		 mov	 ecx, DWORD PTR [esi]
  00037	85 c9		 test	 ecx, ecx
  00039	74 19		 je	 SHORT $LN3@alloc

; 410  : 		memcpy(pList, m_pArray, m_nMax * sizeof(T*));

  0003b	8b 46 10	 mov	 eax, DWORD PTR [esi+16]
  0003e	c1 e0 02	 shl	 eax, 2
  00041	50		 push	 eax
  00042	51		 push	 ecx
  00043	57		 push	 edi
  00044	e8 00 00 00 00	 call	 _memcpy

; 411  : 		free(m_pArray);

  00049	ff 36		 push	 DWORD PTR [esi]
  0004b	ff 15 00 00 00
	00		 call	 DWORD PTR __imp__free
  00051	83 c4 10	 add	 esp, 16			; 00000010H
$LN3@alloc:

; 412  : 	}
; 413  : 	m_pArray = pList;
; 414  : 	return nMaxCount;

  00054	8b 45 08	 mov	 eax, DWORD PTR _nMaxCount$[ebp]
  00057	89 3e		 mov	 DWORD PTR [esi], edi
  00059	5f		 pop	 edi
  0005a	5e		 pop	 esi

; 415  : }

  0005b	5d		 pop	 ebp
  0005c	c2 04 00	 ret	 4
?__alloc@?$CTList@VCScheduler@@@@AAEHH@Z ENDP		; CTList<CScheduler>::__alloc
_TEXT	ENDS
; Function compile flags: /Ogtp
; File e:\infinia-library-3.0\com\include\comtlist.h
;	COMDAT ?setObjAllocType@?$CTList@VCScheduler@@@@QAEXW4E_ALLOC_TYPE@@@Z
_TEXT	SEGMENT
_type$ = 8						; size = 4
?setObjAllocType@?$CTList@VCScheduler@@@@QAEXW4E_ALLOC_TYPE@@@Z PROC ; CTList<CScheduler>::setObjAllocType, COMDAT
; _this$ = ecx

; 350  : 	inline void setObjAllocType(E_ALLOC_TYPE type) { m_nObjAllocType = type; }

  00000	55		 push	 ebp
  00001	8b ec		 mov	 ebp, esp
  00003	8b 45 08	 mov	 eax, DWORD PTR _type$[ebp]
  00006	89 41 14	 mov	 DWORD PTR [ecx+20], eax
  00009	5d		 pop	 ebp
  0000a	c2 04 00	 ret	 4
?setObjAllocType@?$CTList@VCScheduler@@@@QAEXW4E_ALLOC_TYPE@@@Z ENDP ; CTList<CScheduler>::setObjAllocType
_TEXT	ENDS
; Function compile flags: /Ogtp
; File e:\infinia-library-3.0\com\include\comtlist.h
;	COMDAT ?size@?$CTList@VCScheduler@@@@QAEHXZ
_TEXT	SEGMENT
?size@?$CTList@VCScheduler@@@@QAEHXZ PROC		; CTList<CScheduler>::size, COMDAT
; _this$ = ecx

; 347  : 	inline int  size() { return m_nUse; }

  00000	8b 41 04	 mov	 eax, DWORD PTR [ecx+4]
  00003	c3		 ret	 0
?size@?$CTList@VCScheduler@@@@QAEHXZ ENDP		; CTList<CScheduler>::size
_TEXT	ENDS
; Function compile flags: /Ogtp
; File e:\infinia-library-3.0\com\include\comtlist.h
;	COMDAT ?getNext@?$CTList@VCScheduler@@@@QAEPAVCScheduler@@PAH@Z
_TEXT	SEGMENT
_pIdx$ = 8						; size = 4
?getNext@?$CTList@VCScheduler@@@@QAEPAVCScheduler@@PAH@Z PROC ; CTList<CScheduler>::getNext, COMDAT
; _this$ = ecx

; 334  : 	inline T* getNext(int *pIdx) {

  00000	55		 push	 ebp
  00001	8b ec		 mov	 ebp, esp
  00003	56		 push	 esi

; 335  : 		for (*pIdx; *pIdx < m_nMax; (*pIdx)++) {

  00004	8b 75 08	 mov	 esi, DWORD PTR _pIdx$[ebp]
  00007	8b d1		 mov	 edx, ecx
  00009	8b 06		 mov	 eax, DWORD PTR [esi]
  0000b	3b 42 10	 cmp	 eax, DWORD PTR [edx+16]
  0000e	7d 14		 jge	 SHORT $LN3@getNext
$LL4@getNext:

; 336  : 			if (m_pArray[*pIdx]) { return m_pArray[*pIdx]; }

  00010	8b 0e		 mov	 ecx, DWORD PTR [esi]
  00012	8b 02		 mov	 eax, DWORD PTR [edx]
  00014	83 3c 88 00	 cmp	 DWORD PTR [eax+ecx*4], 0
  00018	75 11		 jne	 SHORT $LN8@getNext

; 335  : 		for (*pIdx; *pIdx < m_nMax; (*pIdx)++) {

  0001a	8d 41 01	 lea	 eax, DWORD PTR [ecx+1]
  0001d	89 06		 mov	 DWORD PTR [esi], eax
  0001f	3b 42 10	 cmp	 eax, DWORD PTR [edx+16]
  00022	7c ec		 jl	 SHORT $LL4@getNext
$LN3@getNext:

; 337  : 		}
; 338  : 		return NULL;

  00024	33 c0		 xor	 eax, eax
  00026	5e		 pop	 esi

; 339  : 	}

  00027	5d		 pop	 ebp
  00028	c2 04 00	 ret	 4
$LN8@getNext:

; 336  : 			if (m_pArray[*pIdx]) { return m_pArray[*pIdx]; }

  0002b	8b 04 88	 mov	 eax, DWORD PTR [eax+ecx*4]
  0002e	5e		 pop	 esi

; 339  : 	}

  0002f	5d		 pop	 ebp
  00030	c2 04 00	 ret	 4
?getNext@?$CTList@VCScheduler@@@@QAEPAVCScheduler@@PAH@Z ENDP ; CTList<CScheduler>::getNext
_TEXT	ENDS
; Function compile flags: /Ogtp
; File e:\infinia-library-3.0\com\include\comtlist.h
; File e:\infinia-library-3.0\com\include\comtypes.h
; File e:\infinia-library-3.0\com\include\comtlist.h
;	COMDAT ?getObj@?$CTList@VCScheduler@@@@QAEPAVCScheduler@@H@Z
_TEXT	SEGMENT
_i$ = 8							; size = 4
?getObj@?$CTList@VCScheduler@@@@QAEPAVCScheduler@@H@Z PROC ; CTList<CScheduler>::getObj, COMDAT
; _this$ = ecx

; 332  : 	inline T* getObj(int i) { if (ISINCLUDE(i, m_nMax)) return m_pArray[i]; return NULL; }

  00000	55		 push	 ebp
  00001	8b ec		 mov	 ebp, esp
; File e:\infinia-library-3.0\com\include\comtypes.h

; 322  : inline bool ISINCLUDE(int i, int max) { if (0 <= i && i < max) return true; return false; }

  00003	8b 55 08	 mov	 edx, DWORD PTR _i$[ebp]
  00006	85 d2		 test	 edx, edx
  00008	78 0e		 js	 SHORT $LN2@getObj
  0000a	3b 51 10	 cmp	 edx, DWORD PTR [ecx+16]
  0000d	7d 09		 jge	 SHORT $LN2@getObj
; File e:\infinia-library-3.0\com\include\comtlist.h

; 332  : 	inline T* getObj(int i) { if (ISINCLUDE(i, m_nMax)) return m_pArray[i]; return NULL; }

  0000f	8b 01		 mov	 eax, DWORD PTR [ecx]
  00011	8b 04 90	 mov	 eax, DWORD PTR [eax+edx*4]
  00014	5d		 pop	 ebp
  00015	c2 04 00	 ret	 4
$LN2@getObj:
  00018	33 c0		 xor	 eax, eax
  0001a	5d		 pop	 ebp
  0001b	c2 04 00	 ret	 4
?getObj@?$CTList@VCScheduler@@@@QAEPAVCScheduler@@H@Z ENDP ; CTList<CScheduler>::getObj
_TEXT	ENDS
; Function compile flags: /Ogtp
; File e:\infinia-library-3.0\com\include\comtlist.h
; File e:\infinia-library-3.0\com\include\comtypes.h
; File e:\infinia-library-3.0\com\include\comtlist.h
;	COMDAT ?del@?$CTList@VCScheduler@@@@QAE_NH@Z
_TEXT	SEGMENT
_i$ = 8							; size = 4
?del@?$CTList@VCScheduler@@@@QAE_NH@Z PROC		; CTList<CScheduler>::del, COMDAT
; _this$ = ecx

; 523  : {

  00000	55		 push	 ebp
  00001	8b ec		 mov	 ebp, esp
; File e:\infinia-library-3.0\com\include\comtypes.h

; 322  : inline bool ISINCLUDE(int i, int max) { if (0 <= i && i < max) return true; return false; }

  00003	8b 55 08	 mov	 edx, DWORD PTR _i$[ebp]
  00006	85 d2		 test	 edx, edx
  00008	78 1a		 js	 SHORT $LN5@del
  0000a	3b 51 10	 cmp	 edx, DWORD PTR [ecx+16]
  0000d	7d 15		 jge	 SHORT $LN5@del
; File e:\infinia-library-3.0\com\include\comtlist.h

; 360  : 	inline void _DEL(int i) { m_pArray[i] = 0; m_nUse--; m_nDelIdx = i; }

  0000f	8b 01		 mov	 eax, DWORD PTR [ecx]
  00011	c7 04 90 00 00
	00 00		 mov	 DWORD PTR [eax+edx*4], 0

; 527  : 	}
; 528  : 	_DEL(i);
; 529  : 	//_stprintf(g_szMessage, _T("CMemList::del i[%d] m_nLast[%d] m_nCurCount[%d]"), i, m_nLast, m_nUse);
; 530  : 	return true;

  00018	b0 01		 mov	 al, 1

; 360  : 	inline void _DEL(int i) { m_pArray[i] = 0; m_nUse--; m_nDelIdx = i; }

  0001a	ff 49 04	 dec	 DWORD PTR [ecx+4]
  0001d	89 51 0c	 mov	 DWORD PTR [ecx+12], edx

; 531  : }

  00020	5d		 pop	 ebp
  00021	c2 04 00	 ret	 4
$LN5@del:

; 524  : 	if (!ISINCLUDE(i, m_nMax)) {
; 525  : 		_stprintf(g_szMessage, "i[%d] m_nMax[%d]", i, m_nMax);

  00024	ff 71 10	 push	 DWORD PTR [ecx+16]
  00027	52		 push	 edx
  00028	68 00 00 00 00	 push	 OFFSET ??_C@_0BB@GJFHJAKG@i?$FL?$CFd?$FN?5m_nMax?$FL?$CFd?$FN?$AA@
  0002d	68 00 00 00 00	 push	 OFFSET ?g_szMessage@@3PADA ; g_szMessage
  00032	e8 00 00 00 00	 call	 _sprintf
  00037	83 c4 10	 add	 esp, 16			; 00000010H

; 526  : 		return false;

  0003a	32 c0		 xor	 al, al

; 531  : }

  0003c	5d		 pop	 ebp
  0003d	c2 04 00	 ret	 4
?del@?$CTList@VCScheduler@@@@QAE_NH@Z ENDP		; CTList<CScheduler>::del
_TEXT	ENDS
; Function compile flags: /Ogtp
; File e:\infinia-library-3.0\com\include\comtlist.h
;	COMDAT ?push_back@?$CTList@VCScheduler@@@@QAE_NPAVCScheduler@@PAH@Z
_TEXT	SEGMENT
_Obj$ = 8						; size = 4
_pIdx$ = 12						; size = 4
?push_back@?$CTList@VCScheduler@@@@QAE_NPAVCScheduler@@PAH@Z PROC ; CTList<CScheduler>::push_back, COMDAT
; _this$ = ecx

; 472  : {

  00000	55		 push	 ebp
  00001	8b ec		 mov	 ebp, esp
  00003	53		 push	 ebx
  00004	56		 push	 esi
  00005	8b f1		 mov	 esi, ecx
  00007	57		 push	 edi

; 473  : 	int nIdx, i;
; 474  : 
; 475  : 	if (m_nUse >= m_nMax) {

  00008	8b 4e 10	 mov	 ecx, DWORD PTR [esi+16]
  0000b	39 4e 04	 cmp	 DWORD PTR [esi+4], ecx
  0000e	7c 38		 jl	 SHORT $LN5@push_back

; 476  : 		if (!__alloc(m_nMax + TLIST_ADD_SIZE)) return false;

  00010	8d 41 40	 lea	 eax, DWORD PTR [ecx+64]
  00013	8b ce		 mov	 ecx, esi
  00015	50		 push	 eax
  00016	e8 00 00 00 00	 call	 ?__alloc@?$CTList@VCScheduler@@@@AAEHH@Z ; CTList<CScheduler>::__alloc
  0001b	85 c0		 test	 eax, eax
  0001d	74 56		 je	 SHORT $LN3@push_back

; 477  : 		nIdx = m_nMax;

  0001f	8b 56 10	 mov	 edx, DWORD PTR [esi+16]

; 478  : 		m_nMax += TLIST_ADD_SIZE;

  00022	8d 42 40	 lea	 eax, DWORD PTR [edx+64]
  00025	89 46 10	 mov	 DWORD PTR [esi+16], eax
$ADD_SUCCESS$21:

; 495  : 
; 496  : ADD_SUCCESS:
; 497  : 	m_nUse++;
; 498  : 	m_pArray[nIdx] = Obj;

  00028	8b 0e		 mov	 ecx, DWORD PTR [esi]
  0002a	ff 46 04	 inc	 DWORD PTR [esi+4]
  0002d	8b 45 08	 mov	 eax, DWORD PTR _Obj$[ebp]
  00030	89 04 91	 mov	 DWORD PTR [ecx+edx*4], eax

; 499  : 	m_nLast++;

  00033	ff 46 08	 inc	 DWORD PTR [esi+8]

; 500  : 	//_stprintf(g_szMessage, _T("CMemList::add i[%d] m_nLast[%d] m_nCurCount[%d]"), nIdx, m_nLast, m_nUse);
; 501  : 	if (pIdx) *pIdx = nIdx;

  00036	8b 45 0c	 mov	 eax, DWORD PTR _pIdx$[ebp]
  00039	85 c0		 test	 eax, eax
  0003b	74 02		 je	 SHORT $LN13@push_back
  0003d	89 10		 mov	 DWORD PTR [eax], edx
$LN13@push_back:
  0003f	5f		 pop	 edi
  00040	5e		 pop	 esi

; 502  : 	return true;

  00041	b0 01		 mov	 al, 1
  00043	5b		 pop	 ebx

; 503  : }

  00044	5d		 pop	 ebp
  00045	c2 08 00	 ret	 8
$LN5@push_back:

; 479  : 		goto ADD_SUCCESS;
; 480  : 	}
; 481  : 
; 482  : 	if (!m_pArray[m_nLast]) { nIdx = m_nLast;  goto ADD_SUCCESS; }

  00048	8b 56 08	 mov	 edx, DWORD PTR [esi+8]
  0004b	8b 1e		 mov	 ebx, DWORD PTR [esi]
  0004d	83 3c 93 00	 cmp	 DWORD PTR [ebx+edx*4], 0
  00051	74 d5		 je	 SHORT $ADD_SUCCESS$21

; 483  : 
; 484  : 	nIdx = m_nLast;
; 485  : 	for (i = 0; i < m_nMax; i++)

  00053	33 c0		 xor	 eax, eax
  00055	8b fa		 mov	 edi, edx
  00057	85 c9		 test	 ecx, ecx
  00059	7e 1a		 jle	 SHORT $LN3@push_back
  0005b	0f 1f 44 00 00	 npad	 5
$LL4@push_back:
  00060	33 d2		 xor	 edx, edx
  00062	3b f9		 cmp	 edi, ecx
  00064	0f 4c d7	 cmovl	 edx, edi

; 486  : 	{
; 487  : 		if (nIdx >= m_nMax) nIdx = 0;
; 488  : 		if (!m_pArray[nIdx]) {

  00067	83 3c 93 00	 cmp	 DWORD PTR [ebx+edx*4], 0
  0006b	74 bb		 je	 SHORT $ADD_SUCCESS$21

; 489  : 			goto ADD_SUCCESS;
; 490  : 		}
; 491  : 		nIdx++;

  0006d	40		 inc	 eax
  0006e	8d 7a 01	 lea	 edi, DWORD PTR [edx+1]
  00071	3b c1		 cmp	 eax, ecx
  00073	7c eb		 jl	 SHORT $LL4@push_back
$LN3@push_back:
  00075	5f		 pop	 edi
  00076	5e		 pop	 esi

; 492  : 	}
; 493  : 	//_stprintf(m_szMessage, _T("add FAIL! m_nLast[%d] m_nCurCount[%d] m_nMax[%d]"), m_nLast, m_nUse, m_nMax);
; 494  : 	return false;

  00077	32 c0		 xor	 al, al
  00079	5b		 pop	 ebx

; 503  : }

  0007a	5d		 pop	 ebp
  0007b	c2 08 00	 ret	 8
?push_back@?$CTList@VCScheduler@@@@QAE_NPAVCScheduler@@PAH@Z ENDP ; CTList<CScheduler>::push_back
_TEXT	ENDS
; Function compile flags: /Ogtp
; File e:\infinia-library-3.0\com\include\comtlist.h
;	COMDAT ?alloc@?$CTList@VCScheduler@@@@QAEHHW4E_ALLOC_TYPE@@@Z
_TEXT	SEGMENT
_nMaxCount$ = 8						; size = 4
_type$ = 12						; size = 4
?alloc@?$CTList@VCScheduler@@@@QAEHHW4E_ALLOC_TYPE@@@Z PROC ; CTList<CScheduler>::alloc, COMDAT
; _this$ = ecx

; 326  : 	int alloc(int nMaxCount, E_ALLOC_TYPE type = eAlloc_Type_new) { m_nObjAllocType = type;  m_nMax = __alloc(nMaxCount); return m_nMax; }

  00000	55		 push	 ebp
  00001	8b ec		 mov	 ebp, esp
  00003	8b 45 0c	 mov	 eax, DWORD PTR _type$[ebp]
  00006	53		 push	 ebx
  00007	56		 push	 esi
  00008	57		 push	 edi

; 403  : 	T** pList = (T**)calloc(nMaxCount, sizeof(T*));

  00009	8b 7d 08	 mov	 edi, DWORD PTR _nMaxCount$[ebp]

; 326  : 	int alloc(int nMaxCount, E_ALLOC_TYPE type = eAlloc_Type_new) { m_nObjAllocType = type;  m_nMax = __alloc(nMaxCount); return m_nMax; }

  0000c	8b f1		 mov	 esi, ecx

; 403  : 	T** pList = (T**)calloc(nMaxCount, sizeof(T*));

  0000e	6a 04		 push	 4
  00010	57		 push	 edi

; 326  : 	int alloc(int nMaxCount, E_ALLOC_TYPE type = eAlloc_Type_new) { m_nObjAllocType = type;  m_nMax = __alloc(nMaxCount); return m_nMax; }

  00011	89 46 14	 mov	 DWORD PTR [esi+20], eax

; 403  : 	T** pList = (T**)calloc(nMaxCount, sizeof(T*));

  00014	ff 15 00 00 00
	00		 call	 DWORD PTR __imp__calloc
  0001a	8b d8		 mov	 ebx, eax
  0001c	83 c4 08	 add	 esp, 8

; 404  : 	if (!pList) {

  0001f	85 db		 test	 ebx, ebx
  00021	75 1e		 jne	 SHORT $LN4@alloc

; 405  : 		_stprintf(g_szMessage, "pList calloc is NULL");

  00023	68 00 00 00 00	 push	 OFFSET ??_C@_0BF@ENADEEIE@pList?5calloc?5is?5NULL?$AA@
  00028	68 00 00 00 00	 push	 OFFSET ?g_szMessage@@3PADA ; g_szMessage
  0002d	e8 00 00 00 00	 call	 _sprintf
  00032	83 c4 08	 add	 esp, 8

; 326  : 	int alloc(int nMaxCount, E_ALLOC_TYPE type = eAlloc_Type_new) { m_nObjAllocType = type;  m_nMax = __alloc(nMaxCount); return m_nMax; }

  00035	89 5e 10	 mov	 DWORD PTR [esi+16], ebx
  00038	33 c0		 xor	 eax, eax
  0003a	5f		 pop	 edi
  0003b	5e		 pop	 esi
  0003c	5b		 pop	 ebx
  0003d	5d		 pop	 ebp
  0003e	c2 08 00	 ret	 8
$LN4@alloc:

; 409  : 	if (m_pArray) {

  00041	8b 0e		 mov	 ecx, DWORD PTR [esi]
  00043	85 c9		 test	 ecx, ecx
  00045	74 19		 je	 SHORT $LN5@alloc

; 410  : 		memcpy(pList, m_pArray, m_nMax * sizeof(T*));

  00047	8b 46 10	 mov	 eax, DWORD PTR [esi+16]
  0004a	c1 e0 02	 shl	 eax, 2
  0004d	50		 push	 eax
  0004e	51		 push	 ecx
  0004f	53		 push	 ebx
  00050	e8 00 00 00 00	 call	 _memcpy

; 411  : 		free(m_pArray);

  00055	ff 36		 push	 DWORD PTR [esi]
  00057	ff 15 00 00 00
	00		 call	 DWORD PTR __imp__free
  0005d	83 c4 10	 add	 esp, 16			; 00000010H
$LN5@alloc:

; 326  : 	int alloc(int nMaxCount, E_ALLOC_TYPE type = eAlloc_Type_new) { m_nObjAllocType = type;  m_nMax = __alloc(nMaxCount); return m_nMax; }

  00060	89 7e 10	 mov	 DWORD PTR [esi+16], edi
  00063	8b c7		 mov	 eax, edi
  00065	5f		 pop	 edi

; 413  : 	m_pArray = pList;

  00066	89 1e		 mov	 DWORD PTR [esi], ebx
  00068	5e		 pop	 esi
  00069	5b		 pop	 ebx

; 326  : 	int alloc(int nMaxCount, E_ALLOC_TYPE type = eAlloc_Type_new) { m_nObjAllocType = type;  m_nMax = __alloc(nMaxCount); return m_nMax; }

  0006a	5d		 pop	 ebp
  0006b	c2 08 00	 ret	 8
?alloc@?$CTList@VCScheduler@@@@QAEHHW4E_ALLOC_TYPE@@@Z ENDP ; CTList<CScheduler>::alloc
_TEXT	ENDS
; Function compile flags: /Ogtp
; File e:\infinia-library-3.0\com\include\comtlist.h
; File e:\infinia-library-3.0\com\include\combufpool.h
; File e:\infinia-library-3.0\com\include\comtlist.h
; File e:\infinia-library-3.0\com\include\combufpool.h
; File e:\infinia-library-3.0\com\include\commemmanager.h
; File e:\infinia-library-3.0\com\include\comtlist.h
;	COMDAT ??1?$CTList@VCScheduler@@@@QAE@XZ
_TEXT	SEGMENT
_$S1$2 = -24						; size = 8
_this$1$ = -16						; size = 4
__$EHRec$ = -12						; size = 12
??1?$CTList@VCScheduler@@@@QAE@XZ PROC			; CTList<CScheduler>::~CTList<CScheduler>, COMDAT
; _this$ = ecx

; 376  : {

  00000	55		 push	 ebp
  00001	8b ec		 mov	 ebp, esp
  00003	6a ff		 push	 -1
  00005	68 00 00 00 00	 push	 __ehhandler$??1?$CTList@VCScheduler@@@@QAE@XZ
  0000a	64 a1 00 00 00
	00		 mov	 eax, DWORD PTR fs:0
  00010	50		 push	 eax
  00011	83 ec 0c	 sub	 esp, 12			; 0000000cH
  00014	53		 push	 ebx
  00015	56		 push	 esi
  00016	57		 push	 edi
  00017	a1 00 00 00 00	 mov	 eax, DWORD PTR ___security_cookie
  0001c	33 c5		 xor	 eax, ebp
  0001e	50		 push	 eax
  0001f	8d 45 f4	 lea	 eax, DWORD PTR __$EHRec$[ebp]
  00022	64 a3 00 00 00
	00		 mov	 DWORD PTR fs:0, eax
  00028	8b f1		 mov	 esi, ecx
  0002a	89 75 f0	 mov	 DWORD PTR _this$1$[ebp], esi

; 377  : 	if (!m_pArray) return;

  0002d	8b 1e		 mov	 ebx, DWORD PTR [esi]
  0002f	85 db		 test	 ebx, ebx
  00031	0f 84 45 01 00
	00		 je	 $LN1@CTList

; 378  : 
; 379  : 	if (ISABLETODELETE(m_nObjAllocType)) {

  00037	83 7e 14 01	 cmp	 DWORD PTR [esi+20], 1
  0003b	8b 15 00 00 00
	00		 mov	 edx, DWORD PTR __imp__free
  00041	0f 8e 23 01 00
	00		 jle	 $LN65@CTList

; 335  : 		for (*pIdx; *pIdx < m_nMax; (*pIdx)++) {

  00047	8b 4e 10	 mov	 ecx, DWORD PTR [esi+16]

; 380  : 		int idx = 0;

  0004a	33 ff		 xor	 edi, edi

; 335  : 		for (*pIdx; *pIdx < m_nMax; (*pIdx)++) {

  0004c	85 c9		 test	 ecx, ecx
  0004e	0f 8e 16 01 00
	00		 jle	 $LN65@CTList

; 336  : 			if (m_pArray[*pIdx]) { return m_pArray[*pIdx]; }

  00054	8b c3		 mov	 eax, ebx
$LL26@CTList:
  00056	83 38 00	 cmp	 DWORD PTR [eax], 0
  00059	75 0d		 jne	 SHORT $LN52@CTList

; 335  : 		for (*pIdx; *pIdx < m_nMax; (*pIdx)++) {

  0005b	47		 inc	 edi
  0005c	83 c0 04	 add	 eax, 4
  0005f	3b f9		 cmp	 edi, ecx
  00061	7c f3		 jl	 SHORT $LL26@CTList

; 336  : 			if (m_pArray[*pIdx]) { return m_pArray[*pIdx]; }

  00063	e9 02 01 00 00	 jmp	 $LN65@CTList
$LN52@CTList:
  00068	8b 1c bb	 mov	 ebx, DWORD PTR [ebx+edi*4]

; 381  : 		T *p = getNext(&idx);
; 382  : 		while (p) {

  0006b	85 db		 test	 ebx, ebx
  0006d	0f 84 f7 00 00
	00		 je	 $LN65@CTList
$LL2@CTList:

; 383  : 			idx++;
; 384  : 			switch (m_nObjAllocType) {

  00073	8b 46 14	 mov	 eax, DWORD PTR [esi+20]
  00076	47		 inc	 edi
  00077	83 c0 fe	 add	 eax, -2			; fffffffeH
  0007a	83 f8 03	 cmp	 eax, 3
  0007d	0f 87 bf 00 00
	00		 ja	 $LN18@CTList
  00083	ff 24 85 00 00
	00 00		 jmp	 DWORD PTR $LN69@CTList[eax*4]
$LN8@CTList:
  0008a	8b cb		 mov	 ecx, ebx
  0008c	e8 00 00 00 00	 call	 ??1CScheduler@@QAE@XZ	; CScheduler::~CScheduler
  00091	6a 38		 push	 56			; 00000038H
  00093	53		 push	 ebx
  00094	e8 00 00 00 00	 call	 ??3@YAXPAXI@Z		; operator delete

; 385  : 				case eAlloc_Type_new		:	delete p; break;

  00099	e9 9b 00 00 00	 jmp	 $LN67@CTList
$LN9@CTList:

; 386  : 				case eAlloc_Type_alloc		:	free(p); break;

  0009e	53		 push	 ebx
  0009f	ff d2		 call	 edx
  000a1	83 c4 04	 add	 esp, 4
  000a4	e9 93 00 00 00	 jmp	 $LN68@CTList
$LN10@CTList:

; 387  : 				case eAlloc_Type_BufPool	:	gs_pMMgr->delBuf((char *)p, STRING_SIZE((TCHAR *)p)); break;

  000a9	8b d3		 mov	 edx, ebx
  000ab	8d 4a 01	 lea	 ecx, DWORD PTR [edx+1]
  000ae	66 90		 npad	 2
$LL64@CTList:
  000b0	8a 02		 mov	 al, BYTE PTR [edx]
  000b2	42		 inc	 edx
  000b3	84 c0		 test	 al, al
  000b5	75 f9		 jne	 SHORT $LL64@CTList
  000b7	2b d1		 sub	 edx, ecx
; File e:\infinia-library-3.0\com\include\combufpool.h

; 51   : inline int getIndex(int s) { int m; union { double x; int b[2]; }; x = s; m = (b[1] >> 20) - 1023; return m + ((s&(s - (1 << m))) ? 1 : 0); }

  000b9	b8 01 00 00 00	 mov	 eax, 1
; File e:\infinia-library-3.0\com\include\comtlist.h

; 387  : 				case eAlloc_Type_BufPool	:	gs_pMMgr->delBuf((char *)p, STRING_SIZE((TCHAR *)p)); break;

  000be	42		 inc	 edx
  000bf	66 0f 6e c2	 movd	 xmm0, edx
; File e:\infinia-library-3.0\com\include\combufpool.h

; 51   : inline int getIndex(int s) { int m; union { double x; int b[2]; }; x = s; m = (b[1] >> 20) - 1023; return m + ((s&(s - (1 << m))) ? 1 : 0); }

  000c3	f3 0f e6 c0	 cvtdq2pd xmm0, xmm0
  000c7	f2 0f 11 45 e8	 movsd	 QWORD PTR _$S1$2[ebp], xmm0
  000cc	8b 75 ec	 mov	 esi, DWORD PTR _$S1$2[ebp+4]
  000cf	c1 fe 14	 sar	 esi, 20			; 00000014H
  000d2	81 ee ff 03 00
	00		 sub	 esi, 1023		; 000003ffH
  000d8	8b ce		 mov	 ecx, esi
  000da	d3 e0		 shl	 eax, cl
  000dc	8b ca		 mov	 ecx, edx
  000de	2b c8		 sub	 ecx, eax
  000e0	23 ca		 and	 ecx, edx
  000e2	f7 d9		 neg	 ecx
  000e4	1b c9		 sbb	 ecx, ecx
  000e6	f7 d9		 neg	 ecx
  000e8	03 ce		 add	 ecx, esi
; File e:\infinia-library-3.0\com\include\commemmanager.h

; 38   : 	inline void delBuf(char *pBuf, int nSize) { int nIdx = getIndex(nSize); delBufByIndex(pBuf, nIdx); }

  000ea	51		 push	 ecx
  000eb	8b 0d 00 00 00
	00		 mov	 ecx, DWORD PTR ?gs_pMMgr@@3PAVCMemManager@@A ; gs_pMMgr
  000f1	53		 push	 ebx
  000f2	e8 00 00 00 00	 call	 ?delBufByIndex@CMemManager@@QAEXPADH@Z ; CMemManager::delBufByIndex
; File e:\infinia-library-3.0\com\include\comtlist.h

; 387  : 				case eAlloc_Type_BufPool	:	gs_pMMgr->delBuf((char *)p, STRING_SIZE((TCHAR *)p)); break;

  000f7	8b 75 f0	 mov	 esi, DWORD PTR _this$1$[ebp]
  000fa	eb 40		 jmp	 SHORT $LN68@CTList
$LN11@CTList:
  000fc	68 00 00 00 00	 push	 OFFSET ??1CScheduler@@QAE@XZ ; CScheduler::~CScheduler
  00101	ff 73 fc	 push	 DWORD PTR [ebx-4]
  00104	8d 73 fc	 lea	 esi, DWORD PTR [ebx-4]
  00107	c7 45 fc 00 00
	00 00		 mov	 DWORD PTR __$EHRec$[ebp+8], 0
  0010e	6a 38		 push	 56			; 00000038H
  00110	53		 push	 ebx
  00111	e8 00 00 00 00	 call	 ??_M@YGXPAXIIP6EX0@Z@Z
  00116	8b 06		 mov	 eax, DWORD PTR [esi]
  00118	8d 0c c5 00 00
	00 00		 lea	 ecx, DWORD PTR [eax*8]
  0011f	2b c8		 sub	 ecx, eax
  00121	8d 04 cd 04 00
	00 00		 lea	 eax, DWORD PTR [ecx*8+4]
  00128	50		 push	 eax
  00129	56		 push	 esi
  0012a	e8 00 00 00 00	 call	 ??_V@YAXPAXI@Z		; operator delete[]
  0012f	8b 75 f0	 mov	 esi, DWORD PTR _this$1$[ebp]
  00132	c7 45 fc ff ff
	ff ff		 mov	 DWORD PTR __$EHRec$[ebp+8], -1
$LN67@CTList:
  00139	83 c4 08	 add	 esp, 8
$LN68@CTList:
  0013c	8b 15 00 00 00
	00		 mov	 edx, DWORD PTR __imp__free
$LN18@CTList:

; 335  : 		for (*pIdx; *pIdx < m_nMax; (*pIdx)++) {

  00142	8b 4e 10	 mov	 ecx, DWORD PTR [esi+16]
  00145	3b f9		 cmp	 edi, ecx
  00147	7d 21		 jge	 SHORT $LN65@CTList

; 336  : 			if (m_pArray[*pIdx]) { return m_pArray[*pIdx]; }

  00149	8b 1e		 mov	 ebx, DWORD PTR [esi]
  0014b	8d 04 bb	 lea	 eax, DWORD PTR [ebx+edi*4]
  0014e	66 90		 npad	 2
$LL46@CTList:
  00150	83 38 00	 cmp	 DWORD PTR [eax], 0
  00153	75 0a		 jne	 SHORT $LN53@CTList

; 335  : 		for (*pIdx; *pIdx < m_nMax; (*pIdx)++) {

  00155	47		 inc	 edi
  00156	83 c0 04	 add	 eax, 4
  00159	3b f9		 cmp	 edi, ecx
  0015b	7c f3		 jl	 SHORT $LL46@CTList
  0015d	eb 0b		 jmp	 SHORT $LN65@CTList
$LN53@CTList:

; 336  : 			if (m_pArray[*pIdx]) { return m_pArray[*pIdx]; }

  0015f	8b 1c bb	 mov	 ebx, DWORD PTR [ebx+edi*4]

; 381  : 		T *p = getNext(&idx);
; 382  : 		while (p) {

  00162	85 db		 test	 ebx, ebx
  00164	0f 85 09 ff ff
	ff		 jne	 $LL2@CTList
$LN65@CTList:

; 388  : 				case eAlloc_Type_newArray	:	delete[] p; break;
; 389  : 				case eAlloc_Type_none		:	break;
; 390  : 				case eAlloc_Type_MemPool	:	break;
; 391  : 			}
; 392  : 			p = getNext(&idx);
; 393  : 		}
; 394  : 	}
; 395  : 
; 396  : 	if (m_pArray)	free(m_pArray);

  0016a	8b 06		 mov	 eax, DWORD PTR [esi]
  0016c	85 c0		 test	 eax, eax
  0016e	74 06		 je	 SHORT $LN14@CTList
  00170	50		 push	 eax
  00171	ff d2		 call	 edx
  00173	83 c4 04	 add	 esp, 4
$LN14@CTList:

; 397  : 	m_pArray = 0;

  00176	c7 06 00 00 00
	00		 mov	 DWORD PTR [esi], 0
$LN1@CTList:

; 398  : }

  0017c	8b 4d f4	 mov	 ecx, DWORD PTR __$EHRec$[ebp]
  0017f	64 89 0d 00 00
	00 00		 mov	 DWORD PTR fs:0, ecx
  00186	59		 pop	 ecx
  00187	5f		 pop	 edi
  00188	5e		 pop	 esi
  00189	5b		 pop	 ebx
  0018a	8b e5		 mov	 esp, ebp
  0018c	5d		 pop	 ebp
  0018d	c3		 ret	 0
  0018e	66 90		 npad	 2
$LN69@CTList:
  00190	00 00 00 00	 DD	 $LN8@CTList
  00194	00 00 00 00	 DD	 $LN9@CTList
  00198	00 00 00 00	 DD	 $LN10@CTList
  0019c	00 00 00 00	 DD	 $LN11@CTList
_TEXT	ENDS
;	COMDAT text$x
text$x	SEGMENT
__unwindfunclet$??1?$CTList@VCScheduler@@@@QAE@XZ$1:
  00000	e8 00 00 00 00	 call	 ___std_terminate
  00005	c3		 ret	 0
__ehhandler$??1?$CTList@VCScheduler@@@@QAE@XZ:
  00006	8b 54 24 08	 mov	 edx, DWORD PTR [esp+8]
  0000a	8d 42 0c	 lea	 eax, DWORD PTR [edx+12]
  0000d	8b 4a e4	 mov	 ecx, DWORD PTR [edx-28]
  00010	33 c8		 xor	 ecx, eax
  00012	e8 00 00 00 00	 call	 @__security_check_cookie@4
  00017	b8 00 00 00 00	 mov	 eax, OFFSET __ehfuncinfo$??1?$CTList@VCScheduler@@@@QAE@XZ
  0001c	e9 00 00 00 00	 jmp	 ___CxxFrameHandler3
text$x	ENDS
??1?$CTList@VCScheduler@@@@QAE@XZ ENDP			; CTList<CScheduler>::~CTList<CScheduler>
; Function compile flags: /Ogtp
; File e:\infinia-library-3.0\com\include\comtlist.h
;	COMDAT ??0?$CTList@VCScheduler@@@@QAE@XZ
_TEXT	SEGMENT
??0?$CTList@VCScheduler@@@@QAE@XZ PROC			; CTList<CScheduler>::CTList<CScheduler>, COMDAT
; _this$ = ecx

; 366  : 	m_pArray = NULL;

  00000	c7 01 00 00 00
	00		 mov	 DWORD PTR [ecx], 0

; 367  : 	m_nUse = 0;
; 368  : 	m_nLast = 0;
; 369  : 	m_nDelIdx = 0;
; 370  : 	m_nMax = 0;
; 371  : 	m_nObjAllocType = eAlloc_Type_none;
; 372  : }

  00006	8b c1		 mov	 eax, ecx
  00008	c7 41 04 00 00
	00 00		 mov	 DWORD PTR [ecx+4], 0
  0000f	c7 41 08 00 00
	00 00		 mov	 DWORD PTR [ecx+8], 0
  00016	c7 41 0c 00 00
	00 00		 mov	 DWORD PTR [ecx+12], 0
  0001d	c7 41 10 00 00
	00 00		 mov	 DWORD PTR [ecx+16], 0
  00024	c7 41 14 00 00
	00 00		 mov	 DWORD PTR [ecx+20], 0
  0002b	c3		 ret	 0
??0?$CTList@VCScheduler@@@@QAE@XZ ENDP			; CTList<CScheduler>::CTList<CScheduler>
_TEXT	ENDS
; Function compile flags: /Ogtp
;	COMDAT ??_G?$CTList@VCSTLogger@@@@QAEPAXI@Z
_TEXT	SEGMENT
___flags$ = 8						; size = 4
??_G?$CTList@VCSTLogger@@@@QAEPAXI@Z PROC		; CTList<CSTLogger>::`scalar deleting destructor', COMDAT
; _this$ = ecx
  00000	55		 push	 ebp
  00001	8b ec		 mov	 ebp, esp
  00003	56		 push	 esi
  00004	8b f1		 mov	 esi, ecx
  00006	e8 00 00 00 00	 call	 ??1?$CTList@VCSTLogger@@@@QAE@XZ ; CTList<CSTLogger>::~CTList<CSTLogger>
  0000b	f6 45 08 01	 test	 BYTE PTR ___flags$[ebp], 1
  0000f	74 0b		 je	 SHORT $LN4@scalar
  00011	6a 18		 push	 24			; 00000018H
  00013	56		 push	 esi
  00014	e8 00 00 00 00	 call	 ??3@YAXPAXI@Z		; operator delete
  00019	83 c4 08	 add	 esp, 8
$LN4@scalar:
  0001c	8b c6		 mov	 eax, esi
  0001e	5e		 pop	 esi
  0001f	5d		 pop	 ebp
  00020	c2 04 00	 ret	 4
??_G?$CTList@VCSTLogger@@@@QAEPAXI@Z ENDP		; CTList<CSTLogger>::`scalar deleting destructor'
_TEXT	ENDS
; Function compile flags: /Ogtp
;	COMDAT ?__autoclassinit2@?$CTList@VCSTLogger@@@@QAEXI@Z
_TEXT	SEGMENT
_classSize$ = 8						; size = 4
?__autoclassinit2@?$CTList@VCSTLogger@@@@QAEXI@Z PROC	; CTList<CSTLogger>::__autoclassinit2, COMDAT
; _this$ = ecx
  00000	55		 push	 ebp
  00001	8b ec		 mov	 ebp, esp
  00003	ff 75 08	 push	 DWORD PTR _classSize$[ebp]
  00006	6a 00		 push	 0
  00008	51		 push	 ecx
  00009	e8 00 00 00 00	 call	 _memset
  0000e	83 c4 0c	 add	 esp, 12			; 0000000cH
  00011	5d		 pop	 ebp
  00012	c2 04 00	 ret	 4
?__autoclassinit2@?$CTList@VCSTLogger@@@@QAEXI@Z ENDP	; CTList<CSTLogger>::__autoclassinit2
_TEXT	ENDS
; Function compile flags: /Ogtp
; File e:\infinia-library-3.0\com\include\comtlist.h
;	COMDAT ?_DEL@?$CTList@VCSTLogger@@@@AAEXH@Z
_TEXT	SEGMENT
_i$ = 8							; size = 4
?_DEL@?$CTList@VCSTLogger@@@@AAEXH@Z PROC		; CTList<CSTLogger>::_DEL, COMDAT
; _this$ = ecx

; 360  : 	inline void _DEL(int i) { m_pArray[i] = 0; m_nUse--; m_nDelIdx = i; }

  00000	55		 push	 ebp
  00001	8b ec		 mov	 ebp, esp
  00003	8b 55 08	 mov	 edx, DWORD PTR _i$[ebp]
  00006	8b 01		 mov	 eax, DWORD PTR [ecx]
  00008	c7 04 90 00 00
	00 00		 mov	 DWORD PTR [eax+edx*4], 0
  0000f	ff 49 04	 dec	 DWORD PTR [ecx+4]
  00012	89 51 0c	 mov	 DWORD PTR [ecx+12], edx
  00015	5d		 pop	 ebp
  00016	c2 04 00	 ret	 4
?_DEL@?$CTList@VCSTLogger@@@@AAEXH@Z ENDP		; CTList<CSTLogger>::_DEL
_TEXT	ENDS
; Function compile flags: /Ogtp
; File e:\infinia-library-3.0\com\include\comtlist.h
;	COMDAT ?__alloc@?$CTList@VCSTLogger@@@@AAEHH@Z
_TEXT	SEGMENT
_nMaxCount$ = 8						; size = 4
?__alloc@?$CTList@VCSTLogger@@@@AAEHH@Z PROC		; CTList<CSTLogger>::__alloc, COMDAT
; _this$ = ecx

; 402  : {

  00000	55		 push	 ebp
  00001	8b ec		 mov	 ebp, esp
  00003	56		 push	 esi
  00004	57		 push	 edi

; 403  : 	T** pList = (T**)calloc(nMaxCount, sizeof(T*));

  00005	6a 04		 push	 4
  00007	ff 75 08	 push	 DWORD PTR _nMaxCount$[ebp]
  0000a	8b f1		 mov	 esi, ecx
  0000c	ff 15 00 00 00
	00		 call	 DWORD PTR __imp__calloc
  00012	8b f8		 mov	 edi, eax
  00014	83 c4 08	 add	 esp, 8

; 404  : 	if (!pList) {

  00017	85 ff		 test	 edi, edi
  00019	75 1a		 jne	 SHORT $LN2@alloc

; 405  : 		_stprintf(g_szMessage, "pList calloc is NULL");

  0001b	68 00 00 00 00	 push	 OFFSET ??_C@_0BF@ENADEEIE@pList?5calloc?5is?5NULL?$AA@
  00020	68 00 00 00 00	 push	 OFFSET ?g_szMessage@@3PADA ; g_szMessage
  00025	e8 00 00 00 00	 call	 _sprintf
  0002a	83 c4 08	 add	 esp, 8

; 406  : 		return 0;

  0002d	33 c0		 xor	 eax, eax
  0002f	5f		 pop	 edi
  00030	5e		 pop	 esi

; 415  : }

  00031	5d		 pop	 ebp
  00032	c2 04 00	 ret	 4
$LN2@alloc:

; 407  : 	}
; 408  : 	//_stprintf(g_szMessage, _T("CTList::__alloc list m_nMaxCount[%d]"), nMaxCount);
; 409  : 	if (m_pArray) {

  00035	8b 0e		 mov	 ecx, DWORD PTR [esi]
  00037	85 c9		 test	 ecx, ecx
  00039	74 19		 je	 SHORT $LN3@alloc

; 410  : 		memcpy(pList, m_pArray, m_nMax * sizeof(T*));

  0003b	8b 46 10	 mov	 eax, DWORD PTR [esi+16]
  0003e	c1 e0 02	 shl	 eax, 2
  00041	50		 push	 eax
  00042	51		 push	 ecx
  00043	57		 push	 edi
  00044	e8 00 00 00 00	 call	 _memcpy

; 411  : 		free(m_pArray);

  00049	ff 36		 push	 DWORD PTR [esi]
  0004b	ff 15 00 00 00
	00		 call	 DWORD PTR __imp__free
  00051	83 c4 10	 add	 esp, 16			; 00000010H
$LN3@alloc:

; 412  : 	}
; 413  : 	m_pArray = pList;
; 414  : 	return nMaxCount;

  00054	8b 45 08	 mov	 eax, DWORD PTR _nMaxCount$[ebp]
  00057	89 3e		 mov	 DWORD PTR [esi], edi
  00059	5f		 pop	 edi
  0005a	5e		 pop	 esi

; 415  : }

  0005b	5d		 pop	 ebp
  0005c	c2 04 00	 ret	 4
?__alloc@?$CTList@VCSTLogger@@@@AAEHH@Z ENDP		; CTList<CSTLogger>::__alloc
_TEXT	ENDS
; Function compile flags: /Ogtp
; File e:\infinia-library-3.0\com\include\comtlist.h
;	COMDAT ?setObjAllocType@?$CTList@VCSTLogger@@@@QAEXW4E_ALLOC_TYPE@@@Z
_TEXT	SEGMENT
_type$ = 8						; size = 4
?setObjAllocType@?$CTList@VCSTLogger@@@@QAEXW4E_ALLOC_TYPE@@@Z PROC ; CTList<CSTLogger>::setObjAllocType, COMDAT
; _this$ = ecx

; 350  : 	inline void setObjAllocType(E_ALLOC_TYPE type) { m_nObjAllocType = type; }

  00000	55		 push	 ebp
  00001	8b ec		 mov	 ebp, esp
  00003	8b 45 08	 mov	 eax, DWORD PTR _type$[ebp]
  00006	89 41 14	 mov	 DWORD PTR [ecx+20], eax
  00009	5d		 pop	 ebp
  0000a	c2 04 00	 ret	 4
?setObjAllocType@?$CTList@VCSTLogger@@@@QAEXW4E_ALLOC_TYPE@@@Z ENDP ; CTList<CSTLogger>::setObjAllocType
_TEXT	ENDS
; Function compile flags: /Ogtp
; File e:\infinia-library-3.0\com\include\comtlist.h
;	COMDAT ?size@?$CTList@VCSTLogger@@@@QAEHXZ
_TEXT	SEGMENT
?size@?$CTList@VCSTLogger@@@@QAEHXZ PROC		; CTList<CSTLogger>::size, COMDAT
; _this$ = ecx

; 347  : 	inline int  size() { return m_nUse; }

  00000	8b 41 04	 mov	 eax, DWORD PTR [ecx+4]
  00003	c3		 ret	 0
?size@?$CTList@VCSTLogger@@@@QAEHXZ ENDP		; CTList<CSTLogger>::size
_TEXT	ENDS
; Function compile flags: /Ogtp
; File e:\infinia-library-3.0\com\include\comtlist.h
;	COMDAT ?getNext@?$CTList@VCSTLogger@@@@QAEPAVCSTLogger@@PAH@Z
_TEXT	SEGMENT
_pIdx$ = 8						; size = 4
?getNext@?$CTList@VCSTLogger@@@@QAEPAVCSTLogger@@PAH@Z PROC ; CTList<CSTLogger>::getNext, COMDAT
; _this$ = ecx

; 334  : 	inline T* getNext(int *pIdx) {

  00000	55		 push	 ebp
  00001	8b ec		 mov	 ebp, esp
  00003	56		 push	 esi

; 335  : 		for (*pIdx; *pIdx < m_nMax; (*pIdx)++) {

  00004	8b 75 08	 mov	 esi, DWORD PTR _pIdx$[ebp]
  00007	8b d1		 mov	 edx, ecx
  00009	8b 06		 mov	 eax, DWORD PTR [esi]
  0000b	3b 42 10	 cmp	 eax, DWORD PTR [edx+16]
  0000e	7d 14		 jge	 SHORT $LN3@getNext
$LL4@getNext:

; 336  : 			if (m_pArray[*pIdx]) { return m_pArray[*pIdx]; }

  00010	8b 0e		 mov	 ecx, DWORD PTR [esi]
  00012	8b 02		 mov	 eax, DWORD PTR [edx]
  00014	83 3c 88 00	 cmp	 DWORD PTR [eax+ecx*4], 0
  00018	75 11		 jne	 SHORT $LN8@getNext

; 335  : 		for (*pIdx; *pIdx < m_nMax; (*pIdx)++) {

  0001a	8d 41 01	 lea	 eax, DWORD PTR [ecx+1]
  0001d	89 06		 mov	 DWORD PTR [esi], eax
  0001f	3b 42 10	 cmp	 eax, DWORD PTR [edx+16]
  00022	7c ec		 jl	 SHORT $LL4@getNext
$LN3@getNext:

; 337  : 		}
; 338  : 		return NULL;

  00024	33 c0		 xor	 eax, eax
  00026	5e		 pop	 esi

; 339  : 	}

  00027	5d		 pop	 ebp
  00028	c2 04 00	 ret	 4
$LN8@getNext:

; 336  : 			if (m_pArray[*pIdx]) { return m_pArray[*pIdx]; }

  0002b	8b 04 88	 mov	 eax, DWORD PTR [eax+ecx*4]
  0002e	5e		 pop	 esi

; 339  : 	}

  0002f	5d		 pop	 ebp
  00030	c2 04 00	 ret	 4
?getNext@?$CTList@VCSTLogger@@@@QAEPAVCSTLogger@@PAH@Z ENDP ; CTList<CSTLogger>::getNext
_TEXT	ENDS
; Function compile flags: /Ogtp
; File e:\infinia-library-3.0\com\include\comtlist.h
; File e:\infinia-library-3.0\com\include\comtypes.h
; File e:\infinia-library-3.0\com\include\comtlist.h
;	COMDAT ?getObj@?$CTList@VCSTLogger@@@@QAEPAVCSTLogger@@H@Z
_TEXT	SEGMENT
_i$ = 8							; size = 4
?getObj@?$CTList@VCSTLogger@@@@QAEPAVCSTLogger@@H@Z PROC ; CTList<CSTLogger>::getObj, COMDAT
; _this$ = ecx

; 332  : 	inline T* getObj(int i) { if (ISINCLUDE(i, m_nMax)) return m_pArray[i]; return NULL; }

  00000	55		 push	 ebp
  00001	8b ec		 mov	 ebp, esp
; File e:\infinia-library-3.0\com\include\comtypes.h

; 322  : inline bool ISINCLUDE(int i, int max) { if (0 <= i && i < max) return true; return false; }

  00003	8b 55 08	 mov	 edx, DWORD PTR _i$[ebp]
  00006	85 d2		 test	 edx, edx
  00008	78 0e		 js	 SHORT $LN2@getObj
  0000a	3b 51 10	 cmp	 edx, DWORD PTR [ecx+16]
  0000d	7d 09		 jge	 SHORT $LN2@getObj
; File e:\infinia-library-3.0\com\include\comtlist.h

; 332  : 	inline T* getObj(int i) { if (ISINCLUDE(i, m_nMax)) return m_pArray[i]; return NULL; }

  0000f	8b 01		 mov	 eax, DWORD PTR [ecx]
  00011	8b 04 90	 mov	 eax, DWORD PTR [eax+edx*4]
  00014	5d		 pop	 ebp
  00015	c2 04 00	 ret	 4
$LN2@getObj:
  00018	33 c0		 xor	 eax, eax
  0001a	5d		 pop	 ebp
  0001b	c2 04 00	 ret	 4
?getObj@?$CTList@VCSTLogger@@@@QAEPAVCSTLogger@@H@Z ENDP ; CTList<CSTLogger>::getObj
_TEXT	ENDS
; Function compile flags: /Ogtp
; File e:\infinia-library-3.0\com\include\comtlist.h
; File e:\infinia-library-3.0\com\include\comtypes.h
; File e:\infinia-library-3.0\com\include\comtlist.h
;	COMDAT ?del@?$CTList@VCSTLogger@@@@QAE_NH@Z
_TEXT	SEGMENT
_i$ = 8							; size = 4
?del@?$CTList@VCSTLogger@@@@QAE_NH@Z PROC		; CTList<CSTLogger>::del, COMDAT
; _this$ = ecx

; 523  : {

  00000	55		 push	 ebp
  00001	8b ec		 mov	 ebp, esp
; File e:\infinia-library-3.0\com\include\comtypes.h

; 322  : inline bool ISINCLUDE(int i, int max) { if (0 <= i && i < max) return true; return false; }

  00003	8b 55 08	 mov	 edx, DWORD PTR _i$[ebp]
  00006	85 d2		 test	 edx, edx
  00008	78 1a		 js	 SHORT $LN5@del
  0000a	3b 51 10	 cmp	 edx, DWORD PTR [ecx+16]
  0000d	7d 15		 jge	 SHORT $LN5@del
; File e:\infinia-library-3.0\com\include\comtlist.h

; 360  : 	inline void _DEL(int i) { m_pArray[i] = 0; m_nUse--; m_nDelIdx = i; }

  0000f	8b 01		 mov	 eax, DWORD PTR [ecx]
  00011	c7 04 90 00 00
	00 00		 mov	 DWORD PTR [eax+edx*4], 0

; 527  : 	}
; 528  : 	_DEL(i);
; 529  : 	//_stprintf(g_szMessage, _T("CMemList::del i[%d] m_nLast[%d] m_nCurCount[%d]"), i, m_nLast, m_nUse);
; 530  : 	return true;

  00018	b0 01		 mov	 al, 1

; 360  : 	inline void _DEL(int i) { m_pArray[i] = 0; m_nUse--; m_nDelIdx = i; }

  0001a	ff 49 04	 dec	 DWORD PTR [ecx+4]
  0001d	89 51 0c	 mov	 DWORD PTR [ecx+12], edx

; 531  : }

  00020	5d		 pop	 ebp
  00021	c2 04 00	 ret	 4
$LN5@del:

; 524  : 	if (!ISINCLUDE(i, m_nMax)) {
; 525  : 		_stprintf(g_szMessage, "i[%d] m_nMax[%d]", i, m_nMax);

  00024	ff 71 10	 push	 DWORD PTR [ecx+16]
  00027	52		 push	 edx
  00028	68 00 00 00 00	 push	 OFFSET ??_C@_0BB@GJFHJAKG@i?$FL?$CFd?$FN?5m_nMax?$FL?$CFd?$FN?$AA@
  0002d	68 00 00 00 00	 push	 OFFSET ?g_szMessage@@3PADA ; g_szMessage
  00032	e8 00 00 00 00	 call	 _sprintf
  00037	83 c4 10	 add	 esp, 16			; 00000010H

; 526  : 		return false;

  0003a	32 c0		 xor	 al, al

; 531  : }

  0003c	5d		 pop	 ebp
  0003d	c2 04 00	 ret	 4
?del@?$CTList@VCSTLogger@@@@QAE_NH@Z ENDP		; CTList<CSTLogger>::del
_TEXT	ENDS
; Function compile flags: /Ogtp
; File e:\infinia-library-3.0\com\include\comtlist.h
;	COMDAT ?push_back@?$CTList@VCSTLogger@@@@QAE_NPAVCSTLogger@@PAH@Z
_TEXT	SEGMENT
_Obj$ = 8						; size = 4
_pIdx$ = 12						; size = 4
?push_back@?$CTList@VCSTLogger@@@@QAE_NPAVCSTLogger@@PAH@Z PROC ; CTList<CSTLogger>::push_back, COMDAT
; _this$ = ecx

; 472  : {

  00000	55		 push	 ebp
  00001	8b ec		 mov	 ebp, esp
  00003	53		 push	 ebx
  00004	56		 push	 esi
  00005	8b f1		 mov	 esi, ecx
  00007	57		 push	 edi

; 473  : 	int nIdx, i;
; 474  : 
; 475  : 	if (m_nUse >= m_nMax) {

  00008	8b 4e 10	 mov	 ecx, DWORD PTR [esi+16]
  0000b	39 4e 04	 cmp	 DWORD PTR [esi+4], ecx
  0000e	7c 38		 jl	 SHORT $LN5@push_back

; 476  : 		if (!__alloc(m_nMax + TLIST_ADD_SIZE)) return false;

  00010	8d 41 40	 lea	 eax, DWORD PTR [ecx+64]
  00013	8b ce		 mov	 ecx, esi
  00015	50		 push	 eax
  00016	e8 00 00 00 00	 call	 ?__alloc@?$CTList@VCSTLogger@@@@AAEHH@Z ; CTList<CSTLogger>::__alloc
  0001b	85 c0		 test	 eax, eax
  0001d	74 56		 je	 SHORT $LN3@push_back

; 477  : 		nIdx = m_nMax;

  0001f	8b 56 10	 mov	 edx, DWORD PTR [esi+16]

; 478  : 		m_nMax += TLIST_ADD_SIZE;

  00022	8d 42 40	 lea	 eax, DWORD PTR [edx+64]
  00025	89 46 10	 mov	 DWORD PTR [esi+16], eax
$ADD_SUCCESS$21:

; 495  : 
; 496  : ADD_SUCCESS:
; 497  : 	m_nUse++;
; 498  : 	m_pArray[nIdx] = Obj;

  00028	8b 0e		 mov	 ecx, DWORD PTR [esi]
  0002a	ff 46 04	 inc	 DWORD PTR [esi+4]
  0002d	8b 45 08	 mov	 eax, DWORD PTR _Obj$[ebp]
  00030	89 04 91	 mov	 DWORD PTR [ecx+edx*4], eax

; 499  : 	m_nLast++;

  00033	ff 46 08	 inc	 DWORD PTR [esi+8]

; 500  : 	//_stprintf(g_szMessage, _T("CMemList::add i[%d] m_nLast[%d] m_nCurCount[%d]"), nIdx, m_nLast, m_nUse);
; 501  : 	if (pIdx) *pIdx = nIdx;

  00036	8b 45 0c	 mov	 eax, DWORD PTR _pIdx$[ebp]
  00039	85 c0		 test	 eax, eax
  0003b	74 02		 je	 SHORT $LN13@push_back
  0003d	89 10		 mov	 DWORD PTR [eax], edx
$LN13@push_back:
  0003f	5f		 pop	 edi
  00040	5e		 pop	 esi

; 502  : 	return true;

  00041	b0 01		 mov	 al, 1
  00043	5b		 pop	 ebx

; 503  : }

  00044	5d		 pop	 ebp
  00045	c2 08 00	 ret	 8
$LN5@push_back:

; 479  : 		goto ADD_SUCCESS;
; 480  : 	}
; 481  : 
; 482  : 	if (!m_pArray[m_nLast]) { nIdx = m_nLast;  goto ADD_SUCCESS; }

  00048	8b 56 08	 mov	 edx, DWORD PTR [esi+8]
  0004b	8b 1e		 mov	 ebx, DWORD PTR [esi]
  0004d	83 3c 93 00	 cmp	 DWORD PTR [ebx+edx*4], 0
  00051	74 d5		 je	 SHORT $ADD_SUCCESS$21

; 483  : 
; 484  : 	nIdx = m_nLast;
; 485  : 	for (i = 0; i < m_nMax; i++)

  00053	33 c0		 xor	 eax, eax
  00055	8b fa		 mov	 edi, edx
  00057	85 c9		 test	 ecx, ecx
  00059	7e 1a		 jle	 SHORT $LN3@push_back
  0005b	0f 1f 44 00 00	 npad	 5
$LL4@push_back:
  00060	33 d2		 xor	 edx, edx
  00062	3b f9		 cmp	 edi, ecx
  00064	0f 4c d7	 cmovl	 edx, edi

; 486  : 	{
; 487  : 		if (nIdx >= m_nMax) nIdx = 0;
; 488  : 		if (!m_pArray[nIdx]) {

  00067	83 3c 93 00	 cmp	 DWORD PTR [ebx+edx*4], 0
  0006b	74 bb		 je	 SHORT $ADD_SUCCESS$21

; 489  : 			goto ADD_SUCCESS;
; 490  : 		}
; 491  : 		nIdx++;

  0006d	40		 inc	 eax
  0006e	8d 7a 01	 lea	 edi, DWORD PTR [edx+1]
  00071	3b c1		 cmp	 eax, ecx
  00073	7c eb		 jl	 SHORT $LL4@push_back
$LN3@push_back:
  00075	5f		 pop	 edi
  00076	5e		 pop	 esi

; 492  : 	}
; 493  : 	//_stprintf(m_szMessage, _T("add FAIL! m_nLast[%d] m_nCurCount[%d] m_nMax[%d]"), m_nLast, m_nUse, m_nMax);
; 494  : 	return false;

  00077	32 c0		 xor	 al, al
  00079	5b		 pop	 ebx

; 503  : }

  0007a	5d		 pop	 ebp
  0007b	c2 08 00	 ret	 8
?push_back@?$CTList@VCSTLogger@@@@QAE_NPAVCSTLogger@@PAH@Z ENDP ; CTList<CSTLogger>::push_back
_TEXT	ENDS
; Function compile flags: /Ogtp
; File e:\infinia-library-3.0\com\include\comtlist.h
;	COMDAT ?alloc@?$CTList@VCSTLogger@@@@QAEHHW4E_ALLOC_TYPE@@@Z
_TEXT	SEGMENT
_nMaxCount$ = 8						; size = 4
_type$ = 12						; size = 4
?alloc@?$CTList@VCSTLogger@@@@QAEHHW4E_ALLOC_TYPE@@@Z PROC ; CTList<CSTLogger>::alloc, COMDAT
; _this$ = ecx

; 326  : 	int alloc(int nMaxCount, E_ALLOC_TYPE type = eAlloc_Type_new) { m_nObjAllocType = type;  m_nMax = __alloc(nMaxCount); return m_nMax; }

  00000	55		 push	 ebp
  00001	8b ec		 mov	 ebp, esp
  00003	8b 45 0c	 mov	 eax, DWORD PTR _type$[ebp]
  00006	53		 push	 ebx
  00007	56		 push	 esi
  00008	57		 push	 edi

; 403  : 	T** pList = (T**)calloc(nMaxCount, sizeof(T*));

  00009	8b 7d 08	 mov	 edi, DWORD PTR _nMaxCount$[ebp]

; 326  : 	int alloc(int nMaxCount, E_ALLOC_TYPE type = eAlloc_Type_new) { m_nObjAllocType = type;  m_nMax = __alloc(nMaxCount); return m_nMax; }

  0000c	8b f1		 mov	 esi, ecx

; 403  : 	T** pList = (T**)calloc(nMaxCount, sizeof(T*));

  0000e	6a 04		 push	 4
  00010	57		 push	 edi

; 326  : 	int alloc(int nMaxCount, E_ALLOC_TYPE type = eAlloc_Type_new) { m_nObjAllocType = type;  m_nMax = __alloc(nMaxCount); return m_nMax; }

  00011	89 46 14	 mov	 DWORD PTR [esi+20], eax

; 403  : 	T** pList = (T**)calloc(nMaxCount, sizeof(T*));

  00014	ff 15 00 00 00
	00		 call	 DWORD PTR __imp__calloc
  0001a	8b d8		 mov	 ebx, eax
  0001c	83 c4 08	 add	 esp, 8

; 404  : 	if (!pList) {

  0001f	85 db		 test	 ebx, ebx
  00021	75 1e		 jne	 SHORT $LN4@alloc

; 405  : 		_stprintf(g_szMessage, "pList calloc is NULL");

  00023	68 00 00 00 00	 push	 OFFSET ??_C@_0BF@ENADEEIE@pList?5calloc?5is?5NULL?$AA@
  00028	68 00 00 00 00	 push	 OFFSET ?g_szMessage@@3PADA ; g_szMessage
  0002d	e8 00 00 00 00	 call	 _sprintf
  00032	83 c4 08	 add	 esp, 8

; 326  : 	int alloc(int nMaxCount, E_ALLOC_TYPE type = eAlloc_Type_new) { m_nObjAllocType = type;  m_nMax = __alloc(nMaxCount); return m_nMax; }

  00035	89 5e 10	 mov	 DWORD PTR [esi+16], ebx
  00038	33 c0		 xor	 eax, eax
  0003a	5f		 pop	 edi
  0003b	5e		 pop	 esi
  0003c	5b		 pop	 ebx
  0003d	5d		 pop	 ebp
  0003e	c2 08 00	 ret	 8
$LN4@alloc:

; 409  : 	if (m_pArray) {

  00041	8b 0e		 mov	 ecx, DWORD PTR [esi]
  00043	85 c9		 test	 ecx, ecx
  00045	74 19		 je	 SHORT $LN5@alloc

; 410  : 		memcpy(pList, m_pArray, m_nMax * sizeof(T*));

  00047	8b 46 10	 mov	 eax, DWORD PTR [esi+16]
  0004a	c1 e0 02	 shl	 eax, 2
  0004d	50		 push	 eax
  0004e	51		 push	 ecx
  0004f	53		 push	 ebx
  00050	e8 00 00 00 00	 call	 _memcpy

; 411  : 		free(m_pArray);

  00055	ff 36		 push	 DWORD PTR [esi]
  00057	ff 15 00 00 00
	00		 call	 DWORD PTR __imp__free
  0005d	83 c4 10	 add	 esp, 16			; 00000010H
$LN5@alloc:

; 326  : 	int alloc(int nMaxCount, E_ALLOC_TYPE type = eAlloc_Type_new) { m_nObjAllocType = type;  m_nMax = __alloc(nMaxCount); return m_nMax; }

  00060	89 7e 10	 mov	 DWORD PTR [esi+16], edi
  00063	8b c7		 mov	 eax, edi
  00065	5f		 pop	 edi

; 413  : 	m_pArray = pList;

  00066	89 1e		 mov	 DWORD PTR [esi], ebx
  00068	5e		 pop	 esi
  00069	5b		 pop	 ebx

; 326  : 	int alloc(int nMaxCount, E_ALLOC_TYPE type = eAlloc_Type_new) { m_nObjAllocType = type;  m_nMax = __alloc(nMaxCount); return m_nMax; }

  0006a	5d		 pop	 ebp
  0006b	c2 08 00	 ret	 8
?alloc@?$CTList@VCSTLogger@@@@QAEHHW4E_ALLOC_TYPE@@@Z ENDP ; CTList<CSTLogger>::alloc
_TEXT	ENDS
; Function compile flags: /Ogtp
; File e:\infinia-library-3.0\com\include\comtlist.h
; File e:\infinia-library-3.0\com\include\combufpool.h
; File e:\infinia-library-3.0\com\include\comtlist.h
; File e:\infinia-library-3.0\com\include\combufpool.h
; File e:\infinia-library-3.0\com\include\commemmanager.h
; File e:\infinia-library-3.0\com\include\comtlist.h
;	COMDAT ??1?$CTList@VCSTLogger@@@@QAE@XZ
_TEXT	SEGMENT
_$S1$2 = -24						; size = 8
_this$1$ = -16						; size = 4
__$EHRec$ = -12						; size = 12
??1?$CTList@VCSTLogger@@@@QAE@XZ PROC			; CTList<CSTLogger>::~CTList<CSTLogger>, COMDAT
; _this$ = ecx

; 376  : {

  00000	55		 push	 ebp
  00001	8b ec		 mov	 ebp, esp
  00003	6a ff		 push	 -1
  00005	68 00 00 00 00	 push	 __ehhandler$??1?$CTList@VCSTLogger@@@@QAE@XZ
  0000a	64 a1 00 00 00
	00		 mov	 eax, DWORD PTR fs:0
  00010	50		 push	 eax
  00011	83 ec 0c	 sub	 esp, 12			; 0000000cH
  00014	53		 push	 ebx
  00015	56		 push	 esi
  00016	57		 push	 edi
  00017	a1 00 00 00 00	 mov	 eax, DWORD PTR ___security_cookie
  0001c	33 c5		 xor	 eax, ebp
  0001e	50		 push	 eax
  0001f	8d 45 f4	 lea	 eax, DWORD PTR __$EHRec$[ebp]
  00022	64 a3 00 00 00
	00		 mov	 DWORD PTR fs:0, eax
  00028	8b f1		 mov	 esi, ecx
  0002a	89 75 f0	 mov	 DWORD PTR _this$1$[ebp], esi

; 377  : 	if (!m_pArray) return;

  0002d	8b 1e		 mov	 ebx, DWORD PTR [esi]
  0002f	85 db		 test	 ebx, ebx
  00031	0f 84 3c 01 00
	00		 je	 $LN1@CTList

; 378  : 
; 379  : 	if (ISABLETODELETE(m_nObjAllocType)) {

  00037	83 7e 14 01	 cmp	 DWORD PTR [esi+20], 1
  0003b	8b 15 00 00 00
	00		 mov	 edx, DWORD PTR __imp__free
  00041	0f 8e 1a 01 00
	00		 jle	 $LN65@CTList

; 335  : 		for (*pIdx; *pIdx < m_nMax; (*pIdx)++) {

  00047	8b 4e 10	 mov	 ecx, DWORD PTR [esi+16]

; 380  : 		int idx = 0;

  0004a	33 ff		 xor	 edi, edi

; 335  : 		for (*pIdx; *pIdx < m_nMax; (*pIdx)++) {

  0004c	85 c9		 test	 ecx, ecx
  0004e	0f 8e 0d 01 00
	00		 jle	 $LN65@CTList

; 336  : 			if (m_pArray[*pIdx]) { return m_pArray[*pIdx]; }

  00054	8b c3		 mov	 eax, ebx
$LL26@CTList:
  00056	83 38 00	 cmp	 DWORD PTR [eax], 0
  00059	75 0d		 jne	 SHORT $LN52@CTList

; 335  : 		for (*pIdx; *pIdx < m_nMax; (*pIdx)++) {

  0005b	47		 inc	 edi
  0005c	83 c0 04	 add	 eax, 4
  0005f	3b f9		 cmp	 edi, ecx
  00061	7c f3		 jl	 SHORT $LL26@CTList

; 336  : 			if (m_pArray[*pIdx]) { return m_pArray[*pIdx]; }

  00063	e9 f9 00 00 00	 jmp	 $LN65@CTList
$LN52@CTList:
  00068	8b 1c bb	 mov	 ebx, DWORD PTR [ebx+edi*4]

; 381  : 		T *p = getNext(&idx);
; 382  : 		while (p) {

  0006b	85 db		 test	 ebx, ebx
  0006d	0f 84 ee 00 00
	00		 je	 $LN65@CTList
$LL2@CTList:

; 383  : 			idx++;
; 384  : 			switch (m_nObjAllocType) {

  00073	8b 46 14	 mov	 eax, DWORD PTR [esi+20]
  00076	47		 inc	 edi
  00077	83 c0 fe	 add	 eax, -2			; fffffffeH
  0007a	83 f8 03	 cmp	 eax, 3
  0007d	0f 87 b8 00 00
	00		 ja	 $LN18@CTList
  00083	ff 24 85 00 00
	00 00		 jmp	 DWORD PTR $LN69@CTList[eax*4]
$LN8@CTList:
  0008a	8b cb		 mov	 ecx, ebx
  0008c	e8 00 00 00 00	 call	 ??1CSTLogger@@QAE@XZ	; CSTLogger::~CSTLogger
  00091	6a 30		 push	 48			; 00000030H
  00093	53		 push	 ebx
  00094	e8 00 00 00 00	 call	 ??3@YAXPAXI@Z		; operator delete

; 385  : 				case eAlloc_Type_new		:	delete p; break;

  00099	e9 94 00 00 00	 jmp	 $LN67@CTList
$LN9@CTList:

; 386  : 				case eAlloc_Type_alloc		:	free(p); break;

  0009e	53		 push	 ebx
  0009f	ff d2		 call	 edx
  000a1	83 c4 04	 add	 esp, 4
  000a4	e9 8c 00 00 00	 jmp	 $LN68@CTList
$LN10@CTList:

; 387  : 				case eAlloc_Type_BufPool	:	gs_pMMgr->delBuf((char *)p, STRING_SIZE((TCHAR *)p)); break;

  000a9	8b d3		 mov	 edx, ebx
  000ab	8d 4a 01	 lea	 ecx, DWORD PTR [edx+1]
  000ae	66 90		 npad	 2
$LL64@CTList:
  000b0	8a 02		 mov	 al, BYTE PTR [edx]
  000b2	42		 inc	 edx
  000b3	84 c0		 test	 al, al
  000b5	75 f9		 jne	 SHORT $LL64@CTList
  000b7	2b d1		 sub	 edx, ecx
; File e:\infinia-library-3.0\com\include\combufpool.h

; 51   : inline int getIndex(int s) { int m; union { double x; int b[2]; }; x = s; m = (b[1] >> 20) - 1023; return m + ((s&(s - (1 << m))) ? 1 : 0); }

  000b9	b8 01 00 00 00	 mov	 eax, 1
; File e:\infinia-library-3.0\com\include\comtlist.h

; 387  : 				case eAlloc_Type_BufPool	:	gs_pMMgr->delBuf((char *)p, STRING_SIZE((TCHAR *)p)); break;

  000be	42		 inc	 edx
  000bf	66 0f 6e c2	 movd	 xmm0, edx
; File e:\infinia-library-3.0\com\include\combufpool.h

; 51   : inline int getIndex(int s) { int m; union { double x; int b[2]; }; x = s; m = (b[1] >> 20) - 1023; return m + ((s&(s - (1 << m))) ? 1 : 0); }

  000c3	f3 0f e6 c0	 cvtdq2pd xmm0, xmm0
  000c7	f2 0f 11 45 e8	 movsd	 QWORD PTR _$S1$2[ebp], xmm0
  000cc	8b 75 ec	 mov	 esi, DWORD PTR _$S1$2[ebp+4]
  000cf	c1 fe 14	 sar	 esi, 20			; 00000014H
  000d2	81 ee ff 03 00
	00		 sub	 esi, 1023		; 000003ffH
  000d8	8b ce		 mov	 ecx, esi
  000da	d3 e0		 shl	 eax, cl
  000dc	8b ca		 mov	 ecx, edx
  000de	2b c8		 sub	 ecx, eax
  000e0	23 ca		 and	 ecx, edx
  000e2	f7 d9		 neg	 ecx
  000e4	1b c9		 sbb	 ecx, ecx
  000e6	f7 d9		 neg	 ecx
  000e8	03 ce		 add	 ecx, esi
; File e:\infinia-library-3.0\com\include\commemmanager.h

; 38   : 	inline void delBuf(char *pBuf, int nSize) { int nIdx = getIndex(nSize); delBufByIndex(pBuf, nIdx); }

  000ea	51		 push	 ecx
  000eb	8b 0d 00 00 00
	00		 mov	 ecx, DWORD PTR ?gs_pMMgr@@3PAVCMemManager@@A ; gs_pMMgr
  000f1	53		 push	 ebx
  000f2	e8 00 00 00 00	 call	 ?delBufByIndex@CMemManager@@QAEXPADH@Z ; CMemManager::delBufByIndex
; File e:\infinia-library-3.0\com\include\comtlist.h

; 387  : 				case eAlloc_Type_BufPool	:	gs_pMMgr->delBuf((char *)p, STRING_SIZE((TCHAR *)p)); break;

  000f7	8b 75 f0	 mov	 esi, DWORD PTR _this$1$[ebp]
  000fa	eb 39		 jmp	 SHORT $LN68@CTList
$LN11@CTList:
  000fc	68 00 00 00 00	 push	 OFFSET ??1CSTLogger@@QAE@XZ ; CSTLogger::~CSTLogger
  00101	ff 73 fc	 push	 DWORD PTR [ebx-4]
  00104	8d 73 fc	 lea	 esi, DWORD PTR [ebx-4]
  00107	c7 45 fc 00 00
	00 00		 mov	 DWORD PTR __$EHRec$[ebp+8], 0
  0010e	6a 30		 push	 48			; 00000030H
  00110	53		 push	 ebx
  00111	e8 00 00 00 00	 call	 ??_M@YGXPAXIIP6EX0@Z@Z
  00116	8b 06		 mov	 eax, DWORD PTR [esi]
  00118	8d 04 40	 lea	 eax, DWORD PTR [eax+eax*2]
  0011b	c1 e0 04	 shl	 eax, 4
  0011e	83 c0 04	 add	 eax, 4
  00121	50		 push	 eax
  00122	56		 push	 esi
  00123	e8 00 00 00 00	 call	 ??_V@YAXPAXI@Z		; operator delete[]
  00128	8b 75 f0	 mov	 esi, DWORD PTR _this$1$[ebp]
  0012b	c7 45 fc ff ff
	ff ff		 mov	 DWORD PTR __$EHRec$[ebp+8], -1
$LN67@CTList:
  00132	83 c4 08	 add	 esp, 8
$LN68@CTList:
  00135	8b 15 00 00 00
	00		 mov	 edx, DWORD PTR __imp__free
$LN18@CTList:

; 335  : 		for (*pIdx; *pIdx < m_nMax; (*pIdx)++) {

  0013b	8b 4e 10	 mov	 ecx, DWORD PTR [esi+16]
  0013e	3b f9		 cmp	 edi, ecx
  00140	7d 1f		 jge	 SHORT $LN65@CTList

; 336  : 			if (m_pArray[*pIdx]) { return m_pArray[*pIdx]; }

  00142	8b 1e		 mov	 ebx, DWORD PTR [esi]
  00144	8d 04 bb	 lea	 eax, DWORD PTR [ebx+edi*4]
$LL46@CTList:
  00147	83 38 00	 cmp	 DWORD PTR [eax], 0
  0014a	75 0a		 jne	 SHORT $LN53@CTList

; 335  : 		for (*pIdx; *pIdx < m_nMax; (*pIdx)++) {

  0014c	47		 inc	 edi
  0014d	83 c0 04	 add	 eax, 4
  00150	3b f9		 cmp	 edi, ecx
  00152	7c f3		 jl	 SHORT $LL46@CTList
  00154	eb 0b		 jmp	 SHORT $LN65@CTList
$LN53@CTList:

; 336  : 			if (m_pArray[*pIdx]) { return m_pArray[*pIdx]; }

  00156	8b 1c bb	 mov	 ebx, DWORD PTR [ebx+edi*4]

; 381  : 		T *p = getNext(&idx);
; 382  : 		while (p) {

  00159	85 db		 test	 ebx, ebx
  0015b	0f 85 12 ff ff
	ff		 jne	 $LL2@CTList
$LN65@CTList:

; 388  : 				case eAlloc_Type_newArray	:	delete[] p; break;
; 389  : 				case eAlloc_Type_none		:	break;
; 390  : 				case eAlloc_Type_MemPool	:	break;
; 391  : 			}
; 392  : 			p = getNext(&idx);
; 393  : 		}
; 394  : 	}
; 395  : 
; 396  : 	if (m_pArray)	free(m_pArray);

  00161	8b 06		 mov	 eax, DWORD PTR [esi]
  00163	85 c0		 test	 eax, eax
  00165	74 06		 je	 SHORT $LN14@CTList
  00167	50		 push	 eax
  00168	ff d2		 call	 edx
  0016a	83 c4 04	 add	 esp, 4
$LN14@CTList:

; 397  : 	m_pArray = 0;

  0016d	c7 06 00 00 00
	00		 mov	 DWORD PTR [esi], 0
$LN1@CTList:

; 398  : }

  00173	8b 4d f4	 mov	 ecx, DWORD PTR __$EHRec$[ebp]
  00176	64 89 0d 00 00
	00 00		 mov	 DWORD PTR fs:0, ecx
  0017d	59		 pop	 ecx
  0017e	5f		 pop	 edi
  0017f	5e		 pop	 esi
  00180	5b		 pop	 ebx
  00181	8b e5		 mov	 esp, ebp
  00183	5d		 pop	 ebp
  00184	c3		 ret	 0
  00185	0f 1f 00	 npad	 3
$LN69@CTList:
  00188	00 00 00 00	 DD	 $LN8@CTList
  0018c	00 00 00 00	 DD	 $LN9@CTList
  00190	00 00 00 00	 DD	 $LN10@CTList
  00194	00 00 00 00	 DD	 $LN11@CTList
_TEXT	ENDS
;	COMDAT text$x
text$x	SEGMENT
__unwindfunclet$??1?$CTList@VCSTLogger@@@@QAE@XZ$1:
  00000	e8 00 00 00 00	 call	 ___std_terminate
  00005	c3		 ret	 0
__ehhandler$??1?$CTList@VCSTLogger@@@@QAE@XZ:
  00006	8b 54 24 08	 mov	 edx, DWORD PTR [esp+8]
  0000a	8d 42 0c	 lea	 eax, DWORD PTR [edx+12]
  0000d	8b 4a e4	 mov	 ecx, DWORD PTR [edx-28]
  00010	33 c8		 xor	 ecx, eax
  00012	e8 00 00 00 00	 call	 @__security_check_cookie@4
  00017	b8 00 00 00 00	 mov	 eax, OFFSET __ehfuncinfo$??1?$CTList@VCSTLogger@@@@QAE@XZ
  0001c	e9 00 00 00 00	 jmp	 ___CxxFrameHandler3
text$x	ENDS
??1?$CTList@VCSTLogger@@@@QAE@XZ ENDP			; CTList<CSTLogger>::~CTList<CSTLogger>
; Function compile flags: /Ogtp
; File e:\infinia-library-3.0\com\include\comtlist.h
;	COMDAT ??0?$CTList@VCSTLogger@@@@QAE@XZ
_TEXT	SEGMENT
??0?$CTList@VCSTLogger@@@@QAE@XZ PROC			; CTList<CSTLogger>::CTList<CSTLogger>, COMDAT
; _this$ = ecx

; 366  : 	m_pArray = NULL;

  00000	c7 01 00 00 00
	00		 mov	 DWORD PTR [ecx], 0

; 367  : 	m_nUse = 0;
; 368  : 	m_nLast = 0;
; 369  : 	m_nDelIdx = 0;
; 370  : 	m_nMax = 0;
; 371  : 	m_nObjAllocType = eAlloc_Type_none;
; 372  : }

  00006	8b c1		 mov	 eax, ecx
  00008	c7 41 04 00 00
	00 00		 mov	 DWORD PTR [ecx+4], 0
  0000f	c7 41 08 00 00
	00 00		 mov	 DWORD PTR [ecx+8], 0
  00016	c7 41 0c 00 00
	00 00		 mov	 DWORD PTR [ecx+12], 0
  0001d	c7 41 10 00 00
	00 00		 mov	 DWORD PTR [ecx+16], 0
  00024	c7 41 14 00 00
	00 00		 mov	 DWORD PTR [ecx+20], 0
  0002b	c3		 ret	 0
??0?$CTList@VCSTLogger@@@@QAE@XZ ENDP			; CTList<CSTLogger>::CTList<CSTLogger>
_TEXT	ENDS
; Function compile flags: /Ogtp
;	COMDAT ??_G?$CTList@VCLogger@@@@QAEPAXI@Z
_TEXT	SEGMENT
___flags$ = 8						; size = 4
??_G?$CTList@VCLogger@@@@QAEPAXI@Z PROC			; CTList<CLogger>::`scalar deleting destructor', COMDAT
; _this$ = ecx
  00000	55		 push	 ebp
  00001	8b ec		 mov	 ebp, esp
  00003	56		 push	 esi
  00004	8b f1		 mov	 esi, ecx
  00006	e8 00 00 00 00	 call	 ??1?$CTList@VCLogger@@@@QAE@XZ ; CTList<CLogger>::~CTList<CLogger>
  0000b	f6 45 08 01	 test	 BYTE PTR ___flags$[ebp], 1
  0000f	74 0b		 je	 SHORT $LN4@scalar
  00011	6a 18		 push	 24			; 00000018H
  00013	56		 push	 esi
  00014	e8 00 00 00 00	 call	 ??3@YAXPAXI@Z		; operator delete
  00019	83 c4 08	 add	 esp, 8
$LN4@scalar:
  0001c	8b c6		 mov	 eax, esi
  0001e	5e		 pop	 esi
  0001f	5d		 pop	 ebp
  00020	c2 04 00	 ret	 4
??_G?$CTList@VCLogger@@@@QAEPAXI@Z ENDP			; CTList<CLogger>::`scalar deleting destructor'
_TEXT	ENDS
; Function compile flags: /Ogtp
;	COMDAT ?__autoclassinit2@?$CTList@VCLogger@@@@QAEXI@Z
_TEXT	SEGMENT
_classSize$ = 8						; size = 4
?__autoclassinit2@?$CTList@VCLogger@@@@QAEXI@Z PROC	; CTList<CLogger>::__autoclassinit2, COMDAT
; _this$ = ecx
  00000	55		 push	 ebp
  00001	8b ec		 mov	 ebp, esp
  00003	ff 75 08	 push	 DWORD PTR _classSize$[ebp]
  00006	6a 00		 push	 0
  00008	51		 push	 ecx
  00009	e8 00 00 00 00	 call	 _memset
  0000e	83 c4 0c	 add	 esp, 12			; 0000000cH
  00011	5d		 pop	 ebp
  00012	c2 04 00	 ret	 4
?__autoclassinit2@?$CTList@VCLogger@@@@QAEXI@Z ENDP	; CTList<CLogger>::__autoclassinit2
_TEXT	ENDS
; Function compile flags: /Ogtp
; File e:\infinia-library-3.0\com\include\comtlist.h
;	COMDAT ?_DEL@?$CTList@VCLogger@@@@AAEXH@Z
_TEXT	SEGMENT
_i$ = 8							; size = 4
?_DEL@?$CTList@VCLogger@@@@AAEXH@Z PROC			; CTList<CLogger>::_DEL, COMDAT
; _this$ = ecx

; 360  : 	inline void _DEL(int i) { m_pArray[i] = 0; m_nUse--; m_nDelIdx = i; }

  00000	55		 push	 ebp
  00001	8b ec		 mov	 ebp, esp
  00003	8b 55 08	 mov	 edx, DWORD PTR _i$[ebp]
  00006	8b 01		 mov	 eax, DWORD PTR [ecx]
  00008	c7 04 90 00 00
	00 00		 mov	 DWORD PTR [eax+edx*4], 0
  0000f	ff 49 04	 dec	 DWORD PTR [ecx+4]
  00012	89 51 0c	 mov	 DWORD PTR [ecx+12], edx
  00015	5d		 pop	 ebp
  00016	c2 04 00	 ret	 4
?_DEL@?$CTList@VCLogger@@@@AAEXH@Z ENDP			; CTList<CLogger>::_DEL
_TEXT	ENDS
; Function compile flags: /Ogtp
; File e:\infinia-library-3.0\com\include\comtlist.h
;	COMDAT ?__alloc@?$CTList@VCLogger@@@@AAEHH@Z
_TEXT	SEGMENT
_nMaxCount$ = 8						; size = 4
?__alloc@?$CTList@VCLogger@@@@AAEHH@Z PROC		; CTList<CLogger>::__alloc, COMDAT
; _this$ = ecx

; 402  : {

  00000	55		 push	 ebp
  00001	8b ec		 mov	 ebp, esp
  00003	56		 push	 esi
  00004	57		 push	 edi

; 403  : 	T** pList = (T**)calloc(nMaxCount, sizeof(T*));

  00005	6a 04		 push	 4
  00007	ff 75 08	 push	 DWORD PTR _nMaxCount$[ebp]
  0000a	8b f1		 mov	 esi, ecx
  0000c	ff 15 00 00 00
	00		 call	 DWORD PTR __imp__calloc
  00012	8b f8		 mov	 edi, eax
  00014	83 c4 08	 add	 esp, 8

; 404  : 	if (!pList) {

  00017	85 ff		 test	 edi, edi
  00019	75 1a		 jne	 SHORT $LN2@alloc

; 405  : 		_stprintf(g_szMessage, "pList calloc is NULL");

  0001b	68 00 00 00 00	 push	 OFFSET ??_C@_0BF@ENADEEIE@pList?5calloc?5is?5NULL?$AA@
  00020	68 00 00 00 00	 push	 OFFSET ?g_szMessage@@3PADA ; g_szMessage
  00025	e8 00 00 00 00	 call	 _sprintf
  0002a	83 c4 08	 add	 esp, 8

; 406  : 		return 0;

  0002d	33 c0		 xor	 eax, eax
  0002f	5f		 pop	 edi
  00030	5e		 pop	 esi

; 415  : }

  00031	5d		 pop	 ebp
  00032	c2 04 00	 ret	 4
$LN2@alloc:

; 407  : 	}
; 408  : 	//_stprintf(g_szMessage, _T("CTList::__alloc list m_nMaxCount[%d]"), nMaxCount);
; 409  : 	if (m_pArray) {

  00035	8b 0e		 mov	 ecx, DWORD PTR [esi]
  00037	85 c9		 test	 ecx, ecx
  00039	74 19		 je	 SHORT $LN3@alloc

; 410  : 		memcpy(pList, m_pArray, m_nMax * sizeof(T*));

  0003b	8b 46 10	 mov	 eax, DWORD PTR [esi+16]
  0003e	c1 e0 02	 shl	 eax, 2
  00041	50		 push	 eax
  00042	51		 push	 ecx
  00043	57		 push	 edi
  00044	e8 00 00 00 00	 call	 _memcpy

; 411  : 		free(m_pArray);

  00049	ff 36		 push	 DWORD PTR [esi]
  0004b	ff 15 00 00 00
	00		 call	 DWORD PTR __imp__free
  00051	83 c4 10	 add	 esp, 16			; 00000010H
$LN3@alloc:

; 412  : 	}
; 413  : 	m_pArray = pList;
; 414  : 	return nMaxCount;

  00054	8b 45 08	 mov	 eax, DWORD PTR _nMaxCount$[ebp]
  00057	89 3e		 mov	 DWORD PTR [esi], edi
  00059	5f		 pop	 edi
  0005a	5e		 pop	 esi

; 415  : }

  0005b	5d		 pop	 ebp
  0005c	c2 04 00	 ret	 4
?__alloc@?$CTList@VCLogger@@@@AAEHH@Z ENDP		; CTList<CLogger>::__alloc
_TEXT	ENDS
; Function compile flags: /Ogtp
; File e:\infinia-library-3.0\com\include\comtlist.h
;	COMDAT ?getNext@?$CTList@VCLogger@@@@QAEPAVCLogger@@PAH@Z
_TEXT	SEGMENT
_pIdx$ = 8						; size = 4
?getNext@?$CTList@VCLogger@@@@QAEPAVCLogger@@PAH@Z PROC	; CTList<CLogger>::getNext, COMDAT
; _this$ = ecx

; 334  : 	inline T* getNext(int *pIdx) {

  00000	55		 push	 ebp
  00001	8b ec		 mov	 ebp, esp
  00003	56		 push	 esi

; 335  : 		for (*pIdx; *pIdx < m_nMax; (*pIdx)++) {

  00004	8b 75 08	 mov	 esi, DWORD PTR _pIdx$[ebp]
  00007	8b d1		 mov	 edx, ecx
  00009	8b 06		 mov	 eax, DWORD PTR [esi]
  0000b	3b 42 10	 cmp	 eax, DWORD PTR [edx+16]
  0000e	7d 14		 jge	 SHORT $LN3@getNext
$LL4@getNext:

; 336  : 			if (m_pArray[*pIdx]) { return m_pArray[*pIdx]; }

  00010	8b 0e		 mov	 ecx, DWORD PTR [esi]
  00012	8b 02		 mov	 eax, DWORD PTR [edx]
  00014	83 3c 88 00	 cmp	 DWORD PTR [eax+ecx*4], 0
  00018	75 11		 jne	 SHORT $LN8@getNext

; 335  : 		for (*pIdx; *pIdx < m_nMax; (*pIdx)++) {

  0001a	8d 41 01	 lea	 eax, DWORD PTR [ecx+1]
  0001d	89 06		 mov	 DWORD PTR [esi], eax
  0001f	3b 42 10	 cmp	 eax, DWORD PTR [edx+16]
  00022	7c ec		 jl	 SHORT $LL4@getNext
$LN3@getNext:

; 337  : 		}
; 338  : 		return NULL;

  00024	33 c0		 xor	 eax, eax
  00026	5e		 pop	 esi

; 339  : 	}

  00027	5d		 pop	 ebp
  00028	c2 04 00	 ret	 4
$LN8@getNext:

; 336  : 			if (m_pArray[*pIdx]) { return m_pArray[*pIdx]; }

  0002b	8b 04 88	 mov	 eax, DWORD PTR [eax+ecx*4]
  0002e	5e		 pop	 esi

; 339  : 	}

  0002f	5d		 pop	 ebp
  00030	c2 04 00	 ret	 4
?getNext@?$CTList@VCLogger@@@@QAEPAVCLogger@@PAH@Z ENDP	; CTList<CLogger>::getNext
_TEXT	ENDS
; Function compile flags: /Ogtp
; File e:\infinia-library-3.0\com\include\comtlist.h
;	COMDAT ?del@?$CTList@VCLogger@@@@QAE_NPAVCLogger@@@Z
_TEXT	SEGMENT
_p$ = 8							; size = 4
?del@?$CTList@VCLogger@@@@QAE_NPAVCLogger@@@Z PROC	; CTList<CLogger>::del, COMDAT
; _this$ = ecx

; 508  : {

  00000	55		 push	 ebp
  00001	8b ec		 mov	 ebp, esp
  00003	53		 push	 ebx
  00004	56		 push	 esi

; 509  : 	int i;
; 510  : 	for (i = 0; i < m_nMax; i++) {

  00005	8b 71 10	 mov	 esi, DWORD PTR [ecx+16]
  00008	33 c0		 xor	 eax, eax
  0000a	57		 push	 edi
  0000b	85 f6		 test	 esi, esi
  0000d	7e 13		 jle	 SHORT $LN3@del

; 511  : 		if (m_pArray[i] == p) {

  0000f	8b 19		 mov	 ebx, DWORD PTR [ecx]
  00011	8b d3		 mov	 edx, ebx
  00013	8b 7d 08	 mov	 edi, DWORD PTR _p$[ebp]
$LL4@del:
  00016	39 3a		 cmp	 DWORD PTR [edx], edi
  00018	74 25		 je	 SHORT $LN10@del

; 509  : 	int i;
; 510  : 	for (i = 0; i < m_nMax; i++) {

  0001a	40		 inc	 eax
  0001b	83 c2 04	 add	 edx, 4
  0001e	3b c6		 cmp	 eax, esi
  00020	7c f4		 jl	 SHORT $LL4@del
$LN3@del:

; 515  : 		}
; 516  : 	}
; 517  : 	_stprintf(g_szMessage, " del FAIL! i[%d] m_nMax[%d]", i, m_nMax);

  00022	56		 push	 esi
  00023	50		 push	 eax
  00024	68 00 00 00 00	 push	 OFFSET ??_C@_0BM@PMNIAOLF@?5del?5FAIL?$CB?5i?$FL?$CFd?$FN?5m_nMax?$FL?$CFd?$FN?$AA@
  00029	68 00 00 00 00	 push	 OFFSET ?g_szMessage@@3PADA ; g_szMessage
  0002e	e8 00 00 00 00	 call	 _sprintf
  00033	83 c4 10	 add	 esp, 16			; 00000010H

; 518  : 	return false;

  00036	32 c0		 xor	 al, al
  00038	5f		 pop	 edi
  00039	5e		 pop	 esi
  0003a	5b		 pop	 ebx

; 519  : }

  0003b	5d		 pop	 ebp
  0003c	c2 04 00	 ret	 4
$LN10@del:

; 360  : 	inline void _DEL(int i) { m_pArray[i] = 0; m_nUse--; m_nDelIdx = i; }

  0003f	c7 04 83 00 00
	00 00		 mov	 DWORD PTR [ebx+eax*4], 0
  00046	ff 49 04	 dec	 DWORD PTR [ecx+4]
  00049	5f		 pop	 edi
  0004a	5e		 pop	 esi
  0004b	89 41 0c	 mov	 DWORD PTR [ecx+12], eax

; 512  : 			_DEL(i);
; 513  : 			//_stprintf(g_szMessage, _T("CMemList::del i[%d] m_nLast[%d] m_nCurCount[%d]"), i, m_nLast, m_nUse);
; 514  : 			return true;

  0004e	b0 01		 mov	 al, 1
  00050	5b		 pop	 ebx

; 519  : }

  00051	5d		 pop	 ebp
  00052	c2 04 00	 ret	 4
?del@?$CTList@VCLogger@@@@QAE_NPAVCLogger@@@Z ENDP	; CTList<CLogger>::del
_TEXT	ENDS
; Function compile flags: /Ogtp
; File e:\infinia-library-3.0\com\include\comtlist.h
;	COMDAT ?IsExist@?$CTList@VCLogger@@@@QAE_NPAVCLogger@@@Z
_TEXT	SEGMENT
_p$ = 8							; size = 4
?IsExist@?$CTList@VCLogger@@@@QAE_NPAVCLogger@@@Z PROC	; CTList<CLogger>::IsExist, COMDAT
; _this$ = ecx

; 457  : {

  00000	55		 push	 ebp
  00001	8b ec		 mov	 ebp, esp
  00003	8b 51 10	 mov	 edx, DWORD PTR [ecx+16]

; 458  : 	int i;
; 459  : 	for (i = 0; i < m_nMax; i++)

  00006	33 c0		 xor	 eax, eax
  00008	56		 push	 esi
  00009	57		 push	 edi
  0000a	85 d2		 test	 edx, edx
  0000c	7e 15		 jle	 SHORT $LN13@IsExist

; 460  : 	{
; 461  : 		if (m_pArray[i]) {

  0000e	8b 31		 mov	 esi, DWORD PTR [ecx]
  00010	8b 7d 08	 mov	 edi, DWORD PTR _p$[ebp]
$LL4@IsExist:
  00013	8b 0c 86	 mov	 ecx, DWORD PTR [esi+eax*4]
  00016	85 c9		 test	 ecx, ecx
  00018	74 04		 je	 SHORT $LN2@IsExist

; 462  : 			if (m_pArray[i] == p) {

  0001a	3b cf		 cmp	 ecx, edi
  0001c	74 0d		 je	 SHORT $LN9@IsExist
$LN2@IsExist:

; 458  : 	int i;
; 459  : 	for (i = 0; i < m_nMax; i++)

  0001e	40		 inc	 eax
  0001f	3b c2		 cmp	 eax, edx
  00021	7c f0		 jl	 SHORT $LL4@IsExist
$LN13@IsExist:
  00023	5f		 pop	 edi

; 464  : 			}
; 465  : 		}
; 466  : 	}
; 467  : 	return false;

  00024	32 c0		 xor	 al, al
  00026	5e		 pop	 esi

; 468  : }

  00027	5d		 pop	 ebp
  00028	c2 04 00	 ret	 4
$LN9@IsExist:
  0002b	5f		 pop	 edi

; 463  : 				return true;

  0002c	b0 01		 mov	 al, 1
  0002e	5e		 pop	 esi

; 468  : }

  0002f	5d		 pop	 ebp
  00030	c2 04 00	 ret	 4
?IsExist@?$CTList@VCLogger@@@@QAE_NPAVCLogger@@@Z ENDP	; CTList<CLogger>::IsExist
_TEXT	ENDS
; Function compile flags: /Ogtp
; File e:\infinia-library-3.0\com\include\comtlist.h
;	COMDAT ?push_back@?$CTList@VCLogger@@@@QAE_NPAVCLogger@@PAH@Z
_TEXT	SEGMENT
_Obj$ = 8						; size = 4
_pIdx$ = 12						; size = 4
?push_back@?$CTList@VCLogger@@@@QAE_NPAVCLogger@@PAH@Z PROC ; CTList<CLogger>::push_back, COMDAT
; _this$ = ecx

; 472  : {

  00000	55		 push	 ebp
  00001	8b ec		 mov	 ebp, esp
  00003	53		 push	 ebx
  00004	56		 push	 esi
  00005	8b f1		 mov	 esi, ecx
  00007	57		 push	 edi

; 473  : 	int nIdx, i;
; 474  : 
; 475  : 	if (m_nUse >= m_nMax) {

  00008	8b 4e 10	 mov	 ecx, DWORD PTR [esi+16]
  0000b	39 4e 04	 cmp	 DWORD PTR [esi+4], ecx
  0000e	7c 38		 jl	 SHORT $LN5@push_back

; 476  : 		if (!__alloc(m_nMax + TLIST_ADD_SIZE)) return false;

  00010	8d 41 40	 lea	 eax, DWORD PTR [ecx+64]
  00013	8b ce		 mov	 ecx, esi
  00015	50		 push	 eax
  00016	e8 00 00 00 00	 call	 ?__alloc@?$CTList@VCLogger@@@@AAEHH@Z ; CTList<CLogger>::__alloc
  0001b	85 c0		 test	 eax, eax
  0001d	74 56		 je	 SHORT $LN3@push_back

; 477  : 		nIdx = m_nMax;

  0001f	8b 56 10	 mov	 edx, DWORD PTR [esi+16]

; 478  : 		m_nMax += TLIST_ADD_SIZE;

  00022	8d 42 40	 lea	 eax, DWORD PTR [edx+64]
  00025	89 46 10	 mov	 DWORD PTR [esi+16], eax
$ADD_SUCCESS$21:

; 495  : 
; 496  : ADD_SUCCESS:
; 497  : 	m_nUse++;
; 498  : 	m_pArray[nIdx] = Obj;

  00028	8b 0e		 mov	 ecx, DWORD PTR [esi]
  0002a	ff 46 04	 inc	 DWORD PTR [esi+4]
  0002d	8b 45 08	 mov	 eax, DWORD PTR _Obj$[ebp]
  00030	89 04 91	 mov	 DWORD PTR [ecx+edx*4], eax

; 499  : 	m_nLast++;

  00033	ff 46 08	 inc	 DWORD PTR [esi+8]

; 500  : 	//_stprintf(g_szMessage, _T("CMemList::add i[%d] m_nLast[%d] m_nCurCount[%d]"), nIdx, m_nLast, m_nUse);
; 501  : 	if (pIdx) *pIdx = nIdx;

  00036	8b 45 0c	 mov	 eax, DWORD PTR _pIdx$[ebp]
  00039	85 c0		 test	 eax, eax
  0003b	74 02		 je	 SHORT $LN13@push_back
  0003d	89 10		 mov	 DWORD PTR [eax], edx
$LN13@push_back:
  0003f	5f		 pop	 edi
  00040	5e		 pop	 esi

; 502  : 	return true;

  00041	b0 01		 mov	 al, 1
  00043	5b		 pop	 ebx

; 503  : }

  00044	5d		 pop	 ebp
  00045	c2 08 00	 ret	 8
$LN5@push_back:

; 479  : 		goto ADD_SUCCESS;
; 480  : 	}
; 481  : 
; 482  : 	if (!m_pArray[m_nLast]) { nIdx = m_nLast;  goto ADD_SUCCESS; }

  00048	8b 56 08	 mov	 edx, DWORD PTR [esi+8]
  0004b	8b 1e		 mov	 ebx, DWORD PTR [esi]
  0004d	83 3c 93 00	 cmp	 DWORD PTR [ebx+edx*4], 0
  00051	74 d5		 je	 SHORT $ADD_SUCCESS$21

; 483  : 
; 484  : 	nIdx = m_nLast;
; 485  : 	for (i = 0; i < m_nMax; i++)

  00053	33 c0		 xor	 eax, eax
  00055	8b fa		 mov	 edi, edx
  00057	85 c9		 test	 ecx, ecx
  00059	7e 1a		 jle	 SHORT $LN3@push_back
  0005b	0f 1f 44 00 00	 npad	 5
$LL4@push_back:
  00060	33 d2		 xor	 edx, edx
  00062	3b f9		 cmp	 edi, ecx
  00064	0f 4c d7	 cmovl	 edx, edi

; 486  : 	{
; 487  : 		if (nIdx >= m_nMax) nIdx = 0;
; 488  : 		if (!m_pArray[nIdx]) {

  00067	83 3c 93 00	 cmp	 DWORD PTR [ebx+edx*4], 0
  0006b	74 bb		 je	 SHORT $ADD_SUCCESS$21

; 489  : 			goto ADD_SUCCESS;
; 490  : 		}
; 491  : 		nIdx++;

  0006d	40		 inc	 eax
  0006e	8d 7a 01	 lea	 edi, DWORD PTR [edx+1]
  00071	3b c1		 cmp	 eax, ecx
  00073	7c eb		 jl	 SHORT $LL4@push_back
$LN3@push_back:
  00075	5f		 pop	 edi
  00076	5e		 pop	 esi

; 492  : 	}
; 493  : 	//_stprintf(m_szMessage, _T("add FAIL! m_nLast[%d] m_nCurCount[%d] m_nMax[%d]"), m_nLast, m_nUse, m_nMax);
; 494  : 	return false;

  00077	32 c0		 xor	 al, al
  00079	5b		 pop	 ebx

; 503  : }

  0007a	5d		 pop	 ebp
  0007b	c2 08 00	 ret	 8
?push_back@?$CTList@VCLogger@@@@QAE_NPAVCLogger@@PAH@Z ENDP ; CTList<CLogger>::push_back
_TEXT	ENDS
; Function compile flags: /Ogtp
; File e:\infinia-library-3.0\com\include\comtlist.h
;	COMDAT ?alloc@?$CTList@VCLogger@@@@QAEHHW4E_ALLOC_TYPE@@@Z
_TEXT	SEGMENT
_nMaxCount$ = 8						; size = 4
_type$ = 12						; size = 4
?alloc@?$CTList@VCLogger@@@@QAEHHW4E_ALLOC_TYPE@@@Z PROC ; CTList<CLogger>::alloc, COMDAT
; _this$ = ecx

; 326  : 	int alloc(int nMaxCount, E_ALLOC_TYPE type = eAlloc_Type_new) { m_nObjAllocType = type;  m_nMax = __alloc(nMaxCount); return m_nMax; }

  00000	55		 push	 ebp
  00001	8b ec		 mov	 ebp, esp
  00003	8b 45 0c	 mov	 eax, DWORD PTR _type$[ebp]
  00006	53		 push	 ebx
  00007	56		 push	 esi
  00008	57		 push	 edi

; 403  : 	T** pList = (T**)calloc(nMaxCount, sizeof(T*));

  00009	8b 7d 08	 mov	 edi, DWORD PTR _nMaxCount$[ebp]

; 326  : 	int alloc(int nMaxCount, E_ALLOC_TYPE type = eAlloc_Type_new) { m_nObjAllocType = type;  m_nMax = __alloc(nMaxCount); return m_nMax; }

  0000c	8b f1		 mov	 esi, ecx

; 403  : 	T** pList = (T**)calloc(nMaxCount, sizeof(T*));

  0000e	6a 04		 push	 4
  00010	57		 push	 edi

; 326  : 	int alloc(int nMaxCount, E_ALLOC_TYPE type = eAlloc_Type_new) { m_nObjAllocType = type;  m_nMax = __alloc(nMaxCount); return m_nMax; }

  00011	89 46 14	 mov	 DWORD PTR [esi+20], eax

; 403  : 	T** pList = (T**)calloc(nMaxCount, sizeof(T*));

  00014	ff 15 00 00 00
	00		 call	 DWORD PTR __imp__calloc
  0001a	8b d8		 mov	 ebx, eax
  0001c	83 c4 08	 add	 esp, 8

; 404  : 	if (!pList) {

  0001f	85 db		 test	 ebx, ebx
  00021	75 1e		 jne	 SHORT $LN4@alloc

; 405  : 		_stprintf(g_szMessage, "pList calloc is NULL");

  00023	68 00 00 00 00	 push	 OFFSET ??_C@_0BF@ENADEEIE@pList?5calloc?5is?5NULL?$AA@
  00028	68 00 00 00 00	 push	 OFFSET ?g_szMessage@@3PADA ; g_szMessage
  0002d	e8 00 00 00 00	 call	 _sprintf
  00032	83 c4 08	 add	 esp, 8

; 326  : 	int alloc(int nMaxCount, E_ALLOC_TYPE type = eAlloc_Type_new) { m_nObjAllocType = type;  m_nMax = __alloc(nMaxCount); return m_nMax; }

  00035	89 5e 10	 mov	 DWORD PTR [esi+16], ebx
  00038	33 c0		 xor	 eax, eax
  0003a	5f		 pop	 edi
  0003b	5e		 pop	 esi
  0003c	5b		 pop	 ebx
  0003d	5d		 pop	 ebp
  0003e	c2 08 00	 ret	 8
$LN4@alloc:

; 409  : 	if (m_pArray) {

  00041	8b 0e		 mov	 ecx, DWORD PTR [esi]
  00043	85 c9		 test	 ecx, ecx
  00045	74 19		 je	 SHORT $LN5@alloc

; 410  : 		memcpy(pList, m_pArray, m_nMax * sizeof(T*));

  00047	8b 46 10	 mov	 eax, DWORD PTR [esi+16]
  0004a	c1 e0 02	 shl	 eax, 2
  0004d	50		 push	 eax
  0004e	51		 push	 ecx
  0004f	53		 push	 ebx
  00050	e8 00 00 00 00	 call	 _memcpy

; 411  : 		free(m_pArray);

  00055	ff 36		 push	 DWORD PTR [esi]
  00057	ff 15 00 00 00
	00		 call	 DWORD PTR __imp__free
  0005d	83 c4 10	 add	 esp, 16			; 00000010H
$LN5@alloc:

; 326  : 	int alloc(int nMaxCount, E_ALLOC_TYPE type = eAlloc_Type_new) { m_nObjAllocType = type;  m_nMax = __alloc(nMaxCount); return m_nMax; }

  00060	89 7e 10	 mov	 DWORD PTR [esi+16], edi
  00063	8b c7		 mov	 eax, edi
  00065	5f		 pop	 edi

; 413  : 	m_pArray = pList;

  00066	89 1e		 mov	 DWORD PTR [esi], ebx
  00068	5e		 pop	 esi
  00069	5b		 pop	 ebx

; 326  : 	int alloc(int nMaxCount, E_ALLOC_TYPE type = eAlloc_Type_new) { m_nObjAllocType = type;  m_nMax = __alloc(nMaxCount); return m_nMax; }

  0006a	5d		 pop	 ebp
  0006b	c2 08 00	 ret	 8
?alloc@?$CTList@VCLogger@@@@QAEHHW4E_ALLOC_TYPE@@@Z ENDP ; CTList<CLogger>::alloc
_TEXT	ENDS
; Function compile flags: /Ogtp
; File e:\infinia-library-3.0\com\include\comtlist.h
; File e:\infinia-library-3.0\com\include\combufpool.h
; File e:\infinia-library-3.0\com\include\comtlist.h
; File e:\infinia-library-3.0\com\include\combufpool.h
; File e:\infinia-library-3.0\com\include\commemmanager.h
; File e:\infinia-library-3.0\com\include\comtlist.h
;	COMDAT ??1?$CTList@VCLogger@@@@QAE@XZ
_TEXT	SEGMENT
_$S1$2 = -24						; size = 8
_this$1$ = -16						; size = 4
__$EHRec$ = -12						; size = 12
??1?$CTList@VCLogger@@@@QAE@XZ PROC			; CTList<CLogger>::~CTList<CLogger>, COMDAT
; _this$ = ecx

; 376  : {

  00000	55		 push	 ebp
  00001	8b ec		 mov	 ebp, esp
  00003	6a ff		 push	 -1
  00005	68 00 00 00 00	 push	 __ehhandler$??1?$CTList@VCLogger@@@@QAE@XZ
  0000a	64 a1 00 00 00
	00		 mov	 eax, DWORD PTR fs:0
  00010	50		 push	 eax
  00011	83 ec 0c	 sub	 esp, 12			; 0000000cH
  00014	53		 push	 ebx
  00015	56		 push	 esi
  00016	57		 push	 edi
  00017	a1 00 00 00 00	 mov	 eax, DWORD PTR ___security_cookie
  0001c	33 c5		 xor	 eax, ebp
  0001e	50		 push	 eax
  0001f	8d 45 f4	 lea	 eax, DWORD PTR __$EHRec$[ebp]
  00022	64 a3 00 00 00
	00		 mov	 DWORD PTR fs:0, eax
  00028	8b f1		 mov	 esi, ecx
  0002a	89 75 f0	 mov	 DWORD PTR _this$1$[ebp], esi

; 377  : 	if (!m_pArray) return;

  0002d	8b 1e		 mov	 ebx, DWORD PTR [esi]
  0002f	85 db		 test	 ebx, ebx
  00031	0f 84 45 01 00
	00		 je	 $LN1@CTList

; 378  : 
; 379  : 	if (ISABLETODELETE(m_nObjAllocType)) {

  00037	83 7e 14 01	 cmp	 DWORD PTR [esi+20], 1
  0003b	8b 15 00 00 00
	00		 mov	 edx, DWORD PTR __imp__free
  00041	0f 8e 23 01 00
	00		 jle	 $LN65@CTList

; 335  : 		for (*pIdx; *pIdx < m_nMax; (*pIdx)++) {

  00047	8b 4e 10	 mov	 ecx, DWORD PTR [esi+16]

; 380  : 		int idx = 0;

  0004a	33 ff		 xor	 edi, edi

; 335  : 		for (*pIdx; *pIdx < m_nMax; (*pIdx)++) {

  0004c	85 c9		 test	 ecx, ecx
  0004e	0f 8e 16 01 00
	00		 jle	 $LN65@CTList

; 336  : 			if (m_pArray[*pIdx]) { return m_pArray[*pIdx]; }

  00054	8b c3		 mov	 eax, ebx
$LL26@CTList:
  00056	83 38 00	 cmp	 DWORD PTR [eax], 0
  00059	75 0d		 jne	 SHORT $LN52@CTList

; 335  : 		for (*pIdx; *pIdx < m_nMax; (*pIdx)++) {

  0005b	47		 inc	 edi
  0005c	83 c0 04	 add	 eax, 4
  0005f	3b f9		 cmp	 edi, ecx
  00061	7c f3		 jl	 SHORT $LL26@CTList

; 336  : 			if (m_pArray[*pIdx]) { return m_pArray[*pIdx]; }

  00063	e9 02 01 00 00	 jmp	 $LN65@CTList
$LN52@CTList:
  00068	8b 1c bb	 mov	 ebx, DWORD PTR [ebx+edi*4]

; 381  : 		T *p = getNext(&idx);
; 382  : 		while (p) {

  0006b	85 db		 test	 ebx, ebx
  0006d	0f 84 f7 00 00
	00		 je	 $LN65@CTList
$LL2@CTList:

; 383  : 			idx++;
; 384  : 			switch (m_nObjAllocType) {

  00073	8b 46 14	 mov	 eax, DWORD PTR [esi+20]
  00076	47		 inc	 edi
  00077	83 c0 fe	 add	 eax, -2			; fffffffeH
  0007a	83 f8 03	 cmp	 eax, 3
  0007d	0f 87 ba 00 00
	00		 ja	 $LN18@CTList
  00083	ff 24 85 00 00
	00 00		 jmp	 DWORD PTR $LN69@CTList[eax*4]
$LN8@CTList:
  0008a	8b cb		 mov	 ecx, ebx
  0008c	e8 00 00 00 00	 call	 ??1CLogger@@QAE@XZ	; CLogger::~CLogger
  00091	68 d8 00 00 00	 push	 216			; 000000d8H
  00096	53		 push	 ebx
  00097	e8 00 00 00 00	 call	 ??3@YAXPAXI@Z		; operator delete

; 385  : 				case eAlloc_Type_new		:	delete p; break;

  0009c	e9 93 00 00 00	 jmp	 $LN67@CTList
$LN9@CTList:

; 386  : 				case eAlloc_Type_alloc		:	free(p); break;

  000a1	53		 push	 ebx
  000a2	ff d2		 call	 edx
  000a4	83 c4 04	 add	 esp, 4
  000a7	e9 8b 00 00 00	 jmp	 $LN68@CTList
$LN10@CTList:

; 387  : 				case eAlloc_Type_BufPool	:	gs_pMMgr->delBuf((char *)p, STRING_SIZE((TCHAR *)p)); break;

  000ac	8b d3		 mov	 edx, ebx
  000ae	8d 4a 01	 lea	 ecx, DWORD PTR [edx+1]
$LL64@CTList:
  000b1	8a 02		 mov	 al, BYTE PTR [edx]
  000b3	42		 inc	 edx
  000b4	84 c0		 test	 al, al
  000b6	75 f9		 jne	 SHORT $LL64@CTList
  000b8	2b d1		 sub	 edx, ecx
; File e:\infinia-library-3.0\com\include\combufpool.h

; 51   : inline int getIndex(int s) { int m; union { double x; int b[2]; }; x = s; m = (b[1] >> 20) - 1023; return m + ((s&(s - (1 << m))) ? 1 : 0); }

  000ba	b8 01 00 00 00	 mov	 eax, 1
; File e:\infinia-library-3.0\com\include\comtlist.h

; 387  : 				case eAlloc_Type_BufPool	:	gs_pMMgr->delBuf((char *)p, STRING_SIZE((TCHAR *)p)); break;

  000bf	42		 inc	 edx
  000c0	66 0f 6e c2	 movd	 xmm0, edx
; File e:\infinia-library-3.0\com\include\combufpool.h

; 51   : inline int getIndex(int s) { int m; union { double x; int b[2]; }; x = s; m = (b[1] >> 20) - 1023; return m + ((s&(s - (1 << m))) ? 1 : 0); }

  000c4	f3 0f e6 c0	 cvtdq2pd xmm0, xmm0
  000c8	f2 0f 11 45 e8	 movsd	 QWORD PTR _$S1$2[ebp], xmm0
  000cd	8b 75 ec	 mov	 esi, DWORD PTR _$S1$2[ebp+4]
  000d0	c1 fe 14	 sar	 esi, 20			; 00000014H
  000d3	81 ee ff 03 00
	00		 sub	 esi, 1023		; 000003ffH
  000d9	8b ce		 mov	 ecx, esi
  000db	d3 e0		 shl	 eax, cl
  000dd	8b ca		 mov	 ecx, edx
  000df	2b c8		 sub	 ecx, eax
  000e1	23 ca		 and	 ecx, edx
  000e3	f7 d9		 neg	 ecx
  000e5	1b c9		 sbb	 ecx, ecx
  000e7	f7 d9		 neg	 ecx
  000e9	03 ce		 add	 ecx, esi
; File e:\infinia-library-3.0\com\include\commemmanager.h

; 38   : 	inline void delBuf(char *pBuf, int nSize) { int nIdx = getIndex(nSize); delBufByIndex(pBuf, nIdx); }

  000eb	51		 push	 ecx
  000ec	8b 0d 00 00 00
	00		 mov	 ecx, DWORD PTR ?gs_pMMgr@@3PAVCMemManager@@A ; gs_pMMgr
  000f2	53		 push	 ebx
  000f3	e8 00 00 00 00	 call	 ?delBufByIndex@CMemManager@@QAEXPADH@Z ; CMemManager::delBufByIndex
; File e:\infinia-library-3.0\com\include\comtlist.h

; 387  : 				case eAlloc_Type_BufPool	:	gs_pMMgr->delBuf((char *)p, STRING_SIZE((TCHAR *)p)); break;

  000f8	8b 75 f0	 mov	 esi, DWORD PTR _this$1$[ebp]
  000fb	eb 3a		 jmp	 SHORT $LN68@CTList
$LN11@CTList:
  000fd	68 00 00 00 00	 push	 OFFSET ??1CLogger@@QAE@XZ ; CLogger::~CLogger
  00102	ff 73 fc	 push	 DWORD PTR [ebx-4]
  00105	8d 73 fc	 lea	 esi, DWORD PTR [ebx-4]
  00108	c7 45 fc 00 00
	00 00		 mov	 DWORD PTR __$EHRec$[ebp+8], 0
  0010f	68 d8 00 00 00	 push	 216			; 000000d8H
  00114	53		 push	 ebx
  00115	e8 00 00 00 00	 call	 ??_M@YGXPAXIIP6EX0@Z@Z
  0011a	69 06 d8 00 00
	00		 imul	 eax, DWORD PTR [esi], 216
  00120	83 c0 04	 add	 eax, 4
  00123	50		 push	 eax
  00124	56		 push	 esi
  00125	e8 00 00 00 00	 call	 ??_V@YAXPAXI@Z		; operator delete[]
  0012a	8b 75 f0	 mov	 esi, DWORD PTR _this$1$[ebp]
  0012d	c7 45 fc ff ff
	ff ff		 mov	 DWORD PTR __$EHRec$[ebp+8], -1
$LN67@CTList:
  00134	83 c4 08	 add	 esp, 8
$LN68@CTList:
  00137	8b 15 00 00 00
	00		 mov	 edx, DWORD PTR __imp__free
$LN18@CTList:

; 335  : 		for (*pIdx; *pIdx < m_nMax; (*pIdx)++) {

  0013d	8b 4e 10	 mov	 ecx, DWORD PTR [esi+16]
  00140	3b f9		 cmp	 edi, ecx
  00142	7d 26		 jge	 SHORT $LN65@CTList

; 336  : 			if (m_pArray[*pIdx]) { return m_pArray[*pIdx]; }

  00144	8b 1e		 mov	 ebx, DWORD PTR [esi]
  00146	8d 04 bb	 lea	 eax, DWORD PTR [ebx+edi*4]
  00149	0f 1f 80 00 00
	00 00		 npad	 7
$LL46@CTList:
  00150	83 38 00	 cmp	 DWORD PTR [eax], 0
  00153	75 0a		 jne	 SHORT $LN53@CTList

; 335  : 		for (*pIdx; *pIdx < m_nMax; (*pIdx)++) {

  00155	47		 inc	 edi
  00156	83 c0 04	 add	 eax, 4
  00159	3b f9		 cmp	 edi, ecx
  0015b	7c f3		 jl	 SHORT $LL46@CTList
  0015d	eb 0b		 jmp	 SHORT $LN65@CTList
$LN53@CTList:

; 336  : 			if (m_pArray[*pIdx]) { return m_pArray[*pIdx]; }

  0015f	8b 1c bb	 mov	 ebx, DWORD PTR [ebx+edi*4]

; 381  : 		T *p = getNext(&idx);
; 382  : 		while (p) {

  00162	85 db		 test	 ebx, ebx
  00164	0f 85 09 ff ff
	ff		 jne	 $LL2@CTList
$LN65@CTList:

; 388  : 				case eAlloc_Type_newArray	:	delete[] p; break;
; 389  : 				case eAlloc_Type_none		:	break;
; 390  : 				case eAlloc_Type_MemPool	:	break;
; 391  : 			}
; 392  : 			p = getNext(&idx);
; 393  : 		}
; 394  : 	}
; 395  : 
; 396  : 	if (m_pArray)	free(m_pArray);

  0016a	8b 06		 mov	 eax, DWORD PTR [esi]
  0016c	85 c0		 test	 eax, eax
  0016e	74 06		 je	 SHORT $LN14@CTList
  00170	50		 push	 eax
  00171	ff d2		 call	 edx
  00173	83 c4 04	 add	 esp, 4
$LN14@CTList:

; 397  : 	m_pArray = 0;

  00176	c7 06 00 00 00
	00		 mov	 DWORD PTR [esi], 0
$LN1@CTList:

; 398  : }

  0017c	8b 4d f4	 mov	 ecx, DWORD PTR __$EHRec$[ebp]
  0017f	64 89 0d 00 00
	00 00		 mov	 DWORD PTR fs:0, ecx
  00186	59		 pop	 ecx
  00187	5f		 pop	 edi
  00188	5e		 pop	 esi
  00189	5b		 pop	 ebx
  0018a	8b e5		 mov	 esp, ebp
  0018c	5d		 pop	 ebp
  0018d	c3		 ret	 0
  0018e	66 90		 npad	 2
$LN69@CTList:
  00190	00 00 00 00	 DD	 $LN8@CTList
  00194	00 00 00 00	 DD	 $LN9@CTList
  00198	00 00 00 00	 DD	 $LN10@CTList
  0019c	00 00 00 00	 DD	 $LN11@CTList
_TEXT	ENDS
;	COMDAT text$x
text$x	SEGMENT
__unwindfunclet$??1?$CTList@VCLogger@@@@QAE@XZ$1:
  00000	e8 00 00 00 00	 call	 ___std_terminate
  00005	c3		 ret	 0
__ehhandler$??1?$CTList@VCLogger@@@@QAE@XZ:
  00006	8b 54 24 08	 mov	 edx, DWORD PTR [esp+8]
  0000a	8d 42 0c	 lea	 eax, DWORD PTR [edx+12]
  0000d	8b 4a e4	 mov	 ecx, DWORD PTR [edx-28]
  00010	33 c8		 xor	 ecx, eax
  00012	e8 00 00 00 00	 call	 @__security_check_cookie@4
  00017	b8 00 00 00 00	 mov	 eax, OFFSET __ehfuncinfo$??1?$CTList@VCLogger@@@@QAE@XZ
  0001c	e9 00 00 00 00	 jmp	 ___CxxFrameHandler3
text$x	ENDS
??1?$CTList@VCLogger@@@@QAE@XZ ENDP			; CTList<CLogger>::~CTList<CLogger>
; Function compile flags: /Ogtp
; File e:\infinia-library-3.0\com\include\comtlist.h
;	COMDAT ??0?$CTList@VCLogger@@@@QAE@XZ
_TEXT	SEGMENT
??0?$CTList@VCLogger@@@@QAE@XZ PROC			; CTList<CLogger>::CTList<CLogger>, COMDAT
; _this$ = ecx

; 366  : 	m_pArray = NULL;

  00000	c7 01 00 00 00
	00		 mov	 DWORD PTR [ecx], 0

; 367  : 	m_nUse = 0;
; 368  : 	m_nLast = 0;
; 369  : 	m_nDelIdx = 0;
; 370  : 	m_nMax = 0;
; 371  : 	m_nObjAllocType = eAlloc_Type_none;
; 372  : }

  00006	8b c1		 mov	 eax, ecx
  00008	c7 41 04 00 00
	00 00		 mov	 DWORD PTR [ecx+4], 0
  0000f	c7 41 08 00 00
	00 00		 mov	 DWORD PTR [ecx+8], 0
  00016	c7 41 0c 00 00
	00 00		 mov	 DWORD PTR [ecx+12], 0
  0001d	c7 41 10 00 00
	00 00		 mov	 DWORD PTR [ecx+16], 0
  00024	c7 41 14 00 00
	00 00		 mov	 DWORD PTR [ecx+20], 0
  0002b	c3		 ret	 0
??0?$CTList@VCLogger@@@@QAE@XZ ENDP			; CTList<CLogger>::CTList<CLogger>
_TEXT	ENDS
; Function compile flags: /Ogtp
;	COMDAT ??_G?$CMemPool@USTEvent@@@@QAEPAXI@Z
_TEXT	SEGMENT
___flags$ = 8						; size = 4
??_G?$CMemPool@USTEvent@@@@QAEPAXI@Z PROC		; CMemPool<STEvent>::`scalar deleting destructor', COMDAT
; _this$ = ecx
  00000	55		 push	 ebp
  00001	8b ec		 mov	 ebp, esp
  00003	56		 push	 esi
  00004	8b f1		 mov	 esi, ecx
  00006	e8 00 00 00 00	 call	 ??1?$CMemPool@USTEvent@@@@QAE@XZ ; CMemPool<STEvent>::~CMemPool<STEvent>
  0000b	f6 45 08 01	 test	 BYTE PTR ___flags$[ebp], 1
  0000f	74 0b		 je	 SHORT $LN4@scalar
  00011	6a 18		 push	 24			; 00000018H
  00013	56		 push	 esi
  00014	e8 00 00 00 00	 call	 ??3@YAXPAXI@Z		; operator delete
  00019	83 c4 08	 add	 esp, 8
$LN4@scalar:
  0001c	8b c6		 mov	 eax, esi
  0001e	5e		 pop	 esi
  0001f	5d		 pop	 ebp
  00020	c2 04 00	 ret	 4
??_G?$CMemPool@USTEvent@@@@QAEPAXI@Z ENDP		; CMemPool<STEvent>::`scalar deleting destructor'
_TEXT	ENDS
; Function compile flags: /Ogtp
;	COMDAT ?__autoclassinit2@?$CMemPool@USTEvent@@@@QAEXI@Z
_TEXT	SEGMENT
_classSize$ = 8						; size = 4
?__autoclassinit2@?$CMemPool@USTEvent@@@@QAEXI@Z PROC	; CMemPool<STEvent>::__autoclassinit2, COMDAT
; _this$ = ecx
  00000	55		 push	 ebp
  00001	8b ec		 mov	 ebp, esp
  00003	ff 75 08	 push	 DWORD PTR _classSize$[ebp]
  00006	6a 00		 push	 0
  00008	51		 push	 ecx
  00009	e8 00 00 00 00	 call	 _memset
  0000e	83 c4 0c	 add	 esp, 12			; 0000000cH
  00011	5d		 pop	 ebp
  00012	c2 04 00	 ret	 4
?__autoclassinit2@?$CMemPool@USTEvent@@@@QAEXI@Z ENDP	; CMemPool<STEvent>::__autoclassinit2
_TEXT	ENDS
; Function compile flags: /Ogtp
; File e:\infinia-library-3.0\com\include\commempool.h
; File e:\infinia-library-3.0\com\include\comtypes.h
; File e:\infinia-library-3.0\com\include\com\win32\win32_mtsync.h
; File e:\infinia-library-3.0\com\include\commempool.h
;	COMDAT ?delMem@?$CMemPool@USTEvent@@@@QAE_NPAUSTEvent@@@Z
_TEXT	SEGMENT
_pUsedMem$ = 8						; size = 4
?delMem@?$CMemPool@USTEvent@@@@QAE_NPAUSTEvent@@@Z PROC	; CMemPool<STEvent>::delMem, COMDAT
; _this$ = ecx

; 207  : {

  00000	55		 push	 ebp
  00001	8b ec		 mov	 ebp, esp
  00003	56		 push	 esi
  00004	57		 push	 edi

; 208  : 	int nIdx = int(pUsedMem - m_pChunk);

  00005	8b 7d 08	 mov	 edi, DWORD PTR _pUsedMem$[ebp]
  00008	b8 67 66 66 66	 mov	 eax, 1717986919		; 66666667H
  0000d	8b d7		 mov	 edx, edi
  0000f	2b 51 14	 sub	 edx, DWORD PTR [ecx+20]
  00012	f7 ea		 imul	 edx
  00014	c1 fa 03	 sar	 edx, 3
  00017	8b f2		 mov	 esi, edx
  00019	c1 ee 1f	 shr	 esi, 31			; 0000001fH
  0001c	03 f2		 add	 esi, edx
; File e:\infinia-library-3.0\com\include\comtypes.h

; 322  : inline bool ISINCLUDE(int i, int max) { if (0 <= i && i < max) return true; return false; }

  0001e	78 20		 js	 SHORT $LN4@delMem
  00020	3b 71 0c	 cmp	 esi, DWORD PTR [ecx+12]
  00023	7d 1b		 jge	 SHORT $LN4@delMem
; File e:\infinia-library-3.0\com\include\com\win32\win32_mtsync.h

; 94   : 	inline void init() { m_count = 0; }

  00025	8b 01		 mov	 eax, DWORD PTR [ecx]
  00027	c7 04 b0 00 00
	00 00		 mov	 DWORD PTR [eax+esi*4], 0

; 98   : 	inline long atomic_decrement() { return InterlockedDecrement(&m_count);}

  0002e	8d 41 04	 lea	 eax, DWORD PTR [ecx+4]
  00031	50		 push	 eax
  00032	ff 15 00 00 00
	00		 call	 DWORD PTR __imp__InterlockedDecrement@4
  00038	5f		 pop	 edi
; File e:\infinia-library-3.0\com\include\commempool.h

; 213  : 		return true;

  00039	b0 01		 mov	 al, 1
  0003b	5e		 pop	 esi

; 221  : }

  0003c	5d		 pop	 ebp
  0003d	c2 04 00	 ret	 4
$LN4@delMem:

; 214  : 	}
; 215  : 	switch (m_nObjAllocType) {

  00040	8b 41 10	 mov	 eax, DWORD PTR [ecx+16]
  00043	83 e8 02	 sub	 eax, 2
  00046	74 0a		 je	 SHORT $LN5@delMem
  00048	83 e8 01	 sub	 eax, 1
  0004b	74 18		 je	 SHORT $LN6@delMem
  0004d	83 e8 02	 sub	 eax, 2
  00050	75 0b		 jne	 SHORT $LN8@delMem
$LN5@delMem:

; 216  : 	case eAlloc_Type_new:
; 217  : 	case eAlloc_Type_newArray:	delete pUsedMem; break;

  00052	6a 14		 push	 20			; 00000014H
  00054	57		 push	 edi
  00055	e8 00 00 00 00	 call	 ??3@YAXPAXI@Z		; operator delete
  0005a	83 c4 08	 add	 esp, 8
$LN8@delMem:

; 219  : 	}
; 220  : 	return false;

  0005d	5f		 pop	 edi
  0005e	32 c0		 xor	 al, al
  00060	5e		 pop	 esi

; 221  : }

  00061	5d		 pop	 ebp
  00062	c2 04 00	 ret	 4
$LN6@delMem:

; 218  : 	case eAlloc_Type_alloc:	free(pUsedMem); break;

  00065	57		 push	 edi
  00066	ff 15 00 00 00
	00		 call	 DWORD PTR __imp__free
  0006c	83 c4 04	 add	 esp, 4

; 219  : 	}
; 220  : 	return false;

  0006f	32 c0		 xor	 al, al
  00071	5f		 pop	 edi
  00072	5e		 pop	 esi

; 221  : }

  00073	5d		 pop	 ebp
  00074	c2 04 00	 ret	 4
?delMem@?$CMemPool@USTEvent@@@@QAE_NPAUSTEvent@@@Z ENDP	; CMemPool<STEvent>::delMem
_TEXT	ENDS
; Function compile flags: /Ogtp
; File e:\infinia-library-3.0\com\include\commempool.h
;	COMDAT ?alloc@?$CMemPool@USTEvent@@@@QAEHHW4E_ALLOC_TYPE@@@Z
_TEXT	SEGMENT
__$EHRec$ = -12						; size = 12
$T2 = 8							; size = 4
_nMaxCount$ = 8						; size = 4
_Alloc_Type$ = 12					; size = 4
?alloc@?$CMemPool@USTEvent@@@@QAEHHW4E_ALLOC_TYPE@@@Z PROC ; CMemPool<STEvent>::alloc, COMDAT
; _this$ = ecx

; 95   : {

  00000	55		 push	 ebp
  00001	8b ec		 mov	 ebp, esp
  00003	6a ff		 push	 -1
  00005	68 00 00 00 00	 push	 __ehhandler$?alloc@?$CMemPool@USTEvent@@@@QAEHHW4E_ALLOC_TYPE@@@Z
  0000a	64 a1 00 00 00
	00		 mov	 eax, DWORD PTR fs:0
  00010	50		 push	 eax
  00011	53		 push	 ebx
  00012	56		 push	 esi
  00013	57		 push	 edi
  00014	a1 00 00 00 00	 mov	 eax, DWORD PTR ___security_cookie
  00019	33 c5		 xor	 eax, ebp
  0001b	50		 push	 eax
  0001c	8d 45 f4	 lea	 eax, DWORD PTR __$EHRec$[ebp]
  0001f	64 a3 00 00 00
	00		 mov	 DWORD PTR fs:0, eax
  00025	8b f9		 mov	 edi, ecx

; 96   : 	m_nFlagArray = new (std::nothrow) atomic_nr[nMaxCount];

  00027	8b 75 08	 mov	 esi, DWORD PTR _nMaxCount$[ebp]
  0002a	33 c9		 xor	 ecx, ecx
  0002c	8b c6		 mov	 eax, esi
  0002e	ba 04 00 00 00	 mov	 edx, 4
  00033	f7 e2		 mul	 edx
  00035	68 00 00 00 00	 push	 OFFSET ?nothrow@std@@3Unothrow_t@1@B ; std::nothrow
  0003a	0f 90 c1	 seto	 cl
  0003d	f7 d9		 neg	 ecx
  0003f	0b c8		 or	 ecx, eax
  00041	33 c0		 xor	 eax, eax
  00043	83 c1 04	 add	 ecx, 4
  00046	0f 92 c0	 setb	 al
  00049	f7 d8		 neg	 eax
  0004b	0b c1		 or	 eax, ecx
  0004d	50		 push	 eax
  0004e	e8 00 00 00 00	 call	 ??_U@YAPAXIABUnothrow_t@std@@@Z ; operator new[]
  00053	83 c4 08	 add	 esp, 8
  00056	89 45 08	 mov	 DWORD PTR $T2[ebp], eax
  00059	c7 45 fc 00 00
	00 00		 mov	 DWORD PTR __$EHRec$[ebp+8], 0
  00060	85 c0		 test	 eax, eax
  00062	74 1a		 je	 SHORT $LN10@alloc
  00064	68 00 00 00 00	 push	 OFFSET ??1win_atomic@win32@common@@QAE@XZ ; common::win32::win_atomic::~win_atomic
  00069	68 00 00 00 00	 push	 OFFSET ??0win_atomic@win32@common@@QAE@XZ ; common::win32::win_atomic::win_atomic
  0006e	56		 push	 esi
  0006f	8d 58 04	 lea	 ebx, DWORD PTR [eax+4]
  00072	89 30		 mov	 DWORD PTR [eax], esi
  00074	6a 04		 push	 4
  00076	53		 push	 ebx
  00077	e8 00 00 00 00	 call	 ??_L@YGXPAXIIP6EX0@Z1@Z
  0007c	eb 02		 jmp	 SHORT $LN11@alloc
$LN10@alloc:
  0007e	33 db		 xor	 ebx, ebx
$LN11@alloc:
  00080	c7 45 fc ff ff
	ff ff		 mov	 DWORD PTR __$EHRec$[ebp+8], -1
  00087	89 1f		 mov	 DWORD PTR [edi], ebx

; 97   : 	
; 98   : 	if(!m_nFlagArray) {

  00089	85 db		 test	 ebx, ebx
  0008b	75 29		 jne	 SHORT $LN4@alloc

; 99   : 		_stprintf(g_szMessage, _T("atomic_nr[%d] is NULL"), nMaxCount);

  0008d	56		 push	 esi
  0008e	68 00 00 00 00	 push	 OFFSET ??_C@_0BG@IBHMGBFD@atomic_nr?$FL?$CFd?$FN?5is?5NULL?$AA@
  00093	68 00 00 00 00	 push	 OFFSET ?g_szMessage@@3PADA ; g_szMessage
  00098	e8 00 00 00 00	 call	 _sprintf
  0009d	83 c4 0c	 add	 esp, 12			; 0000000cH

; 100  : 		return 0;

  000a0	33 c0		 xor	 eax, eax

; 124  : }

  000a2	8b 4d f4	 mov	 ecx, DWORD PTR __$EHRec$[ebp]
  000a5	64 89 0d 00 00
	00 00		 mov	 DWORD PTR fs:0, ecx
  000ac	59		 pop	 ecx
  000ad	5f		 pop	 edi
  000ae	5e		 pop	 esi
  000af	5b		 pop	 ebx
  000b0	8b e5		 mov	 esp, ebp
  000b2	5d		 pop	 ebp
  000b3	c2 08 00	 ret	 8
$LN4@alloc:

; 101  : 	}
; 102  : 
; 103  : 	m_nObjAllocType = Alloc_Type;

  000b6	8b 45 0c	 mov	 eax, DWORD PTR _Alloc_Type$[ebp]
  000b9	89 47 10	 mov	 DWORD PTR [edi+16], eax

; 104  : 
; 105  : 	switch (m_nObjAllocType) {

  000bc	83 e8 02	 sub	 eax, 2
  000bf	74 0e		 je	 SHORT $LN5@alloc
  000c1	83 e8 01	 sub	 eax, 1
  000c4	0f 84 90 00 00
	00		 je	 $LN6@alloc
  000ca	83 e8 02	 sub	 eax, 2
  000cd	75 23		 jne	 SHORT $LN7@alloc
$LN5@alloc:

; 106  : 	case eAlloc_Type_new		:
; 107  : 	case eAlloc_Type_newArray	:	m_pChunk = new (std::nothrow) MEMTYPE[nMaxCount]; break;

  000cf	33 c9		 xor	 ecx, ecx
  000d1	8b c6		 mov	 eax, esi
  000d3	ba 14 00 00 00	 mov	 edx, 20			; 00000014H
  000d8	f7 e2		 mul	 edx
  000da	68 00 00 00 00	 push	 OFFSET ?nothrow@std@@3Unothrow_t@1@B ; std::nothrow
  000df	0f 90 c1	 seto	 cl
  000e2	f7 d9		 neg	 ecx
  000e4	0b c8		 or	 ecx, eax
  000e6	51		 push	 ecx
  000e7	e8 00 00 00 00	 call	 ??_U@YAPAXIABUnothrow_t@std@@@Z ; operator new[]
$LN25@alloc:
  000ec	89 47 14	 mov	 DWORD PTR [edi+20], eax
  000ef	83 c4 08	 add	 esp, 8
$LN7@alloc:

; 109  : 	default: break;
; 110  : 	}
; 111  : 
; 112  : 
; 113  :     if(!m_pChunk) {

  000f2	83 7f 14 00	 cmp	 DWORD PTR [edi+20], 0
  000f6	75 6d		 jne	 SHORT $LN8@alloc

; 114  : 		_stprintf(g_szMessage, _T("m_pChunk is NULL [%d]"), nMaxCount);

  000f8	56		 push	 esi
  000f9	68 00 00 00 00	 push	 OFFSET ??_C@_0BG@JLOFHIPO@m_pChunk?5is?5NULL?5?$FL?$CFd?$FN?$AA@
  000fe	68 00 00 00 00	 push	 OFFSET ?g_szMessage@@3PADA ; g_szMessage
  00103	e8 00 00 00 00	 call	 _sprintf

; 115  : 		delete[] m_nFlagArray;

  00108	8b 07		 mov	 eax, DWORD PTR [edi]
  0010a	83 c4 0c	 add	 esp, 12			; 0000000cH
  0010d	85 c0		 test	 eax, eax
  0010f	74 2d		 je	 SHORT $LN18@alloc
  00111	68 00 00 00 00	 push	 OFFSET ??1win_atomic@win32@common@@QAE@XZ ; common::win32::win_atomic::~win_atomic
  00116	ff 70 fc	 push	 DWORD PTR [eax-4]
  00119	8d 70 fc	 lea	 esi, DWORD PTR [eax-4]
  0011c	c7 45 fc 01 00
	00 00		 mov	 DWORD PTR __$EHRec$[ebp+8], 1
  00123	6a 04		 push	 4
  00125	50		 push	 eax
  00126	e8 00 00 00 00	 call	 ??_M@YGXPAXIIP6EX0@Z@Z
  0012b	8b 06		 mov	 eax, DWORD PTR [esi]
  0012d	8d 04 85 04 00
	00 00		 lea	 eax, DWORD PTR [eax*4+4]
  00134	50		 push	 eax
  00135	56		 push	 esi
  00136	e8 00 00 00 00	 call	 ??_V@YAXPAXI@Z		; operator delete[]
  0013b	83 c4 08	 add	 esp, 8
$LN18@alloc:

; 116  : 		m_nFlagArray = NULL;

  0013e	c7 07 00 00 00
	00		 mov	 DWORD PTR [edi], 0

; 117  : 		return 0;

  00144	33 c0		 xor	 eax, eax

; 124  : }

  00146	8b 4d f4	 mov	 ecx, DWORD PTR __$EHRec$[ebp]
  00149	64 89 0d 00 00
	00 00		 mov	 DWORD PTR fs:0, ecx
  00150	59		 pop	 ecx
  00151	5f		 pop	 edi
  00152	5e		 pop	 esi
  00153	5b		 pop	 ebx
  00154	8b e5		 mov	 esp, ebp
  00156	5d		 pop	 ebp
  00157	c2 08 00	 ret	 8
$LN6@alloc:

; 108  : 	case eAlloc_Type_alloc		:	m_pChunk = (MEMTYPE *)calloc(nMaxCount, sizeof(MEMTYPE)); break;

  0015a	6a 14		 push	 20			; 00000014H
  0015c	56		 push	 esi
  0015d	ff 15 00 00 00
	00		 call	 DWORD PTR __imp__calloc
  00163	eb 87		 jmp	 SHORT $LN25@alloc
$LN8@alloc:

; 118  :     }
; 119  : 
; 120  :     m_nAllocCount   = nMaxCount;
; 121  : 	clear();

  00165	8b cf		 mov	 ecx, edi
  00167	89 77 0c	 mov	 DWORD PTR [edi+12], esi
  0016a	e8 00 00 00 00	 call	 ?clear@?$CMemPool@USTEvent@@@@QAEXXZ ; CMemPool<STEvent>::clear

; 122  : 	//_stprintf(m_szMessage, _T("mem allock list m_nAllocCount[%d]"), m_nAllocCount);
; 123  : 	return 1;

  0016f	b8 01 00 00 00	 mov	 eax, 1

; 124  : }

  00174	8b 4d f4	 mov	 ecx, DWORD PTR __$EHRec$[ebp]
  00177	64 89 0d 00 00
	00 00		 mov	 DWORD PTR fs:0, ecx
  0017e	59		 pop	 ecx
  0017f	5f		 pop	 edi
  00180	5e		 pop	 esi
  00181	5b		 pop	 ebx
  00182	8b e5		 mov	 esp, ebp
  00184	5d		 pop	 ebp
  00185	c2 08 00	 ret	 8
_TEXT	ENDS
;	COMDAT text$x
text$x	SEGMENT
__unwindfunclet$?alloc@?$CMemPool@USTEvent@@@@QAEHHW4E_ALLOC_TYPE@@@Z$0:
  00000	68 00 00 00 00	 push	 OFFSET ?nothrow@std@@3Unothrow_t@1@B ; std::nothrow
  00005	8b 45 08	 mov	 eax, DWORD PTR $T2[ebp]
  00008	50		 push	 eax
  00009	e8 00 00 00 00	 call	 ??_V@YAXPAXABUnothrow_t@std@@@Z ; operator delete[]
  0000e	83 c4 08	 add	 esp, 8
  00011	c3		 ret	 0
__unwindfunclet$?alloc@?$CMemPool@USTEvent@@@@QAEHHW4E_ALLOC_TYPE@@@Z$1:
  00012	e8 00 00 00 00	 call	 ___std_terminate
  00017	c3		 ret	 0
__ehhandler$?alloc@?$CMemPool@USTEvent@@@@QAEHHW4E_ALLOC_TYPE@@@Z:
  00018	8b 54 24 08	 mov	 edx, DWORD PTR [esp+8]
  0001c	8d 42 0c	 lea	 eax, DWORD PTR [edx+12]
  0001f	8b 4a f0	 mov	 ecx, DWORD PTR [edx-16]
  00022	33 c8		 xor	 ecx, eax
  00024	e8 00 00 00 00	 call	 @__security_check_cookie@4
  00029	b8 00 00 00 00	 mov	 eax, OFFSET __ehfuncinfo$?alloc@?$CMemPool@USTEvent@@@@QAEHHW4E_ALLOC_TYPE@@@Z
  0002e	e9 00 00 00 00	 jmp	 ___CxxFrameHandler3
text$x	ENDS
?alloc@?$CMemPool@USTEvent@@@@QAEHHW4E_ALLOC_TYPE@@@Z ENDP ; CMemPool<STEvent>::alloc
; Function compile flags: /Ogtp
; File e:\infinia-library-3.0\com\include\commempool.h
; File e:\infinia-library-3.0\com\include\com\win32\win32_mtsync.h
; File e:\infinia-library-3.0\com\include\commempool.h
; File e:\infinia-library-3.0\com\include\com\win32\win32_mtsync.h
; File e:\infinia-library-3.0\com\include\commempool.h
;	COMDAT ?clear@?$CMemPool@USTEvent@@@@QAEXXZ
_TEXT	SEGMENT
?clear@?$CMemPool@USTEvent@@@@QAEXXZ PROC		; CMemPool<STEvent>::clear, COMDAT
; _this$ = ecx

; 130  : {

  00000	8b d1		 mov	 edx, ecx

; 134  : 	for(i = 0; i < m_nAllocCount; i++)

  00002	33 c0		 xor	 eax, eax
; File e:\infinia-library-3.0\com\include\com\win32\win32_mtsync.h

; 94   : 	inline void init() { m_count = 0; }

  00004	c7 42 04 00 00
	00 00		 mov	 DWORD PTR [edx+4], 0
; File e:\infinia-library-3.0\com\include\commempool.h

; 133  : 	m_nLastCount = 0;

  0000b	c7 42 08 00 00
	00 00		 mov	 DWORD PTR [edx+8], 0

; 134  : 	for(i = 0; i < m_nAllocCount; i++)

  00012	39 42 0c	 cmp	 DWORD PTR [edx+12], eax
  00015	7e 18		 jle	 SHORT $LN3@clear
  00017	66 0f 1f 84 00
	00 00 00 00	 npad	 9
$LL4@clear:
; File e:\infinia-library-3.0\com\include\com\win32\win32_mtsync.h

; 94   : 	inline void init() { m_count = 0; }

  00020	8b 0a		 mov	 ecx, DWORD PTR [edx]
  00022	c7 04 81 00 00
	00 00		 mov	 DWORD PTR [ecx+eax*4], 0
; File e:\infinia-library-3.0\com\include\commempool.h

; 134  : 	for(i = 0; i < m_nAllocCount; i++)

  00029	40		 inc	 eax
  0002a	3b 42 0c	 cmp	 eax, DWORD PTR [edx+12]
  0002d	7c f1		 jl	 SHORT $LL4@clear
$LN3@clear:

; 135  : 	{
; 136  : 		m_nFlagArray[i].init();
; 137  : 	}
; 138  : }

  0002f	c3		 ret	 0
?clear@?$CMemPool@USTEvent@@@@QAEXXZ ENDP		; CMemPool<STEvent>::clear
_TEXT	ENDS
; Function compile flags: /Ogtp
; File e:\infinia-library-3.0\com\include\commempool.h
;	COMDAT ??1?$CMemPool@USTEvent@@@@QAE@XZ
_TEXT	SEGMENT
__$EHRec$ = -12						; size = 12
??1?$CMemPool@USTEvent@@@@QAE@XZ PROC			; CMemPool<STEvent>::~CMemPool<STEvent>, COMDAT
; _this$ = ecx

; 75   : {

  00000	55		 push	 ebp
  00001	8b ec		 mov	 ebp, esp
  00003	6a ff		 push	 -1
  00005	68 00 00 00 00	 push	 __ehhandler$??1?$CMemPool@USTEvent@@@@QAE@XZ
  0000a	64 a1 00 00 00
	00		 mov	 eax, DWORD PTR fs:0
  00010	50		 push	 eax
  00011	56		 push	 esi
  00012	57		 push	 edi
  00013	a1 00 00 00 00	 mov	 eax, DWORD PTR ___security_cookie
  00018	33 c5		 xor	 eax, ebp
  0001a	50		 push	 eax
  0001b	8d 45 f4	 lea	 eax, DWORD PTR __$EHRec$[ebp]
  0001e	64 a3 00 00 00
	00		 mov	 DWORD PTR fs:0, eax
  00024	8b f9		 mov	 edi, ecx

; 76   : 	if (m_nFlagArray) {

  00026	8b 07		 mov	 eax, DWORD PTR [edi]
  00028	85 c0		 test	 eax, eax
  0002a	74 33		 je	 SHORT $LN4@CMemPool

; 77   : 		delete[] m_nFlagArray;
; 78   : 		m_nFlagArray = NULL;

  0002c	68 00 00 00 00	 push	 OFFSET ??1win_atomic@win32@common@@QAE@XZ ; common::win32::win_atomic::~win_atomic
  00031	ff 70 fc	 push	 DWORD PTR [eax-4]
  00034	8d 70 fc	 lea	 esi, DWORD PTR [eax-4]
  00037	c7 45 fc 00 00
	00 00		 mov	 DWORD PTR __$EHRec$[ebp+8], 0
  0003e	6a 04		 push	 4
  00040	50		 push	 eax
  00041	e8 00 00 00 00	 call	 ??_M@YGXPAXIIP6EX0@Z@Z
  00046	8b 06		 mov	 eax, DWORD PTR [esi]
  00048	8d 04 85 04 00
	00 00		 lea	 eax, DWORD PTR [eax*4+4]
  0004f	50		 push	 eax
  00050	56		 push	 esi
  00051	e8 00 00 00 00	 call	 ??_V@YAXPAXI@Z		; operator delete[]
  00056	83 c4 08	 add	 esp, 8
  00059	c7 07 00 00 00
	00		 mov	 DWORD PTR [edi], 0
$LN4@CMemPool:

; 79   : 	}
; 80   : 	
; 81   : 	if(m_pChunk) {

  0005f	8b 4f 14	 mov	 ecx, DWORD PTR [edi+20]
  00062	85 c9		 test	 ecx, ecx
  00064	74 22		 je	 SHORT $LN5@CMemPool

; 82   : 		switch (m_nObjAllocType) {

  00066	8b 47 10	 mov	 eax, DWORD PTR [edi+16]
  00069	83 e8 02	 sub	 eax, 2
  0006c	74 0a		 je	 SHORT $LN6@CMemPool
  0006e	83 e8 01	 sub	 eax, 1
  00071	74 26		 je	 SHORT $LN7@CMemPool
  00073	83 e8 02	 sub	 eax, 2
  00076	75 09		 jne	 SHORT $LN2@CMemPool
$LN6@CMemPool:

; 83   : 		case eAlloc_Type_new:		
; 84   : 		case eAlloc_Type_newArray:	delete[] m_pChunk; break;

  00078	51		 push	 ecx
  00079	e8 00 00 00 00	 call	 ??_V@YAXPAX@Z		; operator delete[]
$LN24@CMemPool:
  0007e	83 c4 04	 add	 esp, 4
$LN2@CMemPool:

; 86   : 		}
; 87   : 		
; 88   : 		m_pChunk = NULL;

  00081	c7 47 14 00 00
	00 00		 mov	 DWORD PTR [edi+20], 0
$LN5@CMemPool:

; 89   : 	}
; 90   : 
; 91   : }

  00088	8b 4d f4	 mov	 ecx, DWORD PTR __$EHRec$[ebp]
  0008b	64 89 0d 00 00
	00 00		 mov	 DWORD PTR fs:0, ecx
  00092	59		 pop	 ecx
  00093	5f		 pop	 edi
  00094	5e		 pop	 esi
  00095	8b e5		 mov	 esp, ebp
  00097	5d		 pop	 ebp
  00098	c3		 ret	 0
$LN7@CMemPool:

; 85   : 		case eAlloc_Type_alloc:		free(m_pChunk); break;

  00099	51		 push	 ecx
  0009a	ff 15 00 00 00
	00		 call	 DWORD PTR __imp__free
  000a0	eb dc		 jmp	 SHORT $LN24@CMemPool
_TEXT	ENDS
;	COMDAT text$x
text$x	SEGMENT
__unwindfunclet$??1?$CMemPool@USTEvent@@@@QAE@XZ$0:
  00000	e8 00 00 00 00	 call	 ___std_terminate
  00005	c3		 ret	 0
__ehhandler$??1?$CMemPool@USTEvent@@@@QAE@XZ:
  00006	8b 54 24 08	 mov	 edx, DWORD PTR [esp+8]
  0000a	8d 42 0c	 lea	 eax, DWORD PTR [edx+12]
  0000d	8b 4a f4	 mov	 ecx, DWORD PTR [edx-12]
  00010	33 c8		 xor	 ecx, eax
  00012	e8 00 00 00 00	 call	 @__security_check_cookie@4
  00017	b8 00 00 00 00	 mov	 eax, OFFSET __ehfuncinfo$??1?$CMemPool@USTEvent@@@@QAE@XZ
  0001c	e9 00 00 00 00	 jmp	 ___CxxFrameHandler3
text$x	ENDS
??1?$CMemPool@USTEvent@@@@QAE@XZ ENDP			; CMemPool<STEvent>::~CMemPool<STEvent>
; Function compile flags: /Ogtp
; File e:\infinia-library-3.0\com\include\commempool.h
; File e:\infinia-library-3.0\com\include\com\win32\win32_mtsync.h
; File e:\infinia-library-3.0\com\include\commempool.h
;	COMDAT ??0?$CMemPool@USTEvent@@@@QAE@XZ
_TEXT	SEGMENT
??0?$CMemPool@USTEvent@@@@QAE@XZ PROC			; CMemPool<STEvent>::CMemPool<STEvent>, COMDAT
; _this$ = ecx
; File e:\infinia-library-3.0\com\include\com\win32\win32_mtsync.h

; 87   : 	win_atomic() {m_count = 0;}

  00000	c7 41 04 00 00
	00 00		 mov	 DWORD PTR [ecx+4], 0
; File e:\infinia-library-3.0\com\include\commempool.h

; 71   : }

  00007	8b c1		 mov	 eax, ecx
  00009	c7 41 0c 00 00
	00 00		 mov	 DWORD PTR [ecx+12], 0
  00010	c7 41 08 00 00
	00 00		 mov	 DWORD PTR [ecx+8], 0
  00017	c7 41 14 00 00
	00 00		 mov	 DWORD PTR [ecx+20], 0
  0001e	c7 01 00 00 00
	00		 mov	 DWORD PTR [ecx], 0
  00024	c7 41 10 00 00
	00 00		 mov	 DWORD PTR [ecx+16], 0
  0002b	c3		 ret	 0
??0?$CMemPool@USTEvent@@@@QAE@XZ ENDP			; CMemPool<STEvent>::CMemPool<STEvent>
_TEXT	ENDS
; Function compile flags: /Ogtp
;	COMDAT ??_G?$CMemPool@USTIntervalInfo@@@@QAEPAXI@Z
_TEXT	SEGMENT
___flags$ = 8						; size = 4
??_G?$CMemPool@USTIntervalInfo@@@@QAEPAXI@Z PROC	; CMemPool<STIntervalInfo>::`scalar deleting destructor', COMDAT
; _this$ = ecx
  00000	55		 push	 ebp
  00001	8b ec		 mov	 ebp, esp
  00003	56		 push	 esi
  00004	8b f1		 mov	 esi, ecx
  00006	e8 00 00 00 00	 call	 ??1?$CMemPool@USTIntervalInfo@@@@QAE@XZ ; CMemPool<STIntervalInfo>::~CMemPool<STIntervalInfo>
  0000b	f6 45 08 01	 test	 BYTE PTR ___flags$[ebp], 1
  0000f	74 0b		 je	 SHORT $LN4@scalar
  00011	6a 18		 push	 24			; 00000018H
  00013	56		 push	 esi
  00014	e8 00 00 00 00	 call	 ??3@YAXPAXI@Z		; operator delete
  00019	83 c4 08	 add	 esp, 8
$LN4@scalar:
  0001c	8b c6		 mov	 eax, esi
  0001e	5e		 pop	 esi
  0001f	5d		 pop	 ebp
  00020	c2 04 00	 ret	 4
??_G?$CMemPool@USTIntervalInfo@@@@QAEPAXI@Z ENDP	; CMemPool<STIntervalInfo>::`scalar deleting destructor'
_TEXT	ENDS
; Function compile flags: /Ogtp
;	COMDAT ?__autoclassinit2@?$CMemPool@USTIntervalInfo@@@@QAEXI@Z
_TEXT	SEGMENT
_classSize$ = 8						; size = 4
?__autoclassinit2@?$CMemPool@USTIntervalInfo@@@@QAEXI@Z PROC ; CMemPool<STIntervalInfo>::__autoclassinit2, COMDAT
; _this$ = ecx
  00000	55		 push	 ebp
  00001	8b ec		 mov	 ebp, esp
  00003	ff 75 08	 push	 DWORD PTR _classSize$[ebp]
  00006	6a 00		 push	 0
  00008	51		 push	 ecx
  00009	e8 00 00 00 00	 call	 _memset
  0000e	83 c4 0c	 add	 esp, 12			; 0000000cH
  00011	5d		 pop	 ebp
  00012	c2 04 00	 ret	 4
?__autoclassinit2@?$CMemPool@USTIntervalInfo@@@@QAEXI@Z ENDP ; CMemPool<STIntervalInfo>::__autoclassinit2
_TEXT	ENDS
; Function compile flags: /Ogtp
; File e:\infinia-library-3.0\com\include\commempool.h
;	COMDAT ?alloc@?$CMemPool@USTIntervalInfo@@@@QAEHHW4E_ALLOC_TYPE@@@Z
_TEXT	SEGMENT
__$EHRec$ = -12						; size = 12
$T2 = 8							; size = 4
_nMaxCount$ = 8						; size = 4
_Alloc_Type$ = 12					; size = 4
?alloc@?$CMemPool@USTIntervalInfo@@@@QAEHHW4E_ALLOC_TYPE@@@Z PROC ; CMemPool<STIntervalInfo>::alloc, COMDAT
; _this$ = ecx

; 95   : {

  00000	55		 push	 ebp
  00001	8b ec		 mov	 ebp, esp
  00003	6a ff		 push	 -1
  00005	68 00 00 00 00	 push	 __ehhandler$?alloc@?$CMemPool@USTIntervalInfo@@@@QAEHHW4E_ALLOC_TYPE@@@Z
  0000a	64 a1 00 00 00
	00		 mov	 eax, DWORD PTR fs:0
  00010	50		 push	 eax
  00011	53		 push	 ebx
  00012	56		 push	 esi
  00013	57		 push	 edi
  00014	a1 00 00 00 00	 mov	 eax, DWORD PTR ___security_cookie
  00019	33 c5		 xor	 eax, ebp
  0001b	50		 push	 eax
  0001c	8d 45 f4	 lea	 eax, DWORD PTR __$EHRec$[ebp]
  0001f	64 a3 00 00 00
	00		 mov	 DWORD PTR fs:0, eax
  00025	8b f9		 mov	 edi, ecx

; 96   : 	m_nFlagArray = new (std::nothrow) atomic_nr[nMaxCount];

  00027	8b 75 08	 mov	 esi, DWORD PTR _nMaxCount$[ebp]
  0002a	33 c9		 xor	 ecx, ecx
  0002c	8b c6		 mov	 eax, esi
  0002e	ba 04 00 00 00	 mov	 edx, 4
  00033	f7 e2		 mul	 edx
  00035	68 00 00 00 00	 push	 OFFSET ?nothrow@std@@3Unothrow_t@1@B ; std::nothrow
  0003a	0f 90 c1	 seto	 cl
  0003d	f7 d9		 neg	 ecx
  0003f	0b c8		 or	 ecx, eax
  00041	33 c0		 xor	 eax, eax
  00043	83 c1 04	 add	 ecx, 4
  00046	0f 92 c0	 setb	 al
  00049	f7 d8		 neg	 eax
  0004b	0b c1		 or	 eax, ecx
  0004d	50		 push	 eax
  0004e	e8 00 00 00 00	 call	 ??_U@YAPAXIABUnothrow_t@std@@@Z ; operator new[]
  00053	83 c4 08	 add	 esp, 8
  00056	89 45 08	 mov	 DWORD PTR $T2[ebp], eax
  00059	c7 45 fc 00 00
	00 00		 mov	 DWORD PTR __$EHRec$[ebp+8], 0
  00060	85 c0		 test	 eax, eax
  00062	74 1a		 je	 SHORT $LN10@alloc
  00064	68 00 00 00 00	 push	 OFFSET ??1win_atomic@win32@common@@QAE@XZ ; common::win32::win_atomic::~win_atomic
  00069	68 00 00 00 00	 push	 OFFSET ??0win_atomic@win32@common@@QAE@XZ ; common::win32::win_atomic::win_atomic
  0006e	56		 push	 esi
  0006f	8d 58 04	 lea	 ebx, DWORD PTR [eax+4]
  00072	89 30		 mov	 DWORD PTR [eax], esi
  00074	6a 04		 push	 4
  00076	53		 push	 ebx
  00077	e8 00 00 00 00	 call	 ??_L@YGXPAXIIP6EX0@Z1@Z
  0007c	eb 02		 jmp	 SHORT $LN11@alloc
$LN10@alloc:
  0007e	33 db		 xor	 ebx, ebx
$LN11@alloc:
  00080	c7 45 fc ff ff
	ff ff		 mov	 DWORD PTR __$EHRec$[ebp+8], -1
  00087	89 1f		 mov	 DWORD PTR [edi], ebx

; 97   : 	
; 98   : 	if(!m_nFlagArray) {

  00089	85 db		 test	 ebx, ebx
  0008b	75 29		 jne	 SHORT $LN4@alloc

; 99   : 		_stprintf(g_szMessage, _T("atomic_nr[%d] is NULL"), nMaxCount);

  0008d	56		 push	 esi
  0008e	68 00 00 00 00	 push	 OFFSET ??_C@_0BG@IBHMGBFD@atomic_nr?$FL?$CFd?$FN?5is?5NULL?$AA@
  00093	68 00 00 00 00	 push	 OFFSET ?g_szMessage@@3PADA ; g_szMessage
  00098	e8 00 00 00 00	 call	 _sprintf
  0009d	83 c4 0c	 add	 esp, 12			; 0000000cH

; 100  : 		return 0;

  000a0	33 c0		 xor	 eax, eax

; 124  : }

  000a2	8b 4d f4	 mov	 ecx, DWORD PTR __$EHRec$[ebp]
  000a5	64 89 0d 00 00
	00 00		 mov	 DWORD PTR fs:0, ecx
  000ac	59		 pop	 ecx
  000ad	5f		 pop	 edi
  000ae	5e		 pop	 esi
  000af	5b		 pop	 ebx
  000b0	8b e5		 mov	 esp, ebp
  000b2	5d		 pop	 ebp
  000b3	c2 08 00	 ret	 8
$LN4@alloc:

; 101  : 	}
; 102  : 
; 103  : 	m_nObjAllocType = Alloc_Type;

  000b6	8b 45 0c	 mov	 eax, DWORD PTR _Alloc_Type$[ebp]
  000b9	89 47 10	 mov	 DWORD PTR [edi+16], eax

; 104  : 
; 105  : 	switch (m_nObjAllocType) {

  000bc	83 e8 02	 sub	 eax, 2
  000bf	74 0e		 je	 SHORT $LN5@alloc
  000c1	83 e8 01	 sub	 eax, 1
  000c4	0f 84 90 00 00
	00		 je	 $LN6@alloc
  000ca	83 e8 02	 sub	 eax, 2
  000cd	75 23		 jne	 SHORT $LN7@alloc
$LN5@alloc:

; 106  : 	case eAlloc_Type_new		:
; 107  : 	case eAlloc_Type_newArray	:	m_pChunk = new (std::nothrow) MEMTYPE[nMaxCount]; break;

  000cf	33 c9		 xor	 ecx, ecx
  000d1	8b c6		 mov	 eax, esi
  000d3	ba 1c 00 00 00	 mov	 edx, 28			; 0000001cH
  000d8	f7 e2		 mul	 edx
  000da	68 00 00 00 00	 push	 OFFSET ?nothrow@std@@3Unothrow_t@1@B ; std::nothrow
  000df	0f 90 c1	 seto	 cl
  000e2	f7 d9		 neg	 ecx
  000e4	0b c8		 or	 ecx, eax
  000e6	51		 push	 ecx
  000e7	e8 00 00 00 00	 call	 ??_U@YAPAXIABUnothrow_t@std@@@Z ; operator new[]
$LN25@alloc:
  000ec	89 47 14	 mov	 DWORD PTR [edi+20], eax
  000ef	83 c4 08	 add	 esp, 8
$LN7@alloc:

; 109  : 	default: break;
; 110  : 	}
; 111  : 
; 112  : 
; 113  :     if(!m_pChunk) {

  000f2	83 7f 14 00	 cmp	 DWORD PTR [edi+20], 0
  000f6	75 6d		 jne	 SHORT $LN8@alloc

; 114  : 		_stprintf(g_szMessage, _T("m_pChunk is NULL [%d]"), nMaxCount);

  000f8	56		 push	 esi
  000f9	68 00 00 00 00	 push	 OFFSET ??_C@_0BG@JLOFHIPO@m_pChunk?5is?5NULL?5?$FL?$CFd?$FN?$AA@
  000fe	68 00 00 00 00	 push	 OFFSET ?g_szMessage@@3PADA ; g_szMessage
  00103	e8 00 00 00 00	 call	 _sprintf

; 115  : 		delete[] m_nFlagArray;

  00108	8b 07		 mov	 eax, DWORD PTR [edi]
  0010a	83 c4 0c	 add	 esp, 12			; 0000000cH
  0010d	85 c0		 test	 eax, eax
  0010f	74 2d		 je	 SHORT $LN18@alloc
  00111	68 00 00 00 00	 push	 OFFSET ??1win_atomic@win32@common@@QAE@XZ ; common::win32::win_atomic::~win_atomic
  00116	ff 70 fc	 push	 DWORD PTR [eax-4]
  00119	8d 70 fc	 lea	 esi, DWORD PTR [eax-4]
  0011c	c7 45 fc 01 00
	00 00		 mov	 DWORD PTR __$EHRec$[ebp+8], 1
  00123	6a 04		 push	 4
  00125	50		 push	 eax
  00126	e8 00 00 00 00	 call	 ??_M@YGXPAXIIP6EX0@Z@Z
  0012b	8b 06		 mov	 eax, DWORD PTR [esi]
  0012d	8d 04 85 04 00
	00 00		 lea	 eax, DWORD PTR [eax*4+4]
  00134	50		 push	 eax
  00135	56		 push	 esi
  00136	e8 00 00 00 00	 call	 ??_V@YAXPAXI@Z		; operator delete[]
  0013b	83 c4 08	 add	 esp, 8
$LN18@alloc:

; 116  : 		m_nFlagArray = NULL;

  0013e	c7 07 00 00 00
	00		 mov	 DWORD PTR [edi], 0

; 117  : 		return 0;

  00144	33 c0		 xor	 eax, eax

; 124  : }

  00146	8b 4d f4	 mov	 ecx, DWORD PTR __$EHRec$[ebp]
  00149	64 89 0d 00 00
	00 00		 mov	 DWORD PTR fs:0, ecx
  00150	59		 pop	 ecx
  00151	5f		 pop	 edi
  00152	5e		 pop	 esi
  00153	5b		 pop	 ebx
  00154	8b e5		 mov	 esp, ebp
  00156	5d		 pop	 ebp
  00157	c2 08 00	 ret	 8
$LN6@alloc:

; 108  : 	case eAlloc_Type_alloc		:	m_pChunk = (MEMTYPE *)calloc(nMaxCount, sizeof(MEMTYPE)); break;

  0015a	6a 1c		 push	 28			; 0000001cH
  0015c	56		 push	 esi
  0015d	ff 15 00 00 00
	00		 call	 DWORD PTR __imp__calloc
  00163	eb 87		 jmp	 SHORT $LN25@alloc
$LN8@alloc:

; 118  :     }
; 119  : 
; 120  :     m_nAllocCount   = nMaxCount;
; 121  : 	clear();

  00165	8b cf		 mov	 ecx, edi
  00167	89 77 0c	 mov	 DWORD PTR [edi+12], esi
  0016a	e8 00 00 00 00	 call	 ?clear@?$CMemPool@USTIntervalInfo@@@@QAEXXZ ; CMemPool<STIntervalInfo>::clear

; 122  : 	//_stprintf(m_szMessage, _T("mem allock list m_nAllocCount[%d]"), m_nAllocCount);
; 123  : 	return 1;

  0016f	b8 01 00 00 00	 mov	 eax, 1

; 124  : }

  00174	8b 4d f4	 mov	 ecx, DWORD PTR __$EHRec$[ebp]
  00177	64 89 0d 00 00
	00 00		 mov	 DWORD PTR fs:0, ecx
  0017e	59		 pop	 ecx
  0017f	5f		 pop	 edi
  00180	5e		 pop	 esi
  00181	5b		 pop	 ebx
  00182	8b e5		 mov	 esp, ebp
  00184	5d		 pop	 ebp
  00185	c2 08 00	 ret	 8
_TEXT	ENDS
;	COMDAT text$x
text$x	SEGMENT
__unwindfunclet$?alloc@?$CMemPool@USTIntervalInfo@@@@QAEHHW4E_ALLOC_TYPE@@@Z$0:
  00000	68 00 00 00 00	 push	 OFFSET ?nothrow@std@@3Unothrow_t@1@B ; std::nothrow
  00005	8b 45 08	 mov	 eax, DWORD PTR $T2[ebp]
  00008	50		 push	 eax
  00009	e8 00 00 00 00	 call	 ??_V@YAXPAXABUnothrow_t@std@@@Z ; operator delete[]
  0000e	83 c4 08	 add	 esp, 8
  00011	c3		 ret	 0
__unwindfunclet$?alloc@?$CMemPool@USTIntervalInfo@@@@QAEHHW4E_ALLOC_TYPE@@@Z$1:
  00012	e8 00 00 00 00	 call	 ___std_terminate
  00017	c3		 ret	 0
__ehhandler$?alloc@?$CMemPool@USTIntervalInfo@@@@QAEHHW4E_ALLOC_TYPE@@@Z:
  00018	8b 54 24 08	 mov	 edx, DWORD PTR [esp+8]
  0001c	8d 42 0c	 lea	 eax, DWORD PTR [edx+12]
  0001f	8b 4a f0	 mov	 ecx, DWORD PTR [edx-16]
  00022	33 c8		 xor	 ecx, eax
  00024	e8 00 00 00 00	 call	 @__security_check_cookie@4
  00029	b8 00 00 00 00	 mov	 eax, OFFSET __ehfuncinfo$?alloc@?$CMemPool@USTIntervalInfo@@@@QAEHHW4E_ALLOC_TYPE@@@Z
  0002e	e9 00 00 00 00	 jmp	 ___CxxFrameHandler3
text$x	ENDS
?alloc@?$CMemPool@USTIntervalInfo@@@@QAEHHW4E_ALLOC_TYPE@@@Z ENDP ; CMemPool<STIntervalInfo>::alloc
; Function compile flags: /Ogtp
; File e:\infinia-library-3.0\com\include\commempool.h
; File e:\infinia-library-3.0\com\include\com\win32\win32_mtsync.h
; File e:\infinia-library-3.0\com\include\commempool.h
; File e:\infinia-library-3.0\com\include\com\win32\win32_mtsync.h
; File e:\infinia-library-3.0\com\include\commempool.h
;	COMDAT ?clear@?$CMemPool@USTIntervalInfo@@@@QAEXXZ
_TEXT	SEGMENT
?clear@?$CMemPool@USTIntervalInfo@@@@QAEXXZ PROC	; CMemPool<STIntervalInfo>::clear, COMDAT
; _this$ = ecx

; 130  : {

  00000	8b d1		 mov	 edx, ecx

; 134  : 	for(i = 0; i < m_nAllocCount; i++)

  00002	33 c0		 xor	 eax, eax
; File e:\infinia-library-3.0\com\include\com\win32\win32_mtsync.h

; 94   : 	inline void init() { m_count = 0; }

  00004	c7 42 04 00 00
	00 00		 mov	 DWORD PTR [edx+4], 0
; File e:\infinia-library-3.0\com\include\commempool.h

; 133  : 	m_nLastCount = 0;

  0000b	c7 42 08 00 00
	00 00		 mov	 DWORD PTR [edx+8], 0

; 134  : 	for(i = 0; i < m_nAllocCount; i++)

  00012	39 42 0c	 cmp	 DWORD PTR [edx+12], eax
  00015	7e 18		 jle	 SHORT $LN3@clear
  00017	66 0f 1f 84 00
	00 00 00 00	 npad	 9
$LL4@clear:
; File e:\infinia-library-3.0\com\include\com\win32\win32_mtsync.h

; 94   : 	inline void init() { m_count = 0; }

  00020	8b 0a		 mov	 ecx, DWORD PTR [edx]
  00022	c7 04 81 00 00
	00 00		 mov	 DWORD PTR [ecx+eax*4], 0
; File e:\infinia-library-3.0\com\include\commempool.h

; 134  : 	for(i = 0; i < m_nAllocCount; i++)

  00029	40		 inc	 eax
  0002a	3b 42 0c	 cmp	 eax, DWORD PTR [edx+12]
  0002d	7c f1		 jl	 SHORT $LL4@clear
$LN3@clear:

; 135  : 	{
; 136  : 		m_nFlagArray[i].init();
; 137  : 	}
; 138  : }

  0002f	c3		 ret	 0
?clear@?$CMemPool@USTIntervalInfo@@@@QAEXXZ ENDP	; CMemPool<STIntervalInfo>::clear
_TEXT	ENDS
; Function compile flags: /Ogtp
; File e:\infinia-library-3.0\com\include\commempool.h
;	COMDAT ??1?$CMemPool@USTIntervalInfo@@@@QAE@XZ
_TEXT	SEGMENT
__$EHRec$ = -12						; size = 12
??1?$CMemPool@USTIntervalInfo@@@@QAE@XZ PROC		; CMemPool<STIntervalInfo>::~CMemPool<STIntervalInfo>, COMDAT
; _this$ = ecx

; 75   : {

  00000	55		 push	 ebp
  00001	8b ec		 mov	 ebp, esp
  00003	6a ff		 push	 -1
  00005	68 00 00 00 00	 push	 __ehhandler$??1?$CMemPool@USTIntervalInfo@@@@QAE@XZ
  0000a	64 a1 00 00 00
	00		 mov	 eax, DWORD PTR fs:0
  00010	50		 push	 eax
  00011	56		 push	 esi
  00012	57		 push	 edi
  00013	a1 00 00 00 00	 mov	 eax, DWORD PTR ___security_cookie
  00018	33 c5		 xor	 eax, ebp
  0001a	50		 push	 eax
  0001b	8d 45 f4	 lea	 eax, DWORD PTR __$EHRec$[ebp]
  0001e	64 a3 00 00 00
	00		 mov	 DWORD PTR fs:0, eax
  00024	8b f9		 mov	 edi, ecx

; 76   : 	if (m_nFlagArray) {

  00026	8b 07		 mov	 eax, DWORD PTR [edi]
  00028	85 c0		 test	 eax, eax
  0002a	74 33		 je	 SHORT $LN4@CMemPool

; 77   : 		delete[] m_nFlagArray;
; 78   : 		m_nFlagArray = NULL;

  0002c	68 00 00 00 00	 push	 OFFSET ??1win_atomic@win32@common@@QAE@XZ ; common::win32::win_atomic::~win_atomic
  00031	ff 70 fc	 push	 DWORD PTR [eax-4]
  00034	8d 70 fc	 lea	 esi, DWORD PTR [eax-4]
  00037	c7 45 fc 00 00
	00 00		 mov	 DWORD PTR __$EHRec$[ebp+8], 0
  0003e	6a 04		 push	 4
  00040	50		 push	 eax
  00041	e8 00 00 00 00	 call	 ??_M@YGXPAXIIP6EX0@Z@Z
  00046	8b 06		 mov	 eax, DWORD PTR [esi]
  00048	8d 04 85 04 00
	00 00		 lea	 eax, DWORD PTR [eax*4+4]
  0004f	50		 push	 eax
  00050	56		 push	 esi
  00051	e8 00 00 00 00	 call	 ??_V@YAXPAXI@Z		; operator delete[]
  00056	83 c4 08	 add	 esp, 8
  00059	c7 07 00 00 00
	00		 mov	 DWORD PTR [edi], 0
$LN4@CMemPool:

; 79   : 	}
; 80   : 	
; 81   : 	if(m_pChunk) {

  0005f	8b 4f 14	 mov	 ecx, DWORD PTR [edi+20]
  00062	85 c9		 test	 ecx, ecx
  00064	74 22		 je	 SHORT $LN5@CMemPool

; 82   : 		switch (m_nObjAllocType) {

  00066	8b 47 10	 mov	 eax, DWORD PTR [edi+16]
  00069	83 e8 02	 sub	 eax, 2
  0006c	74 0a		 je	 SHORT $LN6@CMemPool
  0006e	83 e8 01	 sub	 eax, 1
  00071	74 26		 je	 SHORT $LN7@CMemPool
  00073	83 e8 02	 sub	 eax, 2
  00076	75 09		 jne	 SHORT $LN2@CMemPool
$LN6@CMemPool:

; 83   : 		case eAlloc_Type_new:		
; 84   : 		case eAlloc_Type_newArray:	delete[] m_pChunk; break;

  00078	51		 push	 ecx
  00079	e8 00 00 00 00	 call	 ??_V@YAXPAX@Z		; operator delete[]
$LN24@CMemPool:
  0007e	83 c4 04	 add	 esp, 4
$LN2@CMemPool:

; 86   : 		}
; 87   : 		
; 88   : 		m_pChunk = NULL;

  00081	c7 47 14 00 00
	00 00		 mov	 DWORD PTR [edi+20], 0
$LN5@CMemPool:

; 89   : 	}
; 90   : 
; 91   : }

  00088	8b 4d f4	 mov	 ecx, DWORD PTR __$EHRec$[ebp]
  0008b	64 89 0d 00 00
	00 00		 mov	 DWORD PTR fs:0, ecx
  00092	59		 pop	 ecx
  00093	5f		 pop	 edi
  00094	5e		 pop	 esi
  00095	8b e5		 mov	 esp, ebp
  00097	5d		 pop	 ebp
  00098	c3		 ret	 0
$LN7@CMemPool:

; 85   : 		case eAlloc_Type_alloc:		free(m_pChunk); break;

  00099	51		 push	 ecx
  0009a	ff 15 00 00 00
	00		 call	 DWORD PTR __imp__free
  000a0	eb dc		 jmp	 SHORT $LN24@CMemPool
_TEXT	ENDS
;	COMDAT text$x
text$x	SEGMENT
__unwindfunclet$??1?$CMemPool@USTIntervalInfo@@@@QAE@XZ$0:
  00000	e8 00 00 00 00	 call	 ___std_terminate
  00005	c3		 ret	 0
__ehhandler$??1?$CMemPool@USTIntervalInfo@@@@QAE@XZ:
  00006	8b 54 24 08	 mov	 edx, DWORD PTR [esp+8]
  0000a	8d 42 0c	 lea	 eax, DWORD PTR [edx+12]
  0000d	8b 4a f4	 mov	 ecx, DWORD PTR [edx-12]
  00010	33 c8		 xor	 ecx, eax
  00012	e8 00 00 00 00	 call	 @__security_check_cookie@4
  00017	b8 00 00 00 00	 mov	 eax, OFFSET __ehfuncinfo$??1?$CMemPool@USTIntervalInfo@@@@QAE@XZ
  0001c	e9 00 00 00 00	 jmp	 ___CxxFrameHandler3
text$x	ENDS
??1?$CMemPool@USTIntervalInfo@@@@QAE@XZ ENDP		; CMemPool<STIntervalInfo>::~CMemPool<STIntervalInfo>
; Function compile flags: /Ogtp
; File e:\infinia-library-3.0\com\include\commempool.h
; File e:\infinia-library-3.0\com\include\com\win32\win32_mtsync.h
; File e:\infinia-library-3.0\com\include\commempool.h
;	COMDAT ??0?$CMemPool@USTIntervalInfo@@@@QAE@XZ
_TEXT	SEGMENT
??0?$CMemPool@USTIntervalInfo@@@@QAE@XZ PROC		; CMemPool<STIntervalInfo>::CMemPool<STIntervalInfo>, COMDAT
; _this$ = ecx
; File e:\infinia-library-3.0\com\include\com\win32\win32_mtsync.h

; 87   : 	win_atomic() {m_count = 0;}

  00000	c7 41 04 00 00
	00 00		 mov	 DWORD PTR [ecx+4], 0
; File e:\infinia-library-3.0\com\include\commempool.h

; 71   : }

  00007	8b c1		 mov	 eax, ecx
  00009	c7 41 0c 00 00
	00 00		 mov	 DWORD PTR [ecx+12], 0
  00010	c7 41 08 00 00
	00 00		 mov	 DWORD PTR [ecx+8], 0
  00017	c7 41 14 00 00
	00 00		 mov	 DWORD PTR [ecx+20], 0
  0001e	c7 01 00 00 00
	00		 mov	 DWORD PTR [ecx], 0
  00024	c7 41 10 00 00
	00 00		 mov	 DWORD PTR [ecx+16], 0
  0002b	c3		 ret	 0
??0?$CMemPool@USTIntervalInfo@@@@QAE@XZ ENDP		; CMemPool<STIntervalInfo>::CMemPool<STIntervalInfo>
_TEXT	ENDS
; Function compile flags: /Ogtp
; File e:\infinia-library-3.0\com\src\comcore.cpp
; File e:\infinia-library-3.0\com\include\comtlist.h
; File e:\infinia-library-3.0\com\src\comcore.cpp
; File e:\infinia-library-3.0\com\include\comtlist.h
; File e:\infinia-library-3.0\com\src\comcore.cpp
; File e:\infinia-library-3.0\com\include\comtlist.h
; File e:\infinia-library-3.0\com\src\comcore.cpp
; File e:\infinia-library-3.0\com\include\comtlist.h
; File e:\infinia-library-3.0\com\src\comcore.cpp
;	COMDAT ?setListAllocType@CCoreList@@QAEXW4E_ALLOC_TYPE@@W4E_SYS_LIST_TYPE@@@Z
_TEXT	SEGMENT
_type$ = 8						; size = 4
_eListType$ = 12					; size = 4
?setListAllocType@CCoreList@@QAEXW4E_ALLOC_TYPE@@W4E_SYS_LIST_TYPE@@@Z PROC ; CCoreList::setListAllocType, COMDAT
; _this$ = ecx

; 640  : {

  00000	55		 push	 ebp
  00001	8b ec		 mov	 ebp, esp

; 641  : 	switch (eListType)

  00003	8b 45 0c	 mov	 eax, DWORD PTR _eListType$[ebp]
  00006	48		 dec	 eax
  00007	83 f8 03	 cmp	 eax, 3
  0000a	77 36		 ja	 SHORT $LN2@setListAll
  0000c	ff 24 85 00 00
	00 00		 jmp	 DWORD PTR $LN19@setListAll[eax*4]
$LN4@setListAll:
; File e:\infinia-library-3.0\com\include\comtlist.h

; 350  : 	inline void setObjAllocType(E_ALLOC_TYPE type) { m_nObjAllocType = type; }

  00013	8b 49 08	 mov	 ecx, DWORD PTR [ecx+8]
  00016	8b 45 08	 mov	 eax, DWORD PTR _type$[ebp]
  00019	89 41 14	 mov	 DWORD PTR [ecx+20], eax
; File e:\infinia-library-3.0\com\src\comcore.cpp

; 652  : }

  0001c	5d		 pop	 ebp
  0001d	c2 08 00	 ret	 8
$LN5@setListAll:
; File e:\infinia-library-3.0\com\include\comtlist.h

; 350  : 	inline void setObjAllocType(E_ALLOC_TYPE type) { m_nObjAllocType = type; }

  00020	8b 49 0c	 mov	 ecx, DWORD PTR [ecx+12]
  00023	8b 45 08	 mov	 eax, DWORD PTR _type$[ebp]
  00026	89 41 14	 mov	 DWORD PTR [ecx+20], eax
; File e:\infinia-library-3.0\com\src\comcore.cpp

; 652  : }

  00029	5d		 pop	 ebp
  0002a	c2 08 00	 ret	 8
$LN6@setListAll:
; File e:\infinia-library-3.0\com\include\comtlist.h

; 350  : 	inline void setObjAllocType(E_ALLOC_TYPE type) { m_nObjAllocType = type; }

  0002d	8b 49 04	 mov	 ecx, DWORD PTR [ecx+4]
  00030	8b 45 08	 mov	 eax, DWORD PTR _type$[ebp]
  00033	89 41 14	 mov	 DWORD PTR [ecx+20], eax
; File e:\infinia-library-3.0\com\src\comcore.cpp

; 652  : }

  00036	5d		 pop	 ebp
  00037	c2 08 00	 ret	 8
$LN7@setListAll:
; File e:\infinia-library-3.0\com\include\comtlist.h

; 350  : 	inline void setObjAllocType(E_ALLOC_TYPE type) { m_nObjAllocType = type; }

  0003a	8b 09		 mov	 ecx, DWORD PTR [ecx]
  0003c	8b 45 08	 mov	 eax, DWORD PTR _type$[ebp]
  0003f	89 41 14	 mov	 DWORD PTR [ecx+20], eax
$LN2@setListAll:
; File e:\infinia-library-3.0\com\src\comcore.cpp

; 652  : }

  00042	5d		 pop	 ebp
  00043	c2 08 00	 ret	 8
  00046	66 90		 npad	 2
$LN19@setListAll:
  00048	00 00 00 00	 DD	 $LN4@setListAll
  0004c	00 00 00 00	 DD	 $LN5@setListAll
  00050	00 00 00 00	 DD	 $LN6@setListAll
  00054	00 00 00 00	 DD	 $LN7@setListAll
?setListAllocType@CCoreList@@QAEXW4E_ALLOC_TYPE@@W4E_SYS_LIST_TYPE@@@Z ENDP ; CCoreList::setListAllocType
_TEXT	ENDS
; Function compile flags: /Ogtp
; File e:\infinia-library-3.0\com\src\comcore.cpp
; File e:\infinia-library-3.0\com\include\comtlist.h
; File e:\infinia-library-3.0\com\src\comcore.cpp
; File e:\infinia-library-3.0\com\include\comtypes.h
; File e:\infinia-library-3.0\com\src\comcore.cpp
; File e:\infinia-library-3.0\com\include\com\win32\win32_mtsync.h
; File e:\infinia-library-3.0\com\include\commempool.h
; File e:\infinia-library-3.0\com\src\comcore.cpp
; File e:\infinia-library-3.0\com\include\comtypes.h
; File e:\infinia-library-3.0\com\src\comcore.cpp
;	COMDAT ?initQueueThread@CCoreList@@QAE_NHH@Z
_TEXT	SEGMENT
$T1 = -136						; size = 4
$T2 = -136						; size = 4
_szErrorMsg$ = -132					; size = 128
__$ArrayPad$ = -4					; size = 4
_nThreadCount$ = 8					; size = 4
_nQueuePoolCount$ = 12					; size = 4
?initQueueThread@CCoreList@@QAE_NHH@Z PROC		; CCoreList::initQueueThread, COMDAT
; _this$ = ecx

; 1237 : {

  00000	55		 push	 ebp
  00001	8b ec		 mov	 ebp, esp
  00003	81 ec 88 00 00
	00		 sub	 esp, 136		; 00000088H
  00009	a1 00 00 00 00	 mov	 eax, DWORD PTR ___security_cookie
  0000e	33 c5		 xor	 eax, ebp
  00010	89 45 fc	 mov	 DWORD PTR __$ArrayPad$[ebp], eax
  00013	56		 push	 esi
  00014	57		 push	 edi
  00015	8b f9		 mov	 edi, ecx

; 1238 : 	char szErrorMsg[128];
; 1239 : 	if (!m_pEventThreadList) {

  00017	83 7f 0c 00	 cmp	 DWORD PTR [edi+12], 0
  0001b	0f 85 b6 00 00
	00		 jne	 $LN3@initQueueT

; 1240 : 		m_pEventThreadList = new CTList<CComQueueThread>();

  00021	6a 18		 push	 24			; 00000018H
  00023	e8 00 00 00 00	 call	 ??2@YAPAXI@Z		; operator new
  00028	8b c8		 mov	 ecx, eax
  0002a	83 c4 04	 add	 esp, 4
  0002d	89 8d 78 ff ff
	ff		 mov	 DWORD PTR $T2[ebp], ecx
  00033	85 c9		 test	 ecx, ecx
  00035	74 36		 je	 SHORT $LN8@initQueueT
  00037	0f 57 c0	 xorps	 xmm0, xmm0
  0003a	0f 11 01	 movups	 XMMWORD PTR [ecx], xmm0
  0003d	66 0f d6 41 10	 movq	 QWORD PTR [ecx+16], xmm0
; File e:\infinia-library-3.0\com\include\comtlist.h

; 366  : 	m_pArray = NULL;

  00042	c7 01 00 00 00
	00		 mov	 DWORD PTR [ecx], 0

; 367  : 	m_nUse = 0;

  00048	c7 41 04 00 00
	00 00		 mov	 DWORD PTR [ecx+4], 0

; 368  : 	m_nLast = 0;

  0004f	c7 41 08 00 00
	00 00		 mov	 DWORD PTR [ecx+8], 0

; 369  : 	m_nDelIdx = 0;

  00056	c7 41 0c 00 00
	00 00		 mov	 DWORD PTR [ecx+12], 0

; 370  : 	m_nMax = 0;

  0005d	c7 41 10 00 00
	00 00		 mov	 DWORD PTR [ecx+16], 0

; 371  : 	m_nObjAllocType = eAlloc_Type_none;

  00064	c7 41 14 00 00
	00 00		 mov	 DWORD PTR [ecx+20], 0
; File e:\infinia-library-3.0\com\src\comcore.cpp

; 1240 : 		m_pEventThreadList = new CTList<CComQueueThread>();

  0006b	eb 02		 jmp	 SHORT $LN9@initQueueT
$LN8@initQueueT:
  0006d	33 c9		 xor	 ecx, ecx
$LN9@initQueueT:

; 1241 : 		if (!m_pEventThreadList->alloc(nThreadCount+LIST_ADD_COUNT, eAlloc_Type_none)) {

  0006f	8b 75 08	 mov	 esi, DWORD PTR _nThreadCount$[ebp]
  00072	6a 00		 push	 0
  00074	83 c6 0a	 add	 esi, 10			; 0000000aH
  00077	89 4f 0c	 mov	 DWORD PTR [edi+12], ecx
  0007a	56		 push	 esi
  0007b	e8 00 00 00 00	 call	 ?alloc@?$CTList@VCComQueueThread@@@@QAEHHW4E_ALLOC_TYPE@@@Z ; CTList<CComQueueThread>::alloc
  00080	85 c0		 test	 eax, eax
  00082	75 53		 jne	 SHORT $LN3@initQueueT

; 1242 : 			sprintf(szErrorMsg, "m_pEventThreadList->alloc(%d)", nThreadCount + LIST_ADD_COUNT);

  00084	56		 push	 esi
  00085	8d 85 7c ff ff
	ff		 lea	 eax, DWORD PTR _szErrorMsg$[ebp]
  0008b	68 00 00 00 00	 push	 OFFSET ??_C@_0BO@JEMJGFJG@m_pEventThreadList?9?$DOalloc?$CI?$CFd?$CJ?$AA@
  00090	50		 push	 eax
  00091	e8 00 00 00 00	 call	 _sprintf
; File e:\infinia-library-3.0\com\include\comtypes.h

; 325  : 	sprintf(g_szSystemError, "ERROR! [%s:%d] %s\n", _szFunc, _nLine, pMsg);

  00096	8d 85 7c ff ff
	ff		 lea	 eax, DWORD PTR _szErrorMsg$[ebp]
  0009c	50		 push	 eax
  0009d	68 db 04 00 00	 push	 1243			; 000004dbH
  000a2	68 00 00 00 00	 push	 OFFSET ??_C@_0BL@HOFLCFJO@CCoreList?3?3initQueueThread?$AA@
  000a7	68 00 00 00 00	 push	 OFFSET ??_C@_0BD@KEHDJCKJ@ERROR?$CB?5?$FL?$CFs?3?$CFd?$FN?5?$CFs?6?$AA@
  000ac	68 00 00 00 00	 push	 OFFSET ?g_szSystemError@@3PADA ; g_szSystemError
  000b1	e8 00 00 00 00	 call	 _sprintf

; 326  : 	printf(g_szSystemError);

  000b6	68 00 00 00 00	 push	 OFFSET ?g_szSystemError@@3PADA ; g_szSystemError
  000bb	e8 00 00 00 00	 call	 _printf
  000c0	83 c4 24	 add	 esp, 36			; 00000024H
; File e:\infinia-library-3.0\com\src\comcore.cpp

; 1244 : 			return false;

  000c3	32 c0		 xor	 al, al
  000c5	5f		 pop	 edi
  000c6	5e		 pop	 esi

; 1255 : 			}
; 1256 : 		}
; 1257 : 
; 1258 : 	}
; 1259 : 	return true;
; 1260 : }

  000c7	8b 4d fc	 mov	 ecx, DWORD PTR __$ArrayPad$[ebp]
  000ca	33 cd		 xor	 ecx, ebp
  000cc	e8 00 00 00 00	 call	 @__security_check_cookie@4
  000d1	8b e5		 mov	 esp, ebp
  000d3	5d		 pop	 ebp
  000d4	c2 08 00	 ret	 8
$LN3@initQueueT:

; 1245 : 		}
; 1246 : 	}
; 1247 : 	if (nQueuePoolCount)

  000d7	8b 75 0c	 mov	 esi, DWORD PTR _nQueuePoolCount$[ebp]
  000da	85 f6		 test	 esi, esi
  000dc	0f 84 ba 00 00
	00		 je	 $LN6@initQueueT

; 1248 : 	{
; 1249 : 		if (!m_pEventPool) {

  000e2	83 7f 14 00	 cmp	 DWORD PTR [edi+20], 0
  000e6	0f 85 b0 00 00
	00		 jne	 $LN6@initQueueT

; 1250 : 			m_pEventPool = new CMemPool<STEvent>();

  000ec	6a 18		 push	 24			; 00000018H
  000ee	e8 00 00 00 00	 call	 ??2@YAPAXI@Z		; operator new
  000f3	83 c4 04	 add	 esp, 4
  000f6	89 85 78 ff ff
	ff		 mov	 DWORD PTR $T1[ebp], eax
  000fc	85 c0		 test	 eax, eax
  000fe	74 36		 je	 SHORT $LN10@initQueueT
  00100	0f 57 c0	 xorps	 xmm0, xmm0
  00103	0f 11 00	 movups	 XMMWORD PTR [eax], xmm0
  00106	66 0f d6 40 10	 movq	 QWORD PTR [eax+16], xmm0
; File e:\infinia-library-3.0\com\include\com\win32\win32_mtsync.h

; 87   : 	win_atomic() {m_count = 0;}

  0010b	c7 40 04 00 00
	00 00		 mov	 DWORD PTR [eax+4], 0
; File e:\infinia-library-3.0\com\include\commempool.h

; 65   : 	m_nAllocCount = 0;

  00112	c7 40 0c 00 00
	00 00		 mov	 DWORD PTR [eax+12], 0

; 66   : 	m_nLastCount = 0;

  00119	c7 40 08 00 00
	00 00		 mov	 DWORD PTR [eax+8], 0

; 67   : 	//memset(m_szMessage, 0 ,LEN_MEM_MESSAGE);
; 68   : 	m_pChunk = NULL;

  00120	c7 40 14 00 00
	00 00		 mov	 DWORD PTR [eax+20], 0

; 69   : 	m_nFlagArray = NULL;

  00127	c7 00 00 00 00
	00		 mov	 DWORD PTR [eax], 0

; 70   : 	m_nObjAllocType = eAlloc_Type_none;

  0012d	c7 40 10 00 00
	00 00		 mov	 DWORD PTR [eax+16], 0
; File e:\infinia-library-3.0\com\src\comcore.cpp

; 1250 : 			m_pEventPool = new CMemPool<STEvent>();

  00134	eb 02		 jmp	 SHORT $LN11@initQueueT
$LN10@initQueueT:
  00136	33 c0		 xor	 eax, eax
$LN11@initQueueT:

; 1251 : 			if (!m_pEventPool->alloc(nQueuePoolCount, eAlloc_Type_alloc)) {

  00138	6a 03		 push	 3
  0013a	56		 push	 esi
  0013b	8b c8		 mov	 ecx, eax
  0013d	89 47 14	 mov	 DWORD PTR [edi+20], eax
  00140	e8 00 00 00 00	 call	 ?alloc@?$CMemPool@USTEvent@@@@QAEHHW4E_ALLOC_TYPE@@@Z ; CMemPool<STEvent>::alloc
  00145	85 c0		 test	 eax, eax
  00147	75 53		 jne	 SHORT $LN6@initQueueT

; 1252 : 				sprintf(szErrorMsg, "has Failed!! m_pEventPool->alloc(%d)\n", nQueuePoolCount);

  00149	56		 push	 esi
  0014a	8d 85 7c ff ff
	ff		 lea	 eax, DWORD PTR _szErrorMsg$[ebp]
  00150	68 00 00 00 00	 push	 OFFSET ??_C@_0CG@KBLFFOON@has?5Failed?$CB?$CB?5m_pEventPool?9?$DOalloc@
  00155	50		 push	 eax
  00156	e8 00 00 00 00	 call	 _sprintf
; File e:\infinia-library-3.0\com\include\comtypes.h

; 325  : 	sprintf(g_szSystemError, "ERROR! [%s:%d] %s\n", _szFunc, _nLine, pMsg);

  0015b	8d 85 7c ff ff
	ff		 lea	 eax, DWORD PTR _szErrorMsg$[ebp]
  00161	50		 push	 eax
  00162	68 e5 04 00 00	 push	 1253			; 000004e5H
  00167	68 00 00 00 00	 push	 OFFSET ??_C@_0BL@HOFLCFJO@CCoreList?3?3initQueueThread?$AA@
  0016c	68 00 00 00 00	 push	 OFFSET ??_C@_0BD@KEHDJCKJ@ERROR?$CB?5?$FL?$CFs?3?$CFd?$FN?5?$CFs?6?$AA@
  00171	68 00 00 00 00	 push	 OFFSET ?g_szSystemError@@3PADA ; g_szSystemError
  00176	e8 00 00 00 00	 call	 _sprintf

; 326  : 	printf(g_szSystemError);

  0017b	68 00 00 00 00	 push	 OFFSET ?g_szSystemError@@3PADA ; g_szSystemError
  00180	e8 00 00 00 00	 call	 _printf
  00185	83 c4 24	 add	 esp, 36			; 00000024H
; File e:\infinia-library-3.0\com\src\comcore.cpp

; 1254 : 				return false;

  00188	32 c0		 xor	 al, al
  0018a	5f		 pop	 edi
  0018b	5e		 pop	 esi

; 1255 : 			}
; 1256 : 		}
; 1257 : 
; 1258 : 	}
; 1259 : 	return true;
; 1260 : }

  0018c	8b 4d fc	 mov	 ecx, DWORD PTR __$ArrayPad$[ebp]
  0018f	33 cd		 xor	 ecx, ebp
  00191	e8 00 00 00 00	 call	 @__security_check_cookie@4
  00196	8b e5		 mov	 esp, ebp
  00198	5d		 pop	 ebp
  00199	c2 08 00	 ret	 8
$LN6@initQueueT:
  0019c	8b 4d fc	 mov	 ecx, DWORD PTR __$ArrayPad$[ebp]
  0019f	b0 01		 mov	 al, 1
  001a1	5f		 pop	 edi
  001a2	33 cd		 xor	 ecx, ebp
  001a4	5e		 pop	 esi
  001a5	e8 00 00 00 00	 call	 @__security_check_cookie@4
  001aa	8b e5		 mov	 esp, ebp
  001ac	5d		 pop	 ebp
  001ad	c2 08 00	 ret	 8
?initQueueThread@CCoreList@@QAE_NHH@Z ENDP		; CCoreList::initQueueThread
_TEXT	ENDS
; Function compile flags: /Ogtp
; File e:\infinia-library-3.0\com\src\comcore.cpp
; File e:\infinia-library-3.0\com\include\comtlist.h
; File e:\infinia-library-3.0\com\src\comcore.cpp
; File e:\infinia-library-3.0\com\include\comtypes.h
; File e:\infinia-library-3.0\com\src\comcore.cpp
; File e:\infinia-library-3.0\com\include\com\win32\win32_mtsync.h
; File e:\infinia-library-3.0\com\include\commempool.h
; File e:\infinia-library-3.0\com\src\comcore.cpp
; File e:\infinia-library-3.0\com\include\comtypes.h
; File e:\infinia-library-3.0\com\src\comcore.cpp
;	COMDAT ?initScheduler@CCoreList@@QAE_NHH@Z
_TEXT	SEGMENT
$T1 = -136						; size = 4
$T2 = -136						; size = 4
_szErrorMsg$ = -132					; size = 128
__$ArrayPad$ = -4					; size = 4
_nThreadCount$ = 8					; size = 4
_nSchedulerPoolCount$ = 12				; size = 4
?initScheduler@CCoreList@@QAE_NHH@Z PROC		; CCoreList::initScheduler, COMDAT
; _this$ = ecx

; 1213 : {

  00000	55		 push	 ebp
  00001	8b ec		 mov	 ebp, esp
  00003	81 ec 88 00 00
	00		 sub	 esp, 136		; 00000088H
  00009	a1 00 00 00 00	 mov	 eax, DWORD PTR ___security_cookie
  0000e	33 c5		 xor	 eax, ebp
  00010	89 45 fc	 mov	 DWORD PTR __$ArrayPad$[ebp], eax
  00013	56		 push	 esi
  00014	57		 push	 edi
  00015	8b f9		 mov	 edi, ecx

; 1214 : 	char szErrorMsg[128];
; 1215 : 	if (!m_pSchedulerList) {

  00017	83 7f 04 00	 cmp	 DWORD PTR [edi+4], 0
  0001b	0f 85 b6 00 00
	00		 jne	 $LN3@initSchedu

; 1216 : 		m_pSchedulerList = new CTList<CScheduler>();

  00021	6a 18		 push	 24			; 00000018H
  00023	e8 00 00 00 00	 call	 ??2@YAPAXI@Z		; operator new
  00028	8b c8		 mov	 ecx, eax
  0002a	83 c4 04	 add	 esp, 4
  0002d	89 8d 78 ff ff
	ff		 mov	 DWORD PTR $T2[ebp], ecx
  00033	85 c9		 test	 ecx, ecx
  00035	74 36		 je	 SHORT $LN8@initSchedu
  00037	0f 57 c0	 xorps	 xmm0, xmm0
  0003a	0f 11 01	 movups	 XMMWORD PTR [ecx], xmm0
  0003d	66 0f d6 41 10	 movq	 QWORD PTR [ecx+16], xmm0
; File e:\infinia-library-3.0\com\include\comtlist.h

; 366  : 	m_pArray = NULL;

  00042	c7 01 00 00 00
	00		 mov	 DWORD PTR [ecx], 0

; 367  : 	m_nUse = 0;

  00048	c7 41 04 00 00
	00 00		 mov	 DWORD PTR [ecx+4], 0

; 368  : 	m_nLast = 0;

  0004f	c7 41 08 00 00
	00 00		 mov	 DWORD PTR [ecx+8], 0

; 369  : 	m_nDelIdx = 0;

  00056	c7 41 0c 00 00
	00 00		 mov	 DWORD PTR [ecx+12], 0

; 370  : 	m_nMax = 0;

  0005d	c7 41 10 00 00
	00 00		 mov	 DWORD PTR [ecx+16], 0

; 371  : 	m_nObjAllocType = eAlloc_Type_none;

  00064	c7 41 14 00 00
	00 00		 mov	 DWORD PTR [ecx+20], 0
; File e:\infinia-library-3.0\com\src\comcore.cpp

; 1216 : 		m_pSchedulerList = new CTList<CScheduler>();

  0006b	eb 02		 jmp	 SHORT $LN9@initSchedu
$LN8@initSchedu:
  0006d	33 c9		 xor	 ecx, ecx
$LN9@initSchedu:

; 1217 : 		if (!m_pSchedulerList->alloc(nThreadCount + LIST_ADD_COUNT, eAlloc_Type_none)) {

  0006f	8b 75 08	 mov	 esi, DWORD PTR _nThreadCount$[ebp]
  00072	6a 00		 push	 0
  00074	83 c6 0a	 add	 esi, 10			; 0000000aH
  00077	89 4f 04	 mov	 DWORD PTR [edi+4], ecx
  0007a	56		 push	 esi
  0007b	e8 00 00 00 00	 call	 ?alloc@?$CTList@VCScheduler@@@@QAEHHW4E_ALLOC_TYPE@@@Z ; CTList<CScheduler>::alloc
  00080	85 c0		 test	 eax, eax
  00082	75 53		 jne	 SHORT $LN3@initSchedu

; 1218 : 			sprintf(szErrorMsg, "m_pSchedulerList->alloc(%d)", nThreadCount + LIST_ADD_COUNT);

  00084	56		 push	 esi
  00085	8d 85 7c ff ff
	ff		 lea	 eax, DWORD PTR _szErrorMsg$[ebp]
  0008b	68 00 00 00 00	 push	 OFFSET ??_C@_0BM@OGIKNPEH@m_pSchedulerList?9?$DOalloc?$CI?$CFd?$CJ?$AA@
  00090	50		 push	 eax
  00091	e8 00 00 00 00	 call	 _sprintf
; File e:\infinia-library-3.0\com\include\comtypes.h

; 325  : 	sprintf(g_szSystemError, "ERROR! [%s:%d] %s\n", _szFunc, _nLine, pMsg);

  00096	8d 85 7c ff ff
	ff		 lea	 eax, DWORD PTR _szErrorMsg$[ebp]
  0009c	50		 push	 eax
  0009d	68 c3 04 00 00	 push	 1219			; 000004c3H
  000a2	68 00 00 00 00	 push	 OFFSET ??_C@_0BJ@DFFAHENC@CCoreList?3?3initScheduler?$AA@
  000a7	68 00 00 00 00	 push	 OFFSET ??_C@_0BD@KEHDJCKJ@ERROR?$CB?5?$FL?$CFs?3?$CFd?$FN?5?$CFs?6?$AA@
  000ac	68 00 00 00 00	 push	 OFFSET ?g_szSystemError@@3PADA ; g_szSystemError
  000b1	e8 00 00 00 00	 call	 _sprintf

; 326  : 	printf(g_szSystemError);

  000b6	68 00 00 00 00	 push	 OFFSET ?g_szSystemError@@3PADA ; g_szSystemError
  000bb	e8 00 00 00 00	 call	 _printf
  000c0	83 c4 24	 add	 esp, 36			; 00000024H
; File e:\infinia-library-3.0\com\src\comcore.cpp

; 1220 : 			return false;

  000c3	32 c0		 xor	 al, al
  000c5	5f		 pop	 edi
  000c6	5e		 pop	 esi

; 1230 : 			}
; 1231 : 		}
; 1232 : 	}
; 1233 : 	return true;
; 1234 : }

  000c7	8b 4d fc	 mov	 ecx, DWORD PTR __$ArrayPad$[ebp]
  000ca	33 cd		 xor	 ecx, ebp
  000cc	e8 00 00 00 00	 call	 @__security_check_cookie@4
  000d1	8b e5		 mov	 esp, ebp
  000d3	5d		 pop	 ebp
  000d4	c2 08 00	 ret	 8
$LN3@initSchedu:

; 1221 : 		}
; 1222 : 	}
; 1223 : 	if (nSchedulerPoolCount) {

  000d7	8b 75 0c	 mov	 esi, DWORD PTR _nSchedulerPoolCount$[ebp]
  000da	85 f6		 test	 esi, esi
  000dc	0f 84 ba 00 00
	00		 je	 $LN6@initSchedu

; 1224 : 		if (!m_pIntervalPool) {

  000e2	83 7f 10 00	 cmp	 DWORD PTR [edi+16], 0
  000e6	0f 85 b0 00 00
	00		 jne	 $LN6@initSchedu

; 1225 : 			m_pIntervalPool = new CMemPool<STIntervalInfo>();

  000ec	6a 18		 push	 24			; 00000018H
  000ee	e8 00 00 00 00	 call	 ??2@YAPAXI@Z		; operator new
  000f3	83 c4 04	 add	 esp, 4
  000f6	89 85 78 ff ff
	ff		 mov	 DWORD PTR $T1[ebp], eax
  000fc	85 c0		 test	 eax, eax
  000fe	74 36		 je	 SHORT $LN10@initSchedu
  00100	0f 57 c0	 xorps	 xmm0, xmm0
  00103	0f 11 00	 movups	 XMMWORD PTR [eax], xmm0
  00106	66 0f d6 40 10	 movq	 QWORD PTR [eax+16], xmm0
; File e:\infinia-library-3.0\com\include\com\win32\win32_mtsync.h

; 87   : 	win_atomic() {m_count = 0;}

  0010b	c7 40 04 00 00
	00 00		 mov	 DWORD PTR [eax+4], 0
; File e:\infinia-library-3.0\com\include\commempool.h

; 65   : 	m_nAllocCount = 0;

  00112	c7 40 0c 00 00
	00 00		 mov	 DWORD PTR [eax+12], 0

; 66   : 	m_nLastCount = 0;

  00119	c7 40 08 00 00
	00 00		 mov	 DWORD PTR [eax+8], 0

; 67   : 	//memset(m_szMessage, 0 ,LEN_MEM_MESSAGE);
; 68   : 	m_pChunk = NULL;

  00120	c7 40 14 00 00
	00 00		 mov	 DWORD PTR [eax+20], 0

; 69   : 	m_nFlagArray = NULL;

  00127	c7 00 00 00 00
	00		 mov	 DWORD PTR [eax], 0

; 70   : 	m_nObjAllocType = eAlloc_Type_none;

  0012d	c7 40 10 00 00
	00 00		 mov	 DWORD PTR [eax+16], 0
; File e:\infinia-library-3.0\com\src\comcore.cpp

; 1225 : 			m_pIntervalPool = new CMemPool<STIntervalInfo>();

  00134	eb 02		 jmp	 SHORT $LN11@initSchedu
$LN10@initSchedu:
  00136	33 c0		 xor	 eax, eax
$LN11@initSchedu:

; 1226 : 			if (!m_pIntervalPool->alloc(nSchedulerPoolCount, eAlloc_Type_alloc)) {

  00138	6a 03		 push	 3
  0013a	56		 push	 esi
  0013b	8b c8		 mov	 ecx, eax
  0013d	89 47 10	 mov	 DWORD PTR [edi+16], eax
  00140	e8 00 00 00 00	 call	 ?alloc@?$CMemPool@USTIntervalInfo@@@@QAEHHW4E_ALLOC_TYPE@@@Z ; CMemPool<STIntervalInfo>::alloc
  00145	85 c0		 test	 eax, eax
  00147	75 53		 jne	 SHORT $LN6@initSchedu

; 1227 : 				sprintf(szErrorMsg, "has Failed!! m_pIntervalPool->alloc(%d)\n", nSchedulerPoolCount);

  00149	56		 push	 esi
  0014a	8d 85 7c ff ff
	ff		 lea	 eax, DWORD PTR _szErrorMsg$[ebp]
  00150	68 00 00 00 00	 push	 OFFSET ??_C@_0CJ@NBAOIFOJ@has?5Failed?$CB?$CB?5m_pIntervalPool?9?$DOal@
  00155	50		 push	 eax
  00156	e8 00 00 00 00	 call	 _sprintf
; File e:\infinia-library-3.0\com\include\comtypes.h

; 325  : 	sprintf(g_szSystemError, "ERROR! [%s:%d] %s\n", _szFunc, _nLine, pMsg);

  0015b	8d 85 7c ff ff
	ff		 lea	 eax, DWORD PTR _szErrorMsg$[ebp]
  00161	50		 push	 eax
  00162	68 cc 04 00 00	 push	 1228			; 000004ccH
  00167	68 00 00 00 00	 push	 OFFSET ??_C@_0BJ@DFFAHENC@CCoreList?3?3initScheduler?$AA@
  0016c	68 00 00 00 00	 push	 OFFSET ??_C@_0BD@KEHDJCKJ@ERROR?$CB?5?$FL?$CFs?3?$CFd?$FN?5?$CFs?6?$AA@
  00171	68 00 00 00 00	 push	 OFFSET ?g_szSystemError@@3PADA ; g_szSystemError
  00176	e8 00 00 00 00	 call	 _sprintf

; 326  : 	printf(g_szSystemError);

  0017b	68 00 00 00 00	 push	 OFFSET ?g_szSystemError@@3PADA ; g_szSystemError
  00180	e8 00 00 00 00	 call	 _printf
  00185	83 c4 24	 add	 esp, 36			; 00000024H
; File e:\infinia-library-3.0\com\src\comcore.cpp

; 1229 : 				return false;

  00188	32 c0		 xor	 al, al
  0018a	5f		 pop	 edi
  0018b	5e		 pop	 esi

; 1230 : 			}
; 1231 : 		}
; 1232 : 	}
; 1233 : 	return true;
; 1234 : }

  0018c	8b 4d fc	 mov	 ecx, DWORD PTR __$ArrayPad$[ebp]
  0018f	33 cd		 xor	 ecx, ebp
  00191	e8 00 00 00 00	 call	 @__security_check_cookie@4
  00196	8b e5		 mov	 esp, ebp
  00198	5d		 pop	 ebp
  00199	c2 08 00	 ret	 8
$LN6@initSchedu:
  0019c	8b 4d fc	 mov	 ecx, DWORD PTR __$ArrayPad$[ebp]
  0019f	b0 01		 mov	 al, 1
  001a1	5f		 pop	 edi
  001a2	33 cd		 xor	 ecx, ebp
  001a4	5e		 pop	 esi
  001a5	e8 00 00 00 00	 call	 @__security_check_cookie@4
  001aa	8b e5		 mov	 esp, ebp
  001ac	5d		 pop	 ebp
  001ad	c2 08 00	 ret	 8
?initScheduler@CCoreList@@QAE_NHH@Z ENDP		; CCoreList::initScheduler
_TEXT	ENDS
; Function compile flags: /Ogtp
; File e:\infinia-library-3.0\com\src\comcore.cpp
; File e:\infinia-library-3.0\com\include\comtlist.h
; File e:\infinia-library-3.0\com\src\comcore.cpp
; File e:\infinia-library-3.0\com\include\comtypes.h
; File e:\infinia-library-3.0\com\src\comcore.cpp
;	COMDAT ?initLogWriter@CCoreList@@QAE_NH@Z
_TEXT	SEGMENT
$T1 = -136						; size = 4
_szErrorMsg$ = -132					; size = 128
__$ArrayPad$ = -4					; size = 4
_nThreadCount$ = 8					; size = 4
?initLogWriter@CCoreList@@QAE_NH@Z PROC			; CCoreList::initLogWriter, COMDAT
; _this$ = ecx

; 1200 : {

  00000	55		 push	 ebp
  00001	8b ec		 mov	 ebp, esp
  00003	81 ec 88 00 00
	00		 sub	 esp, 136		; 00000088H
  00009	a1 00 00 00 00	 mov	 eax, DWORD PTR ___security_cookie
  0000e	33 c5		 xor	 eax, ebp
  00010	89 45 fc	 mov	 DWORD PTR __$ArrayPad$[ebp], eax
  00013	56		 push	 esi
  00014	8b f1		 mov	 esi, ecx

; 1201 : 	char szErrorMsg[128];
; 1202 : 	if (!m_pWriterList) {

  00016	83 3e 00	 cmp	 DWORD PTR [esi], 0
  00019	0f 85 ae 00 00
	00		 jne	 $LN3@initLogWri

; 1203 : 		m_pWriterList = new (std::nothrow) CTList<CSTLogger>();

  0001f	68 00 00 00 00	 push	 OFFSET ?nothrow@std@@3Unothrow_t@1@B ; std::nothrow
  00024	6a 18		 push	 24			; 00000018H
  00026	e8 00 00 00 00	 call	 ??2@YAPAXIABUnothrow_t@std@@@Z ; operator new
  0002b	8b c8		 mov	 ecx, eax
  0002d	83 c4 08	 add	 esp, 8
  00030	89 8d 78 ff ff
	ff		 mov	 DWORD PTR $T1[ebp], ecx
  00036	85 c9		 test	 ecx, ecx
  00038	74 2b		 je	 SHORT $LN5@initLogWri
; File e:\infinia-library-3.0\com\include\comtlist.h

; 366  : 	m_pArray = NULL;

  0003a	c7 01 00 00 00
	00		 mov	 DWORD PTR [ecx], 0

; 367  : 	m_nUse = 0;

  00040	c7 41 04 00 00
	00 00		 mov	 DWORD PTR [ecx+4], 0

; 368  : 	m_nLast = 0;

  00047	c7 41 08 00 00
	00 00		 mov	 DWORD PTR [ecx+8], 0

; 369  : 	m_nDelIdx = 0;

  0004e	c7 41 0c 00 00
	00 00		 mov	 DWORD PTR [ecx+12], 0

; 370  : 	m_nMax = 0;

  00055	c7 41 10 00 00
	00 00		 mov	 DWORD PTR [ecx+16], 0

; 371  : 	m_nObjAllocType = eAlloc_Type_none;

  0005c	c7 41 14 00 00
	00 00		 mov	 DWORD PTR [ecx+20], 0
; File e:\infinia-library-3.0\com\src\comcore.cpp

; 1203 : 		m_pWriterList = new (std::nothrow) CTList<CSTLogger>();

  00063	eb 02		 jmp	 SHORT $LN6@initLogWri
$LN5@initLogWri:
  00065	33 c9		 xor	 ecx, ecx
$LN6@initLogWri:
  00067	89 0e		 mov	 DWORD PTR [esi], ecx

; 1204 : 		if (!m_pWriterList->alloc(nThreadCount + LIST_ADD_COUNT, eAlloc_Type_none)) {

  00069	8b 75 08	 mov	 esi, DWORD PTR _nThreadCount$[ebp]
  0006c	6a 00		 push	 0
  0006e	83 c6 0a	 add	 esi, 10			; 0000000aH
  00071	56		 push	 esi
  00072	e8 00 00 00 00	 call	 ?alloc@?$CTList@VCSTLogger@@@@QAEHHW4E_ALLOC_TYPE@@@Z ; CTList<CSTLogger>::alloc
  00077	85 c0		 test	 eax, eax
  00079	75 52		 jne	 SHORT $LN3@initLogWri

; 1205 : 			sprintf(szErrorMsg, "m_pWriterList->alloc(%d)", nThreadCount + LIST_ADD_COUNT);

  0007b	56		 push	 esi
  0007c	8d 85 7c ff ff
	ff		 lea	 eax, DWORD PTR _szErrorMsg$[ebp]
  00082	68 00 00 00 00	 push	 OFFSET ??_C@_0BJ@NMIDHJOA@m_pWriterList?9?$DOalloc?$CI?$CFd?$CJ?$AA@
  00087	50		 push	 eax
  00088	e8 00 00 00 00	 call	 _sprintf
; File e:\infinia-library-3.0\com\include\comtypes.h

; 325  : 	sprintf(g_szSystemError, "ERROR! [%s:%d] %s\n", _szFunc, _nLine, pMsg);

  0008d	8d 85 7c ff ff
	ff		 lea	 eax, DWORD PTR _szErrorMsg$[ebp]
  00093	50		 push	 eax
  00094	68 b6 04 00 00	 push	 1206			; 000004b6H
  00099	68 00 00 00 00	 push	 OFFSET ??_C@_0BJ@GCPBPAB@CCoreList?3?3initLogWriter?$AA@
  0009e	68 00 00 00 00	 push	 OFFSET ??_C@_0BD@KEHDJCKJ@ERROR?$CB?5?$FL?$CFs?3?$CFd?$FN?5?$CFs?6?$AA@
  000a3	68 00 00 00 00	 push	 OFFSET ?g_szSystemError@@3PADA ; g_szSystemError
  000a8	e8 00 00 00 00	 call	 _sprintf

; 326  : 	printf(g_szSystemError);

  000ad	68 00 00 00 00	 push	 OFFSET ?g_szSystemError@@3PADA ; g_szSystemError
  000b2	e8 00 00 00 00	 call	 _printf
  000b7	83 c4 24	 add	 esp, 36			; 00000024H
; File e:\infinia-library-3.0\com\src\comcore.cpp

; 1207 : 			return false;

  000ba	32 c0		 xor	 al, al
  000bc	5e		 pop	 esi

; 1208 : 		}
; 1209 : 	}
; 1210 : 	return true;
; 1211 : }

  000bd	8b 4d fc	 mov	 ecx, DWORD PTR __$ArrayPad$[ebp]
  000c0	33 cd		 xor	 ecx, ebp
  000c2	e8 00 00 00 00	 call	 @__security_check_cookie@4
  000c7	8b e5		 mov	 esp, ebp
  000c9	5d		 pop	 ebp
  000ca	c2 04 00	 ret	 4
$LN3@initLogWri:
  000cd	8b 4d fc	 mov	 ecx, DWORD PTR __$ArrayPad$[ebp]
  000d0	b0 01		 mov	 al, 1
  000d2	33 cd		 xor	 ecx, ebp
  000d4	5e		 pop	 esi
  000d5	e8 00 00 00 00	 call	 @__security_check_cookie@4
  000da	8b e5		 mov	 esp, ebp
  000dc	5d		 pop	 ebp
  000dd	c2 04 00	 ret	 4
?initLogWriter@CCoreList@@QAE_NH@Z ENDP			; CCoreList::initLogWriter
_TEXT	ENDS
; Function compile flags: /Ogtp
; File e:\infinia-library-3.0\com\src\comcore.cpp
; File e:\infinia-library-3.0\com\include\comtlist.h
; File e:\infinia-library-3.0\com\src\comcore.cpp
; File e:\infinia-library-3.0\com\include\comtypes.h
; File e:\infinia-library-3.0\com\src\comcore.cpp
;	COMDAT ?initComThread@CCoreList@@QAE_NH@Z
_TEXT	SEGMENT
$T1 = -136						; size = 4
_szErrorMsg$ = -132					; size = 128
__$ArrayPad$ = -4					; size = 4
_nThreadCount$ = 8					; size = 4
?initComThread@CCoreList@@QAE_NH@Z PROC			; CCoreList::initComThread, COMDAT
; _this$ = ecx

; 1186 : {

  00000	55		 push	 ebp
  00001	8b ec		 mov	 ebp, esp
  00003	81 ec 88 00 00
	00		 sub	 esp, 136		; 00000088H
  00009	a1 00 00 00 00	 mov	 eax, DWORD PTR ___security_cookie
  0000e	33 c5		 xor	 eax, ebp
  00010	89 45 fc	 mov	 DWORD PTR __$ArrayPad$[ebp], eax
  00013	56		 push	 esi
  00014	8b f1		 mov	 esi, ecx

; 1187 : 	char szErrorMsg[128];
; 1188 : 
; 1189 : 	if (!m_pThreadList) {

  00016	83 7e 08 00	 cmp	 DWORD PTR [esi+8], 0
  0001a	0f 85 af 00 00
	00		 jne	 $LN3@initComThr

; 1190 : 		m_pThreadList = new (std::nothrow) CTList<CComThread>();

  00020	68 00 00 00 00	 push	 OFFSET ?nothrow@std@@3Unothrow_t@1@B ; std::nothrow
  00025	6a 18		 push	 24			; 00000018H
  00027	e8 00 00 00 00	 call	 ??2@YAPAXIABUnothrow_t@std@@@Z ; operator new
  0002c	8b c8		 mov	 ecx, eax
  0002e	83 c4 08	 add	 esp, 8
  00031	89 8d 78 ff ff
	ff		 mov	 DWORD PTR $T1[ebp], ecx
  00037	85 c9		 test	 ecx, ecx
  00039	74 2b		 je	 SHORT $LN5@initComThr
; File e:\infinia-library-3.0\com\include\comtlist.h

; 366  : 	m_pArray = NULL;

  0003b	c7 01 00 00 00
	00		 mov	 DWORD PTR [ecx], 0

; 367  : 	m_nUse = 0;

  00041	c7 41 04 00 00
	00 00		 mov	 DWORD PTR [ecx+4], 0

; 368  : 	m_nLast = 0;

  00048	c7 41 08 00 00
	00 00		 mov	 DWORD PTR [ecx+8], 0

; 369  : 	m_nDelIdx = 0;

  0004f	c7 41 0c 00 00
	00 00		 mov	 DWORD PTR [ecx+12], 0

; 370  : 	m_nMax = 0;

  00056	c7 41 10 00 00
	00 00		 mov	 DWORD PTR [ecx+16], 0

; 371  : 	m_nObjAllocType = eAlloc_Type_none;

  0005d	c7 41 14 00 00
	00 00		 mov	 DWORD PTR [ecx+20], 0
; File e:\infinia-library-3.0\com\src\comcore.cpp

; 1190 : 		m_pThreadList = new (std::nothrow) CTList<CComThread>();

  00064	eb 02		 jmp	 SHORT $LN6@initComThr
$LN5@initComThr:
  00066	33 c9		 xor	 ecx, ecx
$LN6@initComThr:
  00068	89 4e 08	 mov	 DWORD PTR [esi+8], ecx

; 1191 : 		if (!m_pThreadList->alloc(nThreadCount + LIST_ADD_COUNT, eAlloc_Type_none)) {

  0006b	8b 75 08	 mov	 esi, DWORD PTR _nThreadCount$[ebp]
  0006e	6a 00		 push	 0
  00070	83 c6 0a	 add	 esi, 10			; 0000000aH
  00073	56		 push	 esi
  00074	e8 00 00 00 00	 call	 ?alloc@?$CTList@VCComThread@@@@QAEHHW4E_ALLOC_TYPE@@@Z ; CTList<CComThread>::alloc
  00079	85 c0		 test	 eax, eax
  0007b	75 52		 jne	 SHORT $LN3@initComThr

; 1192 : 			sprintf(szErrorMsg, "m_pThreadList->alloc(%d)", nThreadCount + LIST_ADD_COUNT);

  0007d	56		 push	 esi
  0007e	8d 85 7c ff ff
	ff		 lea	 eax, DWORD PTR _szErrorMsg$[ebp]
  00084	68 00 00 00 00	 push	 OFFSET ??_C@_0BJ@MCPALMDL@m_pThreadList?9?$DOalloc?$CI?$CFd?$CJ?$AA@
  00089	50		 push	 eax
  0008a	e8 00 00 00 00	 call	 _sprintf
; File e:\infinia-library-3.0\com\include\comtypes.h

; 325  : 	sprintf(g_szSystemError, "ERROR! [%s:%d] %s\n", _szFunc, _nLine, pMsg);

  0008f	8d 85 7c ff ff
	ff		 lea	 eax, DWORD PTR _szErrorMsg$[ebp]
  00095	50		 push	 eax
  00096	68 a9 04 00 00	 push	 1193			; 000004a9H
  0009b	68 00 00 00 00	 push	 OFFSET ??_C@_0BJ@BBEFOIEG@CCoreList?3?3initComThread?$AA@
  000a0	68 00 00 00 00	 push	 OFFSET ??_C@_0BD@KEHDJCKJ@ERROR?$CB?5?$FL?$CFs?3?$CFd?$FN?5?$CFs?6?$AA@
  000a5	68 00 00 00 00	 push	 OFFSET ?g_szSystemError@@3PADA ; g_szSystemError
  000aa	e8 00 00 00 00	 call	 _sprintf

; 326  : 	printf(g_szSystemError);

  000af	68 00 00 00 00	 push	 OFFSET ?g_szSystemError@@3PADA ; g_szSystemError
  000b4	e8 00 00 00 00	 call	 _printf
  000b9	83 c4 24	 add	 esp, 36			; 00000024H
; File e:\infinia-library-3.0\com\src\comcore.cpp

; 1194 : 			return false;

  000bc	32 c0		 xor	 al, al
  000be	5e		 pop	 esi

; 1195 : 		}
; 1196 : 	}
; 1197 : 	return true;
; 1198 : }

  000bf	8b 4d fc	 mov	 ecx, DWORD PTR __$ArrayPad$[ebp]
  000c2	33 cd		 xor	 ecx, ebp
  000c4	e8 00 00 00 00	 call	 @__security_check_cookie@4
  000c9	8b e5		 mov	 esp, ebp
  000cb	5d		 pop	 ebp
  000cc	c2 04 00	 ret	 4
$LN3@initComThr:
  000cf	8b 4d fc	 mov	 ecx, DWORD PTR __$ArrayPad$[ebp]
  000d2	b0 01		 mov	 al, 1
  000d4	33 cd		 xor	 ecx, ebp
  000d6	5e		 pop	 esi
  000d7	e8 00 00 00 00	 call	 @__security_check_cookie@4
  000dc	8b e5		 mov	 esp, ebp
  000de	5d		 pop	 ebp
  000df	c2 04 00	 ret	 4
?initComThread@CCoreList@@QAE_NH@Z ENDP			; CCoreList::initComThread
_TEXT	ENDS
; Function compile flags: /Ogtp
; File e:\infinia-library-3.0\com\src\comcore.cpp
; File e:\infinia-library-3.0\com\include\comtlist.h
; File e:\infinia-library-3.0\com\src\comcore.cpp
; File e:\infinia-library-3.0\com\include\com\win32\win32_mtsync.h
; File e:\infinia-library-3.0\com\include\commempool.h
; File e:\infinia-library-3.0\com\src\comcore.cpp
; File e:\infinia-library-3.0\com\include\comcore.h
; File e:\infinia-library-3.0\com\src\comcore.cpp
; File e:\infinia-library-3.0\com\include\comcore.h
; File e:\infinia-library-3.0\com\src\comcore.cpp
;	COMDAT ?initQueueThread@CCoreList@@QAE_NPAD0@Z
_TEXT	SEGMENT
$T2 = -28						; size = 4
_nCount$1$ = -24					; size = 4
_idx$ = -20						; size = 4
$T3 = -20						; size = 4
$T4 = -20						; size = 4
_this$1$ = -16						; size = 4
__$EHRec$ = -12						; size = 12
_pConfigFile$ = 8					; size = 4
_pSection$ = 12						; size = 4
?initQueueThread@CCoreList@@QAE_NPAD0@Z PROC		; CCoreList::initQueueThread, COMDAT
; _this$ = ecx

; 787  : {

  00000	55		 push	 ebp
  00001	8b ec		 mov	 ebp, esp
  00003	6a ff		 push	 -1
  00005	68 00 00 00 00	 push	 __ehhandler$?initQueueThread@CCoreList@@QAE_NPAD0@Z
  0000a	64 a1 00 00 00
	00		 mov	 eax, DWORD PTR fs:0
  00010	50		 push	 eax
  00011	83 ec 10	 sub	 esp, 16			; 00000010H
  00014	56		 push	 esi
  00015	57		 push	 edi
  00016	a1 00 00 00 00	 mov	 eax, DWORD PTR ___security_cookie
  0001b	33 c5		 xor	 eax, ebp
  0001d	50		 push	 eax
  0001e	8d 45 f4	 lea	 eax, DWORD PTR __$EHRec$[ebp]
  00021	64 a3 00 00 00
	00		 mov	 DWORD PTR fs:0, eax
  00027	89 4d f0	 mov	 DWORD PTR _this$1$[ebp], ecx

; 788  : 	int nCount, i, nMax, idx, nTmp;
; 789  : 	CComQueueThread *pEventThread;
; 790  : 	nCount = GetPrivateProfileInt(pSection, _T("LIST_COUNT"), 0, pConfigFile);

  0002a	8b 7d 08	 mov	 edi, DWORD PTR _pConfigFile$[ebp]
  0002d	57		 push	 edi
  0002e	6a 00		 push	 0
  00030	68 00 00 00 00	 push	 OFFSET ??_C@_0L@GOMEIANA@LIST_COUNT?$AA@
  00035	ff 75 0c	 push	 DWORD PTR _pSection$[ebp]
  00038	ff 15 00 00 00
	00		 call	 DWORD PTR __imp__GetPrivateProfileIntA@16
  0003e	8b f0		 mov	 esi, eax
  00040	89 75 e8	 mov	 DWORD PTR _nCount$1$[ebp], esi

; 791  : 	if (nCount)

  00043	85 f6		 test	 esi, esi
  00045	0f 84 90 01 00
	00		 je	 $LN3@initQueueT

; 793  : 		m_pEventThreadList = new CTList<CComQueueThread>();

  0004b	6a 18		 push	 24			; 00000018H
  0004d	e8 00 00 00 00	 call	 ??2@YAPAXI@Z		; operator new
  00052	8b c8		 mov	 ecx, eax
  00054	83 c4 04	 add	 esp, 4
  00057	89 4d ec	 mov	 DWORD PTR $T4[ebp], ecx
  0005a	85 c9		 test	 ecx, ecx
  0005c	74 36		 je	 SHORT $LN12@initQueueT
  0005e	0f 57 c0	 xorps	 xmm0, xmm0
  00061	0f 11 01	 movups	 XMMWORD PTR [ecx], xmm0
  00064	66 0f d6 41 10	 movq	 QWORD PTR [ecx+16], xmm0
; File e:\infinia-library-3.0\com\include\comtlist.h

; 366  : 	m_pArray = NULL;

  00069	c7 01 00 00 00
	00		 mov	 DWORD PTR [ecx], 0

; 367  : 	m_nUse = 0;

  0006f	c7 41 04 00 00
	00 00		 mov	 DWORD PTR [ecx+4], 0

; 368  : 	m_nLast = 0;

  00076	c7 41 08 00 00
	00 00		 mov	 DWORD PTR [ecx+8], 0

; 369  : 	m_nDelIdx = 0;

  0007d	c7 41 0c 00 00
	00 00		 mov	 DWORD PTR [ecx+12], 0

; 370  : 	m_nMax = 0;

  00084	c7 41 10 00 00
	00 00		 mov	 DWORD PTR [ecx+16], 0

; 371  : 	m_nObjAllocType = eAlloc_Type_none;

  0008b	c7 41 14 00 00
	00 00		 mov	 DWORD PTR [ecx+20], 0
; File e:\infinia-library-3.0\com\src\comcore.cpp

; 793  : 		m_pEventThreadList = new CTList<CComQueueThread>();

  00092	eb 02		 jmp	 SHORT $LN13@initQueueT
$LN12@initQueueT:
  00094	33 c9		 xor	 ecx, ecx
$LN13@initQueueT:
  00096	8b 45 f0	 mov	 eax, DWORD PTR _this$1$[ebp]

; 794  : 		if (!m_pEventThreadList->alloc(nCount + LIST_ADD_COUNT, eAlloc_Type_none)) {

  00099	6a 00		 push	 0
  0009b	89 48 0c	 mov	 DWORD PTR [eax+12], ecx
  0009e	8d 46 0a	 lea	 eax, DWORD PTR [esi+10]
  000a1	50		 push	 eax
  000a2	e8 00 00 00 00	 call	 ?alloc@?$CTList@VCComQueueThread@@@@QAEHHW4E_ALLOC_TYPE@@@Z ; CTList<CComQueueThread>::alloc
  000a7	85 c0		 test	 eax, eax
  000a9	75 22		 jne	 SHORT $LN6@initQueueT

; 795  : 			printf("has Failed!! m_pEventThreadList = new CTList<CComQueueThread>()\n");

  000ab	68 00 00 00 00	 push	 OFFSET ??_C@_0EB@PHMKJEKB@has?5Failed?$CB?$CB?5m_pEventThreadList?5@
  000b0	e8 00 00 00 00	 call	 _printf
  000b5	83 c4 04	 add	 esp, 4

; 796  : 			return false;

  000b8	32 c0		 xor	 al, al

; 824  : }

  000ba	8b 4d f4	 mov	 ecx, DWORD PTR __$EHRec$[ebp]
  000bd	64 89 0d 00 00
	00 00		 mov	 DWORD PTR fs:0, ecx
  000c4	59		 pop	 ecx
  000c5	5f		 pop	 edi
  000c6	5e		 pop	 esi
  000c7	8b e5		 mov	 esp, ebp
  000c9	5d		 pop	 ebp
  000ca	c2 08 00	 ret	 8
$LN6@initQueueT:

; 797  : 		}
; 798  : 		nTmp = nCount * 20;
; 799  : 		nMax = GetPrivateProfileInt(pSection, _T("EVENT_POOL_MAX"), nTmp, pConfigFile) + CORE_PLUS_POOL_COUNT;

  000cd	57		 push	 edi
  000ce	8d 04 b6	 lea	 eax, DWORD PTR [esi+esi*4]
  000d1	c1 e0 02	 shl	 eax, 2
  000d4	50		 push	 eax
  000d5	68 00 00 00 00	 push	 OFFSET ??_C@_0P@GPCADKBB@EVENT_POOL_MAX?$AA@
  000da	ff 75 0c	 push	 DWORD PTR _pSection$[ebp]
  000dd	ff 15 00 00 00
	00		 call	 DWORD PTR __imp__GetPrivateProfileIntA@16

; 800  : 		m_pEventPool = new CMemPool<STEvent>();

  000e3	6a 18		 push	 24			; 00000018H
  000e5	8d 78 0a	 lea	 edi, DWORD PTR [eax+10]
  000e8	e8 00 00 00 00	 call	 ??2@YAPAXI@Z		; operator new
  000ed	83 c4 04	 add	 esp, 4
  000f0	89 45 ec	 mov	 DWORD PTR $T3[ebp], eax
  000f3	85 c0		 test	 eax, eax
  000f5	74 36		 je	 SHORT $LN14@initQueueT
  000f7	0f 57 c0	 xorps	 xmm0, xmm0
  000fa	0f 11 00	 movups	 XMMWORD PTR [eax], xmm0
  000fd	66 0f d6 40 10	 movq	 QWORD PTR [eax+16], xmm0
; File e:\infinia-library-3.0\com\include\com\win32\win32_mtsync.h

; 87   : 	win_atomic() {m_count = 0;}

  00102	c7 40 04 00 00
	00 00		 mov	 DWORD PTR [eax+4], 0
; File e:\infinia-library-3.0\com\include\commempool.h

; 65   : 	m_nAllocCount = 0;

  00109	c7 40 0c 00 00
	00 00		 mov	 DWORD PTR [eax+12], 0

; 66   : 	m_nLastCount = 0;

  00110	c7 40 08 00 00
	00 00		 mov	 DWORD PTR [eax+8], 0

; 67   : 	//memset(m_szMessage, 0 ,LEN_MEM_MESSAGE);
; 68   : 	m_pChunk = NULL;

  00117	c7 40 14 00 00
	00 00		 mov	 DWORD PTR [eax+20], 0

; 69   : 	m_nFlagArray = NULL;

  0011e	c7 00 00 00 00
	00		 mov	 DWORD PTR [eax], 0

; 70   : 	m_nObjAllocType = eAlloc_Type_none;

  00124	c7 40 10 00 00
	00 00		 mov	 DWORD PTR [eax+16], 0
; File e:\infinia-library-3.0\com\src\comcore.cpp

; 800  : 		m_pEventPool = new CMemPool<STEvent>();

  0012b	eb 02		 jmp	 SHORT $LN15@initQueueT
$LN14@initQueueT:
  0012d	33 c0		 xor	 eax, eax
$LN15@initQueueT:
  0012f	8b 4d f0	 mov	 ecx, DWORD PTR _this$1$[ebp]

; 801  : 		if (!m_pEventPool->alloc(nMax, eAlloc_Type_alloc)) {

  00132	6a 03		 push	 3
  00134	57		 push	 edi
  00135	89 41 14	 mov	 DWORD PTR [ecx+20], eax
  00138	8b c8		 mov	 ecx, eax
  0013a	e8 00 00 00 00	 call	 ?alloc@?$CMemPool@USTEvent@@@@QAEHHW4E_ALLOC_TYPE@@@Z ; CMemPool<STEvent>::alloc
  0013f	85 c0		 test	 eax, eax
  00141	75 23		 jne	 SHORT $LN7@initQueueT

; 802  : 			printf("has Failed!! m_pEventPool.alloc(%d)\n", nMax);

  00143	57		 push	 edi
  00144	68 00 00 00 00	 push	 OFFSET ??_C@_0CF@NMFNAPDO@has?5Failed?$CB?$CB?5m_pEventPool?4alloc?$CI@
  00149	e8 00 00 00 00	 call	 _printf
  0014e	83 c4 08	 add	 esp, 8

; 803  : 			return false;

  00151	32 c0		 xor	 al, al

; 824  : }

  00153	8b 4d f4	 mov	 ecx, DWORD PTR __$EHRec$[ebp]
  00156	64 89 0d 00 00
	00 00		 mov	 DWORD PTR fs:0, ecx
  0015d	59		 pop	 ecx
  0015e	5f		 pop	 edi
  0015f	5e		 pop	 esi
  00160	8b e5		 mov	 esp, ebp
  00162	5d		 pop	 ebp
  00163	c2 08 00	 ret	 8
$LN7@initQueueT:

; 805  : 		for (i = 0; i < nCount; i++) {

  00166	33 ff		 xor	 edi, edi
  00168	85 f6		 test	 esi, esi
  0016a	7e 6f		 jle	 SHORT $LN3@initQueueT
  0016c	0f 1f 40 00	 npad	 4
$LL4@initQueueT:

; 806  : 			pEventThread = new (std::nothrow) CComQueueThread();

  00170	68 00 00 00 00	 push	 OFFSET ?nothrow@std@@3Unothrow_t@1@B ; std::nothrow
  00175	6a 68		 push	 104			; 00000068H
  00177	e8 00 00 00 00	 call	 ??2@YAPAXIABUnothrow_t@std@@@Z ; operator new
  0017c	83 c4 08	 add	 esp, 8
  0017f	89 45 e4	 mov	 DWORD PTR $T2[ebp], eax
  00182	c7 45 fc 00 00
	00 00		 mov	 DWORD PTR __$EHRec$[ebp+8], 0
  00189	85 c0		 test	 eax, eax
  0018b	74 0b		 je	 SHORT $LN16@initQueueT
  0018d	8b c8		 mov	 ecx, eax
  0018f	e8 00 00 00 00	 call	 ??0CComQueueThread@@QAE@XZ ; CComQueueThread::CComQueueThread
  00194	8b f0		 mov	 esi, eax
  00196	eb 02		 jmp	 SHORT $LN17@initQueueT
$LN16@initQueueT:
  00198	33 f6		 xor	 esi, esi
$LN17@initQueueT:
  0019a	c7 45 fc ff ff
	ff ff		 mov	 DWORD PTR __$EHRec$[ebp+8], -1

; 807  : 			if (!pEventThread) {

  001a1	85 f6		 test	 esi, esi
  001a3	0f 84 8d 00 00
	00		 je	 $LN36@initQueueT

; 810  : 			}
; 811  : 			if (!pEventThread->initConfig(pConfigFile, i, pSection)) {

  001a9	ff 75 0c	 push	 DWORD PTR _pSection$[ebp]
  001ac	8b ce		 mov	 ecx, esi
  001ae	57		 push	 edi
  001af	ff 75 08	 push	 DWORD PTR _pConfigFile$[ebp]
  001b2	e8 00 00 00 00	 call	 ?initConfig@CComQueueThread@@QAE_NPADH0@Z ; CComQueueThread::initConfig
  001b7	84 c0		 test	 al, al
  001b9	74 58		 je	 SHORT $LN37@initQueueT

; 814  : 			}
; 815  : 
; 816  : 			if (!m_pEventThreadList->push_back(pEventThread, &idx)) {

  001bb	8d 45 ec	 lea	 eax, DWORD PTR _idx$[ebp]
  001be	50		 push	 eax
  001bf	8b 45 f0	 mov	 eax, DWORD PTR _this$1$[ebp]
  001c2	56		 push	 esi
  001c3	8b 48 0c	 mov	 ecx, DWORD PTR [eax+12]
  001c6	e8 00 00 00 00	 call	 ?push_back@?$CTList@VCComQueueThread@@@@QAE_NPAVCComQueueThread@@PAH@Z ; CTList<CComQueueThread>::push_back
  001cb	84 c0		 test	 al, al
  001cd	74 21		 je	 SHORT $LN38@initQueueT
; File e:\infinia-library-3.0\com\include\comcore.h

; 90   : 	inline void setIdx(int nIdx) { m_stInfo.nIdx = nIdx; }

  001cf	8b 45 ec	 mov	 eax, DWORD PTR _idx$[ebp]
; File e:\infinia-library-3.0\com\src\comcore.cpp

; 805  : 		for (i = 0; i < nCount; i++) {

  001d2	47		 inc	 edi
; File e:\infinia-library-3.0\com\include\comcore.h

; 90   : 	inline void setIdx(int nIdx) { m_stInfo.nIdx = nIdx; }

  001d3	89 46 18	 mov	 DWORD PTR [esi+24], eax
; File e:\infinia-library-3.0\com\src\comcore.cpp

; 805  : 		for (i = 0; i < nCount; i++) {

  001d6	3b 7d e8	 cmp	 edi, DWORD PTR _nCount$1$[ebp]
  001d9	7c 95		 jl	 SHORT $LL4@initQueueT
$LN3@initQueueT:

; 819  : 			}
; 820  : 			pEventThread->m_cThread.setIdx(idx);
; 821  : 		}
; 822  : 	}
; 823  : 	return true;

  001db	b0 01		 mov	 al, 1

; 824  : }

  001dd	8b 4d f4	 mov	 ecx, DWORD PTR __$EHRec$[ebp]
  001e0	64 89 0d 00 00
	00 00		 mov	 DWORD PTR fs:0, ecx
  001e7	59		 pop	 ecx
  001e8	5f		 pop	 edi
  001e9	5e		 pop	 esi
  001ea	8b e5		 mov	 esp, ebp
  001ec	5d		 pop	 ebp
  001ed	c2 08 00	 ret	 8
$LN38@initQueueT:

; 817  : 				printf("has Failed!! [seq:%d] m_pEventThreadList->setNewObj(pScheduler)\n", i);

  001f0	57		 push	 edi
  001f1	68 00 00 00 00	 push	 OFFSET ??_C@_0EB@LDCGOHOI@has?5Failed?$CB?$CB?5?$FLseq?3?$CFd?$FN?5m_pEventTh@
  001f6	e8 00 00 00 00	 call	 _printf
  001fb	83 c4 08	 add	 esp, 8

; 818  : 				return false;

  001fe	32 c0		 xor	 al, al

; 824  : }

  00200	8b 4d f4	 mov	 ecx, DWORD PTR __$EHRec$[ebp]
  00203	64 89 0d 00 00
	00 00		 mov	 DWORD PTR fs:0, ecx
  0020a	59		 pop	 ecx
  0020b	5f		 pop	 edi
  0020c	5e		 pop	 esi
  0020d	8b e5		 mov	 esp, ebp
  0020f	5d		 pop	 ebp
  00210	c2 08 00	 ret	 8
$LN37@initQueueT:

; 812  : 				printf("has Failed!! [seq:%d] pEventThread->init()\n", i);

  00213	57		 push	 edi
  00214	68 00 00 00 00	 push	 OFFSET ??_C@_0CM@LDNDJLEG@has?5Failed?$CB?$CB?5?$FLseq?3?$CFd?$FN?5pEventThre@
  00219	e8 00 00 00 00	 call	 _printf
  0021e	83 c4 08	 add	 esp, 8

; 813  : 				return false;

  00221	32 c0		 xor	 al, al

; 824  : }

  00223	8b 4d f4	 mov	 ecx, DWORD PTR __$EHRec$[ebp]
  00226	64 89 0d 00 00
	00 00		 mov	 DWORD PTR fs:0, ecx
  0022d	59		 pop	 ecx
  0022e	5f		 pop	 edi
  0022f	5e		 pop	 esi
  00230	8b e5		 mov	 esp, ebp
  00232	5d		 pop	 ebp
  00233	c2 08 00	 ret	 8
$LN36@initQueueT:

; 808  : 				printf("has Failed!! [seq:%d] pEventThread = new (std::nothrow) CComQueueThread()\n", i);

  00236	57		 push	 edi
  00237	68 00 00 00 00	 push	 OFFSET ??_C@_0EL@EOHMNHFJ@has?5Failed?$CB?$CB?5?$FLseq?3?$CFd?$FN?5pEventThre@
  0023c	e8 00 00 00 00	 call	 _printf
  00241	83 c4 08	 add	 esp, 8

; 809  : 				return false;

  00244	32 c0		 xor	 al, al

; 824  : }

  00246	8b 4d f4	 mov	 ecx, DWORD PTR __$EHRec$[ebp]
  00249	64 89 0d 00 00
	00 00		 mov	 DWORD PTR fs:0, ecx
  00250	59		 pop	 ecx
  00251	5f		 pop	 edi
  00252	5e		 pop	 esi
  00253	8b e5		 mov	 esp, ebp
  00255	5d		 pop	 ebp
  00256	c2 08 00	 ret	 8
_TEXT	ENDS
;	COMDAT text$x
text$x	SEGMENT
__unwindfunclet$?initQueueThread@CCoreList@@QAE_NPAD0@Z$2:
  00000	68 00 00 00 00	 push	 OFFSET ?nothrow@std@@3Unothrow_t@1@B ; std::nothrow
  00005	8b 45 e4	 mov	 eax, DWORD PTR $T2[ebp]
  00008	50		 push	 eax
  00009	e8 00 00 00 00	 call	 ??3@YAXPAXABUnothrow_t@std@@@Z ; operator delete
  0000e	83 c4 08	 add	 esp, 8
  00011	c3		 ret	 0
__ehhandler$?initQueueThread@CCoreList@@QAE_NPAD0@Z:
  00012	8b 54 24 08	 mov	 edx, DWORD PTR [esp+8]
  00016	8d 42 0c	 lea	 eax, DWORD PTR [edx+12]
  00019	8b 4a e4	 mov	 ecx, DWORD PTR [edx-28]
  0001c	33 c8		 xor	 ecx, eax
  0001e	e8 00 00 00 00	 call	 @__security_check_cookie@4
  00023	b8 00 00 00 00	 mov	 eax, OFFSET __ehfuncinfo$?initQueueThread@CCoreList@@QAE_NPAD0@Z
  00028	e9 00 00 00 00	 jmp	 ___CxxFrameHandler3
text$x	ENDS
?initQueueThread@CCoreList@@QAE_NPAD0@Z ENDP		; CCoreList::initQueueThread
; Function compile flags: /Ogtp
; File e:\infinia-library-3.0\com\src\comcore.cpp
; File e:\infinia-library-3.0\com\include\comtlist.h
; File e:\infinia-library-3.0\com\src\comcore.cpp
; File e:\infinia-library-3.0\com\include\comtypes.h
; File e:\infinia-library-3.0\com\src\comcore.cpp
; File e:\infinia-library-3.0\com\include\comtypes.h
; File e:\infinia-library-3.0\com\src\comcore.cpp
; File e:\infinia-library-3.0\com\include\com\win32\win32_mtsync.h
; File e:\infinia-library-3.0\com\include\commempool.h
; File e:\infinia-library-3.0\com\src\comcore.cpp
; File e:\infinia-library-3.0\com\include\comcore.h
; File e:\infinia-library-3.0\com\src\comcore.cpp
; File e:\infinia-library-3.0\com\include\comcore.h
; File e:\infinia-library-3.0\com\src\comcore.cpp
; File e:\infinia-library-3.0\com\include\comtypes.h
; File e:\infinia-library-3.0\com\src\comcore.cpp
; File e:\infinia-library-3.0\com\include\comtypes.h
; File e:\infinia-library-3.0\com\src\comcore.cpp
; File e:\infinia-library-3.0\com\include\comtypes.h
; File e:\infinia-library-3.0\com\src\comcore.cpp
; File e:\infinia-library-3.0\com\include\comtypes.h
; File e:\infinia-library-3.0\com\src\comcore.cpp
;	COMDAT ?initScheduler@CCoreList@@QAE_NPAD0@Z
_TEXT	SEGMENT
$T1 = -152						; size = 4
_this$GSCopy$1$ = -148					; size = 4
_pConfigFile$GSCopy$1$ = -144				; size = 4
_pSection$GSCopy$1$ = -140				; size = 4
_idx$ = -136						; size = 4
$T2 = -136						; size = 4
$T3 = -136						; size = 4
_szErrorMsg$ = -132					; size = 128
__$ArrayPad$ = -4					; size = 4
_pConfigFile$ = 8					; size = 4
_pSection$ = 12						; size = 4
?initScheduler@CCoreList@@QAE_NPAD0@Z PROC		; CCoreList::initScheduler, COMDAT
; _this$ = ecx

; 734  : {

  00000	55		 push	 ebp
  00001	8b ec		 mov	 ebp, esp
  00003	81 ec 98 00 00
	00		 sub	 esp, 152		; 00000098H
  00009	a1 00 00 00 00	 mov	 eax, DWORD PTR ___security_cookie
  0000e	33 c5		 xor	 eax, ebp
  00010	89 45 fc	 mov	 DWORD PTR __$ArrayPad$[ebp], eax
  00013	8b 45 08	 mov	 eax, DWORD PTR _pConfigFile$[ebp]
  00016	53		 push	 ebx
  00017	56		 push	 esi
  00018	57		 push	 edi

; 735  : 	int nCount, i, nMax, idx;
; 736  : 	CScheduler *pScheduler;
; 737  : 	char szErrorMsg[128];
; 738  : 	// scheduler
; 739  : 	nCount = GetPrivateProfileInt(pSection, _T("LIST_COUNT"), 0, pConfigFile);

  00019	50		 push	 eax
  0001a	6a 00		 push	 0
  0001c	8b f9		 mov	 edi, ecx
  0001e	89 85 70 ff ff
	ff		 mov	 DWORD PTR _pConfigFile$GSCopy$1$[ebp], eax
  00024	8b 4d 0c	 mov	 ecx, DWORD PTR _pSection$[ebp]
  00027	68 00 00 00 00	 push	 OFFSET ??_C@_0L@GOMEIANA@LIST_COUNT?$AA@
  0002c	51		 push	 ecx
  0002d	89 bd 6c ff ff
	ff		 mov	 DWORD PTR _this$GSCopy$1$[ebp], edi
  00033	89 8d 74 ff ff
	ff		 mov	 DWORD PTR _pSection$GSCopy$1$[ebp], ecx
  00039	ff 15 00 00 00
	00		 call	 DWORD PTR __imp__GetPrivateProfileIntA@16
  0003f	8b d8		 mov	 ebx, eax

; 740  : 	if (nCount) {

  00041	85 db		 test	 ebx, ebx
  00043	0f 84 1d 02 00
	00		 je	 $LN3@initSchedu

; 741  : 		if (!m_pSchedulerList) {

  00049	83 7f 04 00	 cmp	 DWORD PTR [edi+4], 0
  0004d	0f 85 05 01 00
	00		 jne	 $LN8@initSchedu

; 742  : 			m_pSchedulerList = new (std::nothrow) CTList<CScheduler>();

  00053	68 00 00 00 00	 push	 OFFSET ?nothrow@std@@3Unothrow_t@1@B ; std::nothrow
  00058	6a 18		 push	 24			; 00000018H
  0005a	e8 00 00 00 00	 call	 ??2@YAPAXIABUnothrow_t@std@@@Z ; operator new
  0005f	83 c4 08	 add	 esp, 8
  00062	89 85 78 ff ff
	ff		 mov	 DWORD PTR $T3[ebp], eax
  00068	85 c0		 test	 eax, eax
  0006a	74 2b		 je	 SHORT $LN14@initSchedu
; File e:\infinia-library-3.0\com\include\comtlist.h

; 366  : 	m_pArray = NULL;

  0006c	c7 00 00 00 00
	00		 mov	 DWORD PTR [eax], 0

; 367  : 	m_nUse = 0;

  00072	c7 40 04 00 00
	00 00		 mov	 DWORD PTR [eax+4], 0

; 368  : 	m_nLast = 0;

  00079	c7 40 08 00 00
	00 00		 mov	 DWORD PTR [eax+8], 0

; 369  : 	m_nDelIdx = 0;

  00080	c7 40 0c 00 00
	00 00		 mov	 DWORD PTR [eax+12], 0

; 370  : 	m_nMax = 0;

  00087	c7 40 10 00 00
	00 00		 mov	 DWORD PTR [eax+16], 0

; 371  : 	m_nObjAllocType = eAlloc_Type_none;

  0008e	c7 40 14 00 00
	00 00		 mov	 DWORD PTR [eax+20], 0
; File e:\infinia-library-3.0\com\src\comcore.cpp

; 742  : 			m_pSchedulerList = new (std::nothrow) CTList<CScheduler>();

  00095	eb 02		 jmp	 SHORT $LN15@initSchedu
$LN14@initSchedu:
  00097	33 c0		 xor	 eax, eax
$LN15@initSchedu:
  00099	89 47 04	 mov	 DWORD PTR [edi+4], eax

; 743  : 			if (!m_pSchedulerList) {

  0009c	85 c0		 test	 eax, eax
  0009e	75 53		 jne	 SHORT $LN7@initSchedu

; 744  : 				sprintf(szErrorMsg, "new (std::nothrow) CTList<CScheduler>() is NULL");

  000a0	8d 85 7c ff ff
	ff		 lea	 eax, DWORD PTR _szErrorMsg$[ebp]
  000a6	68 00 00 00 00	 push	 OFFSET ??_C@_0DA@MNBINEIB@new?5?$CIstd?3?3nothrow?$CJ?5CTList?$DMCSched@
  000ab	50		 push	 eax
  000ac	e8 00 00 00 00	 call	 _sprintf
; File e:\infinia-library-3.0\com\include\comtypes.h

; 325  : 	sprintf(g_szSystemError, "ERROR! [%s:%d] %s\n", _szFunc, _nLine, pMsg);

  000b1	8d 85 7c ff ff
	ff		 lea	 eax, DWORD PTR _szErrorMsg$[ebp]
  000b7	50		 push	 eax
  000b8	68 e9 02 00 00	 push	 745			; 000002e9H
  000bd	68 00 00 00 00	 push	 OFFSET ??_C@_0BJ@DFFAHENC@CCoreList?3?3initScheduler?$AA@
  000c2	68 00 00 00 00	 push	 OFFSET ??_C@_0BD@KEHDJCKJ@ERROR?$CB?5?$FL?$CFs?3?$CFd?$FN?5?$CFs?6?$AA@
  000c7	68 00 00 00 00	 push	 OFFSET ?g_szSystemError@@3PADA ; g_szSystemError
  000cc	e8 00 00 00 00	 call	 _sprintf

; 326  : 	printf(g_szSystemError);

  000d1	68 00 00 00 00	 push	 OFFSET ?g_szSystemError@@3PADA ; g_szSystemError
  000d6	e8 00 00 00 00	 call	 _printf
  000db	83 c4 20	 add	 esp, 32			; 00000020H
; File e:\infinia-library-3.0\com\src\comcore.cpp

; 746  : 				return false;

  000de	32 c0		 xor	 al, al
  000e0	5f		 pop	 edi
  000e1	5e		 pop	 esi
  000e2	5b		 pop	 ebx

; 783  : }

  000e3	8b 4d fc	 mov	 ecx, DWORD PTR __$ArrayPad$[ebp]
  000e6	33 cd		 xor	 ecx, ebp
  000e8	e8 00 00 00 00	 call	 @__security_check_cookie@4
  000ed	8b e5		 mov	 esp, ebp
  000ef	5d		 pop	 ebp
  000f0	c2 08 00	 ret	 8
$LN7@initSchedu:

; 747  : 			}
; 748  : 			if (!m_pSchedulerList->alloc(nCount + LIST_ADD_COUNT, eAlloc_Type_none)) {

  000f3	6a 00		 push	 0
  000f5	8d 73 0a	 lea	 esi, DWORD PTR [ebx+10]
  000f8	8b c8		 mov	 ecx, eax
  000fa	56		 push	 esi
  000fb	e8 00 00 00 00	 call	 ?alloc@?$CTList@VCScheduler@@@@QAEHHW4E_ALLOC_TYPE@@@Z ; CTList<CScheduler>::alloc
  00100	85 c0		 test	 eax, eax
  00102	75 54		 jne	 SHORT $LN8@initSchedu

; 749  : 				sprintf(szErrorMsg, "m_pSchedulerList->alloc nCnt[%d]", nCount + LIST_ADD_COUNT);

  00104	56		 push	 esi
  00105	8d 85 7c ff ff
	ff		 lea	 eax, DWORD PTR _szErrorMsg$[ebp]
  0010b	68 00 00 00 00	 push	 OFFSET ??_C@_0CB@EFDKLENI@m_pSchedulerList?9?$DOalloc?5nCnt?$FL?$CFd?$FN@
  00110	50		 push	 eax
  00111	e8 00 00 00 00	 call	 _sprintf
; File e:\infinia-library-3.0\com\include\comtypes.h

; 325  : 	sprintf(g_szSystemError, "ERROR! [%s:%d] %s\n", _szFunc, _nLine, pMsg);

  00116	8d 85 7c ff ff
	ff		 lea	 eax, DWORD PTR _szErrorMsg$[ebp]
  0011c	50		 push	 eax
  0011d	68 ee 02 00 00	 push	 750			; 000002eeH
  00122	68 00 00 00 00	 push	 OFFSET ??_C@_0BJ@DFFAHENC@CCoreList?3?3initScheduler?$AA@
  00127	68 00 00 00 00	 push	 OFFSET ??_C@_0BD@KEHDJCKJ@ERROR?$CB?5?$FL?$CFs?3?$CFd?$FN?5?$CFs?6?$AA@
  0012c	68 00 00 00 00	 push	 OFFSET ?g_szSystemError@@3PADA ; g_szSystemError
  00131	e8 00 00 00 00	 call	 _sprintf

; 326  : 	printf(g_szSystemError);

  00136	68 00 00 00 00	 push	 OFFSET ?g_szSystemError@@3PADA ; g_szSystemError
  0013b	e8 00 00 00 00	 call	 _printf
  00140	83 c4 24	 add	 esp, 36			; 00000024H
; File e:\infinia-library-3.0\com\src\comcore.cpp

; 751  : 				return false;

  00143	32 c0		 xor	 al, al
  00145	5f		 pop	 edi
  00146	5e		 pop	 esi
  00147	5b		 pop	 ebx

; 783  : }

  00148	8b 4d fc	 mov	 ecx, DWORD PTR __$ArrayPad$[ebp]
  0014b	33 cd		 xor	 ecx, ebp
  0014d	e8 00 00 00 00	 call	 @__security_check_cookie@4
  00152	8b e5		 mov	 esp, ebp
  00154	5d		 pop	 ebp
  00155	c2 08 00	 ret	 8
$LN8@initSchedu:

; 752  : 			}
; 753  : 		}
; 754  : 
; 755  : 		nMax = GetPrivateProfileInt(pSection, _T("TIME_POOL_MAX"), 0, pConfigFile) + CORE_PLUS_POOL_COUNT;

  00158	ff b5 70 ff ff
	ff		 push	 DWORD PTR _pConfigFile$GSCopy$1$[ebp]
  0015e	6a 00		 push	 0
  00160	68 00 00 00 00	 push	 OFFSET ??_C@_0O@PDAGDBGK@TIME_POOL_MAX?$AA@
  00165	ff b5 74 ff ff
	ff		 push	 DWORD PTR _pSection$GSCopy$1$[ebp]
  0016b	ff 15 00 00 00
	00		 call	 DWORD PTR __imp__GetPrivateProfileIntA@16

; 756  : 		m_pIntervalPool = new (std::nothrow) CMemPool<STIntervalInfo>();

  00171	68 00 00 00 00	 push	 OFFSET ?nothrow@std@@3Unothrow_t@1@B ; std::nothrow
  00176	6a 18		 push	 24			; 00000018H
  00178	8d 70 0a	 lea	 esi, DWORD PTR [eax+10]
  0017b	e8 00 00 00 00	 call	 ??2@YAPAXIABUnothrow_t@std@@@Z ; operator new
  00180	83 c4 08	 add	 esp, 8
  00183	89 85 78 ff ff
	ff		 mov	 DWORD PTR $T2[ebp], eax
  00189	85 c0		 test	 eax, eax
  0018b	74 2b		 je	 SHORT $LN16@initSchedu
; File e:\infinia-library-3.0\com\include\com\win32\win32_mtsync.h

; 87   : 	win_atomic() {m_count = 0;}

  0018d	c7 40 04 00 00
	00 00		 mov	 DWORD PTR [eax+4], 0
; File e:\infinia-library-3.0\com\include\commempool.h

; 65   : 	m_nAllocCount = 0;

  00194	c7 40 0c 00 00
	00 00		 mov	 DWORD PTR [eax+12], 0

; 66   : 	m_nLastCount = 0;

  0019b	c7 40 08 00 00
	00 00		 mov	 DWORD PTR [eax+8], 0

; 67   : 	//memset(m_szMessage, 0 ,LEN_MEM_MESSAGE);
; 68   : 	m_pChunk = NULL;

  001a2	c7 40 14 00 00
	00 00		 mov	 DWORD PTR [eax+20], 0

; 69   : 	m_nFlagArray = NULL;

  001a9	c7 00 00 00 00
	00		 mov	 DWORD PTR [eax], 0

; 70   : 	m_nObjAllocType = eAlloc_Type_none;

  001af	c7 40 10 00 00
	00 00		 mov	 DWORD PTR [eax+16], 0
; File e:\infinia-library-3.0\com\src\comcore.cpp

; 756  : 		m_pIntervalPool = new (std::nothrow) CMemPool<STIntervalInfo>();

  001b6	eb 02		 jmp	 SHORT $LN17@initSchedu
$LN16@initSchedu:
  001b8	33 c0		 xor	 eax, eax
$LN17@initSchedu:

; 757  : 		if (!m_pIntervalPool->alloc(nMax, eAlloc_Type_alloc)) {

  001ba	6a 03		 push	 3
  001bc	56		 push	 esi
  001bd	8b c8		 mov	 ecx, eax
  001bf	89 47 10	 mov	 DWORD PTR [edi+16], eax
  001c2	e8 00 00 00 00	 call	 ?alloc@?$CMemPool@USTIntervalInfo@@@@QAEHHW4E_ALLOC_TYPE@@@Z ; CMemPool<STIntervalInfo>::alloc
  001c7	85 c0		 test	 eax, eax
  001c9	75 23		 jne	 SHORT $LN9@initSchedu

; 758  : 			printf("has Failed!! m_pIntervalPool.alloc(%d)\n", nMax);

  001cb	56		 push	 esi
  001cc	68 00 00 00 00	 push	 OFFSET ??_C@_0CI@NHCIEDL@has?5Failed?$CB?$CB?5m_pIntervalPool?4all@
  001d1	e8 00 00 00 00	 call	 _printf
  001d6	83 c4 08	 add	 esp, 8

; 759  : 			return false;

  001d9	32 c0		 xor	 al, al
  001db	5f		 pop	 edi
  001dc	5e		 pop	 esi
  001dd	5b		 pop	 ebx

; 783  : }

  001de	8b 4d fc	 mov	 ecx, DWORD PTR __$ArrayPad$[ebp]
  001e1	33 cd		 xor	 ecx, ebp
  001e3	e8 00 00 00 00	 call	 @__security_check_cookie@4
  001e8	8b e5		 mov	 esp, ebp
  001ea	5d		 pop	 ebp
  001eb	c2 08 00	 ret	 8
$LN9@initSchedu:

; 762  : 		for (i = 0; i < nCount; i++) {

  001ee	33 f6		 xor	 esi, esi
  001f0	85 db		 test	 ebx, ebx
  001f2	7e 72		 jle	 SHORT $LN3@initSchedu
$LL4@initSchedu:

; 763  : 			pScheduler = new (std::nothrow) CScheduler();

  001f4	68 00 00 00 00	 push	 OFFSET ?nothrow@std@@3Unothrow_t@1@B ; std::nothrow
  001f9	6a 38		 push	 56			; 00000038H
  001fb	e8 00 00 00 00	 call	 ??2@YAPAXIABUnothrow_t@std@@@Z ; operator new
  00200	83 c4 08	 add	 esp, 8
  00203	89 85 68 ff ff
	ff		 mov	 DWORD PTR $T1[ebp], eax
  00209	85 c0		 test	 eax, eax
  0020b	0f 84 17 01 00
	00		 je	 $LN42@initSchedu
  00211	8b c8		 mov	 ecx, eax
  00213	e8 00 00 00 00	 call	 ??0CScheduler@@QAE@XZ	; CScheduler::CScheduler
  00218	8b f8		 mov	 edi, eax

; 764  : 			if (!pScheduler) {

  0021a	85 ff		 test	 edi, edi
  0021c	0f 84 06 01 00
	00		 je	 $LN42@initSchedu

; 766  : 				comErrorPrint(szErrorMsg);
; 767  : 				return false;
; 768  : 			}
; 769  : 			if (!pScheduler->initConfig(pConfigFile, i, pSection)) {

  00222	ff b5 74 ff ff
	ff		 push	 DWORD PTR _pSection$GSCopy$1$[ebp]
  00228	8b cf		 mov	 ecx, edi
  0022a	56		 push	 esi
  0022b	ff b5 70 ff ff
	ff		 push	 DWORD PTR _pConfigFile$GSCopy$1$[ebp]
  00231	e8 00 00 00 00	 call	 ?initConfig@CScheduler@@QAE_NPADH0@Z ; CScheduler::initConfig
  00236	84 c0		 test	 al, al
  00238	0f 84 96 00 00
	00		 je	 $LN43@initSchedu

; 773  : 			}
; 774  : 			if (!m_pSchedulerList->push_back(pScheduler, &idx)) {

  0023e	8d 85 78 ff ff
	ff		 lea	 eax, DWORD PTR _idx$[ebp]
  00244	50		 push	 eax
  00245	8b 85 6c ff ff
	ff		 mov	 eax, DWORD PTR _this$GSCopy$1$[ebp]
  0024b	57		 push	 edi
  0024c	8b 48 04	 mov	 ecx, DWORD PTR [eax+4]
  0024f	e8 00 00 00 00	 call	 ?push_back@?$CTList@VCScheduler@@@@QAE_NPAVCScheduler@@PAH@Z ; CTList<CScheduler>::push_back
  00254	84 c0		 test	 al, al
  00256	74 23		 je	 SHORT $LN44@initSchedu
; File e:\infinia-library-3.0\com\include\comcore.h

; 90   : 	inline void setIdx(int nIdx) { m_stInfo.nIdx = nIdx; }

  00258	8b 85 78 ff ff
	ff		 mov	 eax, DWORD PTR _idx$[ebp]
; File e:\infinia-library-3.0\com\src\comcore.cpp

; 762  : 		for (i = 0; i < nCount; i++) {

  0025e	46		 inc	 esi
; File e:\infinia-library-3.0\com\include\comcore.h

; 90   : 	inline void setIdx(int nIdx) { m_stInfo.nIdx = nIdx; }

  0025f	89 47 18	 mov	 DWORD PTR [edi+24], eax
; File e:\infinia-library-3.0\com\src\comcore.cpp

; 762  : 		for (i = 0; i < nCount; i++) {

  00262	3b f3		 cmp	 esi, ebx
  00264	7c 8e		 jl	 SHORT $LL4@initSchedu
$LN3@initSchedu:
  00266	5f		 pop	 edi
  00267	5e		 pop	 esi

; 778  : 			}
; 779  : 			pScheduler->m_cThread.setIdx(idx);
; 780  : 		}
; 781  : 	}
; 782  : 	return true;

  00268	b0 01		 mov	 al, 1
  0026a	5b		 pop	 ebx

; 783  : }

  0026b	8b 4d fc	 mov	 ecx, DWORD PTR __$ArrayPad$[ebp]
  0026e	33 cd		 xor	 ecx, ebp
  00270	e8 00 00 00 00	 call	 @__security_check_cookie@4
  00275	8b e5		 mov	 esp, ebp
  00277	5d		 pop	 ebp
  00278	c2 08 00	 ret	 8
$LN44@initSchedu:

; 775  : 				sprintf(szErrorMsg, "[seq:%d] pScheduler->push_back", idx);

  0027b	ff b5 78 ff ff
	ff		 push	 DWORD PTR _idx$[ebp]
  00281	8d 85 7c ff ff
	ff		 lea	 eax, DWORD PTR _szErrorMsg$[ebp]
  00287	68 00 00 00 00	 push	 OFFSET ??_C@_0BP@OAEKJINB@?$FLseq?3?$CFd?$FN?5pScheduler?9?$DOpush_back?$AA@
  0028c	50		 push	 eax
  0028d	e8 00 00 00 00	 call	 _sprintf
; File e:\infinia-library-3.0\com\include\comtypes.h

; 325  : 	sprintf(g_szSystemError, "ERROR! [%s:%d] %s\n", _szFunc, _nLine, pMsg);

  00292	8d 85 7c ff ff
	ff		 lea	 eax, DWORD PTR _szErrorMsg$[ebp]
  00298	50		 push	 eax
  00299	68 08 03 00 00	 push	 776			; 00000308H
  0029e	68 00 00 00 00	 push	 OFFSET ??_C@_0BJ@DFFAHENC@CCoreList?3?3initScheduler?$AA@
  002a3	68 00 00 00 00	 push	 OFFSET ??_C@_0BD@KEHDJCKJ@ERROR?$CB?5?$FL?$CFs?3?$CFd?$FN?5?$CFs?6?$AA@
  002a8	68 00 00 00 00	 push	 OFFSET ?g_szSystemError@@3PADA ; g_szSystemError
  002ad	e8 00 00 00 00	 call	 _sprintf

; 326  : 	printf(g_szSystemError);

  002b2	68 00 00 00 00	 push	 OFFSET ?g_szSystemError@@3PADA ; g_szSystemError
  002b7	e8 00 00 00 00	 call	 _printf
  002bc	83 c4 24	 add	 esp, 36			; 00000024H
; File e:\infinia-library-3.0\com\src\comcore.cpp

; 777  : 				return false;

  002bf	32 c0		 xor	 al, al
  002c1	5f		 pop	 edi
  002c2	5e		 pop	 esi
  002c3	5b		 pop	 ebx

; 783  : }

  002c4	8b 4d fc	 mov	 ecx, DWORD PTR __$ArrayPad$[ebp]
  002c7	33 cd		 xor	 ecx, ebp
  002c9	e8 00 00 00 00	 call	 @__security_check_cookie@4
  002ce	8b e5		 mov	 esp, ebp
  002d0	5d		 pop	 ebp
  002d1	c2 08 00	 ret	 8
$LN43@initSchedu:

; 770  : 				sprintf(szErrorMsg, "[seq:%d] pScheduler->init", i);

  002d4	56		 push	 esi
  002d5	8d 85 7c ff ff
	ff		 lea	 eax, DWORD PTR _szErrorMsg$[ebp]
  002db	68 00 00 00 00	 push	 OFFSET ??_C@_0BK@JFJEJDBI@?$FLseq?3?$CFd?$FN?5pScheduler?9?$DOinit?$AA@
  002e0	50		 push	 eax
  002e1	e8 00 00 00 00	 call	 _sprintf
; File e:\infinia-library-3.0\com\include\comtypes.h

; 325  : 	sprintf(g_szSystemError, "ERROR! [%s:%d] %s\n", _szFunc, _nLine, pMsg);

  002e6	8d 85 7c ff ff
	ff		 lea	 eax, DWORD PTR _szErrorMsg$[ebp]
  002ec	50		 push	 eax
  002ed	68 03 03 00 00	 push	 771			; 00000303H
  002f2	68 00 00 00 00	 push	 OFFSET ??_C@_0BJ@DFFAHENC@CCoreList?3?3initScheduler?$AA@
  002f7	68 00 00 00 00	 push	 OFFSET ??_C@_0BD@KEHDJCKJ@ERROR?$CB?5?$FL?$CFs?3?$CFd?$FN?5?$CFs?6?$AA@
  002fc	68 00 00 00 00	 push	 OFFSET ?g_szSystemError@@3PADA ; g_szSystemError
  00301	e8 00 00 00 00	 call	 _sprintf

; 326  : 	printf(g_szSystemError);

  00306	68 00 00 00 00	 push	 OFFSET ?g_szSystemError@@3PADA ; g_szSystemError
  0030b	e8 00 00 00 00	 call	 _printf
  00310	83 c4 24	 add	 esp, 36			; 00000024H
; File e:\infinia-library-3.0\com\src\comcore.cpp

; 772  : 				return false;

  00313	32 c0		 xor	 al, al
  00315	5f		 pop	 edi
  00316	5e		 pop	 esi
  00317	5b		 pop	 ebx

; 783  : }

  00318	8b 4d fc	 mov	 ecx, DWORD PTR __$ArrayPad$[ebp]
  0031b	33 cd		 xor	 ecx, ebp
  0031d	e8 00 00 00 00	 call	 @__security_check_cookie@4
  00322	8b e5		 mov	 esp, ebp
  00324	5d		 pop	 ebp
  00325	c2 08 00	 ret	 8
$LN42@initSchedu:

; 765  : 				sprintf(szErrorMsg, "[seq:%d] new (std::nothrow) CScheduler() is NULL", i);

  00328	56		 push	 esi
  00329	8d 85 7c ff ff
	ff		 lea	 eax, DWORD PTR _szErrorMsg$[ebp]
  0032f	68 00 00 00 00	 push	 OFFSET ??_C@_0DB@EGHIILBA@?$FLseq?3?$CFd?$FN?5new?5?$CIstd?3?3nothrow?$CJ?5CSch@
  00334	50		 push	 eax
  00335	e8 00 00 00 00	 call	 _sprintf
; File e:\infinia-library-3.0\com\include\comtypes.h

; 325  : 	sprintf(g_szSystemError, "ERROR! [%s:%d] %s\n", _szFunc, _nLine, pMsg);

  0033a	8d 85 7c ff ff
	ff		 lea	 eax, DWORD PTR _szErrorMsg$[ebp]
  00340	50		 push	 eax
  00341	68 fe 02 00 00	 push	 766			; 000002feH
  00346	68 00 00 00 00	 push	 OFFSET ??_C@_0BJ@DFFAHENC@CCoreList?3?3initScheduler?$AA@
  0034b	68 00 00 00 00	 push	 OFFSET ??_C@_0BD@KEHDJCKJ@ERROR?$CB?5?$FL?$CFs?3?$CFd?$FN?5?$CFs?6?$AA@
  00350	68 00 00 00 00	 push	 OFFSET ?g_szSystemError@@3PADA ; g_szSystemError
  00355	e8 00 00 00 00	 call	 _sprintf

; 326  : 	printf(g_szSystemError);

  0035a	68 00 00 00 00	 push	 OFFSET ?g_szSystemError@@3PADA ; g_szSystemError
  0035f	e8 00 00 00 00	 call	 _printf
; File e:\infinia-library-3.0\com\src\comcore.cpp

; 783  : }

  00364	8b 4d fc	 mov	 ecx, DWORD PTR __$ArrayPad$[ebp]
; File e:\infinia-library-3.0\com\include\comtypes.h

; 326  : 	printf(g_szSystemError);

  00367	83 c4 24	 add	 esp, 36			; 00000024H
; File e:\infinia-library-3.0\com\src\comcore.cpp

; 783  : }

  0036a	33 cd		 xor	 ecx, ebp
  0036c	32 c0		 xor	 al, al
  0036e	5f		 pop	 edi
  0036f	5e		 pop	 esi
  00370	5b		 pop	 ebx
  00371	e8 00 00 00 00	 call	 @__security_check_cookie@4
  00376	8b e5		 mov	 esp, ebp
  00378	5d		 pop	 ebp
  00379	c2 08 00	 ret	 8
?initScheduler@CCoreList@@QAE_NPAD0@Z ENDP		; CCoreList::initScheduler
_TEXT	ENDS
; Function compile flags: /Ogtp
; File e:\infinia-library-3.0\com\src\comcore.cpp
; File e:\infinia-library-3.0\com\include\comtlist.h
; File e:\infinia-library-3.0\com\src\comcore.cpp
; File e:\infinia-library-3.0\com\include\comtypes.h
; File e:\infinia-library-3.0\com\src\comcore.cpp
; File e:\infinia-library-3.0\com\include\comcore.h
; File e:\infinia-library-3.0\com\src\comcore.cpp
; File e:\infinia-library-3.0\com\include\comcore.h
; File e:\infinia-library-3.0\com\src\comcore.cpp
; File e:\infinia-library-3.0\com\include\comcore.h
; File e:\infinia-library-3.0\com\src\comcore.cpp
; File e:\infinia-library-3.0\com\include\comtypes.h
; File e:\infinia-library-3.0\com\src\comcore.cpp
; File e:\infinia-library-3.0\com\include\comtypes.h
; File e:\infinia-library-3.0\com\src\comcore.cpp
; File e:\infinia-library-3.0\com\include\comtypes.h
; File e:\infinia-library-3.0\com\src\comcore.cpp
; File e:\infinia-library-3.0\com\include\comtypes.h
; File e:\infinia-library-3.0\com\src\comcore.cpp
;	COMDAT ?initLogWriter@CCoreList@@QAE_NPAD0_N@Z
_TEXT	SEGMENT
$T1 = -184						; size = 4
_nCount$1$ = -180					; size = 4
_this$GSCopy$1$ = -176					; size = 4
_pConfigFile$GSCopy$1$ = -172				; size = 4
_pSection$GSCopy$1$ = -168				; size = 4
_idx$ = -164						; size = 4
$T2 = -164						; size = 4
_bRes$ = -157						; size = 1
_szErrorMsg$ = -156					; size = 128
_szSect$3 = -28						; size = 24
__$ArrayPad$ = -4					; size = 4
_pConfigFile$ = 8					; size = 4
_pSection$ = 12						; size = 4
_bSystem$ = 16						; size = 1
?initLogWriter@CCoreList@@QAE_NPAD0_N@Z PROC		; CCoreList::initLogWriter, COMDAT
; _this$ = ecx

; 687  : {

  00000	55		 push	 ebp
  00001	8b ec		 mov	 ebp, esp
  00003	81 ec b8 00 00
	00		 sub	 esp, 184		; 000000b8H
  00009	a1 00 00 00 00	 mov	 eax, DWORD PTR ___security_cookie
  0000e	33 c5		 xor	 eax, ebp
  00010	89 45 fc	 mov	 DWORD PTR __$ArrayPad$[ebp], eax
  00013	8b 45 08	 mov	 eax, DWORD PTR _pConfigFile$[ebp]
  00016	53		 push	 ebx
  00017	56		 push	 esi
  00018	57		 push	 edi

; 688  : 	int nCount, i, idx;
; 689  : 	CSTLogger *pWriter;
; 690  : 	char szErrorMsg[128];
; 691  : 	bool bRes;
; 692  : 
; 693  : 	nCount = GetPrivateProfileInt(pSection, _T("LIST_COUNT"), 1, pConfigFile);

  00019	50		 push	 eax
  0001a	6a 01		 push	 1
  0001c	8b f1		 mov	 esi, ecx
  0001e	89 85 54 ff ff
	ff		 mov	 DWORD PTR _pConfigFile$GSCopy$1$[ebp], eax
  00024	8b 4d 0c	 mov	 ecx, DWORD PTR _pSection$[ebp]
  00027	68 00 00 00 00	 push	 OFFSET ??_C@_0L@GOMEIANA@LIST_COUNT?$AA@
  0002c	51		 push	 ecx
  0002d	89 b5 50 ff ff
	ff		 mov	 DWORD PTR _this$GSCopy$1$[ebp], esi
  00033	89 8d 58 ff ff
	ff		 mov	 DWORD PTR _pSection$GSCopy$1$[ebp], ecx
  00039	ff 15 00 00 00
	00		 call	 DWORD PTR __imp__GetPrivateProfileIntA@16
  0003f	8b d8		 mov	 ebx, eax
  00041	89 9d 4c ff ff
	ff		 mov	 DWORD PTR _nCount$1$[ebp], ebx

; 694  : 	if (nCount) {

  00047	85 db		 test	 ebx, ebx
  00049	0f 84 95 01 00
	00		 je	 $LN3@initLogWri

; 695  : 		if (!m_pWriterList) {

  0004f	83 3e 00	 cmp	 DWORD PTR [esi], 0
  00052	0f 85 b3 00 00
	00		 jne	 $LN7@initLogWri

; 696  : 			m_pWriterList = new CTList<CSTLogger>();

  00058	6a 18		 push	 24			; 00000018H
  0005a	e8 00 00 00 00	 call	 ??2@YAPAXI@Z		; operator new
  0005f	83 c4 04	 add	 esp, 4
  00062	89 85 5c ff ff
	ff		 mov	 DWORD PTR $T2[ebp], eax
  00068	85 c0		 test	 eax, eax
  0006a	74 36		 je	 SHORT $LN14@initLogWri
  0006c	0f 57 c0	 xorps	 xmm0, xmm0
  0006f	0f 11 00	 movups	 XMMWORD PTR [eax], xmm0
  00072	66 0f d6 40 10	 movq	 QWORD PTR [eax+16], xmm0
; File e:\infinia-library-3.0\com\include\comtlist.h

; 366  : 	m_pArray = NULL;

  00077	c7 00 00 00 00
	00		 mov	 DWORD PTR [eax], 0

; 367  : 	m_nUse = 0;

  0007d	c7 40 04 00 00
	00 00		 mov	 DWORD PTR [eax+4], 0

; 368  : 	m_nLast = 0;

  00084	c7 40 08 00 00
	00 00		 mov	 DWORD PTR [eax+8], 0

; 369  : 	m_nDelIdx = 0;

  0008b	c7 40 0c 00 00
	00 00		 mov	 DWORD PTR [eax+12], 0

; 370  : 	m_nMax = 0;

  00092	c7 40 10 00 00
	00 00		 mov	 DWORD PTR [eax+16], 0

; 371  : 	m_nObjAllocType = eAlloc_Type_none;

  00099	c7 40 14 00 00
	00 00		 mov	 DWORD PTR [eax+20], 0
; File e:\infinia-library-3.0\com\src\comcore.cpp

; 696  : 			m_pWriterList = new CTList<CSTLogger>();

  000a0	eb 02		 jmp	 SHORT $LN15@initLogWri
$LN14@initLogWri:
  000a2	33 c0		 xor	 eax, eax
$LN15@initLogWri:
  000a4	89 06		 mov	 DWORD PTR [esi], eax

; 697  : 			if (!m_pWriterList->alloc(nCount + LIST_ADD_COUNT, eAlloc_Type_none)) {

  000a6	8b c8		 mov	 ecx, eax
  000a8	6a 00		 push	 0
  000aa	8d 73 0a	 lea	 esi, DWORD PTR [ebx+10]
  000ad	56		 push	 esi
  000ae	e8 00 00 00 00	 call	 ?alloc@?$CTList@VCSTLogger@@@@QAEHHW4E_ALLOC_TYPE@@@Z ; CTList<CSTLogger>::alloc
  000b3	85 c0		 test	 eax, eax
  000b5	75 54		 jne	 SHORT $LN7@initLogWri

; 698  : 				sprintf(szErrorMsg, "m_pWriterList->alloc nCnt[%d]", nCount + LIST_ADD_COUNT);

  000b7	56		 push	 esi
  000b8	8d 85 64 ff ff
	ff		 lea	 eax, DWORD PTR _szErrorMsg$[ebp]
  000be	68 00 00 00 00	 push	 OFFSET ??_C@_0BO@MFEFFEHB@m_pWriterList?9?$DOalloc?5nCnt?$FL?$CFd?$FN?$AA@
  000c3	50		 push	 eax
  000c4	e8 00 00 00 00	 call	 _sprintf
; File e:\infinia-library-3.0\com\include\comtypes.h

; 325  : 	sprintf(g_szSystemError, "ERROR! [%s:%d] %s\n", _szFunc, _nLine, pMsg);

  000c9	8d 85 64 ff ff
	ff		 lea	 eax, DWORD PTR _szErrorMsg$[ebp]
  000cf	50		 push	 eax
  000d0	68 bb 02 00 00	 push	 699			; 000002bbH
  000d5	68 00 00 00 00	 push	 OFFSET ??_C@_0BJ@GCPBPAB@CCoreList?3?3initLogWriter?$AA@
  000da	68 00 00 00 00	 push	 OFFSET ??_C@_0BD@KEHDJCKJ@ERROR?$CB?5?$FL?$CFs?3?$CFd?$FN?5?$CFs?6?$AA@
  000df	68 00 00 00 00	 push	 OFFSET ?g_szSystemError@@3PADA ; g_szSystemError
  000e4	e8 00 00 00 00	 call	 _sprintf

; 326  : 	printf(g_szSystemError);

  000e9	68 00 00 00 00	 push	 OFFSET ?g_szSystemError@@3PADA ; g_szSystemError
  000ee	e8 00 00 00 00	 call	 _printf
  000f3	83 c4 24	 add	 esp, 36			; 00000024H
; File e:\infinia-library-3.0\com\src\comcore.cpp

; 700  : 				return false;

  000f6	32 c0		 xor	 al, al
  000f8	5f		 pop	 edi
  000f9	5e		 pop	 esi
  000fa	5b		 pop	 ebx

; 730  : }

  000fb	8b 4d fc	 mov	 ecx, DWORD PTR __$ArrayPad$[ebp]
  000fe	33 cd		 xor	 ecx, ebp
  00100	e8 00 00 00 00	 call	 @__security_check_cookie@4
  00105	8b e5		 mov	 esp, ebp
  00107	5d		 pop	 ebp
  00108	c2 0c 00	 ret	 12			; 0000000cH
$LN7@initLogWri:

; 704  : 		for (i = 0; i < nCount; i++) {

  0010b	33 ff		 xor	 edi, edi
  0010d	85 db		 test	 ebx, ebx
  0010f	0f 8e cf 00 00
	00		 jle	 $LN3@initLogWri
  00115	8a 7d 10	 mov	 bh, BYTE PTR _bSystem$[ebp]
  00118	8a 9d 63 ff ff
	ff		 mov	 bl, BYTE PTR _bRes$[ebp]
  0011e	66 90		 npad	 2
$LL4@initLogWri:

; 705  : 			pWriter = new (std::nothrow) CSTLogger();

  00120	68 00 00 00 00	 push	 OFFSET ?nothrow@std@@3Unothrow_t@1@B ; std::nothrow
  00125	6a 30		 push	 48			; 00000030H
  00127	e8 00 00 00 00	 call	 ??2@YAPAXIABUnothrow_t@std@@@Z ; operator new
  0012c	83 c4 08	 add	 esp, 8
  0012f	89 85 48 ff ff
	ff		 mov	 DWORD PTR $T1[ebp], eax
  00135	85 c0		 test	 eax, eax
  00137	0f 84 69 01 00
	00		 je	 $LN46@initLogWri
  0013d	8b c8		 mov	 ecx, eax
  0013f	e8 00 00 00 00	 call	 ??0CSTLogger@@QAE@XZ	; CSTLogger::CSTLogger
  00144	8b f0		 mov	 esi, eax

; 706  : 			if (!pWriter) {

  00146	85 f6		 test	 esi, esi
  00148	0f 84 58 01 00
	00		 je	 $LN46@initLogWri

; 117  : 	_stprintf(szSect, _T("%s_%d"), pSection, i);

  0014e	57		 push	 edi
  0014f	ff b5 58 ff ff
	ff		 push	 DWORD PTR _pSection$GSCopy$1$[ebp]
  00155	8d 45 e4	 lea	 eax, DWORD PTR _szSect$3[ebp]
  00158	68 00 00 00 00	 push	 OFFSET ??_C@_05LFHGFJK@?$CFs_?$CFd?$AA@
  0015d	50		 push	 eax
  0015e	e8 00 00 00 00	 call	 _sprintf
  00163	83 c4 10	 add	 esp, 16			; 00000010H

; 118  : 	nMax = GetPrivateProfileInt(szSect, _T("LIST_COUNT"), 0, pConfigFile);

  00166	8d 45 e4	 lea	 eax, DWORD PTR _szSect$3[ebp]
  00169	ff b5 54 ff ff
	ff		 push	 DWORD PTR _pConfigFile$GSCopy$1$[ebp]
  0016f	6a 00		 push	 0
  00171	68 00 00 00 00	 push	 OFFSET ??_C@_0L@GOMEIANA@LIST_COUNT?$AA@
  00176	50		 push	 eax
  00177	ff 15 00 00 00
	00		 call	 DWORD PTR __imp__GetPrivateProfileIntA@16

; 119  : 	if (!nMax) return false;

  0017d	85 c0		 test	 eax, eax
  0017f	74 0c		 je	 SHORT $LN52@initLogWri

; 120  : 	if (!_init(nMax)) return false;

  00181	50		 push	 eax
  00182	8b ce		 mov	 ecx, esi
  00184	e8 00 00 00 00	 call	 ?_init@CSTLogger@@AAE_NH@Z ; CSTLogger::_init
  00189	84 c0		 test	 al, al
  0018b	75 28		 jne	 SHORT $LN11@initLogWri
$LN52@initLogWri:

; 708  : 				comErrorPrint(szErrorMsg);
; 709  : 				return false;
; 710  : 			}
; 711  : 			if (!pWriter->initConfig(pConfigFile, i, pSection)) {
; 712  : 				if (bSystem) {

  0018d	84 ff		 test	 bh, bh
  0018f	74 1c		 je	 SHORT $LN33@initLogWri

; 127  : 	if (!_init(nCount)) return false;

  00191	6a 0a		 push	 10			; 0000000aH
  00193	8b ce		 mov	 ecx, esi
  00195	e8 00 00 00 00	 call	 ?_init@CSTLogger@@AAE_NH@Z ; CSTLogger::_init
  0019a	84 c0		 test	 al, al
  0019c	0f 84 b0 00 00
	00		 je	 $LN47@initLogWri
; File e:\infinia-library-3.0\com\include\comcore.h

; 90   : 	inline void setIdx(int nIdx) { m_stInfo.nIdx = nIdx; }

  001a2	c7 46 18 00 00
	00 00		 mov	 DWORD PTR [esi+24], 0
; File e:\infinia-library-3.0\com\src\comcore.cpp

; 129  : 	return true;

  001a9	b3 01		 mov	 bl, 1

; 713  : 					bRes = pWriter->init(LIST_ADD_COUNT, 0);
; 714  : 				}
; 715  : 				if(!bRes) {

  001ab	eb 08		 jmp	 SHORT $LN11@initLogWri
$LN33@initLogWri:
  001ad	84 db		 test	 bl, bl
  001af	0f 84 9d 00 00
	00		 je	 $LN47@initLogWri
$LN11@initLogWri:

; 719  : 				}
; 720  : 			}
; 721  : 			if (!m_pWriterList->push_back(pWriter, &idx)) {

  001b5	8d 85 5c ff ff
	ff		 lea	 eax, DWORD PTR _idx$[ebp]
  001bb	50		 push	 eax
  001bc	8b 85 50 ff ff
	ff		 mov	 eax, DWORD PTR _this$GSCopy$1$[ebp]
  001c2	56		 push	 esi
  001c3	8b 08		 mov	 ecx, DWORD PTR [eax]
  001c5	e8 00 00 00 00	 call	 ?push_back@?$CTList@VCSTLogger@@@@QAE_NPAVCSTLogger@@PAH@Z ; CTList<CSTLogger>::push_back
  001ca	84 c0		 test	 al, al
  001cc	74 2b		 je	 SHORT $LN48@initLogWri
; File e:\infinia-library-3.0\com\include\comcore.h

; 90   : 	inline void setIdx(int nIdx) { m_stInfo.nIdx = nIdx; }

  001ce	8b 85 5c ff ff
	ff		 mov	 eax, DWORD PTR _idx$[ebp]
; File e:\infinia-library-3.0\com\src\comcore.cpp

; 704  : 		for (i = 0; i < nCount; i++) {

  001d4	47		 inc	 edi
; File e:\infinia-library-3.0\com\include\comcore.h

; 90   : 	inline void setIdx(int nIdx) { m_stInfo.nIdx = nIdx; }

  001d5	89 46 18	 mov	 DWORD PTR [esi+24], eax
; File e:\infinia-library-3.0\com\src\comcore.cpp

; 704  : 		for (i = 0; i < nCount; i++) {

  001d8	3b bd 4c ff ff
	ff		 cmp	 edi, DWORD PTR _nCount$1$[ebp]
  001de	0f 8c 3c ff ff
	ff		 jl	 $LL4@initLogWri
$LN3@initLogWri:
  001e4	5f		 pop	 edi
  001e5	5e		 pop	 esi

; 725  : 			}
; 726  : 			pWriter->m_cThread.setIdx(idx);
; 727  : 		}
; 728  : 	}
; 729  : 	return true;

  001e6	b0 01		 mov	 al, 1
  001e8	5b		 pop	 ebx

; 730  : }

  001e9	8b 4d fc	 mov	 ecx, DWORD PTR __$ArrayPad$[ebp]
  001ec	33 cd		 xor	 ecx, ebp
  001ee	e8 00 00 00 00	 call	 @__security_check_cookie@4
  001f3	8b e5		 mov	 esp, ebp
  001f5	5d		 pop	 ebp
  001f6	c2 0c 00	 ret	 12			; 0000000cH
$LN48@initLogWri:

; 722  : 				sprintf(szErrorMsg, "[seq:%d] pWriter->push_back", idx);

  001f9	ff b5 5c ff ff
	ff		 push	 DWORD PTR _idx$[ebp]
  001ff	8d 85 64 ff ff
	ff		 lea	 eax, DWORD PTR _szErrorMsg$[ebp]
  00205	68 00 00 00 00	 push	 OFFSET ??_C@_0BM@PJKPLDJG@?$FLseq?3?$CFd?$FN?5pWriter?9?$DOpush_back?$AA@
  0020a	50		 push	 eax
  0020b	e8 00 00 00 00	 call	 _sprintf
; File e:\infinia-library-3.0\com\include\comtypes.h

; 325  : 	sprintf(g_szSystemError, "ERROR! [%s:%d] %s\n", _szFunc, _nLine, pMsg);

  00210	8d 85 64 ff ff
	ff		 lea	 eax, DWORD PTR _szErrorMsg$[ebp]
  00216	50		 push	 eax
  00217	68 d3 02 00 00	 push	 723			; 000002d3H
  0021c	68 00 00 00 00	 push	 OFFSET ??_C@_0BJ@GCPBPAB@CCoreList?3?3initLogWriter?$AA@
  00221	68 00 00 00 00	 push	 OFFSET ??_C@_0BD@KEHDJCKJ@ERROR?$CB?5?$FL?$CFs?3?$CFd?$FN?5?$CFs?6?$AA@
  00226	68 00 00 00 00	 push	 OFFSET ?g_szSystemError@@3PADA ; g_szSystemError
  0022b	e8 00 00 00 00	 call	 _sprintf

; 326  : 	printf(g_szSystemError);

  00230	68 00 00 00 00	 push	 OFFSET ?g_szSystemError@@3PADA ; g_szSystemError
  00235	e8 00 00 00 00	 call	 _printf
  0023a	83 c4 24	 add	 esp, 36			; 00000024H
; File e:\infinia-library-3.0\com\src\comcore.cpp

; 724  : 				return false;

  0023d	32 c0		 xor	 al, al
  0023f	5f		 pop	 edi
  00240	5e		 pop	 esi
  00241	5b		 pop	 ebx

; 730  : }

  00242	8b 4d fc	 mov	 ecx, DWORD PTR __$ArrayPad$[ebp]
  00245	33 cd		 xor	 ecx, ebp
  00247	e8 00 00 00 00	 call	 @__security_check_cookie@4
  0024c	8b e5		 mov	 esp, ebp
  0024e	5d		 pop	 ebp
  0024f	c2 0c 00	 ret	 12			; 0000000cH
$LN47@initLogWri:

; 716  : 					sprintf(szErrorMsg, "[seq:%d] pWriter->init", i);

  00252	57		 push	 edi
  00253	8d 85 64 ff ff
	ff		 lea	 eax, DWORD PTR _szErrorMsg$[ebp]
  00259	68 00 00 00 00	 push	 OFFSET ??_C@_0BH@HINHAJPK@?$FLseq?3?$CFd?$FN?5pWriter?9?$DOinit?$AA@
  0025e	50		 push	 eax
  0025f	e8 00 00 00 00	 call	 _sprintf
; File e:\infinia-library-3.0\com\include\comtypes.h

; 325  : 	sprintf(g_szSystemError, "ERROR! [%s:%d] %s\n", _szFunc, _nLine, pMsg);

  00264	8d 85 64 ff ff
	ff		 lea	 eax, DWORD PTR _szErrorMsg$[ebp]
  0026a	50		 push	 eax
  0026b	68 cd 02 00 00	 push	 717			; 000002cdH
  00270	68 00 00 00 00	 push	 OFFSET ??_C@_0BJ@GCPBPAB@CCoreList?3?3initLogWriter?$AA@
  00275	68 00 00 00 00	 push	 OFFSET ??_C@_0BD@KEHDJCKJ@ERROR?$CB?5?$FL?$CFs?3?$CFd?$FN?5?$CFs?6?$AA@
  0027a	68 00 00 00 00	 push	 OFFSET ?g_szSystemError@@3PADA ; g_szSystemError
  0027f	e8 00 00 00 00	 call	 _sprintf

; 326  : 	printf(g_szSystemError);

  00284	68 00 00 00 00	 push	 OFFSET ?g_szSystemError@@3PADA ; g_szSystemError
  00289	e8 00 00 00 00	 call	 _printf
  0028e	83 c4 24	 add	 esp, 36			; 00000024H
; File e:\infinia-library-3.0\com\src\comcore.cpp

; 718  : 					return false;

  00291	32 c0		 xor	 al, al
  00293	5f		 pop	 edi
  00294	5e		 pop	 esi
  00295	5b		 pop	 ebx

; 730  : }

  00296	8b 4d fc	 mov	 ecx, DWORD PTR __$ArrayPad$[ebp]
  00299	33 cd		 xor	 ecx, ebp
  0029b	e8 00 00 00 00	 call	 @__security_check_cookie@4
  002a0	8b e5		 mov	 esp, ebp
  002a2	5d		 pop	 ebp
  002a3	c2 0c 00	 ret	 12			; 0000000cH
$LN46@initLogWri:

; 707  : 				sprintf(szErrorMsg, "[seq:%d] new (std::nothrow) CSTLogger() is NULL", i);

  002a6	57		 push	 edi
  002a7	8d 85 64 ff ff
	ff		 lea	 eax, DWORD PTR _szErrorMsg$[ebp]
  002ad	68 00 00 00 00	 push	 OFFSET ??_C@_0DA@CIMDAAPF@?$FLseq?3?$CFd?$FN?5new?5?$CIstd?3?3nothrow?$CJ?5CSTL@
  002b2	50		 push	 eax
  002b3	e8 00 00 00 00	 call	 _sprintf
; File e:\infinia-library-3.0\com\include\comtypes.h

; 325  : 	sprintf(g_szSystemError, "ERROR! [%s:%d] %s\n", _szFunc, _nLine, pMsg);

  002b8	8d 85 64 ff ff
	ff		 lea	 eax, DWORD PTR _szErrorMsg$[ebp]
  002be	50		 push	 eax
  002bf	68 c4 02 00 00	 push	 708			; 000002c4H
  002c4	68 00 00 00 00	 push	 OFFSET ??_C@_0BJ@GCPBPAB@CCoreList?3?3initLogWriter?$AA@
  002c9	68 00 00 00 00	 push	 OFFSET ??_C@_0BD@KEHDJCKJ@ERROR?$CB?5?$FL?$CFs?3?$CFd?$FN?5?$CFs?6?$AA@
  002ce	68 00 00 00 00	 push	 OFFSET ?g_szSystemError@@3PADA ; g_szSystemError
  002d3	e8 00 00 00 00	 call	 _sprintf

; 326  : 	printf(g_szSystemError);

  002d8	68 00 00 00 00	 push	 OFFSET ?g_szSystemError@@3PADA ; g_szSystemError
  002dd	e8 00 00 00 00	 call	 _printf
; File e:\infinia-library-3.0\com\src\comcore.cpp

; 730  : }

  002e2	8b 4d fc	 mov	 ecx, DWORD PTR __$ArrayPad$[ebp]
; File e:\infinia-library-3.0\com\include\comtypes.h

; 326  : 	printf(g_szSystemError);

  002e5	83 c4 24	 add	 esp, 36			; 00000024H
; File e:\infinia-library-3.0\com\src\comcore.cpp

; 730  : }

  002e8	33 cd		 xor	 ecx, ebp
  002ea	32 c0		 xor	 al, al
  002ec	5f		 pop	 edi
  002ed	5e		 pop	 esi
  002ee	5b		 pop	 ebx
  002ef	e8 00 00 00 00	 call	 @__security_check_cookie@4
  002f4	8b e5		 mov	 esp, ebp
  002f6	5d		 pop	 ebp
  002f7	c2 0c 00	 ret	 12			; 0000000cH
?initLogWriter@CCoreList@@QAE_NPAD0_N@Z ENDP		; CCoreList::initLogWriter
_TEXT	ENDS
; Function compile flags: /Ogtp
; File e:\infinia-library-3.0\com\src\comcore.cpp
; File e:\infinia-library-3.0\com\include\comtlist.h
; File e:\infinia-library-3.0\com\src\comcore.cpp
; File e:\infinia-library-3.0\com\include\comtypes.h
; File e:\infinia-library-3.0\com\src\comcore.cpp
; File e:\infinia-library-3.0\com\include\com\win32\win32_mtsync.h
; File e:\infinia-library-3.0\com\src\comcore.cpp
; File e:\infinia-library-3.0\com\include\comcore.h
; File e:\infinia-library-3.0\com\src\comcore.cpp
; File e:\infinia-library-3.0\com\include\comcore.h
; File e:\infinia-library-3.0\com\src\comcore.cpp
; File e:\infinia-library-3.0\com\include\comtypes.h
; File e:\infinia-library-3.0\com\src\comcore.cpp
; File e:\infinia-library-3.0\com\include\comtypes.h
; File e:\infinia-library-3.0\com\src\comcore.cpp
;	COMDAT ?initComThread@CCoreList@@QAE_NPAD0@Z
_TEXT	SEGMENT
_this$1$ = -4						; size = 4
_idx$ = 8						; size = 4
$T1 = 8							; size = 4
_pConfigFile$ = 8					; size = 4
$T2 = 12						; size = 4
_pSection$ = 12						; size = 4
?initComThread@CCoreList@@QAE_NPAD0@Z PROC		; CCoreList::initComThread, COMDAT
; _this$ = ecx

; 655  : {

  00000	55		 push	 ebp
  00001	8b ec		 mov	 ebp, esp
  00003	51		 push	 ecx
  00004	53		 push	 ebx
  00005	56		 push	 esi
  00006	57		 push	 edi

; 656  : 	int nCount, i, idx;
; 657  : 	CComThread *pComThread;
; 658  : 	nCount = GetPrivateProfileInt(pSection, _T("LIST_COUNT"), 0, pConfigFile);

  00007	ff 75 08	 push	 DWORD PTR _pConfigFile$[ebp]
  0000a	8b f1		 mov	 esi, ecx
  0000c	6a 00		 push	 0
  0000e	68 00 00 00 00	 push	 OFFSET ??_C@_0L@GOMEIANA@LIST_COUNT?$AA@
  00013	ff 75 0c	 push	 DWORD PTR _pSection$[ebp]
  00016	89 75 fc	 mov	 DWORD PTR _this$1$[ebp], esi
  00019	ff 15 00 00 00
	00		 call	 DWORD PTR __imp__GetPrivateProfileIntA@16
  0001f	8b d8		 mov	 ebx, eax

; 659  : 	if (nCount)

  00021	85 db		 test	 ebx, ebx
  00023	0f 84 32 01 00
	00		 je	 $LN3@initComThr

; 660  : 	{
; 661  : 		if (!m_pThreadList) {

  00029	83 7e 08 00	 cmp	 DWORD PTR [esi+8], 0
  0002d	0f 85 93 00 00
	00		 jne	 $LN7@initComThr

; 662  : 			m_pThreadList = new CTList<CComThread>();

  00033	6a 18		 push	 24			; 00000018H
  00035	e8 00 00 00 00	 call	 ??2@YAPAXI@Z		; operator new
  0003a	8b c8		 mov	 ecx, eax
  0003c	83 c4 04	 add	 esp, 4
  0003f	89 4d 08	 mov	 DWORD PTR $T1[ebp], ecx
  00042	85 c9		 test	 ecx, ecx
  00044	74 36		 je	 SHORT $LN11@initComThr
  00046	0f 57 c0	 xorps	 xmm0, xmm0
  00049	0f 11 01	 movups	 XMMWORD PTR [ecx], xmm0
  0004c	66 0f d6 41 10	 movq	 QWORD PTR [ecx+16], xmm0
; File e:\infinia-library-3.0\com\include\comtlist.h

; 366  : 	m_pArray = NULL;

  00051	c7 01 00 00 00
	00		 mov	 DWORD PTR [ecx], 0

; 367  : 	m_nUse = 0;

  00057	c7 41 04 00 00
	00 00		 mov	 DWORD PTR [ecx+4], 0

; 368  : 	m_nLast = 0;

  0005e	c7 41 08 00 00
	00 00		 mov	 DWORD PTR [ecx+8], 0

; 369  : 	m_nDelIdx = 0;

  00065	c7 41 0c 00 00
	00 00		 mov	 DWORD PTR [ecx+12], 0

; 370  : 	m_nMax = 0;

  0006c	c7 41 10 00 00
	00 00		 mov	 DWORD PTR [ecx+16], 0

; 371  : 	m_nObjAllocType = eAlloc_Type_none;

  00073	c7 41 14 00 00
	00 00		 mov	 DWORD PTR [ecx+20], 0
; File e:\infinia-library-3.0\com\src\comcore.cpp

; 662  : 			m_pThreadList = new CTList<CComThread>();

  0007a	eb 02		 jmp	 SHORT $LN12@initComThr
$LN11@initComThr:
  0007c	33 c9		 xor	 ecx, ecx
$LN12@initComThr:

; 663  : 			if (!m_pThreadList->alloc(nCount + LIST_ADD_COUNT, eAlloc_Type_none)) {

  0007e	6a 00		 push	 0
  00080	8d 43 0a	 lea	 eax, DWORD PTR [ebx+10]
  00083	89 4e 08	 mov	 DWORD PTR [esi+8], ecx
  00086	50		 push	 eax
  00087	e8 00 00 00 00	 call	 ?alloc@?$CTList@VCComThread@@@@QAEHHW4E_ALLOC_TYPE@@@Z ; CTList<CComThread>::alloc
  0008c	85 c0		 test	 eax, eax
  0008e	75 36		 jne	 SHORT $LN7@initComThr
; File e:\infinia-library-3.0\com\include\comtypes.h

; 325  : 	sprintf(g_szSystemError, "ERROR! [%s:%d] %s\n", _szFunc, _nLine, pMsg);

  00090	68 00 00 00 00	 push	 OFFSET ??_C@_0DB@HEKPNAHG@m_pThreadList?5?$DN?5new?5CTList?$DMCComT@
  00095	68 98 02 00 00	 push	 664			; 00000298H
  0009a	68 00 00 00 00	 push	 OFFSET ??_C@_0BJ@BBEFOIEG@CCoreList?3?3initComThread?$AA@
  0009f	68 00 00 00 00	 push	 OFFSET ??_C@_0BD@KEHDJCKJ@ERROR?$CB?5?$FL?$CFs?3?$CFd?$FN?5?$CFs?6?$AA@
  000a4	68 00 00 00 00	 push	 OFFSET ?g_szSystemError@@3PADA ; g_szSystemError
  000a9	e8 00 00 00 00	 call	 _sprintf

; 326  : 	printf(g_szSystemError);

  000ae	68 00 00 00 00	 push	 OFFSET ?g_szSystemError@@3PADA ; g_szSystemError
  000b3	e8 00 00 00 00	 call	 _printf
  000b8	83 c4 18	 add	 esp, 24			; 00000018H
; File e:\infinia-library-3.0\com\src\comcore.cpp

; 665  : 				return false;

  000bb	32 c0		 xor	 al, al
  000bd	5f		 pop	 edi
  000be	5e		 pop	 esi
  000bf	5b		 pop	 ebx

; 683  : }

  000c0	8b e5		 mov	 esp, ebp
  000c2	5d		 pop	 ebp
  000c3	c2 08 00	 ret	 8
$LN7@initComThr:

; 669  : 		for (i = 0; i < nCount; i++) {

  000c6	33 ff		 xor	 edi, edi
  000c8	85 db		 test	 ebx, ebx
  000ca	0f 8e 8b 00 00
	00		 jle	 $LN3@initComThr
$LL4@initComThr:

; 670  : 			pComThread = new (std::nothrow) CComThread();

  000d0	68 00 00 00 00	 push	 OFFSET ?nothrow@std@@3Unothrow_t@1@B ; std::nothrow
  000d5	6a 28		 push	 40			; 00000028H
  000d7	e8 00 00 00 00	 call	 ??2@YAPAXIABUnothrow_t@std@@@Z ; operator new
  000dc	8b f0		 mov	 esi, eax
  000de	83 c4 08	 add	 esp, 8
  000e1	89 75 0c	 mov	 DWORD PTR $T2[ebp], esi
  000e4	85 f6		 test	 esi, esi
  000e6	0f 84 b0 00 00
	00		 je	 $LN40@initComThr
; File e:\infinia-library-3.0\com\include\com\win32\win32_mtsync.h

; 63   : 	  condition() { m_event = CreateEvent(NULL, TRUE, FALSE, NULL);}

  000ec	6a 00		 push	 0
  000ee	6a 00		 push	 0
  000f0	6a 01		 push	 1
  000f2	6a 00		 push	 0
  000f4	c7 46 08 00 00
	00 00		 mov	 DWORD PTR [esi+8], OFFSET ??_7condition@win32@common@@6B@
  000fb	ff 15 00 00 00
	00		 call	 DWORD PTR __imp__CreateEventA@16
  00101	89 46 0c	 mov	 DWORD PTR [esi+12], eax
; File e:\infinia-library-3.0\com\src\comcore.cpp

; 675  : 			if (!m_pThreadList->push_back(pComThread, &idx)) {

  00104	8d 45 08	 lea	 eax, DWORD PTR _idx$[ebp]
  00107	50		 push	 eax
  00108	8b 45 fc	 mov	 eax, DWORD PTR _this$1$[ebp]

; 16   : 	m_stInfo.bActive = false;

  0010b	c6 46 1c 00	 mov	 BYTE PTR [esi+28], 0

; 17   : 	m_stInfo.hTHID = NULL;

  0010f	c7 46 04 00 00
	00 00		 mov	 DWORD PTR [esi+4], 0

; 18   : 	m_stInfo.nIdx = -1;

  00116	c7 46 18 ff ff
	ff ff		 mov	 DWORD PTR [esi+24], -1

; 19   : 	m_stInfo.pClass = NULL;

  0011d	c7 46 10 00 00
	00 00		 mov	 DWORD PTR [esi+16], 0

; 20   : 	m_stInfo.millisecSleep = INFINITE;

  00124	c7 46 20 ff ff
	ff ff		 mov	 DWORD PTR [esi+32], -1

; 21   : 	m_nMillisecSleep = INFINITE;

  0012b	c7 46 24 ff ff
	ff ff		 mov	 DWORD PTR [esi+36], -1

; 22   : 	m_stInfo.pObj = NULL;

  00132	c7 46 14 00 00
	00 00		 mov	 DWORD PTR [esi+20], 0

; 23   : 	m_fpLoopProc = NULL;

  00139	c7 06 00 00 00
	00		 mov	 DWORD PTR [esi], 0

; 675  : 			if (!m_pThreadList->push_back(pComThread, &idx)) {

  0013f	8b 48 08	 mov	 ecx, DWORD PTR [eax+8]
  00142	56		 push	 esi
  00143	e8 00 00 00 00	 call	 ?push_back@?$CTList@VCComThread@@@@QAE_NPAVCComThread@@PAH@Z ; CTList<CComThread>::push_back
  00148	84 c0		 test	 al, al
  0014a	74 1a		 je	 SHORT $LN41@initComThr
; File e:\infinia-library-3.0\com\include\comcore.h

; 90   : 	inline void setIdx(int nIdx) { m_stInfo.nIdx = nIdx; }

  0014c	8b 45 08	 mov	 eax, DWORD PTR _idx$[ebp]
; File e:\infinia-library-3.0\com\src\comcore.cpp

; 669  : 		for (i = 0; i < nCount; i++) {

  0014f	47		 inc	 edi
; File e:\infinia-library-3.0\com\include\comcore.h

; 90   : 	inline void setIdx(int nIdx) { m_stInfo.nIdx = nIdx; }

  00150	89 46 18	 mov	 DWORD PTR [esi+24], eax
; File e:\infinia-library-3.0\com\src\comcore.cpp

; 669  : 		for (i = 0; i < nCount; i++) {

  00153	3b fb		 cmp	 edi, ebx
  00155	0f 8c 75 ff ff
	ff		 jl	 $LL4@initComThr
$LN3@initComThr:
  0015b	5f		 pop	 edi
  0015c	5e		 pop	 esi

; 678  : 			}
; 679  : 			pComThread->setIdx(idx);
; 680  : 		}
; 681  : 	}
; 682  : 	return true;

  0015d	b0 01		 mov	 al, 1
  0015f	5b		 pop	 ebx

; 683  : }

  00160	8b e5		 mov	 esp, ebp
  00162	5d		 pop	 ebp
  00163	c2 08 00	 ret	 8
$LN41@initComThr:
; File e:\infinia-library-3.0\com\include\comtypes.h

; 325  : 	sprintf(g_szSystemError, "ERROR! [%s:%d] %s\n", _szFunc, _nLine, pMsg);

  00166	68 00 00 00 00	 push	 OFFSET ??_C@_0BJ@NIEOMMJI@m_pThreadList?9?$DOpush_back?$AA@
  0016b	68 a4 02 00 00	 push	 676			; 000002a4H
  00170	68 00 00 00 00	 push	 OFFSET ??_C@_0BJ@BBEFOIEG@CCoreList?3?3initComThread?$AA@
  00175	68 00 00 00 00	 push	 OFFSET ??_C@_0BD@KEHDJCKJ@ERROR?$CB?5?$FL?$CFs?3?$CFd?$FN?5?$CFs?6?$AA@
  0017a	68 00 00 00 00	 push	 OFFSET ?g_szSystemError@@3PADA ; g_szSystemError
  0017f	e8 00 00 00 00	 call	 _sprintf

; 326  : 	printf(g_szSystemError);

  00184	68 00 00 00 00	 push	 OFFSET ?g_szSystemError@@3PADA ; g_szSystemError
  00189	e8 00 00 00 00	 call	 _printf
  0018e	83 c4 18	 add	 esp, 24			; 00000018H
; File e:\infinia-library-3.0\com\src\comcore.cpp

; 677  : 				return false;

  00191	32 c0		 xor	 al, al
  00193	5f		 pop	 edi
  00194	5e		 pop	 esi
  00195	5b		 pop	 ebx

; 683  : }

  00196	8b e5		 mov	 esp, ebp
  00198	5d		 pop	 ebp
  00199	c2 08 00	 ret	 8
$LN40@initComThr:
; File e:\infinia-library-3.0\com\include\comtypes.h

; 325  : 	sprintf(g_szSystemError, "ERROR! [%s:%d] %s\n", _szFunc, _nLine, pMsg);

  0019c	68 00 00 00 00	 push	 OFFSET ??_C@_0CI@DDFMBICL@new?5?$CIstd?3?3nothrow?$CJ?5CComThread?$CI?$CJ?5@
  001a1	68 a0 02 00 00	 push	 672			; 000002a0H
  001a6	68 00 00 00 00	 push	 OFFSET ??_C@_0BJ@BBEFOIEG@CCoreList?3?3initComThread?$AA@
  001ab	68 00 00 00 00	 push	 OFFSET ??_C@_0BD@KEHDJCKJ@ERROR?$CB?5?$FL?$CFs?3?$CFd?$FN?5?$CFs?6?$AA@
  001b0	68 00 00 00 00	 push	 OFFSET ?g_szSystemError@@3PADA ; g_szSystemError
  001b5	e8 00 00 00 00	 call	 _sprintf

; 326  : 	printf(g_szSystemError);

  001ba	68 00 00 00 00	 push	 OFFSET ?g_szSystemError@@3PADA ; g_szSystemError
  001bf	e8 00 00 00 00	 call	 _printf
  001c4	83 c4 18	 add	 esp, 24			; 00000018H
; File e:\infinia-library-3.0\com\src\comcore.cpp

; 673  : 				return false;

  001c7	32 c0		 xor	 al, al
  001c9	5f		 pop	 edi
  001ca	5e		 pop	 esi
  001cb	5b		 pop	 ebx

; 683  : }

  001cc	8b e5		 mov	 esp, ebp
  001ce	5d		 pop	 ebp
  001cf	c2 08 00	 ret	 8
?initComThread@CCoreList@@QAE_NPAD0@Z ENDP		; CCoreList::initComThread
_TEXT	ENDS
; Function compile flags: /Ogtp
; File e:\infinia-library-3.0\com\src\comcore.cpp
; File e:\infinia-library-3.0\com\include\comtypes.h
; File e:\infinia-library-3.0\com\src\comcore.cpp
; File e:\infinia-library-3.0\com\include\comtypes.h
; File e:\infinia-library-3.0\com\src\comcore.cpp
; File e:\infinia-library-3.0\com\include\comtypes.h
; File e:\infinia-library-3.0\com\src\comcore.cpp
; File e:\infinia-library-3.0\com\include\comcore.h
; File e:\infinia-library-3.0\com\src\comcore.cpp
; File e:\infinia-library-3.0\com\include\comcore.h
; File e:\infinia-library-3.0\com\src\comcore.cpp
; File e:\infinia-library-3.0\com\include\com\win32\win32_mtsync.h
; File e:\infinia-library-3.0\com\include\com\abstract_mtsync.h
; File e:\infinia-library-3.0\com\src\comcore.cpp
;	COMDAT ?addQueueThread@CCoreList@@QAEHH@Z
_TEXT	SEGMENT
_idx$ = -16						; size = 4
$T2 = -16						; size = 4
__$EHRec$ = -12						; size = 12
_nCount$ = 8						; size = 4
?addQueueThread@CCoreList@@QAEHH@Z PROC			; CCoreList::addQueueThread, COMDAT
; _this$ = ecx

; 1149 : {

  00000	55		 push	 ebp
  00001	8b ec		 mov	 ebp, esp
  00003	6a ff		 push	 -1
  00005	68 00 00 00 00	 push	 __ehhandler$?addQueueThread@CCoreList@@QAEHH@Z
  0000a	64 a1 00 00 00
	00		 mov	 eax, DWORD PTR fs:0
  00010	50		 push	 eax
  00011	51		 push	 ecx
  00012	53		 push	 ebx
  00013	56		 push	 esi
  00014	57		 push	 edi
  00015	a1 00 00 00 00	 mov	 eax, DWORD PTR ___security_cookie
  0001a	33 c5		 xor	 eax, ebp
  0001c	50		 push	 eax
  0001d	8d 45 f4	 lea	 eax, DWORD PTR __$EHRec$[ebp]
  00020	64 a3 00 00 00
	00		 mov	 DWORD PTR fs:0, eax
  00026	8b d9		 mov	 ebx, ecx

; 1150 : 	int idx;
; 1151 : 
; 1152 : 	if (!m_pEventThreadList) {

  00028	83 7b 0c 00	 cmp	 DWORD PTR [ebx+12], 0
  0002c	75 0d		 jne	 SHORT $LN3@addQueueTh

; 1153 : 		if (!initQueueThread(LIST_ADD_COUNT)) return -1;

  0002e	6a 00		 push	 0
  00030	6a 0a		 push	 10			; 0000000aH
  00032	e8 00 00 00 00	 call	 ?initQueueThread@CCoreList@@QAE_NHH@Z ; CCoreList::initQueueThread
  00037	84 c0		 test	 al, al
  00039	74 60		 je	 SHORT $LN57@addQueueTh
$LN3@addQueueTh:

; 1154 : 	}
; 1155 : 
; 1156 : 	CComQueueThread *pEventThread = new (std::nothrow) CComQueueThread();

  0003b	68 00 00 00 00	 push	 OFFSET ?nothrow@std@@3Unothrow_t@1@B ; std::nothrow
  00040	6a 68		 push	 104			; 00000068H
  00042	e8 00 00 00 00	 call	 ??2@YAPAXIABUnothrow_t@std@@@Z ; operator new
  00047	83 c4 08	 add	 esp, 8
  0004a	89 45 f0	 mov	 DWORD PTR $T2[ebp], eax
  0004d	c7 45 fc 00 00
	00 00		 mov	 DWORD PTR __$EHRec$[ebp+8], 0
  00054	85 c0		 test	 eax, eax
  00056	74 0b		 je	 SHORT $LN12@addQueueTh
  00058	8b c8		 mov	 ecx, eax
  0005a	e8 00 00 00 00	 call	 ??0CComQueueThread@@QAE@XZ ; CComQueueThread::CComQueueThread
  0005f	8b f8		 mov	 edi, eax
  00061	eb 02		 jmp	 SHORT $LN13@addQueueTh
$LN12@addQueueTh:
  00063	33 ff		 xor	 edi, edi
$LN13@addQueueTh:
  00065	c7 45 fc ff ff
	ff ff		 mov	 DWORD PTR __$EHRec$[ebp+8], -1

; 1157 : 	if (!pEventThread) {

  0006c	85 ff		 test	 edi, edi
  0006e	75 42		 jne	 SHORT $LN4@addQueueTh
; File e:\infinia-library-3.0\com\include\comtypes.h

; 325  : 	sprintf(g_szSystemError, "ERROR! [%s:%d] %s\n", _szFunc, _nLine, pMsg);

  00070	68 00 00 00 00	 push	 OFFSET ??_C@_0DK@MFBIKLPL@FAIL?$CB?5pEventThread?5?$DN?5new?5?$CIstd?3?3n@
  00075	68 86 04 00 00	 push	 1158			; 00000486H
  0007a	68 00 00 00 00	 push	 OFFSET ??_C@_0BK@FLFKIHIN@CCoreList?3?3addQueueThread?$AA@
  0007f	68 00 00 00 00	 push	 OFFSET ??_C@_0BD@KEHDJCKJ@ERROR?$CB?5?$FL?$CFs?3?$CFd?$FN?5?$CFs?6?$AA@
  00084	68 00 00 00 00	 push	 OFFSET ?g_szSystemError@@3PADA ; g_szSystemError
  00089	e8 00 00 00 00	 call	 _sprintf

; 326  : 	printf(g_szSystemError);

  0008e	68 00 00 00 00	 push	 OFFSET ?g_szSystemError@@3PADA ; g_szSystemError
  00093	e8 00 00 00 00	 call	 _printf
  00098	83 c4 18	 add	 esp, 24			; 00000018H
$LN57@addQueueTh:
; File e:\infinia-library-3.0\com\src\comcore.cpp

; 1159 : 		return -1;

  0009b	83 c8 ff	 or	 eax, -1

; 1183 : }

  0009e	8b 4d f4	 mov	 ecx, DWORD PTR __$EHRec$[ebp]
  000a1	64 89 0d 00 00
	00 00		 mov	 DWORD PTR fs:0, ecx
  000a8	59		 pop	 ecx
  000a9	5f		 pop	 edi
  000aa	5e		 pop	 esi
  000ab	5b		 pop	 ebx
  000ac	8b e5		 mov	 esp, ebp
  000ae	5d		 pop	 ebp
  000af	c2 04 00	 ret	 4
$LN4@addQueueTh:

; 1160 : 	}
; 1161 : 	if (!m_pEventThreadList->push_back(pEventThread, &idx)) {

  000b2	8b 4b 0c	 mov	 ecx, DWORD PTR [ebx+12]
  000b5	8d 45 f0	 lea	 eax, DWORD PTR _idx$[ebp]
  000b8	50		 push	 eax
  000b9	57		 push	 edi
  000ba	e8 00 00 00 00	 call	 ?push_back@?$CTList@VCComQueueThread@@@@QAE_NPAVCComQueueThread@@PAH@Z ; CTList<CComQueueThread>::push_back
  000bf	84 c0		 test	 al, al
  000c1	75 42		 jne	 SHORT $LN5@addQueueTh

; 1162 : 		_stprintf(g_szMessage, _T("[idx:%d] m_pEventThreadList->push_back(pEventThread)"), idx);

  000c3	ff 75 f0	 push	 DWORD PTR _idx$[ebp]
  000c6	68 00 00 00 00	 push	 OFFSET ??_C@_0DF@OMHILDFF@?$FLidx?3?$CFd?$FN?5m_pEventThreadList?9?$DOpus@
  000cb	68 00 00 00 00	 push	 OFFSET ?g_szMessage@@3PADA ; g_szMessage
  000d0	e8 00 00 00 00	 call	 _sprintf
; File e:\infinia-library-3.0\com\include\comtypes.h

; 325  : 	sprintf(g_szSystemError, "ERROR! [%s:%d] %s\n", _szFunc, _nLine, pMsg);

  000d5	68 00 00 00 00	 push	 OFFSET ?g_szMessage@@3PADA ; g_szMessage
  000da	68 8b 04 00 00	 push	 1163			; 0000048bH
  000df	68 00 00 00 00	 push	 OFFSET ??_C@_0BK@FLFKIHIN@CCoreList?3?3addQueueThread?$AA@
  000e4	68 00 00 00 00	 push	 OFFSET ??_C@_0BD@KEHDJCKJ@ERROR?$CB?5?$FL?$CFs?3?$CFd?$FN?5?$CFs?6?$AA@
  000e9	68 00 00 00 00	 push	 OFFSET ?g_szSystemError@@3PADA ; g_szSystemError
  000ee	e8 00 00 00 00	 call	 _sprintf

; 326  : 	printf(g_szSystemError);

  000f3	68 00 00 00 00	 push	 OFFSET ?g_szSystemError@@3PADA ; g_szSystemError
  000f8	e8 00 00 00 00	 call	 _printf
  000fd	83 c4 24	 add	 esp, 36			; 00000024H
; File e:\infinia-library-3.0\com\src\comcore.cpp

; 1164 : 		goto ERROR_ADDEvent;

  00100	e9 b1 00 00 00	 jmp	 $ERROR_ADDEvent$58
$LN5@addQueueTh:

; 423  : 	if (!m_sLogQueue.alloc(nCount, eAlloc_Type_none)) { printf("has Failed!! m_sLogQueue.alloc(%d)\n", nCount); return false; }

  00105	8b 75 08	 mov	 esi, DWORD PTR _nCount$[ebp]
  00108	8d 4f 28	 lea	 ecx, DWORD PTR [edi+40]
  0010b	6a 00		 push	 0
  0010d	56		 push	 esi
  0010e	e8 00 00 00 00	 call	 ?alloc@CQueueS@@QAE_NHW4E_ALLOC_TYPE@@@Z ; CQueueS::alloc
  00113	84 c0		 test	 al, al
  00115	75 5a		 jne	 SHORT $LN22@addQueueTh
  00117	56		 push	 esi
  00118	68 00 00 00 00	 push	 OFFSET ??_C@_0CE@FNDHGGOO@has?5Failed?$CB?$CB?5m_sLogQueue?4alloc?$CI?$CF@
  0011d	e8 00 00 00 00	 call	 _printf

; 1165 : 	}
; 1166 : 	if (!pEventThread->init(nCount, idx)) {
; 1167 : 		m_pEventThreadList->del(idx);

  00122	8b 75 f0	 mov	 esi, DWORD PTR _idx$[ebp]

; 423  : 	if (!m_sLogQueue.alloc(nCount, eAlloc_Type_none)) { printf("has Failed!! m_sLogQueue.alloc(%d)\n", nCount); return false; }

  00125	83 c4 08	 add	 esp, 8

; 1165 : 	}
; 1166 : 	if (!pEventThread->init(nCount, idx)) {
; 1167 : 		m_pEventThreadList->del(idx);

  00128	8b 4b 0c	 mov	 ecx, DWORD PTR [ebx+12]
  0012b	56		 push	 esi
  0012c	e8 00 00 00 00	 call	 ?del@?$CTList@VCComQueueThread@@@@QAE_NH@Z ; CTList<CComQueueThread>::del

; 1168 : 		_stprintf(g_szMessage, _T("pEventThread->init(nCount:%d, idx:%d)"), nCount,idx);

  00131	56		 push	 esi
  00132	ff 75 08	 push	 DWORD PTR _nCount$[ebp]
  00135	68 00 00 00 00	 push	 OFFSET ??_C@_0CG@PPDMMDKD@pEventThread?9?$DOinit?$CInCount?3?$CFd?0?5id@
  0013a	68 00 00 00 00	 push	 OFFSET ?g_szMessage@@3PADA ; g_szMessage
  0013f	e8 00 00 00 00	 call	 _sprintf
; File e:\infinia-library-3.0\com\include\comtypes.h

; 325  : 	sprintf(g_szSystemError, "ERROR! [%s:%d] %s\n", _szFunc, _nLine, pMsg);

  00144	68 00 00 00 00	 push	 OFFSET ?g_szMessage@@3PADA ; g_szMessage
  00149	68 91 04 00 00	 push	 1169			; 00000491H
  0014e	68 00 00 00 00	 push	 OFFSET ??_C@_0BK@FLFKIHIN@CCoreList?3?3addQueueThread?$AA@
  00153	68 00 00 00 00	 push	 OFFSET ??_C@_0BD@KEHDJCKJ@ERROR?$CB?5?$FL?$CFs?3?$CFd?$FN?5?$CFs?6?$AA@
  00158	68 00 00 00 00	 push	 OFFSET ?g_szSystemError@@3PADA ; g_szSystemError
  0015d	e8 00 00 00 00	 call	 _sprintf

; 326  : 	printf(g_szSystemError);

  00162	68 00 00 00 00	 push	 OFFSET ?g_szSystemError@@3PADA ; g_szSystemError
  00167	e8 00 00 00 00	 call	 _printf
  0016c	83 c4 28	 add	 esp, 40			; 00000028H
; File e:\infinia-library-3.0\com\src\comcore.cpp

; 1170 : 		goto ERROR_ADDEvent;

  0016f	eb 45		 jmp	 SHORT $ERROR_ADDEvent$58
$LN22@addQueueTh:
; File e:\infinia-library-3.0\com\include\comcore.h

; 90   : 	inline void setIdx(int nIdx) { m_stInfo.nIdx = nIdx; }

  00171	8b 75 f0	 mov	 esi, DWORD PTR _idx$[ebp]
; File e:\infinia-library-3.0\com\src\comcore.cpp

; 1172 : 	if (!pEventThread->start()) {

  00174	8b cf		 mov	 ecx, edi
; File e:\infinia-library-3.0\com\include\comcore.h

; 90   : 	inline void setIdx(int nIdx) { m_stInfo.nIdx = nIdx; }

  00176	89 77 18	 mov	 DWORD PTR [edi+24], esi
; File e:\infinia-library-3.0\com\src\comcore.cpp

; 1172 : 	if (!pEventThread->start()) {

  00179	e8 00 00 00 00	 call	 ?start@CComQueueThread@@QAE_NXZ ; CComQueueThread::start
  0017e	84 c0		 test	 al, al
  00180	0f 85 8f 00 00
	00		 jne	 $LN9@addQueueTh

; 1173 : 		m_pEventThreadList->del(idx);

  00186	8b 4b 0c	 mov	 ecx, DWORD PTR [ebx+12]
  00189	56		 push	 esi
  0018a	e8 00 00 00 00	 call	 ?del@?$CTList@VCComQueueThread@@@@QAE_NH@Z ; CTList<CComQueueThread>::del

; 1174 : 		_stprintf(g_szMessage, _T("[idx:%d] pEventThread->start()! "), idx);

  0018f	56		 push	 esi
  00190	68 00 00 00 00	 push	 OFFSET ??_C@_0CB@HLGPKJLB@?$FLidx?3?$CFd?$FN?5pEventThread?9?$DOstart?$CI?$CJ?$CB?5@
  00195	68 00 00 00 00	 push	 OFFSET ?g_szMessage@@3PADA ; g_szMessage
  0019a	e8 00 00 00 00	 call	 _sprintf

; 1175 : 		comErrorPrint(g_szMessage);

  0019f	68 97 04 00 00	 push	 1175			; 00000497H
  001a4	68 00 00 00 00	 push	 OFFSET ??_C@_0BK@FLFKIHIN@CCoreList?3?3addQueueThread?$AA@
  001a9	68 00 00 00 00	 push	 OFFSET ?g_szMessage@@3PADA ; g_szMessage
  001ae	e8 00 00 00 00	 call	 ?comGlobalErrorProc@@YAXPADPBDH@Z ; comGlobalErrorProc
  001b3	83 c4 18	 add	 esp, 24			; 00000018H
$ERROR_ADDEvent$58:

; 66   : 	if (!m_stInfo.hTHID) return false;

  001b6	8b 47 04	 mov	 eax, DWORD PTR [edi+4]
  001b9	8b 35 00 00 00
	00		 mov	 esi, DWORD PTR __imp__CloseHandle@4
  001bf	85 c0		 test	 eax, eax
  001c1	74 07		 je	 SHORT $LN37@addQueueTh

; 67   : 	int nStatus = 0; // for linux
; 68   : 	m_stInfo.bActive = false;
; 69   : 	THREAD_JOIN(m_stInfo.hTHID, (void **)&nStatus);

  001c3	50		 push	 eax
  001c4	c6 47 1c 00	 mov	 BYTE PTR [edi+28], 0
  001c8	ff d6		 call	 esi
$LN37@addQueueTh:

; 407  : }

  001ca	8d 4f 28	 lea	 ecx, DWORD PTR [edi+40]
  001cd	e8 00 00 00 00	 call	 ??1CQueueS@@QAE@XZ	; CQueueS::~CQueueS

; 66   : 	if (!m_stInfo.hTHID) return false;

  001d2	8b 47 04	 mov	 eax, DWORD PTR [edi+4]
  001d5	85 c0		 test	 eax, eax
  001d7	74 07		 je	 SHORT $LN43@addQueueTh

; 67   : 	int nStatus = 0; // for linux
; 68   : 	m_stInfo.bActive = false;
; 69   : 	THREAD_JOIN(m_stInfo.hTHID, (void **)&nStatus);

  001d9	50		 push	 eax
  001da	c6 47 1c 00	 mov	 BYTE PTR [edi+28], 0
  001de	ff d6		 call	 esi
$LN43@addQueueTh:
; File e:\infinia-library-3.0\com\include\com\win32\win32_mtsync.h

; 64   : 	  ~condition() { CloseHandle(m_event); }

  001e0	ff 77 0c	 push	 DWORD PTR [edi+12]
  001e3	c7 47 08 00 00
	00 00		 mov	 DWORD PTR [edi+8], OFFSET ??_7condition@win32@common@@6B@
  001ea	ff d6		 call	 esi
  001ec	6a 68		 push	 104			; 00000068H
  001ee	57		 push	 edi
; File e:\infinia-library-3.0\com\include\com\abstract_mtsync.h

; 72   : 	virtual ~abstract_condition() {}

  001ef	c7 47 08 00 00
	00 00		 mov	 DWORD PTR [edi+8], OFFSET ??_7abstract_condition@common@@6B@
  001f6	e8 00 00 00 00	 call	 ??3@YAXPAXI@Z		; operator delete
  001fb	83 c4 08	 add	 esp, 8
; File e:\infinia-library-3.0\com\src\comcore.cpp

; 1182 : 	return -1;

  001fe	83 c8 ff	 or	 eax, -1

; 1183 : }

  00201	8b 4d f4	 mov	 ecx, DWORD PTR __$EHRec$[ebp]
  00204	64 89 0d 00 00
	00 00		 mov	 DWORD PTR fs:0, ecx
  0020b	59		 pop	 ecx
  0020c	5f		 pop	 edi
  0020d	5e		 pop	 esi
  0020e	5b		 pop	 ebx
  0020f	8b e5		 mov	 esp, ebp
  00211	5d		 pop	 ebp
  00212	c2 04 00	 ret	 4
$LN9@addQueueTh:

; 1176 : 		goto ERROR_ADDEvent;
; 1177 : 	}
; 1178 : 	return idx;

  00215	8b c6		 mov	 eax, esi

; 1183 : }

  00217	8b 4d f4	 mov	 ecx, DWORD PTR __$EHRec$[ebp]
  0021a	64 89 0d 00 00
	00 00		 mov	 DWORD PTR fs:0, ecx
  00221	59		 pop	 ecx
  00222	5f		 pop	 edi
  00223	5e		 pop	 esi
  00224	5b		 pop	 ebx
  00225	8b e5		 mov	 esp, ebp
  00227	5d		 pop	 ebp
  00228	c2 04 00	 ret	 4
_TEXT	ENDS
;	COMDAT text$x
text$x	SEGMENT
__unwindfunclet$?addQueueThread@CCoreList@@QAEHH@Z$3:
  00000	68 00 00 00 00	 push	 OFFSET ?nothrow@std@@3Unothrow_t@1@B ; std::nothrow
  00005	8b 45 f0	 mov	 eax, DWORD PTR $T2[ebp]
  00008	50		 push	 eax
  00009	e8 00 00 00 00	 call	 ??3@YAXPAXABUnothrow_t@std@@@Z ; operator delete
  0000e	83 c4 08	 add	 esp, 8
  00011	c3		 ret	 0
__ehhandler$?addQueueThread@CCoreList@@QAEHH@Z:
  00012	8b 54 24 08	 mov	 edx, DWORD PTR [esp+8]
  00016	8d 42 0c	 lea	 eax, DWORD PTR [edx+12]
  00019	8b 4a ec	 mov	 ecx, DWORD PTR [edx-20]
  0001c	33 c8		 xor	 ecx, eax
  0001e	e8 00 00 00 00	 call	 @__security_check_cookie@4
  00023	b8 00 00 00 00	 mov	 eax, OFFSET __ehfuncinfo$?addQueueThread@CCoreList@@QAEHH@Z
  00028	e9 00 00 00 00	 jmp	 ___CxxFrameHandler3
text$x	ENDS
?addQueueThread@CCoreList@@QAEHH@Z ENDP			; CCoreList::addQueueThread
; Function compile flags: /Ogtp
; File e:\infinia-library-3.0\com\src\comcore.cpp
; File e:\infinia-library-3.0\com\include\comtypes.h
; File e:\infinia-library-3.0\com\src\comcore.cpp
; File e:\infinia-library-3.0\com\include\comtypes.h
; File e:\infinia-library-3.0\com\src\comcore.cpp
; File e:\infinia-library-3.0\com\include\comtypes.h
; File e:\infinia-library-3.0\com\src\comcore.cpp
;	COMDAT ?addScheduler@CCoreList@@QAEHHH@Z
_TEXT	SEGMENT
_idx$ = -4						; size = 4
$T1 = -4						; size = 4
_nCount$ = 8						; size = 4
_millisecWait$ = 12					; size = 4
?addScheduler@CCoreList@@QAEHHH@Z PROC			; CCoreList::addScheduler, COMDAT
; _this$ = ecx

; 1110 : {

  00000	55		 push	 ebp
  00001	8b ec		 mov	 ebp, esp
  00003	51		 push	 ecx
  00004	53		 push	 ebx
  00005	8b d9		 mov	 ebx, ecx

; 1111 : 	int idx;
; 1112 : 
; 1113 : 	if (!m_pSchedulerList) {

  00007	83 7b 04 00	 cmp	 DWORD PTR [ebx+4], 0
  0000b	75 17		 jne	 SHORT $LN3@addSchedul

; 1114 : 		if (!initScheduler(LIST_ADD_COUNT)) {

  0000d	6a 00		 push	 0
  0000f	6a 0a		 push	 10			; 0000000aH
  00011	e8 00 00 00 00	 call	 ?initScheduler@CCoreList@@QAE_NHH@Z ; CCoreList::initScheduler
  00016	84 c0		 test	 al, al
  00018	75 0a		 jne	 SHORT $LN3@addSchedul

; 1115 : 			return -1;

  0001a	83 c8 ff	 or	 eax, -1
  0001d	5b		 pop	 ebx

; 1146 : }

  0001e	8b e5		 mov	 esp, ebp
  00020	5d		 pop	 ebp
  00021	c2 08 00	 ret	 8
$LN3@addSchedul:
  00024	56		 push	 esi

; 1116 : 		}
; 1117 : 	}
; 1118 : 
; 1119 : 	CScheduler *pScheduler = new (std::nothrow) CScheduler();

  00025	68 00 00 00 00	 push	 OFFSET ?nothrow@std@@3Unothrow_t@1@B ; std::nothrow
  0002a	6a 38		 push	 56			; 00000038H
  0002c	e8 00 00 00 00	 call	 ??2@YAPAXIABUnothrow_t@std@@@Z ; operator new
  00031	83 c4 08	 add	 esp, 8
  00034	89 45 fc	 mov	 DWORD PTR $T1[ebp], eax
  00037	85 c0		 test	 eax, eax
  00039	0f 84 2a 01 00
	00		 je	 $LN27@addSchedul
  0003f	8b c8		 mov	 ecx, eax
  00041	e8 00 00 00 00	 call	 ??0CScheduler@@QAE@XZ	; CScheduler::CScheduler
  00046	8b f0		 mov	 esi, eax

; 1120 : 	if (!pScheduler) {

  00048	85 f6		 test	 esi, esi
  0004a	0f 84 19 01 00
	00		 je	 $LN27@addSchedul

; 1123 : 	}
; 1124 : 	if (!m_pSchedulerList->push_back(pScheduler, &idx)) {

  00050	8b 4b 04	 mov	 ecx, DWORD PTR [ebx+4]
  00053	8d 45 fc	 lea	 eax, DWORD PTR _idx$[ebp]
  00056	57		 push	 edi
  00057	50		 push	 eax
  00058	56		 push	 esi
  00059	e8 00 00 00 00	 call	 ?push_back@?$CTList@VCScheduler@@@@QAE_NPAVCScheduler@@PAH@Z ; CTList<CScheduler>::push_back
  0005e	84 c0		 test	 al, al
  00060	75 42		 jne	 SHORT $LN5@addSchedul

; 1125 : 		_stprintf(g_szMessage, _T("[idx:%d] pScheduler->push_back(pWriter)"), idx);

  00062	ff 75 fc	 push	 DWORD PTR _idx$[ebp]
  00065	68 00 00 00 00	 push	 OFFSET ??_C@_0CI@NLNIOEJC@?$FLidx?3?$CFd?$FN?5pScheduler?9?$DOpush_back?$CIp@
  0006a	68 00 00 00 00	 push	 OFFSET ?g_szMessage@@3PADA ; g_szMessage
  0006f	e8 00 00 00 00	 call	 _sprintf
; File e:\infinia-library-3.0\com\include\comtypes.h

; 325  : 	sprintf(g_szSystemError, "ERROR! [%s:%d] %s\n", _szFunc, _nLine, pMsg);

  00074	68 00 00 00 00	 push	 OFFSET ?g_szMessage@@3PADA ; g_szMessage
  00079	68 66 04 00 00	 push	 1126			; 00000466H
  0007e	68 00 00 00 00	 push	 OFFSET ??_C@_0BI@COOFCBEF@CCoreList?3?3addScheduler?$AA@
  00083	68 00 00 00 00	 push	 OFFSET ??_C@_0BD@KEHDJCKJ@ERROR?$CB?5?$FL?$CFs?3?$CFd?$FN?5?$CFs?6?$AA@
  00088	68 00 00 00 00	 push	 OFFSET ?g_szSystemError@@3PADA ; g_szSystemError
  0008d	e8 00 00 00 00	 call	 _sprintf

; 326  : 	printf(g_szSystemError);

  00092	68 00 00 00 00	 push	 OFFSET ?g_szSystemError@@3PADA ; g_szSystemError
  00097	e8 00 00 00 00	 call	 _printf
  0009c	83 c4 24	 add	 esp, 36			; 00000024H
; File e:\infinia-library-3.0\com\src\comcore.cpp

; 1127 : 		goto ERROR_ADDScheduler;

  0009f	e9 9c 00 00 00	 jmp	 $ERROR_ADDScheduler$31
$LN5@addSchedul:

; 1128 : 	}
; 1129 : 	if (!pScheduler->init(nCount, millisecWait, idx)) {

  000a4	8b 7d fc	 mov	 edi, DWORD PTR _idx$[ebp]
  000a7	8b ce		 mov	 ecx, esi
  000a9	57		 push	 edi
  000aa	ff 75 0c	 push	 DWORD PTR _millisecWait$[ebp]
  000ad	ff 75 08	 push	 DWORD PTR _nCount$[ebp]
  000b0	e8 00 00 00 00	 call	 ?init@CScheduler@@QAE_NHHH@Z ; CScheduler::init
  000b5	84 c0		 test	 al, al
  000b7	75 4c		 jne	 SHORT $LN7@addSchedul

; 1130 : 		m_pSchedulerList->del(idx);

  000b9	8b 4b 04	 mov	 ecx, DWORD PTR [ebx+4]
  000bc	57		 push	 edi
  000bd	e8 00 00 00 00	 call	 ?del@?$CTList@VCScheduler@@@@QAE_NH@Z ; CTList<CScheduler>::del

; 1131 : 		_stprintf(g_szMessage, _T("pScheduler->init(nCount:%d, millisecWait:%d, idx:%d)"), nCount, millisecWait, idx);

  000c2	57		 push	 edi
  000c3	ff 75 0c	 push	 DWORD PTR _millisecWait$[ebp]
  000c6	ff 75 08	 push	 DWORD PTR _nCount$[ebp]
  000c9	68 00 00 00 00	 push	 OFFSET ??_C@_0DF@FNNGIHIK@pScheduler?9?$DOinit?$CInCount?3?$CFd?0?5mill@
  000ce	68 00 00 00 00	 push	 OFFSET ?g_szMessage@@3PADA ; g_szMessage
  000d3	e8 00 00 00 00	 call	 _sprintf
; File e:\infinia-library-3.0\com\include\comtypes.h

; 325  : 	sprintf(g_szSystemError, "ERROR! [%s:%d] %s\n", _szFunc, _nLine, pMsg);

  000d8	68 00 00 00 00	 push	 OFFSET ?g_szMessage@@3PADA ; g_szMessage
  000dd	68 6c 04 00 00	 push	 1132			; 0000046cH
  000e2	68 00 00 00 00	 push	 OFFSET ??_C@_0BI@COOFCBEF@CCoreList?3?3addScheduler?$AA@
  000e7	68 00 00 00 00	 push	 OFFSET ??_C@_0BD@KEHDJCKJ@ERROR?$CB?5?$FL?$CFs?3?$CFd?$FN?5?$CFs?6?$AA@
  000ec	68 00 00 00 00	 push	 OFFSET ?g_szSystemError@@3PADA ; g_szSystemError
  000f1	e8 00 00 00 00	 call	 _sprintf

; 326  : 	printf(g_szSystemError);

  000f6	68 00 00 00 00	 push	 OFFSET ?g_szSystemError@@3PADA ; g_szSystemError
  000fb	e8 00 00 00 00	 call	 _printf
  00100	83 c4 2c	 add	 esp, 44			; 0000002cH
; File e:\infinia-library-3.0\com\src\comcore.cpp

; 1133 : 		goto ERROR_ADDScheduler;

  00103	eb 3b		 jmp	 SHORT $ERROR_ADDScheduler$31
$LN7@addSchedul:

; 1134 : 	}
; 1135 : 	if (!pScheduler->start()) {

  00105	8b ce		 mov	 ecx, esi
  00107	e8 00 00 00 00	 call	 ?start@CScheduler@@QAE_NXZ ; CScheduler::start
  0010c	84 c0		 test	 al, al
  0010e	75 4e		 jne	 SHORT $LN9@addSchedul

; 1136 : 		m_pSchedulerList->del(idx);

  00110	8b 4b 04	 mov	 ecx, DWORD PTR [ebx+4]
  00113	57		 push	 edi
  00114	e8 00 00 00 00	 call	 ?del@?$CTList@VCScheduler@@@@QAE_NH@Z ; CTList<CScheduler>::del

; 1137 : 		_stprintf(g_szMessage, _T("[idx:%d] pScheduler->start()"), idx);

  00119	57		 push	 edi
  0011a	68 00 00 00 00	 push	 OFFSET ??_C@_0BN@KNJLAJGH@?$FLidx?3?$CFd?$FN?5pScheduler?9?$DOstart?$CI?$CJ?$AA@
  0011f	68 00 00 00 00	 push	 OFFSET ?g_szMessage@@3PADA ; g_szMessage
  00124	e8 00 00 00 00	 call	 _sprintf

; 1138 : 		comErrorPrint(g_szMessage);

  00129	68 72 04 00 00	 push	 1138			; 00000472H
  0012e	68 00 00 00 00	 push	 OFFSET ??_C@_0BI@COOFCBEF@CCoreList?3?3addScheduler?$AA@
  00133	68 00 00 00 00	 push	 OFFSET ?g_szMessage@@3PADA ; g_szMessage
  00138	e8 00 00 00 00	 call	 ?comGlobalErrorProc@@YAXPADPBDH@Z ; comGlobalErrorProc
  0013d	83 c4 18	 add	 esp, 24			; 00000018H
$ERROR_ADDScheduler$31:

; 1142 : 
; 1143 : ERROR_ADDScheduler:
; 1144 : 	delete pScheduler;
; 1145 : 	return -1;

  00140	8b ce		 mov	 ecx, esi
  00142	e8 00 00 00 00	 call	 ??1CScheduler@@QAE@XZ	; CScheduler::~CScheduler
  00147	6a 38		 push	 56			; 00000038H
  00149	56		 push	 esi
  0014a	e8 00 00 00 00	 call	 ??3@YAXPAXI@Z		; operator delete
  0014f	83 c4 08	 add	 esp, 8
  00152	83 c8 ff	 or	 eax, -1
  00155	5f		 pop	 edi
  00156	5e		 pop	 esi
  00157	5b		 pop	 ebx

; 1146 : }

  00158	8b e5		 mov	 esp, ebp
  0015a	5d		 pop	 ebp
  0015b	c2 08 00	 ret	 8
$LN9@addSchedul:

; 1139 : 		goto ERROR_ADDScheduler;
; 1140 : 	}
; 1141 : 	return idx;

  0015e	8b c7		 mov	 eax, edi
  00160	5f		 pop	 edi
  00161	5e		 pop	 esi
  00162	5b		 pop	 ebx

; 1146 : }

  00163	8b e5		 mov	 esp, ebp
  00165	5d		 pop	 ebp
  00166	c2 08 00	 ret	 8
$LN27@addSchedul:
; File e:\infinia-library-3.0\com\include\comtypes.h

; 325  : 	sprintf(g_szSystemError, "ERROR! [%s:%d] %s\n", _szFunc, _nLine, pMsg);

  00169	68 00 00 00 00	 push	 OFFSET ??_C@_0CN@NLDECHHM@pScheduler?5?$DN?5new?5?$CIstd?3?3nothrow?$CJ?5@
  0016e	68 61 04 00 00	 push	 1121			; 00000461H
  00173	68 00 00 00 00	 push	 OFFSET ??_C@_0BI@COOFCBEF@CCoreList?3?3addScheduler?$AA@
  00178	68 00 00 00 00	 push	 OFFSET ??_C@_0BD@KEHDJCKJ@ERROR?$CB?5?$FL?$CFs?3?$CFd?$FN?5?$CFs?6?$AA@
  0017d	68 00 00 00 00	 push	 OFFSET ?g_szSystemError@@3PADA ; g_szSystemError
  00182	e8 00 00 00 00	 call	 _sprintf

; 326  : 	printf(g_szSystemError);

  00187	68 00 00 00 00	 push	 OFFSET ?g_szSystemError@@3PADA ; g_szSystemError
  0018c	e8 00 00 00 00	 call	 _printf
  00191	83 c4 18	 add	 esp, 24			; 00000018H
; File e:\infinia-library-3.0\com\src\comcore.cpp

; 1122 : 		return -1;

  00194	83 c8 ff	 or	 eax, -1
  00197	5e		 pop	 esi
  00198	5b		 pop	 ebx

; 1146 : }

  00199	8b e5		 mov	 esp, ebp
  0019b	5d		 pop	 ebp
  0019c	c2 08 00	 ret	 8
?addScheduler@CCoreList@@QAEHHH@Z ENDP			; CCoreList::addScheduler
_TEXT	ENDS
; Function compile flags: /Ogtp
; File e:\infinia-library-3.0\com\src\comcore.cpp
; File e:\infinia-library-3.0\com\include\comtypes.h
; File e:\infinia-library-3.0\com\src\comcore.cpp
; File e:\infinia-library-3.0\com\include\comcore.h
; File e:\infinia-library-3.0\com\src\comcore.cpp
; File e:\infinia-library-3.0\com\include\comcore.h
; File e:\infinia-library-3.0\com\src\comcore.cpp
; File e:\infinia-library-3.0\com\include\comtypes.h
; File e:\infinia-library-3.0\com\src\comcore.cpp
; File e:\infinia-library-3.0\com\include\comtypes.h
; File e:\infinia-library-3.0\com\src\comcore.cpp
;	COMDAT ?addLogWriter@CCoreList@@QAEHH@Z
_TEXT	SEGMENT
_idx$ = -4						; size = 4
$T1 = -4						; size = 4
_nCount$ = 8						; size = 4
?addLogWriter@CCoreList@@QAEHH@Z PROC			; CCoreList::addLogWriter, COMDAT
; _this$ = ecx

; 1073 : {

  00000	55		 push	 ebp
  00001	8b ec		 mov	 ebp, esp
  00003	51		 push	 ecx
  00004	53		 push	 ebx
  00005	8b d9		 mov	 ebx, ecx

; 1074 : 	int idx;
; 1075 : 
; 1076 : 	if (!m_pWriterList) {

  00007	83 3b 00	 cmp	 DWORD PTR [ebx], 0
  0000a	75 15		 jne	 SHORT $LN3@addLogWrit

; 1077 : 		if (!initLogWriter(LIST_ADD_COUNT)) return -1;

  0000c	6a 0a		 push	 10			; 0000000aH
  0000e	e8 00 00 00 00	 call	 ?initLogWriter@CCoreList@@QAE_NH@Z ; CCoreList::initLogWriter
  00013	84 c0		 test	 al, al
  00015	75 0a		 jne	 SHORT $LN3@addLogWrit
  00017	83 c8 ff	 or	 eax, -1
  0001a	5b		 pop	 ebx

; 1107 : }

  0001b	8b e5		 mov	 esp, ebp
  0001d	5d		 pop	 ebp
  0001e	c2 04 00	 ret	 4
$LN3@addLogWrit:
  00021	57		 push	 edi

; 1078 : 	}
; 1079 : 
; 1080 : 	CSTLogger *pWriter = new (std::nothrow) CSTLogger();

  00022	68 00 00 00 00	 push	 OFFSET ?nothrow@std@@3Unothrow_t@1@B ; std::nothrow
  00027	6a 30		 push	 48			; 00000030H
  00029	e8 00 00 00 00	 call	 ??2@YAPAXIABUnothrow_t@std@@@Z ; operator new
  0002e	83 c4 08	 add	 esp, 8
  00031	89 45 fc	 mov	 DWORD PTR $T1[ebp], eax
  00034	85 c0		 test	 eax, eax
  00036	0f 84 2b 01 00
	00		 je	 $LN34@addLogWrit
  0003c	8b c8		 mov	 ecx, eax
  0003e	e8 00 00 00 00	 call	 ??0CSTLogger@@QAE@XZ	; CSTLogger::CSTLogger
  00043	8b f8		 mov	 edi, eax

; 1081 : 	if (!pWriter) {

  00045	85 ff		 test	 edi, edi
  00047	0f 84 1a 01 00
	00		 je	 $LN34@addLogWrit

; 1084 : 	}
; 1085 : 	if (!m_pWriterList->push_back(pWriter, &idx)) {

  0004d	8b 0b		 mov	 ecx, DWORD PTR [ebx]
  0004f	8d 45 fc	 lea	 eax, DWORD PTR _idx$[ebp]
  00052	56		 push	 esi
  00053	50		 push	 eax
  00054	57		 push	 edi
  00055	e8 00 00 00 00	 call	 ?push_back@?$CTList@VCSTLogger@@@@QAE_NPAVCSTLogger@@PAH@Z ; CTList<CSTLogger>::push_back
  0005a	84 c0		 test	 al, al
  0005c	75 42		 jne	 SHORT $LN5@addLogWrit

; 1086 : 		_stprintf(g_szMessage, _T("[idx:%d] pWriter->push_back(pWriter)"), idx);

  0005e	ff 75 fc	 push	 DWORD PTR _idx$[ebp]
  00061	68 00 00 00 00	 push	 OFFSET ??_C@_0CF@KCNJDDOF@?$FLidx?3?$CFd?$FN?5pWriter?9?$DOpush_back?$CIpWri@
  00066	68 00 00 00 00	 push	 OFFSET ?g_szMessage@@3PADA ; g_szMessage
  0006b	e8 00 00 00 00	 call	 _sprintf
; File e:\infinia-library-3.0\com\include\comtypes.h

; 325  : 	sprintf(g_szSystemError, "ERROR! [%s:%d] %s\n", _szFunc, _nLine, pMsg);

  00070	68 00 00 00 00	 push	 OFFSET ?g_szMessage@@3PADA ; g_szMessage
  00075	68 3f 04 00 00	 push	 1087			; 0000043fH
  0007a	68 00 00 00 00	 push	 OFFSET ??_C@_0BI@BNJKEKJG@CCoreList?3?3addLogWriter?$AA@
  0007f	68 00 00 00 00	 push	 OFFSET ??_C@_0BD@KEHDJCKJ@ERROR?$CB?5?$FL?$CFs?3?$CFd?$FN?5?$CFs?6?$AA@
  00084	68 00 00 00 00	 push	 OFFSET ?g_szSystemError@@3PADA ; g_szSystemError
  00089	e8 00 00 00 00	 call	 _sprintf

; 326  : 	printf(g_szSystemError);

  0008e	68 00 00 00 00	 push	 OFFSET ?g_szSystemError@@3PADA ; g_szSystemError
  00093	e8 00 00 00 00	 call	 _printf
  00098	83 c4 24	 add	 esp, 36			; 00000024H
; File e:\infinia-library-3.0\com\src\comcore.cpp

; 1088 : 		goto ERROR_ADDWRITER;

  0009b	e9 a9 00 00 00	 jmp	 $ERROR_ADDWRITER$38
$LN5@addLogWrit:

; 126  : 	if (!nCount) return false;

  000a0	8b 45 08	 mov	 eax, DWORD PTR _nCount$[ebp]
  000a3	85 c0		 test	 eax, eax
  000a5	74 59		 je	 SHORT $LN33@addLogWrit

; 127  : 	if (!_init(nCount)) return false;

  000a7	50		 push	 eax
  000a8	8b cf		 mov	 ecx, edi
  000aa	e8 00 00 00 00	 call	 ?_init@CSTLogger@@AAE_NH@Z ; CSTLogger::_init
  000af	84 c0		 test	 al, al
  000b1	74 4d		 je	 SHORT $LN33@addLogWrit
; File e:\infinia-library-3.0\com\include\comcore.h

; 90   : 	inline void setIdx(int nIdx) { m_stInfo.nIdx = nIdx; }

  000b3	8b 75 fc	 mov	 esi, DWORD PTR _idx$[ebp]
; File e:\infinia-library-3.0\com\src\comcore.cpp

; 1096 : 	if (!pWriter->start()) {

  000b6	8b cf		 mov	 ecx, edi
; File e:\infinia-library-3.0\com\include\comcore.h

; 90   : 	inline void setIdx(int nIdx) { m_stInfo.nIdx = nIdx; }

  000b8	89 77 18	 mov	 DWORD PTR [edi+24], esi
; File e:\infinia-library-3.0\com\src\comcore.cpp

; 1096 : 	if (!pWriter->start()) {

  000bb	e8 00 00 00 00	 call	 ?start@CSTLogger@@QAE_NXZ ; CSTLogger::start
  000c0	84 c0		 test	 al, al
  000c2	75 31		 jne	 SHORT $LN9@addLogWrit

; 1097 : 		m_pWriterList->del(idx);

  000c4	8b 0b		 mov	 ecx, DWORD PTR [ebx]
  000c6	56		 push	 esi
  000c7	e8 00 00 00 00	 call	 ?del@?$CTList@VCSTLogger@@@@QAE_NH@Z ; CTList<CSTLogger>::del

; 1098 : 		_stprintf(g_szMessage, _T("[idx:%d] pWriter->start()!"), idx);

  000cc	56		 push	 esi
  000cd	68 00 00 00 00	 push	 OFFSET ??_C@_0BL@IJMLHCIC@?$FLidx?3?$CFd?$FN?5pWriter?9?$DOstart?$CI?$CJ?$CB?$AA@
  000d2	68 00 00 00 00	 push	 OFFSET ?g_szMessage@@3PADA ; g_szMessage
  000d7	e8 00 00 00 00	 call	 _sprintf

; 1099 : 		comErrorPrint(g_szMessage);

  000dc	68 4b 04 00 00	 push	 1099			; 0000044bH
  000e1	68 00 00 00 00	 push	 OFFSET ??_C@_0BI@BNJKEKJG@CCoreList?3?3addLogWriter?$AA@
  000e6	68 00 00 00 00	 push	 OFFSET ?g_szMessage@@3PADA ; g_szMessage
  000eb	e8 00 00 00 00	 call	 ?comGlobalErrorProc@@YAXPADPBDH@Z ; comGlobalErrorProc
  000f0	83 c4 18	 add	 esp, 24			; 00000018H
  000f3	eb 54		 jmp	 SHORT $ERROR_ADDWRITER$38
$LN9@addLogWrit:

; 1100 : 		goto ERROR_ADDWRITER;
; 1101 : 	}
; 1102 : 	return idx;

  000f5	8b c6		 mov	 eax, esi
  000f7	5e		 pop	 esi
  000f8	5f		 pop	 edi
  000f9	5b		 pop	 ebx

; 1107 : }

  000fa	8b e5		 mov	 esp, ebp
  000fc	5d		 pop	 ebp
  000fd	c2 04 00	 ret	 4
$LN33@addLogWrit:

; 1089 : 	}
; 1090 : 	if (!pWriter->init(nCount, idx)) {
; 1091 : 		m_pWriterList->del(idx);

  00100	8b 75 fc	 mov	 esi, DWORD PTR _idx$[ebp]
  00103	8b 0b		 mov	 ecx, DWORD PTR [ebx]
  00105	56		 push	 esi
  00106	e8 00 00 00 00	 call	 ?del@?$CTList@VCSTLogger@@@@QAE_NH@Z ; CTList<CSTLogger>::del

; 1092 : 		_stprintf(g_szMessage, _T("pWriter->init(nCount:%d, idx:%d)"), nCount, idx);

  0010b	56		 push	 esi
  0010c	ff 75 08	 push	 DWORD PTR _nCount$[ebp]
  0010f	68 00 00 00 00	 push	 OFFSET ??_C@_0CB@ECBGLGCJ@pWriter?9?$DOinit?$CInCount?3?$CFd?0?5idx?3?$CFd?$CJ@
  00114	68 00 00 00 00	 push	 OFFSET ?g_szMessage@@3PADA ; g_szMessage
  00119	e8 00 00 00 00	 call	 _sprintf
; File e:\infinia-library-3.0\com\include\comtypes.h

; 325  : 	sprintf(g_szSystemError, "ERROR! [%s:%d] %s\n", _szFunc, _nLine, pMsg);

  0011e	68 00 00 00 00	 push	 OFFSET ?g_szMessage@@3PADA ; g_szMessage
  00123	68 45 04 00 00	 push	 1093			; 00000445H
  00128	68 00 00 00 00	 push	 OFFSET ??_C@_0BI@BNJKEKJG@CCoreList?3?3addLogWriter?$AA@
  0012d	68 00 00 00 00	 push	 OFFSET ??_C@_0BD@KEHDJCKJ@ERROR?$CB?5?$FL?$CFs?3?$CFd?$FN?5?$CFs?6?$AA@
  00132	68 00 00 00 00	 push	 OFFSET ?g_szSystemError@@3PADA ; g_szSystemError
  00137	e8 00 00 00 00	 call	 _sprintf

; 326  : 	printf(g_szSystemError);

  0013c	68 00 00 00 00	 push	 OFFSET ?g_szSystemError@@3PADA ; g_szSystemError
  00141	e8 00 00 00 00	 call	 _printf
  00146	83 c4 28	 add	 esp, 40			; 00000028H
$ERROR_ADDWRITER$38:
  00149	8b cf		 mov	 ecx, edi
  0014b	e8 00 00 00 00	 call	 ??1CSTLogger@@QAE@XZ	; CSTLogger::~CSTLogger
  00150	6a 30		 push	 48			; 00000030H
  00152	57		 push	 edi
  00153	e8 00 00 00 00	 call	 ??3@YAXPAXI@Z		; operator delete
  00158	83 c4 08	 add	 esp, 8
; File e:\infinia-library-3.0\com\src\comcore.cpp

; 1106 : 	return -1;

  0015b	83 c8 ff	 or	 eax, -1
  0015e	5e		 pop	 esi
  0015f	5f		 pop	 edi
  00160	5b		 pop	 ebx

; 1107 : }

  00161	8b e5		 mov	 esp, ebp
  00163	5d		 pop	 ebp
  00164	c2 04 00	 ret	 4
$LN34@addLogWrit:
; File e:\infinia-library-3.0\com\include\comtypes.h

; 325  : 	sprintf(g_szSystemError, "ERROR! [%s:%d] %s\n", _szFunc, _nLine, pMsg);

  00167	68 00 00 00 00	 push	 OFFSET ??_C@_0CJ@ELILGOLM@pWriter?5?$DN?5new?5?$CIstd?3?3nothrow?$CJ?5CST@
  0016c	68 3a 04 00 00	 push	 1082			; 0000043aH
  00171	68 00 00 00 00	 push	 OFFSET ??_C@_0BI@BNJKEKJG@CCoreList?3?3addLogWriter?$AA@
  00176	68 00 00 00 00	 push	 OFFSET ??_C@_0BD@KEHDJCKJ@ERROR?$CB?5?$FL?$CFs?3?$CFd?$FN?5?$CFs?6?$AA@
  0017b	68 00 00 00 00	 push	 OFFSET ?g_szSystemError@@3PADA ; g_szSystemError
  00180	e8 00 00 00 00	 call	 _sprintf

; 326  : 	printf(g_szSystemError);

  00185	68 00 00 00 00	 push	 OFFSET ?g_szSystemError@@3PADA ; g_szSystemError
  0018a	e8 00 00 00 00	 call	 _printf
  0018f	83 c4 18	 add	 esp, 24			; 00000018H
; File e:\infinia-library-3.0\com\src\comcore.cpp

; 1083 : 		return -1;

  00192	83 c8 ff	 or	 eax, -1
  00195	5f		 pop	 edi
  00196	5b		 pop	 ebx

; 1107 : }

  00197	8b e5		 mov	 esp, ebp
  00199	5d		 pop	 ebp
  0019a	c2 04 00	 ret	 4
?addLogWriter@CCoreList@@QAEHH@Z ENDP			; CCoreList::addLogWriter
_TEXT	ENDS
; Function compile flags: /Ogtp
; File e:\infinia-library-3.0\com\src\comcore.cpp
; File e:\infinia-library-3.0\com\include\comtypes.h
; File e:\infinia-library-3.0\com\src\comcore.cpp
; File e:\infinia-library-3.0\com\include\comtypes.h
; File e:\infinia-library-3.0\com\include\comtlist.h
; File e:\infinia-library-3.0\com\src\comcore.cpp
; File e:\infinia-library-3.0\com\include\comtypes.h
; File e:\infinia-library-3.0\com\include\comtlist.h
; File e:\infinia-library-3.0\com\src\comcore.cpp
; File e:\infinia-library-3.0\com\include\com\win32\win32_mtsync.h
; File e:\infinia-library-3.0\com\include\com\abstract_mtsync.h
; File e:\infinia-library-3.0\com\src\comcore.cpp
;	COMDAT ?delComThread@CCoreList@@QAE_NH@Z
_TEXT	SEGMENT
_nSeq$ = 8						; size = 4
?delComThread@CCoreList@@QAE_NH@Z PROC			; CCoreList::delComThread, COMDAT
; _this$ = ecx

; 1062 : {

  00000	55		 push	 ebp
  00001	8b ec		 mov	 ebp, esp
; File e:\infinia-library-3.0\com\include\comtypes.h

; 322  : inline bool ISINCLUDE(int i, int max) { if (0 <= i && i < max) return true; return false; }

  00003	8b 55 08	 mov	 edx, DWORD PTR _nSeq$[ebp]
; File e:\infinia-library-3.0\com\src\comcore.cpp

; 1063 : 	CComThread *pThread = m_pThreadList->getObj(nSeq);

  00006	8b 49 08	 mov	 ecx, DWORD PTR [ecx+8]
  00009	56		 push	 esi
; File e:\infinia-library-3.0\com\include\comtypes.h

; 322  : inline bool ISINCLUDE(int i, int max) { if (0 <= i && i < max) return true; return false; }

  0000a	85 d2		 test	 edx, edx
  0000c	78 75		 js	 SHORT $LN2@delComThre
  0000e	3b 51 10	 cmp	 edx, DWORD PTR [ecx+16]
  00011	7d 70		 jge	 SHORT $LN2@delComThre
; File e:\infinia-library-3.0\com\include\comtlist.h

; 332  : 	inline T* getObj(int i) { if (ISINCLUDE(i, m_nMax)) return m_pArray[i]; return NULL; }

  00013	8b 01		 mov	 eax, DWORD PTR [ecx]
  00015	8b 34 90	 mov	 esi, DWORD PTR [eax+edx*4]
; File e:\infinia-library-3.0\com\src\comcore.cpp

; 1064 : 	if (pThread) {

  00018	85 f6		 test	 esi, esi
  0001a	74 67		 je	 SHORT $LN2@delComThre
; File e:\infinia-library-3.0\com\include\comtypes.h

; 322  : inline bool ISINCLUDE(int i, int max) { if (0 <= i && i < max) return true; return false; }

  0001c	8b 41 10	 mov	 eax, DWORD PTR [ecx+16]
  0001f	3b d0		 cmp	 edx, eax
  00021	7c 16		 jl	 SHORT $LN13@delComThre
; File e:\infinia-library-3.0\com\include\comtlist.h

; 525  : 		_stprintf(g_szMessage, "i[%d] m_nMax[%d]", i, m_nMax);

  00023	50		 push	 eax
  00024	52		 push	 edx
  00025	68 00 00 00 00	 push	 OFFSET ??_C@_0BB@GJFHJAKG@i?$FL?$CFd?$FN?5m_nMax?$FL?$CFd?$FN?$AA@
  0002a	68 00 00 00 00	 push	 OFFSET ?g_szMessage@@3PADA ; g_szMessage
  0002f	e8 00 00 00 00	 call	 _sprintf
  00034	83 c4 10	 add	 esp, 16			; 00000010H

; 526  : 		return false;

  00037	eb 0f		 jmp	 SHORT $LN12@delComThre
$LN13@delComThre:

; 360  : 	inline void _DEL(int i) { m_pArray[i] = 0; m_nUse--; m_nDelIdx = i; }

  00039	8b 01		 mov	 eax, DWORD PTR [ecx]
  0003b	c7 04 90 00 00
	00 00		 mov	 DWORD PTR [eax+edx*4], 0
  00042	ff 49 04	 dec	 DWORD PTR [ecx+4]
  00045	89 51 0c	 mov	 DWORD PTR [ecx+12], edx
$LN12@delComThre:
; File e:\infinia-library-3.0\com\src\comcore.cpp

; 66   : 	if (!m_stInfo.hTHID) return false;

  00048	8b 46 04	 mov	 eax, DWORD PTR [esi+4]
  0004b	85 c0		 test	 eax, eax
  0004d	74 0b		 je	 SHORT $LN27@delComThre

; 67   : 	int nStatus = 0; // for linux
; 68   : 	m_stInfo.bActive = false;
; 69   : 	THREAD_JOIN(m_stInfo.hTHID, (void **)&nStatus);

  0004f	50		 push	 eax
  00050	c6 46 1c 00	 mov	 BYTE PTR [esi+28], 0
  00054	ff 15 00 00 00
	00		 call	 DWORD PTR __imp__CloseHandle@4
$LN27@delComThre:
; File e:\infinia-library-3.0\com\include\com\win32\win32_mtsync.h

; 64   : 	  ~condition() { CloseHandle(m_event); }

  0005a	ff 76 0c	 push	 DWORD PTR [esi+12]
  0005d	c7 46 08 00 00
	00 00		 mov	 DWORD PTR [esi+8], OFFSET ??_7condition@win32@common@@6B@
  00064	ff 15 00 00 00
	00		 call	 DWORD PTR __imp__CloseHandle@4
  0006a	6a 28		 push	 40			; 00000028H
  0006c	56		 push	 esi
; File e:\infinia-library-3.0\com\include\com\abstract_mtsync.h

; 72   : 	virtual ~abstract_condition() {}

  0006d	c7 46 08 00 00
	00 00		 mov	 DWORD PTR [esi+8], OFFSET ??_7abstract_condition@common@@6B@
  00074	e8 00 00 00 00	 call	 ??3@YAXPAXI@Z		; operator delete
  00079	83 c4 08	 add	 esp, 8
; File e:\infinia-library-3.0\com\src\comcore.cpp

; 1067 : 		return true;

  0007c	b0 01		 mov	 al, 1
  0007e	5e		 pop	 esi

; 1070 : }

  0007f	5d		 pop	 ebp
  00080	c2 04 00	 ret	 4
$LN2@delComThre:

; 1068 : 	}
; 1069 : 	return false;

  00083	32 c0		 xor	 al, al
  00085	5e		 pop	 esi

; 1070 : }

  00086	5d		 pop	 ebp
  00087	c2 04 00	 ret	 4
?delComThread@CCoreList@@QAE_NH@Z ENDP			; CCoreList::delComThread
_TEXT	ENDS
; Function compile flags: /Ogtp
; File e:\infinia-library-3.0\com\src\comcore.cpp
; File e:\infinia-library-3.0\com\include\comtypes.h
; File e:\infinia-library-3.0\com\src\comcore.cpp
; File e:\infinia-library-3.0\com\include\comcore.h
; File e:\infinia-library-3.0\com\src\comcore.cpp
; File e:\infinia-library-3.0\com\include\comcore.h
; File e:\infinia-library-3.0\com\src\comcore.cpp
; File e:\infinia-library-3.0\com\include\com\win32\win32_mtsync.h
; File e:\infinia-library-3.0\com\include\com\abstract_mtsync.h
; File e:\infinia-library-3.0\com\src\comcore.cpp
; File e:\infinia-library-3.0\com\include\comtypes.h
; File e:\infinia-library-3.0\com\src\comcore.cpp
;	COMDAT ?addComThread@CCoreList@@QAEHP6AXPAUSTThreadInfo@@@ZPAXH2@Z
_TEXT	SEGMENT
$T1 = -4						; size = 4
_fpProc$ = 8						; size = 4
_idx$ = 12						; size = 4
_pClass$ = 12						; size = 4
_millisec$ = 16						; size = 4
_pObj$ = 20						; size = 4
?addComThread@CCoreList@@QAEHP6AXPAUSTThreadInfo@@@ZPAXH2@Z PROC ; CCoreList::addComThread, COMDAT
; _this$ = ecx

; 1022 : {

  00000	55		 push	 ebp
  00001	8b ec		 mov	 ebp, esp
  00003	51		 push	 ecx
  00004	57		 push	 edi
  00005	8b f9		 mov	 edi, ecx

; 1023 : 	CComThread *pThread;
; 1024 : 	int idx;
; 1025 : 	if (!m_pThreadList) {

  00007	83 7f 08 00	 cmp	 DWORD PTR [edi+8], 0
  0000b	75 15		 jne	 SHORT $LN3@addComThre

; 1026 : 		if (!initComThread(LIST_ADD_COUNT)) return -1;

  0000d	6a 0a		 push	 10			; 0000000aH
  0000f	e8 00 00 00 00	 call	 ?initComThread@CCoreList@@QAE_NH@Z ; CCoreList::initComThread
  00014	84 c0		 test	 al, al
  00016	75 0a		 jne	 SHORT $LN3@addComThre
  00018	83 c8 ff	 or	 eax, -1
  0001b	5f		 pop	 edi

; 1059 : }

  0001c	8b e5		 mov	 esp, ebp
  0001e	5d		 pop	 ebp
  0001f	c2 10 00	 ret	 16			; 00000010H
$LN3@addComThre:
  00022	53		 push	 ebx
  00023	56		 push	 esi

; 1027 : 	}
; 1028 : 
; 1029 : 	pThread = new (std::nothrow) CComThread();

  00024	68 00 00 00 00	 push	 OFFSET ?nothrow@std@@3Unothrow_t@1@B ; std::nothrow
  00029	6a 28		 push	 40			; 00000028H
  0002b	e8 00 00 00 00	 call	 ??2@YAPAXIABUnothrow_t@std@@@Z ; operator new
  00030	83 c4 08	 add	 esp, 8
  00033	89 45 fc	 mov	 DWORD PTR $T1[ebp], eax
  00036	85 c0		 test	 eax, eax
  00038	0f 84 05 01 00
	00		 je	 $LN51@addComThre
  0003e	8b c8		 mov	 ecx, eax
  00040	e8 00 00 00 00	 call	 ??0CComThread@@QAE@XZ	; CComThread::CComThread
  00045	8b f0		 mov	 esi, eax

; 1030 : 	if (!pThread) {

  00047	85 f6		 test	 esi, esi
  00049	0f 84 f4 00 00
	00		 je	 $LN51@addComThre

; 35   : 	m_stInfo.pClass = pClass;

  0004f	8b 4d 0c	 mov	 ecx, DWORD PTR _pClass$[ebp]

; 38   : 	m_fpLoopProc = fpProc;

  00052	8b 45 08	 mov	 eax, DWORD PTR _fpProc$[ebp]
  00055	89 4e 10	 mov	 DWORD PTR [esi+16], ecx
  00058	8b 4d 14	 mov	 ecx, DWORD PTR _pObj$[ebp]
  0005b	89 06		 mov	 DWORD PTR [esi], eax

; 1032 : 		comErrorPrint(g_szMessage);
; 1033 : 		goto ERROR_ADDCOMTHREAD;
; 1034 : 	}
; 1035 : 
; 1036 : 	if (!pThread->init(fpProc, pClass, millisec, pObj)) {
; 1037 : 		_stprintf(g_szMessage, _T("[lastIdx:%d] pComThread->init()"), m_pThreadList->lastIdx());
; 1038 : 		comErrorPrint(g_szMessage);
; 1039 : 		goto ERROR_ADDCOMTHREAD;
; 1040 : 	}
; 1041 : 
; 1042 : 	if (!m_pThreadList->push_back(pThread, &idx)) {

  0005d	8d 45 0c	 lea	 eax, DWORD PTR _idx$[ebp]

; 36   : 	m_stInfo.pObj = pObj;

  00060	89 4e 14	 mov	 DWORD PTR [esi+20], ecx

; 37   : 	m_stInfo.millisecSleep = millisec;

  00063	8b 4d 10	 mov	 ecx, DWORD PTR _millisec$[ebp]

; 1032 : 		comErrorPrint(g_szMessage);
; 1033 : 		goto ERROR_ADDCOMTHREAD;
; 1034 : 	}
; 1035 : 
; 1036 : 	if (!pThread->init(fpProc, pClass, millisec, pObj)) {
; 1037 : 		_stprintf(g_szMessage, _T("[lastIdx:%d] pComThread->init()"), m_pThreadList->lastIdx());
; 1038 : 		comErrorPrint(g_szMessage);
; 1039 : 		goto ERROR_ADDCOMTHREAD;
; 1040 : 	}
; 1041 : 
; 1042 : 	if (!m_pThreadList->push_back(pThread, &idx)) {

  00066	50		 push	 eax

; 37   : 	m_stInfo.millisecSleep = millisec;

  00067	89 4e 20	 mov	 DWORD PTR [esi+32], ecx

; 39   : 	m_nMillisecSleep = millisec;

  0006a	89 4e 24	 mov	 DWORD PTR [esi+36], ecx

; 1032 : 		comErrorPrint(g_szMessage);
; 1033 : 		goto ERROR_ADDCOMTHREAD;
; 1034 : 	}
; 1035 : 
; 1036 : 	if (!pThread->init(fpProc, pClass, millisec, pObj)) {
; 1037 : 		_stprintf(g_szMessage, _T("[lastIdx:%d] pComThread->init()"), m_pThreadList->lastIdx());
; 1038 : 		comErrorPrint(g_szMessage);
; 1039 : 		goto ERROR_ADDCOMTHREAD;
; 1040 : 	}
; 1041 : 
; 1042 : 	if (!m_pThreadList->push_back(pThread, &idx)) {

  0006d	8b 4f 08	 mov	 ecx, DWORD PTR [edi+8]
  00070	56		 push	 esi
  00071	e8 00 00 00 00	 call	 ?push_back@?$CTList@VCComThread@@@@QAE_NPAVCComThread@@PAH@Z ; CTList<CComThread>::push_back
  00076	84 c0		 test	 al, al
  00078	75 3f		 jne	 SHORT $LN8@addComThre

; 1043 : 		_stprintf(g_szMessage, _T("[idx:%d] m_pThreadList->push_back()"), idx);

  0007a	ff 75 0c	 push	 DWORD PTR _idx$[ebp]
  0007d	68 00 00 00 00	 push	 OFFSET ??_C@_0CE@EIFCBLIK@?$FLidx?3?$CFd?$FN?5m_pThreadList?9?$DOpush_bac@
  00082	68 00 00 00 00	 push	 OFFSET ?g_szMessage@@3PADA ; g_szMessage
  00087	e8 00 00 00 00	 call	 _sprintf
; File e:\infinia-library-3.0\com\include\comtypes.h

; 325  : 	sprintf(g_szSystemError, "ERROR! [%s:%d] %s\n", _szFunc, _nLine, pMsg);

  0008c	68 00 00 00 00	 push	 OFFSET ?g_szMessage@@3PADA ; g_szMessage
  00091	68 14 04 00 00	 push	 1044			; 00000414H
  00096	68 00 00 00 00	 push	 OFFSET ??_C@_0BI@KPALNNB@CCoreList?3?3addComThread?$AA@
  0009b	68 00 00 00 00	 push	 OFFSET ??_C@_0BD@KEHDJCKJ@ERROR?$CB?5?$FL?$CFs?3?$CFd?$FN?5?$CFs?6?$AA@
  000a0	68 00 00 00 00	 push	 OFFSET ?g_szSystemError@@3PADA ; g_szSystemError
  000a5	e8 00 00 00 00	 call	 _sprintf

; 326  : 	printf(g_szSystemError);

  000aa	68 00 00 00 00	 push	 OFFSET ?g_szSystemError@@3PADA ; g_szSystemError
  000af	e8 00 00 00 00	 call	 _printf
  000b4	83 c4 24	 add	 esp, 36			; 00000024H
; File e:\infinia-library-3.0\com\src\comcore.cpp

; 1045 : 		goto ERROR_ADDCOMTHREAD;

  000b7	eb 41		 jmp	 SHORT $ERROR_ADDCOMTHREAD$55
$LN8@addComThre:
; File e:\infinia-library-3.0\com\include\comcore.h

; 90   : 	inline void setIdx(int nIdx) { m_stInfo.nIdx = nIdx; }

  000b9	8b 5d 0c	 mov	 ebx, DWORD PTR _idx$[ebp]
; File e:\infinia-library-3.0\com\src\comcore.cpp

; 1048 : 	if (!pThread->start()) {

  000bc	8b ce		 mov	 ecx, esi
; File e:\infinia-library-3.0\com\include\comcore.h

; 90   : 	inline void setIdx(int nIdx) { m_stInfo.nIdx = nIdx; }

  000be	89 5e 18	 mov	 DWORD PTR [esi+24], ebx
; File e:\infinia-library-3.0\com\src\comcore.cpp

; 1048 : 	if (!pThread->start()) {

  000c1	e8 00 00 00 00	 call	 ?start@CComThread@@QAE_NXZ ; CComThread::start
  000c6	84 c0		 test	 al, al
  000c8	75 6e		 jne	 SHORT $LN10@addComThre

; 1049 : 		m_pThreadList->del(idx);

  000ca	8b 4f 08	 mov	 ecx, DWORD PTR [edi+8]
  000cd	53		 push	 ebx
  000ce	e8 00 00 00 00	 call	 ?del@?$CTList@VCComThread@@@@QAE_NH@Z ; CTList<CComThread>::del

; 1050 : 		_stprintf(g_szMessage, _T("[idx:%d] pComThread->start()"), idx);

  000d3	53		 push	 ebx
  000d4	68 00 00 00 00	 push	 OFFSET ??_C@_0BN@OLBGEPKC@?$FLidx?3?$CFd?$FN?5pComThread?9?$DOstart?$CI?$CJ?$AA@
  000d9	68 00 00 00 00	 push	 OFFSET ?g_szMessage@@3PADA ; g_szMessage
  000de	e8 00 00 00 00	 call	 _sprintf

; 1051 : 		comErrorPrint(g_szMessage);

  000e3	68 1b 04 00 00	 push	 1051			; 0000041bH
  000e8	68 00 00 00 00	 push	 OFFSET ??_C@_0BI@KPALNNB@CCoreList?3?3addComThread?$AA@
  000ed	68 00 00 00 00	 push	 OFFSET ?g_szMessage@@3PADA ; g_szMessage
  000f2	e8 00 00 00 00	 call	 ?comGlobalErrorProc@@YAXPADPBDH@Z ; comGlobalErrorProc
  000f7	83 c4 18	 add	 esp, 24			; 00000018H
$ERROR_ADDCOMTHREAD$55:

; 66   : 	if (!m_stInfo.hTHID) return false;

  000fa	8b 46 04	 mov	 eax, DWORD PTR [esi+4]
  000fd	8b 3d 00 00 00
	00		 mov	 edi, DWORD PTR __imp__CloseHandle@4
  00103	85 c0		 test	 eax, eax
  00105	74 07		 je	 SHORT $LN39@addComThre

; 67   : 	int nStatus = 0; // for linux
; 68   : 	m_stInfo.bActive = false;
; 69   : 	THREAD_JOIN(m_stInfo.hTHID, (void **)&nStatus);

  00107	50		 push	 eax
  00108	c6 46 1c 00	 mov	 BYTE PTR [esi+28], 0
  0010c	ff d7		 call	 edi
$LN39@addComThre:
; File e:\infinia-library-3.0\com\include\com\win32\win32_mtsync.h

; 64   : 	  ~condition() { CloseHandle(m_event); }

  0010e	ff 76 0c	 push	 DWORD PTR [esi+12]
  00111	c7 46 08 00 00
	00 00		 mov	 DWORD PTR [esi+8], OFFSET ??_7condition@win32@common@@6B@
  00118	ff d7		 call	 edi
  0011a	6a 28		 push	 40			; 00000028H
  0011c	56		 push	 esi
; File e:\infinia-library-3.0\com\include\com\abstract_mtsync.h

; 72   : 	virtual ~abstract_condition() {}

  0011d	c7 46 08 00 00
	00 00		 mov	 DWORD PTR [esi+8], OFFSET ??_7abstract_condition@common@@6B@
  00124	e8 00 00 00 00	 call	 ??3@YAXPAXI@Z		; operator delete
  00129	83 c4 08	 add	 esp, 8
; File e:\infinia-library-3.0\com\src\comcore.cpp

; 1058 : 	return -1;

  0012c	83 c8 ff	 or	 eax, -1
  0012f	5e		 pop	 esi
  00130	5b		 pop	 ebx
  00131	5f		 pop	 edi

; 1059 : }

  00132	8b e5		 mov	 esp, ebp
  00134	5d		 pop	 ebp
  00135	c2 10 00	 ret	 16			; 00000010H
$LN10@addComThre:
  00138	5e		 pop	 esi

; 1052 : 		goto ERROR_ADDCOMTHREAD;
; 1053 : 	}
; 1054 : 	return idx;

  00139	8b c3		 mov	 eax, ebx
  0013b	5b		 pop	 ebx
  0013c	5f		 pop	 edi

; 1059 : }

  0013d	8b e5		 mov	 esp, ebp
  0013f	5d		 pop	 ebp
  00140	c2 10 00	 ret	 16			; 00000010H
$LN51@addComThre:

; 1031 : 		_stprintf(g_szMessage, _T("[lastIdx:%d] new CComThread"), m_pThreadList->lastIdx());

  00143	8b 47 08	 mov	 eax, DWORD PTR [edi+8]
  00146	ff 70 08	 push	 DWORD PTR [eax+8]
  00149	68 00 00 00 00	 push	 OFFSET ??_C@_0BM@FKIFMFOP@?$FLlastIdx?3?$CFd?$FN?5new?5CComThread?$AA@
  0014e	68 00 00 00 00	 push	 OFFSET ?g_szMessage@@3PADA ; g_szMessage
  00153	e8 00 00 00 00	 call	 _sprintf
; File e:\infinia-library-3.0\com\include\comtypes.h

; 325  : 	sprintf(g_szSystemError, "ERROR! [%s:%d] %s\n", _szFunc, _nLine, pMsg);

  00158	68 00 00 00 00	 push	 OFFSET ?g_szMessage@@3PADA ; g_szMessage
  0015d	68 08 04 00 00	 push	 1032			; 00000408H
  00162	68 00 00 00 00	 push	 OFFSET ??_C@_0BI@KPALNNB@CCoreList?3?3addComThread?$AA@
  00167	68 00 00 00 00	 push	 OFFSET ??_C@_0BD@KEHDJCKJ@ERROR?$CB?5?$FL?$CFs?3?$CFd?$FN?5?$CFs?6?$AA@
  0016c	68 00 00 00 00	 push	 OFFSET ?g_szSystemError@@3PADA ; g_szSystemError
  00171	e8 00 00 00 00	 call	 _sprintf

; 326  : 	printf(g_szSystemError);

  00176	68 00 00 00 00	 push	 OFFSET ?g_szSystemError@@3PADA ; g_szSystemError
  0017b	e8 00 00 00 00	 call	 _printf
  00180	83 c4 24	 add	 esp, 36			; 00000024H
; File e:\infinia-library-3.0\com\src\comcore.cpp

; 1058 : 	return -1;

  00183	83 c8 ff	 or	 eax, -1
  00186	5e		 pop	 esi
  00187	5b		 pop	 ebx
  00188	5f		 pop	 edi

; 1059 : }

  00189	8b e5		 mov	 esp, ebp
  0018b	5d		 pop	 ebp
  0018c	c2 10 00	 ret	 16			; 00000010H
?addComThread@CCoreList@@QAEHP6AXPAUSTThreadInfo@@@ZPAXH2@Z ENDP ; CCoreList::addComThread
_TEXT	ENDS
; Function compile flags: /Ogtp
; File e:\infinia-library-3.0\com\src\comcore.cpp
; File e:\infinia-library-3.0\com\include\comtypes.h
; File e:\infinia-library-3.0\com\include\comtlist.h
; File e:\infinia-library-3.0\com\src\comcore.cpp
; File e:\infinia-library-3.0\com\include\comcore.h
; File e:\infinia-library-3.0\com\src\comcore.cpp
;	COMDAT ?putTimer@CCoreList@@QAE_NPAUSTIntervalInfo@@@Z
_TEXT	SEGMENT
_p$ = 8							; size = 4
?putTimer@CCoreList@@QAE_NPAUSTIntervalInfo@@@Z PROC	; CCoreList::putTimer, COMDAT
; _this$ = ecx

; 1009 : {

  00000	55		 push	 ebp
  00001	8b ec		 mov	 ebp, esp

; 1010 : 	CScheduler *pSchedulerThread = m_pSchedulerList->getObj(p->nThreadIdx);

  00003	8b 41 04	 mov	 eax, DWORD PTR [ecx+4]
  00006	56		 push	 esi
  00007	8b 75 08	 mov	 esi, DWORD PTR _p$[ebp]
  0000a	8b 16		 mov	 edx, DWORD PTR [esi]
; File e:\infinia-library-3.0\com\include\comtypes.h

; 322  : inline bool ISINCLUDE(int i, int max) { if (0 <= i && i < max) return true; return false; }

  0000c	85 d2		 test	 edx, edx
  0000e	78 21		 js	 SHORT $LN14@putTimer
  00010	3b 50 10	 cmp	 edx, DWORD PTR [eax+16]
  00013	7d 1c		 jge	 SHORT $LN14@putTimer
; File e:\infinia-library-3.0\com\include\comtlist.h

; 332  : 	inline T* getObj(int i) { if (ISINCLUDE(i, m_nMax)) return m_pArray[i]; return NULL; }

  00015	8b 00		 mov	 eax, DWORD PTR [eax]
  00017	8b 0c 90	 mov	 ecx, DWORD PTR [eax+edx*4]
; File e:\infinia-library-3.0\com\src\comcore.cpp

; 1011 : 	if (!pSchedulerThread) {

  0001a	85 c9		 test	 ecx, ecx
  0001c	74 13		 je	 SHORT $LN14@putTimer
; File e:\infinia-library-3.0\com\include\comcore.h

; 142  : 	inline int addTime(STIntervalInfo *pData) { return m_pTimeList->add(pData); }

  0001e	8b 49 28	 mov	 ecx, DWORD PTR [ecx+40]
  00021	56		 push	 esi
  00022	e8 00 00 00 00	 call	 ?add@?$CMemList@USTIntervalInfo@@@@QAEHPAUSTIntervalInfo@@@Z ; CMemList<STIntervalInfo>::add
; File e:\infinia-library-3.0\com\src\comcore.cpp

; 1014 : 	if (!pSchedulerThread->addTime(p)) {

  00027	85 c0		 test	 eax, eax
  00029	5e		 pop	 esi
  0002a	0f 95 c0	 setne	 al

; 1015 : 		return false;
; 1016 : 	}
; 1017 : 	return true;
; 1018 : }

  0002d	5d		 pop	 ebp
  0002e	c2 04 00	 ret	 4
$LN14@putTimer:

; 1012 : 		return false;

  00031	32 c0		 xor	 al, al
  00033	5e		 pop	 esi

; 1015 : 		return false;
; 1016 : 	}
; 1017 : 	return true;
; 1018 : }

  00034	5d		 pop	 ebp
  00035	c2 04 00	 ret	 4
?putTimer@CCoreList@@QAE_NPAUSTIntervalInfo@@@Z ENDP	; CCoreList::putTimer
_TEXT	ENDS
; Function compile flags: /Ogtp
; File e:\infinia-library-3.0\com\src\comcore.cpp
; File e:\infinia-library-3.0\com\include\comtypes.h
; File e:\infinia-library-3.0\com\include\comtlist.h
; File e:\infinia-library-3.0\com\src\comcore.cpp
; File e:\infinia-library-3.0\com\include\comcore.h
; File e:\infinia-library-3.0\com\src\comcore.cpp
;	COMDAT ?putEvent@CCoreList@@QAE_NPAUSTEvent@@@Z
_TEXT	SEGMENT
_p$ = 8							; size = 4
?putEvent@CCoreList@@QAE_NPAUSTEvent@@@Z PROC		; CCoreList::putEvent, COMDAT
; _this$ = ecx

; 997  : {

  00000	55		 push	 ebp
  00001	8b ec		 mov	 ebp, esp

; 998  : 	CComQueueThread *pQueueThread = m_pEventThreadList->getObj(p->nThreadIdx);

  00003	8b 55 08	 mov	 edx, DWORD PTR _p$[ebp]
  00006	8b 41 0c	 mov	 eax, DWORD PTR [ecx+12]
  00009	56		 push	 esi
  0000a	8b 32		 mov	 esi, DWORD PTR [edx]
; File e:\infinia-library-3.0\com\include\comtypes.h

; 322  : inline bool ISINCLUDE(int i, int max) { if (0 <= i && i < max) return true; return false; }

  0000c	85 f6		 test	 esi, esi
  0000e	78 2d		 js	 SHORT $LN19@putEvent
  00010	3b 70 10	 cmp	 esi, DWORD PTR [eax+16]
  00013	7d 28		 jge	 SHORT $LN19@putEvent
; File e:\infinia-library-3.0\com\include\comtlist.h

; 332  : 	inline T* getObj(int i) { if (ISINCLUDE(i, m_nMax)) return m_pArray[i]; return NULL; }

  00015	8b 00		 mov	 eax, DWORD PTR [eax]
  00017	8b 34 b0	 mov	 esi, DWORD PTR [eax+esi*4]
; File e:\infinia-library-3.0\com\src\comcore.cpp

; 999  : 	if (!pQueueThread) {

  0001a	85 f6		 test	 esi, esi
  0001c	74 1f		 je	 SHORT $LN19@putEvent
; File e:\infinia-library-3.0\com\include\comcore.h

; 167  : 	bool putQueue(STEvent *p) { if (m_cThread.bActive()) { m_sLogQueue.push(p); m_cThread.sendSignal(); return true; } return false; }

  0001e	80 7e 1c 00	 cmp	 BYTE PTR [esi+28], 0
  00022	74 19		 je	 SHORT $LN19@putEvent
  00024	52		 push	 edx
  00025	8d 4e 28	 lea	 ecx, DWORD PTR [esi+40]
  00028	e8 00 00 00 00	 call	 ?push@CQueueS@@QAE_NPAX@Z ; CQueueS::push

; 92   : 	inline void sendSignal() { m_stInfo.cThreadCond.signal(); }

  0002d	8b 46 08	 mov	 eax, DWORD PTR [esi+8]
  00030	8d 4e 08	 lea	 ecx, DWORD PTR [esi+8]
  00033	ff 50 04	 call	 DWORD PTR [eax+4]
; File e:\infinia-library-3.0\com\src\comcore.cpp

; 1005 : 	return true;

  00036	b0 01		 mov	 al, 1
  00038	5e		 pop	 esi

; 1006 : }

  00039	5d		 pop	 ebp
  0003a	c2 04 00	 ret	 4
$LN19@putEvent:

; 1000 : 		return false;

  0003d	32 c0		 xor	 al, al
  0003f	5e		 pop	 esi

; 1006 : }

  00040	5d		 pop	 ebp
  00041	c2 04 00	 ret	 4
?putEvent@CCoreList@@QAE_NPAUSTEvent@@@Z ENDP		; CCoreList::putEvent
_TEXT	ENDS
; Function compile flags: /Ogtp
; File e:\infinia-library-3.0\com\include\comcore.h
;	COMDAT ?delEvent@CCoreList@@QAE_NPAUSTEvent@@@Z
_TEXT	SEGMENT
_p$ = 8							; size = 4
?delEvent@CCoreList@@QAE_NPAUSTEvent@@@Z PROC		; CCoreList::delEvent, COMDAT
; _this$ = ecx

; 196  : 	inline bool delEvent(STEvent *p) { return m_pEventPool->delMem(p); }

  00000	55		 push	 ebp
  00001	8b ec		 mov	 ebp, esp
  00003	8b 49 14	 mov	 ecx, DWORD PTR [ecx+20]
  00006	5d		 pop	 ebp
  00007	e9 00 00 00 00	 jmp	 ?delMem@?$CMemPool@USTEvent@@@@QAE_NPAUSTEvent@@@Z ; CMemPool<STEvent>::delMem
?delEvent@CCoreList@@QAE_NPAUSTEvent@@@Z ENDP		; CCoreList::delEvent
_TEXT	ENDS
; Function compile flags: /Ogtp
; File e:\infinia-library-3.0\com\src\comcore.cpp
;	COMDAT ?destroy@CCoreList@@QAEXXZ
_TEXT	SEGMENT
?destroy@CCoreList@@QAEXXZ PROC				; CCoreList::destroy, COMDAT
; _this$ = ecx

; 495  : {

  00000	56		 push	 esi
  00001	8b f1		 mov	 esi, ecx
  00003	57		 push	 edi

; 496  : 	if (m_pWriterList) {

  00004	8b 3e		 mov	 edi, DWORD PTR [esi]
  00006	85 ff		 test	 edi, edi
  00008	74 18		 je	 SHORT $LN2@destroy

; 497  : 		delete m_pWriterList; 
; 498  : 		m_pWriterList = NULL;

  0000a	8b cf		 mov	 ecx, edi
  0000c	e8 00 00 00 00	 call	 ??1?$CTList@VCSTLogger@@@@QAE@XZ ; CTList<CSTLogger>::~CTList<CSTLogger>
  00011	6a 18		 push	 24			; 00000018H
  00013	57		 push	 edi
  00014	e8 00 00 00 00	 call	 ??3@YAXPAXI@Z		; operator delete
  00019	83 c4 08	 add	 esp, 8
  0001c	c7 06 00 00 00
	00		 mov	 DWORD PTR [esi], 0
$LN2@destroy:

; 499  : 	}
; 500  : 	if (m_pSchedulerList) {

  00022	8b 7e 04	 mov	 edi, DWORD PTR [esi+4]
  00025	85 ff		 test	 edi, edi
  00027	74 19		 je	 SHORT $LN3@destroy

; 501  : 		delete m_pSchedulerList;
; 502  : 		m_pSchedulerList = NULL;

  00029	8b cf		 mov	 ecx, edi
  0002b	e8 00 00 00 00	 call	 ??1?$CTList@VCScheduler@@@@QAE@XZ ; CTList<CScheduler>::~CTList<CScheduler>
  00030	6a 18		 push	 24			; 00000018H
  00032	57		 push	 edi
  00033	e8 00 00 00 00	 call	 ??3@YAXPAXI@Z		; operator delete
  00038	83 c4 08	 add	 esp, 8
  0003b	c7 46 04 00 00
	00 00		 mov	 DWORD PTR [esi+4], 0
$LN3@destroy:

; 503  : 	}
; 504  : 	if (m_pThreadList) {

  00042	8b 7e 08	 mov	 edi, DWORD PTR [esi+8]
  00045	85 ff		 test	 edi, edi
  00047	74 19		 je	 SHORT $LN4@destroy

; 505  : 		delete m_pThreadList;
; 506  : 		m_pThreadList = NULL;

  00049	8b cf		 mov	 ecx, edi
  0004b	e8 00 00 00 00	 call	 ??1?$CTList@VCComThread@@@@QAE@XZ ; CTList<CComThread>::~CTList<CComThread>
  00050	6a 18		 push	 24			; 00000018H
  00052	57		 push	 edi
  00053	e8 00 00 00 00	 call	 ??3@YAXPAXI@Z		; operator delete
  00058	83 c4 08	 add	 esp, 8
  0005b	c7 46 08 00 00
	00 00		 mov	 DWORD PTR [esi+8], 0
$LN4@destroy:

; 507  : 	}
; 508  : 	if (m_pEventThreadList) {

  00062	8b 7e 0c	 mov	 edi, DWORD PTR [esi+12]
  00065	85 ff		 test	 edi, edi
  00067	74 19		 je	 SHORT $LN5@destroy

; 509  : 		delete m_pEventThreadList;
; 510  : 		m_pEventThreadList = NULL;

  00069	8b cf		 mov	 ecx, edi
  0006b	e8 00 00 00 00	 call	 ??1?$CTList@VCComQueueThread@@@@QAE@XZ ; CTList<CComQueueThread>::~CTList<CComQueueThread>
  00070	6a 18		 push	 24			; 00000018H
  00072	57		 push	 edi
  00073	e8 00 00 00 00	 call	 ??3@YAXPAXI@Z		; operator delete
  00078	83 c4 08	 add	 esp, 8
  0007b	c7 46 0c 00 00
	00 00		 mov	 DWORD PTR [esi+12], 0
$LN5@destroy:

; 511  : 	}
; 512  : 	if (m_pIntervalPool) {

  00082	8b 7e 10	 mov	 edi, DWORD PTR [esi+16]
  00085	85 ff		 test	 edi, edi
  00087	74 19		 je	 SHORT $LN6@destroy

; 513  : 		delete m_pIntervalPool;
; 514  : 		m_pIntervalPool = NULL;

  00089	8b cf		 mov	 ecx, edi
  0008b	e8 00 00 00 00	 call	 ??1?$CMemPool@USTIntervalInfo@@@@QAE@XZ ; CMemPool<STIntervalInfo>::~CMemPool<STIntervalInfo>
  00090	6a 18		 push	 24			; 00000018H
  00092	57		 push	 edi
  00093	e8 00 00 00 00	 call	 ??3@YAXPAXI@Z		; operator delete
  00098	83 c4 08	 add	 esp, 8
  0009b	c7 46 10 00 00
	00 00		 mov	 DWORD PTR [esi+16], 0
$LN6@destroy:

; 515  : 	}
; 516  : 	if (m_pEventPool) {

  000a2	8b 7e 14	 mov	 edi, DWORD PTR [esi+20]
  000a5	85 ff		 test	 edi, edi
  000a7	74 19		 je	 SHORT $LN7@destroy

; 517  : 		delete m_pEventPool;
; 518  : 		m_pEventPool = NULL;

  000a9	8b cf		 mov	 ecx, edi
  000ab	e8 00 00 00 00	 call	 ??1?$CMemPool@USTEvent@@@@QAE@XZ ; CMemPool<STEvent>::~CMemPool<STEvent>
  000b0	6a 18		 push	 24			; 00000018H
  000b2	57		 push	 edi
  000b3	e8 00 00 00 00	 call	 ??3@YAXPAXI@Z		; operator delete
  000b8	83 c4 08	 add	 esp, 8
  000bb	c7 46 14 00 00
	00 00		 mov	 DWORD PTR [esi+20], 0
$LN7@destroy:

; 519  : 	}
; 520  : }

  000c2	5f		 pop	 edi
  000c3	5e		 pop	 esi
  000c4	c3		 ret	 0
?destroy@CCoreList@@QAEXXZ ENDP				; CCoreList::destroy
_TEXT	ENDS
; Function compile flags: /Ogtp
; File e:\infinia-library-3.0\com\src\comcore.cpp
; File e:\infinia-library-3.0\com\include\comtlist.h
; File e:\infinia-library-3.0\com\src\comcore.cpp
; File e:\infinia-library-3.0\com\include\comtypes.h
; File e:\infinia-library-3.0\com\include\comtlist.h
; File e:\infinia-library-3.0\com\src\comcore.cpp
; File e:\infinia-library-3.0\com\include\comtlist.h
; File e:\infinia-library-3.0\com\src\comcore.cpp
; File e:\infinia-library-3.0\com\include\comtypes.h
; File e:\infinia-library-3.0\com\include\comtlist.h
; File e:\infinia-library-3.0\com\src\comcore.cpp
; File e:\infinia-library-3.0\com\include\comtlist.h
; File e:\infinia-library-3.0\com\src\comcore.cpp
; File e:\infinia-library-3.0\com\include\comtypes.h
; File e:\infinia-library-3.0\com\include\comtlist.h
; File e:\infinia-library-3.0\com\src\comcore.cpp
; File e:\infinia-library-3.0\com\include\comtlist.h
; File e:\infinia-library-3.0\com\src\comcore.cpp
; File e:\infinia-library-3.0\com\include\comtypes.h
; File e:\infinia-library-3.0\com\include\comtlist.h
; File e:\infinia-library-3.0\com\src\comcore.cpp
; File e:\infinia-library-3.0\com\include\comtypes.h
; File e:\infinia-library-3.0\com\src\comcore.cpp
; File e:\infinia-library-3.0\com\include\comtypes.h
; File e:\infinia-library-3.0\com\src\comcore.cpp
;	COMDAT ?start@CCoreList@@QAE_NXZ
_TEXT	SEGMENT
_curTm$ = -120						; size = 104
__$ArrayPad$ = -16					; size = 4
__$EHRec$ = -12						; size = 12
?start@CCoreList@@QAE_NXZ PROC				; CCoreList::start, COMDAT
; _this$ = ecx

; 917  : {

  00000	55		 push	 ebp
  00001	8b ec		 mov	 ebp, esp
  00003	6a ff		 push	 -1
  00005	68 00 00 00 00	 push	 __ehhandler$?start@CCoreList@@QAE_NXZ
  0000a	64 a1 00 00 00
	00		 mov	 eax, DWORD PTR fs:0
  00010	50		 push	 eax
  00011	83 ec 6c	 sub	 esp, 108		; 0000006cH
  00014	a1 00 00 00 00	 mov	 eax, DWORD PTR ___security_cookie
  00019	33 c5		 xor	 eax, ebp
  0001b	89 45 f0	 mov	 DWORD PTR __$ArrayPad$[ebp], eax
  0001e	53		 push	 ebx
  0001f	56		 push	 esi
  00020	57		 push	 edi
  00021	50		 push	 eax
  00022	8d 45 f4	 lea	 eax, DWORD PTR __$EHRec$[ebp]
  00025	64 a3 00 00 00
	00		 mov	 DWORD PTR fs:0, eax
  0002b	8b f9		 mov	 edi, ecx

; 918  : 	int i, nCount;
; 919  : 	CSTLogger *pWriter;
; 920  : 	CScheduler *pScheduler;
; 921  : 	CComQueueThread *pEventThread;
; 922  : 	CComThread *pComThread;	
; 923  : 
; 924  : 
; 925  : 	CDateTime curTm;

  0002d	6a 00		 push	 0
  0002f	6a 01		 push	 1
  00031	8d 4d 88	 lea	 ecx, DWORD PTR _curTm$[ebp]
  00034	e8 00 00 00 00	 call	 ??0CDateTime@@QAE@W4DT_TYPE@@W4TZ_TYPE@@@Z ; CDateTime::CDateTime

; 926  : 	gs_today_time.date		= _ttoi(curTm.DateString(0));

  00039	6a 00		 push	 0
  0003b	8d 4d 88	 lea	 ecx, DWORD PTR _curTm$[ebp]
  0003e	c7 45 fc 00 00
	00 00		 mov	 DWORD PTR __$EHRec$[ebp+8], 0
  00045	e8 00 00 00 00	 call	 ?DateString@CDateTime@@QAEPBDD@Z ; CDateTime::DateString
  0004a	50		 push	 eax
  0004b	ff 15 00 00 00
	00		 call	 DWORD PTR __imp__atoi
  00051	a3 18 00 00 00	 mov	 DWORD PTR ?gs_today_time@@3USTTodayTime@@A+24, eax
  00056	83 c4 04	 add	 esp, 4

; 927  : 	gs_today_time.year		= curTm.Year();

  00059	8b 45 9c	 mov	 eax, DWORD PTR _curTm$[ebp+20]
  0005c	a3 00 00 00 00	 mov	 DWORD PTR ?gs_today_time@@3USTTodayTime@@A, eax

; 928  : 	gs_today_time.month		= curTm.Month();

  00061	8b 45 98	 mov	 eax, DWORD PTR _curTm$[ebp+16]
  00064	a3 04 00 00 00	 mov	 DWORD PTR ?gs_today_time@@3USTTodayTime@@A+4, eax

; 929  : 	gs_today_time.mday		= curTm.Mday();

  00069	8b 45 94	 mov	 eax, DWORD PTR _curTm$[ebp+12]
  0006c	a3 08 00 00 00	 mov	 DWORD PTR ?gs_today_time@@3USTTodayTime@@A+8, eax

; 930  : 	gs_today_time.hour		= curTm.Hour();

  00071	8b 45 90	 mov	 eax, DWORD PTR _curTm$[ebp+8]
  00074	a3 0c 00 00 00	 mov	 DWORD PTR ?gs_today_time@@3USTTodayTime@@A+12, eax

; 931  : 	gs_today_time.minute	= curTm.Minute();

  00079	8b 45 8c	 mov	 eax, DWORD PTR _curTm$[ebp+4]
  0007c	a3 10 00 00 00	 mov	 DWORD PTR ?gs_today_time@@3USTTodayTime@@A+16, eax

; 932  : 
; 933  : 	// STLogger
; 934  : 	if (m_pWriterList)

  00081	8b 1f		 mov	 ebx, DWORD PTR [edi]
  00083	85 db		 test	 ebx, ebx
  00085	74 2f		 je	 SHORT $LN3@start
; File e:\infinia-library-3.0\com\include\comtlist.h

; 347  : 	inline int  size() { return m_nUse; }

  00087	8b 5b 04	 mov	 ebx, DWORD PTR [ebx+4]
; File e:\infinia-library-3.0\com\src\comcore.cpp

; 937  : 		for (i = 0; i < nCount; i++) {

  0008a	33 f6		 xor	 esi, esi
  0008c	85 db		 test	 ebx, ebx
  0008e	7e 26		 jle	 SHORT $LN3@start
$LL4@start:

; 938  : 			pWriter = m_pWriterList->getObj(i);

  00090	8b 07		 mov	 eax, DWORD PTR [edi]
; File e:\infinia-library-3.0\com\include\comtypes.h

; 322  : inline bool ISINCLUDE(int i, int max) { if (0 <= i && i < max) return true; return false; }

  00092	85 f6		 test	 esi, esi
  00094	78 1b		 js	 SHORT $LN2@start
  00096	3b 70 10	 cmp	 esi, DWORD PTR [eax+16]
  00099	7d 16		 jge	 SHORT $LN2@start
; File e:\infinia-library-3.0\com\include\comtlist.h

; 332  : 	inline T* getObj(int i) { if (ISINCLUDE(i, m_nMax)) return m_pArray[i]; return NULL; }

  0009b	8b 00		 mov	 eax, DWORD PTR [eax]
  0009d	8b 0c b0	 mov	 ecx, DWORD PTR [eax+esi*4]
; File e:\infinia-library-3.0\com\src\comcore.cpp

; 939  : 			if (pWriter) {

  000a0	85 c9		 test	 ecx, ecx
  000a2	74 0d		 je	 SHORT $LN2@start

; 940  : 				if (!pWriter->start()) {

  000a4	e8 00 00 00 00	 call	 ?start@CSTLogger@@QAE_NXZ ; CSTLogger::start
  000a9	84 c0		 test	 al, al
  000ab	0f 84 45 01 00
	00		 je	 $ERROR_STARTPROC$132
$LN2@start:

; 937  : 		for (i = 0; i < nCount; i++) {

  000b1	46		 inc	 esi
  000b2	3b f3		 cmp	 esi, ebx
  000b4	7c da		 jl	 SHORT $LL4@start
$LN3@start:

; 941  : 					goto ERROR_STARTPROC;
; 942  : 				}
; 943  : 			}
; 944  : 		}
; 945  : 	}
; 946  : 
; 947  : 	// CScheduler
; 948  : 	if (m_pSchedulerList)

  000b6	8b 5f 04	 mov	 ebx, DWORD PTR [edi+4]
  000b9	85 db		 test	 ebx, ebx
  000bb	74 4f		 je	 SHORT $LN6@start
; File e:\infinia-library-3.0\com\include\comtlist.h

; 347  : 	inline int  size() { return m_nUse; }

  000bd	8b 5b 04	 mov	 ebx, DWORD PTR [ebx+4]
; File e:\infinia-library-3.0\com\src\comcore.cpp

; 951  : 		for (i = 0; i < nCount; i++) {

  000c0	33 f6		 xor	 esi, esi
  000c2	85 db		 test	 ebx, ebx
  000c4	7e 46		 jle	 SHORT $LN6@start
$LL7@start:

; 952  : 			pScheduler = m_pSchedulerList->getObj(i);

  000c6	8b 47 04	 mov	 eax, DWORD PTR [edi+4]
; File e:\infinia-library-3.0\com\include\comtypes.h

; 322  : inline bool ISINCLUDE(int i, int max) { if (0 <= i && i < max) return true; return false; }

  000c9	85 f6		 test	 esi, esi
  000cb	78 3a		 js	 SHORT $LN5@start
  000cd	3b 70 10	 cmp	 esi, DWORD PTR [eax+16]
  000d0	7d 35		 jge	 SHORT $LN5@start
; File e:\infinia-library-3.0\com\include\comtlist.h

; 332  : 	inline T* getObj(int i) { if (ISINCLUDE(i, m_nMax)) return m_pArray[i]; return NULL; }

  000d2	8b 00		 mov	 eax, DWORD PTR [eax]
  000d4	8b 0c b0	 mov	 ecx, DWORD PTR [eax+esi*4]
; File e:\infinia-library-3.0\com\src\comcore.cpp

; 953  : 			if (pScheduler) {

  000d7	85 c9		 test	 ecx, ecx
  000d9	74 2c		 je	 SHORT $LN5@start

; 345  : 	if (m_cThread.bActive()) return true;

  000db	80 79 1c 00	 cmp	 BYTE PTR [ecx+28], 0
  000df	75 26		 jne	 SHORT $LN5@start

; 346  : 	if (!m_cThread.init(schedulerLoop, this, m_nMillSecHalf)) {

  000e1	8b 41 30	 mov	 eax, DWORD PTR [ecx+48]

; 35   : 	m_stInfo.pClass = pClass;

  000e4	89 49 10	 mov	 DWORD PTR [ecx+16], ecx

; 36   : 	m_stInfo.pObj = pObj;

  000e7	c7 41 14 00 00
	00 00		 mov	 DWORD PTR [ecx+20], 0

; 37   : 	m_stInfo.millisecSleep = millisec;

  000ee	89 41 20	 mov	 DWORD PTR [ecx+32], eax

; 38   : 	m_fpLoopProc = fpProc;

  000f1	c7 01 00 00 00
	00		 mov	 DWORD PTR [ecx], OFFSET ?schedulerLoop@@YAXPAUSTThreadInfo@@@Z ; schedulerLoop

; 39   : 	m_nMillisecSleep = millisec;

  000f7	89 41 24	 mov	 DWORD PTR [ecx+36], eax

; 350  : 	if (!m_cThread.start()) {

  000fa	e8 00 00 00 00	 call	 ?start@CComThread@@QAE_NXZ ; CComThread::start
  000ff	84 c0		 test	 al, al
  00101	0f 84 c4 00 00
	00		 je	 $LN125@start
$LN5@start:

; 951  : 		for (i = 0; i < nCount; i++) {

  00107	46		 inc	 esi
  00108	3b f3		 cmp	 esi, ebx
  0010a	7c ba		 jl	 SHORT $LL7@start
$LN6@start:

; 954  : 				if (!pScheduler->start()) {
; 955  : 					goto ERROR_STARTPROC;
; 956  : 				}
; 957  : 			}
; 958  : 		}
; 959  : 	}
; 960  : 
; 961  : 	// Event
; 962  : 	if (m_pEventThreadList)

  0010c	8b 5f 0c	 mov	 ebx, DWORD PTR [edi+12]
  0010f	85 db		 test	 ebx, ebx
  00111	74 58		 je	 SHORT $LN9@start
; File e:\infinia-library-3.0\com\include\comtlist.h

; 347  : 	inline int  size() { return m_nUse; }

  00113	8b 5b 04	 mov	 ebx, DWORD PTR [ebx+4]
; File e:\infinia-library-3.0\com\src\comcore.cpp

; 965  : 		for (i = 0; i < nCount; i++) {

  00116	33 f6		 xor	 esi, esi
  00118	85 db		 test	 ebx, ebx
  0011a	7e 4f		 jle	 SHORT $LN9@start
  0011c	0f 1f 40 00	 npad	 4
$LL10@start:

; 966  : 			pEventThread = m_pEventThreadList->getObj(i);

  00120	8b 47 0c	 mov	 eax, DWORD PTR [edi+12]
; File e:\infinia-library-3.0\com\include\comtypes.h

; 322  : inline bool ISINCLUDE(int i, int max) { if (0 <= i && i < max) return true; return false; }

  00123	85 f6		 test	 esi, esi
  00125	78 3f		 js	 SHORT $LN8@start
  00127	3b 70 10	 cmp	 esi, DWORD PTR [eax+16]
  0012a	7d 3a		 jge	 SHORT $LN8@start
; File e:\infinia-library-3.0\com\include\comtlist.h

; 332  : 	inline T* getObj(int i) { if (ISINCLUDE(i, m_nMax)) return m_pArray[i]; return NULL; }

  0012c	8b 00		 mov	 eax, DWORD PTR [eax]
  0012e	8b 0c b0	 mov	 ecx, DWORD PTR [eax+esi*4]
; File e:\infinia-library-3.0\com\src\comcore.cpp

; 967  : 			if (pEventThread) {

  00131	85 c9		 test	 ecx, ecx
  00133	74 31		 je	 SHORT $LN8@start

; 431  : 	if (m_cThread.bActive()) return true;

  00135	80 79 1c 00	 cmp	 BYTE PTR [ecx+28], 0
  00139	75 2b		 jne	 SHORT $LN8@start

; 35   : 	m_stInfo.pClass = pClass;

  0013b	89 49 10	 mov	 DWORD PTR [ecx+16], ecx

; 36   : 	m_stInfo.pObj = pObj;

  0013e	c7 41 14 00 00
	00 00		 mov	 DWORD PTR [ecx+20], 0

; 37   : 	m_stInfo.millisecSleep = millisec;

  00145	c7 41 20 ff ff
	ff ff		 mov	 DWORD PTR [ecx+32], -1

; 38   : 	m_fpLoopProc = fpProc;

  0014c	c7 01 00 00 00
	00		 mov	 DWORD PTR [ecx], OFFSET ?eventThreadLoop@@YAXPAUSTThreadInfo@@@Z ; eventThreadLoop

; 39   : 	m_nMillisecSleep = millisec;

  00152	c7 41 24 ff ff
	ff ff		 mov	 DWORD PTR [ecx+36], -1

; 436  : 	if (!m_cThread.start()) {

  00159	e8 00 00 00 00	 call	 ?start@CComThread@@QAE_NXZ ; CComThread::start
  0015e	84 c0		 test	 al, al
  00160	0f 84 9b 00 00
	00		 je	 $LN127@start
$LN8@start:

; 965  : 		for (i = 0; i < nCount; i++) {

  00166	46		 inc	 esi
  00167	3b f3		 cmp	 esi, ebx
  00169	7c b5		 jl	 SHORT $LL10@start
$LN9@start:

; 968  : 				if (!pEventThread->start()) {
; 969  : 					goto ERROR_STARTPROC;
; 970  : 				}
; 971  : 			}
; 972  : 		}
; 973  : 	}
; 974  : 
; 975  : 	// comThread
; 976  : 	if (m_pThreadList)

  0016b	8b 5f 08	 mov	 ebx, DWORD PTR [edi+8]
  0016e	85 db		 test	 ebx, ebx
  00170	74 31		 je	 SHORT $LN129@start
; File e:\infinia-library-3.0\com\include\comtlist.h

; 347  : 	inline int  size() { return m_nUse; }

  00172	8b 5b 04	 mov	 ebx, DWORD PTR [ebx+4]
; File e:\infinia-library-3.0\com\src\comcore.cpp

; 979  : 		for (i = 0; i < nCount; i++) {

  00175	33 f6		 xor	 esi, esi
  00177	85 db		 test	 ebx, ebx
  00179	7e 28		 jle	 SHORT $LN129@start
  0017b	0f 1f 44 00 00	 npad	 5
$LL13@start:

; 980  : 			pComThread = m_pThreadList->getObj(i);

  00180	8b 47 08	 mov	 eax, DWORD PTR [edi+8]
; File e:\infinia-library-3.0\com\include\comtypes.h

; 322  : inline bool ISINCLUDE(int i, int max) { if (0 <= i && i < max) return true; return false; }

  00183	85 f6		 test	 esi, esi
  00185	78 17		 js	 SHORT $LN11@start
  00187	3b 70 10	 cmp	 esi, DWORD PTR [eax+16]
  0018a	7d 12		 jge	 SHORT $LN11@start
; File e:\infinia-library-3.0\com\include\comtlist.h

; 332  : 	inline T* getObj(int i) { if (ISINCLUDE(i, m_nMax)) return m_pArray[i]; return NULL; }

  0018c	8b 00		 mov	 eax, DWORD PTR [eax]
  0018e	8b 0c b0	 mov	 ecx, DWORD PTR [eax+esi*4]
; File e:\infinia-library-3.0\com\src\comcore.cpp

; 981  : 			if (pComThread) {

  00191	85 c9		 test	 ecx, ecx
  00193	74 09		 je	 SHORT $LN11@start

; 982  : 				if (!pComThread->start()) {

  00195	e8 00 00 00 00	 call	 ?start@CComThread@@QAE_NXZ ; CComThread::start
  0019a	84 c0		 test	 al, al
  0019c	74 58		 je	 SHORT $ERROR_STARTPROC$132
$LN11@start:

; 979  : 		for (i = 0; i < nCount; i++) {

  0019e	46		 inc	 esi
  0019f	3b f3		 cmp	 esi, ebx
  001a1	7c dd		 jl	 SHORT $LL13@start
$LN129@start:
  001a3	b3 01		 mov	 bl, 1
$LN32@start:

; 992  : 	return false;

  001a5	8d 4d 88	 lea	 ecx, DWORD PTR _curTm$[ebp]
  001a8	e8 00 00 00 00	 call	 ??1CDateTime@@QAE@XZ	; CDateTime::~CDateTime
  001ad	8a c3		 mov	 al, bl

; 993  : }

  001af	8b 4d f4	 mov	 ecx, DWORD PTR __$EHRec$[ebp]
  001b2	64 89 0d 00 00
	00 00		 mov	 DWORD PTR fs:0, ecx
  001b9	59		 pop	 ecx
  001ba	5f		 pop	 edi
  001bb	5e		 pop	 esi
  001bc	5b		 pop	 ebx
  001bd	8b 4d f0	 mov	 ecx, DWORD PTR __$ArrayPad$[ebp]
  001c0	33 cd		 xor	 ecx, ebp
  001c2	e8 00 00 00 00	 call	 @__security_check_cookie@4
  001c7	8b e5		 mov	 esp, ebp
  001c9	5d		 pop	 ebp
  001ca	c3		 ret	 0
$LN125@start:
; File e:\infinia-library-3.0\com\include\comtypes.h

; 325  : 	sprintf(g_szSystemError, "ERROR! [%s:%d] %s\n", _szFunc, _nLine, pMsg);

  001cb	68 00 00 00 00	 push	 OFFSET ??_C@_0BA@OBGMEFJD@m_cThread?4start?$AA@
  001d0	68 5f 01 00 00	 push	 351			; 0000015fH
  001d5	68 00 00 00 00	 push	 OFFSET ??_C@_0BC@IDJCBBDP@CScheduler?3?3start?$AA@
$LN131@start:
  001da	68 00 00 00 00	 push	 OFFSET ??_C@_0BD@KEHDJCKJ@ERROR?$CB?5?$FL?$CFs?3?$CFd?$FN?5?$CFs?6?$AA@
  001df	68 00 00 00 00	 push	 OFFSET ?g_szSystemError@@3PADA ; g_szSystemError
  001e4	e8 00 00 00 00	 call	 _sprintf

; 326  : 	printf(g_szSystemError);

  001e9	68 00 00 00 00	 push	 OFFSET ?g_szSystemError@@3PADA ; g_szSystemError
  001ee	e8 00 00 00 00	 call	 _printf
  001f3	83 c4 18	 add	 esp, 24			; 00000018H
$ERROR_STARTPROC$132:
; File e:\infinia-library-3.0\com\src\comcore.cpp

; 991  : 	destroy();

  001f6	8b cf		 mov	 ecx, edi
  001f8	e8 00 00 00 00	 call	 ?destroy@CCoreList@@QAEXXZ ; CCoreList::destroy

; 992  : 	return false;

  001fd	32 db		 xor	 bl, bl
  001ff	eb a4		 jmp	 SHORT $LN32@start
$LN127@start:
; File e:\infinia-library-3.0\com\include\comtypes.h

; 325  : 	sprintf(g_szSystemError, "ERROR! [%s:%d] %s\n", _szFunc, _nLine, pMsg);

  00201	68 00 00 00 00	 push	 OFFSET ??_C@_0BA@OBGMEFJD@m_cThread?4start?$AA@
  00206	68 b5 01 00 00	 push	 437			; 000001b5H
  0020b	68 00 00 00 00	 push	 OFFSET ??_C@_0BH@PGJBCDJH@CComQueueThread?3?3start?$AA@
; File e:\infinia-library-3.0\com\src\comcore.cpp

; 438  : 		return false;

  00210	eb c8		 jmp	 SHORT $LN131@start
_TEXT	ENDS
;	COMDAT text$x
text$x	SEGMENT
__unwindfunclet$?start@CCoreList@@QAE_NXZ$4:
  00000	8d 4d 88	 lea	 ecx, DWORD PTR _curTm$[ebp]
  00003	e9 00 00 00 00	 jmp	 ??1CDateTime@@QAE@XZ	; CDateTime::~CDateTime
__ehhandler$?start@CCoreList@@QAE_NXZ:
  00008	8b 54 24 08	 mov	 edx, DWORD PTR [esp+8]
  0000c	8d 42 0c	 lea	 eax, DWORD PTR [edx+12]
  0000f	8b 4a 84	 mov	 ecx, DWORD PTR [edx-124]
  00012	33 c8		 xor	 ecx, eax
  00014	e8 00 00 00 00	 call	 @__security_check_cookie@4
  00019	8b 4a fc	 mov	 ecx, DWORD PTR [edx-4]
  0001c	33 c8		 xor	 ecx, eax
  0001e	e8 00 00 00 00	 call	 @__security_check_cookie@4
  00023	b8 00 00 00 00	 mov	 eax, OFFSET __ehfuncinfo$?start@CCoreList@@QAE_NXZ
  00028	e9 00 00 00 00	 jmp	 ___CxxFrameHandler3
text$x	ENDS
?start@CCoreList@@QAE_NXZ ENDP				; CCoreList::start
; Function compile flags: /Ogtp
; File e:\infinia-library-3.0\com\src\comcore.cpp
; File e:\infinia-library-3.0\com\include\comlogger.h
; File e:\infinia-library-3.0\com\include\comtypes.h
; File e:\infinia-library-3.0\com\include\comtlist.h
; File e:\infinia-library-3.0\com\src\comcore.cpp
; File e:\infinia-library-3.0\com\include\combufpool.h
; File e:\infinia-library-3.0\com\include\comlogger.h
; File e:\infinia-library-3.0\com\include\combufpool.h
; File e:\infinia-library-3.0\com\src\comcore.cpp
; File e:\infinia-library-3.0\com\include\commemmanager.h
; File e:\infinia-library-3.0\com\include\combufpool.h
; File e:\infinia-library-3.0\com\include\commemmanager.h
; File e:\infinia-library-3.0\com\include\comcore.h
; File e:\infinia-library-3.0\com\src\comcore.cpp
; File e:\infinia-library-3.0\com\include\comcore.h
; File e:\infinia-library-3.0\com\src\comcore.cpp
; File e:\infinia-library-3.0\com\include\comtypes.h
; File e:\infinia-library-3.0\com\src\comcore.cpp
;	COMDAT ?setLoggerDisable@CCoreList@@QAE_NPAVCLogger@@@Z
_TEXT	SEGMENT
_$S1$1 = -8						; size = 8
_pLogger$ = 8						; size = 4
?setLoggerDisable@CCoreList@@QAE_NPAVCLogger@@@Z PROC	; CCoreList::setLoggerDisable, COMDAT
; _this$ = ecx

; 899  : {

  00000	55		 push	 ebp
  00001	8b ec		 mov	 ebp, esp

; 900  : 	CSTLogger *pWriter = m_pWriterList->getObj(pLogger->getSTLNo());

  00003	8b 01		 mov	 eax, DWORD PTR [ecx]
  00005	83 ec 08	 sub	 esp, 8
  00008	56		 push	 esi
  00009	57		 push	 edi
; File e:\infinia-library-3.0\com\include\comlogger.h

; 182  : 	inline int getSTLNo() {	return m_nStlNo; }

  0000a	8b 7d 08	 mov	 edi, DWORD PTR _pLogger$[ebp]
  0000d	8b 57 7c	 mov	 edx, DWORD PTR [edi+124]
; File e:\infinia-library-3.0\com\include\comtypes.h

; 322  : inline bool ISINCLUDE(int i, int max) { if (0 <= i && i < max) return true; return false; }

  00010	85 d2		 test	 edx, edx
  00012	78 7b		 js	 SHORT $LN28@setLoggerD
  00014	3b 50 10	 cmp	 edx, DWORD PTR [eax+16]
  00017	7d 76		 jge	 SHORT $LN28@setLoggerD
; File e:\infinia-library-3.0\com\include\comtlist.h

; 332  : 	inline T* getObj(int i) { if (ISINCLUDE(i, m_nMax)) return m_pArray[i]; return NULL; }

  00019	8b 00		 mov	 eax, DWORD PTR [eax]
  0001b	8b 34 90	 mov	 esi, DWORD PTR [eax+edx*4]
; File e:\infinia-library-3.0\com\src\comcore.cpp

; 901  : 	if (!pWriter) {

  0001e	85 f6		 test	 esi, esi
  00020	74 6d		 je	 SHORT $LN28@setLoggerD
; File e:\infinia-library-3.0\com\include\combufpool.h

; 51   : inline int getIndex(int s) { int m; union { double x; int b[2]; }; x = s; m = (b[1] >> 20) - 1023; return m + ((s&(s - (1 << m))) ? 1 : 0); }

  00022	f2 0f 10 05 00
	00 00 00	 movsd	 xmm0, QWORD PTR __real@4020000000000000
  0002a	b8 01 00 00 00	 mov	 eax, 1
; File e:\infinia-library-3.0\com\include\comlogger.h

; 184  : 	inline void clearLogFlag(E_LOG_FLAG nFlag) { m_nLogFlag &= ~nFlag; }

  0002f	81 67 74 ff ff
	f7 ff		 and	 DWORD PTR [edi+116], -524289 ; fff7ffffH
; File e:\infinia-library-3.0\com\include\combufpool.h

; 51   : inline int getIndex(int s) { int m; union { double x; int b[2]; }; x = s; m = (b[1] >> 20) - 1023; return m + ((s&(s - (1 << m))) ? 1 : 0); }

  00036	ba f8 ff ff ff	 mov	 edx, -8			; fffffff8H
  0003b	f2 0f 11 45 f8	 movsd	 QWORD PTR _$S1$1[ebp], xmm0
  00040	8b 4d fc	 mov	 ecx, DWORD PTR _$S1$1[ebp+4]
  00043	c1 f9 14	 sar	 ecx, 20			; 00000014H
  00046	81 e9 ff 03 00
	00		 sub	 ecx, 1023		; 000003ffH
  0004c	d3 e0		 shl	 eax, cl
  0004e	2b d0		 sub	 edx, eax
; File e:\infinia-library-3.0\com\src\comcore.cpp

; 907  : 	STLCommand *pBuf = (STLCommand *)gs_pMMgr->newBuf(sizeof(STLCommand));

  00050	c1 ea 03	 shr	 edx, 3
; File e:\infinia-library-3.0\com\include\commemmanager.h

; 34   : 	inline char *newBuf(int nSize) { int nIdx = getIndex(nSize);  return __newBuf(nIdx, nSize); }

  00053	83 e2 01	 and	 edx, 1
; File e:\infinia-library-3.0\com\include\combufpool.h

; 51   : inline int getIndex(int s) { int m; union { double x; int b[2]; }; x = s; m = (b[1] >> 20) - 1023; return m + ((s&(s - (1 << m))) ? 1 : 0); }

  00056	03 d1		 add	 edx, ecx
; File e:\infinia-library-3.0\com\include\commemmanager.h

; 34   : 	inline char *newBuf(int nSize) { int nIdx = getIndex(nSize);  return __newBuf(nIdx, nSize); }

  00058	8b 0d 00 00 00
	00		 mov	 ecx, DWORD PTR ?gs_pMMgr@@3PAVCMemManager@@A ; gs_pMMgr
  0005e	6a 08		 push	 8
  00060	52		 push	 edx
  00061	e8 00 00 00 00	 call	 ?__newBuf@CMemManager@@AAEPADHI@Z ; CMemManager::__newBuf
; File e:\infinia-library-3.0\com\include\comcore.h

; 119  : 	inline bool pushCommand(STLCommand *p) {if(m_pComandList->push(p)) { m_cThread.sendSignal(); return true; } return false;}

  00066	50		 push	 eax
; File e:\infinia-library-3.0\com\src\comcore.cpp

; 908  : 	pBuf->nCommandCode = eLCode_DISABLE;

  00067	c7 00 02 00 00
	00		 mov	 DWORD PTR [eax], 2

; 909  : 	pBuf->p = pLogger;

  0006d	89 78 04	 mov	 DWORD PTR [eax+4], edi
; File e:\infinia-library-3.0\com\include\comcore.h

; 119  : 	inline bool pushCommand(STLCommand *p) {if(m_pComandList->push(p)) { m_cThread.sendSignal(); return true; } return false;}

  00070	8b 4e 2c	 mov	 ecx, DWORD PTR [esi+44]
  00073	e8 00 00 00 00	 call	 ?push@CQueueS@@QAE_NPAX@Z ; CQueueS::push
  00078	84 c0		 test	 al, al
  0007a	74 09		 je	 SHORT $LN23@setLoggerD

; 92   : 	inline void sendSignal() { m_stInfo.cThreadCond.signal(); }

  0007c	8b 46 08	 mov	 eax, DWORD PTR [esi+8]
  0007f	8d 4e 08	 lea	 ecx, DWORD PTR [esi+8]
  00082	ff 50 04	 call	 DWORD PTR [eax+4]
$LN23@setLoggerD:
  00085	5f		 pop	 edi
; File e:\infinia-library-3.0\com\src\comcore.cpp

; 911  : 	return true;

  00086	b0 01		 mov	 al, 1
  00088	5e		 pop	 esi

; 912  : }

  00089	8b e5		 mov	 esp, ebp
  0008b	5d		 pop	 ebp
  0008c	c2 04 00	 ret	 4
$LN28@setLoggerD:

; 902  : 		_stprintf(g_szMessage, _T("pWriter is NULL! pLogger[nSTLNo:%d]"), pLogger->getSTLNo());

  0008f	52		 push	 edx
  00090	68 00 00 00 00	 push	 OFFSET ??_C@_0CE@PKNKGKGA@pWriter?5is?5NULL?$CB?5pLogger?$FLnSTLNo?3@
  00095	68 00 00 00 00	 push	 OFFSET ?g_szMessage@@3PADA ; g_szMessage
  0009a	e8 00 00 00 00	 call	 _sprintf
; File e:\infinia-library-3.0\com\include\comtypes.h

; 325  : 	sprintf(g_szSystemError, "ERROR! [%s:%d] %s\n", _szFunc, _nLine, pMsg);

  0009f	68 00 00 00 00	 push	 OFFSET ?g_szMessage@@3PADA ; g_szMessage
  000a4	68 87 03 00 00	 push	 903			; 00000387H
  000a9	68 00 00 00 00	 push	 OFFSET ??_C@_0BM@CGPJEBN@CCoreList?3?3setLoggerDisable?$AA@
  000ae	68 00 00 00 00	 push	 OFFSET ??_C@_0BD@KEHDJCKJ@ERROR?$CB?5?$FL?$CFs?3?$CFd?$FN?5?$CFs?6?$AA@
  000b3	68 00 00 00 00	 push	 OFFSET ?g_szSystemError@@3PADA ; g_szSystemError
  000b8	e8 00 00 00 00	 call	 _sprintf

; 326  : 	printf(g_szSystemError);

  000bd	68 00 00 00 00	 push	 OFFSET ?g_szSystemError@@3PADA ; g_szSystemError
  000c2	e8 00 00 00 00	 call	 _printf
  000c7	83 c4 24	 add	 esp, 36			; 00000024H
; File e:\infinia-library-3.0\com\src\comcore.cpp

; 904  : 		return false;

  000ca	32 c0		 xor	 al, al
  000cc	5f		 pop	 edi
  000cd	5e		 pop	 esi

; 912  : }

  000ce	8b e5		 mov	 esp, ebp
  000d0	5d		 pop	 ebp
  000d1	c2 04 00	 ret	 4
?setLoggerDisable@CCoreList@@QAE_NPAVCLogger@@@Z ENDP	; CCoreList::setLoggerDisable
_TEXT	ENDS
; Function compile flags: /Ogtp
; File e:\infinia-library-3.0\com\src\comcore.cpp
; File e:\infinia-library-3.0\com\include\comlogger.h
; File e:\infinia-library-3.0\com\include\comtypes.h
; File e:\infinia-library-3.0\com\include\comtlist.h
; File e:\infinia-library-3.0\com\src\comcore.cpp
; File e:\infinia-library-3.0\com\include\combufpool.h
; File e:\infinia-library-3.0\com\include\comlogger.h
; File e:\infinia-library-3.0\com\include\combufpool.h
; File e:\infinia-library-3.0\com\src\comcore.cpp
; File e:\infinia-library-3.0\com\include\commemmanager.h
; File e:\infinia-library-3.0\com\include\combufpool.h
; File e:\infinia-library-3.0\com\include\commemmanager.h
; File e:\infinia-library-3.0\com\include\comcore.h
; File e:\infinia-library-3.0\com\src\comcore.cpp
; File e:\infinia-library-3.0\com\include\comcore.h
; File e:\infinia-library-3.0\com\src\comcore.cpp
; File e:\infinia-library-3.0\com\include\comtypes.h
; File e:\infinia-library-3.0\com\src\comcore.cpp
;	COMDAT ?setLoggerEnable@CCoreList@@QAE_NPAVCLogger@@@Z
_TEXT	SEGMENT
_$S1$1 = -8						; size = 8
_pLogger$ = 8						; size = 4
?setLoggerEnable@CCoreList@@QAE_NPAVCLogger@@@Z PROC	; CCoreList::setLoggerEnable, COMDAT
; _this$ = ecx

; 883  : {

  00000	55		 push	 ebp
  00001	8b ec		 mov	 ebp, esp

; 884  : 	CSTLogger *pWriter = m_pWriterList->getObj(pLogger->getSTLNo());

  00003	8b 01		 mov	 eax, DWORD PTR [ecx]
  00005	83 ec 08	 sub	 esp, 8
  00008	56		 push	 esi
  00009	57		 push	 edi
; File e:\infinia-library-3.0\com\include\comlogger.h

; 182  : 	inline int getSTLNo() {	return m_nStlNo; }

  0000a	8b 7d 08	 mov	 edi, DWORD PTR _pLogger$[ebp]
  0000d	8b 57 7c	 mov	 edx, DWORD PTR [edi+124]
; File e:\infinia-library-3.0\com\include\comtypes.h

; 322  : inline bool ISINCLUDE(int i, int max) { if (0 <= i && i < max) return true; return false; }

  00010	85 d2		 test	 edx, edx
  00012	78 7b		 js	 SHORT $LN28@setLoggerE
  00014	3b 50 10	 cmp	 edx, DWORD PTR [eax+16]
  00017	7d 76		 jge	 SHORT $LN28@setLoggerE
; File e:\infinia-library-3.0\com\include\comtlist.h

; 332  : 	inline T* getObj(int i) { if (ISINCLUDE(i, m_nMax)) return m_pArray[i]; return NULL; }

  00019	8b 00		 mov	 eax, DWORD PTR [eax]
  0001b	8b 34 90	 mov	 esi, DWORD PTR [eax+edx*4]
; File e:\infinia-library-3.0\com\src\comcore.cpp

; 885  : 	if (!pWriter) {

  0001e	85 f6		 test	 esi, esi
  00020	74 6d		 je	 SHORT $LN28@setLoggerE
; File e:\infinia-library-3.0\com\include\combufpool.h

; 51   : inline int getIndex(int s) { int m; union { double x; int b[2]; }; x = s; m = (b[1] >> 20) - 1023; return m + ((s&(s - (1 << m))) ? 1 : 0); }

  00022	f2 0f 10 05 00
	00 00 00	 movsd	 xmm0, QWORD PTR __real@4020000000000000
  0002a	b8 01 00 00 00	 mov	 eax, 1
; File e:\infinia-library-3.0\com\include\comlogger.h

; 183  : 	inline void setLogFlag(E_LOG_FLAG nFlag) { m_nLogFlag |= nFlag; }

  0002f	81 4f 74 00 00
	08 00		 or	 DWORD PTR [edi+116], 524288 ; 00080000H
; File e:\infinia-library-3.0\com\include\combufpool.h

; 51   : inline int getIndex(int s) { int m; union { double x; int b[2]; }; x = s; m = (b[1] >> 20) - 1023; return m + ((s&(s - (1 << m))) ? 1 : 0); }

  00036	ba f8 ff ff ff	 mov	 edx, -8			; fffffff8H
  0003b	f2 0f 11 45 f8	 movsd	 QWORD PTR _$S1$1[ebp], xmm0
  00040	8b 4d fc	 mov	 ecx, DWORD PTR _$S1$1[ebp+4]
  00043	c1 f9 14	 sar	 ecx, 20			; 00000014H
  00046	81 e9 ff 03 00
	00		 sub	 ecx, 1023		; 000003ffH
  0004c	d3 e0		 shl	 eax, cl
  0004e	2b d0		 sub	 edx, eax
; File e:\infinia-library-3.0\com\src\comcore.cpp

; 891  : 	STLCommand *pBuf = (STLCommand *)gs_pMMgr->newBuf(sizeof(STLCommand));

  00050	c1 ea 03	 shr	 edx, 3
; File e:\infinia-library-3.0\com\include\commemmanager.h

; 34   : 	inline char *newBuf(int nSize) { int nIdx = getIndex(nSize);  return __newBuf(nIdx, nSize); }

  00053	83 e2 01	 and	 edx, 1
; File e:\infinia-library-3.0\com\include\combufpool.h

; 51   : inline int getIndex(int s) { int m; union { double x; int b[2]; }; x = s; m = (b[1] >> 20) - 1023; return m + ((s&(s - (1 << m))) ? 1 : 0); }

  00056	03 d1		 add	 edx, ecx
; File e:\infinia-library-3.0\com\include\commemmanager.h

; 34   : 	inline char *newBuf(int nSize) { int nIdx = getIndex(nSize);  return __newBuf(nIdx, nSize); }

  00058	8b 0d 00 00 00
	00		 mov	 ecx, DWORD PTR ?gs_pMMgr@@3PAVCMemManager@@A ; gs_pMMgr
  0005e	6a 08		 push	 8
  00060	52		 push	 edx
  00061	e8 00 00 00 00	 call	 ?__newBuf@CMemManager@@AAEPADHI@Z ; CMemManager::__newBuf
; File e:\infinia-library-3.0\com\include\comcore.h

; 119  : 	inline bool pushCommand(STLCommand *p) {if(m_pComandList->push(p)) { m_cThread.sendSignal(); return true; } return false;}

  00066	50		 push	 eax
; File e:\infinia-library-3.0\com\src\comcore.cpp

; 892  : 	pBuf->nCommandCode = eLCode_ENABLE;

  00067	c7 00 01 00 00
	00		 mov	 DWORD PTR [eax], 1

; 893  : 	pBuf->p = pLogger;

  0006d	89 78 04	 mov	 DWORD PTR [eax+4], edi
; File e:\infinia-library-3.0\com\include\comcore.h

; 119  : 	inline bool pushCommand(STLCommand *p) {if(m_pComandList->push(p)) { m_cThread.sendSignal(); return true; } return false;}

  00070	8b 4e 2c	 mov	 ecx, DWORD PTR [esi+44]
  00073	e8 00 00 00 00	 call	 ?push@CQueueS@@QAE_NPAX@Z ; CQueueS::push
  00078	84 c0		 test	 al, al
  0007a	74 09		 je	 SHORT $LN23@setLoggerE

; 92   : 	inline void sendSignal() { m_stInfo.cThreadCond.signal(); }

  0007c	8b 46 08	 mov	 eax, DWORD PTR [esi+8]
  0007f	8d 4e 08	 lea	 ecx, DWORD PTR [esi+8]
  00082	ff 50 04	 call	 DWORD PTR [eax+4]
$LN23@setLoggerE:
  00085	5f		 pop	 edi
; File e:\infinia-library-3.0\com\src\comcore.cpp

; 895  : 	return true;

  00086	b0 01		 mov	 al, 1
  00088	5e		 pop	 esi

; 896  : }

  00089	8b e5		 mov	 esp, ebp
  0008b	5d		 pop	 ebp
  0008c	c2 04 00	 ret	 4
$LN28@setLoggerE:

; 886  : 		_stprintf(g_szMessage, _T("pWriter is NULL! pLogger[nSTLNo:%d]"), pLogger->getSTLNo());

  0008f	52		 push	 edx
  00090	68 00 00 00 00	 push	 OFFSET ??_C@_0CE@PKNKGKGA@pWriter?5is?5NULL?$CB?5pLogger?$FLnSTLNo?3@
  00095	68 00 00 00 00	 push	 OFFSET ?g_szMessage@@3PADA ; g_szMessage
  0009a	e8 00 00 00 00	 call	 _sprintf
; File e:\infinia-library-3.0\com\include\comtypes.h

; 325  : 	sprintf(g_szSystemError, "ERROR! [%s:%d] %s\n", _szFunc, _nLine, pMsg);

  0009f	68 00 00 00 00	 push	 OFFSET ?g_szMessage@@3PADA ; g_szMessage
  000a4	68 77 03 00 00	 push	 887			; 00000377H
  000a9	68 00 00 00 00	 push	 OFFSET ??_C@_0BL@FHGEEEFH@CCoreList?3?3setLoggerEnable?$AA@
  000ae	68 00 00 00 00	 push	 OFFSET ??_C@_0BD@KEHDJCKJ@ERROR?$CB?5?$FL?$CFs?3?$CFd?$FN?5?$CFs?6?$AA@
  000b3	68 00 00 00 00	 push	 OFFSET ?g_szSystemError@@3PADA ; g_szSystemError
  000b8	e8 00 00 00 00	 call	 _sprintf

; 326  : 	printf(g_szSystemError);

  000bd	68 00 00 00 00	 push	 OFFSET ?g_szSystemError@@3PADA ; g_szSystemError
  000c2	e8 00 00 00 00	 call	 _printf
  000c7	83 c4 24	 add	 esp, 36			; 00000024H
; File e:\infinia-library-3.0\com\src\comcore.cpp

; 888  : 		return false;

  000ca	32 c0		 xor	 al, al
  000cc	5f		 pop	 edi
  000cd	5e		 pop	 esi

; 896  : }

  000ce	8b e5		 mov	 esp, ebp
  000d0	5d		 pop	 ebp
  000d1	c2 04 00	 ret	 4
?setLoggerEnable@CCoreList@@QAE_NPAVCLogger@@@Z ENDP	; CCoreList::setLoggerEnable
_TEXT	ENDS
; Function compile flags: /Ogtp
; File e:\infinia-library-3.0\com\src\comcore.cpp
; File e:\infinia-library-3.0\com\include\comtypes.h
; File e:\infinia-library-3.0\com\src\comcore.cpp
; File e:\infinia-library-3.0\com\include\comlogger.h
; File e:\infinia-library-3.0\com\src\comcore.cpp
; File e:\infinia-library-3.0\com\include\comtypes.h
; File e:\infinia-library-3.0\com\include\comtlist.h
; File e:\infinia-library-3.0\com\src\comcore.cpp
; File e:\infinia-library-3.0\com\include\comtypes.h
; File e:\infinia-library-3.0\com\src\comcore.cpp
;	COMDAT ?initLogger@CCoreList@@QAE_NPAVCLogger@@@Z
_TEXT	SEGMENT
_pLogger$ = 8						; size = 4
?initLogger@CCoreList@@QAE_NPAVCLogger@@@Z PROC		; CCoreList::initLogger, COMDAT
; _this$ = ecx

; 863  : {

  00000	55		 push	 ebp
  00001	8b ec		 mov	 ebp, esp
  00003	56		 push	 esi

; 864  : 	if (!pLogger) {

  00004	8b 75 08	 mov	 esi, DWORD PTR _pLogger$[ebp]
  00007	85 f6		 test	 esi, esi
  00009	75 32		 jne	 SHORT $LN2@initLogger
; File e:\infinia-library-3.0\com\include\comtypes.h

; 325  : 	sprintf(g_szSystemError, "ERROR! [%s:%d] %s\n", _szFunc, _nLine, pMsg);

  0000b	68 00 00 00 00	 push	 OFFSET ?g_szMessage@@3PADA ; g_szMessage
  00010	68 61 03 00 00	 push	 865			; 00000361H
  00015	68 00 00 00 00	 push	 OFFSET ??_C@_0BG@OEODDGOM@CCoreList?3?3initLogger?$AA@
  0001a	68 00 00 00 00	 push	 OFFSET ??_C@_0BD@KEHDJCKJ@ERROR?$CB?5?$FL?$CFs?3?$CFd?$FN?5?$CFs?6?$AA@
  0001f	68 00 00 00 00	 push	 OFFSET ?g_szSystemError@@3PADA ; g_szSystemError
  00024	e8 00 00 00 00	 call	 _sprintf

; 326  : 	printf(g_szSystemError);

  00029	68 00 00 00 00	 push	 OFFSET ?g_szSystemError@@3PADA ; g_szSystemError
  0002e	e8 00 00 00 00	 call	 _printf
  00033	83 c4 18	 add	 esp, 24			; 00000018H
; File e:\infinia-library-3.0\com\src\comcore.cpp

; 873  : 		return false;

  00036	32 c0		 xor	 al, al
  00038	5e		 pop	 esi

; 879  : }

  00039	5d		 pop	 ebp
  0003a	c2 04 00	 ret	 4
$LN2@initLogger:
; File e:\infinia-library-3.0\com\include\comlogger.h

; 182  : 	inline int getSTLNo() {	return m_nStlNo; }

  0003d	8b 56 7c	 mov	 edx, DWORD PTR [esi+124]
; File e:\infinia-library-3.0\com\src\comcore.cpp

; 869  : 	CSTLogger *pWriter = m_pWriterList->getObj(pLogger->getSTLNo());

  00040	8b 01		 mov	 eax, DWORD PTR [ecx]
; File e:\infinia-library-3.0\com\include\comtypes.h

; 322  : inline bool ISINCLUDE(int i, int max) { if (0 <= i && i < max) return true; return false; }

  00042	85 d2		 test	 edx, edx
  00044	78 1b		 js	 SHORT $LN20@initLogger
  00046	3b 50 10	 cmp	 edx, DWORD PTR [eax+16]
  00049	7d 16		 jge	 SHORT $LN20@initLogger
; File e:\infinia-library-3.0\com\include\comtlist.h

; 332  : 	inline T* getObj(int i) { if (ISINCLUDE(i, m_nMax)) return m_pArray[i]; return NULL; }

  0004b	8b 00		 mov	 eax, DWORD PTR [eax]
  0004d	8b 0c 90	 mov	 ecx, DWORD PTR [eax+edx*4]
; File e:\infinia-library-3.0\com\src\comcore.cpp

; 870  : 	if (!pWriter) {

  00050	85 c9		 test	 ecx, ecx
  00052	74 0d		 je	 SHORT $LN20@initLogger

; 874  : 	}
; 875  : 
; 876  : 	pWriter->procLoggerEnable(pLogger);

  00054	56		 push	 esi
  00055	e8 00 00 00 00	 call	 ?procLoggerEnable@CSTLogger@@QAEXPAVCLogger@@@Z ; CSTLogger::procLoggerEnable

; 877  : 
; 878  : 	return true;

  0005a	b0 01		 mov	 al, 1
  0005c	5e		 pop	 esi

; 879  : }

  0005d	5d		 pop	 ebp
  0005e	c2 04 00	 ret	 4
$LN20@initLogger:

; 871  : 		_stprintf(g_szMessage, _T("pWriter is NULL!!![nSTLNo:%d]\n"), pLogger->getSTLNo());

  00061	52		 push	 edx
  00062	68 00 00 00 00	 push	 OFFSET ??_C@_0BP@CCFKGOFH@pWriter?5is?5NULL?$CB?$CB?$CB?$FLnSTLNo?3?$CFd?$FN?6?$AA@
  00067	68 00 00 00 00	 push	 OFFSET ?g_szMessage@@3PADA ; g_szMessage
  0006c	e8 00 00 00 00	 call	 _sprintf
; File e:\infinia-library-3.0\com\include\comtypes.h

; 325  : 	sprintf(g_szSystemError, "ERROR! [%s:%d] %s\n", _szFunc, _nLine, pMsg);

  00071	68 00 00 00 00	 push	 OFFSET ?g_szMessage@@3PADA ; g_szMessage
  00076	68 68 03 00 00	 push	 872			; 00000368H
  0007b	68 00 00 00 00	 push	 OFFSET ??_C@_0BG@OEODDGOM@CCoreList?3?3initLogger?$AA@
  00080	68 00 00 00 00	 push	 OFFSET ??_C@_0BD@KEHDJCKJ@ERROR?$CB?5?$FL?$CFs?3?$CFd?$FN?5?$CFs?6?$AA@
  00085	68 00 00 00 00	 push	 OFFSET ?g_szSystemError@@3PADA ; g_szSystemError
  0008a	e8 00 00 00 00	 call	 _sprintf

; 326  : 	printf(g_szSystemError);

  0008f	68 00 00 00 00	 push	 OFFSET ?g_szSystemError@@3PADA ; g_szSystemError
  00094	e8 00 00 00 00	 call	 _printf
  00099	83 c4 24	 add	 esp, 36			; 00000024H
; File e:\infinia-library-3.0\com\src\comcore.cpp

; 873  : 		return false;

  0009c	32 c0		 xor	 al, al
  0009e	5e		 pop	 esi

; 879  : }

  0009f	5d		 pop	 ebp
  000a0	c2 04 00	 ret	 4
?initLogger@CCoreList@@QAE_NPAVCLogger@@@Z ENDP		; CCoreList::initLogger
_TEXT	ENDS
; Function compile flags: /Ogtp
; File e:\infinia-library-3.0\com\src\comcore.cpp
; File e:\infinia-library-3.0\com\include\comtypes.h
; File e:\infinia-library-3.0\com\src\comcore.cpp
; File e:\infinia-library-3.0\com\include\comtypes.h
; File e:\infinia-library-3.0\com\src\comcore.cpp
; File e:\infinia-library-3.0\com\include\comlogger.h
; File e:\infinia-library-3.0\com\src\comcore.cpp
; File e:\infinia-library-3.0\com\include\comtypes.h
; File e:\infinia-library-3.0\com\include\comtlist.h
; File e:\infinia-library-3.0\com\src\comcore.cpp
;	COMDAT ?initLogger@CCoreList@@QAE_NPAVCLogger@@PAD1@Z
_TEXT	SEGMENT
_this$1$ = -4						; size = 4
_pLogger$ = 8						; size = 4
_pConfig$ = 12						; size = 4
_pSection$ = 16						; size = 4
?initLogger@CCoreList@@QAE_NPAVCLogger@@PAD1@Z PROC	; CCoreList::initLogger, COMDAT
; _this$ = ecx

; 829  : {

  00000	55		 push	 ebp
  00001	8b ec		 mov	 ebp, esp
  00003	51		 push	 ecx
  00004	56		 push	 esi

; 830  : 	E_LOG_INIT_RES eRes;
; 831  : 	if (!pLogger) {

  00005	8b 75 08	 mov	 esi, DWORD PTR _pLogger$[ebp]
  00008	89 4d fc	 mov	 DWORD PTR _this$1$[ebp], ecx
  0000b	85 f6		 test	 esi, esi
  0000d	75 49		 jne	 SHORT $LN4@initLogger

; 832  : 		_stprintf(g_szMessage, _T("pLogger is NULL! [%s:%s]"), pConfig, pSection);

  0000f	ff 75 10	 push	 DWORD PTR _pSection$[ebp]
  00012	ff 75 0c	 push	 DWORD PTR _pConfig$[ebp]
  00015	68 00 00 00 00	 push	 OFFSET ??_C@_0BJ@NFOCBANB@pLogger?5is?5NULL?$CB?5?$FL?$CFs?3?$CFs?$FN?$AA@
  0001a	68 00 00 00 00	 push	 OFFSET ?g_szMessage@@3PADA ; g_szMessage
  0001f	e8 00 00 00 00	 call	 _sprintf
; File e:\infinia-library-3.0\com\include\comtypes.h

; 325  : 	sprintf(g_szSystemError, "ERROR! [%s:%d] %s\n", _szFunc, _nLine, pMsg);

  00024	68 00 00 00 00	 push	 OFFSET ?g_szMessage@@3PADA ; g_szMessage
  00029	68 41 03 00 00	 push	 833			; 00000341H
  0002e	68 00 00 00 00	 push	 OFFSET ??_C@_0BG@OEODDGOM@CCoreList?3?3initLogger?$AA@
  00033	68 00 00 00 00	 push	 OFFSET ??_C@_0BD@KEHDJCKJ@ERROR?$CB?5?$FL?$CFs?3?$CFd?$FN?5?$CFs?6?$AA@
  00038	68 00 00 00 00	 push	 OFFSET ?g_szSystemError@@3PADA ; g_szSystemError
  0003d	e8 00 00 00 00	 call	 _sprintf

; 326  : 	printf(g_szSystemError);

  00042	68 00 00 00 00	 push	 OFFSET ?g_szSystemError@@3PADA ; g_szSystemError
  00047	e8 00 00 00 00	 call	 _printf
  0004c	83 c4 28	 add	 esp, 40			; 00000028H
; File e:\infinia-library-3.0\com\src\comcore.cpp

; 834  : 		return false;

  0004f	32 c0		 xor	 al, al
  00051	5e		 pop	 esi

; 860  : }

  00052	8b e5		 mov	 esp, ebp
  00054	5d		 pop	 ebp
  00055	c2 0c 00	 ret	 12			; 0000000cH
$LN4@initLogger:
  00058	53		 push	 ebx

; 835  : 	}
; 836  : 	eRes = pLogger->initConfig(pConfig, pSection);

  00059	8b 5d 0c	 mov	 ebx, DWORD PTR _pConfig$[ebp]
  0005c	8b ce		 mov	 ecx, esi
  0005e	57		 push	 edi
  0005f	8b 7d 10	 mov	 edi, DWORD PTR _pSection$[ebp]
  00062	57		 push	 edi
  00063	53		 push	 ebx
  00064	e8 00 00 00 00	 call	 ?initConfig@CLogger@@QAE?AW4E_LOG_INIT_RES@@PAD0@Z ; CLogger::initConfig

; 837  : 
; 838  : 	switch (eRes) {

  00069	40		 inc	 eax
  0006a	83 f8 03	 cmp	 eax, 3
  0006d	77 6e		 ja	 SHORT $LN2@initLogger
  0006f	ff 24 85 00 00
	00 00		 jmp	 DWORD PTR $LN29@initLogger[eax*4]
$LN6@initLogger:

; 839  : 		case LOG_INIT_CHANGED_SUCCESS: 
; 840  : 		case LOG_INIT_NO_FILE: return true;
; 841  : 		case LOG_INIT_ERROR:
; 842  : 		{
; 843  : 			_stprintf(g_szMessage, _T("pLogger->initConfig has Failed!!![%s:%s]"), pConfig, pSection);

  00076	57		 push	 edi
  00077	53		 push	 ebx
  00078	68 00 00 00 00	 push	 OFFSET ??_C@_0CJ@HLHCDNGF@pLogger?9?$DOinitConfig?5has?5Failed?$CB?$CB@
  0007d	68 00 00 00 00	 push	 OFFSET ?g_szMessage@@3PADA ; g_szMessage
  00082	e8 00 00 00 00	 call	 _sprintf
; File e:\infinia-library-3.0\com\include\comtypes.h

; 325  : 	sprintf(g_szSystemError, "ERROR! [%s:%d] %s\n", _szFunc, _nLine, pMsg);

  00087	68 00 00 00 00	 push	 OFFSET ?g_szMessage@@3PADA ; g_szMessage
  0008c	68 4c 03 00 00	 push	 844			; 0000034cH
  00091	68 00 00 00 00	 push	 OFFSET ??_C@_0BG@OEODDGOM@CCoreList?3?3initLogger?$AA@
  00096	68 00 00 00 00	 push	 OFFSET ??_C@_0BD@KEHDJCKJ@ERROR?$CB?5?$FL?$CFs?3?$CFd?$FN?5?$CFs?6?$AA@
  0009b	68 00 00 00 00	 push	 OFFSET ?g_szSystemError@@3PADA ; g_szSystemError
  000a0	e8 00 00 00 00	 call	 _sprintf

; 326  : 	printf(g_szSystemError);

  000a5	68 00 00 00 00	 push	 OFFSET ?g_szSystemError@@3PADA ; g_szSystemError
  000aa	e8 00 00 00 00	 call	 _printf
  000af	83 c4 28	 add	 esp, 40			; 00000028H
; File e:\infinia-library-3.0\com\src\comcore.cpp

; 845  : 			return false;

  000b2	32 c0		 xor	 al, al
  000b4	5f		 pop	 edi
  000b5	5b		 pop	 ebx
  000b6	5e		 pop	 esi

; 860  : }

  000b7	8b e5		 mov	 esp, ebp
  000b9	5d		 pop	 ebp
  000ba	c2 0c 00	 ret	 12			; 0000000cH
$LN7@initLogger:

; 849  : 			CSTLogger *pWriter = m_pWriterList->getObj(pLogger->getSTLNo());

  000bd	8b 45 fc	 mov	 eax, DWORD PTR _this$1$[ebp]
; File e:\infinia-library-3.0\com\include\comlogger.h

; 182  : 	inline int getSTLNo() {	return m_nStlNo; }

  000c0	8b 56 7c	 mov	 edx, DWORD PTR [esi+124]
; File e:\infinia-library-3.0\com\src\comcore.cpp

; 849  : 			CSTLogger *pWriter = m_pWriterList->getObj(pLogger->getSTLNo());

  000c3	8b 00		 mov	 eax, DWORD PTR [eax]
; File e:\infinia-library-3.0\com\include\comtypes.h

; 322  : inline bool ISINCLUDE(int i, int max) { if (0 <= i && i < max) return true; return false; }

  000c5	85 d2		 test	 edx, edx
  000c7	78 1f		 js	 SHORT $LN25@initLogger
  000c9	3b 50 10	 cmp	 edx, DWORD PTR [eax+16]
  000cc	7d 1a		 jge	 SHORT $LN25@initLogger
; File e:\infinia-library-3.0\com\include\comtlist.h

; 332  : 	inline T* getObj(int i) { if (ISINCLUDE(i, m_nMax)) return m_pArray[i]; return NULL; }

  000ce	8b 00		 mov	 eax, DWORD PTR [eax]
  000d0	8b 0c 90	 mov	 ecx, DWORD PTR [eax+edx*4]
; File e:\infinia-library-3.0\com\src\comcore.cpp

; 850  : 			if (!pWriter) {

  000d3	85 c9		 test	 ecx, ecx
  000d5	74 11		 je	 SHORT $LN25@initLogger

; 854  : 			}
; 855  : 			pWriter->procLoggerEnable(pLogger);

  000d7	56		 push	 esi
  000d8	e8 00 00 00 00	 call	 ?procLoggerEnable@CSTLogger@@QAEXPAVCLogger@@@Z ; CSTLogger::procLoggerEnable
$LN2@initLogger:

; 856  : 		}
; 857  : 		break;
; 858  : 	}
; 859  : 	return true;

  000dd	5f		 pop	 edi
  000de	5b		 pop	 ebx
  000df	b0 01		 mov	 al, 1
  000e1	5e		 pop	 esi

; 860  : }

  000e2	8b e5		 mov	 esp, ebp
  000e4	5d		 pop	 ebp
  000e5	c2 0c 00	 ret	 12			; 0000000cH
$LN25@initLogger:

; 851  : 				_stprintf(g_szMessage, _T("pWriter is NULL!!![%s:%s] [nSTLNo:%d]"), pConfig, pSection, pLogger->getSTLNo());

  000e8	52		 push	 edx
  000e9	57		 push	 edi
  000ea	53		 push	 ebx
  000eb	68 00 00 00 00	 push	 OFFSET ??_C@_0CG@BAIAACPP@pWriter?5is?5NULL?$CB?$CB?$CB?$FL?$CFs?3?$CFs?$FN?5?$FLnSTLN@
  000f0	68 00 00 00 00	 push	 OFFSET ?g_szMessage@@3PADA ; g_szMessage
  000f5	e8 00 00 00 00	 call	 _sprintf

; 852  : 				comErrorPrint(g_szMessage);

  000fa	68 54 03 00 00	 push	 852			; 00000354H
  000ff	68 00 00 00 00	 push	 OFFSET ??_C@_0BG@OEODDGOM@CCoreList?3?3initLogger?$AA@
  00104	68 00 00 00 00	 push	 OFFSET ?g_szMessage@@3PADA ; g_szMessage
  00109	e8 00 00 00 00	 call	 ?comGlobalErrorProc@@YAXPADPBDH@Z ; comGlobalErrorProc
  0010e	83 c4 20	 add	 esp, 32			; 00000020H

; 853  : 				return false;

  00111	32 c0		 xor	 al, al
  00113	5f		 pop	 edi
  00114	5b		 pop	 ebx
  00115	5e		 pop	 esi

; 860  : }

  00116	8b e5		 mov	 esp, ebp
  00118	5d		 pop	 ebp
  00119	c2 0c 00	 ret	 12			; 0000000cH
$LN29@initLogger:
  0011c	00 00 00 00	 DD	 $LN6@initLogger
  00120	00 00 00 00	 DD	 $LN2@initLogger
  00124	00 00 00 00	 DD	 $LN7@initLogger
  00128	00 00 00 00	 DD	 $LN2@initLogger
?initLogger@CCoreList@@QAE_NPAVCLogger@@PAD1@Z ENDP	; CCoreList::initLogger
_TEXT	ENDS
; Function compile flags: /Ogtp
; File e:\infinia-library-3.0\com\src\comcore.cpp
; File e:\infinia-library-3.0\com\include\comtypes.h
; File e:\infinia-library-3.0\com\src\comcore.cpp
;	COMDAT ?initDefaultPool@CCoreList@@QAE_NHHH@Z
_TEXT	SEGMENT
_szConf$ = -92						; size = 88
__$ArrayPad$ = -4					; size = 4
_nCnt_IdxBuf2$ = 8					; size = 4
_nCnt_IdxBuf32$ = 12					; size = 4
_nCnt_IdxBuf_1m$ = 16					; size = 4
?initDefaultPool@CCoreList@@QAE_NHHH@Z PROC		; CCoreList::initDefaultPool, COMDAT
; _this$ = ecx

; 595  : {

  00000	55		 push	 ebp
  00001	8b ec		 mov	 ebp, esp
  00003	83 ec 5c	 sub	 esp, 92			; 0000005cH
  00006	a1 00 00 00 00	 mov	 eax, DWORD PTR ___security_cookie
  0000b	33 c5		 xor	 eax, ebp
  0000d	89 45 fc	 mov	 DWORD PTR __$ArrayPad$[ebp], eax

; 596  : 	int i, nVal;
; 597  : 
; 598  : 	STBufConf szConf;
; 599  : 	memset(&szConf, 0, sizeof(STBufConf));

  00010	6a 58		 push	 88			; 00000058H
  00012	8d 45 a4	 lea	 eax, DWORD PTR _szConf$[ebp]
  00015	6a 00		 push	 0
  00017	50		 push	 eax
  00018	e8 00 00 00 00	 call	 _memset

; 600  : 
; 601  : 	szConf.nMaxList[IDX_BUF_2] = nCnt_IdxBuf2;
; 602  : 	
; 603  : 	nVal = nCnt_IdxBuf32 << 2;
; 604  : 	for (i = IDX_BUF_4; i < IDX_BUF_256; i++)
; 605  : 	{
; 606  : 		szConf.nMaxList[i] = nVal + 1024;

  0001d	8b 55 0c	 mov	 edx, DWORD PTR _nCnt_IdxBuf32$[ebp]
  00020	83 c4 0c	 add	 esp, 12			; 0000000cH
  00023	8b 45 08	 mov	 eax, DWORD PTR _nCnt_IdxBuf2$[ebp]

; 607  : 	}
; 608  : 
; 609  : 	for (i = IDX_BUF_256; i < IDX_BUF_1k; i++)
; 610  : 	{
; 611  : 		szConf.nMaxList[i] = nCnt_IdxBuf32 + 64;
; 612  : 	}
; 613  : 
; 614  : 	nVal = nCnt_IdxBuf32 >> 2;

  00026	8b ca		 mov	 ecx, edx
  00028	89 45 a8	 mov	 DWORD PTR _szConf$[ebp+4], eax
  0002b	c1 f9 02	 sar	 ecx, 2
  0002e	8d 04 95 00 04
	00 00		 lea	 eax, DWORD PTR [edx*4+1024]
  00035	89 45 ac	 mov	 DWORD PTR _szConf$[ebp+8], eax
  00038	89 45 b0	 mov	 DWORD PTR _szConf$[ebp+12], eax
  0003b	89 45 b4	 mov	 DWORD PTR _szConf$[ebp+16], eax
  0003e	89 45 b8	 mov	 DWORD PTR _szConf$[ebp+20], eax
  00041	89 45 bc	 mov	 DWORD PTR _szConf$[ebp+24], eax
  00044	89 45 c0	 mov	 DWORD PTR _szConf$[ebp+28], eax
  00047	8d 42 40	 lea	 eax, DWORD PTR [edx+64]
  0004a	89 45 c4	 mov	 DWORD PTR _szConf$[ebp+32], eax
  0004d	89 45 c8	 mov	 DWORD PTR _szConf$[ebp+36], eax

; 615  : 	for (i = IDX_BUF_1k; i < IDX_BUF_64k; i++)
; 616  : 	{
; 617  : 		szConf.nMaxList[i] = nVal + 4;

  00050	8d 41 04	 lea	 eax, DWORD PTR [ecx+4]
  00053	89 45 cc	 mov	 DWORD PTR _szConf$[ebp+40], eax
  00056	89 45 d0	 mov	 DWORD PTR _szConf$[ebp+44], eax
  00059	89 45 d4	 mov	 DWORD PTR _szConf$[ebp+48], eax
  0005c	89 45 d8	 mov	 DWORD PTR _szConf$[ebp+52], eax
  0005f	89 45 dc	 mov	 DWORD PTR _szConf$[ebp+56], eax
  00062	89 45 e0	 mov	 DWORD PTR _szConf$[ebp+60], eax

; 618  : 	}
; 619  : 	//6(64K)
; 620  : 	for (i = IDX_BUF_64k; i < IDX_BUF_512k; i++)
; 621  : 	{
; 622  : 		szConf.nMaxList[i] = nVal + 2;

  00065	8d 41 02	 lea	 eax, DWORD PTR [ecx+2]

; 623  : 	}
; 624  : 	//9(512K)
; 625  : 	nVal = nCnt_IdxBuf32 >> 8;
; 626  : 	szConf.nMaxList[IDX_BUF_512k] = nVal;
; 627  : 	szConf.nMaxList[IDX_BUF_1m] = nCnt_IdxBuf_1m;
; 628  : 	szConf.nMaxList[IDX_BUF_2m] = nCnt_IdxBuf_1m;
; 629  : 
; 630  : 	gs_pMMgr->init(&szConf);

  00068	8b 0d 00 00 00
	00		 mov	 ecx, DWORD PTR ?gs_pMMgr@@3PAVCMemManager@@A ; gs_pMMgr
  0006e	89 45 e4	 mov	 DWORD PTR _szConf$[ebp+64], eax
  00071	89 45 e8	 mov	 DWORD PTR _szConf$[ebp+68], eax
  00074	89 45 ec	 mov	 DWORD PTR _szConf$[ebp+72], eax
  00077	8b 45 10	 mov	 eax, DWORD PTR _nCnt_IdxBuf_1m$[ebp]
  0007a	89 45 f4	 mov	 DWORD PTR _szConf$[ebp+80], eax
  0007d	89 45 f8	 mov	 DWORD PTR _szConf$[ebp+84], eax
  00080	8d 45 a4	 lea	 eax, DWORD PTR _szConf$[ebp]
  00083	c1 fa 08	 sar	 edx, 8
  00086	50		 push	 eax
  00087	89 55 f0	 mov	 DWORD PTR _szConf$[ebp+76], edx
  0008a	e8 00 00 00 00	 call	 ?init@CMemManager@@QAEXPAUSTBufConf@@@Z ; CMemManager::init

; 631  : 	if (!gs_pMMgr->alloc()) {

  0008f	8b 0d 00 00 00
	00		 mov	 ecx, DWORD PTR ?gs_pMMgr@@3PAVCMemManager@@A ; gs_pMMgr
  00095	e8 00 00 00 00	 call	 ?alloc@CMemManager@@QAE_NXZ ; CMemManager::alloc
  0009a	84 c0		 test	 al, al
  0009c	75 3d		 jne	 SHORT $LN14@initDefaul
; File e:\infinia-library-3.0\com\include\comtypes.h

; 325  : 	sprintf(g_szSystemError, "ERROR! [%s:%d] %s\n", _szFunc, _nLine, pMsg);

  0009e	68 00 00 00 00	 push	 OFFSET ??_C@_0CA@HMFOBAAE@gs_pMMgr?9?$DOalloc?$CI?$CJ?5has?5Failed?$CB?$CB?$CB?$AA@
  000a3	68 78 02 00 00	 push	 632			; 00000278H
  000a8	68 00 00 00 00	 push	 OFFSET ??_C@_0BL@NLNFPADL@CCoreList?3?3initDefaultPool?$AA@
  000ad	68 00 00 00 00	 push	 OFFSET ??_C@_0BD@KEHDJCKJ@ERROR?$CB?5?$FL?$CFs?3?$CFd?$FN?5?$CFs?6?$AA@
  000b2	68 00 00 00 00	 push	 OFFSET ?g_szSystemError@@3PADA ; g_szSystemError
  000b7	e8 00 00 00 00	 call	 _sprintf

; 326  : 	printf(g_szSystemError);

  000bc	68 00 00 00 00	 push	 OFFSET ?g_szSystemError@@3PADA ; g_szSystemError
  000c1	e8 00 00 00 00	 call	 _printf
  000c6	83 c4 18	 add	 esp, 24			; 00000018H
; File e:\infinia-library-3.0\com\src\comcore.cpp

; 633  : 		return false;

  000c9	32 c0		 xor	 al, al

; 634  : 	}
; 635  : 
; 636  : 	return true;
; 637  : }

  000cb	8b 4d fc	 mov	 ecx, DWORD PTR __$ArrayPad$[ebp]
  000ce	33 cd		 xor	 ecx, ebp
  000d0	e8 00 00 00 00	 call	 @__security_check_cookie@4
  000d5	8b e5		 mov	 esp, ebp
  000d7	5d		 pop	 ebp
  000d8	c2 0c 00	 ret	 12			; 0000000cH
$LN14@initDefaul:
  000db	8b 4d fc	 mov	 ecx, DWORD PTR __$ArrayPad$[ebp]
  000de	b0 01		 mov	 al, 1
  000e0	33 cd		 xor	 ecx, ebp
  000e2	e8 00 00 00 00	 call	 @__security_check_cookie@4
  000e7	8b e5		 mov	 esp, ebp
  000e9	5d		 pop	 ebp
  000ea	c2 0c 00	 ret	 12			; 0000000cH
?initDefaultPool@CCoreList@@QAE_NHHH@Z ENDP		; CCoreList::initDefaultPool
_TEXT	ENDS
; Function compile flags: /Ogtp
; File e:\infinia-library-3.0\com\src\comcore.cpp
; File e:\infinia-library-3.0\com\include\comtypes.h
; File e:\infinia-library-3.0\com\src\comcore.cpp
; File e:\infinia-library-3.0\com\include\comtypes.h
; File e:\infinia-library-3.0\com\src\comcore.cpp
; File e:\infinia-library-3.0\com\include\comtypes.h
; File e:\infinia-library-3.0\com\src\comcore.cpp
;	COMDAT ?initSystemFile@CCoreList@@QAE_NXZ
_TEXT	SEGMENT
_this$GSCopy$1$ = -136					; size = 4
tv403 = -132						; size = 4
_szConf$ = -128						; size = 88
_szKey$ = -40						; size = 36
__$ArrayPad$ = -4					; size = 4
?initSystemFile@CCoreList@@QAE_NXZ PROC			; CCoreList::initSystemFile, COMDAT
; _this$ = ecx

; 523  : {

  00000	55		 push	 ebp
  00001	8b ec		 mov	 ebp, esp
  00003	81 ec 88 00 00
	00		 sub	 esp, 136		; 00000088H
  00009	a1 00 00 00 00	 mov	 eax, DWORD PTR ___security_cookie
  0000e	33 c5		 xor	 eax, ebp
  00010	89 45 fc	 mov	 DWORD PTR __$ArrayPad$[ebp], eax
  00013	53		 push	 ebx
  00014	8b d9		 mov	 ebx, ecx

; 524  : 	int i, nVal, nShift;
; 525  : 	if (!CEnv::initSystem()) return false;

  00016	6a 00		 push	 0
  00018	89 9d 78 ff ff
	ff		 mov	 DWORD PTR _this$GSCopy$1$[ebp], ebx
  0001e	e8 00 00 00 00	 call	 ?initSystem@CEnv@@SAHPAD@Z ; CEnv::initSystem
  00023	83 c4 04	 add	 esp, 4
  00026	85 c0		 test	 eax, eax
  00028	75 11		 jne	 SHORT $LN14@initSystem
  0002a	32 c0		 xor	 al, al
  0002c	5b		 pop	 ebx

; 588  : 	}
; 589  : 
; 590  : 	return true;
; 591  : 
; 592  : }

  0002d	8b 4d fc	 mov	 ecx, DWORD PTR __$ArrayPad$[ebp]
  00030	33 cd		 xor	 ecx, ebp
  00032	e8 00 00 00 00	 call	 @__security_check_cookie@4
  00037	8b e5		 mov	 esp, ebp
  00039	5d		 pop	 ebp
  0003a	c3		 ret	 0
$LN14@initSystem:
  0003b	57		 push	 edi

; 526  : 
; 527  : 	STBufConf szConf;
; 528  : 	TCHAR szKey[36];
; 529  : 	memset(&szConf, 0, sizeof(STBufConf));

  0003c	6a 58		 push	 88			; 00000058H
  0003e	8d 45 80	 lea	 eax, DWORD PTR _szConf$[ebp]
  00041	6a 00		 push	 0
  00043	50		 push	 eax
  00044	e8 00 00 00 00	 call	 _memset

; 530  : 
; 531  : 	nVal = GetPrivateProfileInt(_T("MPOOL"), _T("IDX_BUF_32"), 0, g_pSystem);

  00049	8b 3d 00 00 00
	00		 mov	 edi, DWORD PTR __imp__GetPrivateProfileIntA@16
  0004f	83 c4 0c	 add	 esp, 12			; 0000000cH
  00052	ff 35 00 00 00
	00		 push	 DWORD PTR ?g_pSystem@@3PADA ; g_pSystem
  00058	6a 00		 push	 0
  0005a	68 00 00 00 00	 push	 OFFSET ??_C@_0L@OLPHIMBG@IDX_BUF_32?$AA@
  0005f	68 00 00 00 00	 push	 OFFSET ??_C@_05CBJFAKLK@MPOOL?$AA@
  00064	ff d7		 call	 edi

; 532  : 	if (!nVal) goto INIT_THREAD;

  00066	85 c0		 test	 eax, eax
  00068	0f 84 d4 01 00
	00		 je	 $INIT_THREAD$51

; 533  : 	
; 534  : 	szConf.nMaxList[IDX_BUF_2] = GetPrivateProfileInt(_T("MPOOL"), _T("IDX_BUF_2"), 0, g_pSystem);

  0006e	56		 push	 esi
  0006f	ff 35 00 00 00
	00		 push	 DWORD PTR ?g_pSystem@@3PADA ; g_pSystem
  00075	6a 00		 push	 0
  00077	68 00 00 00 00	 push	 OFFSET ??_C@_09CIHGEJAE@IDX_BUF_2?$AA@
  0007c	68 00 00 00 00	 push	 OFFSET ??_C@_05CBJFAKLK@MPOOL?$AA@
  00081	ff d7		 call	 edi

; 535  : 	
; 536  : 	for (i = IDX_BUF_4; i < IDX_BUF_256; i++)

  00083	be 01 00 00 00	 mov	 esi, 1
  00088	89 45 84	 mov	 DWORD PTR _szConf$[ebp+4], eax
  0008b	c1 c6 02	 rol	 esi, 2
  0008e	bb 02 00 00 00	 mov	 ebx, 2
$LL4@initSystem:

; 537  : 	{
; 538  : 		_stprintf(szKey, _T("IDX_BUF_%d"), 1 << i);

  00093	56		 push	 esi
  00094	8d 45 d8	 lea	 eax, DWORD PTR _szKey$[ebp]
  00097	68 00 00 00 00	 push	 OFFSET ??_C@_0L@BPLNKJAG@IDX_BUF_?$CFd?$AA@
  0009c	50		 push	 eax
  0009d	e8 00 00 00 00	 call	 _sprintf
  000a2	83 c4 0c	 add	 esp, 12			; 0000000cH

; 539  : 		szConf.nMaxList[i] = GetPrivateProfileInt(_T("MPOOL"), szKey, 0, g_pSystem) + 256;

  000a5	8d 45 d8	 lea	 eax, DWORD PTR _szKey$[ebp]
  000a8	ff 35 00 00 00
	00		 push	 DWORD PTR ?g_pSystem@@3PADA ; g_pSystem
  000ae	6a 00		 push	 0
  000b0	50		 push	 eax
  000b1	68 00 00 00 00	 push	 OFFSET ??_C@_05CBJFAKLK@MPOOL?$AA@
  000b6	ff d7		 call	 edi
  000b8	05 00 01 00 00	 add	 eax, 256		; 00000100H
  000bd	d1 c6		 rol	 esi, 1
  000bf	89 44 9d 80	 mov	 DWORD PTR _szConf$[ebp+ebx*4], eax
  000c3	43		 inc	 ebx
  000c4	83 fb 08	 cmp	 ebx, 8
  000c7	7c ca		 jl	 SHORT $LL4@initSystem

; 540  : 	}
; 541  : 	for (i = IDX_BUF_256; i < IDX_BUF_1k; i++)

  000c9	be 01 00 00 00	 mov	 esi, 1
  000ce	bb 08 00 00 00	 mov	 ebx, 8
  000d3	c1 c6 08	 rol	 esi, 8
$LL7@initSystem:

; 542  : 	{
; 543  : 		_stprintf(szKey, _T("IDX_BUF_%d"), 1 << i);

  000d6	56		 push	 esi
  000d7	8d 45 d8	 lea	 eax, DWORD PTR _szKey$[ebp]
  000da	68 00 00 00 00	 push	 OFFSET ??_C@_0L@BPLNKJAG@IDX_BUF_?$CFd?$AA@
  000df	50		 push	 eax
  000e0	e8 00 00 00 00	 call	 _sprintf
  000e5	83 c4 0c	 add	 esp, 12			; 0000000cH

; 544  : 		szConf.nMaxList[i] = GetPrivateProfileInt(_T("MPOOL"), szKey, 0, g_pSystem) + 64;

  000e8	8d 45 d8	 lea	 eax, DWORD PTR _szKey$[ebp]
  000eb	ff 35 00 00 00
	00		 push	 DWORD PTR ?g_pSystem@@3PADA ; g_pSystem
  000f1	6a 00		 push	 0
  000f3	50		 push	 eax
  000f4	68 00 00 00 00	 push	 OFFSET ??_C@_05CBJFAKLK@MPOOL?$AA@
  000f9	ff d7		 call	 edi
  000fb	83 c0 40	 add	 eax, 64			; 00000040H
  000fe	d1 c6		 rol	 esi, 1
  00100	89 44 9d 80	 mov	 DWORD PTR _szConf$[ebp+ebx*4], eax
  00104	43		 inc	 ebx
  00105	83 fb 0a	 cmp	 ebx, 10			; 0000000aH
  00108	7c cc		 jl	 SHORT $LL7@initSystem

; 545  : 	}
; 546  : 
; 547  : 	nVal = 1; nShift = 0;

  0010a	b8 01 00 00 00	 mov	 eax, 1
  0010f	c7 85 7c ff ff
	ff 06 00 00 00	 mov	 DWORD PTR tv403[ebp], 6
  00119	8b d8		 mov	 ebx, eax
  0011b	8d 75 a8	 lea	 esi, DWORD PTR _szConf$[ebp+40]
  0011e	c1 c3 00	 rol	 ebx, 0
$LL10@initSystem:

; 548  : 	for (i = IDX_BUF_1k; i < IDX_BUF_64k; i++)
; 549  : 	{
; 550  : 		_stprintf(szKey, _T("IDX_BUF_%dk"), nVal); nShift++; //0(1K), 1(2K), 2(4K), 3(8K), 4(16K), 5(32K)

  00121	50		 push	 eax
  00122	8d 45 d8	 lea	 eax, DWORD PTR _szKey$[ebp]
  00125	68 00 00 00 00	 push	 OFFSET ??_C@_0M@GPHFKKPA@IDX_BUF_?$CFdk?$AA@
  0012a	50		 push	 eax
  0012b	e8 00 00 00 00	 call	 _sprintf
  00130	83 c4 0c	 add	 esp, 12			; 0000000cH
  00133	d1 c3		 rol	 ebx, 1

; 551  : 		szConf.nMaxList[i] = GetPrivateProfileInt(_T("MPOOL"), szKey, 0, g_pSystem) + 4;

  00135	8d 45 d8	 lea	 eax, DWORD PTR _szKey$[ebp]
  00138	ff 35 00 00 00
	00		 push	 DWORD PTR ?g_pSystem@@3PADA ; g_pSystem
  0013e	6a 00		 push	 0
  00140	50		 push	 eax
  00141	68 00 00 00 00	 push	 OFFSET ??_C@_05CBJFAKLK@MPOOL?$AA@
  00146	ff d7		 call	 edi
  00148	83 c0 04	 add	 eax, 4
  0014b	8d 76 04	 lea	 esi, DWORD PTR [esi+4]
  0014e	83 ad 7c ff ff
	ff 01		 sub	 DWORD PTR tv403[ebp], 1
  00155	89 46 fc	 mov	 DWORD PTR [esi-4], eax

; 552  : 		nVal = 1 << nShift;

  00158	8b c3		 mov	 eax, ebx
  0015a	75 c5		 jne	 SHORT $LL10@initSystem

; 553  : 	}
; 554  : 	//6(64K)
; 555  : 	for (i = IDX_BUF_64k; i < IDX_BUF_512k; i++)

  0015c	bb 10 00 00 00	 mov	 ebx, 16			; 00000010H
  00161	8d 73 30	 lea	 esi, DWORD PTR [ebx+48]
$LL13@initSystem:

; 556  : 	{
; 557  : 		_stprintf(szKey, _T("IDX_BUF_%dk"), nVal); nShift++; //6(64K), 7(128K), 8(256K)

  00164	50		 push	 eax
  00165	8d 45 d8	 lea	 eax, DWORD PTR _szKey$[ebp]
  00168	68 00 00 00 00	 push	 OFFSET ??_C@_0M@GPHFKKPA@IDX_BUF_?$CFdk?$AA@
  0016d	50		 push	 eax
  0016e	e8 00 00 00 00	 call	 _sprintf
  00173	83 c4 0c	 add	 esp, 12			; 0000000cH
  00176	d1 c6		 rol	 esi, 1

; 558  : 		szConf.nMaxList[i] = GetPrivateProfileInt(_T("MPOOL"), szKey, 0, g_pSystem) + 2;

  00178	8d 45 d8	 lea	 eax, DWORD PTR _szKey$[ebp]
  0017b	ff 35 00 00 00
	00		 push	 DWORD PTR ?g_pSystem@@3PADA ; g_pSystem
  00181	6a 00		 push	 0
  00183	50		 push	 eax
  00184	68 00 00 00 00	 push	 OFFSET ??_C@_05CBJFAKLK@MPOOL?$AA@
  00189	ff d7		 call	 edi
  0018b	83 c0 02	 add	 eax, 2
  0018e	89 44 9d 80	 mov	 DWORD PTR _szConf$[ebp+ebx*4], eax
  00192	43		 inc	 ebx

; 559  : 		nVal = 1 << nShift;

  00193	8b c6		 mov	 eax, esi
  00195	83 fb 13	 cmp	 ebx, 19			; 00000013H
  00198	7c ca		 jl	 SHORT $LL13@initSystem

; 560  : 	}
; 561  : 	//9(512K)
; 562  : 	szConf.nMaxList[IDX_BUF_512k] = GetPrivateProfileInt(_T("MPOOL"), _T("IDX_BUF_512k"), 0, g_pSystem) + 1;

  0019a	ff 35 00 00 00
	00		 push	 DWORD PTR ?g_pSystem@@3PADA ; g_pSystem
  001a0	6a 00		 push	 0
  001a2	68 00 00 00 00	 push	 OFFSET ??_C@_0N@MEIFEIPH@IDX_BUF_512k?$AA@
  001a7	68 00 00 00 00	 push	 OFFSET ??_C@_05CBJFAKLK@MPOOL?$AA@
  001ac	ff d7		 call	 edi

; 563  : 	szConf.nMaxList[IDX_BUF_1m] = GetPrivateProfileInt(_T("MPOOL"), _T("IDX_BUF_1m"), 0, g_pSystem);

  001ae	ff 35 00 00 00
	00		 push	 DWORD PTR ?g_pSystem@@3PADA ; g_pSystem
  001b4	40		 inc	 eax
  001b5	6a 00		 push	 0
  001b7	68 00 00 00 00	 push	 OFFSET ??_C@_0L@NFFABJOD@IDX_BUF_1m?$AA@
  001bc	68 00 00 00 00	 push	 OFFSET ??_C@_05CBJFAKLK@MPOOL?$AA@
  001c1	89 45 cc	 mov	 DWORD PTR _szConf$[ebp+76], eax
  001c4	ff d7		 call	 edi

; 564  : 	szConf.nMaxList[IDX_BUF_2m] = GetPrivateProfileInt(_T("MPOOL"), _T("IDX_BUF_2m"), 0, g_pSystem);

  001c6	ff 35 00 00 00
	00		 push	 DWORD PTR ?g_pSystem@@3PADA ; g_pSystem
  001cc	89 45 d0	 mov	 DWORD PTR _szConf$[ebp+80], eax
  001cf	6a 00		 push	 0
  001d1	68 00 00 00 00	 push	 OFFSET ??_C@_0L@NHBGKHLK@IDX_BUF_2m?$AA@
  001d6	68 00 00 00 00	 push	 OFFSET ??_C@_05CBJFAKLK@MPOOL?$AA@
  001db	ff d7		 call	 edi

; 565  : 
; 566  : 	gs_pMMgr->init(&szConf);

  001dd	8b 0d 00 00 00
	00		 mov	 ecx, DWORD PTR ?gs_pMMgr@@3PAVCMemManager@@A ; gs_pMMgr
  001e3	89 45 d4	 mov	 DWORD PTR _szConf$[ebp+84], eax
  001e6	8d 45 80	 lea	 eax, DWORD PTR _szConf$[ebp]
  001e9	50		 push	 eax
  001ea	e8 00 00 00 00	 call	 ?init@CMemManager@@QAEXPAUSTBufConf@@@Z ; CMemManager::init

; 567  : 	if (!gs_pMMgr->alloc()) {

  001ef	8b 0d 00 00 00
	00		 mov	 ecx, DWORD PTR ?gs_pMMgr@@3PAVCMemManager@@A ; gs_pMMgr
  001f5	e8 00 00 00 00	 call	 ?alloc@CMemManager@@QAE_NXZ ; CMemManager::alloc
  001fa	5e		 pop	 esi
  001fb	84 c0		 test	 al, al
  001fd	75 3d		 jne	 SHORT $LN47@initSystem
; File e:\infinia-library-3.0\com\include\comtypes.h

; 325  : 	sprintf(g_szSystemError, "ERROR! [%s:%d] %s\n", _szFunc, _nLine, pMsg);

  001ff	68 00 00 00 00	 push	 OFFSET ??_C@_0CA@HMFOBAAE@gs_pMMgr?9?$DOalloc?$CI?$CJ?5has?5Failed?$CB?$CB?$CB?$AA@
  00204	68 38 02 00 00	 push	 568			; 00000238H
  00209	68 00 00 00 00	 push	 OFFSET ??_C@_0BK@EAIHANHD@CCoreList?3?3initSystemFile?$AA@
  0020e	68 00 00 00 00	 push	 OFFSET ??_C@_0BD@KEHDJCKJ@ERROR?$CB?5?$FL?$CFs?3?$CFd?$FN?5?$CFs?6?$AA@
  00213	68 00 00 00 00	 push	 OFFSET ?g_szSystemError@@3PADA ; g_szSystemError
  00218	e8 00 00 00 00	 call	 _sprintf

; 326  : 	printf(g_szSystemError);

  0021d	68 00 00 00 00	 push	 OFFSET ?g_szSystemError@@3PADA ; g_szSystemError
  00222	e8 00 00 00 00	 call	 _printf
  00227	83 c4 18	 add	 esp, 24			; 00000018H
; File e:\infinia-library-3.0\com\src\comcore.cpp

; 569  : 		return false;

  0022a	32 c0		 xor	 al, al
  0022c	5f		 pop	 edi
  0022d	5b		 pop	 ebx

; 588  : 	}
; 589  : 
; 590  : 	return true;
; 591  : 
; 592  : }

  0022e	8b 4d fc	 mov	 ecx, DWORD PTR __$ArrayPad$[ebp]
  00231	33 cd		 xor	 ecx, ebp
  00233	e8 00 00 00 00	 call	 @__security_check_cookie@4
  00238	8b e5		 mov	 esp, ebp
  0023a	5d		 pop	 ebp
  0023b	c3		 ret	 0
$LN47@initSystem:
  0023c	8b 9d 78 ff ff
	ff		 mov	 ebx, DWORD PTR _this$GSCopy$1$[ebp]
$INIT_THREAD$51:

; 570  : 	}
; 571  : 
; 572  : INIT_THREAD :
; 573  : 	if (!initComThread(g_pSystem, _T("COMTHREAD")))			return false;

  00242	68 00 00 00 00	 push	 OFFSET ??_C@_09OFIOCMDH@COMTHREAD?$AA@
  00247	ff 35 00 00 00
	00		 push	 DWORD PTR ?g_pSystem@@3PADA ; g_pSystem
  0024d	8b cb		 mov	 ecx, ebx
  0024f	e8 00 00 00 00	 call	 ?initComThread@CCoreList@@QAE_NPAD0@Z ; CCoreList::initComThread
  00254	84 c0		 test	 al, al
  00256	0f 84 e7 00 00
	00		 je	 $LN49@initSystem

; 574  : 	if (!initLogWriter(g_pSystem, _T("LOG_WRITER"),true))	return false;

  0025c	6a 01		 push	 1
  0025e	68 00 00 00 00	 push	 OFFSET ??_C@_0L@FJAKLKEH@LOG_WRITER?$AA@
  00263	ff 35 00 00 00
	00		 push	 DWORD PTR ?g_pSystem@@3PADA ; g_pSystem
  00269	8b cb		 mov	 ecx, ebx
  0026b	e8 00 00 00 00	 call	 ?initLogWriter@CCoreList@@QAE_NPAD0_N@Z ; CCoreList::initLogWriter
  00270	84 c0		 test	 al, al
  00272	0f 84 cb 00 00
	00		 je	 $LN49@initSystem

; 575  : 	if (!initScheduler(g_pSystem, _T("SCHEDULER")))			return false;

  00278	68 00 00 00 00	 push	 OFFSET ??_C@_09OCGIJDP@SCHEDULER?$AA@
  0027d	ff 35 00 00 00
	00		 push	 DWORD PTR ?g_pSystem@@3PADA ; g_pSystem
  00283	8b cb		 mov	 ecx, ebx
  00285	e8 00 00 00 00	 call	 ?initScheduler@CCoreList@@QAE_NPAD0@Z ; CCoreList::initScheduler
  0028a	84 c0		 test	 al, al
  0028c	0f 84 b1 00 00
	00		 je	 $LN49@initSystem

; 576  : 	if (!initQueueThread(g_pSystem, _T("EVENTPROC")))		return false;

  00292	68 00 00 00 00	 push	 OFFSET ??_C@_09HOHNDFAE@EVENTPROC?$AA@
  00297	ff 35 00 00 00
	00		 push	 DWORD PTR ?g_pSystem@@3PADA ; g_pSystem
  0029d	8b cb		 mov	 ecx, ebx
  0029f	e8 00 00 00 00	 call	 ?initQueueThread@CCoreList@@QAE_NPAD0@Z ; CCoreList::initQueueThread
  002a4	84 c0		 test	 al, al
  002a6	0f 84 97 00 00
	00		 je	 $LN49@initSystem

; 577  : 
; 578  : 	// LogTimeExpresion
; 579  : 	if (!gs_DTEManager.initConfig(g_pSystem)) {

  002ac	ff 35 00 00 00
	00		 push	 DWORD PTR ?g_pSystem@@3PADA ; g_pSystem
  002b2	b9 00 00 00 00	 mov	 ecx, OFFSET ?gs_DTEManager@@3VCTimeExpManager@@A ; gs_DTEManager
  002b7	e8 00 00 00 00	 call	 ?initConfig@CTimeExpManager@@QAE_NPAD@Z ; CTimeExpManager::initConfig
  002bc	84 c0		 test	 al, al
  002be	75 3d		 jne	 SHORT $LN22@initSystem
; File e:\infinia-library-3.0\com\include\comtypes.h

; 325  : 	sprintf(g_szSystemError, "ERROR! [%s:%d] %s\n", _szFunc, _nLine, pMsg);

  002c0	68 00 00 00 00	 push	 OFFSET ??_C@_0CH@DODOCLKM@gs_DTEManager?4initConfig?5has?5Fai@
  002c5	68 44 02 00 00	 push	 580			; 00000244H
  002ca	68 00 00 00 00	 push	 OFFSET ??_C@_0BK@EAIHANHD@CCoreList?3?3initSystemFile?$AA@
  002cf	68 00 00 00 00	 push	 OFFSET ??_C@_0BD@KEHDJCKJ@ERROR?$CB?5?$FL?$CFs?3?$CFd?$FN?5?$CFs?6?$AA@
  002d4	68 00 00 00 00	 push	 OFFSET ?g_szSystemError@@3PADA ; g_szSystemError
  002d9	e8 00 00 00 00	 call	 _sprintf

; 326  : 	printf(g_szSystemError);

  002de	68 00 00 00 00	 push	 OFFSET ?g_szSystemError@@3PADA ; g_szSystemError
  002e3	e8 00 00 00 00	 call	 _printf
  002e8	83 c4 18	 add	 esp, 24			; 00000018H
; File e:\infinia-library-3.0\com\src\comcore.cpp

; 581  : 		return false;

  002eb	32 c0		 xor	 al, al
  002ed	5f		 pop	 edi
  002ee	5b		 pop	 ebx

; 588  : 	}
; 589  : 
; 590  : 	return true;
; 591  : 
; 592  : }

  002ef	8b 4d fc	 mov	 ecx, DWORD PTR __$ArrayPad$[ebp]
  002f2	33 cd		 xor	 ecx, ebp
  002f4	e8 00 00 00 00	 call	 @__security_check_cookie@4
  002f9	8b e5		 mov	 esp, ebp
  002fb	5d		 pop	 ebp
  002fc	c3		 ret	 0
$LN22@initSystem:

; 582  : 	}
; 583  : 
; 584  : 	// basic logger init
; 585  : 	if (!initLogger(&gs_cLogger, g_pSystem, _T("LOG"))) {

  002fd	68 00 00 00 00	 push	 OFFSET ??_C@_03MLIHNEFJ@LOG?$AA@
  00302	ff 35 00 00 00
	00		 push	 DWORD PTR ?g_pSystem@@3PADA ; g_pSystem
  00308	8b cb		 mov	 ecx, ebx
  0030a	68 00 00 00 00	 push	 OFFSET ?gs_cLogger@@3VCLogger@@A ; gs_cLogger
  0030f	e8 00 00 00 00	 call	 ?initLogger@CCoreList@@QAE_NPAVCLogger@@PAD1@Z ; CCoreList::initLogger
  00314	84 c0		 test	 al, al
  00316	75 3d		 jne	 SHORT $LN23@initSystem
; File e:\infinia-library-3.0\com\include\comtypes.h

; 325  : 	sprintf(g_szSystemError, "ERROR! [%s:%d] %s\n", _szFunc, _nLine, pMsg);

  00318	68 00 00 00 00	 push	 OFFSET ??_C@_0BJ@JODHBGOK@initLogger?5has?5Failed?$CB?$CB?$CB?$AA@
  0031d	68 4a 02 00 00	 push	 586			; 0000024aH
  00322	68 00 00 00 00	 push	 OFFSET ??_C@_0BK@EAIHANHD@CCoreList?3?3initSystemFile?$AA@
  00327	68 00 00 00 00	 push	 OFFSET ??_C@_0BD@KEHDJCKJ@ERROR?$CB?5?$FL?$CFs?3?$CFd?$FN?5?$CFs?6?$AA@
  0032c	68 00 00 00 00	 push	 OFFSET ?g_szSystemError@@3PADA ; g_szSystemError
  00331	e8 00 00 00 00	 call	 _sprintf

; 326  : 	printf(g_szSystemError);

  00336	68 00 00 00 00	 push	 OFFSET ?g_szSystemError@@3PADA ; g_szSystemError
  0033b	e8 00 00 00 00	 call	 _printf
  00340	83 c4 18	 add	 esp, 24			; 00000018H
$LN49@initSystem:
  00343	5f		 pop	 edi
; File e:\infinia-library-3.0\com\src\comcore.cpp

; 587  : 		return false;

  00344	32 c0		 xor	 al, al
  00346	5b		 pop	 ebx

; 588  : 	}
; 589  : 
; 590  : 	return true;
; 591  : 
; 592  : }

  00347	8b 4d fc	 mov	 ecx, DWORD PTR __$ArrayPad$[ebp]
  0034a	33 cd		 xor	 ecx, ebp
  0034c	e8 00 00 00 00	 call	 @__security_check_cookie@4
  00351	8b e5		 mov	 esp, ebp
  00353	5d		 pop	 ebp
  00354	c3		 ret	 0
$LN23@initSystem:
  00355	8b 4d fc	 mov	 ecx, DWORD PTR __$ArrayPad$[ebp]
  00358	b0 01		 mov	 al, 1
  0035a	5f		 pop	 edi
  0035b	33 cd		 xor	 ecx, ebp
  0035d	5b		 pop	 ebx
  0035e	e8 00 00 00 00	 call	 @__security_check_cookie@4
  00363	8b e5		 mov	 esp, ebp
  00365	5d		 pop	 ebp
  00366	c3		 ret	 0
?initSystemFile@CCoreList@@QAE_NXZ ENDP			; CCoreList::initSystemFile
_TEXT	ENDS
; Function compile flags: /Ogtp
; File e:\infinia-library-3.0\com\src\comcore.cpp
;	COMDAT ??1CCoreList@@QAE@XZ
_TEXT	SEGMENT
??1CCoreList@@QAE@XZ PROC				; CCoreList::~CCoreList, COMDAT
; _this$ = ecx

; 491  : 	destroy();

  00000	e9 00 00 00 00	 jmp	 ?destroy@CCoreList@@QAEXXZ ; CCoreList::destroy
??1CCoreList@@QAE@XZ ENDP				; CCoreList::~CCoreList
_TEXT	ENDS
; Function compile flags: /Ogtp
; File e:\infinia-library-3.0\com\src\comcore.cpp
; File e:\infinia-library-3.0\com\include\comtypes.h
; File e:\infinia-library-3.0\com\src\comcore.cpp
; File e:\infinia-library-3.0\com\include\comtypes.h
; File e:\infinia-library-3.0\com\src\comcore.cpp
; File e:\infinia-library-3.0\com\include\comtypes.h
; File e:\infinia-library-3.0\com\src\comcore.cpp
;	COMDAT ??0CCoreList@@QAE@XZ
_TEXT	SEGMENT
$T2 = -16						; size = 4
__$EHRec$ = -12						; size = 12
??0CCoreList@@QAE@XZ PROC				; CCoreList::CCoreList, COMDAT
; _this$ = ecx

; 463  : {

  00000	55		 push	 ebp
  00001	8b ec		 mov	 ebp, esp
  00003	6a ff		 push	 -1
  00005	68 00 00 00 00	 push	 __ehhandler$??0CCoreList@@QAE@XZ
  0000a	64 a1 00 00 00
	00		 mov	 eax, DWORD PTR fs:0
  00010	50		 push	 eax
  00011	51		 push	 ecx
  00012	56		 push	 esi
  00013	a1 00 00 00 00	 mov	 eax, DWORD PTR ___security_cookie
  00018	33 c5		 xor	 eax, ebp
  0001a	50		 push	 eax
  0001b	8d 45 f4	 lea	 eax, DWORD PTR __$EHRec$[ebp]
  0001e	64 a3 00 00 00
	00		 mov	 DWORD PTR fs:0, eax
  00024	8b f1		 mov	 esi, ecx

; 464  : 	m_pWriterList = NULL;
; 465  : 	m_pSchedulerList = NULL;
; 466  : 	m_pThreadList = NULL;
; 467  : 	m_pEventThreadList = NULL;
; 468  : 	m_pIntervalPool = NULL;
; 469  : 	m_pEventPool = NULL;
; 470  : 
; 471  : 	gs_pMMgr = new (std::nothrow) CMemManager();

  00026	68 00 00 00 00	 push	 OFFSET ?nothrow@std@@3Unothrow_t@1@B ; std::nothrow
  0002b	68 b4 00 00 00	 push	 180			; 000000b4H
  00030	c7 06 00 00 00
	00		 mov	 DWORD PTR [esi], 0
  00036	c7 46 04 00 00
	00 00		 mov	 DWORD PTR [esi+4], 0
  0003d	c7 46 08 00 00
	00 00		 mov	 DWORD PTR [esi+8], 0
  00044	c7 46 0c 00 00
	00 00		 mov	 DWORD PTR [esi+12], 0
  0004b	c7 46 10 00 00
	00 00		 mov	 DWORD PTR [esi+16], 0
  00052	c7 46 14 00 00
	00 00		 mov	 DWORD PTR [esi+20], 0
  00059	e8 00 00 00 00	 call	 ??2@YAPAXIABUnothrow_t@std@@@Z ; operator new
  0005e	83 c4 08	 add	 esp, 8
  00061	89 45 f0	 mov	 DWORD PTR $T2[ebp], eax
  00064	c7 45 fc 00 00
	00 00		 mov	 DWORD PTR __$EHRec$[ebp+8], 0
  0006b	85 c0		 test	 eax, eax
  0006d	74 09		 je	 SHORT $LN6@CCoreList
  0006f	8b c8		 mov	 ecx, eax
  00071	e8 00 00 00 00	 call	 ??0CMemManager@@QAE@XZ	; CMemManager::CMemManager
  00076	eb 02		 jmp	 SHORT $LN7@CCoreList
$LN6@CCoreList:
  00078	33 c0		 xor	 eax, eax
$LN7@CCoreList:
  0007a	c7 45 fc ff ff
	ff ff		 mov	 DWORD PTR __$EHRec$[ebp+8], -1
  00081	a3 00 00 00 00	 mov	 DWORD PTR ?gs_pMMgr@@3PAVCMemManager@@A, eax ; gs_pMMgr

; 472  : 	if (!gs_pMMgr) {

  00086	85 c0		 test	 eax, eax
  00088	75 33		 jne	 SHORT $LN2@CCoreList
; File e:\infinia-library-3.0\com\include\comtypes.h

; 325  : 	sprintf(g_szSystemError, "ERROR! [%s:%d] %s\n", _szFunc, _nLine, pMsg);

  0008a	68 00 00 00 00	 push	 OFFSET ??_C@_0BN@HDEHFGON@gs_pMMgr?5alloc?5has?5Failed?$CB?$CB?$CB?$AA@
  0008f	68 d9 01 00 00	 push	 473			; 000001d9H
  00094	68 00 00 00 00	 push	 OFFSET ??_C@_0BF@NDGHGDGJ@CCoreList?3?3CCoreList?$AA@
  00099	68 00 00 00 00	 push	 OFFSET ??_C@_0BD@KEHDJCKJ@ERROR?$CB?5?$FL?$CFs?3?$CFd?$FN?5?$CFs?6?$AA@
  0009e	68 00 00 00 00	 push	 OFFSET ?g_szSystemError@@3PADA ; g_szSystemError
  000a3	e8 00 00 00 00	 call	 _sprintf

; 326  : 	printf(g_szSystemError);

  000a8	68 00 00 00 00	 push	 OFFSET ?g_szSystemError@@3PADA ; g_szSystemError
  000ad	e8 00 00 00 00	 call	 _printf
  000b2	83 c4 18	 add	 esp, 24			; 00000018H
; File e:\infinia-library-3.0\com\src\comcore.cpp

; 474  : 		exit(0);

  000b5	6a 00		 push	 0
  000b7	ff 15 00 00 00
	00		 call	 DWORD PTR __imp__exit
$LN17@CCoreList:
$LN2@CCoreList:

; 475  : 	}
; 476  : 
; 477  : 	if (!initSystemFile()) {

  000bd	8b ce		 mov	 ecx, esi
  000bf	e8 00 00 00 00	 call	 ?initSystemFile@CCoreList@@QAE_NXZ ; CCoreList::initSystemFile
  000c4	84 c0		 test	 al, al
  000c6	75 33		 jne	 SHORT $LN3@CCoreList
; File e:\infinia-library-3.0\com\include\comtypes.h

; 325  : 	sprintf(g_szSystemError, "ERROR! [%s:%d] %s\n", _szFunc, _nLine, pMsg);

  000c8	68 00 00 00 00	 push	 OFFSET ??_C@_0BP@LAGKIGDN@initSystemFile?$CI?$CJ?5has?5Failed?$CB?$CB?$CB?$AA@
  000cd	68 de 01 00 00	 push	 478			; 000001deH
  000d2	68 00 00 00 00	 push	 OFFSET ??_C@_0BF@NDGHGDGJ@CCoreList?3?3CCoreList?$AA@
  000d7	68 00 00 00 00	 push	 OFFSET ??_C@_0BD@KEHDJCKJ@ERROR?$CB?5?$FL?$CFs?3?$CFd?$FN?5?$CFs?6?$AA@
  000dc	68 00 00 00 00	 push	 OFFSET ?g_szSystemError@@3PADA ; g_szSystemError
  000e1	e8 00 00 00 00	 call	 _sprintf

; 326  : 	printf(g_szSystemError);

  000e6	68 00 00 00 00	 push	 OFFSET ?g_szSystemError@@3PADA ; g_szSystemError
  000eb	e8 00 00 00 00	 call	 _printf
  000f0	83 c4 18	 add	 esp, 24			; 00000018H
; File e:\infinia-library-3.0\com\src\comcore.cpp

; 479  : 		exit(0);

  000f3	6a 00		 push	 0
  000f5	ff 15 00 00 00
	00		 call	 DWORD PTR __imp__exit
$LN18@CCoreList:
$LN3@CCoreList:

; 480  : 	}
; 481  : 	if (!start())

  000fb	8b ce		 mov	 ecx, esi
  000fd	e8 00 00 00 00	 call	 ?start@CCoreList@@QAE_NXZ ; CCoreList::start
  00102	84 c0		 test	 al, al
  00104	75 33		 jne	 SHORT $LN4@CCoreList
; File e:\infinia-library-3.0\com\include\comtypes.h

; 325  : 	sprintf(g_szSystemError, "ERROR! [%s:%d] %s\n", _szFunc, _nLine, pMsg);

  00106	68 00 00 00 00	 push	 OFFSET ??_C@_0BG@MKOFPAPC@start?$CI?$CJ?5has?5Failed?$CB?$CB?$CB?$AA@
  0010b	68 e3 01 00 00	 push	 483			; 000001e3H
  00110	68 00 00 00 00	 push	 OFFSET ??_C@_0BF@NDGHGDGJ@CCoreList?3?3CCoreList?$AA@
  00115	68 00 00 00 00	 push	 OFFSET ??_C@_0BD@KEHDJCKJ@ERROR?$CB?5?$FL?$CFs?3?$CFd?$FN?5?$CFs?6?$AA@
  0011a	68 00 00 00 00	 push	 OFFSET ?g_szSystemError@@3PADA ; g_szSystemError
  0011f	e8 00 00 00 00	 call	 _sprintf

; 326  : 	printf(g_szSystemError);

  00124	68 00 00 00 00	 push	 OFFSET ?g_szSystemError@@3PADA ; g_szSystemError
  00129	e8 00 00 00 00	 call	 _printf
  0012e	83 c4 18	 add	 esp, 24			; 00000018H
; File e:\infinia-library-3.0\com\src\comcore.cpp

; 484  : 		exit(0);

  00131	6a 00		 push	 0
  00133	ff 15 00 00 00
	00		 call	 DWORD PTR __imp__exit
$LN19@CCoreList:
$LN4@CCoreList:

; 485  : 	}	
; 486  : }

  00139	8b c6		 mov	 eax, esi
  0013b	8b 4d f4	 mov	 ecx, DWORD PTR __$EHRec$[ebp]
  0013e	64 89 0d 00 00
	00 00		 mov	 DWORD PTR fs:0, ecx
  00145	59		 pop	 ecx
  00146	5e		 pop	 esi
  00147	8b e5		 mov	 esp, ebp
  00149	5d		 pop	 ebp
  0014a	c3		 ret	 0
$LN16@CCoreList:
_TEXT	ENDS
;	COMDAT text$x
text$x	SEGMENT
__unwindfunclet$??0CCoreList@@QAE@XZ$0:
  00000	68 00 00 00 00	 push	 OFFSET ?nothrow@std@@3Unothrow_t@1@B ; std::nothrow
  00005	8b 45 f0	 mov	 eax, DWORD PTR $T2[ebp]
  00008	50		 push	 eax
  00009	e8 00 00 00 00	 call	 ??3@YAXPAXABUnothrow_t@std@@@Z ; operator delete
  0000e	83 c4 08	 add	 esp, 8
  00011	c3		 ret	 0
__ehhandler$??0CCoreList@@QAE@XZ:
  00012	8b 54 24 08	 mov	 edx, DWORD PTR [esp+8]
  00016	8d 42 0c	 lea	 eax, DWORD PTR [edx+12]
  00019	8b 4a f4	 mov	 ecx, DWORD PTR [edx-12]
  0001c	33 c8		 xor	 ecx, eax
  0001e	e8 00 00 00 00	 call	 @__security_check_cookie@4
  00023	b8 00 00 00 00	 mov	 eax, OFFSET __ehfuncinfo$??0CCoreList@@QAE@XZ
  00028	e9 00 00 00 00	 jmp	 ___CxxFrameHandler3
text$x	ENDS
??0CCoreList@@QAE@XZ ENDP				; CCoreList::CCoreList
; Function compile flags: /Ogtp
; File e:\infinia-library-3.0\com\src\comcore.cpp
; File e:\infinia-library-3.0\com\include\com\win32\win32_mtsync.h
; File e:\infinia-library-3.0\com\include\com\abstract_mtsync.h
;	COMDAT ??_ECComQueueThread@@QAEPAXI@Z
_TEXT	SEGMENT
__$EHRec$ = -12						; size = 12
___flags$ = 8						; size = 4
??_ECComQueueThread@@QAEPAXI@Z PROC			; CComQueueThread::`vector deleting destructor', COMDAT
; _this$ = ecx
  00000	55		 push	 ebp
  00001	8b ec		 mov	 ebp, esp
  00003	6a ff		 push	 -1
  00005	68 00 00 00 00	 push	 __ehhandler$??_ECComQueueThread@@QAEPAXI@Z
  0000a	64 a1 00 00 00
	00		 mov	 eax, DWORD PTR fs:0
  00010	50		 push	 eax
  00011	53		 push	 ebx
  00012	56		 push	 esi
  00013	57		 push	 edi
  00014	a1 00 00 00 00	 mov	 eax, DWORD PTR ___security_cookie
  00019	33 c5		 xor	 eax, ebp
  0001b	50		 push	 eax
  0001c	8d 45 f4	 lea	 eax, DWORD PTR __$EHRec$[ebp]
  0001f	64 a3 00 00 00
	00		 mov	 DWORD PTR fs:0, eax
  00025	8b f1		 mov	 esi, ecx
  00027	8b 5d 08	 mov	 ebx, DWORD PTR ___flags$[ebp]
  0002a	f6 c3 02	 test	 bl, 2
  0002d	74 3e		 je	 SHORT $LN2@vector
  0002f	68 00 00 00 00	 push	 OFFSET ??1CComQueueThread@@QAE@XZ ; CComQueueThread::~CComQueueThread
  00034	ff 76 fc	 push	 DWORD PTR [esi-4]
  00037	8d 7e fc	 lea	 edi, DWORD PTR [esi-4]
  0003a	6a 68		 push	 104			; 00000068H
  0003c	56		 push	 esi
  0003d	e8 00 00 00 00	 call	 ??_M@YGXPAXIIP6EX0@Z@Z
  00042	f6 c3 01	 test	 bl, 1
  00045	74 10		 je	 SHORT $LN3@vector
  00047	6b 0f 68	 imul	 ecx, DWORD PTR [edi], 104
  0004a	83 c1 04	 add	 ecx, 4
  0004d	51		 push	 ecx
  0004e	57		 push	 edi
  0004f	e8 00 00 00 00	 call	 ??_V@YAXPAXI@Z		; operator delete[]
  00054	83 c4 08	 add	 esp, 8
$LN3@vector:
  00057	8b c7		 mov	 eax, edi
  00059	8b 4d f4	 mov	 ecx, DWORD PTR __$EHRec$[ebp]
  0005c	64 89 0d 00 00
	00 00		 mov	 DWORD PTR fs:0, ecx
  00063	59		 pop	 ecx
  00064	5f		 pop	 edi
  00065	5e		 pop	 esi
  00066	5b		 pop	 ebx
  00067	8b e5		 mov	 esp, ebp
  00069	5d		 pop	 ebp
  0006a	c2 04 00	 ret	 4
$LN2@vector:
; File e:\infinia-library-3.0\com\src\comcore.cpp

; 66   : 	if (!m_stInfo.hTHID) return false;

  0006d	8b 46 04	 mov	 eax, DWORD PTR [esi+4]
  00070	8b 3d 00 00 00
	00		 mov	 edi, DWORD PTR __imp__CloseHandle@4
  00076	85 c0		 test	 eax, eax
  00078	74 07		 je	 SHORT $LN11@vector

; 67   : 	int nStatus = 0; // for linux
; 68   : 	m_stInfo.bActive = false;
; 69   : 	THREAD_JOIN(m_stInfo.hTHID, (void **)&nStatus);

  0007a	50		 push	 eax
  0007b	c6 46 1c 00	 mov	 BYTE PTR [esi+28], 0
  0007f	ff d7		 call	 edi
$LN11@vector:

; 407  : }

  00081	8d 4e 28	 lea	 ecx, DWORD PTR [esi+40]
  00084	e8 00 00 00 00	 call	 ??1CQueueS@@QAE@XZ	; CQueueS::~CQueueS

; 66   : 	if (!m_stInfo.hTHID) return false;

  00089	8b 46 04	 mov	 eax, DWORD PTR [esi+4]
  0008c	85 c0		 test	 eax, eax
  0008e	74 07		 je	 SHORT $LN17@vector

; 67   : 	int nStatus = 0; // for linux
; 68   : 	m_stInfo.bActive = false;
; 69   : 	THREAD_JOIN(m_stInfo.hTHID, (void **)&nStatus);

  00090	50		 push	 eax
  00091	c6 46 1c 00	 mov	 BYTE PTR [esi+28], 0
  00095	ff d7		 call	 edi
$LN17@vector:
; File e:\infinia-library-3.0\com\include\com\win32\win32_mtsync.h

; 64   : 	  ~condition() { CloseHandle(m_event); }

  00097	ff 76 0c	 push	 DWORD PTR [esi+12]
  0009a	c7 46 08 00 00
	00 00		 mov	 DWORD PTR [esi+8], OFFSET ??_7condition@win32@common@@6B@
  000a1	ff d7		 call	 edi
; File e:\infinia-library-3.0\com\include\com\abstract_mtsync.h

; 72   : 	virtual ~abstract_condition() {}

  000a3	c7 46 08 00 00
	00 00		 mov	 DWORD PTR [esi+8], OFFSET ??_7abstract_condition@common@@6B@
  000aa	f6 c3 01	 test	 bl, 1
  000ad	74 0b		 je	 SHORT $LN4@vector
  000af	6a 68		 push	 104			; 00000068H
  000b1	56		 push	 esi
  000b2	e8 00 00 00 00	 call	 ??3@YAXPAXI@Z		; operator delete
  000b7	83 c4 08	 add	 esp, 8
$LN4@vector:
  000ba	8b c6		 mov	 eax, esi
  000bc	8b 4d f4	 mov	 ecx, DWORD PTR __$EHRec$[ebp]
  000bf	64 89 0d 00 00
	00 00		 mov	 DWORD PTR fs:0, ecx
  000c6	59		 pop	 ecx
  000c7	5f		 pop	 edi
  000c8	5e		 pop	 esi
  000c9	5b		 pop	 ebx
  000ca	8b e5		 mov	 esp, ebp
  000cc	5d		 pop	 ebp
  000cd	c2 04 00	 ret	 4
_TEXT	ENDS
;	COMDAT text$x
text$x	SEGMENT
__ehhandler$??_ECComQueueThread@@QAEPAXI@Z:
  00000	8b 54 24 08	 mov	 edx, DWORD PTR [esp+8]
  00004	8d 42 0c	 lea	 eax, DWORD PTR [edx+12]
  00007	8b 4a f0	 mov	 ecx, DWORD PTR [edx-16]
  0000a	33 c8		 xor	 ecx, eax
  0000c	e8 00 00 00 00	 call	 @__security_check_cookie@4
  00011	b8 00 00 00 00	 mov	 eax, OFFSET __ehfuncinfo$??_ECComQueueThread@@QAEPAXI@Z
  00016	e9 00 00 00 00	 jmp	 ___CxxFrameHandler3
text$x	ENDS
??_ECComQueueThread@@QAEPAXI@Z ENDP			; CComQueueThread::`vector deleting destructor'
; Function compile flags: /Ogtp
; File e:\infinia-library-3.0\com\src\comcore.cpp
; File e:\infinia-library-3.0\com\include\com\win32\win32_mtsync.h
; File e:\infinia-library-3.0\com\include\com\abstract_mtsync.h
;	COMDAT ??_GCComQueueThread@@QAEPAXI@Z
_TEXT	SEGMENT
___flags$ = 8						; size = 4
??_GCComQueueThread@@QAEPAXI@Z PROC			; CComQueueThread::`scalar deleting destructor', COMDAT
; _this$ = ecx
  00000	55		 push	 ebp
  00001	8b ec		 mov	 ebp, esp
  00003	56		 push	 esi
  00004	8b f1		 mov	 esi, ecx
  00006	57		 push	 edi
; File e:\infinia-library-3.0\com\src\comcore.cpp

; 66   : 	if (!m_stInfo.hTHID) return false;

  00007	8b 3d 00 00 00
	00		 mov	 edi, DWORD PTR __imp__CloseHandle@4
  0000d	8b 46 04	 mov	 eax, DWORD PTR [esi+4]
  00010	85 c0		 test	 eax, eax
  00012	74 07		 je	 SHORT $LN9@scalar

; 67   : 	int nStatus = 0; // for linux
; 68   : 	m_stInfo.bActive = false;
; 69   : 	THREAD_JOIN(m_stInfo.hTHID, (void **)&nStatus);

  00014	50		 push	 eax
  00015	c6 46 1c 00	 mov	 BYTE PTR [esi+28], 0
  00019	ff d7		 call	 edi
$LN9@scalar:

; 407  : }

  0001b	8d 4e 28	 lea	 ecx, DWORD PTR [esi+40]
  0001e	e8 00 00 00 00	 call	 ??1CQueueS@@QAE@XZ	; CQueueS::~CQueueS

; 66   : 	if (!m_stInfo.hTHID) return false;

  00023	8b 46 04	 mov	 eax, DWORD PTR [esi+4]
  00026	85 c0		 test	 eax, eax
  00028	74 07		 je	 SHORT $LN15@scalar

; 67   : 	int nStatus = 0; // for linux
; 68   : 	m_stInfo.bActive = false;
; 69   : 	THREAD_JOIN(m_stInfo.hTHID, (void **)&nStatus);

  0002a	50		 push	 eax
  0002b	c6 46 1c 00	 mov	 BYTE PTR [esi+28], 0
  0002f	ff d7		 call	 edi
$LN15@scalar:
; File e:\infinia-library-3.0\com\include\com\win32\win32_mtsync.h

; 64   : 	  ~condition() { CloseHandle(m_event); }

  00031	ff 76 0c	 push	 DWORD PTR [esi+12]
  00034	c7 46 08 00 00
	00 00		 mov	 DWORD PTR [esi+8], OFFSET ??_7condition@win32@common@@6B@
  0003b	ff d7		 call	 edi
  0003d	f6 45 08 01	 test	 BYTE PTR ___flags$[ebp], 1
; File e:\infinia-library-3.0\com\include\com\abstract_mtsync.h

; 72   : 	virtual ~abstract_condition() {}

  00041	c7 46 08 00 00
	00 00		 mov	 DWORD PTR [esi+8], OFFSET ??_7abstract_condition@common@@6B@
  00048	74 0b		 je	 SHORT $LN27@scalar
  0004a	6a 68		 push	 104			; 00000068H
  0004c	56		 push	 esi
  0004d	e8 00 00 00 00	 call	 ??3@YAXPAXI@Z		; operator delete
  00052	83 c4 08	 add	 esp, 8
$LN27@scalar:
  00055	5f		 pop	 edi
  00056	8b c6		 mov	 eax, esi
  00058	5e		 pop	 esi
  00059	5d		 pop	 ebp
  0005a	c2 04 00	 ret	 4
??_GCComQueueThread@@QAEPAXI@Z ENDP			; CComQueueThread::`scalar deleting destructor'
_TEXT	ENDS
; Function compile flags: /Ogtp
; File e:\infinia-library-3.0\com\include\comcore.h
;	COMDAT ?getEvent@CComQueueThread@@QAEPAUSTEvent@@XZ
_TEXT	SEGMENT
?getEvent@CComQueueThread@@QAEPAUSTEvent@@XZ PROC	; CComQueueThread::getEvent, COMDAT
; _this$ = ecx

; 168  : 	STEvent *getEvent() { return (STEvent *)m_sLogQueue.pop(); }

  00000	83 c1 28	 add	 ecx, 40			; 00000028H
  00003	e9 00 00 00 00	 jmp	 ?pop@CQueueS@@QAEPAXXZ	; CQueueS::pop
?getEvent@CComQueueThread@@QAEPAUSTEvent@@XZ ENDP	; CComQueueThread::getEvent
_TEXT	ENDS
; Function compile flags: /Ogtp
; File e:\infinia-library-3.0\com\include\comcore.h
;	COMDAT ?putQueue@CComQueueThread@@QAE_NPAUSTEvent@@@Z
_TEXT	SEGMENT
_p$ = 8							; size = 4
?putQueue@CComQueueThread@@QAE_NPAUSTEvent@@@Z PROC	; CComQueueThread::putQueue, COMDAT
; _this$ = ecx

; 167  : 	bool putQueue(STEvent *p) { if (m_cThread.bActive()) { m_sLogQueue.push(p); m_cThread.sendSignal(); return true; } return false; }

  00000	55		 push	 ebp
  00001	8b ec		 mov	 ebp, esp
  00003	56		 push	 esi
  00004	8b f1		 mov	 esi, ecx
  00006	80 7e 1c 00	 cmp	 BYTE PTR [esi+28], 0
  0000a	74 1b		 je	 SHORT $LN2@putQueue
  0000c	ff 75 08	 push	 DWORD PTR _p$[ebp]
  0000f	8d 4e 28	 lea	 ecx, DWORD PTR [esi+40]
  00012	e8 00 00 00 00	 call	 ?push@CQueueS@@QAE_NPAX@Z ; CQueueS::push

; 92   : 	inline void sendSignal() { m_stInfo.cThreadCond.signal(); }

  00017	8b 46 08	 mov	 eax, DWORD PTR [esi+8]
  0001a	8d 4e 08	 lea	 ecx, DWORD PTR [esi+8]
  0001d	ff 50 04	 call	 DWORD PTR [eax+4]

; 167  : 	bool putQueue(STEvent *p) { if (m_cThread.bActive()) { m_sLogQueue.push(p); m_cThread.sendSignal(); return true; } return false; }

  00020	b0 01		 mov	 al, 1
  00022	5e		 pop	 esi
  00023	5d		 pop	 ebp
  00024	c2 04 00	 ret	 4
$LN2@putQueue:
  00027	32 c0		 xor	 al, al
  00029	5e		 pop	 esi
  0002a	5d		 pop	 ebp
  0002b	c2 04 00	 ret	 4
?putQueue@CComQueueThread@@QAE_NPAUSTEvent@@@Z ENDP	; CComQueueThread::putQueue
_TEXT	ENDS
; Function compile flags: /Ogtp
; File e:\infinia-library-3.0\com\src\comcore.cpp
;	COMDAT ?quit@CComQueueThread@@QAE_NXZ
_TEXT	SEGMENT
?quit@CComQueueThread@@QAE_NXZ PROC			; CComQueueThread::quit, COMDAT
; _this$ = ecx

; 66   : 	if (!m_stInfo.hTHID) return false;

  00000	8b 41 04	 mov	 eax, DWORD PTR [ecx+4]
  00003	85 c0		 test	 eax, eax
  00005	74 0b		 je	 SHORT $LN6@quit

; 67   : 	int nStatus = 0; // for linux
; 68   : 	m_stInfo.bActive = false;
; 69   : 	THREAD_JOIN(m_stInfo.hTHID, (void **)&nStatus);

  00007	50		 push	 eax
  00008	c6 41 1c 00	 mov	 BYTE PTR [ecx+28], 0
  0000c	ff 15 00 00 00
	00		 call	 DWORD PTR __imp__CloseHandle@4
$LN6@quit:

; 445  : 	m_cThread.quit();
; 446  : 	return true;

  00012	b0 01		 mov	 al, 1

; 447  : }

  00014	c3		 ret	 0
?quit@CComQueueThread@@QAE_NXZ ENDP			; CComQueueThread::quit
_TEXT	ENDS
; Function compile flags: /Ogtp
; File e:\infinia-library-3.0\com\src\comcore.cpp
; File e:\infinia-library-3.0\com\include\comtypes.h
; File e:\infinia-library-3.0\com\src\comcore.cpp
;	COMDAT ?start@CComQueueThread@@QAE_NXZ
_TEXT	SEGMENT
?start@CComQueueThread@@QAE_NXZ PROC			; CComQueueThread::start, COMDAT
; _this$ = ecx

; 431  : 	if (m_cThread.bActive()) return true;

  00000	80 79 1c 00	 cmp	 BYTE PTR [ecx+28], 0
  00004	75 55		 jne	 SHORT $LN4@start

; 35   : 	m_stInfo.pClass = pClass;

  00006	89 49 10	 mov	 DWORD PTR [ecx+16], ecx

; 36   : 	m_stInfo.pObj = pObj;

  00009	c7 41 14 00 00
	00 00		 mov	 DWORD PTR [ecx+20], 0

; 37   : 	m_stInfo.millisecSleep = millisec;

  00010	c7 41 20 ff ff
	ff ff		 mov	 DWORD PTR [ecx+32], -1

; 38   : 	m_fpLoopProc = fpProc;

  00017	c7 01 00 00 00
	00		 mov	 DWORD PTR [ecx], OFFSET ?eventThreadLoop@@YAXPAUSTThreadInfo@@@Z ; eventThreadLoop

; 39   : 	m_nMillisecSleep = millisec;

  0001d	c7 41 24 ff ff
	ff ff		 mov	 DWORD PTR [ecx+36], -1

; 432  : 	if (!m_cThread.init(eventThreadLoop, this, INFINITE)) {
; 433  : 		comErrorPrint("m_cThread.init");
; 434  : 		return false;
; 435  : 	}
; 436  : 	if (!m_cThread.start()) {

  00024	e8 00 00 00 00	 call	 ?start@CComThread@@QAE_NXZ ; CComThread::start
  00029	84 c0		 test	 al, al
  0002b	75 2e		 jne	 SHORT $LN4@start
; File e:\infinia-library-3.0\com\include\comtypes.h

; 325  : 	sprintf(g_szSystemError, "ERROR! [%s:%d] %s\n", _szFunc, _nLine, pMsg);

  0002d	68 00 00 00 00	 push	 OFFSET ??_C@_0BA@OBGMEFJD@m_cThread?4start?$AA@
  00032	68 b5 01 00 00	 push	 437			; 000001b5H
  00037	68 00 00 00 00	 push	 OFFSET ??_C@_0BH@PGJBCDJH@CComQueueThread?3?3start?$AA@
  0003c	68 00 00 00 00	 push	 OFFSET ??_C@_0BD@KEHDJCKJ@ERROR?$CB?5?$FL?$CFs?3?$CFd?$FN?5?$CFs?6?$AA@
  00041	68 00 00 00 00	 push	 OFFSET ?g_szSystemError@@3PADA ; g_szSystemError
  00046	e8 00 00 00 00	 call	 _sprintf

; 326  : 	printf(g_szSystemError);

  0004b	68 00 00 00 00	 push	 OFFSET ?g_szSystemError@@3PADA ; g_szSystemError
  00050	e8 00 00 00 00	 call	 _printf
  00055	83 c4 18	 add	 esp, 24			; 00000018H
; File e:\infinia-library-3.0\com\src\comcore.cpp

; 438  : 		return false;

  00058	32 c0		 xor	 al, al

; 441  : }

  0005a	c3		 ret	 0
$LN4@start:

; 439  : 	}
; 440  : 	return true;

  0005b	b0 01		 mov	 al, 1

; 441  : }

  0005d	c3		 ret	 0
?start@CComQueueThread@@QAE_NXZ ENDP			; CComQueueThread::start
_TEXT	ENDS
; Function compile flags: /Ogtp
; File e:\infinia-library-3.0\com\src\comcore.cpp
; File e:\infinia-library-3.0\com\include\comcore.h
; File e:\infinia-library-3.0\com\src\comcore.cpp
;	COMDAT ?init@CComQueueThread@@QAE_NHH@Z
_TEXT	SEGMENT
_nCount$ = 8						; size = 4
_nIdx$ = 12						; size = 4
?init@CComQueueThread@@QAE_NHH@Z PROC			; CComQueueThread::init, COMDAT
; _this$ = ecx

; 422  : {

  00000	55		 push	 ebp
  00001	8b ec		 mov	 ebp, esp
  00003	57		 push	 edi
  00004	8b f9		 mov	 edi, ecx

; 423  : 	if (!m_sLogQueue.alloc(nCount, eAlloc_Type_none)) { printf("has Failed!! m_sLogQueue.alloc(%d)\n", nCount); return false; }

  00006	6a 00		 push	 0
  00008	ff 75 08	 push	 DWORD PTR _nCount$[ebp]
  0000b	8d 4f 28	 lea	 ecx, DWORD PTR [edi+40]
  0000e	e8 00 00 00 00	 call	 ?alloc@CQueueS@@QAE_NHW4E_ALLOC_TYPE@@@Z ; CQueueS::alloc
  00013	84 c0		 test	 al, al
  00015	75 17		 jne	 SHORT $LN2@init
  00017	ff 75 08	 push	 DWORD PTR _nCount$[ebp]
  0001a	68 00 00 00 00	 push	 OFFSET ??_C@_0CE@FNDHGGOO@has?5Failed?$CB?$CB?5m_sLogQueue?4alloc?$CI?$CF@
  0001f	e8 00 00 00 00	 call	 _printf
  00024	83 c4 08	 add	 esp, 8
  00027	32 c0		 xor	 al, al
  00029	5f		 pop	 edi

; 426  : }

  0002a	5d		 pop	 ebp
  0002b	c2 08 00	 ret	 8
$LN2@init:
; File e:\infinia-library-3.0\com\include\comcore.h

; 90   : 	inline void setIdx(int nIdx) { m_stInfo.nIdx = nIdx; }

  0002e	8b 45 0c	 mov	 eax, DWORD PTR _nIdx$[ebp]
  00031	89 47 18	 mov	 DWORD PTR [edi+24], eax
; File e:\infinia-library-3.0\com\src\comcore.cpp

; 425  : 	return true;

  00034	b0 01		 mov	 al, 1
  00036	5f		 pop	 edi

; 426  : }

  00037	5d		 pop	 ebp
  00038	c2 08 00	 ret	 8
?init@CComQueueThread@@QAE_NHH@Z ENDP			; CComQueueThread::init
_TEXT	ENDS
; Function compile flags: /Ogtp
; File e:\infinia-library-3.0\com\src\comcore.cpp
;	COMDAT ?initConfig@CComQueueThread@@QAE_NPADH0@Z
_TEXT	SEGMENT
_szSect$ = -28						; size = 24
__$ArrayPad$ = -4					; size = 4
_pConfigFile$ = 8					; size = 4
_seq$ = 12						; size = 4
_pSection$ = 16						; size = 4
?initConfig@CComQueueThread@@QAE_NPADH0@Z PROC		; CComQueueThread::initConfig, COMDAT
; _this$ = ecx

; 410  : {

  00000	55		 push	 ebp
  00001	8b ec		 mov	 ebp, esp
  00003	83 ec 1c	 sub	 esp, 28			; 0000001cH
  00006	a1 00 00 00 00	 mov	 eax, DWORD PTR ___security_cookie
  0000b	33 c5		 xor	 eax, ebp
  0000d	89 45 fc	 mov	 DWORD PTR __$ArrayPad$[ebp], eax
  00010	8b 45 10	 mov	 eax, DWORD PTR _pSection$[ebp]
  00013	56		 push	 esi
  00014	8b 75 08	 mov	 esi, DWORD PTR _pConfigFile$[ebp]
  00017	57		 push	 edi

; 411  : 	TCHAR szSect[24];
; 412  : 	int nCount;
; 413  : 
; 414  : 	_stprintf(szSect, _T("%s_%d"), pSection, seq);

  00018	ff 75 0c	 push	 DWORD PTR _seq$[ebp]
  0001b	8b f9		 mov	 edi, ecx
  0001d	50		 push	 eax
  0001e	8d 45 e4	 lea	 eax, DWORD PTR _szSect$[ebp]
  00021	68 00 00 00 00	 push	 OFFSET ??_C@_05LFHGFJK@?$CFs_?$CFd?$AA@
  00026	50		 push	 eax
  00027	e8 00 00 00 00	 call	 _sprintf
  0002c	83 c4 10	 add	 esp, 16			; 00000010H

; 415  : 	nCount = GetPrivateProfileInt(szSect, _T("LIST_COUNT"), 20, pConfigFile) + LIST_ADD_COUNT;

  0002f	8d 45 e4	 lea	 eax, DWORD PTR _szSect$[ebp]
  00032	56		 push	 esi
  00033	6a 14		 push	 20			; 00000014H
  00035	68 00 00 00 00	 push	 OFFSET ??_C@_0L@GOMEIANA@LIST_COUNT?$AA@
  0003a	50		 push	 eax
  0003b	ff 15 00 00 00
	00		 call	 DWORD PTR __imp__GetPrivateProfileIntA@16

; 416  : 
; 417  : 	if (!m_sLogQueue.alloc(nCount, eAlloc_Type_none)) { printf("has Failed!! m_sLogQueue.alloc(%d)\n", nCount); return false; }

  00041	6a 00		 push	 0
  00043	8d 4f 28	 lea	 ecx, DWORD PTR [edi+40]
  00046	8d 70 0a	 lea	 esi, DWORD PTR [eax+10]
  00049	56		 push	 esi
  0004a	e8 00 00 00 00	 call	 ?alloc@CQueueS@@QAE_NHW4E_ALLOC_TYPE@@@Z ; CQueueS::alloc
  0004f	84 c0		 test	 al, al
  00051	75 22		 jne	 SHORT $LN2@initConfig
  00053	56		 push	 esi
  00054	68 00 00 00 00	 push	 OFFSET ??_C@_0CE@FNDHGGOO@has?5Failed?$CB?$CB?5m_sLogQueue?4alloc?$CI?$CF@
  00059	e8 00 00 00 00	 call	 _printf
  0005e	83 c4 08	 add	 esp, 8
  00061	32 c0		 xor	 al, al
  00063	5f		 pop	 edi
  00064	5e		 pop	 esi

; 418  : 	return true;
; 419  : }

  00065	8b 4d fc	 mov	 ecx, DWORD PTR __$ArrayPad$[ebp]
  00068	33 cd		 xor	 ecx, ebp
  0006a	e8 00 00 00 00	 call	 @__security_check_cookie@4
  0006f	8b e5		 mov	 esp, ebp
  00071	5d		 pop	 ebp
  00072	c2 0c 00	 ret	 12			; 0000000cH
$LN2@initConfig:
  00075	8b 4d fc	 mov	 ecx, DWORD PTR __$ArrayPad$[ebp]
  00078	b0 01		 mov	 al, 1
  0007a	5f		 pop	 edi
  0007b	33 cd		 xor	 ecx, ebp
  0007d	5e		 pop	 esi
  0007e	e8 00 00 00 00	 call	 @__security_check_cookie@4
  00083	8b e5		 mov	 esp, ebp
  00085	5d		 pop	 ebp
  00086	c2 0c 00	 ret	 12			; 0000000cH
?initConfig@CComQueueThread@@QAE_NPADH0@Z ENDP		; CComQueueThread::initConfig
_TEXT	ENDS
; Function compile flags: /Ogtp
; File e:\infinia-library-3.0\com\src\comcore.cpp
; File e:\infinia-library-3.0\com\include\com\win32\win32_mtsync.h
; File e:\infinia-library-3.0\com\include\com\abstract_mtsync.h
; File e:\infinia-library-3.0\com\src\comcore.cpp
;	COMDAT ??1CComQueueThread@@QAE@XZ
_TEXT	SEGMENT
??1CComQueueThread@@QAE@XZ PROC				; CComQueueThread::~CComQueueThread, COMDAT
; _this$ = ecx

; 405  : {

  00000	56		 push	 esi
  00001	8b f1		 mov	 esi, ecx
  00003	57		 push	 edi

; 66   : 	if (!m_stInfo.hTHID) return false;

  00004	8b 3d 00 00 00
	00		 mov	 edi, DWORD PTR __imp__CloseHandle@4
  0000a	8b 46 04	 mov	 eax, DWORD PTR [esi+4]
  0000d	85 c0		 test	 eax, eax
  0000f	74 07		 je	 SHORT $LN5@CComQueueT

; 67   : 	int nStatus = 0; // for linux
; 68   : 	m_stInfo.bActive = false;
; 69   : 	THREAD_JOIN(m_stInfo.hTHID, (void **)&nStatus);

  00011	50		 push	 eax
  00012	c6 46 1c 00	 mov	 BYTE PTR [esi+28], 0
  00016	ff d7		 call	 edi
$LN5@CComQueueT:

; 407  : }

  00018	8d 4e 28	 lea	 ecx, DWORD PTR [esi+40]
  0001b	e8 00 00 00 00	 call	 ??1CQueueS@@QAE@XZ	; CQueueS::~CQueueS

; 66   : 	if (!m_stInfo.hTHID) return false;

  00020	8b 46 04	 mov	 eax, DWORD PTR [esi+4]
  00023	85 c0		 test	 eax, eax
  00025	74 07		 je	 SHORT $LN11@CComQueueT

; 67   : 	int nStatus = 0; // for linux
; 68   : 	m_stInfo.bActive = false;
; 69   : 	THREAD_JOIN(m_stInfo.hTHID, (void **)&nStatus);

  00027	50		 push	 eax
  00028	c6 46 1c 00	 mov	 BYTE PTR [esi+28], 0
  0002c	ff d7		 call	 edi
$LN11@CComQueueT:
; File e:\infinia-library-3.0\com\include\com\win32\win32_mtsync.h

; 64   : 	  ~condition() { CloseHandle(m_event); }

  0002e	ff 76 0c	 push	 DWORD PTR [esi+12]
  00031	c7 46 08 00 00
	00 00		 mov	 DWORD PTR [esi+8], OFFSET ??_7condition@win32@common@@6B@
  00038	ff d7		 call	 edi
  0003a	5f		 pop	 edi
; File e:\infinia-library-3.0\com\include\com\abstract_mtsync.h

; 72   : 	virtual ~abstract_condition() {}

  0003b	c7 46 08 00 00
	00 00		 mov	 DWORD PTR [esi+8], OFFSET ??_7abstract_condition@common@@6B@
  00042	5e		 pop	 esi
; File e:\infinia-library-3.0\com\src\comcore.cpp

; 407  : }

  00043	c3		 ret	 0
??1CComQueueThread@@QAE@XZ ENDP				; CComQueueThread::~CComQueueThread
_TEXT	ENDS
; Function compile flags: /Ogtp
; File e:\infinia-library-3.0\com\src\comcore.cpp
; File e:\infinia-library-3.0\com\include\com\win32\win32_mtsync.h
; File e:\infinia-library-3.0\com\src\comcore.cpp
;	COMDAT ??0CComQueueThread@@QAE@XZ
_TEXT	SEGMENT
_this$ = -16						; size = 4
__$EHRec$ = -12						; size = 12
??0CComQueueThread@@QAE@XZ PROC				; CComQueueThread::CComQueueThread, COMDAT
; _this$ = ecx

; 401  : {

  00000	55		 push	 ebp
  00001	8b ec		 mov	 ebp, esp
  00003	6a ff		 push	 -1
  00005	68 00 00 00 00	 push	 __ehhandler$??0CComQueueThread@@QAE@XZ
  0000a	64 a1 00 00 00
	00		 mov	 eax, DWORD PTR fs:0
  00010	50		 push	 eax
  00011	51		 push	 ecx
  00012	56		 push	 esi
  00013	a1 00 00 00 00	 mov	 eax, DWORD PTR ___security_cookie
  00018	33 c5		 xor	 eax, ebp
  0001a	50		 push	 eax
  0001b	8d 45 f4	 lea	 eax, DWORD PTR __$EHRec$[ebp]
  0001e	64 a3 00 00 00
	00		 mov	 DWORD PTR fs:0, eax
  00024	8b f1		 mov	 esi, ecx
  00026	89 75 f0	 mov	 DWORD PTR _this$[ebp], esi
; File e:\infinia-library-3.0\com\include\com\win32\win32_mtsync.h

; 63   : 	  condition() { m_event = CreateEvent(NULL, TRUE, FALSE, NULL);}

  00029	6a 00		 push	 0
  0002b	6a 00		 push	 0
  0002d	6a 01		 push	 1
  0002f	6a 00		 push	 0
  00031	c7 46 08 00 00
	00 00		 mov	 DWORD PTR [esi+8], OFFSET ??_7condition@win32@common@@6B@
  00038	ff 15 00 00 00
	00		 call	 DWORD PTR __imp__CreateEventA@16
  0003e	89 46 0c	 mov	 DWORD PTR [esi+12], eax
; File e:\infinia-library-3.0\com\src\comcore.cpp

; 16   : 	m_stInfo.bActive = false;

  00041	c6 46 1c 00	 mov	 BYTE PTR [esi+28], 0

; 17   : 	m_stInfo.hTHID = NULL;

  00045	c7 46 04 00 00
	00 00		 mov	 DWORD PTR [esi+4], 0

; 18   : 	m_stInfo.nIdx = -1;

  0004c	c7 46 18 ff ff
	ff ff		 mov	 DWORD PTR [esi+24], -1

; 19   : 	m_stInfo.pClass = NULL;

  00053	c7 46 10 00 00
	00 00		 mov	 DWORD PTR [esi+16], 0

; 20   : 	m_stInfo.millisecSleep = INFINITE;

  0005a	c7 46 20 ff ff
	ff ff		 mov	 DWORD PTR [esi+32], -1

; 21   : 	m_nMillisecSleep = INFINITE;

  00061	c7 46 24 ff ff
	ff ff		 mov	 DWORD PTR [esi+36], -1

; 22   : 	m_stInfo.pObj = NULL;

  00068	c7 46 14 00 00
	00 00		 mov	 DWORD PTR [esi+20], 0

; 23   : 	m_fpLoopProc = NULL;

  0006f	c7 06 00 00 00
	00		 mov	 DWORD PTR [esi], 0

; 401  : {

  00075	8d 4e 28	 lea	 ecx, DWORD PTR [esi+40]
  00078	c7 45 fc 00 00
	00 00		 mov	 DWORD PTR __$EHRec$[ebp+8], 0
  0007f	e8 00 00 00 00	 call	 ??0CQueueS@@QAE@XZ	; CQueueS::CQueueS

; 402  : 
; 403  : }

  00084	8b c6		 mov	 eax, esi
  00086	8b 4d f4	 mov	 ecx, DWORD PTR __$EHRec$[ebp]
  00089	64 89 0d 00 00
	00 00		 mov	 DWORD PTR fs:0, ecx
  00090	59		 pop	 ecx
  00091	5e		 pop	 esi
  00092	8b e5		 mov	 esp, ebp
  00094	5d		 pop	 ebp
  00095	c3		 ret	 0
_TEXT	ENDS
;	COMDAT text$x
text$x	SEGMENT
__unwindfunclet$??0CComQueueThread@@QAE@XZ$0:
  00000	8b 4d f0	 mov	 ecx, DWORD PTR _this$[ebp]
  00003	e9 00 00 00 00	 jmp	 ??1CComThread@@QAE@XZ	; CComThread::~CComThread
__ehhandler$??0CComQueueThread@@QAE@XZ:
  00008	8b 54 24 08	 mov	 edx, DWORD PTR [esp+8]
  0000c	8d 42 0c	 lea	 eax, DWORD PTR [edx+12]
  0000f	8b 4a f4	 mov	 ecx, DWORD PTR [edx-12]
  00012	33 c8		 xor	 ecx, eax
  00014	e8 00 00 00 00	 call	 @__security_check_cookie@4
  00019	b8 00 00 00 00	 mov	 eax, OFFSET __ehfuncinfo$??0CComQueueThread@@QAE@XZ
  0001e	e9 00 00 00 00	 jmp	 ___CxxFrameHandler3
text$x	ENDS
??0CComQueueThread@@QAE@XZ ENDP				; CComQueueThread::CComQueueThread
; Function compile flags: /Ogtp
; File e:\infinia-library-3.0\com\src\comcore.cpp
; File e:\infinia-library-3.0\com\include\comcore.h
; File e:\infinia-library-3.0\com\src\comcore.cpp
; File e:\infinia-library-3.0\com\include\comcore.h
; File e:\infinia-library-3.0\com\include\commempool.h
; File e:\infinia-library-3.0\com\src\comcore.cpp
; File e:\infinia-library-3.0\com\include\comcore.h
; File e:\infinia-library-3.0\com\include\commempool.h
; File e:\infinia-library-3.0\com\include\comtypes.h
; File e:\infinia-library-3.0\com\include\com\win32\win32_mtsync.h
; File e:\infinia-library-3.0\com\include\commempool.h
; File e:\infinia-library-3.0\com\include\comcore.h
; File e:\infinia-library-3.0\com\src\comcore.cpp
; File e:\infinia-library-3.0\com\include\commempool.h
; File e:\infinia-library-3.0\com\src\comcore.cpp
;	COMDAT ?eventThreadLoop@@YAXPAUSTThreadInfo@@@Z
_TEXT	SEGMENT
_p$ = 8							; size = 4
?eventThreadLoop@@YAXPAUSTThreadInfo@@@Z PROC		; eventThreadLoop, COMDAT

; 451  : {

  00000	55		 push	 ebp
  00001	8b ec		 mov	 ebp, esp

; 452  : 	CComQueueThread *pBasic = (CComQueueThread *)p->pClass;

  00003	8b 45 08	 mov	 eax, DWORD PTR _p$[ebp]
  00006	53		 push	 ebx
  00007	56		 push	 esi
  00008	8b 58 0c	 mov	 ebx, DWORD PTR [eax+12]
; File e:\infinia-library-3.0\com\include\comcore.h

; 168  : 	STEvent *getEvent() { return (STEvent *)m_sLogQueue.pop(); }

  0000b	8d 4b 28	 lea	 ecx, DWORD PTR [ebx+40]
  0000e	e8 00 00 00 00	 call	 ?pop@CQueueS@@QAEPAXXZ	; CQueueS::pop
; File e:\infinia-library-3.0\com\src\comcore.cpp

; 453  : 	STEvent *pEvent = pBasic->getEvent();

  00013	8b f0		 mov	 esi, eax

; 454  : 	while (pEvent)

  00015	85 f6		 test	 esi, esi
  00017	74 7e		 je	 SHORT $LN3@eventThrea
  00019	57		 push	 edi
  0001a	66 0f 1f 44 00
	00		 npad	 6
$LL2@eventThrea:

; 456  : 		pEvent->fpProc(pEvent->pObj, pEvent->pObj2, pEvent->nValue);

  00020	ff 76 04	 push	 DWORD PTR [esi+4]
  00023	8b 46 10	 mov	 eax, DWORD PTR [esi+16]
  00026	ff 76 0c	 push	 DWORD PTR [esi+12]
  00029	ff 76 08	 push	 DWORD PTR [esi+8]
  0002c	ff d0		 call	 eax
; File e:\infinia-library-3.0\com\include\comcore.h

; 196  : 	inline bool delEvent(STEvent *p) { return m_pEventPool->delMem(p); }

  0002e	a1 00 00 00 00	 mov	 eax, DWORD PTR ?gs_pCore@@3PAVCCoreList@@A ; gs_pCore
; File e:\infinia-library-3.0\com\include\commempool.h

; 208  : 	int nIdx = int(pUsedMem - m_pChunk);

  00033	8b ce		 mov	 ecx, esi
; File e:\infinia-library-3.0\com\src\comcore.cpp

; 456  : 		pEvent->fpProc(pEvent->pObj, pEvent->pObj2, pEvent->nValue);

  00035	83 c4 0c	 add	 esp, 12			; 0000000cH
; File e:\infinia-library-3.0\com\include\comcore.h

; 196  : 	inline bool delEvent(STEvent *p) { return m_pEventPool->delMem(p); }

  00038	8b 78 14	 mov	 edi, DWORD PTR [eax+20]
; File e:\infinia-library-3.0\com\include\commempool.h

; 208  : 	int nIdx = int(pUsedMem - m_pChunk);

  0003b	b8 67 66 66 66	 mov	 eax, 1717986919		; 66666667H
  00040	2b 4f 14	 sub	 ecx, DWORD PTR [edi+20]
  00043	f7 e9		 imul	 ecx
  00045	c1 fa 03	 sar	 edx, 3
  00048	8b ca		 mov	 ecx, edx
  0004a	c1 e9 1f	 shr	 ecx, 31			; 0000001fH
  0004d	03 ca		 add	 ecx, edx
; File e:\infinia-library-3.0\com\include\comtypes.h

; 322  : inline bool ISINCLUDE(int i, int max) { if (0 <= i && i < max) return true; return false; }

  0004f	78 1a		 js	 SHORT $LN12@eventThrea
  00051	3b 4f 0c	 cmp	 ecx, DWORD PTR [edi+12]
  00054	7d 15		 jge	 SHORT $LN12@eventThrea
; File e:\infinia-library-3.0\com\include\com\win32\win32_mtsync.h

; 94   : 	inline void init() { m_count = 0; }

  00056	8b 07		 mov	 eax, DWORD PTR [edi]
  00058	c7 04 88 00 00
	00 00		 mov	 DWORD PTR [eax+ecx*4], 0

; 98   : 	inline long atomic_decrement() { return InterlockedDecrement(&m_count);}

  0005f	8d 47 04	 lea	 eax, DWORD PTR [edi+4]
  00062	50		 push	 eax
  00063	ff 15 00 00 00
	00		 call	 DWORD PTR __imp__InterlockedDecrement@4
; File e:\infinia-library-3.0\com\include\commempool.h

; 213  : 		return true;

  00069	eb 1d		 jmp	 SHORT $LN16@eventThrea
$LN12@eventThrea:

; 214  : 	}
; 215  : 	switch (m_nObjAllocType) {

  0006b	8b 47 10	 mov	 eax, DWORD PTR [edi+16]
  0006e	83 e8 02	 sub	 eax, 2
  00071	74 0a		 je	 SHORT $LN13@eventThrea
  00073	83 e8 01	 sub	 eax, 1
  00076	74 23		 je	 SHORT $LN14@eventThrea
  00078	83 e8 02	 sub	 eax, 2
  0007b	75 0b		 jne	 SHORT $LN16@eventThrea
$LN13@eventThrea:

; 216  : 	case eAlloc_Type_new:
; 217  : 	case eAlloc_Type_newArray:	delete pUsedMem; break;

  0007d	6a 14		 push	 20			; 00000014H
  0007f	56		 push	 esi
  00080	e8 00 00 00 00	 call	 ??3@YAXPAXI@Z		; operator delete
  00085	83 c4 08	 add	 esp, 8
$LN16@eventThrea:
; File e:\infinia-library-3.0\com\include\comcore.h

; 168  : 	STEvent *getEvent() { return (STEvent *)m_sLogQueue.pop(); }

  00088	8d 4b 28	 lea	 ecx, DWORD PTR [ebx+40]
  0008b	e8 00 00 00 00	 call	 ?pop@CQueueS@@QAEPAXXZ	; CQueueS::pop
; File e:\infinia-library-3.0\com\src\comcore.cpp

; 458  : 		pEvent = pBasic->getEvent();

  00090	8b f0		 mov	 esi, eax
  00092	85 f6		 test	 esi, esi
  00094	75 8a		 jne	 SHORT $LL2@eventThrea
  00096	5f		 pop	 edi
$LN3@eventThrea:
  00097	5e		 pop	 esi
  00098	5b		 pop	 ebx

; 460  : }

  00099	5d		 pop	 ebp
  0009a	c3		 ret	 0
$LN14@eventThrea:
; File e:\infinia-library-3.0\com\include\commempool.h

; 218  : 	case eAlloc_Type_alloc:	free(pUsedMem); break;

  0009b	56		 push	 esi
  0009c	ff 15 00 00 00
	00		 call	 DWORD PTR __imp__free
  000a2	83 c4 04	 add	 esp, 4
  000a5	eb e1		 jmp	 SHORT $LN16@eventThrea
?eventThreadLoop@@YAXPAUSTThreadInfo@@@Z ENDP		; eventThreadLoop
_TEXT	ENDS
; Function compile flags: /Ogtp
;	COMDAT ??_G?$CMemList@USTIntervalInfo@@@@QAEPAXI@Z
_TEXT	SEGMENT
___flags$ = 8						; size = 4
??_G?$CMemList@USTIntervalInfo@@@@QAEPAXI@Z PROC	; CMemList<STIntervalInfo>::`scalar deleting destructor', COMDAT
; _this$ = ecx
  00000	55		 push	 ebp
  00001	8b ec		 mov	 ebp, esp
  00003	56		 push	 esi
  00004	8b f1		 mov	 esi, ecx
  00006	e8 00 00 00 00	 call	 ??1?$CMemList@USTIntervalInfo@@@@QAE@XZ ; CMemList<STIntervalInfo>::~CMemList<STIntervalInfo>
  0000b	f6 45 08 01	 test	 BYTE PTR ___flags$[ebp], 1
  0000f	74 0b		 je	 SHORT $LN4@scalar
  00011	6a 1c		 push	 28			; 0000001cH
  00013	56		 push	 esi
  00014	e8 00 00 00 00	 call	 ??3@YAXPAXI@Z		; operator delete
  00019	83 c4 08	 add	 esp, 8
$LN4@scalar:
  0001c	8b c6		 mov	 eax, esi
  0001e	5e		 pop	 esi
  0001f	5d		 pop	 ebp
  00020	c2 04 00	 ret	 4
??_G?$CMemList@USTIntervalInfo@@@@QAEPAXI@Z ENDP	; CMemList<STIntervalInfo>::`scalar deleting destructor'
_TEXT	ENDS
; Function compile flags: /Ogtp
;	COMDAT ?__autoclassinit2@?$CMemList@USTIntervalInfo@@@@QAEXI@Z
_TEXT	SEGMENT
_classSize$ = 8						; size = 4
?__autoclassinit2@?$CMemList@USTIntervalInfo@@@@QAEXI@Z PROC ; CMemList<STIntervalInfo>::__autoclassinit2, COMDAT
; _this$ = ecx
  00000	55		 push	 ebp
  00001	8b ec		 mov	 ebp, esp
  00003	ff 75 08	 push	 DWORD PTR _classSize$[ebp]
  00006	6a 00		 push	 0
  00008	51		 push	 ecx
  00009	e8 00 00 00 00	 call	 _memset
  0000e	83 c4 0c	 add	 esp, 12			; 0000000cH
  00011	5d		 pop	 ebp
  00012	c2 04 00	 ret	 4
?__autoclassinit2@?$CMemList@USTIntervalInfo@@@@QAEXI@Z ENDP ; CMemList<STIntervalInfo>::__autoclassinit2
_TEXT	ENDS
; Function compile flags: /Ogtp
; File e:\infinia-library-3.0\com\include\comtlist.h
; File e:\infinia-library-3.0\com\include\com\win32\win32_mtsync.h
; File e:\infinia-library-3.0\com\include\comtlist.h
;	COMDAT ?_del@?$CMemList@USTIntervalInfo@@@@AAEXH@Z
_TEXT	SEGMENT
_i$ = 8							; size = 4
?_del@?$CMemList@USTIntervalInfo@@@@AAEXH@Z PROC	; CMemList<STIntervalInfo>::_del, COMDAT
; _this$ = ecx

; 283  : {

  00000	55		 push	 ebp
  00001	8b ec		 mov	 ebp, esp
  00003	56		 push	 esi
  00004	8b f1		 mov	 esi, ecx
; File e:\infinia-library-3.0\com\include\com\win32\win32_mtsync.h

; 98   : 	inline long atomic_decrement() { return InterlockedDecrement(&m_count);}

  00006	8d 46 08	 lea	 eax, DWORD PTR [esi+8]
  00009	50		 push	 eax
  0000a	ff 15 00 00 00
	00		 call	 DWORD PTR __imp__InterlockedDecrement@4

; 93   : 	inline void setCount(int nVal) { m_count = (long)nVal; }

  00010	8b 46 04	 mov	 eax, DWORD PTR [esi+4]
  00013	8b 55 08	 mov	 edx, DWORD PTR _i$[ebp]
  00016	c7 04 90 00 00
	00 00		 mov	 DWORD PTR [eax+edx*4], 0
; File e:\infinia-library-3.0\com\include\comtlist.h

; 286  : 	if(m_nEmptyFirstIdx < 0) m_nEmptyFirstIdx = i;

  0001d	8b 46 0c	 mov	 eax, DWORD PTR [esi+12]
  00020	85 c0		 test	 eax, eax
  00022	78 04		 js	 SHORT $LN10@del

; 287  : 	else if (i < m_nEmptyFirstIdx) m_nEmptyFirstIdx = i;

  00024	3b d0		 cmp	 edx, eax
  00026	7d 03		 jge	 SHORT $LN4@del
$LN10@del:
  00028	89 56 0c	 mov	 DWORD PTR [esi+12], edx
$LN4@del:
  0002b	5e		 pop	 esi

; 288  : }

  0002c	5d		 pop	 ebp
  0002d	c2 04 00	 ret	 4
?_del@?$CMemList@USTIntervalInfo@@@@AAEXH@Z ENDP	; CMemList<STIntervalInfo>::_del
_TEXT	ENDS
; Function compile flags: /Ogtp
; File e:\infinia-library-3.0\com\include\comtlist.h
; File e:\infinia-library-3.0\com\include\comtypes.h
; File e:\infinia-library-3.0\com\include\comtlist.h
; File e:\infinia-library-3.0\com\include\com\win32\win32_mtsync.h
; File e:\infinia-library-3.0\com\include\comtlist.h
;	COMDAT ?del@?$CMemList@USTIntervalInfo@@@@QAE_NPAUSTIntervalInfo@@@Z
_TEXT	SEGMENT
_Obj$ = 8						; size = 4
?del@?$CMemList@USTIntervalInfo@@@@QAE_NPAUSTIntervalInfo@@@Z PROC ; CMemList<STIntervalInfo>::del, COMDAT
; _this$ = ecx

; 268  : {

  00000	55		 push	 ebp
  00001	8b ec		 mov	 ebp, esp
  00003	56		 push	 esi
  00004	57		 push	 edi
  00005	8b f9		 mov	 edi, ecx

; 269  : 	int i;
; 270  : 	for (i = 0; i < m_nMaxCount; i++)

  00007	33 f6		 xor	 esi, esi
  00009	8b 4f 10	 mov	 ecx, DWORD PTR [edi+16]
  0000c	85 c9		 test	 ecx, ecx
  0000e	7e 11		 jle	 SHORT $LN3@del

; 271  : 	{
; 272  : 		if (m_pArray[i] == Obj) {

  00010	8b 07		 mov	 eax, DWORD PTR [edi]
  00012	8b 55 08	 mov	 edx, DWORD PTR _Obj$[ebp]
$LL4@del:
  00015	39 10		 cmp	 DWORD PTR [eax], edx
  00017	74 3b		 je	 SHORT $LN19@del

; 269  : 	int i;
; 270  : 	for (i = 0; i < m_nMaxCount; i++)

  00019	46		 inc	 esi
  0001a	83 c0 04	 add	 eax, 4
  0001d	3b f1		 cmp	 esi, ecx
  0001f	7c f4		 jl	 SHORT $LL4@del
$LN3@del:
; File e:\infinia-library-3.0\com\include\comtypes.h

; 325  : 	sprintf(g_szSystemError, "ERROR! [%s:%d] %s\n", _szFunc, _nLine, pMsg);

  00021	68 00 00 00 00	 push	 OFFSET ??_C@_0P@CNFDBGJN@can?8t?5find?5obj?$AA@
  00026	68 15 01 00 00	 push	 277			; 00000115H
  0002b	68 00 00 00 00	 push	 OFFSET ??_C@_0CF@PKOFFFAP@CMemList?$DMstruct?5STIntervalInfo?$DO?3@
  00030	68 00 00 00 00	 push	 OFFSET ??_C@_0BD@KEHDJCKJ@ERROR?$CB?5?$FL?$CFs?3?$CFd?$FN?5?$CFs?6?$AA@
  00035	68 00 00 00 00	 push	 OFFSET ?g_szSystemError@@3PADA ; g_szSystemError
  0003a	e8 00 00 00 00	 call	 _sprintf

; 326  : 	printf(g_szSystemError);

  0003f	68 00 00 00 00	 push	 OFFSET ?g_szSystemError@@3PADA ; g_szSystemError
  00044	e8 00 00 00 00	 call	 _printf
  00049	83 c4 18	 add	 esp, 24			; 00000018H
; File e:\infinia-library-3.0\com\include\comtlist.h

; 278  : 	return false;

  0004c	32 c0		 xor	 al, al
  0004e	5f		 pop	 edi
  0004f	5e		 pop	 esi

; 279  : }

  00050	5d		 pop	 ebp
  00051	c2 04 00	 ret	 4
$LN19@del:
; File e:\infinia-library-3.0\com\include\com\win32\win32_mtsync.h

; 98   : 	inline long atomic_decrement() { return InterlockedDecrement(&m_count);}

  00054	8d 47 08	 lea	 eax, DWORD PTR [edi+8]
  00057	50		 push	 eax
  00058	ff 15 00 00 00
	00		 call	 DWORD PTR __imp__InterlockedDecrement@4

; 93   : 	inline void setCount(int nVal) { m_count = (long)nVal; }

  0005e	8b 47 04	 mov	 eax, DWORD PTR [edi+4]
  00061	c7 04 b0 00 00
	00 00		 mov	 DWORD PTR [eax+esi*4], 0
; File e:\infinia-library-3.0\com\include\comtlist.h

; 286  : 	if(m_nEmptyFirstIdx < 0) m_nEmptyFirstIdx = i;

  00068	8b 47 0c	 mov	 eax, DWORD PTR [edi+12]
  0006b	85 c0		 test	 eax, eax
  0006d	78 04		 js	 SHORT $LN23@del

; 287  : 	else if (i < m_nEmptyFirstIdx) m_nEmptyFirstIdx = i;

  0006f	3b f0		 cmp	 esi, eax
  00071	7d 03		 jge	 SHORT $LN10@del
$LN23@del:
  00073	89 77 0c	 mov	 DWORD PTR [edi+12], esi
$LN10@del:
  00076	5f		 pop	 edi

; 273  : 			_del(i);
; 274  : 			return true;

  00077	b0 01		 mov	 al, 1
  00079	5e		 pop	 esi

; 279  : }

  0007a	5d		 pop	 ebp
  0007b	c2 04 00	 ret	 4
?del@?$CMemList@USTIntervalInfo@@@@QAE_NPAUSTIntervalInfo@@@Z ENDP ; CMemList<STIntervalInfo>::del
_TEXT	ENDS
; Function compile flags: /Ogtp
; File e:\infinia-library-3.0\com\include\comtlist.h
; File e:\infinia-library-3.0\com\include\com\win32\win32_mtsync.h
; File e:\infinia-library-3.0\com\include\comtlist.h
; File e:\infinia-library-3.0\com\include\com\win32\win32_mtsync.h
; File e:\infinia-library-3.0\com\include\comtlist.h
; File e:\infinia-library-3.0\com\include\com\win32\win32_mtsync.h
; File e:\infinia-library-3.0\com\include\comtlist.h
; File e:\infinia-library-3.0\com\include\com\win32\win32_mtsync.h
; File e:\infinia-library-3.0\com\include\comtlist.h
; File e:\infinia-library-3.0\com\include\com\win32\win32_mtsync.h
; File e:\infinia-library-3.0\com\include\comtlist.h
; File e:\infinia-library-3.0\com\include\com\win32\win32_mtsync.h
; File e:\infinia-library-3.0\com\include\comtlist.h
; File e:\infinia-library-3.0\com\include\com\win32\win32_mtsync.h
; File e:\infinia-library-3.0\com\include\comtlist.h
; File e:\infinia-library-3.0\com\include\comtypes.h
; File e:\infinia-library-3.0\com\include\comtlist.h
;	COMDAT ?add@?$CMemList@USTIntervalInfo@@@@QAEHPAUSTIntervalInfo@@@Z
_TEXT	SEGMENT
_Obj$ = 8						; size = 4
?add@?$CMemList@USTIntervalInfo@@@@QAEHPAUSTIntervalInfo@@@Z PROC ; CMemList<STIntervalInfo>::add, COMDAT
; _this$ = ecx

; 212  : {

  00000	55		 push	 ebp
  00001	8b ec		 mov	 ebp, esp

; 213  : 	int nAddIdx = m_nEmptyFirstIdx, i;
; 214  : 	bool bFind = false;
; 215  : 
; 216  : 	if (0 <= nAddIdx) {

  00003	8b 15 00 00 00
	00		 mov	 edx, DWORD PTR __imp__InterlockedCompareExchange@12
  00009	53		 push	 ebx
  0000a	56		 push	 esi
  0000b	8b f1		 mov	 esi, ecx
  0000d	57		 push	 edi
  0000e	8b 7e 0c	 mov	 edi, DWORD PTR [esi+12]
  00011	85 ff		 test	 edi, edi
  00013	78 52		 js	 SHORT $LN7@add
; File e:\infinia-library-3.0\com\include\com\win32\win32_mtsync.h

; 91   : 	inline int getCount() { return (int)m_count; }

  00015	8b 46 04	 mov	 eax, DWORD PTR [esi+4]
; File e:\infinia-library-3.0\com\include\comtlist.h

; 217  : 		if (!m_nFlagArray[nAddIdx].getCount()) {

  00018	8d 0c bd 00 00
	00 00		 lea	 ecx, DWORD PTR [edi*4]
  0001f	83 3c 01 00	 cmp	 DWORD PTR [ecx+eax], 0
  00023	75 42		 jne	 SHORT $LN7@add

; 218  : 			if (!m_nFlagArray[nAddIdx].atomic_compare_exchange(1, 0)) {

  00025	8b 46 04	 mov	 eax, DWORD PTR [esi+4]
; File e:\infinia-library-3.0\com\include\com\win32\win32_mtsync.h

; 99   : 	inline int atomic_compare_exchange(int nExchange, int nComperand) {return (int)InterlockedCompareExchange(&m_count, nExchange, nComperand);} // return long

  00028	6a 00		 push	 0
; File e:\infinia-library-3.0\com\include\comtlist.h

; 218  : 			if (!m_nFlagArray[nAddIdx].atomic_compare_exchange(1, 0)) {

  0002a	03 c1		 add	 eax, ecx
; File e:\infinia-library-3.0\com\include\com\win32\win32_mtsync.h

; 99   : 	inline int atomic_compare_exchange(int nExchange, int nComperand) {return (int)InterlockedCompareExchange(&m_count, nExchange, nComperand);} // return long

  0002c	6a 01		 push	 1
  0002e	50		 push	 eax
  0002f	ff d2		 call	 edx
; File e:\infinia-library-3.0\com\include\comtlist.h

; 218  : 			if (!m_nFlagArray[nAddIdx].atomic_compare_exchange(1, 0)) {

  00031	85 c0		 test	 eax, eax
  00033	75 2c		 jne	 SHORT $LN40@add

; 219  : 				m_nEmptyFirstIdx = -1;

  00035	c7 46 0c ff ff
	ff ff		 mov	 DWORD PTR [esi+12], -1
$ADD_SUCCESS$42:

; 233  : 	}
; 234  : 
; 235  : ADD_SUCCESS:
; 236  : 	m_pArray[nAddIdx] = Obj;

  0003c	8b 16		 mov	 edx, DWORD PTR [esi]
  0003e	8b 4d 08	 mov	 ecx, DWORD PTR _Obj$[ebp]
  00041	89 0c ba	 mov	 DWORD PTR [edx+edi*4], ecx
; File e:\infinia-library-3.0\com\include\com\win32\win32_mtsync.h

; 93   : 	inline void setCount(int nVal) { m_count = (long)nVal; }

  00044	8b 4e 04	 mov	 ecx, DWORD PTR [esi+4]

; 97   : 	inline long atomic_increment() { return InterlockedIncrement(&m_count);}

  00047	83 c6 08	 add	 esi, 8
  0004a	56		 push	 esi

; 93   : 	inline void setCount(int nVal) { m_count = (long)nVal; }

  0004b	c7 04 b9 02 00
	00 00		 mov	 DWORD PTR [ecx+edi*4], 2

; 97   : 	inline long atomic_increment() { return InterlockedIncrement(&m_count);}

  00052	ff 15 00 00 00
	00		 call	 DWORD PTR __imp__InterlockedIncrement@4
; File e:\infinia-library-3.0\com\include\comtlist.h

; 239  : 	return nAddIdx;

  00058	8b c7		 mov	 eax, edi
  0005a	5f		 pop	 edi
  0005b	5e		 pop	 esi
  0005c	5b		 pop	 ebx

; 245  : }

  0005d	5d		 pop	 ebp
  0005e	c2 04 00	 ret	 4
$LN40@add:
  00061	8b 15 00 00 00
	00		 mov	 edx, DWORD PTR __imp__InterlockedCompareExchange@12
$LN7@add:

; 220  : 				goto ADD_SUCCESS;
; 221  : 			}
; 222  : 		}
; 223  : 	}
; 224  : 
; 225  : 	nAddIdx = m_nCurCount.getCount();

  00067	8b 7e 08	 mov	 edi, DWORD PTR [esi+8]

; 226  : 	for (i = 0; i < m_nMaxCount; i++) {

  0006a	33 db		 xor	 ebx, ebx
  0006c	39 5e 10	 cmp	 DWORD PTR [esi+16], ebx
  0006f	7e cb		 jle	 SHORT $ADD_SUCCESS$42
$LL4@add:

; 227  : 		if (m_nMaxCount <= m_nCurCount.getCount()) goto ADD_ERROR;

  00071	8b 4e 10	 mov	 ecx, DWORD PTR [esi+16]
  00074	3b 4e 08	 cmp	 ecx, DWORD PTR [esi+8]
  00077	7e 38		 jle	 SHORT $ADD_ERROR$43
  00079	33 c0		 xor	 eax, eax
  0007b	3b f9		 cmp	 edi, ecx
  0007d	0f 45 c7	 cmovne	 eax, edi
  00080	8b f8		 mov	 edi, eax
; File e:\infinia-library-3.0\com\include\com\win32\win32_mtsync.h

; 91   : 	inline int getCount() { return (int)m_count; }

  00082	8b 46 04	 mov	 eax, DWORD PTR [esi+4]
; File e:\infinia-library-3.0\com\include\comtlist.h

; 229  : 		if (!m_nFlagArray[nAddIdx].getCount()) {

  00085	8d 0c bd 00 00
	00 00		 lea	 ecx, DWORD PTR [edi*4]
  0008c	83 3c 01 00	 cmp	 DWORD PTR [ecx+eax], 0
  00090	75 10		 jne	 SHORT $LN13@add

; 230  : 			if (!m_nFlagArray[nAddIdx].atomic_compare_exchange(1, 0)) goto ADD_SUCCESS;

  00092	8b 46 04	 mov	 eax, DWORD PTR [esi+4]
; File e:\infinia-library-3.0\com\include\com\win32\win32_mtsync.h

; 99   : 	inline int atomic_compare_exchange(int nExchange, int nComperand) {return (int)InterlockedCompareExchange(&m_count, nExchange, nComperand);} // return long

  00095	6a 00		 push	 0
; File e:\infinia-library-3.0\com\include\comtlist.h

; 230  : 			if (!m_nFlagArray[nAddIdx].atomic_compare_exchange(1, 0)) goto ADD_SUCCESS;

  00097	03 c1		 add	 eax, ecx
; File e:\infinia-library-3.0\com\include\com\win32\win32_mtsync.h

; 99   : 	inline int atomic_compare_exchange(int nExchange, int nComperand) {return (int)InterlockedCompareExchange(&m_count, nExchange, nComperand);} // return long

  00099	6a 01		 push	 1
  0009b	50		 push	 eax
  0009c	ff d2		 call	 edx
; File e:\infinia-library-3.0\com\include\comtlist.h

; 230  : 			if (!m_nFlagArray[nAddIdx].atomic_compare_exchange(1, 0)) goto ADD_SUCCESS;

  0009e	85 c0		 test	 eax, eax
  000a0	74 9a		 je	 SHORT $ADD_SUCCESS$42
$LN13@add:

; 226  : 	for (i = 0; i < m_nMaxCount; i++) {

  000a2	8b 15 00 00 00
	00		 mov	 edx, DWORD PTR __imp__InterlockedCompareExchange@12
  000a8	43		 inc	 ebx

; 231  : 		}
; 232  : 		nAddIdx++;

  000a9	47		 inc	 edi
  000aa	3b 5e 10	 cmp	 ebx, DWORD PTR [esi+16]
  000ad	7c c2		 jl	 SHORT $LL4@add

; 230  : 			if (!m_nFlagArray[nAddIdx].atomic_compare_exchange(1, 0)) goto ADD_SUCCESS;

  000af	eb 8b		 jmp	 SHORT $ADD_SUCCESS$42
$ADD_ERROR$43:

; 240  : 
; 241  : ADD_ERROR :
; 242  : 	_stprintf(g_szMessage, _T("FULL! m_nMaxCount[%d]"), m_nMaxCount);

  000b1	ff 76 10	 push	 DWORD PTR [esi+16]
  000b4	68 00 00 00 00	 push	 OFFSET ??_C@_0BG@GLCFBGFL@FULL?$CB?5m_nMaxCount?$FL?$CFd?$FN?$AA@
  000b9	68 00 00 00 00	 push	 OFFSET ?g_szMessage@@3PADA ; g_szMessage
  000be	e8 00 00 00 00	 call	 _sprintf
; File e:\infinia-library-3.0\com\include\comtypes.h

; 325  : 	sprintf(g_szSystemError, "ERROR! [%s:%d] %s\n", _szFunc, _nLine, pMsg);

  000c3	68 00 00 00 00	 push	 OFFSET ?g_szMessage@@3PADA ; g_szMessage
  000c8	68 f3 00 00 00	 push	 243			; 000000f3H
  000cd	68 00 00 00 00	 push	 OFFSET ??_C@_0CF@ECAEFAC@CMemList?$DMstruct?5STIntervalInfo?$DO?3@
  000d2	68 00 00 00 00	 push	 OFFSET ??_C@_0BD@KEHDJCKJ@ERROR?$CB?5?$FL?$CFs?3?$CFd?$FN?5?$CFs?6?$AA@
  000d7	68 00 00 00 00	 push	 OFFSET ?g_szSystemError@@3PADA ; g_szSystemError
  000dc	e8 00 00 00 00	 call	 _sprintf

; 326  : 	printf(g_szSystemError);

  000e1	68 00 00 00 00	 push	 OFFSET ?g_szSystemError@@3PADA ; g_szSystemError
  000e6	e8 00 00 00 00	 call	 _printf
  000eb	83 c4 24	 add	 esp, 36			; 00000024H
; File e:\infinia-library-3.0\com\include\comtlist.h

; 244  : 	return -1;

  000ee	83 c8 ff	 or	 eax, -1
  000f1	5f		 pop	 edi
  000f2	5e		 pop	 esi
  000f3	5b		 pop	 ebx

; 245  : }

  000f4	5d		 pop	 ebp
  000f5	c2 04 00	 ret	 4
?add@?$CMemList@USTIntervalInfo@@@@QAEHPAUSTIntervalInfo@@@Z ENDP ; CMemList<STIntervalInfo>::add
_TEXT	ENDS
; Function compile flags: /Ogtp
; File e:\infinia-library-3.0\com\include\comtlist.h
; File e:\infinia-library-3.0\com\include\com\win32\win32_mtsync.h
; File e:\infinia-library-3.0\com\include\comtlist.h
; File e:\infinia-library-3.0\com\include\com\win32\win32_mtsync.h
; File e:\infinia-library-3.0\com\include\comtlist.h
;	COMDAT ?getNext@?$CMemList@USTIntervalInfo@@@@QAEPAUSTIntervalInfo@@PAH@Z
_TEXT	SEGMENT
_pCurIdx$ = 8						; size = 4
?getNext@?$CMemList@USTIntervalInfo@@@@QAEPAUSTIntervalInfo@@PAH@Z PROC ; CMemList<STIntervalInfo>::getNext, COMDAT
; _this$ = ecx

; 136  : {

  00000	55		 push	 ebp
  00001	8b ec		 mov	 ebp, esp
  00003	56		 push	 esi

; 137  : 	int i = *pCurIdx;

  00004	8b 75 08	 mov	 esi, DWORD PTR _pCurIdx$[ebp]
  00007	8b d1		 mov	 edx, ecx
  00009	57		 push	 edi
  0000a	8b 06		 mov	 eax, DWORD PTR [esi]

; 138  : 	if (i < m_nMaxCount)

  0000c	3b 42 10	 cmp	 eax, DWORD PTR [edx+16]
  0000f	7d 32		 jge	 SHORT $LN3@getNext
; File e:\infinia-library-3.0\com\include\com\win32\win32_mtsync.h

; 91   : 	inline int getCount() { return (int)m_count; }

  00011	8b 4a 04	 mov	 ecx, DWORD PTR [edx+4]
; File e:\infinia-library-3.0\com\include\comtlist.h

; 140  : 		if (m_nFlagArray[i].getCount() == 2) {

  00014	8d 3c 85 00 00
	00 00		 lea	 edi, DWORD PTR [eax*4]
  0001b	83 3c 0f 02	 cmp	 DWORD PTR [edi+ecx], 2
  0001f	75 0d		 jne	 SHORT $LN6@getNext

; 141  : 			*pCurIdx = i;

  00021	89 06		 mov	 DWORD PTR [esi], eax

; 142  : 			return m_pArray[i];

  00023	8b 02		 mov	 eax, DWORD PTR [edx]
  00025	8b 04 07	 mov	 eax, DWORD PTR [edi+eax]
  00028	5f		 pop	 edi
  00029	5e		 pop	 esi

; 157  : }

  0002a	5d		 pop	 ebp
  0002b	c2 04 00	 ret	 4
$LN6@getNext:

; 143  : 		}
; 144  : 		else
; 145  : 		{
; 146  : 			int idx = i + 1;

  0002e	40		 inc	 eax

; 147  : 			for (idx; idx < m_nMaxCount; idx++)

  0002f	3b 42 10	 cmp	 eax, DWORD PTR [edx+16]
  00032	7d 0f		 jge	 SHORT $LN3@getNext
$LL4@getNext:
; File e:\infinia-library-3.0\com\include\com\win32\win32_mtsync.h

; 91   : 	inline int getCount() { return (int)m_count; }

  00034	8b 4a 04	 mov	 ecx, DWORD PTR [edx+4]
; File e:\infinia-library-3.0\com\include\comtlist.h

; 149  : 				if (m_nFlagArray[idx].getCount() == 2) {

  00037	83 3c 81 02	 cmp	 DWORD PTR [ecx+eax*4], 2
  0003b	74 0e		 je	 SHORT $LN15@getNext

; 147  : 			for (idx; idx < m_nMaxCount; idx++)

  0003d	40		 inc	 eax
  0003e	3b 42 10	 cmp	 eax, DWORD PTR [edx+16]
  00041	7c f1		 jl	 SHORT $LL4@getNext
$LN3@getNext:
  00043	5f		 pop	 edi

; 152  : 				}
; 153  : 			}
; 154  : 		}
; 155  : 	}
; 156  : 	return NULL;

  00044	33 c0		 xor	 eax, eax
  00046	5e		 pop	 esi

; 157  : }

  00047	5d		 pop	 ebp
  00048	c2 04 00	 ret	 4
$LN15@getNext:

; 150  : 					*pCurIdx = idx;

  0004b	89 06		 mov	 DWORD PTR [esi], eax

; 151  : 					return m_pArray[idx];

  0004d	8b 0a		 mov	 ecx, DWORD PTR [edx]
  0004f	5f		 pop	 edi
  00050	5e		 pop	 esi
  00051	8b 04 81	 mov	 eax, DWORD PTR [ecx+eax*4]

; 157  : }

  00054	5d		 pop	 ebp
  00055	c2 04 00	 ret	 4
?getNext@?$CMemList@USTIntervalInfo@@@@QAEPAUSTIntervalInfo@@PAH@Z ENDP ; CMemList<STIntervalInfo>::getNext
_TEXT	ENDS
; Function compile flags: /Ogtp
; File e:\infinia-library-3.0\com\include\comtlist.h
; File e:\infinia-library-3.0\com\include\com\win32\win32_mtsync.h
; File e:\infinia-library-3.0\com\include\comtlist.h
;	COMDAT ?alloc@?$CMemList@USTIntervalInfo@@@@QAEHHW4E_ALLOC_TYPE@@@Z
_TEXT	SEGMENT
__$EHRec$ = -12						; size = 12
$T2 = 8							; size = 4
_nMaxCount$ = 8						; size = 4
_type$ = 12						; size = 4
?alloc@?$CMemList@USTIntervalInfo@@@@QAEHHW4E_ALLOC_TYPE@@@Z PROC ; CMemList<STIntervalInfo>::alloc, COMDAT
; _this$ = ecx

; 104  : int CMemList<T>::alloc(int nMaxCount, E_ALLOC_TYPE type) {

  00000	55		 push	 ebp
  00001	8b ec		 mov	 ebp, esp
  00003	6a ff		 push	 -1
  00005	68 00 00 00 00	 push	 __ehhandler$?alloc@?$CMemList@USTIntervalInfo@@@@QAEHHW4E_ALLOC_TYPE@@@Z
  0000a	64 a1 00 00 00
	00		 mov	 eax, DWORD PTR fs:0
  00010	50		 push	 eax
  00011	53		 push	 ebx
  00012	56		 push	 esi
  00013	57		 push	 edi
  00014	a1 00 00 00 00	 mov	 eax, DWORD PTR ___security_cookie
  00019	33 c5		 xor	 eax, ebp
  0001b	50		 push	 eax
  0001c	8d 45 f4	 lea	 eax, DWORD PTR __$EHRec$[ebp]
  0001f	64 a3 00 00 00
	00		 mov	 DWORD PTR fs:0, eax
  00025	8b f1		 mov	 esi, ecx

; 105  : 
; 106  : 	//T  ObjMem = 0;	
; 107  : 
; 108  : 	m_pArray = (T **)calloc(nMaxCount, sizeof(T*));

  00027	8b 7d 08	 mov	 edi, DWORD PTR _nMaxCount$[ebp]
  0002a	6a 04		 push	 4
  0002c	57		 push	 edi
  0002d	ff 15 00 00 00
	00		 call	 DWORD PTR __imp__calloc
  00033	83 c4 08	 add	 esp, 8
  00036	89 06		 mov	 DWORD PTR [esi], eax

; 109  : 	if (m_pArray == 0) {

  00038	85 c0		 test	 eax, eax
  0003a	74 68		 je	 SHORT $LN18@alloc

; 110  : 		//_stprintf(m_szMessage, _T("CMemList::m_pArray allock ERROR"));
; 111  : 		return 0;
; 112  : 	}
; 113  : 
; 114  : 	m_nFlagArray = new(std::nothrow)atomic_nr[nMaxCount];

  0003c	33 c9		 xor	 ecx, ecx
  0003e	8b c7		 mov	 eax, edi
  00040	ba 04 00 00 00	 mov	 edx, 4
  00045	f7 e2		 mul	 edx
  00047	68 00 00 00 00	 push	 OFFSET ?nothrow@std@@3Unothrow_t@1@B ; std::nothrow
  0004c	0f 90 c1	 seto	 cl
  0004f	f7 d9		 neg	 ecx
  00051	0b c8		 or	 ecx, eax
  00053	33 c0		 xor	 eax, eax
  00055	83 c1 04	 add	 ecx, 4
  00058	0f 92 c0	 setb	 al
  0005b	f7 d8		 neg	 eax
  0005d	0b c1		 or	 eax, ecx
  0005f	50		 push	 eax
  00060	e8 00 00 00 00	 call	 ??_U@YAPAXIABUnothrow_t@std@@@Z ; operator new[]
  00065	83 c4 08	 add	 esp, 8
  00068	89 45 08	 mov	 DWORD PTR $T2[ebp], eax
  0006b	c7 45 fc 00 00
	00 00		 mov	 DWORD PTR __$EHRec$[ebp+8], 0
  00072	85 c0		 test	 eax, eax
  00074	74 1a		 je	 SHORT $LN8@alloc
  00076	68 00 00 00 00	 push	 OFFSET ??1win_atomic@win32@common@@QAE@XZ ; common::win32::win_atomic::~win_atomic
  0007b	68 00 00 00 00	 push	 OFFSET ??0win_atomic@win32@common@@QAE@XZ ; common::win32::win_atomic::win_atomic
  00080	57		 push	 edi
  00081	8d 58 04	 lea	 ebx, DWORD PTR [eax+4]
  00084	89 38		 mov	 DWORD PTR [eax], edi
  00086	6a 04		 push	 4
  00088	53		 push	 ebx
  00089	e8 00 00 00 00	 call	 ??_L@YGXPAXIIP6EX0@Z1@Z
  0008e	eb 02		 jmp	 SHORT $LN9@alloc
$LN8@alloc:
  00090	33 db		 xor	 ebx, ebx
$LN9@alloc:
  00092	89 5e 04	 mov	 DWORD PTR [esi+4], ebx

; 115  : 	if (m_nFlagArray == 0) {

  00095	85 db		 test	 ebx, ebx
  00097	75 21		 jne	 SHORT $LN6@alloc

; 116  : 		//_stprintf(m_szMessage, _T("CMemList::m_nFlagArray allock ERROR"));
; 117  : 		free(m_pArray);

  00099	ff 36		 push	 DWORD PTR [esi]
  0009b	ff 15 00 00 00
	00		 call	 DWORD PTR __imp__free
  000a1	83 c4 04	 add	 esp, 4
$LN18@alloc:

; 118  : 		return 0;

  000a4	33 c0		 xor	 eax, eax

; 131  : }

  000a6	8b 4d f4	 mov	 ecx, DWORD PTR __$EHRec$[ebp]
  000a9	64 89 0d 00 00
	00 00		 mov	 DWORD PTR fs:0, ecx
  000b0	59		 pop	 ecx
  000b1	5f		 pop	 edi
  000b2	5e		 pop	 esi
  000b3	5b		 pop	 ebx
  000b4	8b e5		 mov	 esp, ebp
  000b6	5d		 pop	 ebp
  000b7	c2 08 00	 ret	 8
$LN6@alloc:

; 121  : 	for (i = 0; i < nMaxCount; i++)

  000ba	33 c9		 xor	 ecx, ecx
  000bc	85 ff		 test	 edi, edi
  000be	7e 0f		 jle	 SHORT $LN3@alloc
$LL4@alloc:
; File e:\infinia-library-3.0\com\include\com\win32\win32_mtsync.h

; 94   : 	inline void init() { m_count = 0; }

  000c0	8b 46 04	 mov	 eax, DWORD PTR [esi+4]
  000c3	c7 04 88 00 00
	00 00		 mov	 DWORD PTR [eax+ecx*4], 0
; File e:\infinia-library-3.0\com\include\comtlist.h

; 121  : 	for (i = 0; i < nMaxCount; i++)

  000ca	41		 inc	 ecx
  000cb	3b cf		 cmp	 ecx, edi
  000cd	7c f1		 jl	 SHORT $LL4@alloc
$LN3@alloc:

; 122  : 	{
; 123  : 		m_nFlagArray[i].init();
; 124  : 	}
; 125  : 
; 126  : 	m_nMaxCount = nMaxCount;
; 127  : 	m_nObjAllocType = type;

  000cf	8b 45 0c	 mov	 eax, DWORD PTR _type$[ebp]
  000d2	89 46 14	 mov	 DWORD PTR [esi+20], eax

; 128  : 	m_pEnd = m_pArray[nMaxCount-1];

  000d5	8b 06		 mov	 eax, DWORD PTR [esi]
  000d7	89 7e 10	 mov	 DWORD PTR [esi+16], edi
  000da	8b 44 b8 fc	 mov	 eax, DWORD PTR [eax+edi*4-4]
  000de	89 46 18	 mov	 DWORD PTR [esi+24], eax

; 129  : 	//_stprintf(m_szMessage, _T("CMemList::alloc list m_nMaxCount[%d]"), m_nMaxCount);
; 130  : 	return 1;

  000e1	b8 01 00 00 00	 mov	 eax, 1

; 131  : }

  000e6	8b 4d f4	 mov	 ecx, DWORD PTR __$EHRec$[ebp]
  000e9	64 89 0d 00 00
	00 00		 mov	 DWORD PTR fs:0, ecx
  000f0	59		 pop	 ecx
  000f1	5f		 pop	 edi
  000f2	5e		 pop	 esi
  000f3	5b		 pop	 ebx
  000f4	8b e5		 mov	 esp, ebp
  000f6	5d		 pop	 ebp
  000f7	c2 08 00	 ret	 8
_TEXT	ENDS
;	COMDAT text$x
text$x	SEGMENT
__unwindfunclet$?alloc@?$CMemList@USTIntervalInfo@@@@QAEHHW4E_ALLOC_TYPE@@@Z$0:
  00000	68 00 00 00 00	 push	 OFFSET ?nothrow@std@@3Unothrow_t@1@B ; std::nothrow
  00005	8b 45 08	 mov	 eax, DWORD PTR $T2[ebp]
  00008	50		 push	 eax
  00009	e8 00 00 00 00	 call	 ??_V@YAXPAXABUnothrow_t@std@@@Z ; operator delete[]
  0000e	83 c4 08	 add	 esp, 8
  00011	c3		 ret	 0
__ehhandler$?alloc@?$CMemList@USTIntervalInfo@@@@QAEHHW4E_ALLOC_TYPE@@@Z:
  00012	8b 54 24 08	 mov	 edx, DWORD PTR [esp+8]
  00016	8d 42 0c	 lea	 eax, DWORD PTR [edx+12]
  00019	8b 4a f0	 mov	 ecx, DWORD PTR [edx-16]
  0001c	33 c8		 xor	 ecx, eax
  0001e	e8 00 00 00 00	 call	 @__security_check_cookie@4
  00023	b8 00 00 00 00	 mov	 eax, OFFSET __ehfuncinfo$?alloc@?$CMemList@USTIntervalInfo@@@@QAEHHW4E_ALLOC_TYPE@@@Z
  00028	e9 00 00 00 00	 jmp	 ___CxxFrameHandler3
text$x	ENDS
?alloc@?$CMemList@USTIntervalInfo@@@@QAEHHW4E_ALLOC_TYPE@@@Z ENDP ; CMemList<STIntervalInfo>::alloc
; Function compile flags: /Ogtp
; File e:\infinia-library-3.0\com\include\comtlist.h
; File e:\infinia-library-3.0\com\include\combufpool.h
; File e:\infinia-library-3.0\com\include\comtlist.h
; File e:\infinia-library-3.0\com\include\combufpool.h
; File e:\infinia-library-3.0\com\include\commemmanager.h
; File e:\infinia-library-3.0\com\include\comtlist.h
; File e:\infinia-library-3.0\com\include\com\win32\win32_mtsync.h
; File e:\infinia-library-3.0\com\include\comtlist.h
; File e:\infinia-library-3.0\com\include\com\win32\win32_mtsync.h
; File e:\infinia-library-3.0\com\include\comtlist.h
;	COMDAT ??1?$CMemList@USTIntervalInfo@@@@QAE@XZ
_TEXT	SEGMENT
_$S1$2 = -28						; size = 8
_p$1$ = -20						; size = 4
_idx$3 = -16						; size = 4
__$EHRec$ = -12						; size = 12
??1?$CMemList@USTIntervalInfo@@@@QAE@XZ PROC		; CMemList<STIntervalInfo>::~CMemList<STIntervalInfo>, COMDAT
; _this$ = ecx

; 75   : {

  00000	55		 push	 ebp
  00001	8b ec		 mov	 ebp, esp
  00003	6a ff		 push	 -1
  00005	68 00 00 00 00	 push	 __ehhandler$??1?$CMemList@USTIntervalInfo@@@@QAE@XZ
  0000a	64 a1 00 00 00
	00		 mov	 eax, DWORD PTR fs:0
  00010	50		 push	 eax
  00011	83 ec 10	 sub	 esp, 16			; 00000010H
  00014	53		 push	 ebx
  00015	56		 push	 esi
  00016	57		 push	 edi
  00017	a1 00 00 00 00	 mov	 eax, DWORD PTR ___security_cookie
  0001c	33 c5		 xor	 eax, ebp
  0001e	50		 push	 eax
  0001f	8d 45 f4	 lea	 eax, DWORD PTR __$EHRec$[ebp]
  00022	64 a3 00 00 00
	00		 mov	 DWORD PTR fs:0, eax
  00028	8b d9		 mov	 ebx, ecx

; 76   : 	if (!m_pArray) return;

  0002a	83 3b 00	 cmp	 DWORD PTR [ebx], 0
  0002d	0f 84 4b 01 00
	00		 je	 $LN1@CMemList

; 77   : 
; 78   : 	if (ISABLETODELETE(m_nObjAllocType)) {

  00033	83 7b 14 01	 cmp	 DWORD PTR [ebx+20], 1
  00037	8b 35 00 00 00
	00		 mov	 esi, DWORD PTR __imp__free
  0003d	0f 8e ee 00 00
	00		 jle	 $LN66@CMemList

; 79   : 		int idx = 0;
; 80   : 		T *p = getNext(&idx);

  00043	8d 45 f0	 lea	 eax, DWORD PTR _idx$3[ebp]
  00046	c7 45 f0 00 00
	00 00		 mov	 DWORD PTR _idx$3[ebp], 0
  0004d	50		 push	 eax
  0004e	e8 00 00 00 00	 call	 ?getNext@?$CMemList@USTIntervalInfo@@@@QAEPAUSTIntervalInfo@@PAH@Z ; CMemList<STIntervalInfo>::getNext
  00053	8b c8		 mov	 ecx, eax
  00055	89 4d ec	 mov	 DWORD PTR _p$1$[ebp], ecx

; 81   : 		while (p) {

  00058	85 c9		 test	 ecx, ecx
  0005a	0f 84 d1 00 00
	00		 je	 $LN66@CMemList
  00060	8b 7d f0	 mov	 edi, DWORD PTR _idx$3[ebp]
$LL2@CMemList:

; 82   : 			idx++;
; 83   : 			switch (m_nObjAllocType) {

  00063	8b 43 14	 mov	 eax, DWORD PTR [ebx+20]
  00066	47		 inc	 edi
  00067	83 c0 fe	 add	 eax, -2			; fffffffeH
  0006a	89 7d f0	 mov	 DWORD PTR _idx$3[ebp], edi
  0006d	83 f8 03	 cmp	 eax, 3
  00070	77 78		 ja	 SHORT $LN19@CMemList
  00072	ff 24 85 00 00
	00 00		 jmp	 DWORD PTR $LN70@CMemList[eax*4]
$LN8@CMemList:

; 84   : 			case eAlloc_Type_new		: delete p; break;

  00079	6a 1c		 push	 28			; 0000001cH
  0007b	51		 push	 ecx
  0007c	e8 00 00 00 00	 call	 ??3@YAXPAXI@Z		; operator delete
  00081	83 c4 08	 add	 esp, 8
  00084	eb 64		 jmp	 SHORT $LN19@CMemList
$LN9@CMemList:

; 85   : 			case eAlloc_Type_alloc		: free(p); break;

  00086	51		 push	 ecx
  00087	ff d6		 call	 esi
  00089	eb 5c		 jmp	 SHORT $LN68@CMemList
$LN10@CMemList:

; 86   : 			case eAlloc_Type_BufPool	: gs_pMMgr->delBuf((char *)p, STRING_SIZE((TCHAR *)p)); break;

  0008b	8b d1		 mov	 edx, ecx
  0008d	8d 4a 01	 lea	 ecx, DWORD PTR [edx+1]
$LL65@CMemList:
  00090	8a 02		 mov	 al, BYTE PTR [edx]
  00092	42		 inc	 edx
  00093	84 c0		 test	 al, al
  00095	75 f9		 jne	 SHORT $LL65@CMemList
  00097	2b d1		 sub	 edx, ecx
; File e:\infinia-library-3.0\com\include\combufpool.h

; 51   : inline int getIndex(int s) { int m; union { double x; int b[2]; }; x = s; m = (b[1] >> 20) - 1023; return m + ((s&(s - (1 << m))) ? 1 : 0); }

  00099	b8 01 00 00 00	 mov	 eax, 1
; File e:\infinia-library-3.0\com\include\comtlist.h

; 86   : 			case eAlloc_Type_BufPool	: gs_pMMgr->delBuf((char *)p, STRING_SIZE((TCHAR *)p)); break;

  0009e	42		 inc	 edx
  0009f	66 0f 6e c2	 movd	 xmm0, edx
; File e:\infinia-library-3.0\com\include\combufpool.h

; 51   : inline int getIndex(int s) { int m; union { double x; int b[2]; }; x = s; m = (b[1] >> 20) - 1023; return m + ((s&(s - (1 << m))) ? 1 : 0); }

  000a3	f3 0f e6 c0	 cvtdq2pd xmm0, xmm0
  000a7	f2 0f 11 45 e4	 movsd	 QWORD PTR _$S1$2[ebp], xmm0
  000ac	8b 75 e8	 mov	 esi, DWORD PTR _$S1$2[ebp+4]
  000af	c1 fe 14	 sar	 esi, 20			; 00000014H
  000b2	81 ee ff 03 00
	00		 sub	 esi, 1023		; 000003ffH
  000b8	8b ce		 mov	 ecx, esi
  000ba	d3 e0		 shl	 eax, cl
  000bc	8b ca		 mov	 ecx, edx
  000be	2b c8		 sub	 ecx, eax
  000c0	23 ca		 and	 ecx, edx
  000c2	f7 d9		 neg	 ecx
  000c4	1b c9		 sbb	 ecx, ecx
  000c6	f7 d9		 neg	 ecx
  000c8	03 ce		 add	 ecx, esi
; File e:\infinia-library-3.0\com\include\commemmanager.h

; 38   : 	inline void delBuf(char *pBuf, int nSize) { int nIdx = getIndex(nSize); delBufByIndex(pBuf, nIdx); }

  000ca	51		 push	 ecx
  000cb	ff 75 ec	 push	 DWORD PTR _p$1$[ebp]
  000ce	8b 0d 00 00 00
	00		 mov	 ecx, DWORD PTR ?gs_pMMgr@@3PAVCMemManager@@A ; gs_pMMgr
  000d4	e8 00 00 00 00	 call	 ?delBufByIndex@CMemManager@@QAEXPADH@Z ; CMemManager::delBufByIndex
; File e:\infinia-library-3.0\com\include\comtlist.h

; 86   : 			case eAlloc_Type_BufPool	: gs_pMMgr->delBuf((char *)p, STRING_SIZE((TCHAR *)p)); break;

  000d9	8b 35 00 00 00
	00		 mov	 esi, DWORD PTR __imp__free
  000df	eb 09		 jmp	 SHORT $LN19@CMemList
$LN11@CMemList:

; 87   : 			case eAlloc_Type_newArray	: delete[] p; break;

  000e1	51		 push	 ecx
  000e2	e8 00 00 00 00	 call	 ??_V@YAXPAX@Z		; operator delete[]
$LN68@CMemList:
  000e7	83 c4 04	 add	 esp, 4
$LN19@CMemList:

; 138  : 	if (i < m_nMaxCount)

  000ea	3b 7b 10	 cmp	 edi, DWORD PTR [ebx+16]
  000ed	7d 42		 jge	 SHORT $LN66@CMemList
; File e:\infinia-library-3.0\com\include\com\win32\win32_mtsync.h

; 91   : 	inline int getCount() { return (int)m_count; }

  000ef	8b 43 04	 mov	 eax, DWORD PTR [ebx+4]
; File e:\infinia-library-3.0\com\include\comtlist.h

; 140  : 		if (m_nFlagArray[i].getCount() == 2) {

  000f2	83 3c b8 02	 cmp	 DWORD PTR [eax+edi*4], 2
  000f6	75 0a		 jne	 SHORT $LN35@CMemList

; 141  : 			*pCurIdx = i;
; 142  : 			return m_pArray[i];

  000f8	8b 03		 mov	 eax, DWORD PTR [ebx]
  000fa	8b 0c b8	 mov	 ecx, DWORD PTR [eax+edi*4]
  000fd	8b 7d f0	 mov	 edi, DWORD PTR _idx$3[ebp]
  00100	eb 24		 jmp	 SHORT $LN69@CMemList
$LN35@CMemList:

; 143  : 		}
; 144  : 		else
; 145  : 		{
; 146  : 			int idx = i + 1;

  00102	8b 7d f0	 mov	 edi, DWORD PTR _idx$3[ebp]
  00105	47		 inc	 edi

; 147  : 			for (idx; idx < m_nMaxCount; idx++)

  00106	3b 7b 10	 cmp	 edi, DWORD PTR [ebx+16]
  00109	7d 26		 jge	 SHORT $LN66@CMemList
  0010b	0f 1f 44 00 00	 npad	 5
$LL33@CMemList:
; File e:\infinia-library-3.0\com\include\com\win32\win32_mtsync.h

; 91   : 	inline int getCount() { return (int)m_count; }

  00110	8b 43 04	 mov	 eax, DWORD PTR [ebx+4]
; File e:\infinia-library-3.0\com\include\comtlist.h

; 149  : 				if (m_nFlagArray[idx].getCount() == 2) {

  00113	83 3c b8 02	 cmp	 DWORD PTR [eax+edi*4], 2
  00117	74 08		 je	 SHORT $LN57@CMemList

; 147  : 			for (idx; idx < m_nMaxCount; idx++)

  00119	47		 inc	 edi
  0011a	3b 7b 10	 cmp	 edi, DWORD PTR [ebx+16]
  0011d	7c f1		 jl	 SHORT $LL33@CMemList
  0011f	eb 10		 jmp	 SHORT $LN66@CMemList
$LN57@CMemList:

; 150  : 					*pCurIdx = idx;
; 151  : 					return m_pArray[idx];

  00121	8b 03		 mov	 eax, DWORD PTR [ebx]
  00123	8b 0c b8	 mov	 ecx, DWORD PTR [eax+edi*4]
$LN69@CMemList:
  00126	89 4d ec	 mov	 DWORD PTR _p$1$[ebp], ecx

; 81   : 		while (p) {

  00129	85 c9		 test	 ecx, ecx
  0012b	0f 85 32 ff ff
	ff		 jne	 $LL2@CMemList
$LN66@CMemList:

; 88   : 			case eAlloc_Type_none		: break;
; 89   : 			case eAlloc_Type_MemPool	: break;
; 90   : 			}
; 91   : 			p = getNext(&idx);
; 92   : 		}
; 93   : 	}
; 94   : 
; 95   : 	if (m_pArray)        free(m_pArray);

  00131	8b 03		 mov	 eax, DWORD PTR [ebx]
  00133	85 c0		 test	 eax, eax
  00135	74 06		 je	 SHORT $LN14@CMemList
  00137	50		 push	 eax
  00138	ff d6		 call	 esi
  0013a	83 c4 04	 add	 esp, 4
$LN14@CMemList:

; 96   : 	m_pArray = 0;
; 97   : 
; 98   : 	if (m_nFlagArray)    delete[] m_nFlagArray;

  0013d	8b 43 04	 mov	 eax, DWORD PTR [ebx+4]
  00140	c7 03 00 00 00
	00		 mov	 DWORD PTR [ebx], 0
  00146	85 c0		 test	 eax, eax
  00148	74 2d		 je	 SHORT $LN46@CMemList
  0014a	68 00 00 00 00	 push	 OFFSET ??1win_atomic@win32@common@@QAE@XZ ; common::win32::win_atomic::~win_atomic
  0014f	ff 70 fc	 push	 DWORD PTR [eax-4]
  00152	8d 70 fc	 lea	 esi, DWORD PTR [eax-4]
  00155	c7 45 fc 00 00
	00 00		 mov	 DWORD PTR __$EHRec$[ebp+8], 0
  0015c	6a 04		 push	 4
  0015e	50		 push	 eax
  0015f	e8 00 00 00 00	 call	 ??_M@YGXPAXIIP6EX0@Z@Z
  00164	8b 06		 mov	 eax, DWORD PTR [esi]
  00166	8d 04 85 04 00
	00 00		 lea	 eax, DWORD PTR [eax*4+4]
  0016d	50		 push	 eax
  0016e	56		 push	 esi
  0016f	e8 00 00 00 00	 call	 ??_V@YAXPAXI@Z		; operator delete[]
  00174	83 c4 08	 add	 esp, 8
$LN46@CMemList:

; 99   : 	m_nFlagArray = 0;

  00177	c7 43 04 00 00
	00 00		 mov	 DWORD PTR [ebx+4], 0
$LN1@CMemList:

; 100  : }

  0017e	8b 4d f4	 mov	 ecx, DWORD PTR __$EHRec$[ebp]
  00181	64 89 0d 00 00
	00 00		 mov	 DWORD PTR fs:0, ecx
  00188	59		 pop	 ecx
  00189	5f		 pop	 edi
  0018a	5e		 pop	 esi
  0018b	5b		 pop	 ebx
  0018c	8b e5		 mov	 esp, ebp
  0018e	5d		 pop	 ebp
  0018f	c3		 ret	 0
$LN70@CMemList:
  00190	00 00 00 00	 DD	 $LN8@CMemList
  00194	00 00 00 00	 DD	 $LN9@CMemList
  00198	00 00 00 00	 DD	 $LN10@CMemList
  0019c	00 00 00 00	 DD	 $LN11@CMemList
_TEXT	ENDS
;	COMDAT text$x
text$x	SEGMENT
__unwindfunclet$??1?$CMemList@USTIntervalInfo@@@@QAE@XZ$0:
  00000	e8 00 00 00 00	 call	 ___std_terminate
  00005	c3		 ret	 0
__ehhandler$??1?$CMemList@USTIntervalInfo@@@@QAE@XZ:
  00006	8b 54 24 08	 mov	 edx, DWORD PTR [esp+8]
  0000a	8d 42 0c	 lea	 eax, DWORD PTR [edx+12]
  0000d	8b 4a e0	 mov	 ecx, DWORD PTR [edx-32]
  00010	33 c8		 xor	 ecx, eax
  00012	e8 00 00 00 00	 call	 @__security_check_cookie@4
  00017	b8 00 00 00 00	 mov	 eax, OFFSET __ehfuncinfo$??1?$CMemList@USTIntervalInfo@@@@QAE@XZ
  0001c	e9 00 00 00 00	 jmp	 ___CxxFrameHandler3
text$x	ENDS
??1?$CMemList@USTIntervalInfo@@@@QAE@XZ ENDP		; CMemList<STIntervalInfo>::~CMemList<STIntervalInfo>
; Function compile flags: /Ogtp
; File e:\infinia-library-3.0\com\include\comtlist.h
; File e:\infinia-library-3.0\com\include\com\win32\win32_mtsync.h
; File e:\infinia-library-3.0\com\include\comtlist.h
; File e:\infinia-library-3.0\com\include\com\win32\win32_mtsync.h
; File e:\infinia-library-3.0\com\include\comtlist.h
;	COMDAT ??0?$CMemList@USTIntervalInfo@@@@QAE@XZ
_TEXT	SEGMENT
??0?$CMemList@USTIntervalInfo@@@@QAE@XZ PROC		; CMemList<STIntervalInfo>::CMemList<STIntervalInfo>, COMDAT
; _this$ = ecx
; File e:\infinia-library-3.0\com\include\com\win32\win32_mtsync.h

; 87   : 	win_atomic() {m_count = 0;}

  00000	c7 41 08 00 00
	00 00		 mov	 DWORD PTR [ecx+8], 0
; File e:\infinia-library-3.0\com\include\comtlist.h

; 71   : }

  00007	8b c1		 mov	 eax, ecx
  00009	c7 01 00 00 00
	00		 mov	 DWORD PTR [ecx], 0
  0000f	c7 41 04 00 00
	00 00		 mov	 DWORD PTR [ecx+4], 0
  00016	c7 41 14 00 00
	00 00		 mov	 DWORD PTR [ecx+20], 0
; File e:\infinia-library-3.0\com\include\com\win32\win32_mtsync.h

; 94   : 	inline void init() { m_count = 0; }

  0001d	c7 41 08 00 00
	00 00		 mov	 DWORD PTR [ecx+8], 0
; File e:\infinia-library-3.0\com\include\comtlist.h

; 71   : }

  00024	c3		 ret	 0
??0?$CMemList@USTIntervalInfo@@@@QAE@XZ ENDP		; CMemList<STIntervalInfo>::CMemList<STIntervalInfo>
_TEXT	ENDS
; Function compile flags: /Ogtp
;	COMDAT ??_ECScheduler@@QAEPAXI@Z
_TEXT	SEGMENT
__$EHRec$ = -12						; size = 12
___flags$ = 8						; size = 4
??_ECScheduler@@QAEPAXI@Z PROC				; CScheduler::`vector deleting destructor', COMDAT
; _this$ = ecx
  00000	55		 push	 ebp
  00001	8b ec		 mov	 ebp, esp
  00003	6a ff		 push	 -1
  00005	68 00 00 00 00	 push	 __ehhandler$??_ECScheduler@@QAEPAXI@Z
  0000a	64 a1 00 00 00
	00		 mov	 eax, DWORD PTR fs:0
  00010	50		 push	 eax
  00011	53		 push	 ebx
  00012	56		 push	 esi
  00013	57		 push	 edi
  00014	a1 00 00 00 00	 mov	 eax, DWORD PTR ___security_cookie
  00019	33 c5		 xor	 eax, ebp
  0001b	50		 push	 eax
  0001c	8d 45 f4	 lea	 eax, DWORD PTR __$EHRec$[ebp]
  0001f	64 a3 00 00 00
	00		 mov	 DWORD PTR fs:0, eax
  00025	8b f1		 mov	 esi, ecx
  00027	8b 5d 08	 mov	 ebx, DWORD PTR ___flags$[ebp]
  0002a	f6 c3 02	 test	 bl, 2
  0002d	74 4a		 je	 SHORT $LN2@vector
  0002f	68 00 00 00 00	 push	 OFFSET ??1CScheduler@@QAE@XZ ; CScheduler::~CScheduler
  00034	ff 76 fc	 push	 DWORD PTR [esi-4]
  00037	8d 7e fc	 lea	 edi, DWORD PTR [esi-4]
  0003a	6a 38		 push	 56			; 00000038H
  0003c	56		 push	 esi
  0003d	e8 00 00 00 00	 call	 ??_M@YGXPAXIIP6EX0@Z@Z
  00042	f6 c3 01	 test	 bl, 1
  00045	74 1c		 je	 SHORT $LN3@vector
  00047	8b 0f		 mov	 ecx, DWORD PTR [edi]
  00049	8d 14 cd 00 00
	00 00		 lea	 edx, DWORD PTR [ecx*8]
  00050	2b d1		 sub	 edx, ecx
  00052	8d 0c d5 04 00
	00 00		 lea	 ecx, DWORD PTR [edx*8+4]
  00059	51		 push	 ecx
  0005a	57		 push	 edi
  0005b	e8 00 00 00 00	 call	 ??_V@YAXPAXI@Z		; operator delete[]
  00060	83 c4 08	 add	 esp, 8
$LN3@vector:
  00063	8b c7		 mov	 eax, edi
  00065	8b 4d f4	 mov	 ecx, DWORD PTR __$EHRec$[ebp]
  00068	64 89 0d 00 00
	00 00		 mov	 DWORD PTR fs:0, ecx
  0006f	59		 pop	 ecx
  00070	5f		 pop	 edi
  00071	5e		 pop	 esi
  00072	5b		 pop	 ebx
  00073	8b e5		 mov	 esp, ebp
  00075	5d		 pop	 ebp
  00076	c2 04 00	 ret	 4
$LN2@vector:
  00079	e8 00 00 00 00	 call	 ??1CScheduler@@QAE@XZ	; CScheduler::~CScheduler
  0007e	f6 c3 01	 test	 bl, 1
  00081	74 0b		 je	 SHORT $LN4@vector
  00083	6a 38		 push	 56			; 00000038H
  00085	56		 push	 esi
  00086	e8 00 00 00 00	 call	 ??3@YAXPAXI@Z		; operator delete
  0008b	83 c4 08	 add	 esp, 8
$LN4@vector:
  0008e	8b c6		 mov	 eax, esi
  00090	8b 4d f4	 mov	 ecx, DWORD PTR __$EHRec$[ebp]
  00093	64 89 0d 00 00
	00 00		 mov	 DWORD PTR fs:0, ecx
  0009a	59		 pop	 ecx
  0009b	5f		 pop	 edi
  0009c	5e		 pop	 esi
  0009d	5b		 pop	 ebx
  0009e	8b e5		 mov	 esp, ebp
  000a0	5d		 pop	 ebp
  000a1	c2 04 00	 ret	 4
_TEXT	ENDS
;	COMDAT text$x
text$x	SEGMENT
__ehhandler$??_ECScheduler@@QAEPAXI@Z:
  00000	8b 54 24 08	 mov	 edx, DWORD PTR [esp+8]
  00004	8d 42 0c	 lea	 eax, DWORD PTR [edx+12]
  00007	8b 4a f0	 mov	 ecx, DWORD PTR [edx-16]
  0000a	33 c8		 xor	 ecx, eax
  0000c	e8 00 00 00 00	 call	 @__security_check_cookie@4
  00011	b8 00 00 00 00	 mov	 eax, OFFSET __ehfuncinfo$??_ECScheduler@@QAEPAXI@Z
  00016	e9 00 00 00 00	 jmp	 ___CxxFrameHandler3
text$x	ENDS
??_ECScheduler@@QAEPAXI@Z ENDP				; CScheduler::`vector deleting destructor'
; Function compile flags: /Ogtp
;	COMDAT ??_GCScheduler@@QAEPAXI@Z
_TEXT	SEGMENT
___flags$ = 8						; size = 4
??_GCScheduler@@QAEPAXI@Z PROC				; CScheduler::`scalar deleting destructor', COMDAT
; _this$ = ecx
  00000	55		 push	 ebp
  00001	8b ec		 mov	 ebp, esp
  00003	56		 push	 esi
  00004	8b f1		 mov	 esi, ecx
  00006	e8 00 00 00 00	 call	 ??1CScheduler@@QAE@XZ	; CScheduler::~CScheduler
  0000b	f6 45 08 01	 test	 BYTE PTR ___flags$[ebp], 1
  0000f	74 0b		 je	 SHORT $LN4@scalar
  00011	6a 38		 push	 56			; 00000038H
  00013	56		 push	 esi
  00014	e8 00 00 00 00	 call	 ??3@YAXPAXI@Z		; operator delete
  00019	83 c4 08	 add	 esp, 8
$LN4@scalar:
  0001c	8b c6		 mov	 eax, esi
  0001e	5e		 pop	 esi
  0001f	5d		 pop	 ebp
  00020	c2 04 00	 ret	 4
??_GCScheduler@@QAEPAXI@Z ENDP				; CScheduler::`scalar deleting destructor'
_TEXT	ENDS
; Function compile flags: /Ogtp
; File e:\infinia-library-3.0\com\include\comcore.h
;	COMDAT ?getGoal@CScheduler@@QAEIXZ
_TEXT	SEGMENT
?getGoal@CScheduler@@QAEIXZ PROC			; CScheduler::getGoal, COMDAT
; _this$ = ecx

; 146  : 	inline TICKTIME_MILLISEC getGoal() { 	return m_nMillSecGoal;	}

  00000	8b 41 34	 mov	 eax, DWORD PTR [ecx+52]
  00003	c3		 ret	 0
?getGoal@CScheduler@@QAEIXZ ENDP			; CScheduler::getGoal
_TEXT	ENDS
; Function compile flags: /Ogtp
; File e:\infinia-library-3.0\com\include\comcore.h
;	COMDAT ?setGoal@CScheduler@@QAEXXZ
_TEXT	SEGMENT
?setGoal@CScheduler@@QAEXXZ PROC			; CScheduler::setGoal, COMDAT
; _this$ = ecx

; 145  : 	inline void setGoal() {	m_nMillSecGoal += m_nMilliSecWait;	}

  00000	8b 41 2c	 mov	 eax, DWORD PTR [ecx+44]
  00003	01 41 34	 add	 DWORD PTR [ecx+52], eax
  00006	c3		 ret	 0
?setGoal@CScheduler@@QAEXXZ ENDP			; CScheduler::setGoal
_TEXT	ENDS
; Function compile flags: /Ogtp
; File e:\infinia-library-3.0\com\include\comcore.h
;	COMDAT ?getMilliSecHalf@CScheduler@@QAEHXZ
_TEXT	SEGMENT
?getMilliSecHalf@CScheduler@@QAEHXZ PROC		; CScheduler::getMilliSecHalf, COMDAT
; _this$ = ecx

; 144  : 	inline int getMilliSecHalf() { return m_nMillSecHalf; }

  00000	8b 41 30	 mov	 eax, DWORD PTR [ecx+48]
  00003	c3		 ret	 0
?getMilliSecHalf@CScheduler@@QAEHXZ ENDP		; CScheduler::getMilliSecHalf
_TEXT	ENDS
; Function compile flags: /Ogtp
; File e:\infinia-library-3.0\com\include\comcore.h
;	COMDAT ?addTime@CScheduler@@QAEHPAUSTIntervalInfo@@@Z
_TEXT	SEGMENT
_pData$ = 8						; size = 4
?addTime@CScheduler@@QAEHPAUSTIntervalInfo@@@Z PROC	; CScheduler::addTime, COMDAT
; _this$ = ecx

; 142  : 	inline int addTime(STIntervalInfo *pData) { return m_pTimeList->add(pData); }

  00000	55		 push	 ebp
  00001	8b ec		 mov	 ebp, esp
  00003	8b 49 28	 mov	 ecx, DWORD PTR [ecx+40]
  00006	5d		 pop	 ebp
  00007	e9 00 00 00 00	 jmp	 ?add@?$CMemList@USTIntervalInfo@@@@QAEHPAUSTIntervalInfo@@@Z ; CMemList<STIntervalInfo>::add
?addTime@CScheduler@@QAEHPAUSTIntervalInfo@@@Z ENDP	; CScheduler::addTime
_TEXT	ENDS
; Function compile flags: /Ogtp
; File e:\infinia-library-3.0\com\include\comcore.h
;	COMDAT ?deleteTime@CScheduler@@QAE_NPAUSTIntervalInfo@@@Z
_TEXT	SEGMENT
_pData$ = 8						; size = 4
?deleteTime@CScheduler@@QAE_NPAUSTIntervalInfo@@@Z PROC	; CScheduler::deleteTime, COMDAT
; _this$ = ecx

; 141  : 	inline bool deleteTime(STIntervalInfo *pData) { return m_pTimeList->del(pData); }

  00000	55		 push	 ebp
  00001	8b ec		 mov	 ebp, esp
  00003	8b 49 28	 mov	 ecx, DWORD PTR [ecx+40]
  00006	5d		 pop	 ebp
  00007	e9 00 00 00 00	 jmp	 ?del@?$CMemList@USTIntervalInfo@@@@QAE_NPAUSTIntervalInfo@@@Z ; CMemList<STIntervalInfo>::del
?deleteTime@CScheduler@@QAE_NPAUSTIntervalInfo@@@Z ENDP	; CScheduler::deleteTime
_TEXT	ENDS
; Function compile flags: /Ogtp
; File e:\infinia-library-3.0\com\include\comcore.h
;	COMDAT ?timeNext@CScheduler@@QAEPAUSTIntervalInfo@@PAH@Z
_TEXT	SEGMENT
_idx$ = 8						; size = 4
?timeNext@CScheduler@@QAEPAUSTIntervalInfo@@PAH@Z PROC	; CScheduler::timeNext, COMDAT
; _this$ = ecx

; 140  : 	inline STIntervalInfo *timeNext(int *idx) { return m_pTimeList->getNext(idx); }

  00000	55		 push	 ebp
  00001	8b ec		 mov	 ebp, esp
  00003	8b 49 28	 mov	 ecx, DWORD PTR [ecx+40]
  00006	5d		 pop	 ebp
  00007	e9 00 00 00 00	 jmp	 ?getNext@?$CMemList@USTIntervalInfo@@@@QAEPAUSTIntervalInfo@@PAH@Z ; CMemList<STIntervalInfo>::getNext
?timeNext@CScheduler@@QAEPAUSTIntervalInfo@@PAH@Z ENDP	; CScheduler::timeNext
_TEXT	ENDS
; Function compile flags: /Ogtp
; File e:\infinia-library-3.0\com\src\comcore.cpp
;	COMDAT ?quit@CScheduler@@QAE_NXZ
_TEXT	SEGMENT
?quit@CScheduler@@QAE_NXZ PROC				; CScheduler::quit, COMDAT
; _this$ = ecx

; 358  : {

  00000	56		 push	 esi
  00001	8b f1		 mov	 esi, ecx
  00003	57		 push	 edi

; 66   : 	if (!m_stInfo.hTHID) return false;

  00004	8b 46 04	 mov	 eax, DWORD PTR [esi+4]
  00007	85 c0		 test	 eax, eax
  00009	74 0b		 je	 SHORT $LN6@quit

; 67   : 	int nStatus = 0; // for linux
; 68   : 	m_stInfo.bActive = false;
; 69   : 	THREAD_JOIN(m_stInfo.hTHID, (void **)&nStatus);

  0000b	50		 push	 eax
  0000c	c6 46 1c 00	 mov	 BYTE PTR [esi+28], 0
  00010	ff 15 00 00 00
	00		 call	 DWORD PTR __imp__CloseHandle@4
$LN6@quit:

; 359  : 	m_cThread.quit();
; 360  : 	if (m_pTimeList) {

  00016	8b 7e 28	 mov	 edi, DWORD PTR [esi+40]
  00019	85 ff		 test	 edi, edi
  0001b	74 19		 je	 SHORT $LN13@quit

; 361  : 		delete m_pTimeList;
; 362  : 		m_pTimeList = NULL;

  0001d	8b cf		 mov	 ecx, edi
  0001f	e8 00 00 00 00	 call	 ??1?$CMemList@USTIntervalInfo@@@@QAE@XZ ; CMemList<STIntervalInfo>::~CMemList<STIntervalInfo>
  00024	6a 1c		 push	 28			; 0000001cH
  00026	57		 push	 edi
  00027	e8 00 00 00 00	 call	 ??3@YAXPAXI@Z		; operator delete
  0002c	83 c4 08	 add	 esp, 8
  0002f	c7 46 28 00 00
	00 00		 mov	 DWORD PTR [esi+40], 0
$LN13@quit:

; 363  : 	}
; 364  : 	return true;

  00036	5f		 pop	 edi
  00037	b0 01		 mov	 al, 1
  00039	5e		 pop	 esi

; 365  : }

  0003a	c3		 ret	 0
?quit@CScheduler@@QAE_NXZ ENDP				; CScheduler::quit
_TEXT	ENDS
; Function compile flags: /Ogtp
; File e:\infinia-library-3.0\com\src\comcore.cpp
; File e:\infinia-library-3.0\com\include\comtypes.h
; File e:\infinia-library-3.0\com\src\comcore.cpp
;	COMDAT ?start@CScheduler@@QAE_NXZ
_TEXT	SEGMENT
?start@CScheduler@@QAE_NXZ PROC				; CScheduler::start, COMDAT
; _this$ = ecx

; 345  : 	if (m_cThread.bActive()) return true;

  00000	80 79 1c 00	 cmp	 BYTE PTR [ecx+28], 0
  00004	75 50		 jne	 SHORT $LN4@start

; 346  : 	if (!m_cThread.init(schedulerLoop, this, m_nMillSecHalf)) {

  00006	8b 41 30	 mov	 eax, DWORD PTR [ecx+48]

; 35   : 	m_stInfo.pClass = pClass;

  00009	89 49 10	 mov	 DWORD PTR [ecx+16], ecx

; 36   : 	m_stInfo.pObj = pObj;

  0000c	c7 41 14 00 00
	00 00		 mov	 DWORD PTR [ecx+20], 0

; 37   : 	m_stInfo.millisecSleep = millisec;

  00013	89 41 20	 mov	 DWORD PTR [ecx+32], eax

; 38   : 	m_fpLoopProc = fpProc;

  00016	c7 01 00 00 00
	00		 mov	 DWORD PTR [ecx], OFFSET ?schedulerLoop@@YAXPAUSTThreadInfo@@@Z ; schedulerLoop

; 39   : 	m_nMillisecSleep = millisec;

  0001c	89 41 24	 mov	 DWORD PTR [ecx+36], eax

; 347  : 		comErrorPrint("m_cThread.init");
; 348  : 		return false;
; 349  : 	}
; 350  : 	if (!m_cThread.start()) {

  0001f	e8 00 00 00 00	 call	 ?start@CComThread@@QAE_NXZ ; CComThread::start
  00024	84 c0		 test	 al, al
  00026	75 2e		 jne	 SHORT $LN4@start
; File e:\infinia-library-3.0\com\include\comtypes.h

; 325  : 	sprintf(g_szSystemError, "ERROR! [%s:%d] %s\n", _szFunc, _nLine, pMsg);

  00028	68 00 00 00 00	 push	 OFFSET ??_C@_0BA@OBGMEFJD@m_cThread?4start?$AA@
  0002d	68 5f 01 00 00	 push	 351			; 0000015fH
  00032	68 00 00 00 00	 push	 OFFSET ??_C@_0BC@IDJCBBDP@CScheduler?3?3start?$AA@
  00037	68 00 00 00 00	 push	 OFFSET ??_C@_0BD@KEHDJCKJ@ERROR?$CB?5?$FL?$CFs?3?$CFd?$FN?5?$CFs?6?$AA@
  0003c	68 00 00 00 00	 push	 OFFSET ?g_szSystemError@@3PADA ; g_szSystemError
  00041	e8 00 00 00 00	 call	 _sprintf

; 326  : 	printf(g_szSystemError);

  00046	68 00 00 00 00	 push	 OFFSET ?g_szSystemError@@3PADA ; g_szSystemError
  0004b	e8 00 00 00 00	 call	 _printf
  00050	83 c4 18	 add	 esp, 24			; 00000018H
; File e:\infinia-library-3.0\com\src\comcore.cpp

; 352  : 		return false;

  00053	32 c0		 xor	 al, al

; 355  : }

  00055	c3		 ret	 0
$LN4@start:

; 353  : 	}
; 354  : 	return true;

  00056	b0 01		 mov	 al, 1

; 355  : }

  00058	c3		 ret	 0
?start@CScheduler@@QAE_NXZ ENDP				; CScheduler::start
_TEXT	ENDS
; Function compile flags: /Ogtp
; File e:\infinia-library-3.0\com\src\comcore.cpp
; File e:\infinia-library-3.0\com\include\com\win32\win32_mtsync.h
; File e:\infinia-library-3.0\com\include\comtlist.h
; File e:\infinia-library-3.0\com\include\com\win32\win32_mtsync.h
; File e:\infinia-library-3.0\com\src\comcore.cpp
; File e:\infinia-library-3.0\com\include\comcore.h
; File e:\infinia-library-3.0\com\src\comcore.cpp
;	COMDAT ?init@CScheduler@@QAE_NHHH@Z
_TEXT	SEGMENT
_nCount$ = 8						; size = 4
$T1 = 12						; size = 4
_nMilliSecWait$ = 12					; size = 4
_nIdx$ = 16						; size = 4
?init@CScheduler@@QAE_NHHH@Z PROC			; CScheduler::init, COMDAT
; _this$ = ecx

; 332  : {

  00000	55		 push	 ebp
  00001	8b ec		 mov	 ebp, esp

; 333  : 	m_nMilliSecWait = nMilliSecWait;

  00003	8b 45 0c	 mov	 eax, DWORD PTR _nMilliSecWait$[ebp]
  00006	56		 push	 esi
  00007	8b f1		 mov	 esi, ecx
  00009	89 46 2c	 mov	 DWORD PTR [esi+44], eax

; 334  : 	m_nMillSecHalf = m_nMilliSecWait / 2;

  0000c	99		 cdq
  0000d	2b c2		 sub	 eax, edx
  0000f	d1 f8		 sar	 eax, 1
  00011	89 46 30	 mov	 DWORD PTR [esi+48], eax

; 335  : 	m_nMillSecGoal = CURRENT_TIME + m_nMilliSecWait;

  00014	ff 15 00 00 00
	00		 call	 DWORD PTR __imp__GetTickCount@0
  0001a	03 46 2c	 add	 eax, DWORD PTR [esi+44]

; 336  : 	m_pTimeList = new CMemList<STIntervalInfo>();

  0001d	6a 1c		 push	 28			; 0000001cH
  0001f	89 46 34	 mov	 DWORD PTR [esi+52], eax
  00022	e8 00 00 00 00	 call	 ??2@YAPAXI@Z		; operator new
  00027	83 c4 04	 add	 esp, 4
  0002a	89 45 0c	 mov	 DWORD PTR $T1[ebp], eax
  0002d	85 c0		 test	 eax, eax
  0002f	74 36		 je	 SHORT $LN4@init
  00031	0f 57 c0	 xorps	 xmm0, xmm0
  00034	0f 11 00	 movups	 XMMWORD PTR [eax], xmm0
  00037	66 0f d6 40 10	 movq	 QWORD PTR [eax+16], xmm0
  0003c	c7 40 18 00 00
	00 00		 mov	 DWORD PTR [eax+24], 0
; File e:\infinia-library-3.0\com\include\com\win32\win32_mtsync.h

; 87   : 	win_atomic() {m_count = 0;}

  00043	c7 40 08 00 00
	00 00		 mov	 DWORD PTR [eax+8], 0
; File e:\infinia-library-3.0\com\include\comtlist.h

; 67   : 	m_pArray = NULL;

  0004a	c7 00 00 00 00
	00		 mov	 DWORD PTR [eax], 0

; 68   : 	m_nFlagArray = NULL;

  00050	c7 40 04 00 00
	00 00		 mov	 DWORD PTR [eax+4], 0

; 69   : 	m_nObjAllocType = eAlloc_Type_none;

  00057	c7 40 14 00 00
	00 00		 mov	 DWORD PTR [eax+20], 0
; File e:\infinia-library-3.0\com\include\com\win32\win32_mtsync.h

; 94   : 	inline void init() { m_count = 0; }

  0005e	c7 40 08 00 00
	00 00		 mov	 DWORD PTR [eax+8], 0
; File e:\infinia-library-3.0\com\src\comcore.cpp

; 336  : 	m_pTimeList = new CMemList<STIntervalInfo>();

  00065	eb 02		 jmp	 SHORT $LN5@init
$LN4@init:
  00067	33 c0		 xor	 eax, eax
$LN5@init:

; 337  : 	if (!m_pTimeList->alloc(nCount, eAlloc_Type_none)) { delete m_pTimeList; printf("has Failed!! m_pTimeList->alloc(%d)\n", nCount); return false; }

  00069	6a 00		 push	 0
  0006b	ff 75 08	 push	 DWORD PTR _nCount$[ebp]
  0006e	8b c8		 mov	 ecx, eax
  00070	89 46 28	 mov	 DWORD PTR [esi+40], eax
  00073	e8 00 00 00 00	 call	 ?alloc@?$CMemList@USTIntervalInfo@@@@QAEHHW4E_ALLOC_TYPE@@@Z ; CMemList<STIntervalInfo>::alloc
  00078	85 c0		 test	 eax, eax
  0007a	75 30		 jne	 SHORT $LN2@init
  0007c	8b 76 28	 mov	 esi, DWORD PTR [esi+40]
  0007f	85 f6		 test	 esi, esi
  00081	74 12		 je	 SHORT $LN19@init
  00083	8b ce		 mov	 ecx, esi
  00085	e8 00 00 00 00	 call	 ??1?$CMemList@USTIntervalInfo@@@@QAE@XZ ; CMemList<STIntervalInfo>::~CMemList<STIntervalInfo>
  0008a	6a 1c		 push	 28			; 0000001cH
  0008c	56		 push	 esi
  0008d	e8 00 00 00 00	 call	 ??3@YAXPAXI@Z		; operator delete
  00092	83 c4 08	 add	 esp, 8
$LN19@init:
  00095	ff 75 08	 push	 DWORD PTR _nCount$[ebp]
  00098	68 00 00 00 00	 push	 OFFSET ??_C@_0CF@NHNDBAHP@has?5Failed?$CB?$CB?5m_pTimeList?9?$DOalloc?$CI@
  0009d	e8 00 00 00 00	 call	 _printf
  000a2	83 c4 08	 add	 esp, 8
  000a5	32 c0		 xor	 al, al
  000a7	5e		 pop	 esi

; 340  : }

  000a8	5d		 pop	 ebp
  000a9	c2 0c 00	 ret	 12			; 0000000cH
$LN2@init:
; File e:\infinia-library-3.0\com\include\comcore.h

; 90   : 	inline void setIdx(int nIdx) { m_stInfo.nIdx = nIdx; }

  000ac	8b 45 10	 mov	 eax, DWORD PTR _nIdx$[ebp]
  000af	89 46 18	 mov	 DWORD PTR [esi+24], eax
; File e:\infinia-library-3.0\com\src\comcore.cpp

; 339  : 	return true;

  000b2	b0 01		 mov	 al, 1
  000b4	5e		 pop	 esi

; 340  : }

  000b5	5d		 pop	 ebp
  000b6	c2 0c 00	 ret	 12			; 0000000cH
?init@CScheduler@@QAE_NHHH@Z ENDP			; CScheduler::init
_TEXT	ENDS
; Function compile flags: /Ogtp
; File e:\infinia-library-3.0\com\src\comcore.cpp
; File e:\infinia-library-3.0\com\include\com\win32\win32_mtsync.h
; File e:\infinia-library-3.0\com\include\comtlist.h
; File e:\infinia-library-3.0\com\include\com\win32\win32_mtsync.h
; File e:\infinia-library-3.0\com\src\comcore.cpp
;	COMDAT ?initConfig@CScheduler@@QAE_NPADH0@Z
_TEXT	SEGMENT
$T1 = -32						; size = 4
_szSect$ = -28						; size = 24
__$ArrayPad$ = -4					; size = 4
_pConfigFile$ = 8					; size = 4
_i$ = 12						; size = 4
_pSection$ = 16						; size = 4
?initConfig@CScheduler@@QAE_NPADH0@Z PROC		; CScheduler::initConfig, COMDAT
; _this$ = ecx

; 313  : {

  00000	55		 push	 ebp
  00001	8b ec		 mov	 ebp, esp
  00003	83 ec 20	 sub	 esp, 32			; 00000020H
  00006	a1 00 00 00 00	 mov	 eax, DWORD PTR ___security_cookie
  0000b	33 c5		 xor	 eax, ebp
  0000d	89 45 fc	 mov	 DWORD PTR __$ArrayPad$[ebp], eax
  00010	8b 45 10	 mov	 eax, DWORD PTR _pSection$[ebp]
  00013	53		 push	 ebx
  00014	8b 5d 08	 mov	 ebx, DWORD PTR _pConfigFile$[ebp]
  00017	56		 push	 esi
  00018	57		 push	 edi

; 314  : 	TCHAR szSect[24];
; 315  : 	int nCount;
; 316  : 
; 317  : 	_stprintf(szSect, _T("%s_%d"), pSection, i);

  00019	ff 75 0c	 push	 DWORD PTR _i$[ebp]
  0001c	8b f1		 mov	 esi, ecx
  0001e	50		 push	 eax
  0001f	8d 45 e4	 lea	 eax, DWORD PTR _szSect$[ebp]
  00022	68 00 00 00 00	 push	 OFFSET ??_C@_05LFHGFJK@?$CFs_?$CFd?$AA@
  00027	50		 push	 eax
  00028	e8 00 00 00 00	 call	 _sprintf
  0002d	83 c4 10	 add	 esp, 16			; 00000010H

; 318  : 	nCount = GetPrivateProfileInt(szSect, _T("LIST_COUNT"), 0, pConfigFile);

  00030	8d 45 e4	 lea	 eax, DWORD PTR _szSect$[ebp]
  00033	53		 push	 ebx
  00034	6a 00		 push	 0
  00036	68 00 00 00 00	 push	 OFFSET ??_C@_0L@GOMEIANA@LIST_COUNT?$AA@
  0003b	50		 push	 eax
  0003c	ff 15 00 00 00
	00		 call	 DWORD PTR __imp__GetPrivateProfileIntA@16
  00042	8b f8		 mov	 edi, eax

; 319  : 	if (!nCount) return false;

  00044	85 ff		 test	 edi, edi
  00046	0f 84 aa 00 00
	00		 je	 $LN23@initConfig

; 320  : 	m_nMilliSecWait = GetPrivateProfileInt(szSect, _T("TIME_WAIT"), -1, pConfigFile);

  0004c	53		 push	 ebx
  0004d	6a ff		 push	 -1
  0004f	68 00 00 00 00	 push	 OFFSET ??_C@_09IPMPDBLL@TIME_WAIT?$AA@
  00054	8d 45 e4	 lea	 eax, DWORD PTR _szSect$[ebp]
  00057	50		 push	 eax
  00058	ff 15 00 00 00
	00		 call	 DWORD PTR __imp__GetPrivateProfileIntA@16
  0005e	89 46 2c	 mov	 DWORD PTR [esi+44], eax

; 321  : 	m_nMillSecHalf = m_nMilliSecWait / 2;

  00061	99		 cdq
  00062	2b c2		 sub	 eax, edx
  00064	d1 f8		 sar	 eax, 1
  00066	89 46 30	 mov	 DWORD PTR [esi+48], eax

; 322  : 	m_nMillSecGoal = CURRENT_TIME + m_nMilliSecWait;

  00069	ff 15 00 00 00
	00		 call	 DWORD PTR __imp__GetTickCount@0
  0006f	03 46 2c	 add	 eax, DWORD PTR [esi+44]

; 324  : 	m_pTimeList = new CMemList<STIntervalInfo>();

  00072	6a 1c		 push	 28			; 0000001cH
  00074	89 46 34	 mov	 DWORD PTR [esi+52], eax
  00077	e8 00 00 00 00	 call	 ??2@YAPAXI@Z		; operator new
  0007c	83 c4 04	 add	 esp, 4
  0007f	89 45 e0	 mov	 DWORD PTR $T1[ebp], eax
  00082	85 c0		 test	 eax, eax
  00084	74 36		 je	 SHORT $LN5@initConfig
  00086	0f 57 c0	 xorps	 xmm0, xmm0
  00089	0f 11 00	 movups	 XMMWORD PTR [eax], xmm0
  0008c	66 0f d6 40 10	 movq	 QWORD PTR [eax+16], xmm0
  00091	c7 40 18 00 00
	00 00		 mov	 DWORD PTR [eax+24], 0
; File e:\infinia-library-3.0\com\include\com\win32\win32_mtsync.h

; 87   : 	win_atomic() {m_count = 0;}

  00098	c7 40 08 00 00
	00 00		 mov	 DWORD PTR [eax+8], 0
; File e:\infinia-library-3.0\com\include\comtlist.h

; 67   : 	m_pArray = NULL;

  0009f	c7 00 00 00 00
	00		 mov	 DWORD PTR [eax], 0

; 68   : 	m_nFlagArray = NULL;

  000a5	c7 40 04 00 00
	00 00		 mov	 DWORD PTR [eax+4], 0

; 69   : 	m_nObjAllocType = eAlloc_Type_none;

  000ac	c7 40 14 00 00
	00 00		 mov	 DWORD PTR [eax+20], 0
; File e:\infinia-library-3.0\com\include\com\win32\win32_mtsync.h

; 94   : 	inline void init() { m_count = 0; }

  000b3	c7 40 08 00 00
	00 00		 mov	 DWORD PTR [eax+8], 0
; File e:\infinia-library-3.0\com\src\comcore.cpp

; 324  : 	m_pTimeList = new CMemList<STIntervalInfo>();

  000ba	eb 02		 jmp	 SHORT $LN6@initConfig
$LN5@initConfig:
  000bc	33 c0		 xor	 eax, eax
$LN6@initConfig:

; 325  : 	if (!m_pTimeList->alloc(nCount, eAlloc_Type_none)) { delete m_pTimeList; printf("has Failed!! m_pTimeList->alloc(%d)\n", nCount); return false; }

  000be	6a 00		 push	 0
  000c0	57		 push	 edi
  000c1	8b c8		 mov	 ecx, eax
  000c3	89 46 28	 mov	 DWORD PTR [esi+40], eax
  000c6	e8 00 00 00 00	 call	 ?alloc@?$CMemList@USTIntervalInfo@@@@QAEHHW4E_ALLOC_TYPE@@@Z ; CMemList<STIntervalInfo>::alloc
  000cb	85 c0		 test	 eax, eax
  000cd	75 3c		 jne	 SHORT $LN3@initConfig
  000cf	8b 76 28	 mov	 esi, DWORD PTR [esi+40]
  000d2	85 f6		 test	 esi, esi
  000d4	74 12		 je	 SHORT $LN20@initConfig
  000d6	8b ce		 mov	 ecx, esi
  000d8	e8 00 00 00 00	 call	 ??1?$CMemList@USTIntervalInfo@@@@QAE@XZ ; CMemList<STIntervalInfo>::~CMemList<STIntervalInfo>
  000dd	6a 1c		 push	 28			; 0000001cH
  000df	56		 push	 esi
  000e0	e8 00 00 00 00	 call	 ??3@YAXPAXI@Z		; operator delete
  000e5	83 c4 08	 add	 esp, 8
$LN20@initConfig:
  000e8	57		 push	 edi
  000e9	68 00 00 00 00	 push	 OFFSET ??_C@_0CF@NHNDBAHP@has?5Failed?$CB?$CB?5m_pTimeList?9?$DOalloc?$CI@
  000ee	e8 00 00 00 00	 call	 _printf
  000f3	83 c4 08	 add	 esp, 8
$LN23@initConfig:
  000f6	5f		 pop	 edi
  000f7	5e		 pop	 esi
  000f8	32 c0		 xor	 al, al
  000fa	5b		 pop	 ebx

; 326  : 
; 327  : 	return true;
; 328  : 
; 329  : }

  000fb	8b 4d fc	 mov	 ecx, DWORD PTR __$ArrayPad$[ebp]
  000fe	33 cd		 xor	 ecx, ebp
  00100	e8 00 00 00 00	 call	 @__security_check_cookie@4
  00105	8b e5		 mov	 esp, ebp
  00107	5d		 pop	 ebp
  00108	c2 0c 00	 ret	 12			; 0000000cH
$LN3@initConfig:
  0010b	8b 4d fc	 mov	 ecx, DWORD PTR __$ArrayPad$[ebp]
  0010e	b0 01		 mov	 al, 1
  00110	5f		 pop	 edi
  00111	5e		 pop	 esi
  00112	33 cd		 xor	 ecx, ebp
  00114	5b		 pop	 ebx
  00115	e8 00 00 00 00	 call	 @__security_check_cookie@4
  0011a	8b e5		 mov	 esp, ebp
  0011c	5d		 pop	 ebp
  0011d	c2 0c 00	 ret	 12			; 0000000cH
?initConfig@CScheduler@@QAE_NPADH0@Z ENDP		; CScheduler::initConfig
_TEXT	ENDS
; Function compile flags: /Ogtp
; File e:\infinia-library-3.0\com\src\comcore.cpp
; File e:\infinia-library-3.0\com\include\com\win32\win32_mtsync.h
; File e:\infinia-library-3.0\com\include\com\abstract_mtsync.h
; File e:\infinia-library-3.0\com\src\comcore.cpp
;	COMDAT ??1CScheduler@@QAE@XZ
_TEXT	SEGMENT
??1CScheduler@@QAE@XZ PROC				; CScheduler::~CScheduler, COMDAT
; _this$ = ecx

; 308  : {

  00000	56		 push	 esi
  00001	8b f1		 mov	 esi, ecx
  00003	57		 push	 edi

; 66   : 	if (!m_stInfo.hTHID) return false;

  00004	8b 3d 00 00 00
	00		 mov	 edi, DWORD PTR __imp__CloseHandle@4
  0000a	8b 46 04	 mov	 eax, DWORD PTR [esi+4]
  0000d	85 c0		 test	 eax, eax
  0000f	74 07		 je	 SHORT $LN8@CScheduler

; 67   : 	int nStatus = 0; // for linux
; 68   : 	m_stInfo.bActive = false;
; 69   : 	THREAD_JOIN(m_stInfo.hTHID, (void **)&nStatus);

  00011	50		 push	 eax
  00012	c6 46 1c 00	 mov	 BYTE PTR [esi+28], 0
  00016	ff d7		 call	 edi
$LN8@CScheduler:
  00018	53		 push	 ebx

; 360  : 	if (m_pTimeList) {

  00019	8b 5e 28	 mov	 ebx, DWORD PTR [esi+40]
  0001c	85 db		 test	 ebx, ebx
  0001e	74 19		 je	 SHORT $LN4@CScheduler
  00020	8b cb		 mov	 ecx, ebx
  00022	e8 00 00 00 00	 call	 ??1?$CMemList@USTIntervalInfo@@@@QAE@XZ ; CMemList<STIntervalInfo>::~CMemList<STIntervalInfo>
  00027	6a 1c		 push	 28			; 0000001cH
  00029	53		 push	 ebx
  0002a	e8 00 00 00 00	 call	 ??3@YAXPAXI@Z		; operator delete
  0002f	83 c4 08	 add	 esp, 8

; 361  : 		delete m_pTimeList;
; 362  : 		m_pTimeList = NULL;

  00032	c7 46 28 00 00
	00 00		 mov	 DWORD PTR [esi+40], 0
$LN4@CScheduler:

; 66   : 	if (!m_stInfo.hTHID) return false;

  00039	8b 46 04	 mov	 eax, DWORD PTR [esi+4]
  0003c	5b		 pop	 ebx
  0003d	85 c0		 test	 eax, eax
  0003f	74 07		 je	 SHORT $LN18@CScheduler

; 67   : 	int nStatus = 0; // for linux
; 68   : 	m_stInfo.bActive = false;
; 69   : 	THREAD_JOIN(m_stInfo.hTHID, (void **)&nStatus);

  00041	50		 push	 eax
  00042	c6 46 1c 00	 mov	 BYTE PTR [esi+28], 0
  00046	ff d7		 call	 edi
$LN18@CScheduler:
; File e:\infinia-library-3.0\com\include\com\win32\win32_mtsync.h

; 64   : 	  ~condition() { CloseHandle(m_event); }

  00048	ff 76 0c	 push	 DWORD PTR [esi+12]
  0004b	c7 46 08 00 00
	00 00		 mov	 DWORD PTR [esi+8], OFFSET ??_7condition@win32@common@@6B@
  00052	ff d7		 call	 edi
  00054	5f		 pop	 edi
; File e:\infinia-library-3.0\com\include\com\abstract_mtsync.h

; 72   : 	virtual ~abstract_condition() {}

  00055	c7 46 08 00 00
	00 00		 mov	 DWORD PTR [esi+8], OFFSET ??_7abstract_condition@common@@6B@
  0005c	5e		 pop	 esi
; File e:\infinia-library-3.0\com\src\comcore.cpp

; 310  : }

  0005d	c3		 ret	 0
??1CScheduler@@QAE@XZ ENDP				; CScheduler::~CScheduler
_TEXT	ENDS
; Function compile flags: /Ogtp
; File e:\infinia-library-3.0\com\src\comcore.cpp
; File e:\infinia-library-3.0\com\include\com\win32\win32_mtsync.h
; File e:\infinia-library-3.0\com\src\comcore.cpp
; File e:\infinia-library-3.0\com\include\com\win32\win32_mtsync.h
; File e:\infinia-library-3.0\com\src\comcore.cpp
; File e:\infinia-library-3.0\com\include\com\win32\win32_mtsync.h
; File e:\infinia-library-3.0\com\src\comcore.cpp
;	COMDAT ??0CScheduler@@QAE@XZ
_TEXT	SEGMENT
_this$ = -4						; size = 4
??0CScheduler@@QAE@XZ PROC				; CScheduler::CScheduler, COMDAT
; _this$ = ecx

; 302  : {

  00000	55		 push	 ebp
  00001	8b ec		 mov	 ebp, esp
  00003	51		 push	 ecx
  00004	56		 push	 esi
; File e:\infinia-library-3.0\com\include\com\win32\win32_mtsync.h

; 63   : 	  condition() { m_event = CreateEvent(NULL, TRUE, FALSE, NULL);}

  00005	6a 00		 push	 0
; File e:\infinia-library-3.0\com\src\comcore.cpp

; 302  : {

  00007	8b f1		 mov	 esi, ecx
; File e:\infinia-library-3.0\com\include\com\win32\win32_mtsync.h

; 63   : 	  condition() { m_event = CreateEvent(NULL, TRUE, FALSE, NULL);}

  00009	6a 00		 push	 0
  0000b	6a 01		 push	 1
  0000d	6a 00		 push	 0
; File e:\infinia-library-3.0\com\src\comcore.cpp

; 302  : {

  0000f	89 75 fc	 mov	 DWORD PTR _this$[ebp], esi
; File e:\infinia-library-3.0\com\include\com\win32\win32_mtsync.h

; 63   : 	  condition() { m_event = CreateEvent(NULL, TRUE, FALSE, NULL);}

  00012	c7 46 08 00 00
	00 00		 mov	 DWORD PTR [esi+8], OFFSET ??_7condition@win32@common@@6B@
  00019	ff 15 00 00 00
	00		 call	 DWORD PTR __imp__CreateEventA@16
  0001f	89 46 0c	 mov	 DWORD PTR [esi+12], eax
; File e:\infinia-library-3.0\com\src\comcore.cpp

; 306  : }

  00022	8b c6		 mov	 eax, esi

; 16   : 	m_stInfo.bActive = false;

  00024	c6 46 1c 00	 mov	 BYTE PTR [esi+28], 0

; 17   : 	m_stInfo.hTHID = NULL;

  00028	c7 46 04 00 00
	00 00		 mov	 DWORD PTR [esi+4], 0

; 18   : 	m_stInfo.nIdx = -1;

  0002f	c7 46 18 ff ff
	ff ff		 mov	 DWORD PTR [esi+24], -1

; 19   : 	m_stInfo.pClass = NULL;

  00036	c7 46 10 00 00
	00 00		 mov	 DWORD PTR [esi+16], 0

; 20   : 	m_stInfo.millisecSleep = INFINITE;

  0003d	c7 46 20 ff ff
	ff ff		 mov	 DWORD PTR [esi+32], -1

; 21   : 	m_nMillisecSleep = INFINITE;

  00044	c7 46 24 ff ff
	ff ff		 mov	 DWORD PTR [esi+36], -1

; 22   : 	m_stInfo.pObj = NULL;

  0004b	c7 46 14 00 00
	00 00		 mov	 DWORD PTR [esi+20], 0

; 23   : 	m_fpLoopProc = NULL;

  00052	c7 06 00 00 00
	00		 mov	 DWORD PTR [esi], 0

; 303  : 	m_pTimeList = NULL;

  00058	c7 46 28 00 00
	00 00		 mov	 DWORD PTR [esi+40], 0

; 304  : 	m_nMilliSecWait = -1;

  0005f	c7 46 2c ff ff
	ff ff		 mov	 DWORD PTR [esi+44], -1

; 305  : 	m_nMillSecGoal = 0;

  00066	c7 46 34 00 00
	00 00		 mov	 DWORD PTR [esi+52], 0
  0006d	5e		 pop	 esi

; 306  : }

  0006e	8b e5		 mov	 esp, ebp
  00070	5d		 pop	 ebp
  00071	c3		 ret	 0
??0CScheduler@@QAE@XZ ENDP				; CScheduler::CScheduler
_TEXT	ENDS
; Function compile flags: /Ogtp
; File e:\infinia-library-3.0\com\src\comcore.cpp
; File e:\infinia-library-3.0\com\include\comcore.h
; File e:\infinia-library-3.0\com\src\comcore.cpp
; File e:\infinia-library-3.0\com\include\comcore.h
; File e:\infinia-library-3.0\com\src\comcore.cpp
; File e:\infinia-library-3.0\com\include\comcore.h
; File e:\infinia-library-3.0\com\src\comcore.cpp
; File e:\infinia-library-3.0\com\include\comcore.h
; File e:\infinia-library-3.0\com\src\comcore.cpp
; File e:\infinia-library-3.0\com\include\comcore.h
; File e:\infinia-library-3.0\com\src\comcore.cpp
; File e:\infinia-library-3.0\com\include\comtlist.h
; File e:\infinia-library-3.0\com\include\com\win32\win32_mtsync.h
; File e:\infinia-library-3.0\com\include\comtlist.h
; File e:\infinia-library-3.0\com\include\com\win32\win32_mtsync.h
; File e:\infinia-library-3.0\com\include\comtlist.h
; File e:\infinia-library-3.0\com\src\comcore.cpp
; File e:\infinia-library-3.0\com\include\comcore.h
; File e:\infinia-library-3.0\com\src\comcore.cpp
; File e:\infinia-library-3.0\com\include\comtlist.h
; File e:\infinia-library-3.0\com\src\comcore.cpp
;	COMDAT ?schedulerLoop@@YAXPAUSTThreadInfo@@@Z
_TEXT	SEGMENT
_idx$ = 8						; size = 4
_p$ = 8							; size = 4
?schedulerLoop@@YAXPAUSTThreadInfo@@@Z PROC		; schedulerLoop, COMDAT

; 368  : {

  00000	55		 push	 ebp
  00001	8b ec		 mov	 ebp, esp
  00003	53		 push	 ebx

; 369  : 	CScheduler *pBasic = (CScheduler *)p->pClass;

  00004	8b 5d 08	 mov	 ebx, DWORD PTR _p$[ebp]
  00007	57		 push	 edi
  00008	8b 7b 0c	 mov	 edi, DWORD PTR [ebx+12]

; 370  : 	STIntervalInfo *pData;
; 371  : 	TICKTIME_MILLISEC cur = CURRENT_TIME;

  0000b	ff 15 00 00 00
	00		 call	 DWORD PTR __imp__GetTickCount@0

; 372  : 	int diff = pBasic->getGoal() - cur;

  00011	8b 4f 34	 mov	 ecx, DWORD PTR [edi+52]
  00014	2b c8		 sub	 ecx, eax

; 373  : 	
; 374  : 
; 375  : 	if (1 < diff) {

  00016	83 f9 01	 cmp	 ecx, 1
  00019	7e 07		 jle	 SHORT $LN4@schedulerL

; 376  : 		p->millisecSleep = diff;

  0001b	5f		 pop	 edi
  0001c	89 4b 1c	 mov	 DWORD PTR [ebx+28], ecx
  0001f	5b		 pop	 ebx

; 398  : }

  00020	5d		 pop	 ebp
  00021	c3		 ret	 0
$LN4@schedulerL:
; File e:\infinia-library-3.0\com\include\comcore.h

; 140  : 	inline STIntervalInfo *timeNext(int *idx) { return m_pTimeList->getNext(idx); }

  00022	8b 4f 28	 mov	 ecx, DWORD PTR [edi+40]
  00025	8d 45 08	 lea	 eax, DWORD PTR _idx$[ebp]
  00028	50		 push	 eax
; File e:\infinia-library-3.0\com\src\comcore.cpp

; 381  : 	int idx = 0;

  00029	c7 45 08 00 00
	00 00		 mov	 DWORD PTR _idx$[ebp], 0
; File e:\infinia-library-3.0\com\include\comcore.h

; 140  : 	inline STIntervalInfo *timeNext(int *idx) { return m_pTimeList->getNext(idx); }

  00030	e8 00 00 00 00	 call	 ?getNext@?$CMemList@USTIntervalInfo@@@@QAEPAUSTIntervalInfo@@PAH@Z ; CMemList<STIntervalInfo>::getNext
; File e:\infinia-library-3.0\com\src\comcore.cpp

; 383  : 	while (pData)

  00035	85 c0		 test	 eax, eax
  00037	74 63		 je	 SHORT $LN3@schedulerL
  00039	56		 push	 esi
  0003a	8b 75 08	 mov	 esi, DWORD PTR _idx$[ebp]
  0003d	0f 1f 00	 npad	 3
$LL2@schedulerL:

; 385  : 		if (!pData->nFlag) {

  00040	83 78 04 00	 cmp	 DWORD PTR [eax+4], 0
; File e:\infinia-library-3.0\com\include\comcore.h

; 141  : 	inline bool deleteTime(STIntervalInfo *pData) { return m_pTimeList->del(pData); }

  00044	50		 push	 eax
; File e:\infinia-library-3.0\com\src\comcore.cpp

; 385  : 		if (!pData->nFlag) {

  00045	75 0a		 jne	 SHORT $LN5@schedulerL
; File e:\infinia-library-3.0\com\include\comcore.h

; 141  : 	inline bool deleteTime(STIntervalInfo *pData) { return m_pTimeList->del(pData); }

  00047	8b 4f 28	 mov	 ecx, DWORD PTR [edi+40]
  0004a	e8 00 00 00 00	 call	 ?del@?$CMemList@USTIntervalInfo@@@@QAE_NPAUSTIntervalInfo@@@Z ; CMemList<STIntervalInfo>::del
; File e:\infinia-library-3.0\com\src\comcore.cpp

; 388  : 		else 

  0004f	eb 08		 jmp	 SHORT $LN6@schedulerL
$LN5@schedulerL:

; 389  : 		{
; 390  : 			pData->pFunction(pData);

  00051	8b 40 18	 mov	 eax, DWORD PTR [eax+24]
  00054	ff d0		 call	 eax
  00056	83 c4 04	 add	 esp, 4
$LN6@schedulerL:
; File e:\infinia-library-3.0\com\include\comcore.h

; 140  : 	inline STIntervalInfo *timeNext(int *idx) { return m_pTimeList->getNext(idx); }

  00059	8b 57 28	 mov	 edx, DWORD PTR [edi+40]
; File e:\infinia-library-3.0\com\src\comcore.cpp

; 393  : 		idx++;

  0005c	46		 inc	 esi
  0005d	89 75 08	 mov	 DWORD PTR _idx$[ebp], esi
; File e:\infinia-library-3.0\com\include\comtlist.h

; 138  : 	if (i < m_nMaxCount)

  00060	3b 72 10	 cmp	 esi, DWORD PTR [edx+16]
  00063	7d 30		 jge	 SHORT $LN18@schedulerL
; File e:\infinia-library-3.0\com\include\com\win32\win32_mtsync.h

; 91   : 	inline int getCount() { return (int)m_count; }

  00065	8b 42 04	 mov	 eax, DWORD PTR [edx+4]
; File e:\infinia-library-3.0\com\include\comtlist.h

; 140  : 		if (m_nFlagArray[i].getCount() == 2) {

  00068	83 3c b0 02	 cmp	 DWORD PTR [eax+esi*4], 2
  0006c	75 0a		 jne	 SHORT $LN21@schedulerL

; 141  : 			*pCurIdx = i;
; 142  : 			return m_pArray[i];

  0006e	8b 02		 mov	 eax, DWORD PTR [edx]
  00070	8b 04 b0	 mov	 eax, DWORD PTR [eax+esi*4]
  00073	8b 75 08	 mov	 esi, DWORD PTR _idx$[ebp]
  00076	eb 1f		 jmp	 SHORT $LN16@schedulerL
$LN21@schedulerL:

; 143  : 		}
; 144  : 		else
; 145  : 		{
; 146  : 			int idx = i + 1;

  00078	8b 75 08	 mov	 esi, DWORD PTR _idx$[ebp]
  0007b	8d 46 01	 lea	 eax, DWORD PTR [esi+1]

; 147  : 			for (idx; idx < m_nMaxCount; idx++)

  0007e	3b 42 10	 cmp	 eax, DWORD PTR [edx+16]
  00081	7d 12		 jge	 SHORT $LN18@schedulerL
$LL19@schedulerL:
; File e:\infinia-library-3.0\com\include\com\win32\win32_mtsync.h

; 91   : 	inline int getCount() { return (int)m_count; }

  00083	8b 4a 04	 mov	 ecx, DWORD PTR [edx+4]
; File e:\infinia-library-3.0\com\include\comtlist.h

; 149  : 				if (m_nFlagArray[idx].getCount() == 2) {

  00086	83 3c 81 02	 cmp	 DWORD PTR [ecx+eax*4], 2
  0008a	74 20		 je	 SHORT $LN35@schedulerL

; 147  : 			for (idx; idx < m_nMaxCount; idx++)

  0008c	40		 inc	 eax
  0008d	3b 42 10	 cmp	 eax, DWORD PTR [edx+16]
  00090	7c f1		 jl	 SHORT $LL19@schedulerL

; 149  : 				if (m_nFlagArray[idx].getCount() == 2) {

  00092	8b 75 08	 mov	 esi, DWORD PTR _idx$[ebp]
$LN18@schedulerL:

; 152  : 				}
; 153  : 			}
; 154  : 		}
; 155  : 	}
; 156  : 	return NULL;

  00095	33 c0		 xor	 eax, eax
$LN16@schedulerL:
; File e:\infinia-library-3.0\com\src\comcore.cpp

; 383  : 	while (pData)

  00097	85 c0		 test	 eax, eax
  00099	75 a5		 jne	 SHORT $LL2@schedulerL
  0009b	5e		 pop	 esi
$LN3@schedulerL:
; File e:\infinia-library-3.0\com\include\comcore.h

; 145  : 	inline void setGoal() {	m_nMillSecGoal += m_nMilliSecWait;	}

  0009c	8b 47 2c	 mov	 eax, DWORD PTR [edi+44]
  0009f	01 47 34	 add	 DWORD PTR [edi+52], eax
; File e:\infinia-library-3.0\com\src\comcore.cpp

; 397  : 	p->millisecSleep = pBasic->getMilliSecHalf();

  000a2	8b 47 30	 mov	 eax, DWORD PTR [edi+48]
  000a5	5f		 pop	 edi
  000a6	89 43 1c	 mov	 DWORD PTR [ebx+28], eax
  000a9	5b		 pop	 ebx

; 398  : }

  000aa	5d		 pop	 ebp
  000ab	c3		 ret	 0
$LN35@schedulerL:
; File e:\infinia-library-3.0\com\include\comtlist.h

; 151  : 					return m_pArray[idx];

  000ac	8b 0a		 mov	 ecx, DWORD PTR [edx]
  000ae	8b f0		 mov	 esi, eax
  000b0	8b 04 81	 mov	 eax, DWORD PTR [ecx+eax*4]
  000b3	eb e2		 jmp	 SHORT $LN16@schedulerL
?schedulerLoop@@YAXPAUSTThreadInfo@@@Z ENDP		; schedulerLoop
_TEXT	ENDS
; Function compile flags: /Ogtp
;	COMDAT ??_ECSTLogger@@QAEPAXI@Z
_TEXT	SEGMENT
__$EHRec$ = -12						; size = 12
___flags$ = 8						; size = 4
??_ECSTLogger@@QAEPAXI@Z PROC				; CSTLogger::`vector deleting destructor', COMDAT
; _this$ = ecx
  00000	55		 push	 ebp
  00001	8b ec		 mov	 ebp, esp
  00003	6a ff		 push	 -1
  00005	68 00 00 00 00	 push	 __ehhandler$??_ECSTLogger@@QAEPAXI@Z
  0000a	64 a1 00 00 00
	00		 mov	 eax, DWORD PTR fs:0
  00010	50		 push	 eax
  00011	53		 push	 ebx
  00012	56		 push	 esi
  00013	57		 push	 edi
  00014	a1 00 00 00 00	 mov	 eax, DWORD PTR ___security_cookie
  00019	33 c5		 xor	 eax, ebp
  0001b	50		 push	 eax
  0001c	8d 45 f4	 lea	 eax, DWORD PTR __$EHRec$[ebp]
  0001f	64 a3 00 00 00
	00		 mov	 DWORD PTR fs:0, eax
  00025	8b f1		 mov	 esi, ecx
  00027	8b 5d 08	 mov	 ebx, DWORD PTR ___flags$[ebp]
  0002a	f6 c3 02	 test	 bl, 2
  0002d	74 43		 je	 SHORT $LN2@vector
  0002f	68 00 00 00 00	 push	 OFFSET ??1CSTLogger@@QAE@XZ ; CSTLogger::~CSTLogger
  00034	ff 76 fc	 push	 DWORD PTR [esi-4]
  00037	8d 7e fc	 lea	 edi, DWORD PTR [esi-4]
  0003a	6a 30		 push	 48			; 00000030H
  0003c	56		 push	 esi
  0003d	e8 00 00 00 00	 call	 ??_M@YGXPAXIIP6EX0@Z@Z
  00042	f6 c3 01	 test	 bl, 1
  00045	74 15		 je	 SHORT $LN3@vector
  00047	8b 0f		 mov	 ecx, DWORD PTR [edi]
  00049	8d 0c 49	 lea	 ecx, DWORD PTR [ecx+ecx*2]
  0004c	c1 e1 04	 shl	 ecx, 4
  0004f	83 c1 04	 add	 ecx, 4
  00052	51		 push	 ecx
  00053	57		 push	 edi
  00054	e8 00 00 00 00	 call	 ??_V@YAXPAXI@Z		; operator delete[]
  00059	83 c4 08	 add	 esp, 8
$LN3@vector:
  0005c	8b c7		 mov	 eax, edi
  0005e	8b 4d f4	 mov	 ecx, DWORD PTR __$EHRec$[ebp]
  00061	64 89 0d 00 00
	00 00		 mov	 DWORD PTR fs:0, ecx
  00068	59		 pop	 ecx
  00069	5f		 pop	 edi
  0006a	5e		 pop	 esi
  0006b	5b		 pop	 ebx
  0006c	8b e5		 mov	 esp, ebp
  0006e	5d		 pop	 ebp
  0006f	c2 04 00	 ret	 4
$LN2@vector:
  00072	e8 00 00 00 00	 call	 ??1CSTLogger@@QAE@XZ	; CSTLogger::~CSTLogger
  00077	f6 c3 01	 test	 bl, 1
  0007a	74 0b		 je	 SHORT $LN4@vector
  0007c	6a 30		 push	 48			; 00000030H
  0007e	56		 push	 esi
  0007f	e8 00 00 00 00	 call	 ??3@YAXPAXI@Z		; operator delete
  00084	83 c4 08	 add	 esp, 8
$LN4@vector:
  00087	8b c6		 mov	 eax, esi
  00089	8b 4d f4	 mov	 ecx, DWORD PTR __$EHRec$[ebp]
  0008c	64 89 0d 00 00
	00 00		 mov	 DWORD PTR fs:0, ecx
  00093	59		 pop	 ecx
  00094	5f		 pop	 edi
  00095	5e		 pop	 esi
  00096	5b		 pop	 ebx
  00097	8b e5		 mov	 esp, ebp
  00099	5d		 pop	 ebp
  0009a	c2 04 00	 ret	 4
_TEXT	ENDS
;	COMDAT text$x
text$x	SEGMENT
__ehhandler$??_ECSTLogger@@QAEPAXI@Z:
  00000	8b 54 24 08	 mov	 edx, DWORD PTR [esp+8]
  00004	8d 42 0c	 lea	 eax, DWORD PTR [edx+12]
  00007	8b 4a f0	 mov	 ecx, DWORD PTR [edx-16]
  0000a	33 c8		 xor	 ecx, eax
  0000c	e8 00 00 00 00	 call	 @__security_check_cookie@4
  00011	b8 00 00 00 00	 mov	 eax, OFFSET __ehfuncinfo$??_ECSTLogger@@QAEPAXI@Z
  00016	e9 00 00 00 00	 jmp	 ___CxxFrameHandler3
text$x	ENDS
??_ECSTLogger@@QAEPAXI@Z ENDP				; CSTLogger::`vector deleting destructor'
; Function compile flags: /Ogtp
;	COMDAT ??_GCSTLogger@@QAEPAXI@Z
_TEXT	SEGMENT
___flags$ = 8						; size = 4
??_GCSTLogger@@QAEPAXI@Z PROC				; CSTLogger::`scalar deleting destructor', COMDAT
; _this$ = ecx
  00000	55		 push	 ebp
  00001	8b ec		 mov	 ebp, esp
  00003	56		 push	 esi
  00004	8b f1		 mov	 esi, ecx
  00006	e8 00 00 00 00	 call	 ??1CSTLogger@@QAE@XZ	; CSTLogger::~CSTLogger
  0000b	f6 45 08 01	 test	 BYTE PTR ___flags$[ebp], 1
  0000f	74 0b		 je	 SHORT $LN4@scalar
  00011	6a 30		 push	 48			; 00000030H
  00013	56		 push	 esi
  00014	e8 00 00 00 00	 call	 ??3@YAXPAXI@Z		; operator delete
  00019	83 c4 08	 add	 esp, 8
$LN4@scalar:
  0001c	8b c6		 mov	 eax, esi
  0001e	5e		 pop	 esi
  0001f	5d		 pop	 ebp
  00020	c2 04 00	 ret	 4
??_GCSTLogger@@QAEPAXI@Z ENDP				; CSTLogger::`scalar deleting destructor'
_TEXT	ENDS
; Function compile flags: /Ogtp
; File e:\infinia-library-3.0\com\src\comcore.cpp
; File e:\infinia-library-3.0\com\include\comtlist.h
; File e:\infinia-library-3.0\com\src\comcore.cpp
;	COMDAT ?_init@CSTLogger@@AAE_NH@Z
_TEXT	SEGMENT
$T2 = -16						; size = 4
__$EHRec$ = -12						; size = 12
$T3 = 8							; size = 4
_nCount$ = 8						; size = 4
?_init@CSTLogger@@AAE_NH@Z PROC				; CSTLogger::_init, COMDAT
; _this$ = ecx

; 132  : bool CSTLogger::_init(int nCount) {

  00000	55		 push	 ebp
  00001	8b ec		 mov	 ebp, esp
  00003	6a ff		 push	 -1
  00005	68 00 00 00 00	 push	 __ehhandler$?_init@CSTLogger@@AAE_NH@Z
  0000a	64 a1 00 00 00
	00		 mov	 eax, DWORD PTR fs:0
  00010	50		 push	 eax
  00011	51		 push	 ecx
  00012	56		 push	 esi
  00013	57		 push	 edi
  00014	a1 00 00 00 00	 mov	 eax, DWORD PTR ___security_cookie
  00019	33 c5		 xor	 eax, ebp
  0001b	50		 push	 eax
  0001c	8d 45 f4	 lea	 eax, DWORD PTR __$EHRec$[ebp]
  0001f	64 a3 00 00 00
	00		 mov	 DWORD PTR fs:0, eax
  00025	8b f9		 mov	 edi, ecx

; 133  : 	m_pLoggerList = new CTList<CLogger>();

  00027	6a 18		 push	 24			; 00000018H
  00029	e8 00 00 00 00	 call	 ??2@YAPAXI@Z		; operator new
  0002e	83 c4 04	 add	 esp, 4
  00031	89 45 f0	 mov	 DWORD PTR $T2[ebp], eax
  00034	85 c0		 test	 eax, eax
  00036	74 36		 je	 SHORT $LN5@init
  00038	0f 57 c0	 xorps	 xmm0, xmm0
  0003b	0f 11 00	 movups	 XMMWORD PTR [eax], xmm0
  0003e	66 0f d6 40 10	 movq	 QWORD PTR [eax+16], xmm0
; File e:\infinia-library-3.0\com\include\comtlist.h

; 366  : 	m_pArray = NULL;

  00043	c7 00 00 00 00
	00		 mov	 DWORD PTR [eax], 0

; 367  : 	m_nUse = 0;

  00049	c7 40 04 00 00
	00 00		 mov	 DWORD PTR [eax+4], 0

; 368  : 	m_nLast = 0;

  00050	c7 40 08 00 00
	00 00		 mov	 DWORD PTR [eax+8], 0

; 369  : 	m_nDelIdx = 0;

  00057	c7 40 0c 00 00
	00 00		 mov	 DWORD PTR [eax+12], 0

; 370  : 	m_nMax = 0;

  0005e	c7 40 10 00 00
	00 00		 mov	 DWORD PTR [eax+16], 0

; 371  : 	m_nObjAllocType = eAlloc_Type_none;

  00065	c7 40 14 00 00
	00 00		 mov	 DWORD PTR [eax+20], 0
; File e:\infinia-library-3.0\com\src\comcore.cpp

; 133  : 	m_pLoggerList = new CTList<CLogger>();

  0006c	eb 02		 jmp	 SHORT $LN6@init
$LN5@init:
  0006e	33 c0		 xor	 eax, eax
$LN6@init:

; 134  : 	if (!m_pLoggerList->alloc(nCount, eAlloc_Type_none)) return false;

  00070	6a 00		 push	 0
  00072	ff 75 08	 push	 DWORD PTR _nCount$[ebp]
  00075	8b c8		 mov	 ecx, eax
  00077	89 47 28	 mov	 DWORD PTR [edi+40], eax
  0007a	e8 00 00 00 00	 call	 ?alloc@?$CTList@VCLogger@@@@QAEHHW4E_ALLOC_TYPE@@@Z ; CTList<CLogger>::alloc
  0007f	85 c0		 test	 eax, eax
  00081	75 15		 jne	 SHORT $LN2@init
  00083	32 c0		 xor	 al, al

; 137  : 	return true;
; 138  : }

  00085	8b 4d f4	 mov	 ecx, DWORD PTR __$EHRec$[ebp]
  00088	64 89 0d 00 00
	00 00		 mov	 DWORD PTR fs:0, ecx
  0008f	59		 pop	 ecx
  00090	5f		 pop	 edi
  00091	5e		 pop	 esi
  00092	8b e5		 mov	 esp, ebp
  00094	5d		 pop	 ebp
  00095	c2 04 00	 ret	 4
$LN2@init:

; 135  : 	m_pComandList = new CQueueS();

  00098	6a 40		 push	 64			; 00000040H
  0009a	e8 00 00 00 00	 call	 ??2@YAPAXI@Z		; operator new
  0009f	8b f0		 mov	 esi, eax
  000a1	83 c4 04	 add	 esp, 4
  000a4	89 75 08	 mov	 DWORD PTR $T3[ebp], esi
  000a7	c7 45 fc 00 00
	00 00		 mov	 DWORD PTR __$EHRec$[ebp+8], 0
  000ae	85 f6		 test	 esi, esi
  000b0	74 16		 je	 SHORT $LN7@init
  000b2	6a 40		 push	 64			; 00000040H
  000b4	6a 00		 push	 0
  000b6	56		 push	 esi
  000b7	e8 00 00 00 00	 call	 _memset
  000bc	83 c4 0c	 add	 esp, 12			; 0000000cH
  000bf	8b ce		 mov	 ecx, esi
  000c1	e8 00 00 00 00	 call	 ??0CQueueS@@QAE@XZ	; CQueueS::CQueueS
  000c6	eb 02		 jmp	 SHORT $LN8@init
$LN7@init:
  000c8	33 c0		 xor	 eax, eax
$LN8@init:

; 136  : 	if (!m_pComandList->alloc(10, eAlloc_Type_none)) return false;

  000ca	6a 00		 push	 0
  000cc	6a 0a		 push	 10			; 0000000aH
  000ce	8b c8		 mov	 ecx, eax
  000d0	c7 45 fc ff ff
	ff ff		 mov	 DWORD PTR __$EHRec$[ebp+8], -1
  000d7	89 47 2c	 mov	 DWORD PTR [edi+44], eax
  000da	e8 00 00 00 00	 call	 ?alloc@CQueueS@@QAE_NHW4E_ALLOC_TYPE@@@Z ; CQueueS::alloc
  000df	84 c0		 test	 al, al
  000e1	0f 95 c0	 setne	 al

; 137  : 	return true;
; 138  : }

  000e4	8b 4d f4	 mov	 ecx, DWORD PTR __$EHRec$[ebp]
  000e7	64 89 0d 00 00
	00 00		 mov	 DWORD PTR fs:0, ecx
  000ee	59		 pop	 ecx
  000ef	5f		 pop	 edi
  000f0	5e		 pop	 esi
  000f1	8b e5		 mov	 esp, ebp
  000f3	5d		 pop	 ebp
  000f4	c2 04 00	 ret	 4
_TEXT	ENDS
;	COMDAT text$x
text$x	SEGMENT
__unwindfunclet$?_init@CSTLogger@@AAE_NH@Z$1:
  00000	6a 40		 push	 64			; 00000040H
  00002	8b 45 08	 mov	 eax, DWORD PTR $T3[ebp]
  00005	50		 push	 eax
  00006	e8 00 00 00 00	 call	 ??3@YAXPAXI@Z		; operator delete
  0000b	83 c4 08	 add	 esp, 8
  0000e	c3		 ret	 0
__ehhandler$?_init@CSTLogger@@AAE_NH@Z:
  0000f	8b 54 24 08	 mov	 edx, DWORD PTR [esp+8]
  00013	8d 42 0c	 lea	 eax, DWORD PTR [edx+12]
  00016	8b 4a f0	 mov	 ecx, DWORD PTR [edx-16]
  00019	33 c8		 xor	 ecx, eax
  0001b	e8 00 00 00 00	 call	 @__security_check_cookie@4
  00020	b8 00 00 00 00	 mov	 eax, OFFSET __ehfuncinfo$?_init@CSTLogger@@AAE_NH@Z
  00025	e9 00 00 00 00	 jmp	 ___CxxFrameHandler3
text$x	ENDS
?_init@CSTLogger@@AAE_NH@Z ENDP				; CSTLogger::_init
; Function compile flags: /Ogtp
; File e:\infinia-library-3.0\com\include\comcore.h
;	COMDAT ?pushCommand@CSTLogger@@QAE_NPAUSTLCommand@@@Z
_TEXT	SEGMENT
_p$ = 8							; size = 4
?pushCommand@CSTLogger@@QAE_NPAUSTLCommand@@@Z PROC	; CSTLogger::pushCommand, COMDAT
; _this$ = ecx

; 119  : 	inline bool pushCommand(STLCommand *p) {if(m_pComandList->push(p)) { m_cThread.sendSignal(); return true; } return false;}

  00000	55		 push	 ebp
  00001	8b ec		 mov	 ebp, esp
  00003	56		 push	 esi
  00004	ff 75 08	 push	 DWORD PTR _p$[ebp]
  00007	8b f1		 mov	 esi, ecx
  00009	8b 4e 2c	 mov	 ecx, DWORD PTR [esi+44]
  0000c	e8 00 00 00 00	 call	 ?push@CQueueS@@QAE_NPAX@Z ; CQueueS::push
  00011	84 c0		 test	 al, al
  00013	74 10		 je	 SHORT $LN2@pushComman

; 92   : 	inline void sendSignal() { m_stInfo.cThreadCond.signal(); }

  00015	8b 46 08	 mov	 eax, DWORD PTR [esi+8]
  00018	8d 4e 08	 lea	 ecx, DWORD PTR [esi+8]
  0001b	ff 50 04	 call	 DWORD PTR [eax+4]

; 119  : 	inline bool pushCommand(STLCommand *p) {if(m_pComandList->push(p)) { m_cThread.sendSignal(); return true; } return false;}

  0001e	b0 01		 mov	 al, 1
  00020	5e		 pop	 esi
  00021	5d		 pop	 ebp
  00022	c2 04 00	 ret	 4
$LN2@pushComman:
  00025	32 c0		 xor	 al, al
  00027	5e		 pop	 esi
  00028	5d		 pop	 ebp
  00029	c2 04 00	 ret	 4
?pushCommand@CSTLogger@@QAE_NPAUSTLCommand@@@Z ENDP	; CSTLogger::pushCommand
_TEXT	ENDS
; Function compile flags: /Ogtp
; File e:\infinia-library-3.0\com\src\comcore.cpp
; File e:\infinia-library-3.0\com\include\comlogger.h
; File e:\infinia-library-3.0\com\src\comcore.cpp
; File e:\infinia-library-3.0\com\include\comlogger.h
; File e:\infinia-library-3.0\com\src\comcore.cpp
; File e:\infinia-library-3.0\com\include\comlogger.h
; File e:\infinia-library-3.0\com\src\comcore.cpp
; File e:\infinia-library-3.0\com\include\comlogger.h
; File e:\infinia-library-3.0\com\include\combufpool.h
; File e:\infinia-library-3.0\com\include\commemmanager.h
; File e:\infinia-library-3.0\com\src\comcore.cpp
; File e:\infinia-library-3.0\com\include\comlogger.h
; File e:\infinia-library-3.0\com\src\comcore.cpp
; File e:\infinia-library-3.0\com\include\comlogger.h
; File e:\infinia-library-3.0\com\src\comcore.cpp
; File e:\infinia-library-3.0\com\include\comlogger.h
; File e:\infinia-library-3.0\com\src\comcore.cpp
;	COMDAT ?porcLoggerDisable@CSTLogger@@QAEXPAVCLogger@@@Z
_TEXT	SEGMENT
_$S1$1 = -16						; size = 8
_this$1$ = -8						; size = 4
_nCount$1$ = -4						; size = 4
_pLogger$ = 8						; size = 4
?porcLoggerDisable@CSTLogger@@QAEXPAVCLogger@@@Z PROC	; CSTLogger::porcLoggerDisable, COMDAT
; _this$ = ecx

; 208  : {

  00000	55		 push	 ebp
  00001	8b ec		 mov	 ebp, esp
  00003	83 ec 10	 sub	 esp, 16			; 00000010H
  00006	53		 push	 ebx
  00007	56		 push	 esi
  00008	57		 push	 edi
; File e:\infinia-library-3.0\com\include\comlogger.h

; 198  : 	inline TCHAR * pop() { return (TCHAR *)m_sLogQueue.pop(); } // write   STLogger : 

  00009	8b 7d 08	 mov	 edi, DWORD PTR _pLogger$[ebp]
; File e:\infinia-library-3.0\com\src\comcore.cpp

; 209  : 	int nCount = 0;

  0000c	33 f6		 xor	 esi, esi
  0000e	89 4d f8	 mov	 DWORD PTR _this$1$[ebp], ecx
; File e:\infinia-library-3.0\com\include\comlogger.h

; 198  : 	inline TCHAR * pop() { return (TCHAR *)m_sLogQueue.pop(); } // write   STLogger : 

  00011	8b cf		 mov	 ecx, edi
; File e:\infinia-library-3.0\com\src\comcore.cpp

; 209  : 	int nCount = 0;

  00013	89 75 fc	 mov	 DWORD PTR _nCount$1$[ebp], esi
; File e:\infinia-library-3.0\com\include\comlogger.h

; 198  : 	inline TCHAR * pop() { return (TCHAR *)m_sLogQueue.pop(); } // write   STLogger : 

  00016	e8 00 00 00 00	 call	 ?pop@CQueueS@@QAEPAXXZ	; CQueueS::pop
; File e:\infinia-library-3.0\com\src\comcore.cpp

; 210  : 	TCHAR *pData = pLogger->pop();

  0001b	8b d8		 mov	 ebx, eax

; 211  : 	while (pData)

  0001d	85 db		 test	 ebx, ebx
  0001f	74 6e		 je	 SHORT $LN3@porcLogger
$LL2@porcLogger:

; 212  : 	{
; 213  : 		int nLen = (int)_tcslen(pData) + 1;

  00021	8b f3		 mov	 esi, ebx
  00023	8d 4e 01	 lea	 ecx, DWORD PTR [esi+1]
$LL23@porcLogger:
  00026	8a 06		 mov	 al, BYTE PTR [esi]
  00028	46		 inc	 esi
  00029	84 c0		 test	 al, al
  0002b	75 f9		 jne	 SHORT $LL23@porcLogger
  0002d	2b f1		 sub	 esi, ecx

; 214  : 		pLogger->LogPrint(pData);

  0002f	8b cf		 mov	 ecx, edi
  00031	53		 push	 ebx
  00032	46		 inc	 esi
  00033	e8 00 00 00 00	 call	 ?LogPrint@CLogger@@QAEXPAD@Z ; CLogger::LogPrint
; File e:\infinia-library-3.0\com\include\comlogger.h

; 180  : 	inline void addLogSize(int nLen) {m_nLogSize += nLen;}

  00038	01 b7 84 00 00
	00		 add	 DWORD PTR [edi+132], esi
; File e:\infinia-library-3.0\com\include\combufpool.h

; 51   : inline int getIndex(int s) { int m; union { double x; int b[2]; }; x = s; m = (b[1] >> 20) - 1023; return m + ((s&(s - (1 << m))) ? 1 : 0); }

  0003e	b8 01 00 00 00	 mov	 eax, 1
  00043	66 0f 6e c6	 movd	 xmm0, esi
  00047	f3 0f e6 c0	 cvtdq2pd xmm0, xmm0
  0004b	f2 0f 11 45 f0	 movsd	 QWORD PTR _$S1$1[ebp], xmm0
  00050	8b 55 f4	 mov	 edx, DWORD PTR _$S1$1[ebp+4]
  00053	c1 fa 14	 sar	 edx, 20			; 00000014H
  00056	81 ea ff 03 00
	00		 sub	 edx, 1023		; 000003ffH
  0005c	8b ca		 mov	 ecx, edx
  0005e	d3 e0		 shl	 eax, cl
  00060	8b ce		 mov	 ecx, esi
  00062	2b c8		 sub	 ecx, eax
  00064	23 ce		 and	 ecx, esi
  00066	f7 d9		 neg	 ecx
  00068	1b c9		 sbb	 ecx, ecx
  0006a	f7 d9		 neg	 ecx
  0006c	03 ca		 add	 ecx, edx
; File e:\infinia-library-3.0\com\include\commemmanager.h

; 38   : 	inline void delBuf(char *pBuf, int nSize) { int nIdx = getIndex(nSize); delBufByIndex(pBuf, nIdx); }

  0006e	51		 push	 ecx
  0006f	8b 0d 00 00 00
	00		 mov	 ecx, DWORD PTR ?gs_pMMgr@@3PAVCMemManager@@A ; gs_pMMgr
  00075	53		 push	 ebx
  00076	e8 00 00 00 00	 call	 ?delBufByIndex@CMemManager@@QAEXPADH@Z ; CMemManager::delBufByIndex
; File e:\infinia-library-3.0\com\src\comcore.cpp

; 217  : 		nCount++;

  0007b	8b 75 fc	 mov	 esi, DWORD PTR _nCount$1$[ebp]
; File e:\infinia-library-3.0\com\include\comlogger.h

; 198  : 	inline TCHAR * pop() { return (TCHAR *)m_sLogQueue.pop(); } // write   STLogger : 

  0007e	8b cf		 mov	 ecx, edi
; File e:\infinia-library-3.0\com\src\comcore.cpp

; 217  : 		nCount++;

  00080	46		 inc	 esi
  00081	89 75 fc	 mov	 DWORD PTR _nCount$1$[ebp], esi
; File e:\infinia-library-3.0\com\include\comlogger.h

; 198  : 	inline TCHAR * pop() { return (TCHAR *)m_sLogQueue.pop(); } // write   STLogger : 

  00084	e8 00 00 00 00	 call	 ?pop@CQueueS@@QAEPAXXZ	; CQueueS::pop
; File e:\infinia-library-3.0\com\src\comcore.cpp

; 218  : 		pData = pLogger->pop();

  00089	8b d8		 mov	 ebx, eax
  0008b	85 db		 test	 ebx, ebx
  0008d	75 92		 jne	 SHORT $LL2@porcLogger
$LN3@porcLogger:

; 219  : 
; 220  : 	}
; 221  : 	pLogger->disable();

  0008f	8b cf		 mov	 ecx, edi
  00091	e8 00 00 00 00	 call	 ?disable@CLogger@@QAEXXZ ; CLogger::disable

; 222  : 	m_pLoggerList->del(pLogger);

  00096	8b 4d f8	 mov	 ecx, DWORD PTR _this$1$[ebp]
  00099	57		 push	 edi
  0009a	8b 49 28	 mov	 ecx, DWORD PTR [ecx+40]
  0009d	e8 00 00 00 00	 call	 ?del@?$CTList@VCLogger@@@@QAE_NPAVCLogger@@@Z ; CTList<CLogger>::del

; 224  : 	printf("writeCount[%d] [%s] porcLoggerDisable\n", nCount, pLogger->getLogName());

  000a2	ff 77 64	 push	 DWORD PTR [edi+100]
; File e:\infinia-library-3.0\com\include\comlogger.h

; 184  : 	inline void clearLogFlag(E_LOG_FLAG nFlag) { m_nLogFlag &= ~nFlag; }

  000a5	81 67 74 ff ff
	f7 ff		 and	 DWORD PTR [edi+116], -524289 ; fff7ffffH
; File e:\infinia-library-3.0\com\src\comcore.cpp

; 224  : 	printf("writeCount[%d] [%s] porcLoggerDisable\n", nCount, pLogger->getLogName());

  000ac	56		 push	 esi
  000ad	68 00 00 00 00	 push	 OFFSET ??_C@_0CH@ICKMJPFC@writeCount?$FL?$CFd?$FN?5?$FL?$CFs?$FN?5porcLoggerDi@
  000b2	e8 00 00 00 00	 call	 _printf
  000b7	83 c4 0c	 add	 esp, 12			; 0000000cH
  000ba	5f		 pop	 edi
  000bb	5e		 pop	 esi
  000bc	5b		 pop	 ebx

; 225  : }

  000bd	8b e5		 mov	 esp, ebp
  000bf	5d		 pop	 ebp
  000c0	c2 04 00	 ret	 4
?porcLoggerDisable@CSTLogger@@QAEXPAVCLogger@@@Z ENDP	; CSTLogger::porcLoggerDisable
_TEXT	ENDS
; Function compile flags: /Ogtp
; File e:\infinia-library-3.0\com\src\comcore.cpp
; File e:\infinia-library-3.0\com\include\comlogger.h
; File e:\infinia-library-3.0\com\src\comcore.cpp
; File e:\infinia-library-3.0\com\include\comtlist.h
; File e:\infinia-library-3.0\com\src\comcore.cpp
; File e:\infinia-library-3.0\com\include\comlogger.h
; File e:\infinia-library-3.0\com\src\comcore.cpp
; File e:\infinia-library-3.0\com\include\comtypes.h
; File e:\infinia-library-3.0\com\src\comcore.cpp
; File e:\infinia-library-3.0\com\include\comlogger.h
; File e:\infinia-library-3.0\com\src\comcore.cpp
;	COMDAT ?procLoggerEnable@CSTLogger@@QAEXPAVCLogger@@@Z
_TEXT	SEGMENT
_pLogger$ = 8						; size = 4
?procLoggerEnable@CSTLogger@@QAEXPAVCLogger@@@Z PROC	; CSTLogger::procLoggerEnable, COMDAT
; _this$ = ecx

; 176  : {

  00000	55		 push	 ebp
  00001	8b ec		 mov	 ebp, esp
  00003	53		 push	 ebx
  00004	56		 push	 esi
; File e:\infinia-library-3.0\com\include\comlogger.h

; 185  : 	inline bool isLogFlag(E_LOG_FLAG nFlag) { return (m_nLogFlag & nFlag)?true:false; }

  00005	8b 75 08	 mov	 esi, DWORD PTR _pLogger$[ebp]
; File e:\infinia-library-3.0\com\src\comcore.cpp

; 176  : {

  00008	8b d9		 mov	 ebx, ecx

; 177  : 	if (pLogger->isLogFlag(IS_LOG_ENABLE)) {

  0000a	8b 56 74	 mov	 edx, DWORD PTR [esi+116]
  0000d	8b c2		 mov	 eax, edx
  0000f	c1 e8 13	 shr	 eax, 19			; 00000013H
  00012	a8 01		 test	 al, 1
  00014	74 13		 je	 SHORT $LN2@procLogger

; 178  : 		printf("Logger is already Enabled!");

  00016	68 00 00 00 00	 push	 OFFSET ??_C@_0BL@MFPMGOMN@Logger?5is?5already?5Enabled?$CB?$AA@
  0001b	e8 00 00 00 00	 call	 _printf
  00020	83 c4 04	 add	 esp, 4
  00023	5e		 pop	 esi
  00024	5b		 pop	 ebx

; 205  : }

  00025	5d		 pop	 ebp
  00026	c2 04 00	 ret	 4
$LN2@procLogger:

; 179  : 		return ;
; 180  : 	}
; 181  : 	else if (pLogger->isLogFlag(IS_LOG_OPEN)) {}

  00029	8b c2		 mov	 eax, edx
  0002b	c1 e8 12	 shr	 eax, 18			; 00000012H
  0002e	a8 01		 test	 al, 1
  00030	75 0f		 jne	 SHORT $LN7@procLogger

; 182  : 	else if (pLogger->isLogFlag(IS_LOG_SET_COMPLETE)) {

  00032	c1 ea 11	 shr	 edx, 17			; 00000011H
  00035	f6 c2 01	 test	 dl, 1
  00038	74 4f		 je	 SHORT $LN6@procLogger

; 183  : 		pLogger->OpenLogger();

  0003a	8b ce		 mov	 ecx, esi
  0003c	e8 00 00 00 00	 call	 ?OpenLogger@CLogger@@QAEXXZ ; CLogger::OpenLogger
$LN7@procLogger:

; 184  : 	}
; 185  : 	else {
; 186  : 		comErrorPrint("Logger has not Initialized!");
; 187  : 		return ;
; 188  : 	}
; 189  : 
; 190  : 	// input
; 191  : 	if (m_pLoggerList->IsExist(pLogger)) {

  00041	8b 4b 28	 mov	 ecx, DWORD PTR [ebx+40]
; File e:\infinia-library-3.0\com\include\comtlist.h

; 459  : 	for (i = 0; i < m_nMax; i++)

  00044	33 c0		 xor	 eax, eax
  00046	57		 push	 edi
  00047	8b 51 10	 mov	 edx, DWORD PTR [ecx+16]
  0004a	85 d2		 test	 edx, edx
  0004c	7e 12		 jle	 SHORT $LN39@procLogger

; 460  : 	{
; 461  : 		if (m_pArray[i]) {

  0004e	8b 39		 mov	 edi, DWORD PTR [ecx]
$LL23@procLogger:
  00050	8b 0c 87	 mov	 ecx, DWORD PTR [edi+eax*4]
  00053	85 c9		 test	 ecx, ecx
  00055	74 04		 je	 SHORT $LN21@procLogger

; 462  : 			if (m_pArray[i] == p) {

  00057	3b ce		 cmp	 ecx, esi
  00059	74 5f		 je	 SHORT $LN38@procLogger
$LN21@procLogger:

; 459  : 	for (i = 0; i < m_nMax; i++)

  0005b	40		 inc	 eax
  0005c	3b c2		 cmp	 eax, edx
  0005e	7c f0		 jl	 SHORT $LL23@procLogger
$LN39@procLogger:
; File e:\infinia-library-3.0\com\src\comcore.cpp

; 196  : 		pLogger->setCondition(&m_cThread.m_stInfo.cThreadCond);

  00060	8d 43 08	 lea	 eax, DWORD PTR [ebx+8]

; 197  : 		if (!m_pLoggerList->push_back(pLogger)) {

  00063	6a 00		 push	 0
; File e:\infinia-library-3.0\com\include\comlogger.h

; 206  : 	inline void setCondition(THREAD_COND *p) { m_pCondition = p; }

  00065	89 46 44	 mov	 DWORD PTR [esi+68], eax
; File e:\infinia-library-3.0\com\src\comcore.cpp

; 197  : 		if (!m_pLoggerList->push_back(pLogger)) {

  00068	8b 4b 28	 mov	 ecx, DWORD PTR [ebx+40]
  0006b	56		 push	 esi
  0006c	e8 00 00 00 00	 call	 ?push_back@?$CTList@VCLogger@@@@QAE_NPAVCLogger@@PAH@Z ; CTList<CLogger>::push_back
  00071	84 c0		 test	 al, al
  00073	75 59		 jne	 SHORT $LN10@procLogger

; 198  : 			printf("m_pLoggerList->push_back failed!\n");

  00075	68 00 00 00 00	 push	 OFFSET ??_C@_0CC@OEPCKACG@m_pLoggerList?9?$DOpush_back?5failed?$CB@
  0007a	e8 00 00 00 00	 call	 _printf
  0007f	83 c4 04	 add	 esp, 4
  00082	5f		 pop	 edi
  00083	5e		 pop	 esi
  00084	5b		 pop	 ebx

; 205  : }

  00085	5d		 pop	 ebp
  00086	c2 04 00	 ret	 4
$LN6@procLogger:
; File e:\infinia-library-3.0\com\include\comtypes.h

; 325  : 	sprintf(g_szSystemError, "ERROR! [%s:%d] %s\n", _szFunc, _nLine, pMsg);

  00089	68 00 00 00 00	 push	 OFFSET ??_C@_0BM@IAMIGODD@Logger?5has?5not?5Initialized?$CB?$AA@
  0008e	68 ba 00 00 00	 push	 186			; 000000baH
  00093	68 00 00 00 00	 push	 OFFSET ??_C@_0BM@IFPFCMMM@CSTLogger?3?3procLoggerEnable?$AA@
  00098	68 00 00 00 00	 push	 OFFSET ??_C@_0BD@KEHDJCKJ@ERROR?$CB?5?$FL?$CFs?3?$CFd?$FN?5?$CFs?6?$AA@
  0009d	68 00 00 00 00	 push	 OFFSET ?g_szSystemError@@3PADA ; g_szSystemError
  000a2	e8 00 00 00 00	 call	 _sprintf

; 326  : 	printf(g_szSystemError);

  000a7	68 00 00 00 00	 push	 OFFSET ?g_szSystemError@@3PADA ; g_szSystemError
  000ac	e8 00 00 00 00	 call	 _printf
  000b1	83 c4 18	 add	 esp, 24			; 00000018H
  000b4	5e		 pop	 esi
  000b5	5b		 pop	 ebx
; File e:\infinia-library-3.0\com\src\comcore.cpp

; 205  : }

  000b6	5d		 pop	 ebp
  000b7	c2 04 00	 ret	 4
$LN38@procLogger:

; 192  : 		printf("Logger already exist!\n");

  000ba	68 00 00 00 00	 push	 OFFSET ??_C@_0BH@MHPMOLCC@Logger?5already?5exist?$CB?6?$AA@
  000bf	e8 00 00 00 00	 call	 _printf
  000c4	83 c4 04	 add	 esp, 4
  000c7	5f		 pop	 edi
  000c8	5e		 pop	 esi
  000c9	5b		 pop	 ebx

; 205  : }

  000ca	5d		 pop	 ebp
  000cb	c2 04 00	 ret	 4
$LN10@procLogger:

; 203  : 	printf("[%s] procLoggerEnable\n", pLogger->getLogName());

  000ce	ff 76 64	 push	 DWORD PTR [esi+100]
; File e:\infinia-library-3.0\com\include\comlogger.h

; 183  : 	inline void setLogFlag(E_LOG_FLAG nFlag) { m_nLogFlag |= nFlag; }

  000d1	81 4e 74 00 00
	08 00		 or	 DWORD PTR [esi+116], 524288 ; 00080000H
; File e:\infinia-library-3.0\com\src\comcore.cpp

; 203  : 	printf("[%s] procLoggerEnable\n", pLogger->getLogName());

  000d8	68 00 00 00 00	 push	 OFFSET ??_C@_0BH@GGEBDGFN@?$FL?$CFs?$FN?5procLoggerEnable?6?$AA@
  000dd	e8 00 00 00 00	 call	 _printf
  000e2	83 c4 08	 add	 esp, 8
  000e5	5f		 pop	 edi
  000e6	5e		 pop	 esi
  000e7	5b		 pop	 ebx

; 205  : }

  000e8	5d		 pop	 ebp
  000e9	c2 04 00	 ret	 4
?procLoggerEnable@CSTLogger@@QAEXPAVCLogger@@@Z ENDP	; CSTLogger::procLoggerEnable
_TEXT	ENDS
; Function compile flags: /Ogtp
; File e:\infinia-library-3.0\com\src\comcore.cpp
; File e:\infinia-library-3.0\com\include\comtlist.h
; File e:\infinia-library-3.0\com\src\comcore.cpp
; File e:\infinia-library-3.0\com\include\comtlist.h
; File e:\infinia-library-3.0\com\src\comcore.cpp
;	COMDAT ?TimeProc@CSTLogger@@QAEXXZ
_TEXT	SEGMENT
_ltm$ = -120						; size = 104
__$ArrayPad$ = -16					; size = 4
__$EHRec$ = -12						; size = 12
?TimeProc@CSTLogger@@QAEXXZ PROC			; CSTLogger::TimeProc, COMDAT
; _this$ = ecx

; 270  : {

  00000	55		 push	 ebp
  00001	8b ec		 mov	 ebp, esp
  00003	6a ff		 push	 -1
  00005	68 00 00 00 00	 push	 __ehhandler$?TimeProc@CSTLogger@@QAEXXZ
  0000a	64 a1 00 00 00
	00		 mov	 eax, DWORD PTR fs:0
  00010	50		 push	 eax
  00011	83 ec 6c	 sub	 esp, 108		; 0000006cH
  00014	a1 00 00 00 00	 mov	 eax, DWORD PTR ___security_cookie
  00019	33 c5		 xor	 eax, ebp
  0001b	89 45 f0	 mov	 DWORD PTR __$ArrayPad$[ebp], eax
  0001e	53		 push	 ebx
  0001f	56		 push	 esi
  00020	57		 push	 edi
  00021	50		 push	 eax
  00022	8d 45 f4	 lea	 eax, DWORD PTR __$EHRec$[ebp]
  00025	64 a3 00 00 00
	00		 mov	 DWORD PTR fs:0, eax
  0002b	8b d9		 mov	 ebx, ecx

; 271  : 	CDateTime	ltm;

  0002d	6a 00		 push	 0
  0002f	6a 01		 push	 1
  00031	8d 4d 88	 lea	 ecx, DWORD PTR _ltm$[ebp]
  00034	e8 00 00 00 00	 call	 ??0CDateTime@@QAE@W4DT_TYPE@@W4TZ_TYPE@@@Z ; CDateTime::CDateTime

; 272  : 	int nFlag = 0;
; 273  : 	gs_today_time.second = ltm.Sec();

  00039	8b 45 88	 mov	 eax, DWORD PTR _ltm$[ebp]
  0003c	33 ff		 xor	 edi, edi
  0003e	a3 14 00 00 00	 mov	 DWORD PTR ?gs_today_time@@3USTTodayTime@@A+20, eax

; 274  : 	if (ltm.Minute() != gs_today_time.minute) {

  00043	8b 45 8c	 mov	 eax, DWORD PTR _ltm$[ebp+4]
  00046	c7 45 fc 00 00
	00 00		 mov	 DWORD PTR __$EHRec$[ebp+8], 0
  0004d	3b 05 10 00 00
	00		 cmp	 eax, DWORD PTR ?gs_today_time@@3USTTodayTime@@A+16
  00053	74 0a		 je	 SHORT $LN4@TimeProc

; 275  : 		gs_today_time.minute = ltm.Minute();

  00055	a3 10 00 00 00	 mov	 DWORD PTR ?gs_today_time@@3USTTodayTime@@A+16, eax

; 276  : 		nFlag |= LOG_FLAG_MINCHANGE;

  0005a	bf 04 00 00 00	 mov	 edi, 4
$LN4@TimeProc:

; 277  : 	}
; 278  : 	if (ltm.Hour() != gs_today_time.hour) {

  0005f	8b 45 90	 mov	 eax, DWORD PTR _ltm$[ebp+8]
  00062	3b 05 0c 00 00
	00		 cmp	 eax, DWORD PTR ?gs_today_time@@3USTTodayTime@@A+12
  00068	74 08		 je	 SHORT $LN5@TimeProc

; 279  : 		gs_today_time.hour = ltm.Hour();

  0006a	a3 0c 00 00 00	 mov	 DWORD PTR ?gs_today_time@@3USTTodayTime@@A+12, eax

; 280  : 		nFlag |= LOG_FLAG_HOURCHANGE;

  0006f	83 cf 02	 or	 edi, 2
$LN5@TimeProc:

; 281  : 	}
; 282  : 	if (ltm.Mday() != gs_today_time.mday) { // 1. Day Change 

  00072	8b 45 94	 mov	 eax, DWORD PTR _ltm$[ebp+12]
  00075	3b 05 08 00 00
	00		 cmp	 eax, DWORD PTR ?gs_today_time@@3USTTodayTime@@A+8
  0007b	74 34		 je	 SHORT $LN6@TimeProc

; 283  : 		nFlag |= LOG_FLAG_DAYCHANGE;
; 284  : 		gs_today_time.date  = _ttoi(ltm.DateString(0));

  0007d	6a 00		 push	 0
  0007f	8d 4d 88	 lea	 ecx, DWORD PTR _ltm$[ebp]
  00082	83 cf 01	 or	 edi, 1
  00085	e8 00 00 00 00	 call	 ?DateString@CDateTime@@QAEPBDD@Z ; CDateTime::DateString
  0008a	50		 push	 eax
  0008b	ff 15 00 00 00
	00		 call	 DWORD PTR __imp__atoi
  00091	a3 18 00 00 00	 mov	 DWORD PTR ?gs_today_time@@3USTTodayTime@@A+24, eax
  00096	83 c4 04	 add	 esp, 4

; 285  : 		gs_today_time.year	= ltm.Year();

  00099	8b 45 9c	 mov	 eax, DWORD PTR _ltm$[ebp+20]
  0009c	a3 00 00 00 00	 mov	 DWORD PTR ?gs_today_time@@3USTTodayTime@@A, eax

; 286  : 		gs_today_time.month	= ltm.Month();

  000a1	8b 45 98	 mov	 eax, DWORD PTR _ltm$[ebp+16]
  000a4	a3 04 00 00 00	 mov	 DWORD PTR ?gs_today_time@@3USTTodayTime@@A+4, eax

; 287  : 		gs_today_time.mday	= ltm.Mday();

  000a9	8b 45 94	 mov	 eax, DWORD PTR _ltm$[ebp+12]
  000ac	a3 08 00 00 00	 mov	 DWORD PTR ?gs_today_time@@3USTTodayTime@@A+8, eax
$LN6@TimeProc:
  000b1	85 ff		 test	 edi, edi

; 288  : 	}
; 289  : 
; 290  : 	if (nFlag) {

  000b3	74 59		 je	 SHORT $LN54@TimeProc

; 291  : 		int idx = 0;
; 292  : 		CLogger *pLogger = m_pLoggerList->getNext(&idx);

  000b5	8b 43 28	 mov	 eax, DWORD PTR [ebx+40]
  000b8	33 f6		 xor	 esi, esi
; File e:\infinia-library-3.0\com\include\comtlist.h

; 335  : 		for (*pIdx; *pIdx < m_nMax; (*pIdx)++) {

  000ba	8b 48 10	 mov	 ecx, DWORD PTR [eax+16]
  000bd	85 c9		 test	 ecx, ecx
  000bf	7e 4d		 jle	 SHORT $LN54@TimeProc

; 336  : 			if (m_pArray[*pIdx]) { return m_pArray[*pIdx]; }

  000c1	8b 10		 mov	 edx, DWORD PTR [eax]
  000c3	8b c2		 mov	 eax, edx
$LL31@TimeProc:
  000c5	83 38 00	 cmp	 DWORD PTR [eax], 0
  000c8	75 0a		 jne	 SHORT $LN43@TimeProc

; 335  : 		for (*pIdx; *pIdx < m_nMax; (*pIdx)++) {

  000ca	46		 inc	 esi
  000cb	83 c0 04	 add	 eax, 4
  000ce	3b f1		 cmp	 esi, ecx
  000d0	7c f3		 jl	 SHORT $LL31@TimeProc

; 336  : 			if (m_pArray[*pIdx]) { return m_pArray[*pIdx]; }

  000d2	eb 3a		 jmp	 SHORT $LN54@TimeProc
$LN43@TimeProc:
  000d4	8b 04 b2	 mov	 eax, DWORD PTR [edx+esi*4]
; File e:\infinia-library-3.0\com\src\comcore.cpp

; 293  : 		while (pLogger) {

  000d7	85 c0		 test	 eax, eax
  000d9	74 33		 je	 SHORT $LN54@TimeProc
  000db	0f 1f 44 00 00	 npad	 5
$LL2@TimeProc:

; 294  : 			pLogger->checkChangeProc(nFlag);

  000e0	57		 push	 edi
  000e1	8b c8		 mov	 ecx, eax
  000e3	e8 00 00 00 00	 call	 ?checkChangeProc@CLogger@@QAEXH@Z ; CLogger::checkChangeProc

; 295  : 			idx++;
; 296  : 			pLogger = m_pLoggerList->getNext(&idx);

  000e8	8b 43 28	 mov	 eax, DWORD PTR [ebx+40]
  000eb	46		 inc	 esi
; File e:\infinia-library-3.0\com\include\comtlist.h

; 335  : 		for (*pIdx; *pIdx < m_nMax; (*pIdx)++) {

  000ec	8b 48 10	 mov	 ecx, DWORD PTR [eax+16]
  000ef	3b f1		 cmp	 esi, ecx
  000f1	7d 1b		 jge	 SHORT $LN54@TimeProc

; 336  : 			if (m_pArray[*pIdx]) { return m_pArray[*pIdx]; }

  000f3	8b 10		 mov	 edx, DWORD PTR [eax]
  000f5	8d 04 b2	 lea	 eax, DWORD PTR [edx+esi*4]
$LL37@TimeProc:
  000f8	83 38 00	 cmp	 DWORD PTR [eax], 0
  000fb	75 0a		 jne	 SHORT $LN44@TimeProc

; 335  : 		for (*pIdx; *pIdx < m_nMax; (*pIdx)++) {

  000fd	46		 inc	 esi
  000fe	83 c0 04	 add	 eax, 4
  00101	3b f1		 cmp	 esi, ecx
  00103	7c f3		 jl	 SHORT $LL37@TimeProc
  00105	eb 07		 jmp	 SHORT $LN54@TimeProc
$LN44@TimeProc:

; 336  : 			if (m_pArray[*pIdx]) { return m_pArray[*pIdx]; }

  00107	8b 04 b2	 mov	 eax, DWORD PTR [edx+esi*4]
; File e:\infinia-library-3.0\com\src\comcore.cpp

; 293  : 		while (pLogger) {

  0010a	85 c0		 test	 eax, eax
  0010c	75 d2		 jne	 SHORT $LL2@TimeProc
$LN54@TimeProc:

; 297  : 		}
; 298  : 	}
; 299  : }

  0010e	8d 4d 88	 lea	 ecx, DWORD PTR _ltm$[ebp]
  00111	e8 00 00 00 00	 call	 ??1CDateTime@@QAE@XZ	; CDateTime::~CDateTime
  00116	8b 4d f4	 mov	 ecx, DWORD PTR __$EHRec$[ebp]
  00119	64 89 0d 00 00
	00 00		 mov	 DWORD PTR fs:0, ecx
  00120	59		 pop	 ecx
  00121	5f		 pop	 edi
  00122	5e		 pop	 esi
  00123	5b		 pop	 ebx
  00124	8b 4d f0	 mov	 ecx, DWORD PTR __$ArrayPad$[ebp]
  00127	33 cd		 xor	 ecx, ebp
  00129	e8 00 00 00 00	 call	 @__security_check_cookie@4
  0012e	8b e5		 mov	 esp, ebp
  00130	5d		 pop	 ebp
  00131	c3		 ret	 0
_TEXT	ENDS
;	COMDAT text$x
text$x	SEGMENT
__unwindfunclet$?TimeProc@CSTLogger@@QAEXXZ$0:
  00000	8d 4d 88	 lea	 ecx, DWORD PTR _ltm$[ebp]
  00003	e9 00 00 00 00	 jmp	 ??1CDateTime@@QAE@XZ	; CDateTime::~CDateTime
__ehhandler$?TimeProc@CSTLogger@@QAEXXZ:
  00008	8b 54 24 08	 mov	 edx, DWORD PTR [esp+8]
  0000c	8d 42 0c	 lea	 eax, DWORD PTR [edx+12]
  0000f	8b 4a 84	 mov	 ecx, DWORD PTR [edx-124]
  00012	33 c8		 xor	 ecx, eax
  00014	e8 00 00 00 00	 call	 @__security_check_cookie@4
  00019	8b 4a fc	 mov	 ecx, DWORD PTR [edx-4]
  0001c	33 c8		 xor	 ecx, eax
  0001e	e8 00 00 00 00	 call	 @__security_check_cookie@4
  00023	b8 00 00 00 00	 mov	 eax, OFFSET __ehfuncinfo$?TimeProc@CSTLogger@@QAEXXZ
  00028	e9 00 00 00 00	 jmp	 ___CxxFrameHandler3
text$x	ENDS
?TimeProc@CSTLogger@@QAEXXZ ENDP			; CSTLogger::TimeProc
; Function compile flags: /Ogtp
; File e:\infinia-library-3.0\com\src\comcore.cpp
; File e:\infinia-library-3.0\com\include\comtlist.h
; File e:\infinia-library-3.0\com\src\comcore.cpp
; File e:\infinia-library-3.0\com\include\comtlist.h
; File e:\infinia-library-3.0\com\src\comcore.cpp
; File e:\infinia-library-3.0\com\include\comlogger.h
; File e:\infinia-library-3.0\com\src\comcore.cpp
; File e:\infinia-library-3.0\com\include\comlogger.h
; File e:\infinia-library-3.0\com\include\combufpool.h
; File e:\infinia-library-3.0\com\include\commemmanager.h
; File e:\infinia-library-3.0\com\include\comlogger.h
; File e:\infinia-library-3.0\com\src\comcore.cpp
; File e:\infinia-library-3.0\com\include\comtlist.h
; File e:\infinia-library-3.0\com\src\comcore.cpp
; File e:\infinia-library-3.0\com\include\comtlist.h
; File e:\infinia-library-3.0\com\src\comcore.cpp
;	COMDAT ?GetQueue@CSTLogger@@QAEXXZ
_TEXT	SEGMENT
_this$1$ = -16						; size = 4
_$S1$1 = -12						; size = 8
_pLogger$1$ = -8					; size = 4
_idx$1$ = -4						; size = 4
?GetQueue@CSTLogger@@QAEXXZ PROC			; CSTLogger::GetQueue, COMDAT
; _this$ = ecx

; 239  : {

  00000	55		 push	 ebp
  00001	8b ec		 mov	 ebp, esp
  00003	83 ec 10	 sub	 esp, 16			; 00000010H
  00006	8b c1		 mov	 eax, ecx
  00008	89 45 f0	 mov	 DWORD PTR _this$1$[ebp], eax
  0000b	57		 push	 edi

; 240  : 	int idx=0;

  0000c	33 ff		 xor	 edi, edi

; 241  : 	TCHAR *pData;
; 242  : 	CLogger *pLogger = m_pLoggerList->getNext(&idx);

  0000e	8b 40 28	 mov	 eax, DWORD PTR [eax+40]
  00011	89 7d fc	 mov	 DWORD PTR _idx$1$[ebp], edi
  00014	8b 50 10	 mov	 edx, DWORD PTR [eax+16]
; File e:\infinia-library-3.0\com\include\comtlist.h

; 335  : 		for (*pIdx; *pIdx < m_nMax; (*pIdx)++) {

  00017	85 d2		 test	 edx, edx
  00019	0f 8e e8 00 00
	00		 jle	 $LN49@GetQueue
  0001f	56		 push	 esi

; 336  : 			if (m_pArray[*pIdx]) { return m_pArray[*pIdx]; }

  00020	8b 30		 mov	 esi, DWORD PTR [eax]
  00022	8b c6		 mov	 eax, esi
$LL10@GetQueue:
  00024	83 38 00	 cmp	 DWORD PTR [eax], 0
  00027	75 11		 jne	 SHORT $LN33@GetQueue

; 335  : 		for (*pIdx; *pIdx < m_nMax; (*pIdx)++) {

  00029	47		 inc	 edi
  0002a	83 c0 04	 add	 eax, 4
  0002d	89 7d fc	 mov	 DWORD PTR _idx$1$[ebp], edi
  00030	3b fa		 cmp	 edi, edx
  00032	7c f0		 jl	 SHORT $LL10@GetQueue
  00034	5e		 pop	 esi
  00035	5f		 pop	 edi
; File e:\infinia-library-3.0\com\src\comcore.cpp

; 258  : }

  00036	8b e5		 mov	 esp, ebp
  00038	5d		 pop	 ebp
  00039	c3		 ret	 0
$LN33@GetQueue:
; File e:\infinia-library-3.0\com\include\comtlist.h

; 336  : 			if (m_pArray[*pIdx]) { return m_pArray[*pIdx]; }

  0003a	8b 04 be	 mov	 eax, DWORD PTR [esi+edi*4]
  0003d	89 45 f8	 mov	 DWORD PTR _pLogger$1$[ebp], eax
; File e:\infinia-library-3.0\com\src\comcore.cpp

; 243  : 	while (pLogger) {

  00040	85 c0		 test	 eax, eax
  00042	0f 84 be 00 00
	00		 je	 $LN50@GetQueue
  00048	53		 push	 ebx
  00049	0f 1f 80 00 00
	00 00		 npad	 7
$LL2@GetQueue:
; File e:\infinia-library-3.0\com\include\comlogger.h

; 198  : 	inline TCHAR * pop() { return (TCHAR *)m_sLogQueue.pop(); } // write   STLogger : 

  00050	8b c8		 mov	 ecx, eax
  00052	e8 00 00 00 00	 call	 ?pop@CQueueS@@QAEPAXXZ	; CQueueS::pop
; File e:\infinia-library-3.0\com\src\comcore.cpp

; 245  : 		pData = pLogger->pop();

  00057	8b d8		 mov	 ebx, eax

; 246  : 		while (pData)

  00059	85 db		 test	 ebx, ebx
  0005b	74 6d		 je	 SHORT $LN5@GetQueue
  0005d	8b 7d f8	 mov	 edi, DWORD PTR _pLogger$1$[ebp]
$LL4@GetQueue:

; 247  : 		{
; 248  : 			int nLen = (int)_tcslen(pData) + 1;

  00060	8b f3		 mov	 esi, ebx
  00062	8d 4e 01	 lea	 ecx, DWORD PTR [esi+1]
$LL48@GetQueue:
  00065	8a 06		 mov	 al, BYTE PTR [esi]
  00067	46		 inc	 esi
  00068	84 c0		 test	 al, al
  0006a	75 f9		 jne	 SHORT $LL48@GetQueue
  0006c	2b f1		 sub	 esi, ecx

; 249  : 			pLogger->LogPrint(pData);

  0006e	8b cf		 mov	 ecx, edi
  00070	53		 push	 ebx
  00071	46		 inc	 esi
  00072	e8 00 00 00 00	 call	 ?LogPrint@CLogger@@QAEXPAD@Z ; CLogger::LogPrint
; File e:\infinia-library-3.0\com\include\comlogger.h

; 180  : 	inline void addLogSize(int nLen) {m_nLogSize += nLen;}

  00077	01 b7 84 00 00
	00		 add	 DWORD PTR [edi+132], esi
; File e:\infinia-library-3.0\com\include\combufpool.h

; 51   : inline int getIndex(int s) { int m; union { double x; int b[2]; }; x = s; m = (b[1] >> 20) - 1023; return m + ((s&(s - (1 << m))) ? 1 : 0); }

  0007d	b8 01 00 00 00	 mov	 eax, 1
  00082	66 0f 6e c6	 movd	 xmm0, esi
  00086	f3 0f e6 c0	 cvtdq2pd xmm0, xmm0
  0008a	f2 0f 11 45 f4	 movsd	 QWORD PTR _$S1$1[ebp], xmm0
  0008f	8b 55 f8	 mov	 edx, DWORD PTR _$S1$1[ebp+4]
  00092	c1 fa 14	 sar	 edx, 20			; 00000014H
  00095	81 ea ff 03 00
	00		 sub	 edx, 1023		; 000003ffH
  0009b	8b ca		 mov	 ecx, edx
  0009d	d3 e0		 shl	 eax, cl
  0009f	8b ce		 mov	 ecx, esi
  000a1	2b c8		 sub	 ecx, eax
  000a3	23 ce		 and	 ecx, esi
  000a5	f7 d9		 neg	 ecx
  000a7	1b c9		 sbb	 ecx, ecx
  000a9	f7 d9		 neg	 ecx
  000ab	03 ca		 add	 ecx, edx
; File e:\infinia-library-3.0\com\include\commemmanager.h

; 38   : 	inline void delBuf(char *pBuf, int nSize) { int nIdx = getIndex(nSize); delBufByIndex(pBuf, nIdx); }

  000ad	51		 push	 ecx
  000ae	8b 0d 00 00 00
	00		 mov	 ecx, DWORD PTR ?gs_pMMgr@@3PAVCMemManager@@A ; gs_pMMgr
  000b4	53		 push	 ebx
  000b5	e8 00 00 00 00	 call	 ?delBufByIndex@CMemManager@@QAEXPADH@Z ; CMemManager::delBufByIndex
; File e:\infinia-library-3.0\com\include\comlogger.h

; 198  : 	inline TCHAR * pop() { return (TCHAR *)m_sLogQueue.pop(); } // write   STLogger : 

  000ba	8b cf		 mov	 ecx, edi
  000bc	e8 00 00 00 00	 call	 ?pop@CQueueS@@QAEPAXXZ	; CQueueS::pop
; File e:\infinia-library-3.0\com\src\comcore.cpp

; 252  : 			pData = pLogger->pop();

  000c1	8b d8		 mov	 ebx, eax
  000c3	85 db		 test	 ebx, ebx
  000c5	75 99		 jne	 SHORT $LL4@GetQueue
  000c7	8b 7d fc	 mov	 edi, DWORD PTR _idx$1$[ebp]
$LN5@GetQueue:

; 253  : 
; 254  : 		}
; 255  : 		idx++;
; 256  : 		pLogger = m_pLoggerList->getNext(&idx);

  000ca	8b 45 f0	 mov	 eax, DWORD PTR _this$1$[ebp]
  000cd	47		 inc	 edi
  000ce	89 7d fc	 mov	 DWORD PTR _idx$1$[ebp], edi
  000d1	8b 40 28	 mov	 eax, DWORD PTR [eax+40]
  000d4	8b 48 10	 mov	 ecx, DWORD PTR [eax+16]
; File e:\infinia-library-3.0\com\include\comtlist.h

; 335  : 		for (*pIdx; *pIdx < m_nMax; (*pIdx)++) {

  000d7	3b f9		 cmp	 edi, ecx
  000d9	7d 2a		 jge	 SHORT $LN51@GetQueue

; 336  : 			if (m_pArray[*pIdx]) { return m_pArray[*pIdx]; }

  000db	8b 10		 mov	 edx, DWORD PTR [eax]
  000dd	8d 04 ba	 lea	 eax, DWORD PTR [edx+edi*4]
$LL26@GetQueue:
  000e0	83 38 00	 cmp	 DWORD PTR [eax], 0
  000e3	75 12		 jne	 SHORT $LN34@GetQueue

; 335  : 		for (*pIdx; *pIdx < m_nMax; (*pIdx)++) {

  000e5	47		 inc	 edi
  000e6	83 c0 04	 add	 eax, 4
  000e9	89 7d fc	 mov	 DWORD PTR _idx$1$[ebp], edi
  000ec	3b f9		 cmp	 edi, ecx
  000ee	7c f0		 jl	 SHORT $LL26@GetQueue
  000f0	5b		 pop	 ebx
  000f1	5e		 pop	 esi
  000f2	5f		 pop	 edi
; File e:\infinia-library-3.0\com\src\comcore.cpp

; 258  : }

  000f3	8b e5		 mov	 esp, ebp
  000f5	5d		 pop	 ebp
  000f6	c3		 ret	 0
$LN34@GetQueue:
; File e:\infinia-library-3.0\com\include\comtlist.h

; 336  : 			if (m_pArray[*pIdx]) { return m_pArray[*pIdx]; }

  000f7	8b 04 ba	 mov	 eax, DWORD PTR [edx+edi*4]
  000fa	89 45 f8	 mov	 DWORD PTR _pLogger$1$[ebp], eax
; File e:\infinia-library-3.0\com\src\comcore.cpp

; 243  : 	while (pLogger) {

  000fd	85 c0		 test	 eax, eax
  000ff	0f 85 4b ff ff
	ff		 jne	 $LL2@GetQueue
$LN51@GetQueue:
  00105	5b		 pop	 ebx
$LN50@GetQueue:
  00106	5e		 pop	 esi
$LN49@GetQueue:
  00107	5f		 pop	 edi

; 258  : }

  00108	8b e5		 mov	 esp, ebp
  0010a	5d		 pop	 ebp
  0010b	c3		 ret	 0
?GetQueue@CSTLogger@@QAEXXZ ENDP			; CSTLogger::GetQueue
_TEXT	ENDS
; Function compile flags: /Ogtp
; File e:\infinia-library-3.0\com\src\comcore.cpp
; File e:\infinia-library-3.0\com\include\combufpool.h
; File e:\infinia-library-3.0\com\src\comcore.cpp
; File e:\infinia-library-3.0\com\include\commemmanager.h
; File e:\infinia-library-3.0\com\src\comcore.cpp
;	COMDAT ?IsCommand@CSTLogger@@QAE_NXZ
_TEXT	SEGMENT
_$S1$1 = -8						; size = 8
?IsCommand@CSTLogger@@QAE_NXZ PROC			; CSTLogger::IsCommand, COMDAT
; _this$ = ecx

; 156  : {

  00000	55		 push	 ebp
  00001	8b ec		 mov	 ebp, esp
  00003	83 ec 08	 sub	 esp, 8
  00006	56		 push	 esi
  00007	57		 push	 edi
  00008	8b f9		 mov	 edi, ecx

; 157  : 	bool bRes = false;
; 158  : 	STLCommand *pCommand = (STLCommand *)m_pComandList->pop();

  0000a	8b 4f 2c	 mov	 ecx, DWORD PTR [edi+44]
  0000d	e8 00 00 00 00	 call	 ?pop@CQueueS@@QAEPAXXZ	; CQueueS::pop
  00012	8b f0		 mov	 esi, eax

; 159  : 	int nSTLSize = sizeof(STLCommand);
; 160  : 	while (pCommand) {

  00014	85 f6		 test	 esi, esi
  00016	74 76		 je	 SHORT $LN16@IsCommand
; File e:\infinia-library-3.0\com\include\combufpool.h

; 51   : inline int getIndex(int s) { int m; union { double x; int b[2]; }; x = s; m = (b[1] >> 20) - 1023; return m + ((s&(s - (1 << m))) ? 1 : 0); }

  00018	f2 0f 10 05 00
	00 00 00	 movsd	 xmm0, QWORD PTR __real@4020000000000000
  00020	b8 01 00 00 00	 mov	 eax, 1
  00025	f2 0f 11 45 f8	 movsd	 QWORD PTR _$S1$1[ebp], xmm0
  0002a	8b 55 fc	 mov	 edx, DWORD PTR _$S1$1[ebp+4]
  0002d	c1 fa 14	 sar	 edx, 20			; 00000014H
  00030	53		 push	 ebx
  00031	81 ea ff 03 00
	00		 sub	 edx, 1023		; 000003ffH
  00037	bb f8 ff ff ff	 mov	 ebx, -8			; fffffff8H
  0003c	8b ca		 mov	 ecx, edx
  0003e	d3 e0		 shl	 eax, cl
  00040	2b d8		 sub	 ebx, eax
  00042	c1 eb 03	 shr	 ebx, 3
  00045	83 e3 01	 and	 ebx, 1
  00048	03 da		 add	 ebx, edx
  0004a	66 0f 1f 44 00
	00		 npad	 6
$LL2@IsCommand:
; File e:\infinia-library-3.0\com\src\comcore.cpp

; 162  : 		if (pCommand->nCommandCode == 1) { // enable

  00050	8b 06		 mov	 eax, DWORD PTR [esi]
  00052	83 f8 01	 cmp	 eax, 1
  00055	75 0c		 jne	 SHORT $LN4@IsCommand

; 163  : 			procLoggerEnable((CLogger *)pCommand->p);

  00057	ff 76 04	 push	 DWORD PTR [esi+4]
  0005a	8b cf		 mov	 ecx, edi
  0005c	e8 00 00 00 00	 call	 ?procLoggerEnable@CSTLogger@@QAEXPAVCLogger@@@Z ; CSTLogger::procLoggerEnable
  00061	eb 0f		 jmp	 SHORT $LN6@IsCommand
$LN4@IsCommand:

; 164  : 		}
; 165  : 		else if (pCommand->nCommandCode == 2) { // 

  00063	83 f8 02	 cmp	 eax, 2
  00066	75 0a		 jne	 SHORT $LN6@IsCommand

; 166  : 			porcLoggerDisable((CLogger *)pCommand->p);

  00068	ff 76 04	 push	 DWORD PTR [esi+4]
  0006b	8b cf		 mov	 ecx, edi
  0006d	e8 00 00 00 00	 call	 ?porcLoggerDisable@CSTLogger@@QAEXPAVCLogger@@@Z ; CSTLogger::porcLoggerDisable
$LN6@IsCommand:
; File e:\infinia-library-3.0\com\include\commemmanager.h

; 38   : 	inline void delBuf(char *pBuf, int nSize) { int nIdx = getIndex(nSize); delBufByIndex(pBuf, nIdx); }

  00072	8b 0d 00 00 00
	00		 mov	 ecx, DWORD PTR ?gs_pMMgr@@3PAVCMemManager@@A ; gs_pMMgr
  00078	53		 push	 ebx
  00079	56		 push	 esi
  0007a	e8 00 00 00 00	 call	 ?delBufByIndex@CMemManager@@QAEXPADH@Z ; CMemManager::delBufByIndex
; File e:\infinia-library-3.0\com\src\comcore.cpp

; 169  : 		pCommand = (STLCommand *)m_pComandList->pop();

  0007f	8b 4f 2c	 mov	 ecx, DWORD PTR [edi+44]
  00082	e8 00 00 00 00	 call	 ?pop@CQueueS@@QAEPAXXZ	; CQueueS::pop
  00087	8b f0		 mov	 esi, eax
  00089	85 f6		 test	 esi, esi
  0008b	75 c3		 jne	 SHORT $LL2@IsCommand
  0008d	5b		 pop	 ebx
$LN16@IsCommand:
  0008e	5f		 pop	 edi

; 170  : 	}
; 171  : 
; 172  : 	return false;

  0008f	32 c0		 xor	 al, al
  00091	5e		 pop	 esi

; 173  : }

  00092	8b e5		 mov	 esp, ebp
  00094	5d		 pop	 ebp
  00095	c3		 ret	 0
?IsCommand@CSTLogger@@QAE_NXZ ENDP			; CSTLogger::IsCommand
_TEXT	ENDS
; Function compile flags: /Ogtp
; File e:\infinia-library-3.0\com\src\comcore.cpp
;	COMDAT ?quit@CSTLogger@@QAE_NXZ
_TEXT	SEGMENT
?quit@CSTLogger@@QAE_NXZ PROC				; CSTLogger::quit, COMDAT
; _this$ = ecx

; 228  : {

  00000	56		 push	 esi
  00001	8b f1		 mov	 esi, ecx
  00003	57		 push	 edi

; 66   : 	if (!m_stInfo.hTHID) return false;

  00004	8b 46 04	 mov	 eax, DWORD PTR [esi+4]
  00007	85 c0		 test	 eax, eax
  00009	74 0b		 je	 SHORT $LN6@quit

; 67   : 	int nStatus = 0; // for linux
; 68   : 	m_stInfo.bActive = false;
; 69   : 	THREAD_JOIN(m_stInfo.hTHID, (void **)&nStatus);

  0000b	50		 push	 eax
  0000c	c6 46 1c 00	 mov	 BYTE PTR [esi+28], 0
  00010	ff 15 00 00 00
	00		 call	 DWORD PTR __imp__CloseHandle@4
$LN6@quit:

; 229  : 	m_cThread.quit();
; 230  : 	if (m_pLoggerList) {

  00016	8b 7e 28	 mov	 edi, DWORD PTR [esi+40]
  00019	85 ff		 test	 edi, edi
  0001b	74 19		 je	 SHORT $LN13@quit

; 231  : 		delete m_pLoggerList;
; 232  : 		m_pLoggerList = NULL;

  0001d	8b cf		 mov	 ecx, edi
  0001f	e8 00 00 00 00	 call	 ??1?$CTList@VCLogger@@@@QAE@XZ ; CTList<CLogger>::~CTList<CLogger>
  00024	6a 18		 push	 24			; 00000018H
  00026	57		 push	 edi
  00027	e8 00 00 00 00	 call	 ??3@YAXPAXI@Z		; operator delete
  0002c	83 c4 08	 add	 esp, 8
  0002f	c7 46 28 00 00
	00 00		 mov	 DWORD PTR [esi+40], 0
$LN13@quit:

; 233  : 	}
; 234  : 	return true;

  00036	5f		 pop	 edi
  00037	b0 01		 mov	 al, 1
  00039	5e		 pop	 esi

; 235  : }

  0003a	c3		 ret	 0
?quit@CSTLogger@@QAE_NXZ ENDP				; CSTLogger::quit
_TEXT	ENDS
; Function compile flags: /Ogtp
; File e:\infinia-library-3.0\com\src\comcore.cpp
; File e:\infinia-library-3.0\com\include\comtypes.h
; File e:\infinia-library-3.0\com\src\comcore.cpp
;	COMDAT ?start@CSTLogger@@QAE_NXZ
_TEXT	SEGMENT
?start@CSTLogger@@QAE_NXZ PROC				; CSTLogger::start, COMDAT
; _this$ = ecx

; 142  : 	if (m_cThread.bActive()) return true;

  00000	80 79 1c 00	 cmp	 BYTE PTR [ecx+28], 0
  00004	75 62		 jne	 SHORT $LN14@start

; 35   : 	m_stInfo.pClass = pClass;

  00006	89 49 10	 mov	 DWORD PTR [ecx+16], ecx

; 36   : 	m_stInfo.pObj = pObj;

  00009	c7 41 14 00 00
	00 00		 mov	 DWORD PTR [ecx+20], 0

; 37   : 	m_stInfo.millisecSleep = millisec;

  00010	c7 41 20 ff ff
	ff ff		 mov	 DWORD PTR [ecx+32], -1

; 38   : 	m_fpLoopProc = fpProc;

  00017	c7 01 00 00 00
	00		 mov	 DWORD PTR [ecx], OFFSET ?loggerLoop@@YAXPAUSTThreadInfo@@@Z ; loggerLoop

; 39   : 	m_nMillisecSleep = millisec;

  0001d	c7 41 24 ff ff
	ff ff		 mov	 DWORD PTR [ecx+36], -1

; 143  : 	if (!m_cThread.init(loggerLoop, this, INFINITE)) {
; 144  : 		comErrorPrint("m_cThread.init");
; 145  : 		return false;
; 146  : 	}
; 147  : 	if (!m_cThread.start()) {

  00024	e8 00 00 00 00	 call	 ?start@CComThread@@QAE_NXZ ; CComThread::start
  00029	84 c0		 test	 al, al
  0002b	75 2e		 jne	 SHORT $LN4@start
; File e:\infinia-library-3.0\com\include\comtypes.h

; 325  : 	sprintf(g_szSystemError, "ERROR! [%s:%d] %s\n", _szFunc, _nLine, pMsg);

  0002d	68 00 00 00 00	 push	 OFFSET ??_C@_0BA@OBGMEFJD@m_cThread?4start?$AA@
  00032	68 94 00 00 00	 push	 148			; 00000094H
  00037	68 00 00 00 00	 push	 OFFSET ??_C@_0BB@FFIPJKHK@CSTLogger?3?3start?$AA@
  0003c	68 00 00 00 00	 push	 OFFSET ??_C@_0BD@KEHDJCKJ@ERROR?$CB?5?$FL?$CFs?3?$CFd?$FN?5?$CFs?6?$AA@
  00041	68 00 00 00 00	 push	 OFFSET ?g_szSystemError@@3PADA ; g_szSystemError
  00046	e8 00 00 00 00	 call	 _sprintf

; 326  : 	printf(g_szSystemError);

  0004b	68 00 00 00 00	 push	 OFFSET ?g_szSystemError@@3PADA ; g_szSystemError
  00050	e8 00 00 00 00	 call	 _printf
  00055	83 c4 18	 add	 esp, 24			; 00000018H
; File e:\infinia-library-3.0\com\src\comcore.cpp

; 149  : 		return false;

  00058	32 c0		 xor	 al, al

; 153  : }

  0005a	c3		 ret	 0
$LN4@start:

; 150  : 	}
; 151  : 	printf("CSTLogger::start()\n");

  0005b	68 00 00 00 00	 push	 OFFSET ??_C@_0BE@HDKADMG@CSTLogger?3?3start?$CI?$CJ?6?$AA@
  00060	e8 00 00 00 00	 call	 _printf
  00065	83 c4 04	 add	 esp, 4
$LN14@start:

; 152  : 	return true;

  00068	b0 01		 mov	 al, 1

; 153  : }

  0006a	c3		 ret	 0
?start@CSTLogger@@QAE_NXZ ENDP				; CSTLogger::start
_TEXT	ENDS
; Function compile flags: /Ogtp
; File e:\infinia-library-3.0\com\src\comcore.cpp
; File e:\infinia-library-3.0\com\include\comcore.h
; File e:\infinia-library-3.0\com\src\comcore.cpp
;	COMDAT ?init@CSTLogger@@QAE_NHH@Z
_TEXT	SEGMENT
_nCount$ = 8						; size = 4
_idx$ = 12						; size = 4
?init@CSTLogger@@QAE_NHH@Z PROC				; CSTLogger::init, COMDAT
; _this$ = ecx

; 125  : {

  00000	55		 push	 ebp
  00001	8b ec		 mov	 ebp, esp

; 126  : 	if (!nCount) return false;

  00003	8b 45 08	 mov	 eax, DWORD PTR _nCount$[ebp]
  00006	56		 push	 esi
  00007	8b f1		 mov	 esi, ecx
  00009	85 c0		 test	 eax, eax
  0000b	75 07		 jne	 SHORT $LN2@init
$LN7@init:
  0000d	32 c0		 xor	 al, al
  0000f	5e		 pop	 esi

; 130  : }

  00010	5d		 pop	 ebp
  00011	c2 08 00	 ret	 8
$LN2@init:

; 127  : 	if (!_init(nCount)) return false;

  00014	50		 push	 eax
  00015	e8 00 00 00 00	 call	 ?_init@CSTLogger@@AAE_NH@Z ; CSTLogger::_init
  0001a	84 c0		 test	 al, al
  0001c	74 ef		 je	 SHORT $LN7@init
; File e:\infinia-library-3.0\com\include\comcore.h

; 90   : 	inline void setIdx(int nIdx) { m_stInfo.nIdx = nIdx; }

  0001e	8b 45 0c	 mov	 eax, DWORD PTR _idx$[ebp]
  00021	89 46 18	 mov	 DWORD PTR [esi+24], eax
; File e:\infinia-library-3.0\com\src\comcore.cpp

; 129  : 	return true;

  00024	b0 01		 mov	 al, 1
  00026	5e		 pop	 esi

; 130  : }

  00027	5d		 pop	 ebp
  00028	c2 08 00	 ret	 8
?init@CSTLogger@@QAE_NHH@Z ENDP				; CSTLogger::init
_TEXT	ENDS
; Function compile flags: /Ogtp
; File e:\infinia-library-3.0\com\src\comcore.cpp
;	COMDAT ?initConfig@CSTLogger@@QAE_NPADH0@Z
_TEXT	SEGMENT
_szSect$ = -28						; size = 24
__$ArrayPad$ = -4					; size = 4
_pConfigFile$ = 8					; size = 4
_i$ = 12						; size = 4
_pSection$ = 16						; size = 4
?initConfig@CSTLogger@@QAE_NPADH0@Z PROC		; CSTLogger::initConfig, COMDAT
; _this$ = ecx

; 113  : {

  00000	55		 push	 ebp
  00001	8b ec		 mov	 ebp, esp
  00003	83 ec 1c	 sub	 esp, 28			; 0000001cH
  00006	a1 00 00 00 00	 mov	 eax, DWORD PTR ___security_cookie
  0000b	33 c5		 xor	 eax, ebp
  0000d	89 45 fc	 mov	 DWORD PTR __$ArrayPad$[ebp], eax
  00010	8b 45 10	 mov	 eax, DWORD PTR _pSection$[ebp]
  00013	56		 push	 esi
  00014	8b 75 08	 mov	 esi, DWORD PTR _pConfigFile$[ebp]
  00017	57		 push	 edi

; 114  : 	TCHAR szSect[24];
; 115  : 	int nMax;
; 116  : 
; 117  : 	_stprintf(szSect, _T("%s_%d"), pSection, i);

  00018	ff 75 0c	 push	 DWORD PTR _i$[ebp]
  0001b	8b f9		 mov	 edi, ecx
  0001d	50		 push	 eax
  0001e	8d 45 e4	 lea	 eax, DWORD PTR _szSect$[ebp]
  00021	68 00 00 00 00	 push	 OFFSET ??_C@_05LFHGFJK@?$CFs_?$CFd?$AA@
  00026	50		 push	 eax
  00027	e8 00 00 00 00	 call	 _sprintf
  0002c	83 c4 10	 add	 esp, 16			; 00000010H

; 118  : 	nMax = GetPrivateProfileInt(szSect, _T("LIST_COUNT"), 0, pConfigFile);

  0002f	8d 45 e4	 lea	 eax, DWORD PTR _szSect$[ebp]
  00032	56		 push	 esi
  00033	6a 00		 push	 0
  00035	68 00 00 00 00	 push	 OFFSET ??_C@_0L@GOMEIANA@LIST_COUNT?$AA@
  0003a	50		 push	 eax
  0003b	ff 15 00 00 00
	00		 call	 DWORD PTR __imp__GetPrivateProfileIntA@16

; 119  : 	if (!nMax) return false;

  00041	85 c0		 test	 eax, eax
  00043	75 14		 jne	 SHORT $LN2@initConfig
  00045	5f		 pop	 edi
  00046	32 c0		 xor	 al, al
  00048	5e		 pop	 esi

; 121  : 	return true;
; 122  : }

  00049	8b 4d fc	 mov	 ecx, DWORD PTR __$ArrayPad$[ebp]
  0004c	33 cd		 xor	 ecx, ebp
  0004e	e8 00 00 00 00	 call	 @__security_check_cookie@4
  00053	8b e5		 mov	 esp, ebp
  00055	5d		 pop	 ebp
  00056	c2 0c 00	 ret	 12			; 0000000cH
$LN2@initConfig:

; 120  : 	if (!_init(nMax)) return false;

  00059	50		 push	 eax
  0005a	8b cf		 mov	 ecx, edi
  0005c	e8 00 00 00 00	 call	 ?_init@CSTLogger@@AAE_NH@Z ; CSTLogger::_init

; 121  : 	return true;
; 122  : }

  00061	8b 4d fc	 mov	 ecx, DWORD PTR __$ArrayPad$[ebp]
  00064	84 c0		 test	 al, al
  00066	5f		 pop	 edi
  00067	0f 95 c0	 setne	 al
  0006a	33 cd		 xor	 ecx, ebp
  0006c	5e		 pop	 esi
  0006d	e8 00 00 00 00	 call	 @__security_check_cookie@4
  00072	8b e5		 mov	 esp, ebp
  00074	5d		 pop	 ebp
  00075	c2 0c 00	 ret	 12			; 0000000cH
?initConfig@CSTLogger@@QAE_NPADH0@Z ENDP		; CSTLogger::initConfig
_TEXT	ENDS
; Function compile flags: /Ogtp
; File e:\infinia-library-3.0\com\src\comcore.cpp
; File e:\infinia-library-3.0\com\include\com\win32\win32_mtsync.h
; File e:\infinia-library-3.0\com\include\com\abstract_mtsync.h
; File e:\infinia-library-3.0\com\src\comcore.cpp
;	COMDAT ??1CSTLogger@@QAE@XZ
_TEXT	SEGMENT
??1CSTLogger@@QAE@XZ PROC				; CSTLogger::~CSTLogger, COMDAT
; _this$ = ecx

; 98   : {

  00000	56		 push	 esi
  00001	8b f1		 mov	 esi, ecx
  00003	57		 push	 edi

; 66   : 	if (!m_stInfo.hTHID) return false;

  00004	8b 3d 00 00 00
	00		 mov	 edi, DWORD PTR __imp__CloseHandle@4
  0000a	8b 46 04	 mov	 eax, DWORD PTR [esi+4]
  0000d	85 c0		 test	 eax, eax
  0000f	74 07		 je	 SHORT $LN14@CSTLogger

; 67   : 	int nStatus = 0; // for linux
; 68   : 	m_stInfo.bActive = false;
; 69   : 	THREAD_JOIN(m_stInfo.hTHID, (void **)&nStatus);

  00011	50		 push	 eax
  00012	c6 46 1c 00	 mov	 BYTE PTR [esi+28], 0
  00016	ff d7		 call	 edi
$LN14@CSTLogger:
  00018	53		 push	 ebx

; 230  : 	if (m_pLoggerList) {

  00019	8b 5e 28	 mov	 ebx, DWORD PTR [esi+40]
  0001c	85 db		 test	 ebx, ebx
  0001e	74 19		 je	 SHORT $LN10@CSTLogger
  00020	8b cb		 mov	 ecx, ebx
  00022	e8 00 00 00 00	 call	 ??1?$CTList@VCLogger@@@@QAE@XZ ; CTList<CLogger>::~CTList<CLogger>
  00027	6a 18		 push	 24			; 00000018H
  00029	53		 push	 ebx
  0002a	e8 00 00 00 00	 call	 ??3@YAXPAXI@Z		; operator delete
  0002f	83 c4 08	 add	 esp, 8

; 231  : 		delete m_pLoggerList;
; 232  : 		m_pLoggerList = NULL;

  00032	c7 46 28 00 00
	00 00		 mov	 DWORD PTR [esi+40], 0
$LN10@CSTLogger:

; 99   : 	quit();
; 100  : 	if (m_pComandList) {

  00039	8b 5e 2c	 mov	 ebx, DWORD PTR [esi+44]
  0003c	85 db		 test	 ebx, ebx
  0003e	74 19		 je	 SHORT $LN2@CSTLogger

; 101  : 		delete m_pComandList;
; 102  : 		m_pComandList = NULL;

  00040	8b cb		 mov	 ecx, ebx
  00042	e8 00 00 00 00	 call	 ??1CQueueS@@QAE@XZ	; CQueueS::~CQueueS
  00047	6a 40		 push	 64			; 00000040H
  00049	53		 push	 ebx
  0004a	e8 00 00 00 00	 call	 ??3@YAXPAXI@Z		; operator delete
  0004f	83 c4 08	 add	 esp, 8
  00052	c7 46 2c 00 00
	00 00		 mov	 DWORD PTR [esi+44], 0
$LN2@CSTLogger:

; 103  : 	}
; 104  : 	if (m_pLoggerList) {

  00059	8b 5e 28	 mov	 ebx, DWORD PTR [esi+40]
  0005c	85 db		 test	 ebx, ebx
  0005e	74 19		 je	 SHORT $LN3@CSTLogger

; 105  : 		delete m_pLoggerList;
; 106  : 		m_pLoggerList = NULL;

  00060	8b cb		 mov	 ecx, ebx
  00062	e8 00 00 00 00	 call	 ??1?$CTList@VCLogger@@@@QAE@XZ ; CTList<CLogger>::~CTList<CLogger>
  00067	6a 18		 push	 24			; 00000018H
  00069	53		 push	 ebx
  0006a	e8 00 00 00 00	 call	 ??3@YAXPAXI@Z		; operator delete
  0006f	83 c4 08	 add	 esp, 8
  00072	c7 46 28 00 00
	00 00		 mov	 DWORD PTR [esi+40], 0
$LN3@CSTLogger:

; 66   : 	if (!m_stInfo.hTHID) return false;

  00079	8b 46 04	 mov	 eax, DWORD PTR [esi+4]
  0007c	5b		 pop	 ebx
  0007d	85 c0		 test	 eax, eax
  0007f	74 07		 je	 SHORT $LN32@CSTLogger

; 67   : 	int nStatus = 0; // for linux
; 68   : 	m_stInfo.bActive = false;
; 69   : 	THREAD_JOIN(m_stInfo.hTHID, (void **)&nStatus);

  00081	50		 push	 eax
  00082	c6 46 1c 00	 mov	 BYTE PTR [esi+28], 0
  00086	ff d7		 call	 edi
$LN32@CSTLogger:
; File e:\infinia-library-3.0\com\include\com\win32\win32_mtsync.h

; 64   : 	  ~condition() { CloseHandle(m_event); }

  00088	ff 76 0c	 push	 DWORD PTR [esi+12]
  0008b	c7 46 08 00 00
	00 00		 mov	 DWORD PTR [esi+8], OFFSET ??_7condition@win32@common@@6B@
  00092	ff d7		 call	 edi
  00094	5f		 pop	 edi
; File e:\infinia-library-3.0\com\include\com\abstract_mtsync.h

; 72   : 	virtual ~abstract_condition() {}

  00095	c7 46 08 00 00
	00 00		 mov	 DWORD PTR [esi+8], OFFSET ??_7abstract_condition@common@@6B@
  0009c	5e		 pop	 esi
; File e:\infinia-library-3.0\com\src\comcore.cpp

; 108  : }

  0009d	c3		 ret	 0
??1CSTLogger@@QAE@XZ ENDP				; CSTLogger::~CSTLogger
_TEXT	ENDS
; Function compile flags: /Ogtp
; File e:\infinia-library-3.0\com\src\comcore.cpp
; File e:\infinia-library-3.0\com\include\com\win32\win32_mtsync.h
; File e:\infinia-library-3.0\com\src\comcore.cpp
; File e:\infinia-library-3.0\com\include\com\win32\win32_mtsync.h
; File e:\infinia-library-3.0\com\src\comcore.cpp
; File e:\infinia-library-3.0\com\include\com\win32\win32_mtsync.h
; File e:\infinia-library-3.0\com\src\comcore.cpp
;	COMDAT ??0CSTLogger@@QAE@XZ
_TEXT	SEGMENT
_this$ = -4						; size = 4
??0CSTLogger@@QAE@XZ PROC				; CSTLogger::CSTLogger, COMDAT
; _this$ = ecx

; 92   : {

  00000	55		 push	 ebp
  00001	8b ec		 mov	 ebp, esp
  00003	51		 push	 ecx
  00004	56		 push	 esi
; File e:\infinia-library-3.0\com\include\com\win32\win32_mtsync.h

; 63   : 	  condition() { m_event = CreateEvent(NULL, TRUE, FALSE, NULL);}

  00005	6a 00		 push	 0
; File e:\infinia-library-3.0\com\src\comcore.cpp

; 92   : {

  00007	8b f1		 mov	 esi, ecx
; File e:\infinia-library-3.0\com\include\com\win32\win32_mtsync.h

; 63   : 	  condition() { m_event = CreateEvent(NULL, TRUE, FALSE, NULL);}

  00009	6a 00		 push	 0
  0000b	6a 01		 push	 1
  0000d	6a 00		 push	 0
; File e:\infinia-library-3.0\com\src\comcore.cpp

; 92   : {

  0000f	89 75 fc	 mov	 DWORD PTR _this$[ebp], esi
; File e:\infinia-library-3.0\com\include\com\win32\win32_mtsync.h

; 63   : 	  condition() { m_event = CreateEvent(NULL, TRUE, FALSE, NULL);}

  00012	c7 46 08 00 00
	00 00		 mov	 DWORD PTR [esi+8], OFFSET ??_7condition@win32@common@@6B@
  00019	ff 15 00 00 00
	00		 call	 DWORD PTR __imp__CreateEventA@16
  0001f	89 46 0c	 mov	 DWORD PTR [esi+12], eax
; File e:\infinia-library-3.0\com\src\comcore.cpp

; 95   : }

  00022	8b c6		 mov	 eax, esi

; 16   : 	m_stInfo.bActive = false;

  00024	c6 46 1c 00	 mov	 BYTE PTR [esi+28], 0

; 17   : 	m_stInfo.hTHID = NULL;

  00028	c7 46 04 00 00
	00 00		 mov	 DWORD PTR [esi+4], 0

; 18   : 	m_stInfo.nIdx = -1;

  0002f	c7 46 18 ff ff
	ff ff		 mov	 DWORD PTR [esi+24], -1

; 19   : 	m_stInfo.pClass = NULL;

  00036	c7 46 10 00 00
	00 00		 mov	 DWORD PTR [esi+16], 0

; 20   : 	m_stInfo.millisecSleep = INFINITE;

  0003d	c7 46 20 ff ff
	ff ff		 mov	 DWORD PTR [esi+32], -1

; 21   : 	m_nMillisecSleep = INFINITE;

  00044	c7 46 24 ff ff
	ff ff		 mov	 DWORD PTR [esi+36], -1

; 22   : 	m_stInfo.pObj = NULL;

  0004b	c7 46 14 00 00
	00 00		 mov	 DWORD PTR [esi+20], 0

; 23   : 	m_fpLoopProc = NULL;

  00052	c7 06 00 00 00
	00		 mov	 DWORD PTR [esi], 0

; 93   : 	m_pComandList = NULL;

  00058	c7 46 2c 00 00
	00 00		 mov	 DWORD PTR [esi+44], 0

; 94   : 	m_pLoggerList = NULL;

  0005f	c7 46 28 00 00
	00 00		 mov	 DWORD PTR [esi+40], 0
  00066	5e		 pop	 esi

; 95   : }

  00067	8b e5		 mov	 esp, ebp
  00069	5d		 pop	 ebp
  0006a	c3		 ret	 0
??0CSTLogger@@QAE@XZ ENDP				; CSTLogger::CSTLogger
_TEXT	ENDS
; Function compile flags: /Ogtp
; File e:\infinia-library-3.0\com\src\comcore.cpp
;	COMDAT ?loggerLoop@@YAXPAUSTThreadInfo@@@Z
_TEXT	SEGMENT
_p$ = 8							; size = 4
?loggerLoop@@YAXPAUSTThreadInfo@@@Z PROC		; loggerLoop, COMDAT

; 262  : {

  00000	55		 push	 ebp
  00001	8b ec		 mov	 ebp, esp

; 263  : 	CSTLogger *pBasic = (CSTLogger *)p->pClass;

  00003	8b 45 08	 mov	 eax, DWORD PTR _p$[ebp]
  00006	56		 push	 esi
  00007	8b 70 0c	 mov	 esi, DWORD PTR [eax+12]

; 264  : 	if (pBasic->IsCommand()) return;

  0000a	8b ce		 mov	 ecx, esi
  0000c	e8 00 00 00 00	 call	 ?IsCommand@CSTLogger@@QAE_NXZ ; CSTLogger::IsCommand
  00011	84 c0		 test	 al, al
  00013	75 10		 jne	 SHORT $LN1@loggerLoop

; 265  : 	pBasic->GetQueue();

  00015	8b ce		 mov	 ecx, esi
  00017	e8 00 00 00 00	 call	 ?GetQueue@CSTLogger@@QAEXXZ ; CSTLogger::GetQueue

; 266  : 	pBasic->TimeProc();

  0001c	8b ce		 mov	 ecx, esi
  0001e	5e		 pop	 esi

; 267  : }

  0001f	5d		 pop	 ebp

; 266  : 	pBasic->TimeProc();

  00020	e9 00 00 00 00	 jmp	 ?TimeProc@CSTLogger@@QAEXXZ ; CSTLogger::TimeProc
$LN1@loggerLoop:
  00025	5e		 pop	 esi

; 267  : }

  00026	5d		 pop	 ebp
  00027	c3		 ret	 0
?loggerLoop@@YAXPAUSTThreadInfo@@@Z ENDP		; loggerLoop
_TEXT	ENDS
; Function compile flags: /Ogtp
; File e:\infinia-library-3.0\com\src\comcore.cpp
; File e:\infinia-library-3.0\com\include\com\win32\win32_mtsync.h
; File e:\infinia-library-3.0\com\include\com\abstract_mtsync.h
;	COMDAT ??_ECComThread@@QAEPAXI@Z
_TEXT	SEGMENT
__$EHRec$ = -12						; size = 12
___flags$ = 8						; size = 4
??_ECComThread@@QAEPAXI@Z PROC				; CComThread::`vector deleting destructor', COMDAT
; _this$ = ecx
  00000	55		 push	 ebp
  00001	8b ec		 mov	 ebp, esp
  00003	6a ff		 push	 -1
  00005	68 00 00 00 00	 push	 __ehhandler$??_ECComThread@@QAEPAXI@Z
  0000a	64 a1 00 00 00
	00		 mov	 eax, DWORD PTR fs:0
  00010	50		 push	 eax
  00011	53		 push	 ebx
  00012	56		 push	 esi
  00013	57		 push	 edi
  00014	a1 00 00 00 00	 mov	 eax, DWORD PTR ___security_cookie
  00019	33 c5		 xor	 eax, ebp
  0001b	50		 push	 eax
  0001c	8d 45 f4	 lea	 eax, DWORD PTR __$EHRec$[ebp]
  0001f	64 a3 00 00 00
	00		 mov	 DWORD PTR fs:0, eax
  00025	8b f1		 mov	 esi, ecx
  00027	8b 5d 08	 mov	 ebx, DWORD PTR ___flags$[ebp]
  0002a	f6 c3 02	 test	 bl, 2
  0002d	74 44		 je	 SHORT $LN2@vector
  0002f	68 00 00 00 00	 push	 OFFSET ??1CComThread@@QAE@XZ ; CComThread::~CComThread
  00034	ff 76 fc	 push	 DWORD PTR [esi-4]
  00037	8d 7e fc	 lea	 edi, DWORD PTR [esi-4]
  0003a	6a 28		 push	 40			; 00000028H
  0003c	56		 push	 esi
  0003d	e8 00 00 00 00	 call	 ??_M@YGXPAXIIP6EX0@Z@Z
  00042	f6 c3 01	 test	 bl, 1
  00045	74 16		 je	 SHORT $LN3@vector
  00047	8b 0f		 mov	 ecx, DWORD PTR [edi]
  00049	8d 0c 89	 lea	 ecx, DWORD PTR [ecx+ecx*4]
  0004c	8d 0c cd 04 00
	00 00		 lea	 ecx, DWORD PTR [ecx*8+4]
  00053	51		 push	 ecx
  00054	57		 push	 edi
  00055	e8 00 00 00 00	 call	 ??_V@YAXPAXI@Z		; operator delete[]
  0005a	83 c4 08	 add	 esp, 8
$LN3@vector:
  0005d	8b c7		 mov	 eax, edi
  0005f	8b 4d f4	 mov	 ecx, DWORD PTR __$EHRec$[ebp]
  00062	64 89 0d 00 00
	00 00		 mov	 DWORD PTR fs:0, ecx
  00069	59		 pop	 ecx
  0006a	5f		 pop	 edi
  0006b	5e		 pop	 esi
  0006c	5b		 pop	 ebx
  0006d	8b e5		 mov	 esp, ebp
  0006f	5d		 pop	 ebp
  00070	c2 04 00	 ret	 4
$LN2@vector:
; File e:\infinia-library-3.0\com\src\comcore.cpp

; 66   : 	if (!m_stInfo.hTHID) return false;

  00073	8b 46 04	 mov	 eax, DWORD PTR [esi+4]
  00076	8b 3d 00 00 00
	00		 mov	 edi, DWORD PTR __imp__CloseHandle@4
  0007c	85 c0		 test	 eax, eax
  0007e	74 07		 je	 SHORT $LN9@vector

; 67   : 	int nStatus = 0; // for linux
; 68   : 	m_stInfo.bActive = false;
; 69   : 	THREAD_JOIN(m_stInfo.hTHID, (void **)&nStatus);

  00080	50		 push	 eax
  00081	c6 46 1c 00	 mov	 BYTE PTR [esi+28], 0
  00085	ff d7		 call	 edi
$LN9@vector:
; File e:\infinia-library-3.0\com\include\com\win32\win32_mtsync.h

; 64   : 	  ~condition() { CloseHandle(m_event); }

  00087	ff 76 0c	 push	 DWORD PTR [esi+12]
  0008a	c7 46 08 00 00
	00 00		 mov	 DWORD PTR [esi+8], OFFSET ??_7condition@win32@common@@6B@
  00091	ff d7		 call	 edi
; File e:\infinia-library-3.0\com\include\com\abstract_mtsync.h

; 72   : 	virtual ~abstract_condition() {}

  00093	c7 46 08 00 00
	00 00		 mov	 DWORD PTR [esi+8], OFFSET ??_7abstract_condition@common@@6B@
  0009a	f6 c3 01	 test	 bl, 1
  0009d	74 0b		 je	 SHORT $LN4@vector
  0009f	6a 28		 push	 40			; 00000028H
  000a1	56		 push	 esi
  000a2	e8 00 00 00 00	 call	 ??3@YAXPAXI@Z		; operator delete
  000a7	83 c4 08	 add	 esp, 8
$LN4@vector:
  000aa	8b c6		 mov	 eax, esi
  000ac	8b 4d f4	 mov	 ecx, DWORD PTR __$EHRec$[ebp]
  000af	64 89 0d 00 00
	00 00		 mov	 DWORD PTR fs:0, ecx
  000b6	59		 pop	 ecx
  000b7	5f		 pop	 edi
  000b8	5e		 pop	 esi
  000b9	5b		 pop	 ebx
  000ba	8b e5		 mov	 esp, ebp
  000bc	5d		 pop	 ebp
  000bd	c2 04 00	 ret	 4
_TEXT	ENDS
;	COMDAT text$x
text$x	SEGMENT
__ehhandler$??_ECComThread@@QAEPAXI@Z:
  00000	8b 54 24 08	 mov	 edx, DWORD PTR [esp+8]
  00004	8d 42 0c	 lea	 eax, DWORD PTR [edx+12]
  00007	8b 4a f0	 mov	 ecx, DWORD PTR [edx-16]
  0000a	33 c8		 xor	 ecx, eax
  0000c	e8 00 00 00 00	 call	 @__security_check_cookie@4
  00011	b8 00 00 00 00	 mov	 eax, OFFSET __ehfuncinfo$??_ECComThread@@QAEPAXI@Z
  00016	e9 00 00 00 00	 jmp	 ___CxxFrameHandler3
text$x	ENDS
??_ECComThread@@QAEPAXI@Z ENDP				; CComThread::`vector deleting destructor'
; Function compile flags: /Ogtp
; File e:\infinia-library-3.0\com\src\comcore.cpp
; File e:\infinia-library-3.0\com\include\com\win32\win32_mtsync.h
; File e:\infinia-library-3.0\com\include\com\abstract_mtsync.h
;	COMDAT ??_GCComThread@@QAEPAXI@Z
_TEXT	SEGMENT
___flags$ = 8						; size = 4
??_GCComThread@@QAEPAXI@Z PROC				; CComThread::`scalar deleting destructor', COMDAT
; _this$ = ecx
  00000	55		 push	 ebp
  00001	8b ec		 mov	 ebp, esp
  00003	56		 push	 esi
  00004	8b f1		 mov	 esi, ecx
; File e:\infinia-library-3.0\com\src\comcore.cpp

; 66   : 	if (!m_stInfo.hTHID) return false;

  00006	8b 46 04	 mov	 eax, DWORD PTR [esi+4]
  00009	85 c0		 test	 eax, eax
  0000b	74 0b		 je	 SHORT $LN7@scalar

; 67   : 	int nStatus = 0; // for linux
; 68   : 	m_stInfo.bActive = false;
; 69   : 	THREAD_JOIN(m_stInfo.hTHID, (void **)&nStatus);

  0000d	50		 push	 eax
  0000e	c6 46 1c 00	 mov	 BYTE PTR [esi+28], 0
  00012	ff 15 00 00 00
	00		 call	 DWORD PTR __imp__CloseHandle@4
$LN7@scalar:
; File e:\infinia-library-3.0\com\include\com\win32\win32_mtsync.h

; 64   : 	  ~condition() { CloseHandle(m_event); }

  00018	ff 76 0c	 push	 DWORD PTR [esi+12]
  0001b	c7 46 08 00 00
	00 00		 mov	 DWORD PTR [esi+8], OFFSET ??_7condition@win32@common@@6B@
  00022	ff 15 00 00 00
	00		 call	 DWORD PTR __imp__CloseHandle@4
  00028	f6 45 08 01	 test	 BYTE PTR ___flags$[ebp], 1
; File e:\infinia-library-3.0\com\include\com\abstract_mtsync.h

; 72   : 	virtual ~abstract_condition() {}

  0002c	c7 46 08 00 00
	00 00		 mov	 DWORD PTR [esi+8], OFFSET ??_7abstract_condition@common@@6B@
  00033	74 0b		 je	 SHORT $LN19@scalar
  00035	6a 28		 push	 40			; 00000028H
  00037	56		 push	 esi
  00038	e8 00 00 00 00	 call	 ??3@YAXPAXI@Z		; operator delete
  0003d	83 c4 08	 add	 esp, 8
$LN19@scalar:
  00040	8b c6		 mov	 eax, esi
  00042	5e		 pop	 esi
  00043	5d		 pop	 ebp
  00044	c2 04 00	 ret	 4
??_GCComThread@@QAEPAXI@Z ENDP				; CComThread::`scalar deleting destructor'
_TEXT	ENDS
; Function compile flags: /Ogtp
; File e:\infinia-library-3.0\com\include\comcore.h
;	COMDAT ?sendSignal@CComThread@@QAEXXZ
_TEXT	SEGMENT
?sendSignal@CComThread@@QAEXXZ PROC			; CComThread::sendSignal, COMDAT
; _this$ = ecx

; 92   : 	inline void sendSignal() { m_stInfo.cThreadCond.signal(); }

  00000	8b 41 08	 mov	 eax, DWORD PTR [ecx+8]
  00003	83 c1 08	 add	 ecx, 8
  00006	ff 60 04	 jmp	 DWORD PTR [eax+4]
?sendSignal@CComThread@@QAEXXZ ENDP			; CComThread::sendSignal
_TEXT	ENDS
; Function compile flags: /Ogtp
; File e:\infinia-library-3.0\com\include\comcore.h
;	COMDAT ?bActive@CComThread@@QAE_NXZ
_TEXT	SEGMENT
?bActive@CComThread@@QAE_NXZ PROC			; CComThread::bActive, COMDAT
; _this$ = ecx

; 91   : 	inline bool bActive() {	return m_stInfo.bActive; }

  00000	8a 41 1c	 mov	 al, BYTE PTR [ecx+28]
  00003	c3		 ret	 0
?bActive@CComThread@@QAE_NXZ ENDP			; CComThread::bActive
_TEXT	ENDS
; Function compile flags: /Ogtp
; File e:\infinia-library-3.0\com\include\comcore.h
;	COMDAT ?setIdx@CComThread@@QAEXH@Z
_TEXT	SEGMENT
_nIdx$ = 8						; size = 4
?setIdx@CComThread@@QAEXH@Z PROC			; CComThread::setIdx, COMDAT
; _this$ = ecx

; 90   : 	inline void setIdx(int nIdx) { m_stInfo.nIdx = nIdx; }

  00000	55		 push	 ebp
  00001	8b ec		 mov	 ebp, esp
  00003	8b 45 08	 mov	 eax, DWORD PTR _nIdx$[ebp]
  00006	89 41 18	 mov	 DWORD PTR [ecx+24], eax
  00009	5d		 pop	 ebp
  0000a	c2 04 00	 ret	 4
?setIdx@CComThread@@QAEXH@Z ENDP			; CComThread::setIdx
_TEXT	ENDS
; Function compile flags: /Ogtp
; File e:\infinia-library-3.0\com\src\comcore.cpp
; File e:\infinia-library-3.0\com\include\com\win32\win32_mtsync.h
; File e:\infinia-library-3.0\com\src\comcore.cpp
;	COMDAT ?ProcThread@CComThread@@SGKPAX@Z
_TEXT	SEGMENT
_ptr$ = 8						; size = 4
?ProcThread@CComThread@@SGKPAX@Z PROC			; CComThread::ProcThread, COMDAT

; 75   : {

  00000	55		 push	 ebp
  00001	8b ec		 mov	 ebp, esp
  00003	56		 push	 esi
  00004	57		 push	 edi

; 76   : 	//pthread_detach(pthread_self());	
; 77   : 	CComThread *pClass = (CComThread *)ptr;
; 78   : 	STThreadInfo *pBasic = &(pClass->m_stInfo);

  00005	8b 7d 08	 mov	 edi, DWORD PTR _ptr$[ebp]

; 79   : 
; 80   : 	while (pBasic->bActive)

  00008	80 7f 1c 00	 cmp	 BYTE PTR [edi+28], 0
  0000c	8d 77 04	 lea	 esi, DWORD PTR [edi+4]
  0000f	74 3a		 je	 SHORT $LN3@ProcThread

; 81   : 	{
; 82   : 		pBasic->cThreadCond.wait(pBasic->millisecSleep, NULL);	// -1 : INFINITE

  00011	53		 push	 ebx
  00012	8b 1d 00 00 00
	00		 mov	 ebx, DWORD PTR __imp__WaitForSingleObject@8
  00018	83 c9 ff	 or	 ecx, -1
  0001b	0f 1f 44 00 00	 npad	 5
$LL2@ProcThread:
  00020	8b 46 1c	 mov	 eax, DWORD PTR [esi+28]
; File e:\infinia-library-3.0\com\include\com\win32\win32_mtsync.h

; 72   : 			DWORD timeout = milliseconds < 0 ? INFINITE : milliseconds;

  00023	85 c0		 test	 eax, eax
  00025	0f 48 c1	 cmovs	 eax, ecx

; 73   : 			if(p) p->enter();
; 74   : 			bool rv = WaitForSingleObject(m_event, timeout) == WAIT_OBJECT_0;

  00028	50		 push	 eax
  00029	ff 76 08	 push	 DWORD PTR [esi+8]
  0002c	ff d3		 call	 ebx

; 75   : 			ResetEvent(m_event);

  0002e	ff 76 08	 push	 DWORD PTR [esi+8]
  00031	ff 15 00 00 00
	00		 call	 DWORD PTR __imp__ResetEvent@4
; File e:\infinia-library-3.0\com\src\comcore.cpp

; 83   : 		pClass->m_fpLoopProc(pBasic);

  00037	8b 07		 mov	 eax, DWORD PTR [edi]
  00039	56		 push	 esi
  0003a	ff d0		 call	 eax
  0003c	83 c4 04	 add	 esp, 4
  0003f	b9 ff ff ff ff	 mov	 ecx, -1
  00044	80 7e 18 00	 cmp	 BYTE PTR [esi+24], 0
  00048	75 d6		 jne	 SHORT $LL2@ProcThread
  0004a	5b		 pop	 ebx
$LN3@ProcThread:

; 66   : 	if (!m_stInfo.hTHID) return false;

  0004b	8b 06		 mov	 eax, DWORD PTR [esi]
  0004d	85 c0		 test	 eax, eax
  0004f	74 0b		 je	 SHORT $LN16@ProcThread

; 67   : 	int nStatus = 0; // for linux
; 68   : 	m_stInfo.bActive = false;
; 69   : 	THREAD_JOIN(m_stInfo.hTHID, (void **)&nStatus);

  00051	50		 push	 eax
  00052	c6 47 1c 00	 mov	 BYTE PTR [edi+28], 0
  00056	ff 15 00 00 00
	00		 call	 DWORD PTR __imp__CloseHandle@4
$LN16@ProcThread:
  0005c	5f		 pop	 edi

; 84   : 	}
; 85   : 	pClass->quit();
; 86   : 	return 0;

  0005d	33 c0		 xor	 eax, eax
  0005f	5e		 pop	 esi

; 87   : }

  00060	5d		 pop	 ebp
  00061	c2 04 00	 ret	 4
?ProcThread@CComThread@@SGKPAX@Z ENDP			; CComThread::ProcThread
_TEXT	ENDS
; Function compile flags: /Ogtp
; File e:\infinia-library-3.0\com\src\comcore.cpp
;	COMDAT ?quit@CComThread@@QAE_NXZ
_TEXT	SEGMENT
?quit@CComThread@@QAE_NXZ PROC				; CComThread::quit, COMDAT
; _this$ = ecx

; 66   : 	if (!m_stInfo.hTHID) return false;

  00000	8b 41 04	 mov	 eax, DWORD PTR [ecx+4]
  00003	85 c0		 test	 eax, eax
  00005	75 03		 jne	 SHORT $LN2@quit
  00007	32 c0		 xor	 al, al

; 71   : }

  00009	c3		 ret	 0
$LN2@quit:

; 67   : 	int nStatus = 0; // for linux
; 68   : 	m_stInfo.bActive = false;
; 69   : 	THREAD_JOIN(m_stInfo.hTHID, (void **)&nStatus);

  0000a	50		 push	 eax
  0000b	c6 41 1c 00	 mov	 BYTE PTR [ecx+28], 0
  0000f	ff 15 00 00 00
	00		 call	 DWORD PTR __imp__CloseHandle@4

; 70   : 	return true;

  00015	b0 01		 mov	 al, 1

; 71   : }

  00017	c3		 ret	 0
?quit@CComThread@@QAE_NXZ ENDP				; CComThread::quit
_TEXT	ENDS
; Function compile flags: /Ogtp
; File e:\infinia-library-3.0\com\src\comcore.cpp
; File e:\infinia-library-3.0\com\include\comtypes.h
; File e:\infinia-library-3.0\com\src\comcore.cpp
; File e:\infinia-library-3.0\com\include\comtypes.h
; File e:\infinia-library-3.0\com\src\comcore.cpp
; File e:\infinia-library-3.0\com\include\comtypes.h
; File e:\infinia-library-3.0\com\src\comcore.cpp
;	COMDAT ?start@CComThread@@QAE_NXZ
_TEXT	SEGMENT
?start@CComThread@@QAE_NXZ PROC				; CComThread::start, COMDAT
; _this$ = ecx

; 44   : {

  00000	56		 push	 esi
  00001	8b f1		 mov	 esi, ecx

; 45   : 	if (!m_fpLoopProc) {

  00003	83 3e 00	 cmp	 DWORD PTR [esi], 0
  00006	75 2c		 jne	 SHORT $LN2@start
; File e:\infinia-library-3.0\com\include\comtypes.h

; 325  : 	sprintf(g_szSystemError, "ERROR! [%s:%d] %s\n", _szFunc, _nLine, pMsg);

  00008	68 00 00 00 00	 push	 OFFSET ??_C@_0BF@PBJEBOGJ@m_fpLoopProc?5is?5NULL?$AA@
  0000d	6a 2e		 push	 46			; 0000002eH
  0000f	68 00 00 00 00	 push	 OFFSET ??_C@_0BC@HFOBLFLD@CComThread?3?3start?$AA@
  00014	68 00 00 00 00	 push	 OFFSET ??_C@_0BD@KEHDJCKJ@ERROR?$CB?5?$FL?$CFs?3?$CFd?$FN?5?$CFs?6?$AA@
  00019	68 00 00 00 00	 push	 OFFSET ?g_szSystemError@@3PADA ; g_szSystemError
  0001e	e8 00 00 00 00	 call	 _sprintf

; 326  : 	printf(g_szSystemError);

  00023	68 00 00 00 00	 push	 OFFSET ?g_szSystemError@@3PADA ; g_szSystemError
  00028	e8 00 00 00 00	 call	 _printf
  0002d	83 c4 18	 add	 esp, 24			; 00000018H
; File e:\infinia-library-3.0\com\src\comcore.cpp

; 47   : 		return false;

  00030	32 c0		 xor	 al, al
  00032	5e		 pop	 esi

; 62   : }

  00033	c3		 ret	 0
$LN2@start:

; 48   : 	}
; 49   : 	if (0 > m_stInfo.nIdx) {

  00034	83 7e 18 00	 cmp	 DWORD PTR [esi+24], 0
  00038	7d 2c		 jge	 SHORT $LN3@start
; File e:\infinia-library-3.0\com\include\comtypes.h

; 325  : 	sprintf(g_szSystemError, "ERROR! [%s:%d] %s\n", _szFunc, _nLine, pMsg);

  0003a	68 00 00 00 00	 push	 OFFSET ??_C@_0BC@FMPLMNEG@0?5?$DO?5m_stInfo?4nIdx?$AA@
  0003f	6a 32		 push	 50			; 00000032H
  00041	68 00 00 00 00	 push	 OFFSET ??_C@_0BC@HFOBLFLD@CComThread?3?3start?$AA@
  00046	68 00 00 00 00	 push	 OFFSET ??_C@_0BD@KEHDJCKJ@ERROR?$CB?5?$FL?$CFs?3?$CFd?$FN?5?$CFs?6?$AA@
  0004b	68 00 00 00 00	 push	 OFFSET ?g_szSystemError@@3PADA ; g_szSystemError
  00050	e8 00 00 00 00	 call	 _sprintf

; 326  : 	printf(g_szSystemError);

  00055	68 00 00 00 00	 push	 OFFSET ?g_szSystemError@@3PADA ; g_szSystemError
  0005a	e8 00 00 00 00	 call	 _printf
  0005f	83 c4 18	 add	 esp, 24			; 00000018H
; File e:\infinia-library-3.0\com\src\comcore.cpp

; 51   : 		return false;

  00062	32 c0		 xor	 al, al
  00064	5e		 pop	 esi

; 62   : }

  00065	c3		 ret	 0
$LN3@start:

; 52   : 	}
; 53   : 
; 54   : 	if (m_stInfo.bActive) return true;

  00066	80 7e 1c 00	 cmp	 BYTE PTR [esi+28], 0
  0006a	75 4b		 jne	 SHORT $LN13@start

; 55   : 	// create Single Thread
; 56   : 	if (!THREAD_CREATE(&m_stInfo.hTHID, ProcThread, this)) {

  0006c	6a 00		 push	 0
  0006e	6a 00		 push	 0
  00070	56		 push	 esi
  00071	68 00 00 00 00	 push	 OFFSET ?ProcThread@CComThread@@SGKPAX@Z ; CComThread::ProcThread
  00076	6a 00		 push	 0
  00078	6a 00		 push	 0
  0007a	ff 15 00 00 00
	00		 call	 DWORD PTR __imp__CreateThread@24
  00080	89 46 04	 mov	 DWORD PTR [esi+4], eax
  00083	85 c0		 test	 eax, eax
  00085	75 2c		 jne	 SHORT $LN5@start
; File e:\infinia-library-3.0\com\include\comtypes.h

; 325  : 	sprintf(g_szSystemError, "ERROR! [%s:%d] %s\n", _szFunc, _nLine, pMsg);

  00087	68 00 00 00 00	 push	 OFFSET ??_C@_0BJ@FKABIJJM@THREAD_CREATE?5has?5Failed?$AA@
  0008c	6a 39		 push	 57			; 00000039H
  0008e	68 00 00 00 00	 push	 OFFSET ??_C@_0BC@HFOBLFLD@CComThread?3?3start?$AA@
  00093	68 00 00 00 00	 push	 OFFSET ??_C@_0BD@KEHDJCKJ@ERROR?$CB?5?$FL?$CFs?3?$CFd?$FN?5?$CFs?6?$AA@
  00098	68 00 00 00 00	 push	 OFFSET ?g_szSystemError@@3PADA ; g_szSystemError
  0009d	e8 00 00 00 00	 call	 _sprintf

; 326  : 	printf(g_szSystemError);

  000a2	68 00 00 00 00	 push	 OFFSET ?g_szSystemError@@3PADA ; g_szSystemError
  000a7	e8 00 00 00 00	 call	 _printf
  000ac	83 c4 18	 add	 esp, 24			; 00000018H
; File e:\infinia-library-3.0\com\src\comcore.cpp

; 58   : 		return false;

  000af	32 c0		 xor	 al, al
  000b1	5e		 pop	 esi

; 62   : }

  000b2	c3		 ret	 0
$LN5@start:

; 59   : 	}
; 60   : 	m_stInfo.bActive = true;

  000b3	c6 46 1c 01	 mov	 BYTE PTR [esi+28], 1
$LN13@start:

; 61   : 	return true;

  000b7	b0 01		 mov	 al, 1
  000b9	5e		 pop	 esi

; 62   : }

  000ba	c3		 ret	 0
?start@CComThread@@QAE_NXZ ENDP				; CComThread::start
_TEXT	ENDS
; Function compile flags: /Ogtp
; File e:\infinia-library-3.0\com\src\comcore.cpp
;	COMDAT ?init@CComThread@@QAE_NP6AXPAUSTThreadInfo@@@ZPAXH2@Z
_TEXT	SEGMENT
_fpProc$ = 8						; size = 4
_pClass$ = 12						; size = 4
_millisec$ = 16						; size = 4
_pObj$ = 20						; size = 4
?init@CComThread@@QAE_NP6AXPAUSTThreadInfo@@@ZPAXH2@Z PROC ; CComThread::init, COMDAT
; _this$ = ecx

; 34   : {

  00000	55		 push	 ebp
  00001	8b ec		 mov	 ebp, esp

; 35   : 	m_stInfo.pClass = pClass;

  00003	8b 45 0c	 mov	 eax, DWORD PTR _pClass$[ebp]

; 36   : 	m_stInfo.pObj = pObj;
; 37   : 	m_stInfo.millisecSleep = millisec;

  00006	8b 55 10	 mov	 edx, DWORD PTR _millisec$[ebp]
  00009	89 41 10	 mov	 DWORD PTR [ecx+16], eax
  0000c	8b 45 14	 mov	 eax, DWORD PTR _pObj$[ebp]
  0000f	89 41 14	 mov	 DWORD PTR [ecx+20], eax

; 38   : 	m_fpLoopProc = fpProc;

  00012	8b 45 08	 mov	 eax, DWORD PTR _fpProc$[ebp]
  00015	89 01		 mov	 DWORD PTR [ecx], eax

; 39   : 	m_nMillisecSleep = millisec;
; 40   : 	return true;

  00017	b0 01		 mov	 al, 1
  00019	89 51 20	 mov	 DWORD PTR [ecx+32], edx
  0001c	89 51 24	 mov	 DWORD PTR [ecx+36], edx

; 41   : }

  0001f	5d		 pop	 ebp
  00020	c2 10 00	 ret	 16			; 00000010H
?init@CComThread@@QAE_NP6AXPAUSTThreadInfo@@@ZPAXH2@Z ENDP ; CComThread::init
_TEXT	ENDS
; Function compile flags: /Ogtp
; File e:\infinia-library-3.0\com\src\comcore.cpp
; File e:\infinia-library-3.0\com\include\com\win32\win32_mtsync.h
; File e:\infinia-library-3.0\com\include\com\abstract_mtsync.h
; File e:\infinia-library-3.0\com\src\comcore.cpp
;	COMDAT ??1CComThread@@QAE@XZ
_TEXT	SEGMENT
??1CComThread@@QAE@XZ PROC				; CComThread::~CComThread, COMDAT
; _this$ = ecx

; 28   : {

  00000	56		 push	 esi
  00001	8b f1		 mov	 esi, ecx

; 66   : 	if (!m_stInfo.hTHID) return false;

  00003	8b 46 04	 mov	 eax, DWORD PTR [esi+4]
  00006	85 c0		 test	 eax, eax
  00008	74 0b		 je	 SHORT $LN3@CComThread

; 67   : 	int nStatus = 0; // for linux
; 68   : 	m_stInfo.bActive = false;
; 69   : 	THREAD_JOIN(m_stInfo.hTHID, (void **)&nStatus);

  0000a	50		 push	 eax
  0000b	c6 46 1c 00	 mov	 BYTE PTR [esi+28], 0
  0000f	ff 15 00 00 00
	00		 call	 DWORD PTR __imp__CloseHandle@4
$LN3@CComThread:
; File e:\infinia-library-3.0\com\include\com\win32\win32_mtsync.h

; 64   : 	  ~condition() { CloseHandle(m_event); }

  00015	ff 76 0c	 push	 DWORD PTR [esi+12]
  00018	c7 46 08 00 00
	00 00		 mov	 DWORD PTR [esi+8], OFFSET ??_7condition@win32@common@@6B@
  0001f	ff 15 00 00 00
	00		 call	 DWORD PTR __imp__CloseHandle@4
; File e:\infinia-library-3.0\com\include\com\abstract_mtsync.h

; 72   : 	virtual ~abstract_condition() {}

  00025	c7 46 08 00 00
	00 00		 mov	 DWORD PTR [esi+8], OFFSET ??_7abstract_condition@common@@6B@
  0002c	5e		 pop	 esi
; File e:\infinia-library-3.0\com\src\comcore.cpp

; 30   : }

  0002d	c3		 ret	 0
??1CComThread@@QAE@XZ ENDP				; CComThread::~CComThread
_TEXT	ENDS
; Function compile flags: /Ogtp
; File e:\infinia-library-3.0\com\src\comcore.cpp
; File e:\infinia-library-3.0\com\include\com\win32\win32_mtsync.h
; File e:\infinia-library-3.0\com\src\comcore.cpp
; File e:\infinia-library-3.0\com\include\com\win32\win32_mtsync.h
; File e:\infinia-library-3.0\com\src\comcore.cpp
; File e:\infinia-library-3.0\com\include\com\win32\win32_mtsync.h
; File e:\infinia-library-3.0\com\src\comcore.cpp
;	COMDAT ??0CComThread@@QAE@XZ
_TEXT	SEGMENT
_this$ = -4						; size = 4
??0CComThread@@QAE@XZ PROC				; CComThread::CComThread, COMDAT
; _this$ = ecx

; 15   : {

  00000	55		 push	 ebp
  00001	8b ec		 mov	 ebp, esp
  00003	51		 push	 ecx
  00004	56		 push	 esi
; File e:\infinia-library-3.0\com\include\com\win32\win32_mtsync.h

; 63   : 	  condition() { m_event = CreateEvent(NULL, TRUE, FALSE, NULL);}

  00005	6a 00		 push	 0
; File e:\infinia-library-3.0\com\src\comcore.cpp

; 15   : {

  00007	8b f1		 mov	 esi, ecx
; File e:\infinia-library-3.0\com\include\com\win32\win32_mtsync.h

; 63   : 	  condition() { m_event = CreateEvent(NULL, TRUE, FALSE, NULL);}

  00009	6a 00		 push	 0
  0000b	6a 01		 push	 1
  0000d	6a 00		 push	 0
; File e:\infinia-library-3.0\com\src\comcore.cpp

; 15   : {

  0000f	89 75 fc	 mov	 DWORD PTR _this$[ebp], esi
; File e:\infinia-library-3.0\com\include\com\win32\win32_mtsync.h

; 63   : 	  condition() { m_event = CreateEvent(NULL, TRUE, FALSE, NULL);}

  00012	c7 46 08 00 00
	00 00		 mov	 DWORD PTR [esi+8], OFFSET ??_7condition@win32@common@@6B@
  00019	ff 15 00 00 00
	00		 call	 DWORD PTR __imp__CreateEventA@16
  0001f	89 46 0c	 mov	 DWORD PTR [esi+12], eax
; File e:\infinia-library-3.0\com\src\comcore.cpp

; 25   : }

  00022	8b c6		 mov	 eax, esi
  00024	c6 46 1c 00	 mov	 BYTE PTR [esi+28], 0
  00028	c7 46 04 00 00
	00 00		 mov	 DWORD PTR [esi+4], 0
  0002f	c7 46 18 ff ff
	ff ff		 mov	 DWORD PTR [esi+24], -1
  00036	c7 46 10 00 00
	00 00		 mov	 DWORD PTR [esi+16], 0
  0003d	c7 46 20 ff ff
	ff ff		 mov	 DWORD PTR [esi+32], -1
  00044	c7 46 24 ff ff
	ff ff		 mov	 DWORD PTR [esi+36], -1
  0004b	c7 46 14 00 00
	00 00		 mov	 DWORD PTR [esi+20], 0
  00052	c7 06 00 00 00
	00		 mov	 DWORD PTR [esi], 0
  00058	5e		 pop	 esi
  00059	8b e5		 mov	 esp, ebp
  0005b	5d		 pop	 ebp
  0005c	c3		 ret	 0
??0CComThread@@QAE@XZ ENDP				; CComThread::CComThread
_TEXT	ENDS
; Function compile flags: /Ogtp
; File e:\infinia-library-3.0\com\include\com\win32\win32_mtsync.h
; File e:\infinia-library-3.0\com\include\com\abstract_mtsync.h
;	COMDAT ??1STThreadInfo@@QAE@XZ
_TEXT	SEGMENT
??1STThreadInfo@@QAE@XZ PROC				; STThreadInfo::~STThreadInfo, COMDAT
; _this$ = ecx
  00000	56		 push	 esi
  00001	8b f1		 mov	 esi, ecx
; File e:\infinia-library-3.0\com\include\com\win32\win32_mtsync.h

; 64   : 	  ~condition() { CloseHandle(m_event); }

  00003	ff 76 08	 push	 DWORD PTR [esi+8]
  00006	c7 46 04 00 00
	00 00		 mov	 DWORD PTR [esi+4], OFFSET ??_7condition@win32@common@@6B@
  0000d	ff 15 00 00 00
	00		 call	 DWORD PTR __imp__CloseHandle@4
; File e:\infinia-library-3.0\com\include\com\abstract_mtsync.h

; 72   : 	virtual ~abstract_condition() {}

  00013	c7 46 04 00 00
	00 00		 mov	 DWORD PTR [esi+4], OFFSET ??_7abstract_condition@common@@6B@
  0001a	5e		 pop	 esi
  0001b	c3		 ret	 0
??1STThreadInfo@@QAE@XZ ENDP				; STThreadInfo::~STThreadInfo
_TEXT	ENDS
; Function compile flags: /Ogtp
; File e:\infinia-library-3.0\com\include\com\win32\win32_mtsync.h
;	COMDAT ??0STThreadInfo@@QAE@XZ
_TEXT	SEGMENT
_this$ = -4						; size = 4
??0STThreadInfo@@QAE@XZ PROC				; STThreadInfo::STThreadInfo, COMDAT
; _this$ = ecx
  00000	55		 push	 ebp
  00001	8b ec		 mov	 ebp, esp
  00003	51		 push	 ecx
  00004	56		 push	 esi

; 63   : 	  condition() { m_event = CreateEvent(NULL, TRUE, FALSE, NULL);}

  00005	6a 00		 push	 0
  00007	8b f1		 mov	 esi, ecx
  00009	6a 00		 push	 0
  0000b	6a 01		 push	 1
  0000d	6a 00		 push	 0
  0000f	89 75 fc	 mov	 DWORD PTR _this$[ebp], esi
  00012	c7 46 04 00 00
	00 00		 mov	 DWORD PTR [esi+4], OFFSET ??_7condition@win32@common@@6B@
  00019	ff 15 00 00 00
	00		 call	 DWORD PTR __imp__CreateEventA@16
  0001f	89 46 08	 mov	 DWORD PTR [esi+8], eax
  00022	8b c6		 mov	 eax, esi
  00024	5e		 pop	 esi
  00025	8b e5		 mov	 esp, ebp
  00027	5d		 pop	 ebp
  00028	c3		 ret	 0
??0STThreadInfo@@QAE@XZ ENDP				; STThreadInfo::STThreadInfo
_TEXT	ENDS
; Function compile flags: /Ogtp
;	COMDAT ??_ECLogger@@QAEPAXI@Z
_TEXT	SEGMENT
__$EHRec$ = -12						; size = 12
___flags$ = 8						; size = 4
??_ECLogger@@QAEPAXI@Z PROC				; CLogger::`vector deleting destructor', COMDAT
; _this$ = ecx
  00000	55		 push	 ebp
  00001	8b ec		 mov	 ebp, esp
  00003	6a ff		 push	 -1
  00005	68 00 00 00 00	 push	 __ehhandler$??_ECLogger@@QAEPAXI@Z
  0000a	64 a1 00 00 00
	00		 mov	 eax, DWORD PTR fs:0
  00010	50		 push	 eax
  00011	53		 push	 ebx
  00012	56		 push	 esi
  00013	57		 push	 edi
  00014	a1 00 00 00 00	 mov	 eax, DWORD PTR ___security_cookie
  00019	33 c5		 xor	 eax, ebp
  0001b	50		 push	 eax
  0001c	8d 45 f4	 lea	 eax, DWORD PTR __$EHRec$[ebp]
  0001f	64 a3 00 00 00
	00		 mov	 DWORD PTR fs:0, eax
  00025	8b f1		 mov	 esi, ecx
  00027	8b 5d 08	 mov	 ebx, DWORD PTR ___flags$[ebp]
  0002a	f6 c3 02	 test	 bl, 2
  0002d	74 44		 je	 SHORT $LN2@vector
  0002f	68 00 00 00 00	 push	 OFFSET ??1CLogger@@QAE@XZ ; CLogger::~CLogger
  00034	ff 76 fc	 push	 DWORD PTR [esi-4]
  00037	8d 7e fc	 lea	 edi, DWORD PTR [esi-4]
  0003a	68 d8 00 00 00	 push	 216			; 000000d8H
  0003f	56		 push	 esi
  00040	e8 00 00 00 00	 call	 ??_M@YGXPAXIIP6EX0@Z@Z
  00045	f6 c3 01	 test	 bl, 1
  00048	74 13		 je	 SHORT $LN3@vector
  0004a	69 0f d8 00 00
	00		 imul	 ecx, DWORD PTR [edi], 216
  00050	83 c1 04	 add	 ecx, 4
  00053	51		 push	 ecx
  00054	57		 push	 edi
  00055	e8 00 00 00 00	 call	 ??_V@YAXPAXI@Z		; operator delete[]
  0005a	83 c4 08	 add	 esp, 8
$LN3@vector:
  0005d	8b c7		 mov	 eax, edi
  0005f	8b 4d f4	 mov	 ecx, DWORD PTR __$EHRec$[ebp]
  00062	64 89 0d 00 00
	00 00		 mov	 DWORD PTR fs:0, ecx
  00069	59		 pop	 ecx
  0006a	5f		 pop	 edi
  0006b	5e		 pop	 esi
  0006c	5b		 pop	 ebx
  0006d	8b e5		 mov	 esp, ebp
  0006f	5d		 pop	 ebp
  00070	c2 04 00	 ret	 4
$LN2@vector:
  00073	e8 00 00 00 00	 call	 ??1CLogger@@QAE@XZ	; CLogger::~CLogger
  00078	f6 c3 01	 test	 bl, 1
  0007b	74 0e		 je	 SHORT $LN4@vector
  0007d	68 d8 00 00 00	 push	 216			; 000000d8H
  00082	56		 push	 esi
  00083	e8 00 00 00 00	 call	 ??3@YAXPAXI@Z		; operator delete
  00088	83 c4 08	 add	 esp, 8
$LN4@vector:
  0008b	8b c6		 mov	 eax, esi
  0008d	8b 4d f4	 mov	 ecx, DWORD PTR __$EHRec$[ebp]
  00090	64 89 0d 00 00
	00 00		 mov	 DWORD PTR fs:0, ecx
  00097	59		 pop	 ecx
  00098	5f		 pop	 edi
  00099	5e		 pop	 esi
  0009a	5b		 pop	 ebx
  0009b	8b e5		 mov	 esp, ebp
  0009d	5d		 pop	 ebp
  0009e	c2 04 00	 ret	 4
_TEXT	ENDS
;	COMDAT text$x
text$x	SEGMENT
__ehhandler$??_ECLogger@@QAEPAXI@Z:
  00000	8b 54 24 08	 mov	 edx, DWORD PTR [esp+8]
  00004	8d 42 0c	 lea	 eax, DWORD PTR [edx+12]
  00007	8b 4a f0	 mov	 ecx, DWORD PTR [edx-16]
  0000a	33 c8		 xor	 ecx, eax
  0000c	e8 00 00 00 00	 call	 @__security_check_cookie@4
  00011	b8 00 00 00 00	 mov	 eax, OFFSET __ehfuncinfo$??_ECLogger@@QAEPAXI@Z
  00016	e9 00 00 00 00	 jmp	 ___CxxFrameHandler3
text$x	ENDS
??_ECLogger@@QAEPAXI@Z ENDP				; CLogger::`vector deleting destructor'
; Function compile flags: /Ogtp
;	COMDAT ??_GCLogger@@QAEPAXI@Z
_TEXT	SEGMENT
___flags$ = 8						; size = 4
??_GCLogger@@QAEPAXI@Z PROC				; CLogger::`scalar deleting destructor', COMDAT
; _this$ = ecx
  00000	55		 push	 ebp
  00001	8b ec		 mov	 ebp, esp
  00003	56		 push	 esi
  00004	8b f1		 mov	 esi, ecx
  00006	e8 00 00 00 00	 call	 ??1CLogger@@QAE@XZ	; CLogger::~CLogger
  0000b	f6 45 08 01	 test	 BYTE PTR ___flags$[ebp], 1
  0000f	74 0e		 je	 SHORT $LN4@scalar
  00011	68 d8 00 00 00	 push	 216			; 000000d8H
  00016	56		 push	 esi
  00017	e8 00 00 00 00	 call	 ??3@YAXPAXI@Z		; operator delete
  0001c	83 c4 08	 add	 esp, 8
$LN4@scalar:
  0001f	8b c6		 mov	 eax, esi
  00021	5e		 pop	 esi
  00022	5d		 pop	 ebp
  00023	c2 04 00	 ret	 4
??_GCLogger@@QAEPAXI@Z ENDP				; CLogger::`scalar deleting destructor'
_TEXT	ENDS
; Function compile flags: /Ogtp
; File e:\infinia-library-3.0\com\include\comlogger.h
;	COMDAT ?setCondition@CLogger@@QAEXPAVcondition@win32@common@@@Z
_TEXT	SEGMENT
_p$ = 8							; size = 4
?setCondition@CLogger@@QAEXPAVcondition@win32@common@@@Z PROC ; CLogger::setCondition, COMDAT
; _this$ = ecx

; 206  : 	inline void setCondition(THREAD_COND *p) { m_pCondition = p; }

  00000	55		 push	 ebp
  00001	8b ec		 mov	 ebp, esp
  00003	8b 45 08	 mov	 eax, DWORD PTR _p$[ebp]
  00006	89 41 44	 mov	 DWORD PTR [ecx+68], eax
  00009	5d		 pop	 ebp
  0000a	c2 04 00	 ret	 4
?setCondition@CLogger@@QAEXPAVcondition@win32@common@@@Z ENDP ; CLogger::setCondition
_TEXT	ENDS
; Function compile flags: /Ogtp
; File e:\infinia-library-3.0\com\include\comlogger.h
;	COMDAT ?getLogName@CLogger@@QAEPADXZ
_TEXT	SEGMENT
?getLogName@CLogger@@QAEPADXZ PROC			; CLogger::getLogName, COMDAT
; _this$ = ecx

; 203  : 	inline TCHAR *getLogName() { return m_pLogName;}

  00000	8b 41 64	 mov	 eax, DWORD PTR [ecx+100]
  00003	c3		 ret	 0
?getLogName@CLogger@@QAEPADXZ ENDP			; CLogger::getLogName
_TEXT	ENDS
; Function compile flags: /Ogtp
; File e:\infinia-library-3.0\com\include\comlogger.h
;	COMDAT ?pop@CLogger@@QAEPADXZ
_TEXT	SEGMENT
?pop@CLogger@@QAEPADXZ PROC				; CLogger::pop, COMDAT
; _this$ = ecx

; 198  : 	inline TCHAR * pop() { return (TCHAR *)m_sLogQueue.pop(); } // write   STLogger : 

  00000	e9 00 00 00 00	 jmp	 ?pop@CQueueS@@QAEPAXXZ	; CQueueS::pop
?pop@CLogger@@QAEPADXZ ENDP				; CLogger::pop
_TEXT	ENDS
; Function compile flags: /Ogtp
; File e:\infinia-library-3.0\com\include\comlogger.h
;	COMDAT ?isLogFlag@CLogger@@QAE_NW4E_LOG_FLAG@@@Z
_TEXT	SEGMENT
_nFlag$ = 8						; size = 4
?isLogFlag@CLogger@@QAE_NW4E_LOG_FLAG@@@Z PROC		; CLogger::isLogFlag, COMDAT
; _this$ = ecx

; 185  : 	inline bool isLogFlag(E_LOG_FLAG nFlag) { return (m_nLogFlag & nFlag)?true:false; }

  00000	55		 push	 ebp
  00001	8b ec		 mov	 ebp, esp
  00003	8b 45 08	 mov	 eax, DWORD PTR _nFlag$[ebp]
  00006	85 41 74	 test	 DWORD PTR [ecx+116], eax
  00009	0f 95 c0	 setne	 al
  0000c	5d		 pop	 ebp
  0000d	c2 04 00	 ret	 4
?isLogFlag@CLogger@@QAE_NW4E_LOG_FLAG@@@Z ENDP		; CLogger::isLogFlag
_TEXT	ENDS
; Function compile flags: /Ogtp
; File e:\infinia-library-3.0\com\include\comlogger.h
;	COMDAT ?clearLogFlag@CLogger@@QAEXW4E_LOG_FLAG@@@Z
_TEXT	SEGMENT
_nFlag$ = 8						; size = 4
?clearLogFlag@CLogger@@QAEXW4E_LOG_FLAG@@@Z PROC	; CLogger::clearLogFlag, COMDAT
; _this$ = ecx

; 184  : 	inline void clearLogFlag(E_LOG_FLAG nFlag) { m_nLogFlag &= ~nFlag; }

  00000	55		 push	 ebp
  00001	8b ec		 mov	 ebp, esp
  00003	8b 45 08	 mov	 eax, DWORD PTR _nFlag$[ebp]
  00006	f7 d0		 not	 eax
  00008	21 41 74	 and	 DWORD PTR [ecx+116], eax
  0000b	5d		 pop	 ebp
  0000c	c2 04 00	 ret	 4
?clearLogFlag@CLogger@@QAEXW4E_LOG_FLAG@@@Z ENDP	; CLogger::clearLogFlag
_TEXT	ENDS
; Function compile flags: /Ogtp
; File e:\infinia-library-3.0\com\include\comlogger.h
;	COMDAT ?setLogFlag@CLogger@@QAEXW4E_LOG_FLAG@@@Z
_TEXT	SEGMENT
_nFlag$ = 8						; size = 4
?setLogFlag@CLogger@@QAEXW4E_LOG_FLAG@@@Z PROC		; CLogger::setLogFlag, COMDAT
; _this$ = ecx

; 183  : 	inline void setLogFlag(E_LOG_FLAG nFlag) { m_nLogFlag |= nFlag; }

  00000	55		 push	 ebp
  00001	8b ec		 mov	 ebp, esp
  00003	8b 45 08	 mov	 eax, DWORD PTR _nFlag$[ebp]
  00006	09 41 74	 or	 DWORD PTR [ecx+116], eax
  00009	5d		 pop	 ebp
  0000a	c2 04 00	 ret	 4
?setLogFlag@CLogger@@QAEXW4E_LOG_FLAG@@@Z ENDP		; CLogger::setLogFlag
_TEXT	ENDS
; Function compile flags: /Ogtp
; File e:\infinia-library-3.0\com\include\comlogger.h
;	COMDAT ?getSTLNo@CLogger@@QAEHXZ
_TEXT	SEGMENT
?getSTLNo@CLogger@@QAEHXZ PROC				; CLogger::getSTLNo, COMDAT
; _this$ = ecx

; 182  : 	inline int getSTLNo() {	return m_nStlNo; }

  00000	8b 41 7c	 mov	 eax, DWORD PTR [ecx+124]
  00003	c3		 ret	 0
?getSTLNo@CLogger@@QAEHXZ ENDP				; CLogger::getSTLNo
_TEXT	ENDS
; Function compile flags: /Ogtp
; File e:\infinia-library-3.0\com\include\comlogger.h
;	COMDAT ?addLogSize@CLogger@@QAEXH@Z
_TEXT	SEGMENT
_nLen$ = 8						; size = 4
?addLogSize@CLogger@@QAEXH@Z PROC			; CLogger::addLogSize, COMDAT
; _this$ = ecx

; 180  : 	inline void addLogSize(int nLen) {m_nLogSize += nLen;}

  00000	55		 push	 ebp
  00001	8b ec		 mov	 ebp, esp
  00003	8b 45 08	 mov	 eax, DWORD PTR _nLen$[ebp]
  00006	01 81 84 00 00
	00		 add	 DWORD PTR [ecx+132], eax
  0000c	5d		 pop	 ebp
  0000d	c2 04 00	 ret	 4
?addLogSize@CLogger@@QAEXH@Z ENDP			; CLogger::addLogSize
_TEXT	ENDS
; Function compile flags: /Ogtp
; File e:\infinia-library-3.0\com\include\commemmanager.h
; File e:\infinia-library-3.0\com\include\combufpool.h
; File e:\infinia-library-3.0\com\include\commemmanager.h
; File e:\infinia-library-3.0\com\include\combufpool.h
; File e:\infinia-library-3.0\com\include\commemmanager.h
;	COMDAT ?delBuf@CMemManager@@QAEXPADH@Z
_TEXT	SEGMENT
_$S1$1 = -8						; size = 8
_pBuf$ = 8						; size = 4
_nSize$ = 12						; size = 4
?delBuf@CMemManager@@QAEXPADH@Z PROC			; CMemManager::delBuf, COMDAT
; _this$ = ecx

; 38   : 	inline void delBuf(char *pBuf, int nSize) { int nIdx = getIndex(nSize); delBufByIndex(pBuf, nIdx); }

  00000	55		 push	 ebp
  00001	8b ec		 mov	 ebp, esp
  00003	83 ec 08	 sub	 esp, 8
; File e:\infinia-library-3.0\com\include\combufpool.h

; 51   : inline int getIndex(int s) { int m; union { double x; int b[2]; }; x = s; m = (b[1] >> 20) - 1023; return m + ((s&(s - (1 << m))) ? 1 : 0); }

  00006	8b 55 0c	 mov	 edx, DWORD PTR _nSize$[ebp]
  00009	b8 01 00 00 00	 mov	 eax, 1
  0000e	56		 push	 esi
  0000f	57		 push	 edi
; File e:\infinia-library-3.0\com\include\commemmanager.h

; 38   : 	inline void delBuf(char *pBuf, int nSize) { int nIdx = getIndex(nSize); delBufByIndex(pBuf, nIdx); }

  00010	8b f9		 mov	 edi, ecx
  00012	66 0f 6e c2	 movd	 xmm0, edx
; File e:\infinia-library-3.0\com\include\combufpool.h

; 51   : inline int getIndex(int s) { int m; union { double x; int b[2]; }; x = s; m = (b[1] >> 20) - 1023; return m + ((s&(s - (1 << m))) ? 1 : 0); }

  00016	f3 0f e6 c0	 cvtdq2pd xmm0, xmm0
  0001a	f2 0f 11 45 f8	 movsd	 QWORD PTR _$S1$1[ebp], xmm0
  0001f	8b 75 fc	 mov	 esi, DWORD PTR _$S1$1[ebp+4]
  00022	c1 fe 14	 sar	 esi, 20			; 00000014H
  00025	81 ee ff 03 00
	00		 sub	 esi, 1023		; 000003ffH
  0002b	8b ce		 mov	 ecx, esi
  0002d	d3 e0		 shl	 eax, cl
  0002f	8b ca		 mov	 ecx, edx
  00031	2b c8		 sub	 ecx, eax
  00033	23 ca		 and	 ecx, edx
  00035	f7 d9		 neg	 ecx
  00037	1b c9		 sbb	 ecx, ecx
  00039	f7 d9		 neg	 ecx
  0003b	03 ce		 add	 ecx, esi
; File e:\infinia-library-3.0\com\include\commemmanager.h

; 38   : 	inline void delBuf(char *pBuf, int nSize) { int nIdx = getIndex(nSize); delBufByIndex(pBuf, nIdx); }

  0003d	51		 push	 ecx
  0003e	ff 75 08	 push	 DWORD PTR _pBuf$[ebp]
  00041	8b cf		 mov	 ecx, edi
  00043	e8 00 00 00 00	 call	 ?delBufByIndex@CMemManager@@QAEXPADH@Z ; CMemManager::delBufByIndex
  00048	5f		 pop	 edi
  00049	5e		 pop	 esi
  0004a	8b e5		 mov	 esp, ebp
  0004c	5d		 pop	 ebp
  0004d	c2 08 00	 ret	 8
?delBuf@CMemManager@@QAEXPADH@Z ENDP			; CMemManager::delBuf
_TEXT	ENDS
; Function compile flags: /Ogtp
; File e:\infinia-library-3.0\com\include\commemmanager.h
; File e:\infinia-library-3.0\com\include\combufpool.h
; File e:\infinia-library-3.0\com\include\commemmanager.h
; File e:\infinia-library-3.0\com\include\combufpool.h
; File e:\infinia-library-3.0\com\include\commemmanager.h
; File e:\infinia-library-3.0\com\include\combufpool.h
; File e:\infinia-library-3.0\com\include\commemmanager.h
;	COMDAT ?newBuf@CMemManager@@QAEPADH@Z
_TEXT	SEGMENT
_$S1$1 = -8						; size = 8
_nSize$ = 8						; size = 4
?newBuf@CMemManager@@QAEPADH@Z PROC			; CMemManager::newBuf, COMDAT
; _this$ = ecx

; 34   : 	inline char *newBuf(int nSize) { int nIdx = getIndex(nSize);  return __newBuf(nIdx, nSize); }

  00000	55		 push	 ebp
  00001	8b ec		 mov	 ebp, esp
  00003	83 ec 08	 sub	 esp, 8
; File e:\infinia-library-3.0\com\include\combufpool.h

; 51   : inline int getIndex(int s) { int m; union { double x; int b[2]; }; x = s; m = (b[1] >> 20) - 1023; return m + ((s&(s - (1 << m))) ? 1 : 0); }

  00006	8b 55 08	 mov	 edx, DWORD PTR _nSize$[ebp]
  00009	b8 01 00 00 00	 mov	 eax, 1
  0000e	56		 push	 esi
  0000f	57		 push	 edi
; File e:\infinia-library-3.0\com\include\commemmanager.h

; 34   : 	inline char *newBuf(int nSize) { int nIdx = getIndex(nSize);  return __newBuf(nIdx, nSize); }

  00010	8b f9		 mov	 edi, ecx
  00012	66 0f 6e c2	 movd	 xmm0, edx
; File e:\infinia-library-3.0\com\include\combufpool.h

; 51   : inline int getIndex(int s) { int m; union { double x; int b[2]; }; x = s; m = (b[1] >> 20) - 1023; return m + ((s&(s - (1 << m))) ? 1 : 0); }

  00016	f3 0f e6 c0	 cvtdq2pd xmm0, xmm0
; File e:\infinia-library-3.0\com\include\commemmanager.h

; 34   : 	inline char *newBuf(int nSize) { int nIdx = getIndex(nSize);  return __newBuf(nIdx, nSize); }

  0001a	52		 push	 edx
; File e:\infinia-library-3.0\com\include\combufpool.h

; 51   : inline int getIndex(int s) { int m; union { double x; int b[2]; }; x = s; m = (b[1] >> 20) - 1023; return m + ((s&(s - (1 << m))) ? 1 : 0); }

  0001b	f2 0f 11 45 f8	 movsd	 QWORD PTR _$S1$1[ebp], xmm0
  00020	8b 75 fc	 mov	 esi, DWORD PTR _$S1$1[ebp+4]
  00023	c1 fe 14	 sar	 esi, 20			; 00000014H
  00026	81 ee ff 03 00
	00		 sub	 esi, 1023		; 000003ffH
  0002c	8b ce		 mov	 ecx, esi
  0002e	d3 e0		 shl	 eax, cl
  00030	8b ca		 mov	 ecx, edx
  00032	2b c8		 sub	 ecx, eax
  00034	23 ca		 and	 ecx, edx
  00036	f7 d9		 neg	 ecx
  00038	1b c9		 sbb	 ecx, ecx
  0003a	f7 d9		 neg	 ecx
  0003c	03 ce		 add	 ecx, esi
; File e:\infinia-library-3.0\com\include\commemmanager.h

; 34   : 	inline char *newBuf(int nSize) { int nIdx = getIndex(nSize);  return __newBuf(nIdx, nSize); }

  0003e	51		 push	 ecx
  0003f	8b cf		 mov	 ecx, edi
  00041	e8 00 00 00 00	 call	 ?__newBuf@CMemManager@@AAEPADHI@Z ; CMemManager::__newBuf
  00046	5f		 pop	 edi
  00047	5e		 pop	 esi
  00048	8b e5		 mov	 esp, ebp
  0004a	5d		 pop	 ebp
  0004b	c2 04 00	 ret	 4
?newBuf@CMemManager@@QAEPADH@Z ENDP			; CMemManager::newBuf
_TEXT	ENDS
; Function compile flags: /Ogtp
; File e:\infinia-library-3.0\com\include\combufpool.h
;	COMDAT ?getIndex@@YAHH@Z
_TEXT	SEGMENT
_$S1$ = -8						; size = 8
_s$ = 8							; size = 4
?getIndex@@YAHH@Z PROC					; getIndex, COMDAT

; 51   : inline int getIndex(int s) { int m; union { double x; int b[2]; }; x = s; m = (b[1] >> 20) - 1023; return m + ((s&(s - (1 << m))) ? 1 : 0); }

  00000	55		 push	 ebp
  00001	8b ec		 mov	 ebp, esp
  00003	83 ec 08	 sub	 esp, 8
  00006	56		 push	 esi
  00007	8b 75 08	 mov	 esi, DWORD PTR _s$[ebp]
  0000a	ba 01 00 00 00	 mov	 edx, 1
  0000f	8b c6		 mov	 eax, esi
  00011	66 0f 6e c6	 movd	 xmm0, esi
  00015	f3 0f e6 c0	 cvtdq2pd xmm0, xmm0
  00019	f2 0f 11 45 f8	 movsd	 QWORD PTR _$S1$[ebp], xmm0
  0001e	8b 4d fc	 mov	 ecx, DWORD PTR _$S1$[ebp+4]
  00021	c1 f9 14	 sar	 ecx, 20			; 00000014H
  00024	81 e9 ff 03 00
	00		 sub	 ecx, 1023		; 000003ffH
  0002a	d3 e2		 shl	 edx, cl
  0002c	2b c2		 sub	 eax, edx
  0002e	23 c6		 and	 eax, esi
  00030	f7 d8		 neg	 eax
  00032	5e		 pop	 esi
  00033	1b c0		 sbb	 eax, eax
  00035	f7 d8		 neg	 eax
  00037	03 c1		 add	 eax, ecx
  00039	8b e5		 mov	 esp, ebp
  0003b	5d		 pop	 ebp
  0003c	c3		 ret	 0
?getIndex@@YAHH@Z ENDP					; getIndex
_TEXT	ENDS
; Function compile flags: /Ogtp
; File e:\infinia-library-3.0\com\include\comdatetime.h
;	COMDAT ?Sec@CDateTime@@QAEHXZ
_TEXT	SEGMENT
?Sec@CDateTime@@QAEHXZ PROC				; CDateTime::Sec, COMDAT
; _this$ = ecx

; 222  : 	inline int	Sec()		{ return m_tm.tm_sec; }

  00000	8b 01		 mov	 eax, DWORD PTR [ecx]
  00002	c3		 ret	 0
?Sec@CDateTime@@QAEHXZ ENDP				; CDateTime::Sec
_TEXT	ENDS
; Function compile flags: /Ogtp
; File e:\infinia-library-3.0\com\include\comdatetime.h
;	COMDAT ?Minute@CDateTime@@QAEHXZ
_TEXT	SEGMENT
?Minute@CDateTime@@QAEHXZ PROC				; CDateTime::Minute, COMDAT
; _this$ = ecx

; 221  : 	inline int	Minute()	{ return m_tm.tm_min; }

  00000	8b 41 04	 mov	 eax, DWORD PTR [ecx+4]
  00003	c3		 ret	 0
?Minute@CDateTime@@QAEHXZ ENDP				; CDateTime::Minute
_TEXT	ENDS
; Function compile flags: /Ogtp
; File e:\infinia-library-3.0\com\include\comdatetime.h
;	COMDAT ?Hour@CDateTime@@QAEHXZ
_TEXT	SEGMENT
?Hour@CDateTime@@QAEHXZ PROC				; CDateTime::Hour, COMDAT
; _this$ = ecx

; 220  : 	inline int	Hour()		{ return m_tm.tm_hour; }

  00000	8b 41 08	 mov	 eax, DWORD PTR [ecx+8]
  00003	c3		 ret	 0
?Hour@CDateTime@@QAEHXZ ENDP				; CDateTime::Hour
_TEXT	ENDS
; Function compile flags: /Ogtp
; File e:\infinia-library-3.0\com\include\comdatetime.h
;	COMDAT ?Mday@CDateTime@@QAEHXZ
_TEXT	SEGMENT
?Mday@CDateTime@@QAEHXZ PROC				; CDateTime::Mday, COMDAT
; _this$ = ecx

; 218  : 	inline int	Mday()		{ return m_tm.tm_mday; }

  00000	8b 41 0c	 mov	 eax, DWORD PTR [ecx+12]
  00003	c3		 ret	 0
?Mday@CDateTime@@QAEHXZ ENDP				; CDateTime::Mday
_TEXT	ENDS
; Function compile flags: /Ogtp
; File e:\infinia-library-3.0\com\include\comdatetime.h
;	COMDAT ?Month@CDateTime@@QAEHXZ
_TEXT	SEGMENT
?Month@CDateTime@@QAEHXZ PROC				; CDateTime::Month, COMDAT
; _this$ = ecx

; 217  : 	inline int	Month()		{ return m_tm.tm_mon; }

  00000	8b 41 10	 mov	 eax, DWORD PTR [ecx+16]
  00003	c3		 ret	 0
?Month@CDateTime@@QAEHXZ ENDP				; CDateTime::Month
_TEXT	ENDS
; Function compile flags: /Ogtp
; File e:\infinia-library-3.0\com\include\comdatetime.h
;	COMDAT ?Year@CDateTime@@QAEHXZ
_TEXT	SEGMENT
?Year@CDateTime@@QAEHXZ PROC				; CDateTime::Year, COMDAT
; _this$ = ecx

; 216  : 	inline int	Year()		{ return m_tm.tm_year; }

  00000	8b 41 14	 mov	 eax, DWORD PTR [ecx+20]
  00003	c3		 ret	 0
?Year@CDateTime@@QAEHXZ ENDP				; CDateTime::Year
_TEXT	ENDS
; Function compile flags: /Ogtp
;	COMDAT ??_GCQueueS@@QAEPAXI@Z
_TEXT	SEGMENT
___flags$ = 8						; size = 4
??_GCQueueS@@QAEPAXI@Z PROC				; CQueueS::`scalar deleting destructor', COMDAT
; _this$ = ecx
  00000	55		 push	 ebp
  00001	8b ec		 mov	 ebp, esp
  00003	56		 push	 esi
  00004	8b f1		 mov	 esi, ecx
  00006	e8 00 00 00 00	 call	 ??1CQueueS@@QAE@XZ	; CQueueS::~CQueueS
  0000b	f6 45 08 01	 test	 BYTE PTR ___flags$[ebp], 1
  0000f	74 0b		 je	 SHORT $LN4@scalar
  00011	6a 40		 push	 64			; 00000040H
  00013	56		 push	 esi
  00014	e8 00 00 00 00	 call	 ??3@YAXPAXI@Z		; operator delete
  00019	83 c4 08	 add	 esp, 8
$LN4@scalar:
  0001c	8b c6		 mov	 eax, esi
  0001e	5e		 pop	 esi
  0001f	5d		 pop	 ebp
  00020	c2 04 00	 ret	 4
??_GCQueueS@@QAEPAXI@Z ENDP				; CQueueS::`scalar deleting destructor'
_TEXT	ENDS
; Function compile flags: /Ogtp
;	COMDAT ?__autoclassinit2@CQueueS@@QAEXI@Z
_TEXT	SEGMENT
_classSize$ = 8						; size = 4
?__autoclassinit2@CQueueS@@QAEXI@Z PROC			; CQueueS::__autoclassinit2, COMDAT
; _this$ = ecx
  00000	55		 push	 ebp
  00001	8b ec		 mov	 ebp, esp
  00003	ff 75 08	 push	 DWORD PTR _classSize$[ebp]
  00006	6a 00		 push	 0
  00008	51		 push	 ecx
  00009	e8 00 00 00 00	 call	 _memset
  0000e	83 c4 0c	 add	 esp, 12			; 0000000cH
  00011	5d		 pop	 ebp
  00012	c2 04 00	 ret	 4
?__autoclassinit2@CQueueS@@QAEXI@Z ENDP			; CQueueS::__autoclassinit2
_TEXT	ENDS
; Function compile flags: /Ogtp
; File e:\infinia-library-3.0\com\include\comtypes.h
;	COMDAT ?comGlobalErrorProc@@YAXPADPBDH@Z
_TEXT	SEGMENT
_pMsg$ = 8						; size = 4
__szFunc$ = 12						; size = 4
__nLine$ = 16						; size = 4
?comGlobalErrorProc@@YAXPADPBDH@Z PROC			; comGlobalErrorProc, COMDAT

; 324  : inline void comGlobalErrorProc(char *pMsg, const char *_szFunc, const int _nLine) {

  00000	55		 push	 ebp
  00001	8b ec		 mov	 ebp, esp

; 325  : 	sprintf(g_szSystemError, "ERROR! [%s:%d] %s\n", _szFunc, _nLine, pMsg);

  00003	ff 75 08	 push	 DWORD PTR _pMsg$[ebp]
  00006	ff 75 10	 push	 DWORD PTR __nLine$[ebp]
  00009	ff 75 0c	 push	 DWORD PTR __szFunc$[ebp]
  0000c	68 00 00 00 00	 push	 OFFSET ??_C@_0BD@KEHDJCKJ@ERROR?$CB?5?$FL?$CFs?3?$CFd?$FN?5?$CFs?6?$AA@
  00011	68 00 00 00 00	 push	 OFFSET ?g_szSystemError@@3PADA ; g_szSystemError
  00016	e8 00 00 00 00	 call	 _sprintf

; 326  : 	printf(g_szSystemError);

  0001b	68 00 00 00 00	 push	 OFFSET ?g_szSystemError@@3PADA ; g_szSystemError
  00020	e8 00 00 00 00	 call	 _printf
  00025	83 c4 18	 add	 esp, 24			; 00000018H

; 327  : }

  00028	5d		 pop	 ebp
  00029	c3		 ret	 0
?comGlobalErrorProc@@YAXPADPBDH@Z ENDP			; comGlobalErrorProc
_TEXT	ENDS
; Function compile flags: /Ogtp
; File e:\infinia-library-3.0\com\include\comtypes.h
;	COMDAT ?ISINCLUDE@@YA_NHH@Z
_TEXT	SEGMENT
_i$ = 8							; size = 4
_max$ = 12						; size = 4
?ISINCLUDE@@YA_NHH@Z PROC				; ISINCLUDE, COMDAT

; 322  : inline bool ISINCLUDE(int i, int max) { if (0 <= i && i < max) return true; return false; }

  00000	55		 push	 ebp
  00001	8b ec		 mov	 ebp, esp
  00003	8b 45 08	 mov	 eax, DWORD PTR _i$[ebp]
  00006	85 c0		 test	 eax, eax
  00008	78 09		 js	 SHORT $LN2@ISINCLUDE
  0000a	3b 45 0c	 cmp	 eax, DWORD PTR _max$[ebp]
  0000d	7d 04		 jge	 SHORT $LN2@ISINCLUDE
  0000f	b0 01		 mov	 al, 1
  00011	5d		 pop	 ebp
  00012	c3		 ret	 0
$LN2@ISINCLUDE:
  00013	32 c0		 xor	 al, al
  00015	5d		 pop	 ebp
  00016	c3		 ret	 0
?ISINCLUDE@@YA_NHH@Z ENDP				; ISINCLUDE
_TEXT	ENDS
; Function compile flags: /Ogtp
; File e:\infinia-library-3.0\com\include\comtypes.h
;	COMDAT ?ISABLETODELETE@@YA_NW4E_ALLOC_TYPE@@@Z
_TEXT	SEGMENT
_e$ = 8							; size = 4
?ISABLETODELETE@@YA_NW4E_ALLOC_TYPE@@@Z PROC		; ISABLETODELETE, COMDAT

; 247  : inline bool ISABLETODELETE(E_ALLOC_TYPE e) { if (eAlloc_Type_MemPool < e) return true; return false; }

  00000	55		 push	 ebp
  00001	8b ec		 mov	 ebp, esp
  00003	83 7d 08 01	 cmp	 DWORD PTR _e$[ebp], 1
  00007	0f 9f c0	 setg	 al
  0000a	5d		 pop	 ebp
  0000b	c3		 ret	 0
?ISABLETODELETE@@YA_NW4E_ALLOC_TYPE@@@Z ENDP		; ISABLETODELETE
_TEXT	ENDS
; Function compile flags: /Ogtp
;	COMDAT ??_Ewin_atomic@win32@common@@QAEPAXI@Z
_TEXT	SEGMENT
__$EHRec$ = -12						; size = 12
___flags$ = 8						; size = 4
??_Ewin_atomic@win32@common@@QAEPAXI@Z PROC		; common::win32::win_atomic::`vector deleting destructor', COMDAT
; _this$ = ecx
  00000	55		 push	 ebp
  00001	8b ec		 mov	 ebp, esp
  00003	6a ff		 push	 -1
  00005	68 00 00 00 00	 push	 __ehhandler$??_Ewin_atomic@win32@common@@QAEPAXI@Z
  0000a	64 a1 00 00 00
	00		 mov	 eax, DWORD PTR fs:0
  00010	50		 push	 eax
  00011	53		 push	 ebx
  00012	56		 push	 esi
  00013	57		 push	 edi
  00014	a1 00 00 00 00	 mov	 eax, DWORD PTR ___security_cookie
  00019	33 c5		 xor	 eax, ebp
  0001b	50		 push	 eax
  0001c	8d 45 f4	 lea	 eax, DWORD PTR __$EHRec$[ebp]
  0001f	64 a3 00 00 00
	00		 mov	 DWORD PTR fs:0, eax
  00025	8b f1		 mov	 esi, ecx
  00027	8b 5d 08	 mov	 ebx, DWORD PTR ___flags$[ebp]
  0002a	f6 c3 02	 test	 bl, 2
  0002d	74 41		 je	 SHORT $LN2@vector
  0002f	68 00 00 00 00	 push	 OFFSET ??1win_atomic@win32@common@@QAE@XZ ; common::win32::win_atomic::~win_atomic
  00034	ff 76 fc	 push	 DWORD PTR [esi-4]
  00037	8d 7e fc	 lea	 edi, DWORD PTR [esi-4]
  0003a	6a 04		 push	 4
  0003c	56		 push	 esi
  0003d	e8 00 00 00 00	 call	 ??_M@YGXPAXIIP6EX0@Z@Z
  00042	f6 c3 01	 test	 bl, 1
  00045	74 13		 je	 SHORT $LN3@vector
  00047	8b 0f		 mov	 ecx, DWORD PTR [edi]
  00049	8d 0c 8d 04 00
	00 00		 lea	 ecx, DWORD PTR [ecx*4+4]
  00050	51		 push	 ecx
  00051	57		 push	 edi
  00052	e8 00 00 00 00	 call	 ??_V@YAXPAXI@Z		; operator delete[]
  00057	83 c4 08	 add	 esp, 8
$LN3@vector:
  0005a	8b c7		 mov	 eax, edi
  0005c	8b 4d f4	 mov	 ecx, DWORD PTR __$EHRec$[ebp]
  0005f	64 89 0d 00 00
	00 00		 mov	 DWORD PTR fs:0, ecx
  00066	59		 pop	 ecx
  00067	5f		 pop	 edi
  00068	5e		 pop	 esi
  00069	5b		 pop	 ebx
  0006a	8b e5		 mov	 esp, ebp
  0006c	5d		 pop	 ebp
  0006d	c2 04 00	 ret	 4
$LN2@vector:
  00070	f6 c3 01	 test	 bl, 1
  00073	74 0b		 je	 SHORT $LN4@vector
  00075	6a 04		 push	 4
  00077	56		 push	 esi
  00078	e8 00 00 00 00	 call	 ??3@YAXPAXI@Z		; operator delete
  0007d	83 c4 08	 add	 esp, 8
$LN4@vector:
  00080	8b c6		 mov	 eax, esi
  00082	8b 4d f4	 mov	 ecx, DWORD PTR __$EHRec$[ebp]
  00085	64 89 0d 00 00
	00 00		 mov	 DWORD PTR fs:0, ecx
  0008c	59		 pop	 ecx
  0008d	5f		 pop	 edi
  0008e	5e		 pop	 esi
  0008f	5b		 pop	 ebx
  00090	8b e5		 mov	 esp, ebp
  00092	5d		 pop	 ebp
  00093	c2 04 00	 ret	 4
_TEXT	ENDS
;	COMDAT text$x
text$x	SEGMENT
__ehhandler$??_Ewin_atomic@win32@common@@QAEPAXI@Z:
  00000	8b 54 24 08	 mov	 edx, DWORD PTR [esp+8]
  00004	8d 42 0c	 lea	 eax, DWORD PTR [edx+12]
  00007	8b 4a f0	 mov	 ecx, DWORD PTR [edx-16]
  0000a	33 c8		 xor	 ecx, eax
  0000c	e8 00 00 00 00	 call	 @__security_check_cookie@4
  00011	b8 00 00 00 00	 mov	 eax, OFFSET __ehfuncinfo$??_Ewin_atomic@win32@common@@QAEPAXI@Z
  00016	e9 00 00 00 00	 jmp	 ___CxxFrameHandler3
text$x	ENDS
??_Ewin_atomic@win32@common@@QAEPAXI@Z ENDP		; common::win32::win_atomic::`vector deleting destructor'
; Function compile flags: /Ogtp
; File e:\infinia-library-3.0\com\include\com\win32\win32_mtsync.h
;	COMDAT ?atomic_compare_exchange@win_atomic@win32@common@@QAEHHH@Z
_TEXT	SEGMENT
_nExchange$ = 8						; size = 4
_nComperand$ = 12					; size = 4
?atomic_compare_exchange@win_atomic@win32@common@@QAEHHH@Z PROC ; common::win32::win_atomic::atomic_compare_exchange, COMDAT
; _this$ = ecx

; 99   : 	inline int atomic_compare_exchange(int nExchange, int nComperand) {return (int)InterlockedCompareExchange(&m_count, nExchange, nComperand);} // return long

  00000	55		 push	 ebp
  00001	8b ec		 mov	 ebp, esp
  00003	ff 75 0c	 push	 DWORD PTR _nComperand$[ebp]
  00006	ff 75 08	 push	 DWORD PTR _nExchange$[ebp]
  00009	51		 push	 ecx
  0000a	ff 15 00 00 00
	00		 call	 DWORD PTR __imp__InterlockedCompareExchange@12
  00010	5d		 pop	 ebp
  00011	c2 08 00	 ret	 8
?atomic_compare_exchange@win_atomic@win32@common@@QAEHHH@Z ENDP ; common::win32::win_atomic::atomic_compare_exchange
_TEXT	ENDS
; Function compile flags: /Ogtp
; File e:\infinia-library-3.0\com\include\com\win32\win32_mtsync.h
;	COMDAT ?atomic_decrement@win_atomic@win32@common@@QAEJXZ
_TEXT	SEGMENT
?atomic_decrement@win_atomic@win32@common@@QAEJXZ PROC	; common::win32::win_atomic::atomic_decrement, COMDAT
; _this$ = ecx

; 98   : 	inline long atomic_decrement() { return InterlockedDecrement(&m_count);}

  00000	51		 push	 ecx
  00001	ff 15 00 00 00
	00		 call	 DWORD PTR __imp__InterlockedDecrement@4
  00007	c3		 ret	 0
?atomic_decrement@win_atomic@win32@common@@QAEJXZ ENDP	; common::win32::win_atomic::atomic_decrement
_TEXT	ENDS
; Function compile flags: /Ogtp
; File e:\infinia-library-3.0\com\include\com\win32\win32_mtsync.h
;	COMDAT ?atomic_increment@win_atomic@win32@common@@QAEJXZ
_TEXT	SEGMENT
?atomic_increment@win_atomic@win32@common@@QAEJXZ PROC	; common::win32::win_atomic::atomic_increment, COMDAT
; _this$ = ecx

; 97   : 	inline long atomic_increment() { return InterlockedIncrement(&m_count);}

  00000	51		 push	 ecx
  00001	ff 15 00 00 00
	00		 call	 DWORD PTR __imp__InterlockedIncrement@4
  00007	c3		 ret	 0
?atomic_increment@win_atomic@win32@common@@QAEJXZ ENDP	; common::win32::win_atomic::atomic_increment
_TEXT	ENDS
; Function compile flags: /Ogtp
; File e:\infinia-library-3.0\com\include\com\win32\win32_mtsync.h
;	COMDAT ?init@win_atomic@win32@common@@QAEXXZ
_TEXT	SEGMENT
?init@win_atomic@win32@common@@QAEXXZ PROC		; common::win32::win_atomic::init, COMDAT
; _this$ = ecx

; 94   : 	inline void init() { m_count = 0; }

  00000	c7 01 00 00 00
	00		 mov	 DWORD PTR [ecx], 0
  00006	c3		 ret	 0
?init@win_atomic@win32@common@@QAEXXZ ENDP		; common::win32::win_atomic::init
_TEXT	ENDS
; Function compile flags: /Ogtp
; File e:\infinia-library-3.0\com\include\com\win32\win32_mtsync.h
;	COMDAT ?setCount@win_atomic@win32@common@@QAEXH@Z
_TEXT	SEGMENT
_nVal$ = 8						; size = 4
?setCount@win_atomic@win32@common@@QAEXH@Z PROC		; common::win32::win_atomic::setCount, COMDAT
; _this$ = ecx

; 93   : 	inline void setCount(int nVal) { m_count = (long)nVal; }

  00000	55		 push	 ebp
  00001	8b ec		 mov	 ebp, esp
  00003	8b 45 08	 mov	 eax, DWORD PTR _nVal$[ebp]
  00006	89 01		 mov	 DWORD PTR [ecx], eax
  00008	5d		 pop	 ebp
  00009	c2 04 00	 ret	 4
?setCount@win_atomic@win32@common@@QAEXH@Z ENDP		; common::win32::win_atomic::setCount
_TEXT	ENDS
; Function compile flags: /Ogtp
; File e:\infinia-library-3.0\com\include\com\win32\win32_mtsync.h
;	COMDAT ?getCount@win_atomic@win32@common@@QAEHXZ
_TEXT	SEGMENT
?getCount@win_atomic@win32@common@@QAEHXZ PROC		; common::win32::win_atomic::getCount, COMDAT
; _this$ = ecx

; 91   : 	inline int getCount() { return (int)m_count; }

  00000	8b 01		 mov	 eax, DWORD PTR [ecx]
  00002	c3		 ret	 0
?getCount@win_atomic@win32@common@@QAEHXZ ENDP		; common::win32::win_atomic::getCount
_TEXT	ENDS
; Function compile flags: /Ogtp
; File e:\infinia-library-3.0\com\include\com\win32\win32_mtsync.h
;	COMDAT ??1win_atomic@win32@common@@QAE@XZ
_TEXT	SEGMENT
??1win_atomic@win32@common@@QAE@XZ PROC			; common::win32::win_atomic::~win_atomic, COMDAT
; _this$ = ecx

; 88   : 	~win_atomic() {}

  00000	c3		 ret	 0
??1win_atomic@win32@common@@QAE@XZ ENDP			; common::win32::win_atomic::~win_atomic
_TEXT	ENDS
; Function compile flags: /Ogtp
; File e:\infinia-library-3.0\com\include\com\win32\win32_mtsync.h
;	COMDAT ??0win_atomic@win32@common@@QAE@XZ
_TEXT	SEGMENT
??0win_atomic@win32@common@@QAE@XZ PROC			; common::win32::win_atomic::win_atomic, COMDAT
; _this$ = ecx

; 87   : 	win_atomic() {m_count = 0;}

  00000	c7 01 00 00 00
	00		 mov	 DWORD PTR [ecx], 0
  00006	8b c1		 mov	 eax, ecx
  00008	c3		 ret	 0
??0win_atomic@win32@common@@QAE@XZ ENDP			; common::win32::win_atomic::win_atomic
_TEXT	ENDS
; Function compile flags: /Ogtp
; File e:\infinia-library-3.0\com\include\com\win32\win32_mtsync.h
; File e:\infinia-library-3.0\com\include\com\abstract_mtsync.h
;	COMDAT ??_Gcondition@win32@common@@UAEPAXI@Z
_TEXT	SEGMENT
___flags$ = 8						; size = 4
??_Gcondition@win32@common@@UAEPAXI@Z PROC		; common::win32::condition::`scalar deleting destructor', COMDAT
; _this$ = ecx
  00000	55		 push	 ebp
  00001	8b ec		 mov	 ebp, esp
  00003	56		 push	 esi
  00004	8b f1		 mov	 esi, ecx
; File e:\infinia-library-3.0\com\include\com\win32\win32_mtsync.h

; 64   : 	  ~condition() { CloseHandle(m_event); }

  00006	ff 76 04	 push	 DWORD PTR [esi+4]
  00009	c7 06 00 00 00
	00		 mov	 DWORD PTR [esi], OFFSET ??_7condition@win32@common@@6B@
  0000f	ff 15 00 00 00
	00		 call	 DWORD PTR __imp__CloseHandle@4
  00015	f6 45 08 01	 test	 BYTE PTR ___flags$[ebp], 1
; File e:\infinia-library-3.0\com\include\com\abstract_mtsync.h

; 72   : 	virtual ~abstract_condition() {}

  00019	c7 06 00 00 00
	00		 mov	 DWORD PTR [esi], OFFSET ??_7abstract_condition@common@@6B@
  0001f	74 0b		 je	 SHORT $LN10@scalar
  00021	6a 08		 push	 8
  00023	56		 push	 esi
  00024	e8 00 00 00 00	 call	 ??3@YAXPAXI@Z		; operator delete
  00029	83 c4 08	 add	 esp, 8
$LN10@scalar:
  0002c	8b c6		 mov	 eax, esi
  0002e	5e		 pop	 esi
  0002f	5d		 pop	 ebp
  00030	c2 04 00	 ret	 4
??_Gcondition@win32@common@@UAEPAXI@Z ENDP		; common::win32::condition::`scalar deleting destructor'
_TEXT	ENDS
; Function compile flags: /Ogtp
; File e:\infinia-library-3.0\com\include\com\win32\win32_mtsync.h
;	COMDAT ?wait@condition@win32@common@@QAE_NHPAVcritical_section@23@@Z
_TEXT	SEGMENT
_this$1$ = -4						; size = 4
_milliseconds$ = 8					; size = 4
_p$ = 12						; size = 4
?wait@condition@win32@common@@QAE_NHPAVcritical_section@23@@Z PROC ; common::win32::condition::wait, COMDAT
; _this$ = ecx

; 71   : 	  {

  00000	55		 push	 ebp
  00001	8b ec		 mov	 ebp, esp
  00003	51		 push	 ecx
  00004	53		 push	 ebx
  00005	56		 push	 esi

; 72   : 			DWORD timeout = milliseconds < 0 ? INFINITE : milliseconds;
; 73   : 			if(p) p->enter();

  00006	8b 75 0c	 mov	 esi, DWORD PTR _p$[ebp]
  00009	83 c8 ff	 or	 eax, -1
  0000c	57		 push	 edi
  0000d	8b 7d 08	 mov	 edi, DWORD PTR _milliseconds$[ebp]
  00010	8b d9		 mov	 ebx, ecx
  00012	85 ff		 test	 edi, edi
  00014	89 5d fc	 mov	 DWORD PTR _this$1$[ebp], ebx
  00017	0f 48 f8	 cmovs	 edi, eax
  0001a	85 f6		 test	 esi, esi
  0001c	74 09		 je	 SHORT $LN2@wait
  0001e	8b 06		 mov	 eax, DWORD PTR [esi]
  00020	8b ce		 mov	 ecx, esi
  00022	6a 01		 push	 1
  00024	ff 50 04	 call	 DWORD PTR [eax+4]
$LN2@wait:

; 74   : 			bool rv = WaitForSingleObject(m_event, timeout) == WAIT_OBJECT_0;

  00027	57		 push	 edi
  00028	ff 73 04	 push	 DWORD PTR [ebx+4]
  0002b	ff 15 00 00 00
	00		 call	 DWORD PTR __imp__WaitForSingleObject@8
  00031	85 c0		 test	 eax, eax

; 75   : 			ResetEvent(m_event);

  00033	8b 45 fc	 mov	 eax, DWORD PTR _this$1$[ebp]
  00036	0f 94 c3	 sete	 bl
  00039	ff 70 04	 push	 DWORD PTR [eax+4]
  0003c	ff 15 00 00 00
	00		 call	 DWORD PTR __imp__ResetEvent@4

; 76   : 			if(p) p->leave();

  00042	85 f6		 test	 esi, esi
  00044	74 07		 je	 SHORT $LN5@wait
  00046	8b 16		 mov	 edx, DWORD PTR [esi]
  00048	8b ce		 mov	 ecx, esi
  0004a	ff 52 08	 call	 DWORD PTR [edx+8]
$LN5@wait:

; 77   : 			return rv;

  0004d	5f		 pop	 edi
  0004e	5e		 pop	 esi
  0004f	8a c3		 mov	 al, bl
  00051	5b		 pop	 ebx

; 78   : 	  }

  00052	8b e5		 mov	 esp, ebp
  00054	5d		 pop	 ebp
  00055	c2 08 00	 ret	 8
?wait@condition@win32@common@@QAE_NHPAVcritical_section@23@@Z ENDP ; common::win32::condition::wait
_TEXT	ENDS
; Function compile flags: /Ogtp
; File e:\infinia-library-3.0\com\include\com\win32\win32_mtsync.h
;	COMDAT ?signal_all@condition@win32@common@@UAEXXZ
_TEXT	SEGMENT
?signal_all@condition@win32@common@@UAEXXZ PROC		; common::win32::condition::signal_all, COMDAT
; _this$ = ecx

; 67   : 	  void signal_all() { abort(); }

  00000	ff 25 00 00 00
	00		 jmp	 DWORD PTR __imp__abort
?signal_all@condition@win32@common@@UAEXXZ ENDP		; common::win32::condition::signal_all
_TEXT	ENDS
; Function compile flags: /Ogtp
; File e:\infinia-library-3.0\com\include\com\win32\win32_mtsync.h
;	COMDAT ?signal@condition@win32@common@@UAEXXZ
_TEXT	SEGMENT
?signal@condition@win32@common@@UAEXXZ PROC		; common::win32::condition::signal, COMDAT
; _this$ = ecx

; 66   : 	  void signal() { SetEvent(m_event); }

  00000	ff 71 04	 push	 DWORD PTR [ecx+4]
  00003	ff 15 00 00 00
	00		 call	 DWORD PTR __imp__SetEvent@4
  00009	c3		 ret	 0
?signal@condition@win32@common@@UAEXXZ ENDP		; common::win32::condition::signal
_TEXT	ENDS
; Function compile flags: /Ogtp
; File e:\infinia-library-3.0\com\include\com\win32\win32_mtsync.h
; File e:\infinia-library-3.0\com\include\com\abstract_mtsync.h
; File e:\infinia-library-3.0\com\include\com\win32\win32_mtsync.h
;	COMDAT ??1condition@win32@common@@UAE@XZ
_TEXT	SEGMENT
??1condition@win32@common@@UAE@XZ PROC			; common::win32::condition::~condition, COMDAT
; _this$ = ecx

; 64   : 	  ~condition() { CloseHandle(m_event); }

  00000	56		 push	 esi
  00001	8b f1		 mov	 esi, ecx
  00003	ff 76 04	 push	 DWORD PTR [esi+4]
  00006	c7 06 00 00 00
	00		 mov	 DWORD PTR [esi], OFFSET ??_7condition@win32@common@@6B@
  0000c	ff 15 00 00 00
	00		 call	 DWORD PTR __imp__CloseHandle@4
; File e:\infinia-library-3.0\com\include\com\abstract_mtsync.h

; 72   : 	virtual ~abstract_condition() {}

  00012	c7 06 00 00 00
	00		 mov	 DWORD PTR [esi], OFFSET ??_7abstract_condition@common@@6B@
  00018	5e		 pop	 esi
; File e:\infinia-library-3.0\com\include\com\win32\win32_mtsync.h

; 64   : 	  ~condition() { CloseHandle(m_event); }

  00019	c3		 ret	 0
??1condition@win32@common@@UAE@XZ ENDP			; common::win32::condition::~condition
_TEXT	ENDS
; Function compile flags: /Ogtp
; File e:\infinia-library-3.0\com\include\com\win32\win32_mtsync.h
;	COMDAT ??0condition@win32@common@@QAE@XZ
_TEXT	SEGMENT
_this$ = -4						; size = 4
??0condition@win32@common@@QAE@XZ PROC			; common::win32::condition::condition, COMDAT
; _this$ = ecx

; 63   : 	  condition() { m_event = CreateEvent(NULL, TRUE, FALSE, NULL);}

  00000	55		 push	 ebp
  00001	8b ec		 mov	 ebp, esp
  00003	51		 push	 ecx
  00004	56		 push	 esi
  00005	6a 00		 push	 0
  00007	8b f1		 mov	 esi, ecx
  00009	6a 00		 push	 0
  0000b	6a 01		 push	 1
  0000d	6a 00		 push	 0
  0000f	89 75 fc	 mov	 DWORD PTR _this$[ebp], esi
  00012	c7 06 00 00 00
	00		 mov	 DWORD PTR [esi], OFFSET ??_7condition@win32@common@@6B@
  00018	ff 15 00 00 00
	00		 call	 DWORD PTR __imp__CreateEventA@16
  0001e	89 46 04	 mov	 DWORD PTR [esi+4], eax
  00021	8b c6		 mov	 eax, esi
  00023	5e		 pop	 esi
  00024	8b e5		 mov	 esp, ebp
  00026	5d		 pop	 ebp
  00027	c3		 ret	 0
??0condition@win32@common@@QAE@XZ ENDP			; common::win32::condition::condition
_TEXT	ENDS
; Function compile flags: /Ogtp
; File e:\infinia-library-3.0\com\include\com\abstract_mtsync.h
;	COMDAT ??_Gabstract_condition@common@@UAEPAXI@Z
_TEXT	SEGMENT
___flags$ = 8						; size = 4
??_Gabstract_condition@common@@UAEPAXI@Z PROC		; common::abstract_condition::`scalar deleting destructor', COMDAT
; _this$ = ecx
  00000	55		 push	 ebp
  00001	8b ec		 mov	 ebp, esp
  00003	f6 45 08 01	 test	 BYTE PTR ___flags$[ebp], 1
  00007	56		 push	 esi
  00008	8b f1		 mov	 esi, ecx

; 72   : 	virtual ~abstract_condition() {}

  0000a	c7 06 00 00 00
	00		 mov	 DWORD PTR [esi], OFFSET ??_7abstract_condition@common@@6B@
  00010	74 0b		 je	 SHORT $LN7@scalar
  00012	6a 04		 push	 4
  00014	56		 push	 esi
  00015	e8 00 00 00 00	 call	 ??3@YAXPAXI@Z		; operator delete
  0001a	83 c4 08	 add	 esp, 8
$LN7@scalar:
  0001d	8b c6		 mov	 eax, esi
  0001f	5e		 pop	 esi
  00020	5d		 pop	 ebp
  00021	c2 04 00	 ret	 4
??_Gabstract_condition@common@@UAEPAXI@Z ENDP		; common::abstract_condition::`scalar deleting destructor'
_TEXT	ENDS
; Function compile flags: /Ogtp
;	COMDAT ??0abstract_condition@common@@QAE@XZ
_TEXT	SEGMENT
??0abstract_condition@common@@QAE@XZ PROC		; common::abstract_condition::abstract_condition, COMDAT
; _this$ = ecx
  00000	c7 01 00 00 00
	00		 mov	 DWORD PTR [ecx], OFFSET ??_7abstract_condition@common@@6B@
  00006	8b c1		 mov	 eax, ecx
  00008	c3		 ret	 0
??0abstract_condition@common@@QAE@XZ ENDP		; common::abstract_condition::abstract_condition
_TEXT	ENDS
; Function compile flags: /Ogtp
; File e:\infinia-library-3.0\com\include\com\abstract_mtsync.h
;	COMDAT ??1abstract_condition@common@@UAE@XZ
_TEXT	SEGMENT
??1abstract_condition@common@@UAE@XZ PROC		; common::abstract_condition::~abstract_condition, COMDAT
; _this$ = ecx

; 72   : 	virtual ~abstract_condition() {}

  00000	c7 01 00 00 00
	00		 mov	 DWORD PTR [ecx], OFFSET ??_7abstract_condition@common@@6B@
  00006	c3		 ret	 0
??1abstract_condition@common@@UAE@XZ ENDP		; common::abstract_condition::~abstract_condition
_TEXT	ENDS
; Function compile flags: /Ogtp
; File c:\program files (x86)\windows kits\10\include\10.0.10240.0\ucrt\stdio.h
;	COMDAT _sprintf
_TEXT	SEGMENT
__Buffer$ = 8						; size = 4
__Format$ = 12						; size = 4
_sprintf PROC						; COMDAT

; 1776 : {

  00000	55		 push	 ebp
  00001	8b ec		 mov	 ebp, esp
  00003	8b 45 08	 mov	 eax, DWORD PTR __Buffer$[ebp]

; 1386 :     int const _Result = __stdio_common_vsprintf(

  00006	8d 4d 10	 lea	 ecx, DWORD PTR __Format$[ebp+4]
  00009	51		 push	 ecx
  0000a	6a 00		 push	 0
  0000c	ff 75 0c	 push	 DWORD PTR __Format$[ebp]
  0000f	6a ff		 push	 -1
  00011	50		 push	 eax
  00012	e8 00 00 00 00	 call	 ___local_stdio_printf_options
  00017	8b 08		 mov	 ecx, DWORD PTR [eax]
  00019	ff 70 04	 push	 DWORD PTR [eax+4]
  0001c	83 c9 01	 or	 ecx, 1
  0001f	51		 push	 ecx
  00020	ff 15 00 00 00
	00		 call	 DWORD PTR __imp____stdio_common_vsprintf

; 1387 :         _CRT_INTERNAL_LOCAL_PRINTF_OPTIONS | _CRT_INTERNAL_PRINTF_LEGACY_VSPRINTF_NULL_TERMINATION,
; 1388 :         _Buffer, _BufferCount, _Format, _Locale, _ArgList);
; 1389 : 
; 1390 :     return _Result < 0 ? -1 : _Result;

  00026	83 c9 ff	 or	 ecx, -1
  00029	83 c4 1c	 add	 esp, 28			; 0000001cH
  0002c	85 c0		 test	 eax, eax
  0002e	0f 48 c1	 cmovs	 eax, ecx

; 1777 :     int _Result;
; 1778 :     va_list _ArgList;
; 1779 :     __crt_va_start(_ArgList, _Format);
; 1780 : 
; 1781 :     #pragma warning(push)
; 1782 :     #pragma warning(disable: 4996) // Deprecation
; 1783 :     _Result = _vsprintf_l(_Buffer, _Format, NULL, _ArgList);
; 1784 :     #pragma warning(pop)
; 1785 : 
; 1786 :     __crt_va_end(_ArgList);
; 1787 :     return _Result;
; 1788 : }

  00031	5d		 pop	 ebp
  00032	c3		 ret	 0
_sprintf ENDP
_TEXT	ENDS
; Function compile flags: /Ogtp
; File c:\program files (x86)\windows kits\10\include\10.0.10240.0\ucrt\stdio.h
;	COMDAT __vsprintf_l
_TEXT	SEGMENT
__Buffer$ = 8						; size = 4
__Format$ = 12						; size = 4
__Locale$ = 16						; size = 4
__ArgList$ = 20						; size = 4
__vsprintf_l PROC					; COMDAT

; 1455 : {

  00000	55		 push	 ebp
  00001	8b ec		 mov	 ebp, esp

; 1386 :     int const _Result = __stdio_common_vsprintf(

  00003	ff 75 14	 push	 DWORD PTR __ArgList$[ebp]
  00006	ff 75 10	 push	 DWORD PTR __Locale$[ebp]
  00009	ff 75 0c	 push	 DWORD PTR __Format$[ebp]
  0000c	6a ff		 push	 -1
  0000e	ff 75 08	 push	 DWORD PTR __Buffer$[ebp]
  00011	e8 00 00 00 00	 call	 ___local_stdio_printf_options
  00016	8b 08		 mov	 ecx, DWORD PTR [eax]
  00018	ff 70 04	 push	 DWORD PTR [eax+4]
  0001b	83 c9 01	 or	 ecx, 1
  0001e	51		 push	 ecx
  0001f	ff 15 00 00 00
	00		 call	 DWORD PTR __imp____stdio_common_vsprintf

; 1387 :         _CRT_INTERNAL_LOCAL_PRINTF_OPTIONS | _CRT_INTERNAL_PRINTF_LEGACY_VSPRINTF_NULL_TERMINATION,
; 1388 :         _Buffer, _BufferCount, _Format, _Locale, _ArgList);
; 1389 : 
; 1390 :     return _Result < 0 ? -1 : _Result;

  00025	83 c9 ff	 or	 ecx, -1
  00028	83 c4 1c	 add	 esp, 28			; 0000001cH
  0002b	85 c0		 test	 eax, eax
  0002d	0f 48 c1	 cmovs	 eax, ecx

; 1456 :     #pragma warning(push)
; 1457 :     #pragma warning(disable: 4996) // Deprecation
; 1458 :     return _vsnprintf_l(_Buffer, (size_t)-1, _Format, _Locale, _ArgList);
; 1459 :     #pragma warning(pop)
; 1460 : }

  00030	5d		 pop	 ebp
  00031	c3		 ret	 0
__vsprintf_l ENDP
_TEXT	ENDS
; Function compile flags: /Ogtp
; File c:\program files (x86)\windows kits\10\include\10.0.10240.0\ucrt\stdio.h
;	COMDAT __vsnprintf_l
_TEXT	SEGMENT
__Buffer$ = 8						; size = 4
__BufferCount$ = 12					; size = 4
__Format$ = 16						; size = 4
__Locale$ = 20						; size = 4
__ArgList$ = 24						; size = 4
__vsnprintf_l PROC					; COMDAT

; 1385 : {

  00000	55		 push	 ebp
  00001	8b ec		 mov	 ebp, esp

; 1386 :     int const _Result = __stdio_common_vsprintf(

  00003	ff 75 18	 push	 DWORD PTR __ArgList$[ebp]
  00006	ff 75 14	 push	 DWORD PTR __Locale$[ebp]
  00009	ff 75 10	 push	 DWORD PTR __Format$[ebp]
  0000c	ff 75 0c	 push	 DWORD PTR __BufferCount$[ebp]
  0000f	ff 75 08	 push	 DWORD PTR __Buffer$[ebp]
  00012	e8 00 00 00 00	 call	 ___local_stdio_printf_options
  00017	8b 08		 mov	 ecx, DWORD PTR [eax]
  00019	ff 70 04	 push	 DWORD PTR [eax+4]
  0001c	83 c9 01	 or	 ecx, 1
  0001f	51		 push	 ecx
  00020	ff 15 00 00 00
	00		 call	 DWORD PTR __imp____stdio_common_vsprintf

; 1387 :         _CRT_INTERNAL_LOCAL_PRINTF_OPTIONS | _CRT_INTERNAL_PRINTF_LEGACY_VSPRINTF_NULL_TERMINATION,
; 1388 :         _Buffer, _BufferCount, _Format, _Locale, _ArgList);
; 1389 : 
; 1390 :     return _Result < 0 ? -1 : _Result;

  00026	83 c9 ff	 or	 ecx, -1
  00029	83 c4 1c	 add	 esp, 28			; 0000001cH
  0002c	85 c0		 test	 eax, eax
  0002e	0f 48 c1	 cmovs	 eax, ecx

; 1391 : }

  00031	5d		 pop	 ebp
  00032	c3		 ret	 0
__vsnprintf_l ENDP
_TEXT	ENDS
; Function compile flags: /Ogtp
; File c:\program files (x86)\windows kits\10\include\10.0.10240.0\ucrt\stdio.h
;	COMDAT _printf
_TEXT	SEGMENT
__Format$ = 8						; size = 4
_printf	PROC						; COMDAT

; 950  : {

  00000	55		 push	 ebp
  00001	8b ec		 mov	 ebp, esp
  00003	56		 push	 esi

; 951  :     int _Result;
; 952  :     va_list _ArgList;
; 953  :     __crt_va_start(_ArgList, _Format);
; 954  :     _Result = _vfprintf_l(stdout, _Format, NULL, _ArgList);

  00004	8b 75 08	 mov	 esi, DWORD PTR __Format$[ebp]
  00007	6a 01		 push	 1
  00009	ff 15 00 00 00
	00		 call	 DWORD PTR __imp____acrt_iob_func
  0000f	83 c4 04	 add	 esp, 4

; 639  :     return __stdio_common_vfprintf(_CRT_INTERNAL_LOCAL_PRINTF_OPTIONS, _Stream, _Format, _Locale, _ArgList);

  00012	8d 4d 0c	 lea	 ecx, DWORD PTR __Format$[ebp+4]
  00015	51		 push	 ecx
  00016	6a 00		 push	 0
  00018	56		 push	 esi
  00019	50		 push	 eax
  0001a	e8 00 00 00 00	 call	 ___local_stdio_printf_options
  0001f	ff 70 04	 push	 DWORD PTR [eax+4]
  00022	ff 30		 push	 DWORD PTR [eax]
  00024	ff 15 00 00 00
	00		 call	 DWORD PTR __imp____stdio_common_vfprintf
  0002a	83 c4 18	 add	 esp, 24			; 00000018H
  0002d	5e		 pop	 esi

; 955  :     __crt_va_end(_ArgList);
; 956  :     return _Result;
; 957  : }

  0002e	5d		 pop	 ebp
  0002f	c3		 ret	 0
_printf	ENDP
_TEXT	ENDS
; Function compile flags: /Ogtp
; File c:\program files (x86)\microsoft visual studio 14.0\vc\include\vadefs.h
;	COMDAT ??$__vcrt_va_start_verify_argument_type@QBD@@YAXXZ
_TEXT	SEGMENT
??$__vcrt_va_start_verify_argument_type@QBD@@YAXXZ PROC	; __vcrt_va_start_verify_argument_type<char const * const>, COMDAT

; 145  :             static_assert(!__vcrt_va_list_is_reference<_Ty>::__the_value, "va_start argument must not have reference type and must not be parenthesized");
; 146  :         }

  00000	c3		 ret	 0
??$__vcrt_va_start_verify_argument_type@QBD@@YAXXZ ENDP	; __vcrt_va_start_verify_argument_type<char const * const>
_TEXT	ENDS
; Function compile flags: /Ogtp
; File c:\program files (x86)\windows kits\10\include\10.0.10240.0\ucrt\stdio.h
;	COMDAT __vfprintf_l
_TEXT	SEGMENT
__Stream$ = 8						; size = 4
__Format$ = 12						; size = 4
__Locale$ = 16						; size = 4
__ArgList$ = 20						; size = 4
__vfprintf_l PROC					; COMDAT

; 638  : {

  00000	55		 push	 ebp
  00001	8b ec		 mov	 ebp, esp

; 639  :     return __stdio_common_vfprintf(_CRT_INTERNAL_LOCAL_PRINTF_OPTIONS, _Stream, _Format, _Locale, _ArgList);

  00003	ff 75 14	 push	 DWORD PTR __ArgList$[ebp]
  00006	ff 75 10	 push	 DWORD PTR __Locale$[ebp]
  00009	ff 75 0c	 push	 DWORD PTR __Format$[ebp]
  0000c	ff 75 08	 push	 DWORD PTR __Stream$[ebp]
  0000f	e8 00 00 00 00	 call	 ___local_stdio_printf_options
  00014	ff 70 04	 push	 DWORD PTR [eax+4]
  00017	ff 30		 push	 DWORD PTR [eax]
  00019	ff 15 00 00 00
	00		 call	 DWORD PTR __imp____stdio_common_vfprintf
  0001f	83 c4 18	 add	 esp, 24			; 00000018H

; 640  : }

  00022	5d		 pop	 ebp
  00023	c3		 ret	 0
__vfprintf_l ENDP
_TEXT	ENDS
; Function compile flags: /Ogtp
; File c:\program files (x86)\windows kits\10\include\10.0.10240.0\ucrt\corecrt_stdio_config.h
;	COMDAT ___local_stdio_printf_options
_TEXT	SEGMENT
___local_stdio_printf_options PROC			; COMDAT

; 74   :     static unsigned __int64 _OptionsStorage;
; 75   :     return &_OptionsStorage;

  00000	b8 00 00 00 00	 mov	 eax, OFFSET ?_OptionsStorage@?1??__local_stdio_printf_options@@9@4_KA ; `__local_stdio_printf_options'::`2'::_OptionsStorage

; 76   : }

  00005	c3		 ret	 0
___local_stdio_printf_options ENDP
_TEXT	ENDS
END
