; Listing generated by Microsoft (R) Optimizing Compiler Version 19.00.24215.1 

	TITLE	E:\InfiniA-Library-3.0\com\src\comDualKeyHash.cpp
	.686P
	.XMM
	include listing.inc
	.model	flat

INCLUDELIB MSVCRT
INCLUDELIB OLDNAMES

PUBLIC	___local_stdio_printf_options
PUBLIC	??$__vcrt_va_start_verify_argument_type@QBD@@YAXXZ ; __vcrt_va_start_verify_argument_type<char const * const>
PUBLIC	_sprintf
PUBLIC	?newBuf@CMemManager@@QAEPADH@Z			; CMemManager::newBuf
PUBLIC	??0CDKeyHashMap@@QAE@HH_N@Z			; CDKeyHashMap::CDKeyHashMap
PUBLIC	??1CDKeyHashMap@@QAE@XZ				; CDKeyHashMap::~CDKeyHashMap
PUBLIC	?addKey@CDKeyHashMap@@QAEHPAD0PAPAVCHash@@PAX@Z	; CDKeyHashMap::addKey
PUBLIC	?addKeyValue@CDKeyHashMap@@QAEHPAD0PAX1@Z	; CDKeyHashMap::addKeyValue
PUBLIC	?setValue@CDKeyHashMap@@QAEHPAD0PAX@Z		; CDKeyHashMap::setValue
PUBLIC	?deleteHash@CDKeyHashMap@@QAE_NPAD@Z		; CDKeyHashMap::deleteHash
PUBLIC	?deleteNode@CDKeyHashMap@@QAE_NPAD0@Z		; CDKeyHashMap::deleteNode
PUBLIC	?newValueBuf@CDKeyHashMap@@QAEPAUSTValue@@HPAD@Z ; CDKeyHashMap::newValueBuf
PUBLIC	?delValueBuf@CDKeyHashMap@@QAEXPAUSTValue@@@Z	; CDKeyHashMap::delValueBuf
PUBLIC	?isNode@CDKeyHashMap@@QAE_NPAD0@Z		; CDKeyHashMap::isNode
PUBLIC	?getHashMap@CDKeyHashMap@@QAEPAVCHash@@PAD@Z	; CDKeyHashMap::getHashMap
PUBLIC	?getNode@CDKeyHashMap@@QAEPAUSTHash_Node@@PAD0@Z ; CDKeyHashMap::getNode
PUBLIC	??0?$CBMemPool@USTValue@@@@QAE@W4E_ALLOC_TYPE@@@Z ; CBMemPool<STValue>::CBMemPool<STValue>
PUBLIC	??1?$CBMemPool@USTValue@@@@QAE@XZ		; CBMemPool<STValue>::~CBMemPool<STValue>
PUBLIC	?newMem@?$CBMemPool@USTValue@@@@QAEPAUSTValue@@XZ ; CBMemPool<STValue>::newMem
PUBLIC	?delMem@?$CBMemPool@USTValue@@@@QAE_NPAUSTValue@@@Z ; CBMemPool<STValue>::delMem
PUBLIC	?__unit_alloc@?$CBMemPool@USTValue@@@@AAEPAUSTValue@@XZ ; CBMemPool<STValue>::__unit_alloc
PUBLIC	?__alloc@?$CBMemPool@USTValue@@@@AAEHH@Z	; CBMemPool<STValue>::__alloc
PUBLIC	??0?$CBMemPool@USThash_next@@@@QAE@W4E_ALLOC_TYPE@@@Z ; CBMemPool<SThash_next>::CBMemPool<SThash_next>
PUBLIC	??1?$CBMemPool@USThash_next@@@@QAE@XZ		; CBMemPool<SThash_next>::~CBMemPool<SThash_next>
PUBLIC	?newMem@?$CBMemPool@USThash_next@@@@QAEPAUSThash_next@@XZ ; CBMemPool<SThash_next>::newMem
PUBLIC	?delMem@?$CBMemPool@USThash_next@@@@QAE_NPAUSThash_next@@@Z ; CBMemPool<SThash_next>::delMem
PUBLIC	?__unit_alloc@?$CBMemPool@USThash_next@@@@AAEPAUSThash_next@@XZ ; CBMemPool<SThash_next>::__unit_alloc
PUBLIC	?__alloc@?$CBMemPool@USThash_next@@@@AAEHH@Z	; CBMemPool<SThash_next>::__alloc
PUBLIC	?_OptionsStorage@?1??__local_stdio_printf_options@@9@4_KA ; `__local_stdio_printf_options'::`2'::_OptionsStorage
PUBLIC	??_C@_0DG@CMDPEIID@DUPLICATE_KEYS?5pKey1?$FL?$CFs?$FN?5pHash?9?$DO@ ; `string'
PUBLIC	??_C@_0BF@IHKEPCHI@CDKeyHashMap?3?3addKey?$AA@	; `string'
PUBLIC	??_C@_0CG@HJJILFAE@errorNo?$FL?$CFd?$FN?5new?5CHash?$CImax?3?$CFd?$CJ?5ke@ ; `string'
PUBLIC	??_C@_0CF@JDKICIC@new?5CHash?$CImax?3?$CFd?$CJ?5key1?3?$CFs?5hashNo@ ; `string'
PUBLIC	??_C@_0CG@LOLNAHMC@errorNo?$FL?$CFd?$FN?5pHash?9?$DOaddNode?$CIpNext@ ; `string'
PUBLIC	??_C@_0BN@FGIDFKBP@CBMemPool?3?3pPool?5alloc?5ERROR?$AA@ ; `string'
PUBLIC	??_C@_0BN@GNGFODAA@CBMemPool?3?3pFlag?5alloc?5ERROR?$AA@ ; `string'
PUBLIC	??_C@_0CE@EAOGLOLF@CBMemPool?5__alloc?5m_nAllocCount?$FL@ ; `string'
EXTRN	??2@YAPAXI@Z:PROC				; operator new
EXTRN	??3@YAXPAXI@Z:PROC				; operator delete
EXTRN	??_V@YAXPAX@Z:PROC				; operator delete[]
EXTRN	??0CHash@@QAE@I@Z:PROC				; CHash::CHash
EXTRN	??1CHash@@QAE@XZ:PROC				; CHash::~CHash
EXTRN	?hashLookup@CHash@@QAEPAUSTHash_Node@@PAD@Z:PROC ; CHash::hashLookup
EXTRN	?getNext@CHash@@QAEPAUSThash_next@@I@Z:PROC	; CHash::getNext
EXTRN	?getNext@CHash@@QAEPAUSThash_next@@PAD@Z:PROC	; CHash::getNext
EXTRN	?getNode@CHash@@QAEPAUSThash_next@@PADPAPAU2@@Z:PROC ; CHash::getNode
EXTRN	?setValue@CHash@@QAE?AW4HASH_RETURN_CODE@@IPADPAX@Z:PROC ; CHash::setValue
EXTRN	?addNode@CHash@@QAEHPAUSThash_next@@PADPAX@Z:PROC ; CHash::addNode
EXTRN	__imp____stdio_common_vsprintf:PROC
EXTRN	__imp__calloc:PROC
EXTRN	__imp__free:PROC
EXTRN	??2@YAPAXIABUnothrow_t@std@@@Z:PROC		; operator new
EXTRN	??_U@YAPAXIABUnothrow_t@std@@@Z:PROC		; operator new[]
EXTRN	??3@YAXPAXABUnothrow_t@std@@@Z:PROC		; operator delete
EXTRN	?delBufByIndex@CMemManager@@QAEXPADH@Z:PROC	; CMemManager::delBufByIndex
EXTRN	?__newBuf@CMemManager@@AAEPADHI@Z:PROC		; CMemManager::__newBuf
EXTRN	?PutLogQueue@CLogger@@QAAXHPBDZZ:PROC		; CLogger::PutLogQueue
EXTRN	?__debugLog@CLogger@@QAAXHPBDH0ZZ:PROC		; CLogger::__debugLog
EXTRN	@__security_check_cookie@4:PROC
EXTRN	___CxxFrameHandler3:PROC
EXTRN	_memset:PROC
EXTRN	?nothrow@std@@3Unothrow_t@1@B:BYTE		; std::nothrow
EXTRN	?g_szMessage@@3PADA:BYTE			; g_szMessage
EXTRN	?gs_pMMgr@@3PAVCMemManager@@A:DWORD		; gs_pMMgr
EXTRN	?gs_cLogger@@3VCLogger@@A:BYTE			; gs_cLogger
EXTRN	___security_cookie:DWORD
EXTRN	__fltused:DWORD
;	COMDAT ?_OptionsStorage@?1??__local_stdio_printf_options@@9@4_KA
_BSS	SEGMENT
?_OptionsStorage@?1??__local_stdio_printf_options@@9@4_KA DQ 01H DUP (?) ; `__local_stdio_printf_options'::`2'::_OptionsStorage
_BSS	ENDS
;	COMDAT ??_C@_0CE@EAOGLOLF@CBMemPool?5__alloc?5m_nAllocCount?$FL@
CONST	SEGMENT
??_C@_0CE@EAOGLOLF@CBMemPool?5__alloc?5m_nAllocCount?$FL@ DB 'CBMemPool _'
	DB	'_alloc m_nAllocCount[%d]', 00H		; `string'
CONST	ENDS
;	COMDAT ??_C@_0BN@GNGFODAA@CBMemPool?3?3pFlag?5alloc?5ERROR?$AA@
CONST	SEGMENT
??_C@_0BN@GNGFODAA@CBMemPool?3?3pFlag?5alloc?5ERROR?$AA@ DB 'CBMemPool::p'
	DB	'Flag alloc ERROR', 00H			; `string'
CONST	ENDS
;	COMDAT ??_C@_0BN@FGIDFKBP@CBMemPool?3?3pPool?5alloc?5ERROR?$AA@
CONST	SEGMENT
??_C@_0BN@FGIDFKBP@CBMemPool?3?3pPool?5alloc?5ERROR?$AA@ DB 'CBMemPool::p'
	DB	'Pool alloc ERROR', 00H			; `string'
CONST	ENDS
;	COMDAT ??_C@_0CG@LOLNAHMC@errorNo?$FL?$CFd?$FN?5pHash?9?$DOaddNode?$CIpNext@
CONST	SEGMENT
??_C@_0CG@LOLNAHMC@errorNo?$FL?$CFd?$FN?5pHash?9?$DOaddNode?$CIpNext@ DB 'e'
	DB	'rrorNo[%d] pHash->addNode(pNext, %s)', 00H	; `string'
CONST	ENDS
;	COMDAT ??_C@_0CF@JDKICIC@new?5CHash?$CImax?3?$CFd?$CJ?5key1?3?$CFs?5hashNo@
CONST	SEGMENT
??_C@_0CF@JDKICIC@new?5CHash?$CImax?3?$CFd?$CJ?5key1?3?$CFs?5hashNo@ DB 'n'
	DB	'ew CHash(max:%d) key1:%s hashNo[%d]', 00H	; `string'
CONST	ENDS
;	COMDAT ??_C@_0CG@HJJILFAE@errorNo?$FL?$CFd?$FN?5new?5CHash?$CImax?3?$CFd?$CJ?5ke@
CONST	SEGMENT
??_C@_0CG@HJJILFAE@errorNo?$FL?$CFd?$FN?5new?5CHash?$CImax?3?$CFd?$CJ?5ke@ DB 'e'
	DB	'rrorNo[%d] new CHash(max:%d) key1:%s', 00H	; `string'
CONST	ENDS
;	COMDAT ??_C@_0BF@IHKEPCHI@CDKeyHashMap?3?3addKey?$AA@
CONST	SEGMENT
??_C@_0BF@IHKEPCHI@CDKeyHashMap?3?3addKey?$AA@ DB 'CDKeyHashMap::addKey', 00H ; `string'
CONST	ENDS
;	COMDAT ??_C@_0DG@CMDPEIID@DUPLICATE_KEYS?5pKey1?$FL?$CFs?$FN?5pHash?9?$DO@
CONST	SEGMENT
??_C@_0DG@CMDPEIID@DUPLICATE_KEYS?5pKey1?$FL?$CFs?$FN?5pHash?9?$DO@ DB 'D'
	DB	'UPLICATE_KEYS pKey1[%s] pHash->hashLookup(pKey2[%s])', 00H ; `string'
CONST	ENDS
;	COMDAT xdata$x
xdata$x	SEGMENT
__unwindtable$?addKey@CDKeyHashMap@@QAEHPAD0PAPAVCHash@@PAX@Z DD 0ffffffffH
	DD	FLAT:__unwindfunclet$?addKey@CDKeyHashMap@@QAEHPAD0PAPAVCHash@@PAX@Z$0
__ehfuncinfo$?addKey@CDKeyHashMap@@QAEHPAD0PAPAVCHash@@PAX@Z DD 019930522H
	DD	01H
	DD	FLAT:__unwindtable$?addKey@CDKeyHashMap@@QAEHPAD0PAPAVCHash@@PAX@Z
	DD	2 DUP(00H)
	DD	2 DUP(00H)
	DD	00H
	DD	01H
xdata$x	ENDS
;	COMDAT xdata$x
xdata$x	SEGMENT
__ehfuncinfo$??1CDKeyHashMap@@QAE@XZ DD 019930522H
	DD	00H
	DD	00H
	DD	2 DUP(00H)
	DD	2 DUP(00H)
	DD	00H
	DD	05H
xdata$x	ENDS
;	COMDAT xdata$x
xdata$x	SEGMENT
__unwindtable$??0CDKeyHashMap@@QAE@HH_N@Z DD 0ffffffffH
	DD	FLAT:__unwindfunclet$??0CDKeyHashMap@@QAE@HH_N@Z$1
__ehfuncinfo$??0CDKeyHashMap@@QAE@HH_N@Z DD 019930522H
	DD	01H
	DD	FLAT:__unwindtable$??0CDKeyHashMap@@QAE@HH_N@Z
	DD	2 DUP(00H)
	DD	2 DUP(00H)
	DD	00H
	DD	01H
xdata$x	ENDS
; Function compile flags: /Ogtp
; File e:\infinia-library-3.0\com\include\combmempool.h
;	COMDAT ??_G?$CBMemPool@USThash_next@@@@QAEPAXI@Z
_TEXT	SEGMENT
___flags$ = 8						; size = 4
??_G?$CBMemPool@USThash_next@@@@QAEPAXI@Z PROC		; CBMemPool<SThash_next>::`scalar deleting destructor', COMDAT
; _this$ = ecx
  00000	55		 push	 ebp
  00001	8b ec		 mov	 ebp, esp
  00003	56		 push	 esi
  00004	8b f1		 mov	 esi, ecx

; 86   : 	if (m_pChunk) {

  00006	8b 4e 14	 mov	 ecx, DWORD PTR [esi+20]
  00009	85 c9		 test	 ecx, ecx
  0000b	74 22		 je	 SHORT $LN7@scalar

; 87   : 		switch (m_nObjAllocType) {

  0000d	8b 46 0c	 mov	 eax, DWORD PTR [esi+12]
  00010	83 e8 02	 sub	 eax, 2
  00013	74 0a		 je	 SHORT $LN8@scalar
  00015	83 e8 01	 sub	 eax, 1
  00018	74 45		 je	 SHORT $LN9@scalar
  0001a	83 e8 02	 sub	 eax, 2
  0001d	75 09		 jne	 SHORT $LN5@scalar
$LN8@scalar:

; 88   : 		case eAlloc_Type_new:		
; 89   : 		case eAlloc_Type_newArray:	delete[] m_pChunk;	break;

  0001f	51		 push	 ecx
  00020	e8 00 00 00 00	 call	 ??_V@YAXPAX@Z		; operator delete[]
$LN14@scalar:
  00025	83 c4 04	 add	 esp, 4
$LN5@scalar:

; 91   : 		}
; 92   : 
; 93   : 		m_pChunk = NULL;

  00028	c7 46 14 00 00
	00 00		 mov	 DWORD PTR [esi+20], 0
$LN7@scalar:

; 94   : 	}
; 95   : 
; 96   : 	if (m_nFlagArray) {

  0002f	8b 46 10	 mov	 eax, DWORD PTR [esi+16]
  00032	85 c0		 test	 eax, eax
  00034	74 11		 je	 SHORT $LN10@scalar

; 97   : 		free(m_nFlagArray);

  00036	50		 push	 eax
  00037	ff 15 00 00 00
	00		 call	 DWORD PTR __imp__free
  0003d	83 c4 04	 add	 esp, 4

; 98   : 		m_nFlagArray = NULL;

  00040	c7 46 10 00 00
	00 00		 mov	 DWORD PTR [esi+16], 0
$LN10@scalar:
  00047	f6 45 08 01	 test	 BYTE PTR ___flags$[ebp], 1
  0004b	74 0b		 je	 SHORT $LN13@scalar
  0004d	6a 18		 push	 24			; 00000018H
  0004f	56		 push	 esi
  00050	e8 00 00 00 00	 call	 ??3@YAXPAXI@Z		; operator delete
  00055	83 c4 08	 add	 esp, 8
$LN13@scalar:
  00058	8b c6		 mov	 eax, esi
  0005a	5e		 pop	 esi
  0005b	5d		 pop	 ebp
  0005c	c2 04 00	 ret	 4
$LN9@scalar:

; 90   : 		case eAlloc_Type_alloc:		free(m_pChunk);		break;

  0005f	51		 push	 ecx
  00060	ff 15 00 00 00
	00		 call	 DWORD PTR __imp__free
  00066	eb bd		 jmp	 SHORT $LN14@scalar
??_G?$CBMemPool@USThash_next@@@@QAEPAXI@Z ENDP		; CBMemPool<SThash_next>::`scalar deleting destructor'
_TEXT	ENDS
; Function compile flags: /Ogtp
;	COMDAT ?__autoclassinit2@?$CBMemPool@USThash_next@@@@QAEXI@Z
_TEXT	SEGMENT
_classSize$ = 8						; size = 4
?__autoclassinit2@?$CBMemPool@USThash_next@@@@QAEXI@Z PROC ; CBMemPool<SThash_next>::__autoclassinit2, COMDAT
; _this$ = ecx
  00000	55		 push	 ebp
  00001	8b ec		 mov	 ebp, esp
  00003	ff 75 08	 push	 DWORD PTR _classSize$[ebp]
  00006	6a 00		 push	 0
  00008	51		 push	 ecx
  00009	e8 00 00 00 00	 call	 _memset
  0000e	83 c4 0c	 add	 esp, 12			; 0000000cH
  00011	5d		 pop	 ebp
  00012	c2 04 00	 ret	 4
?__autoclassinit2@?$CBMemPool@USThash_next@@@@QAEXI@Z ENDP ; CBMemPool<SThash_next>::__autoclassinit2
_TEXT	ENDS
; Function compile flags: /Ogtp
; File e:\infinia-library-3.0\com\include\combmempool.h
;	COMDAT ?__alloc@?$CBMemPool@USThash_next@@@@AAEHH@Z
_TEXT	SEGMENT
_this$1$ = -4						; size = 4
_nMaxCount$ = 8						; size = 4
?__alloc@?$CBMemPool@USThash_next@@@@AAEHH@Z PROC	; CBMemPool<SThash_next>::__alloc, COMDAT
; _this$ = ecx

; 104  : {	

  00000	55		 push	 ebp
  00001	8b ec		 mov	 ebp, esp
  00003	51		 push	 ecx
  00004	8b c1		 mov	 eax, ecx
  00006	53		 push	 ebx

; 105  : 	MEMTYPE* pPool;
; 106  : 	switch (m_nObjAllocType) {

  00007	8b 1d 00 00 00
	00		 mov	 ebx, DWORD PTR __imp__calloc
  0000d	89 45 fc	 mov	 DWORD PTR _this$1$[ebp], eax
  00010	8b 40 0c	 mov	 eax, DWORD PTR [eax+12]
  00013	56		 push	 esi
  00014	57		 push	 edi
  00015	83 e8 02	 sub	 eax, 2
  00018	74 0a		 je	 SHORT $LN4@alloc
  0001a	83 e8 01	 sub	 eax, 1
  0001d	74 4b		 je	 SHORT $LN5@alloc
  0001f	83 e8 02	 sub	 eax, 2
  00022	75 29		 jne	 SHORT $LN10@alloc
$LN4@alloc:

; 107  : 	case eAlloc_Type_new		: 
; 108  : 	case eAlloc_Type_newArray	:	pPool = new (std::nothrow) MEMTYPE[nMaxCount]; break;

  00024	8b 75 08	 mov	 esi, DWORD PTR _nMaxCount$[ebp]
  00027	33 c9		 xor	 ecx, ecx
  00029	8b c6		 mov	 eax, esi
  0002b	ba 0c 00 00 00	 mov	 edx, 12			; 0000000cH
  00030	f7 e2		 mul	 edx
  00032	68 00 00 00 00	 push	 OFFSET ?nothrow@std@@3Unothrow_t@1@B ; std::nothrow
  00037	0f 90 c1	 seto	 cl
  0003a	f7 d9		 neg	 ecx
  0003c	0b c8		 or	 ecx, eax
  0003e	51		 push	 ecx
  0003f	e8 00 00 00 00	 call	 ??_U@YAPAXIABUnothrow_t@std@@@Z ; operator new[]
$LN11@alloc:
  00044	8b f8		 mov	 edi, eax
  00046	83 c4 08	 add	 esp, 8

; 110  : 	default: pPool=NULL;
; 111  : 	}	
; 112  : 	if (!pPool) {

  00049	85 ff		 test	 edi, edi
  0004b	75 27		 jne	 SHORT $LN7@alloc
$LN10@alloc:

; 113  : 		_stprintf(g_szMessage, _T("CBMemPool::pPool alloc ERROR"));

  0004d	68 00 00 00 00	 push	 OFFSET ??_C@_0BN@FGIDFKBP@CBMemPool?3?3pPool?5alloc?5ERROR?$AA@
  00052	68 00 00 00 00	 push	 OFFSET ?g_szMessage@@3PADA ; g_szMessage
  00057	e8 00 00 00 00	 call	 _sprintf
  0005c	83 c4 08	 add	 esp, 8

; 114  : 		return 0;

  0005f	33 c0		 xor	 eax, eax
  00061	5f		 pop	 edi
  00062	5e		 pop	 esi
  00063	5b		 pop	 ebx

; 129  : }

  00064	8b e5		 mov	 esp, ebp
  00066	5d		 pop	 ebp
  00067	c2 04 00	 ret	 4
$LN5@alloc:

; 109  : 	case eAlloc_Type_alloc		:	pPool = (MEMTYPE *)calloc(nMaxCount, sizeof(MEMTYPE)); break;

  0006a	8b 75 08	 mov	 esi, DWORD PTR _nMaxCount$[ebp]
  0006d	6a 0c		 push	 12			; 0000000cH
  0006f	56		 push	 esi
  00070	ff d3		 call	 ebx
  00072	eb d0		 jmp	 SHORT $LN11@alloc
$LN7@alloc:

; 115  : 	}
; 116  : 
; 117  : 	char* pFlag = (char*)calloc(nMaxCount, sizeof(char));

  00074	6a 01		 push	 1
  00076	56		 push	 esi
  00077	ff d3		 call	 ebx
  00079	8b d8		 mov	 ebx, eax
  0007b	83 c4 08	 add	 esp, 8

; 118  : 	if (!pFlag) {

  0007e	85 db		 test	 ebx, ebx
  00080	75 24		 jne	 SHORT $LN8@alloc

; 119  : 		free(pPool);

  00082	57		 push	 edi
  00083	ff 15 00 00 00
	00		 call	 DWORD PTR __imp__free

; 120  : 		_stprintf(g_szMessage, _T("CBMemPool::pFlag alloc ERROR"));

  00089	68 00 00 00 00	 push	 OFFSET ??_C@_0BN@GNGFODAA@CBMemPool?3?3pFlag?5alloc?5ERROR?$AA@
  0008e	68 00 00 00 00	 push	 OFFSET ?g_szMessage@@3PADA ; g_szMessage
  00093	e8 00 00 00 00	 call	 _sprintf
  00098	83 c4 0c	 add	 esp, 12			; 0000000cH

; 121  : 		return 0;

  0009b	33 c0		 xor	 eax, eax
  0009d	5f		 pop	 edi
  0009e	5e		 pop	 esi
  0009f	5b		 pop	 ebx

; 129  : }

  000a0	8b e5		 mov	 esp, ebp
  000a2	5d		 pop	 ebp
  000a3	c2 04 00	 ret	 4
$LN8@alloc:

; 122  : 	}
; 123  : 	memset(pFlag, 0, sizeof(pFlag));
; 124  : 
; 125  : 	_stprintf(g_szMessage, _T("CBMemPool __alloc m_nAllocCount[%d]"), nMaxCount);

  000a6	56		 push	 esi
  000a7	68 00 00 00 00	 push	 OFFSET ??_C@_0CE@EAOGLOLF@CBMemPool?5__alloc?5m_nAllocCount?$FL@
  000ac	68 00 00 00 00	 push	 OFFSET ?g_szMessage@@3PADA ; g_szMessage
  000b1	c7 03 00 00 00
	00		 mov	 DWORD PTR [ebx], 0
  000b7	e8 00 00 00 00	 call	 _sprintf

; 126  : 	m_pChunk = pPool;

  000bc	8b 45 fc	 mov	 eax, DWORD PTR _this$1$[ebp]
  000bf	83 c4 0c	 add	 esp, 12			; 0000000cH
  000c2	89 78 14	 mov	 DWORD PTR [eax+20], edi

; 127  : 	m_nFlagArray = pFlag;

  000c5	89 58 10	 mov	 DWORD PTR [eax+16], ebx

; 128  : 	return nMaxCount;

  000c8	8b c6		 mov	 eax, esi
  000ca	5f		 pop	 edi
  000cb	5e		 pop	 esi
  000cc	5b		 pop	 ebx

; 129  : }

  000cd	8b e5		 mov	 esp, ebp
  000cf	5d		 pop	 ebp
  000d0	c2 04 00	 ret	 4
?__alloc@?$CBMemPool@USThash_next@@@@AAEHH@Z ENDP	; CBMemPool<SThash_next>::__alloc
_TEXT	ENDS
; Function compile flags: /Ogtp
; File e:\infinia-library-3.0\com\include\combmempool.h
;	COMDAT ?__unit_alloc@?$CBMemPool@USThash_next@@@@AAEPAUSThash_next@@XZ
_TEXT	SEGMENT
?__unit_alloc@?$CBMemPool@USThash_next@@@@AAEPAUSThash_next@@XZ PROC ; CBMemPool<SThash_next>::__unit_alloc, COMDAT
; _this$ = ecx

; 135  : 	switch (m_nObjAllocType) {

  00000	8b 41 0c	 mov	 eax, DWORD PTR [ecx+12]
  00003	83 e8 02	 sub	 eax, 2
  00006	74 1b		 je	 SHORT $LN4@unit_alloc
  00008	83 e8 01	 sub	 eax, 1
  0000b	74 08		 je	 SHORT $LN5@unit_alloc
  0000d	83 e8 02	 sub	 eax, 2
  00010	74 11		 je	 SHORT $LN4@unit_alloc

; 139  : 	default: return NULL;

  00012	33 c0		 xor	 eax, eax

; 140  : 	}
; 141  : }

  00014	c3		 ret	 0
$LN5@unit_alloc:

; 138  : 	case eAlloc_Type_alloc		:	return (MEMTYPE *)calloc(1, sizeof(MEMTYPE));

  00015	6a 0c		 push	 12			; 0000000cH
  00017	6a 01		 push	 1
  00019	ff 15 00 00 00
	00		 call	 DWORD PTR __imp__calloc
  0001f	83 c4 08	 add	 esp, 8

; 140  : 	}
; 141  : }

  00022	c3		 ret	 0
$LN4@unit_alloc:

; 136  : 	case eAlloc_Type_new		:	
; 137  : 	case eAlloc_Type_newArray	:	return new (std::nothrow) MEMTYPE;

  00023	68 00 00 00 00	 push	 OFFSET ?nothrow@std@@3Unothrow_t@1@B ; std::nothrow
  00028	6a 0c		 push	 12			; 0000000cH
  0002a	e8 00 00 00 00	 call	 ??2@YAPAXIABUnothrow_t@std@@@Z ; operator new
  0002f	83 c4 08	 add	 esp, 8

; 140  : 	}
; 141  : }

  00032	c3		 ret	 0
?__unit_alloc@?$CBMemPool@USThash_next@@@@AAEPAUSThash_next@@XZ ENDP ; CBMemPool<SThash_next>::__unit_alloc
_TEXT	ENDS
; Function compile flags: /Ogtp
; File e:\infinia-library-3.0\com\include\combmempool.h
; File e:\infinia-library-3.0\com\include\comtypes.h
; File e:\infinia-library-3.0\com\include\combmempool.h
;	COMDAT ?delMem@?$CBMemPool@USThash_next@@@@QAE_NPAUSThash_next@@@Z
_TEXT	SEGMENT
_pUsedMem$ = 8						; size = 4
?delMem@?$CBMemPool@USThash_next@@@@QAE_NPAUSThash_next@@@Z PROC ; CBMemPool<SThash_next>::delMem, COMDAT
; _this$ = ecx

; 193  : {

  00000	55		 push	 ebp
  00001	8b ec		 mov	 ebp, esp
  00003	56		 push	 esi
  00004	57		 push	 edi

; 194  : 	int nIdx = int(pUsedMem - m_pChunk);

  00005	8b 7d 08	 mov	 edi, DWORD PTR _pUsedMem$[ebp]
  00008	b8 ab aa aa 2a	 mov	 eax, 715827883		; 2aaaaaabH
  0000d	8b d7		 mov	 edx, edi
  0000f	2b 51 14	 sub	 edx, DWORD PTR [ecx+20]
  00012	f7 ea		 imul	 edx
  00014	d1 fa		 sar	 edx, 1
  00016	8b f2		 mov	 esi, edx
  00018	c1 ee 1f	 shr	 esi, 31			; 0000001fH
  0001b	03 f2		 add	 esi, edx
; File e:\infinia-library-3.0\com\include\comtypes.h

; 322  : inline bool ISINCLUDE(int i, int max) { if (0 <= i && i < max) return true; return false; }

  0001d	78 17		 js	 SHORT $LN4@delMem
  0001f	3b 71 08	 cmp	 esi, DWORD PTR [ecx+8]
  00022	7d 12		 jge	 SHORT $LN4@delMem
; File e:\infinia-library-3.0\com\include\combmempool.h

; 197  : 		m_nFlagArray[nIdx] = 0;

  00024	8b 41 10	 mov	 eax, DWORD PTR [ecx+16]
  00027	5f		 pop	 edi
  00028	c6 04 06 00	 mov	 BYTE PTR [esi+eax], 0

; 198  : 		m_nUseCnt--;
; 199  : 		return true;

  0002c	b0 01		 mov	 al, 1
  0002e	ff 49 04	 dec	 DWORD PTR [ecx+4]
  00031	5e		 pop	 esi

; 208  : }

  00032	5d		 pop	 ebp
  00033	c2 04 00	 ret	 4
$LN4@delMem:

; 200  : 	}
; 201  : 	if (m_bSlot) return false;

  00036	80 39 00	 cmp	 BYTE PTR [ecx], 0
  00039	75 1d		 jne	 SHORT $LN9@delMem

; 202  : 	switch (m_nObjAllocType) {

  0003b	8b 41 0c	 mov	 eax, DWORD PTR [ecx+12]
  0003e	83 e8 02	 sub	 eax, 2
  00041	74 0a		 je	 SHORT $LN6@delMem
  00043	83 e8 01	 sub	 eax, 1
  00046	74 18		 je	 SHORT $LN7@delMem
  00048	83 e8 02	 sub	 eax, 2
  0004b	75 0b		 jne	 SHORT $LN9@delMem
$LN6@delMem:

; 203  : 	case eAlloc_Type_new:	
; 204  : 	case eAlloc_Type_newArray:	delete pUsedMem; break;

  0004d	6a 0c		 push	 12			; 0000000cH
  0004f	57		 push	 edi
  00050	e8 00 00 00 00	 call	 ??3@YAXPAXI@Z		; operator delete
  00055	83 c4 08	 add	 esp, 8
$LN9@delMem:

; 206  : 	}
; 207  : 	return false;

  00058	5f		 pop	 edi
  00059	32 c0		 xor	 al, al
  0005b	5e		 pop	 esi

; 208  : }

  0005c	5d		 pop	 ebp
  0005d	c2 04 00	 ret	 4
$LN7@delMem:

; 205  : 	case eAlloc_Type_alloc:	free(pUsedMem); break;

  00060	57		 push	 edi
  00061	ff 15 00 00 00
	00		 call	 DWORD PTR __imp__free
  00067	83 c4 04	 add	 esp, 4

; 206  : 	}
; 207  : 	return false;

  0006a	32 c0		 xor	 al, al
  0006c	5f		 pop	 edi
  0006d	5e		 pop	 esi

; 208  : }

  0006e	5d		 pop	 ebp
  0006f	c2 04 00	 ret	 4
?delMem@?$CBMemPool@USThash_next@@@@QAE_NPAUSThash_next@@@Z ENDP ; CBMemPool<SThash_next>::delMem
_TEXT	ENDS
; Function compile flags: /Ogtp
; File e:\infinia-library-3.0\com\include\combmempool.h
;	COMDAT ?newMem@?$CBMemPool@USThash_next@@@@QAEPAUSThash_next@@XZ
_TEXT	SEGMENT
?newMem@?$CBMemPool@USThash_next@@@@QAEPAUSThash_next@@XZ PROC ; CBMemPool<SThash_next>::newMem, COMDAT
; _this$ = ecx

; 145  : {

  00000	56		 push	 esi
  00001	8b f1		 mov	 esi, ecx
  00003	57		 push	 edi

; 146  : 	int i = m_nUseCnt, j;

  00004	8b 56 04	 mov	 edx, DWORD PTR [esi+4]

; 147  : 	if (m_nUseCnt == m_nAllocCount) {

  00007	8b 7e 08	 mov	 edi, DWORD PTR [esi+8]
  0000a	3b d7		 cmp	 edx, edi
  0000c	75 3e		 jne	 SHORT $LN5@newMem

; 148  : 		if (m_bSlot) return NULL;

  0000e	80 3e 00	 cmp	 BYTE PTR [esi], 0
  00011	75 12		 jne	 SHORT $LN34@newMem

; 135  : 	switch (m_nObjAllocType) {

  00013	8b 46 0c	 mov	 eax, DWORD PTR [esi+12]
  00016	83 e8 02	 sub	 eax, 2
  00019	74 1f		 je	 SHORT $LN14@newMem
  0001b	83 e8 01	 sub	 eax, 1
  0001e	74 0a		 je	 SHORT $LN15@newMem
  00020	83 e8 02	 sub	 eax, 2
  00023	74 15		 je	 SHORT $LN14@newMem
$LN34@newMem:
  00025	5f		 pop	 edi

; 139  : 	default: return NULL;

  00026	33 c0		 xor	 eax, eax
  00028	5e		 pop	 esi

; 161  : 	return __unit_alloc();
; 162  : }

  00029	c3		 ret	 0
$LN15@newMem:

; 138  : 	case eAlloc_Type_alloc		:	return (MEMTYPE *)calloc(1, sizeof(MEMTYPE));

  0002a	6a 0c		 push	 12			; 0000000cH
  0002c	6a 01		 push	 1
  0002e	ff 15 00 00 00
	00		 call	 DWORD PTR __imp__calloc
  00034	83 c4 08	 add	 esp, 8
  00037	5f		 pop	 edi
  00038	5e		 pop	 esi

; 161  : 	return __unit_alloc();
; 162  : }

  00039	c3		 ret	 0
$LN14@newMem:

; 137  : 	case eAlloc_Type_newArray	:	return new (std::nothrow) MEMTYPE;

  0003a	68 00 00 00 00	 push	 OFFSET ?nothrow@std@@3Unothrow_t@1@B ; std::nothrow
  0003f	6a 0c		 push	 12			; 0000000cH
  00041	e8 00 00 00 00	 call	 ??2@YAPAXIABUnothrow_t@std@@@Z ; operator new
  00046	83 c4 08	 add	 esp, 8
  00049	5f		 pop	 edi
  0004a	5e		 pop	 esi

; 161  : 	return __unit_alloc();
; 162  : }

  0004b	c3		 ret	 0
$LN5@newMem:

; 149  : 		return __unit_alloc();
; 150  : 	}
; 151  : 	for (j = 0; j < m_nAllocCount; j++) {

  0004c	33 c9		 xor	 ecx, ecx
  0004e	53		 push	 ebx
  0004f	85 ff		 test	 edi, edi
  00051	7e 17		 jle	 SHORT $LN3@newMem

; 152  : 		if (i >= m_nAllocCount) { i = 0; }
; 153  : 		if (!m_nFlagArray[i]) {

  00053	8b 5e 10	 mov	 ebx, DWORD PTR [esi+16]
$LL4@newMem:
  00056	33 c0		 xor	 eax, eax
  00058	3b d7		 cmp	 edx, edi
  0005a	0f 4c c2	 cmovl	 eax, edx
  0005d	8b d0		 mov	 edx, eax
  0005f	80 3c 1a 00	 cmp	 BYTE PTR [edx+ebx], 0
  00063	74 22		 je	 SHORT $LN26@newMem

; 149  : 		return __unit_alloc();
; 150  : 	}
; 151  : 	for (j = 0; j < m_nAllocCount; j++) {

  00065	41		 inc	 ecx
  00066	3b cf		 cmp	 ecx, edi
  00068	7c ec		 jl	 SHORT $LL4@newMem
$LN3@newMem:

; 158  : 		}
; 159  : 	}
; 160  : 	if (m_bSlot) return NULL;

  0006a	80 3e 00	 cmp	 BYTE PTR [esi], 0
  0006d	75 12		 jne	 SHORT $LN33@newMem

; 135  : 	switch (m_nObjAllocType) {

  0006f	8b 46 0c	 mov	 eax, DWORD PTR [esi+12]
  00072	83 e8 02	 sub	 eax, 2
  00075	74 4a		 je	 SHORT $LN21@newMem
  00077	83 e8 01	 sub	 eax, 1
  0007a	74 34		 je	 SHORT $LN22@newMem
  0007c	83 e8 02	 sub	 eax, 2
  0007f	74 40		 je	 SHORT $LN21@newMem
$LN33@newMem:
  00081	5b		 pop	 ebx
  00082	5f		 pop	 edi

; 139  : 	default: return NULL;

  00083	33 c0		 xor	 eax, eax
  00085	5e		 pop	 esi

; 161  : 	return __unit_alloc();
; 162  : }

  00086	c3		 ret	 0
$LN26@newMem:

; 154  : 			m_nFlagArray[i] = 1;

  00087	c6 04 1a 01	 mov	 BYTE PTR [edx+ebx], 1

; 155  : 			memset(&m_pChunk[i], 0, sizeof(MEMTYPE));

  0008b	8d 0c 52	 lea	 ecx, DWORD PTR [edx+edx*2]
  0008e	8b 46 14	 mov	 eax, DWORD PTR [esi+20]
  00091	0f 57 c0	 xorps	 xmm0, xmm0
  00094	c1 e1 02	 shl	 ecx, 2
  00097	5b		 pop	 ebx
  00098	5f		 pop	 edi
  00099	66 0f d6 04 08	 movq	 QWORD PTR [eax+ecx], xmm0
  0009e	c7 44 08 08 00
	00 00 00	 mov	 DWORD PTR [eax+ecx+8], 0

; 156  : 			m_nUseCnt++;
; 157  : 			return &m_pChunk[i];

  000a6	8b 46 14	 mov	 eax, DWORD PTR [esi+20]
  000a9	ff 46 04	 inc	 DWORD PTR [esi+4]
  000ac	03 c1		 add	 eax, ecx
  000ae	5e		 pop	 esi

; 161  : 	return __unit_alloc();
; 162  : }

  000af	c3		 ret	 0
$LN22@newMem:

; 138  : 	case eAlloc_Type_alloc		:	return (MEMTYPE *)calloc(1, sizeof(MEMTYPE));

  000b0	6a 0c		 push	 12			; 0000000cH
  000b2	6a 01		 push	 1
  000b4	ff 15 00 00 00
	00		 call	 DWORD PTR __imp__calloc
  000ba	83 c4 08	 add	 esp, 8
  000bd	5b		 pop	 ebx
  000be	5f		 pop	 edi
  000bf	5e		 pop	 esi

; 161  : 	return __unit_alloc();
; 162  : }

  000c0	c3		 ret	 0
$LN21@newMem:

; 137  : 	case eAlloc_Type_newArray	:	return new (std::nothrow) MEMTYPE;

  000c1	68 00 00 00 00	 push	 OFFSET ?nothrow@std@@3Unothrow_t@1@B ; std::nothrow
  000c6	6a 0c		 push	 12			; 0000000cH
  000c8	e8 00 00 00 00	 call	 ??2@YAPAXIABUnothrow_t@std@@@Z ; operator new
  000cd	83 c4 08	 add	 esp, 8
  000d0	5b		 pop	 ebx
  000d1	5f		 pop	 edi
  000d2	5e		 pop	 esi

; 161  : 	return __unit_alloc();
; 162  : }

  000d3	c3		 ret	 0
?newMem@?$CBMemPool@USThash_next@@@@QAEPAUSThash_next@@XZ ENDP ; CBMemPool<SThash_next>::newMem
_TEXT	ENDS
; Function compile flags: /Ogtp
; File e:\infinia-library-3.0\com\include\combmempool.h
;	COMDAT ?alloc@?$CBMemPool@USThash_next@@@@QAEHH@Z
_TEXT	SEGMENT
_nMaxCount$ = 8						; size = 4
?alloc@?$CBMemPool@USThash_next@@@@QAEHH@Z PROC		; CBMemPool<SThash_next>::alloc, COMDAT
; _this$ = ecx

; 32   : 	inline int alloc(int nMaxCount) { m_nAllocCount = __alloc(nMaxCount); return m_nAllocCount; }

  00000	55		 push	 ebp
  00001	8b ec		 mov	 ebp, esp
  00003	56		 push	 esi
  00004	ff 75 08	 push	 DWORD PTR _nMaxCount$[ebp]
  00007	8b f1		 mov	 esi, ecx
  00009	e8 00 00 00 00	 call	 ?__alloc@?$CBMemPool@USThash_next@@@@AAEHH@Z ; CBMemPool<SThash_next>::__alloc
  0000e	89 46 08	 mov	 DWORD PTR [esi+8], eax
  00011	5e		 pop	 esi
  00012	5d		 pop	 ebp
  00013	c2 04 00	 ret	 4
?alloc@?$CBMemPool@USThash_next@@@@QAEHH@Z ENDP		; CBMemPool<SThash_next>::alloc
_TEXT	ENDS
; Function compile flags: /Ogtp
; File e:\infinia-library-3.0\com\include\combmempool.h
;	COMDAT ??1?$CBMemPool@USThash_next@@@@QAE@XZ
_TEXT	SEGMENT
??1?$CBMemPool@USThash_next@@@@QAE@XZ PROC		; CBMemPool<SThash_next>::~CBMemPool<SThash_next>, COMDAT
; _this$ = ecx

; 85   : {

  00000	56		 push	 esi
  00001	8b f1		 mov	 esi, ecx

; 86   : 	if (m_pChunk) {

  00003	8b 4e 14	 mov	 ecx, DWORD PTR [esi+20]
  00006	85 c9		 test	 ecx, ecx
  00008	74 22		 je	 SHORT $LN4@CBMemPool

; 87   : 		switch (m_nObjAllocType) {

  0000a	8b 46 0c	 mov	 eax, DWORD PTR [esi+12]
  0000d	83 e8 02	 sub	 eax, 2
  00010	74 0a		 je	 SHORT $LN5@CBMemPool
  00012	83 e8 01	 sub	 eax, 1
  00015	74 2f		 je	 SHORT $LN6@CBMemPool
  00017	83 e8 02	 sub	 eax, 2
  0001a	75 09		 jne	 SHORT $LN2@CBMemPool
$LN5@CBMemPool:

; 88   : 		case eAlloc_Type_new:		
; 89   : 		case eAlloc_Type_newArray:	delete[] m_pChunk;	break;

  0001c	51		 push	 ecx
  0001d	e8 00 00 00 00	 call	 ??_V@YAXPAX@Z		; operator delete[]
$LN9@CBMemPool:
  00022	83 c4 04	 add	 esp, 4
$LN2@CBMemPool:

; 91   : 		}
; 92   : 
; 93   : 		m_pChunk = NULL;

  00025	c7 46 14 00 00
	00 00		 mov	 DWORD PTR [esi+20], 0
$LN4@CBMemPool:

; 94   : 	}
; 95   : 
; 96   : 	if (m_nFlagArray) {

  0002c	8b 46 10	 mov	 eax, DWORD PTR [esi+16]
  0002f	85 c0		 test	 eax, eax
  00031	74 11		 je	 SHORT $LN7@CBMemPool

; 97   : 		free(m_nFlagArray);

  00033	50		 push	 eax
  00034	ff 15 00 00 00
	00		 call	 DWORD PTR __imp__free
  0003a	83 c4 04	 add	 esp, 4

; 98   : 		m_nFlagArray = NULL;

  0003d	c7 46 10 00 00
	00 00		 mov	 DWORD PTR [esi+16], 0
$LN7@CBMemPool:

; 99   : 	}
; 100  : }

  00044	5e		 pop	 esi
  00045	c3		 ret	 0
$LN6@CBMemPool:

; 90   : 		case eAlloc_Type_alloc:		free(m_pChunk);		break;

  00046	51		 push	 ecx
  00047	ff 15 00 00 00
	00		 call	 DWORD PTR __imp__free
  0004d	eb d3		 jmp	 SHORT $LN9@CBMemPool
??1?$CBMemPool@USThash_next@@@@QAE@XZ ENDP		; CBMemPool<SThash_next>::~CBMemPool<SThash_next>
_TEXT	ENDS
; Function compile flags: /Ogtp
; File e:\infinia-library-3.0\com\include\combmempool.h
;	COMDAT ??0?$CBMemPool@USThash_next@@@@QAE@W4E_ALLOC_TYPE@@@Z
_TEXT	SEGMENT
_nType$ = 8						; size = 4
??0?$CBMemPool@USThash_next@@@@QAE@W4E_ALLOC_TYPE@@@Z PROC ; CBMemPool<SThash_next>::CBMemPool<SThash_next>, COMDAT
; _this$ = ecx

; 74   : {

  00000	55		 push	 ebp
  00001	8b ec		 mov	 ebp, esp

; 75   : 	m_nAllocCount = 0;
; 76   : 	m_pChunk = NULL;
; 77   : 	m_nUseCnt = 0;
; 78   : 	m_nFlagArray = NULL;
; 79   : 	m_nObjAllocType = nType;

  00003	8b 45 08	 mov	 eax, DWORD PTR _nType$[ebp]
  00006	89 41 0c	 mov	 DWORD PTR [ecx+12], eax

; 80   : 	m_bSlot = false;
; 81   : }

  00009	8b c1		 mov	 eax, ecx
  0000b	c7 41 08 00 00
	00 00		 mov	 DWORD PTR [ecx+8], 0
  00012	c7 41 14 00 00
	00 00		 mov	 DWORD PTR [ecx+20], 0
  00019	c7 41 04 00 00
	00 00		 mov	 DWORD PTR [ecx+4], 0
  00020	c7 41 10 00 00
	00 00		 mov	 DWORD PTR [ecx+16], 0
  00027	c6 01 00	 mov	 BYTE PTR [ecx], 0
  0002a	5d		 pop	 ebp
  0002b	c2 04 00	 ret	 4
??0?$CBMemPool@USThash_next@@@@QAE@W4E_ALLOC_TYPE@@@Z ENDP ; CBMemPool<SThash_next>::CBMemPool<SThash_next>
_TEXT	ENDS
; Function compile flags: /Ogtp
; File e:\infinia-library-3.0\com\include\combmempool.h
;	COMDAT ??_G?$CBMemPool@USTValue@@@@QAEPAXI@Z
_TEXT	SEGMENT
___flags$ = 8						; size = 4
??_G?$CBMemPool@USTValue@@@@QAEPAXI@Z PROC		; CBMemPool<STValue>::`scalar deleting destructor', COMDAT
; _this$ = ecx
  00000	55		 push	 ebp
  00001	8b ec		 mov	 ebp, esp
  00003	56		 push	 esi
  00004	8b f1		 mov	 esi, ecx

; 86   : 	if (m_pChunk) {

  00006	8b 4e 14	 mov	 ecx, DWORD PTR [esi+20]
  00009	85 c9		 test	 ecx, ecx
  0000b	74 22		 je	 SHORT $LN7@scalar

; 87   : 		switch (m_nObjAllocType) {

  0000d	8b 46 0c	 mov	 eax, DWORD PTR [esi+12]
  00010	83 e8 02	 sub	 eax, 2
  00013	74 0a		 je	 SHORT $LN8@scalar
  00015	83 e8 01	 sub	 eax, 1
  00018	74 45		 je	 SHORT $LN9@scalar
  0001a	83 e8 02	 sub	 eax, 2
  0001d	75 09		 jne	 SHORT $LN5@scalar
$LN8@scalar:

; 88   : 		case eAlloc_Type_new:		
; 89   : 		case eAlloc_Type_newArray:	delete[] m_pChunk;	break;

  0001f	51		 push	 ecx
  00020	e8 00 00 00 00	 call	 ??_V@YAXPAX@Z		; operator delete[]
$LN14@scalar:
  00025	83 c4 04	 add	 esp, 4
$LN5@scalar:

; 91   : 		}
; 92   : 
; 93   : 		m_pChunk = NULL;

  00028	c7 46 14 00 00
	00 00		 mov	 DWORD PTR [esi+20], 0
$LN7@scalar:

; 94   : 	}
; 95   : 
; 96   : 	if (m_nFlagArray) {

  0002f	8b 46 10	 mov	 eax, DWORD PTR [esi+16]
  00032	85 c0		 test	 eax, eax
  00034	74 11		 je	 SHORT $LN10@scalar

; 97   : 		free(m_nFlagArray);

  00036	50		 push	 eax
  00037	ff 15 00 00 00
	00		 call	 DWORD PTR __imp__free
  0003d	83 c4 04	 add	 esp, 4

; 98   : 		m_nFlagArray = NULL;

  00040	c7 46 10 00 00
	00 00		 mov	 DWORD PTR [esi+16], 0
$LN10@scalar:
  00047	f6 45 08 01	 test	 BYTE PTR ___flags$[ebp], 1
  0004b	74 0b		 je	 SHORT $LN13@scalar
  0004d	6a 18		 push	 24			; 00000018H
  0004f	56		 push	 esi
  00050	e8 00 00 00 00	 call	 ??3@YAXPAXI@Z		; operator delete
  00055	83 c4 08	 add	 esp, 8
$LN13@scalar:
  00058	8b c6		 mov	 eax, esi
  0005a	5e		 pop	 esi
  0005b	5d		 pop	 ebp
  0005c	c2 04 00	 ret	 4
$LN9@scalar:

; 90   : 		case eAlloc_Type_alloc:		free(m_pChunk);		break;

  0005f	51		 push	 ecx
  00060	ff 15 00 00 00
	00		 call	 DWORD PTR __imp__free
  00066	eb bd		 jmp	 SHORT $LN14@scalar
??_G?$CBMemPool@USTValue@@@@QAEPAXI@Z ENDP		; CBMemPool<STValue>::`scalar deleting destructor'
_TEXT	ENDS
; Function compile flags: /Ogtp
;	COMDAT ?__autoclassinit2@?$CBMemPool@USTValue@@@@QAEXI@Z
_TEXT	SEGMENT
_classSize$ = 8						; size = 4
?__autoclassinit2@?$CBMemPool@USTValue@@@@QAEXI@Z PROC	; CBMemPool<STValue>::__autoclassinit2, COMDAT
; _this$ = ecx
  00000	55		 push	 ebp
  00001	8b ec		 mov	 ebp, esp
  00003	ff 75 08	 push	 DWORD PTR _classSize$[ebp]
  00006	6a 00		 push	 0
  00008	51		 push	 ecx
  00009	e8 00 00 00 00	 call	 _memset
  0000e	83 c4 0c	 add	 esp, 12			; 0000000cH
  00011	5d		 pop	 ebp
  00012	c2 04 00	 ret	 4
?__autoclassinit2@?$CBMemPool@USTValue@@@@QAEXI@Z ENDP	; CBMemPool<STValue>::__autoclassinit2
_TEXT	ENDS
; Function compile flags: /Ogtp
; File e:\infinia-library-3.0\com\include\combmempool.h
;	COMDAT ?__alloc@?$CBMemPool@USTValue@@@@AAEHH@Z
_TEXT	SEGMENT
_this$1$ = -4						; size = 4
_nMaxCount$ = 8						; size = 4
?__alloc@?$CBMemPool@USTValue@@@@AAEHH@Z PROC		; CBMemPool<STValue>::__alloc, COMDAT
; _this$ = ecx

; 104  : {	

  00000	55		 push	 ebp
  00001	8b ec		 mov	 ebp, esp
  00003	51		 push	 ecx
  00004	8b c1		 mov	 eax, ecx
  00006	53		 push	 ebx

; 105  : 	MEMTYPE* pPool;
; 106  : 	switch (m_nObjAllocType) {

  00007	8b 1d 00 00 00
	00		 mov	 ebx, DWORD PTR __imp__calloc
  0000d	89 45 fc	 mov	 DWORD PTR _this$1$[ebp], eax
  00010	8b 40 0c	 mov	 eax, DWORD PTR [eax+12]
  00013	56		 push	 esi
  00014	57		 push	 edi
  00015	83 e8 02	 sub	 eax, 2
  00018	74 0a		 je	 SHORT $LN4@alloc
  0001a	83 e8 01	 sub	 eax, 1
  0001d	74 4b		 je	 SHORT $LN5@alloc
  0001f	83 e8 02	 sub	 eax, 2
  00022	75 29		 jne	 SHORT $LN10@alloc
$LN4@alloc:

; 107  : 	case eAlloc_Type_new		: 
; 108  : 	case eAlloc_Type_newArray	:	pPool = new (std::nothrow) MEMTYPE[nMaxCount]; break;

  00024	8b 75 08	 mov	 esi, DWORD PTR _nMaxCount$[ebp]
  00027	33 c9		 xor	 ecx, ecx
  00029	8b c6		 mov	 eax, esi
  0002b	ba 08 00 00 00	 mov	 edx, 8
  00030	f7 e2		 mul	 edx
  00032	68 00 00 00 00	 push	 OFFSET ?nothrow@std@@3Unothrow_t@1@B ; std::nothrow
  00037	0f 90 c1	 seto	 cl
  0003a	f7 d9		 neg	 ecx
  0003c	0b c8		 or	 ecx, eax
  0003e	51		 push	 ecx
  0003f	e8 00 00 00 00	 call	 ??_U@YAPAXIABUnothrow_t@std@@@Z ; operator new[]
$LN11@alloc:
  00044	8b f8		 mov	 edi, eax
  00046	83 c4 08	 add	 esp, 8

; 110  : 	default: pPool=NULL;
; 111  : 	}	
; 112  : 	if (!pPool) {

  00049	85 ff		 test	 edi, edi
  0004b	75 27		 jne	 SHORT $LN7@alloc
$LN10@alloc:

; 113  : 		_stprintf(g_szMessage, _T("CBMemPool::pPool alloc ERROR"));

  0004d	68 00 00 00 00	 push	 OFFSET ??_C@_0BN@FGIDFKBP@CBMemPool?3?3pPool?5alloc?5ERROR?$AA@
  00052	68 00 00 00 00	 push	 OFFSET ?g_szMessage@@3PADA ; g_szMessage
  00057	e8 00 00 00 00	 call	 _sprintf
  0005c	83 c4 08	 add	 esp, 8

; 114  : 		return 0;

  0005f	33 c0		 xor	 eax, eax
  00061	5f		 pop	 edi
  00062	5e		 pop	 esi
  00063	5b		 pop	 ebx

; 129  : }

  00064	8b e5		 mov	 esp, ebp
  00066	5d		 pop	 ebp
  00067	c2 04 00	 ret	 4
$LN5@alloc:

; 109  : 	case eAlloc_Type_alloc		:	pPool = (MEMTYPE *)calloc(nMaxCount, sizeof(MEMTYPE)); break;

  0006a	8b 75 08	 mov	 esi, DWORD PTR _nMaxCount$[ebp]
  0006d	6a 08		 push	 8
  0006f	56		 push	 esi
  00070	ff d3		 call	 ebx
  00072	eb d0		 jmp	 SHORT $LN11@alloc
$LN7@alloc:

; 115  : 	}
; 116  : 
; 117  : 	char* pFlag = (char*)calloc(nMaxCount, sizeof(char));

  00074	6a 01		 push	 1
  00076	56		 push	 esi
  00077	ff d3		 call	 ebx
  00079	8b d8		 mov	 ebx, eax
  0007b	83 c4 08	 add	 esp, 8

; 118  : 	if (!pFlag) {

  0007e	85 db		 test	 ebx, ebx
  00080	75 24		 jne	 SHORT $LN8@alloc

; 119  : 		free(pPool);

  00082	57		 push	 edi
  00083	ff 15 00 00 00
	00		 call	 DWORD PTR __imp__free

; 120  : 		_stprintf(g_szMessage, _T("CBMemPool::pFlag alloc ERROR"));

  00089	68 00 00 00 00	 push	 OFFSET ??_C@_0BN@GNGFODAA@CBMemPool?3?3pFlag?5alloc?5ERROR?$AA@
  0008e	68 00 00 00 00	 push	 OFFSET ?g_szMessage@@3PADA ; g_szMessage
  00093	e8 00 00 00 00	 call	 _sprintf
  00098	83 c4 0c	 add	 esp, 12			; 0000000cH

; 121  : 		return 0;

  0009b	33 c0		 xor	 eax, eax
  0009d	5f		 pop	 edi
  0009e	5e		 pop	 esi
  0009f	5b		 pop	 ebx

; 129  : }

  000a0	8b e5		 mov	 esp, ebp
  000a2	5d		 pop	 ebp
  000a3	c2 04 00	 ret	 4
$LN8@alloc:

; 122  : 	}
; 123  : 	memset(pFlag, 0, sizeof(pFlag));
; 124  : 
; 125  : 	_stprintf(g_szMessage, _T("CBMemPool __alloc m_nAllocCount[%d]"), nMaxCount);

  000a6	56		 push	 esi
  000a7	68 00 00 00 00	 push	 OFFSET ??_C@_0CE@EAOGLOLF@CBMemPool?5__alloc?5m_nAllocCount?$FL@
  000ac	68 00 00 00 00	 push	 OFFSET ?g_szMessage@@3PADA ; g_szMessage
  000b1	c7 03 00 00 00
	00		 mov	 DWORD PTR [ebx], 0
  000b7	e8 00 00 00 00	 call	 _sprintf

; 126  : 	m_pChunk = pPool;

  000bc	8b 45 fc	 mov	 eax, DWORD PTR _this$1$[ebp]
  000bf	83 c4 0c	 add	 esp, 12			; 0000000cH
  000c2	89 78 14	 mov	 DWORD PTR [eax+20], edi

; 127  : 	m_nFlagArray = pFlag;

  000c5	89 58 10	 mov	 DWORD PTR [eax+16], ebx

; 128  : 	return nMaxCount;

  000c8	8b c6		 mov	 eax, esi
  000ca	5f		 pop	 edi
  000cb	5e		 pop	 esi
  000cc	5b		 pop	 ebx

; 129  : }

  000cd	8b e5		 mov	 esp, ebp
  000cf	5d		 pop	 ebp
  000d0	c2 04 00	 ret	 4
?__alloc@?$CBMemPool@USTValue@@@@AAEHH@Z ENDP		; CBMemPool<STValue>::__alloc
_TEXT	ENDS
; Function compile flags: /Ogtp
; File e:\infinia-library-3.0\com\include\combmempool.h
;	COMDAT ?__unit_alloc@?$CBMemPool@USTValue@@@@AAEPAUSTValue@@XZ
_TEXT	SEGMENT
?__unit_alloc@?$CBMemPool@USTValue@@@@AAEPAUSTValue@@XZ PROC ; CBMemPool<STValue>::__unit_alloc, COMDAT
; _this$ = ecx

; 135  : 	switch (m_nObjAllocType) {

  00000	8b 41 0c	 mov	 eax, DWORD PTR [ecx+12]
  00003	83 e8 02	 sub	 eax, 2
  00006	74 1b		 je	 SHORT $LN4@unit_alloc
  00008	83 e8 01	 sub	 eax, 1
  0000b	74 08		 je	 SHORT $LN5@unit_alloc
  0000d	83 e8 02	 sub	 eax, 2
  00010	74 11		 je	 SHORT $LN4@unit_alloc

; 139  : 	default: return NULL;

  00012	33 c0		 xor	 eax, eax

; 140  : 	}
; 141  : }

  00014	c3		 ret	 0
$LN5@unit_alloc:

; 138  : 	case eAlloc_Type_alloc		:	return (MEMTYPE *)calloc(1, sizeof(MEMTYPE));

  00015	6a 08		 push	 8
  00017	6a 01		 push	 1
  00019	ff 15 00 00 00
	00		 call	 DWORD PTR __imp__calloc
  0001f	83 c4 08	 add	 esp, 8

; 140  : 	}
; 141  : }

  00022	c3		 ret	 0
$LN4@unit_alloc:

; 136  : 	case eAlloc_Type_new		:	
; 137  : 	case eAlloc_Type_newArray	:	return new (std::nothrow) MEMTYPE;

  00023	68 00 00 00 00	 push	 OFFSET ?nothrow@std@@3Unothrow_t@1@B ; std::nothrow
  00028	6a 08		 push	 8
  0002a	e8 00 00 00 00	 call	 ??2@YAPAXIABUnothrow_t@std@@@Z ; operator new
  0002f	83 c4 08	 add	 esp, 8

; 140  : 	}
; 141  : }

  00032	c3		 ret	 0
?__unit_alloc@?$CBMemPool@USTValue@@@@AAEPAUSTValue@@XZ ENDP ; CBMemPool<STValue>::__unit_alloc
_TEXT	ENDS
; Function compile flags: /Ogtp
; File e:\infinia-library-3.0\com\include\combmempool.h
; File e:\infinia-library-3.0\com\include\comtypes.h
; File e:\infinia-library-3.0\com\include\combmempool.h
;	COMDAT ?delMem@?$CBMemPool@USTValue@@@@QAE_NPAUSTValue@@@Z
_TEXT	SEGMENT
_pUsedMem$ = 8						; size = 4
?delMem@?$CBMemPool@USTValue@@@@QAE_NPAUSTValue@@@Z PROC ; CBMemPool<STValue>::delMem, COMDAT
; _this$ = ecx

; 193  : {

  00000	55		 push	 ebp
  00001	8b ec		 mov	 ebp, esp
  00003	56		 push	 esi

; 194  : 	int nIdx = int(pUsedMem - m_pChunk);

  00004	8b 75 08	 mov	 esi, DWORD PTR _pUsedMem$[ebp]
  00007	8b d6		 mov	 edx, esi
  00009	2b 51 14	 sub	 edx, DWORD PTR [ecx+20]
  0000c	c1 fa 03	 sar	 edx, 3
; File e:\infinia-library-3.0\com\include\comtypes.h

; 322  : inline bool ISINCLUDE(int i, int max) { if (0 <= i && i < max) return true; return false; }

  0000f	85 d2		 test	 edx, edx
  00011	78 16		 js	 SHORT $LN4@delMem
  00013	3b 51 08	 cmp	 edx, DWORD PTR [ecx+8]
  00016	7d 11		 jge	 SHORT $LN4@delMem
; File e:\infinia-library-3.0\com\include\combmempool.h

; 197  : 		m_nFlagArray[nIdx] = 0;

  00018	8b 41 10	 mov	 eax, DWORD PTR [ecx+16]
  0001b	5e		 pop	 esi
  0001c	c6 04 02 00	 mov	 BYTE PTR [edx+eax], 0

; 198  : 		m_nUseCnt--;
; 199  : 		return true;

  00020	b0 01		 mov	 al, 1
  00022	ff 49 04	 dec	 DWORD PTR [ecx+4]

; 208  : }

  00025	5d		 pop	 ebp
  00026	c2 04 00	 ret	 4
$LN4@delMem:

; 200  : 	}
; 201  : 	if (m_bSlot) return false;

  00029	80 39 00	 cmp	 BYTE PTR [ecx], 0
  0002c	75 1d		 jne	 SHORT $LN9@delMem

; 202  : 	switch (m_nObjAllocType) {

  0002e	8b 41 0c	 mov	 eax, DWORD PTR [ecx+12]
  00031	83 e8 02	 sub	 eax, 2
  00034	74 0a		 je	 SHORT $LN6@delMem
  00036	83 e8 01	 sub	 eax, 1
  00039	74 17		 je	 SHORT $LN7@delMem
  0003b	83 e8 02	 sub	 eax, 2
  0003e	75 0b		 jne	 SHORT $LN9@delMem
$LN6@delMem:

; 203  : 	case eAlloc_Type_new:	
; 204  : 	case eAlloc_Type_newArray:	delete pUsedMem; break;

  00040	6a 08		 push	 8
  00042	56		 push	 esi
  00043	e8 00 00 00 00	 call	 ??3@YAXPAXI@Z		; operator delete
  00048	83 c4 08	 add	 esp, 8
$LN9@delMem:

; 206  : 	}
; 207  : 	return false;

  0004b	32 c0		 xor	 al, al
  0004d	5e		 pop	 esi

; 208  : }

  0004e	5d		 pop	 ebp
  0004f	c2 04 00	 ret	 4
$LN7@delMem:

; 205  : 	case eAlloc_Type_alloc:	free(pUsedMem); break;

  00052	56		 push	 esi
  00053	ff 15 00 00 00
	00		 call	 DWORD PTR __imp__free
  00059	83 c4 04	 add	 esp, 4

; 206  : 	}
; 207  : 	return false;

  0005c	32 c0		 xor	 al, al
  0005e	5e		 pop	 esi

; 208  : }

  0005f	5d		 pop	 ebp
  00060	c2 04 00	 ret	 4
?delMem@?$CBMemPool@USTValue@@@@QAE_NPAUSTValue@@@Z ENDP ; CBMemPool<STValue>::delMem
_TEXT	ENDS
; Function compile flags: /Ogtp
; File e:\infinia-library-3.0\com\include\combmempool.h
;	COMDAT ?newMem@?$CBMemPool@USTValue@@@@QAEPAUSTValue@@XZ
_TEXT	SEGMENT
?newMem@?$CBMemPool@USTValue@@@@QAEPAUSTValue@@XZ PROC	; CBMemPool<STValue>::newMem, COMDAT
; _this$ = ecx

; 145  : {

  00000	56		 push	 esi
  00001	8b f1		 mov	 esi, ecx
  00003	57		 push	 edi

; 146  : 	int i = m_nUseCnt, j;

  00004	8b 4e 04	 mov	 ecx, DWORD PTR [esi+4]

; 147  : 	if (m_nUseCnt == m_nAllocCount) {

  00007	8b 7e 08	 mov	 edi, DWORD PTR [esi+8]
  0000a	3b cf		 cmp	 ecx, edi
  0000c	75 3e		 jne	 SHORT $LN5@newMem

; 148  : 		if (m_bSlot) return NULL;

  0000e	80 3e 00	 cmp	 BYTE PTR [esi], 0
  00011	75 12		 jne	 SHORT $LN34@newMem

; 135  : 	switch (m_nObjAllocType) {

  00013	8b 46 0c	 mov	 eax, DWORD PTR [esi+12]
  00016	83 e8 02	 sub	 eax, 2
  00019	74 1f		 je	 SHORT $LN14@newMem
  0001b	83 e8 01	 sub	 eax, 1
  0001e	74 0a		 je	 SHORT $LN15@newMem
  00020	83 e8 02	 sub	 eax, 2
  00023	74 15		 je	 SHORT $LN14@newMem
$LN34@newMem:
  00025	5f		 pop	 edi

; 139  : 	default: return NULL;

  00026	33 c0		 xor	 eax, eax
  00028	5e		 pop	 esi

; 161  : 	return __unit_alloc();
; 162  : }

  00029	c3		 ret	 0
$LN15@newMem:

; 138  : 	case eAlloc_Type_alloc		:	return (MEMTYPE *)calloc(1, sizeof(MEMTYPE));

  0002a	6a 08		 push	 8
  0002c	6a 01		 push	 1
  0002e	ff 15 00 00 00
	00		 call	 DWORD PTR __imp__calloc
  00034	83 c4 08	 add	 esp, 8
  00037	5f		 pop	 edi
  00038	5e		 pop	 esi

; 161  : 	return __unit_alloc();
; 162  : }

  00039	c3		 ret	 0
$LN14@newMem:

; 137  : 	case eAlloc_Type_newArray	:	return new (std::nothrow) MEMTYPE;

  0003a	68 00 00 00 00	 push	 OFFSET ?nothrow@std@@3Unothrow_t@1@B ; std::nothrow
  0003f	6a 08		 push	 8
  00041	e8 00 00 00 00	 call	 ??2@YAPAXIABUnothrow_t@std@@@Z ; operator new
  00046	83 c4 08	 add	 esp, 8
  00049	5f		 pop	 edi
  0004a	5e		 pop	 esi

; 161  : 	return __unit_alloc();
; 162  : }

  0004b	c3		 ret	 0
$LN5@newMem:

; 149  : 		return __unit_alloc();
; 150  : 	}
; 151  : 	for (j = 0; j < m_nAllocCount; j++) {

  0004c	33 d2		 xor	 edx, edx
  0004e	53		 push	 ebx
  0004f	85 ff		 test	 edi, edi
  00051	7e 17		 jle	 SHORT $LN3@newMem

; 152  : 		if (i >= m_nAllocCount) { i = 0; }
; 153  : 		if (!m_nFlagArray[i]) {

  00053	8b 5e 10	 mov	 ebx, DWORD PTR [esi+16]
$LL4@newMem:
  00056	33 c0		 xor	 eax, eax
  00058	3b cf		 cmp	 ecx, edi
  0005a	0f 4c c1	 cmovl	 eax, ecx
  0005d	8b c8		 mov	 ecx, eax
  0005f	80 3c 19 00	 cmp	 BYTE PTR [ecx+ebx], 0
  00063	74 22		 je	 SHORT $LN26@newMem

; 149  : 		return __unit_alloc();
; 150  : 	}
; 151  : 	for (j = 0; j < m_nAllocCount; j++) {

  00065	42		 inc	 edx
  00066	3b d7		 cmp	 edx, edi
  00068	7c ec		 jl	 SHORT $LL4@newMem
$LN3@newMem:

; 158  : 		}
; 159  : 	}
; 160  : 	if (m_bSlot) return NULL;

  0006a	80 3e 00	 cmp	 BYTE PTR [esi], 0
  0006d	75 12		 jne	 SHORT $LN33@newMem

; 135  : 	switch (m_nObjAllocType) {

  0006f	8b 46 0c	 mov	 eax, DWORD PTR [esi+12]
  00072	83 e8 02	 sub	 eax, 2
  00075	74 3f		 je	 SHORT $LN21@newMem
  00077	83 e8 01	 sub	 eax, 1
  0007a	74 29		 je	 SHORT $LN22@newMem
  0007c	83 e8 02	 sub	 eax, 2
  0007f	74 35		 je	 SHORT $LN21@newMem
$LN33@newMem:
  00081	5b		 pop	 ebx
  00082	5f		 pop	 edi

; 139  : 	default: return NULL;

  00083	33 c0		 xor	 eax, eax
  00085	5e		 pop	 esi

; 161  : 	return __unit_alloc();
; 162  : }

  00086	c3		 ret	 0
$LN26@newMem:

; 154  : 			m_nFlagArray[i] = 1;

  00087	c6 04 19 01	 mov	 BYTE PTR [ecx+ebx], 1
  0008b	0f 57 c0	 xorps	 xmm0, xmm0

; 155  : 			memset(&m_pChunk[i], 0, sizeof(MEMTYPE));

  0008e	8b 46 14	 mov	 eax, DWORD PTR [esi+20]
  00091	c1 e1 03	 shl	 ecx, 3
  00094	5b		 pop	 ebx
  00095	5f		 pop	 edi
  00096	66 0f d6 04 08	 movq	 QWORD PTR [eax+ecx], xmm0

; 156  : 			m_nUseCnt++;
; 157  : 			return &m_pChunk[i];

  0009b	8b 46 14	 mov	 eax, DWORD PTR [esi+20]
  0009e	ff 46 04	 inc	 DWORD PTR [esi+4]
  000a1	03 c1		 add	 eax, ecx
  000a3	5e		 pop	 esi

; 161  : 	return __unit_alloc();
; 162  : }

  000a4	c3		 ret	 0
$LN22@newMem:

; 138  : 	case eAlloc_Type_alloc		:	return (MEMTYPE *)calloc(1, sizeof(MEMTYPE));

  000a5	6a 08		 push	 8
  000a7	6a 01		 push	 1
  000a9	ff 15 00 00 00
	00		 call	 DWORD PTR __imp__calloc
  000af	83 c4 08	 add	 esp, 8
  000b2	5b		 pop	 ebx
  000b3	5f		 pop	 edi
  000b4	5e		 pop	 esi

; 161  : 	return __unit_alloc();
; 162  : }

  000b5	c3		 ret	 0
$LN21@newMem:

; 137  : 	case eAlloc_Type_newArray	:	return new (std::nothrow) MEMTYPE;

  000b6	68 00 00 00 00	 push	 OFFSET ?nothrow@std@@3Unothrow_t@1@B ; std::nothrow
  000bb	6a 08		 push	 8
  000bd	e8 00 00 00 00	 call	 ??2@YAPAXIABUnothrow_t@std@@@Z ; operator new
  000c2	83 c4 08	 add	 esp, 8
  000c5	5b		 pop	 ebx
  000c6	5f		 pop	 edi
  000c7	5e		 pop	 esi

; 161  : 	return __unit_alloc();
; 162  : }

  000c8	c3		 ret	 0
?newMem@?$CBMemPool@USTValue@@@@QAEPAUSTValue@@XZ ENDP	; CBMemPool<STValue>::newMem
_TEXT	ENDS
; Function compile flags: /Ogtp
; File e:\infinia-library-3.0\com\include\combmempool.h
;	COMDAT ?alloc@?$CBMemPool@USTValue@@@@QAEHH@Z
_TEXT	SEGMENT
_nMaxCount$ = 8						; size = 4
?alloc@?$CBMemPool@USTValue@@@@QAEHH@Z PROC		; CBMemPool<STValue>::alloc, COMDAT
; _this$ = ecx

; 32   : 	inline int alloc(int nMaxCount) { m_nAllocCount = __alloc(nMaxCount); return m_nAllocCount; }

  00000	55		 push	 ebp
  00001	8b ec		 mov	 ebp, esp
  00003	56		 push	 esi
  00004	ff 75 08	 push	 DWORD PTR _nMaxCount$[ebp]
  00007	8b f1		 mov	 esi, ecx
  00009	e8 00 00 00 00	 call	 ?__alloc@?$CBMemPool@USTValue@@@@AAEHH@Z ; CBMemPool<STValue>::__alloc
  0000e	89 46 08	 mov	 DWORD PTR [esi+8], eax
  00011	5e		 pop	 esi
  00012	5d		 pop	 ebp
  00013	c2 04 00	 ret	 4
?alloc@?$CBMemPool@USTValue@@@@QAEHH@Z ENDP		; CBMemPool<STValue>::alloc
_TEXT	ENDS
; Function compile flags: /Ogtp
; File e:\infinia-library-3.0\com\include\combmempool.h
;	COMDAT ??1?$CBMemPool@USTValue@@@@QAE@XZ
_TEXT	SEGMENT
??1?$CBMemPool@USTValue@@@@QAE@XZ PROC			; CBMemPool<STValue>::~CBMemPool<STValue>, COMDAT
; _this$ = ecx

; 85   : {

  00000	56		 push	 esi
  00001	8b f1		 mov	 esi, ecx

; 86   : 	if (m_pChunk) {

  00003	8b 4e 14	 mov	 ecx, DWORD PTR [esi+20]
  00006	85 c9		 test	 ecx, ecx
  00008	74 22		 je	 SHORT $LN4@CBMemPool

; 87   : 		switch (m_nObjAllocType) {

  0000a	8b 46 0c	 mov	 eax, DWORD PTR [esi+12]
  0000d	83 e8 02	 sub	 eax, 2
  00010	74 0a		 je	 SHORT $LN5@CBMemPool
  00012	83 e8 01	 sub	 eax, 1
  00015	74 2f		 je	 SHORT $LN6@CBMemPool
  00017	83 e8 02	 sub	 eax, 2
  0001a	75 09		 jne	 SHORT $LN2@CBMemPool
$LN5@CBMemPool:

; 88   : 		case eAlloc_Type_new:		
; 89   : 		case eAlloc_Type_newArray:	delete[] m_pChunk;	break;

  0001c	51		 push	 ecx
  0001d	e8 00 00 00 00	 call	 ??_V@YAXPAX@Z		; operator delete[]
$LN9@CBMemPool:
  00022	83 c4 04	 add	 esp, 4
$LN2@CBMemPool:

; 91   : 		}
; 92   : 
; 93   : 		m_pChunk = NULL;

  00025	c7 46 14 00 00
	00 00		 mov	 DWORD PTR [esi+20], 0
$LN4@CBMemPool:

; 94   : 	}
; 95   : 
; 96   : 	if (m_nFlagArray) {

  0002c	8b 46 10	 mov	 eax, DWORD PTR [esi+16]
  0002f	85 c0		 test	 eax, eax
  00031	74 11		 je	 SHORT $LN7@CBMemPool

; 97   : 		free(m_nFlagArray);

  00033	50		 push	 eax
  00034	ff 15 00 00 00
	00		 call	 DWORD PTR __imp__free
  0003a	83 c4 04	 add	 esp, 4

; 98   : 		m_nFlagArray = NULL;

  0003d	c7 46 10 00 00
	00 00		 mov	 DWORD PTR [esi+16], 0
$LN7@CBMemPool:

; 99   : 	}
; 100  : }

  00044	5e		 pop	 esi
  00045	c3		 ret	 0
$LN6@CBMemPool:

; 90   : 		case eAlloc_Type_alloc:		free(m_pChunk);		break;

  00046	51		 push	 ecx
  00047	ff 15 00 00 00
	00		 call	 DWORD PTR __imp__free
  0004d	eb d3		 jmp	 SHORT $LN9@CBMemPool
??1?$CBMemPool@USTValue@@@@QAE@XZ ENDP			; CBMemPool<STValue>::~CBMemPool<STValue>
_TEXT	ENDS
; Function compile flags: /Ogtp
; File e:\infinia-library-3.0\com\include\combmempool.h
;	COMDAT ??0?$CBMemPool@USTValue@@@@QAE@W4E_ALLOC_TYPE@@@Z
_TEXT	SEGMENT
_nType$ = 8						; size = 4
??0?$CBMemPool@USTValue@@@@QAE@W4E_ALLOC_TYPE@@@Z PROC	; CBMemPool<STValue>::CBMemPool<STValue>, COMDAT
; _this$ = ecx

; 74   : {

  00000	55		 push	 ebp
  00001	8b ec		 mov	 ebp, esp

; 75   : 	m_nAllocCount = 0;
; 76   : 	m_pChunk = NULL;
; 77   : 	m_nUseCnt = 0;
; 78   : 	m_nFlagArray = NULL;
; 79   : 	m_nObjAllocType = nType;

  00003	8b 45 08	 mov	 eax, DWORD PTR _nType$[ebp]
  00006	89 41 0c	 mov	 DWORD PTR [ecx+12], eax

; 80   : 	m_bSlot = false;
; 81   : }

  00009	8b c1		 mov	 eax, ecx
  0000b	c7 41 08 00 00
	00 00		 mov	 DWORD PTR [ecx+8], 0
  00012	c7 41 14 00 00
	00 00		 mov	 DWORD PTR [ecx+20], 0
  00019	c7 41 04 00 00
	00 00		 mov	 DWORD PTR [ecx+4], 0
  00020	c7 41 10 00 00
	00 00		 mov	 DWORD PTR [ecx+16], 0
  00027	c6 01 00	 mov	 BYTE PTR [ecx], 0
  0002a	5d		 pop	 ebp
  0002b	c2 04 00	 ret	 4
??0?$CBMemPool@USTValue@@@@QAE@W4E_ALLOC_TYPE@@@Z ENDP	; CBMemPool<STValue>::CBMemPool<STValue>
_TEXT	ENDS
; Function compile flags: /Ogtp
; File e:\infinia-library-3.0\com\src\comdualkeyhash.cpp
;	COMDAT ?getNode@CDKeyHashMap@@QAEPAUSTHash_Node@@PAD0@Z
_TEXT	SEGMENT
_pKey1$ = 8						; size = 4
_pKey2$ = 12						; size = 4
?getNode@CDKeyHashMap@@QAEPAUSTHash_Node@@PAD0@Z PROC	; CDKeyHashMap::getNode, COMDAT
; _this$ = ecx

; 170  : {

  00000	55		 push	 ebp
  00001	8b ec		 mov	 ebp, esp

; 171  : 	STHash_Node *pNode = m_pHashGroup->hashLookup(pKey1);

  00003	ff 75 08	 push	 DWORD PTR _pKey1$[ebp]
  00006	8b 49 08	 mov	 ecx, DWORD PTR [ecx+8]
  00009	e8 00 00 00 00	 call	 ?hashLookup@CHash@@QAEPAUSTHash_Node@@PAD@Z ; CHash::hashLookup

; 172  : 	if (pNode) {

  0000e	85 c0		 test	 eax, eax
  00010	74 0f		 je	 SHORT $LN2@getNode

; 173  : 		CHash *pHash = (CHash *)pNode->value;
; 174  : 		return pHash->hashLookup(pKey2);

  00012	ff 75 0c	 push	 DWORD PTR _pKey2$[ebp]
  00015	8b 48 04	 mov	 ecx, DWORD PTR [eax+4]
  00018	e8 00 00 00 00	 call	 ?hashLookup@CHash@@QAEPAUSTHash_Node@@PAD@Z ; CHash::hashLookup

; 177  : }

  0001d	5d		 pop	 ebp
  0001e	c2 08 00	 ret	 8
$LN2@getNode:

; 175  : 	}
; 176  : 	return NULL;

  00021	33 c0		 xor	 eax, eax

; 177  : }

  00023	5d		 pop	 ebp
  00024	c2 08 00	 ret	 8
?getNode@CDKeyHashMap@@QAEPAUSTHash_Node@@PAD0@Z ENDP	; CDKeyHashMap::getNode
_TEXT	ENDS
; Function compile flags: /Ogtp
; File e:\infinia-library-3.0\com\src\comdualkeyhash.cpp
;	COMDAT ?getHashMap@CDKeyHashMap@@QAEPAVCHash@@PAD@Z
_TEXT	SEGMENT
_pKey1$ = 8						; size = 4
?getHashMap@CDKeyHashMap@@QAEPAVCHash@@PAD@Z PROC	; CDKeyHashMap::getHashMap, COMDAT
; _this$ = ecx

; 164  : {

  00000	55		 push	 ebp
  00001	8b ec		 mov	 ebp, esp

; 165  : 	STHash_Node *pNode = m_pHashGroup->hashLookup(pKey1);

  00003	ff 75 08	 push	 DWORD PTR _pKey1$[ebp]
  00006	8b 49 08	 mov	 ecx, DWORD PTR [ecx+8]
  00009	e8 00 00 00 00	 call	 ?hashLookup@CHash@@QAEPAUSTHash_Node@@PAD@Z ; CHash::hashLookup

; 166  : 	return (CHash *)pNode->value;		// return NULL 

  0000e	8b 40 04	 mov	 eax, DWORD PTR [eax+4]

; 167  : }

  00011	5d		 pop	 ebp
  00012	c2 04 00	 ret	 4
?getHashMap@CDKeyHashMap@@QAEPAVCHash@@PAD@Z ENDP	; CDKeyHashMap::getHashMap
_TEXT	ENDS
; Function compile flags: /Ogtp
; File e:\infinia-library-3.0\com\src\comdualkeyhash.cpp
;	COMDAT ?isNode@CDKeyHashMap@@QAE_NPAD0@Z
_TEXT	SEGMENT
_pKey1$ = 8						; size = 4
_pKey2$ = 12						; size = 4
?isNode@CDKeyHashMap@@QAE_NPAD0@Z PROC			; CDKeyHashMap::isNode, COMDAT
; _this$ = ecx

; 154  : {

  00000	55		 push	 ebp
  00001	8b ec		 mov	 ebp, esp

; 155  : 	STHash_Node *pNode = m_pHashGroup->hashLookup(pKey1);

  00003	ff 75 08	 push	 DWORD PTR _pKey1$[ebp]
  00006	8b 49 08	 mov	 ecx, DWORD PTR [ecx+8]
  00009	e8 00 00 00 00	 call	 ?hashLookup@CHash@@QAEPAUSTHash_Node@@PAD@Z ; CHash::hashLookup

; 156  : 	if (pNode) {

  0000e	85 c0		 test	 eax, eax
  00010	74 15		 je	 SHORT $LN3@isNode

; 157  : 		CHash *pHash = (CHash *)pNode->value;
; 158  : 		if (pHash->hashLookup(pKey2)) return true;

  00012	ff 75 0c	 push	 DWORD PTR _pKey2$[ebp]
  00015	8b 48 04	 mov	 ecx, DWORD PTR [eax+4]
  00018	e8 00 00 00 00	 call	 ?hashLookup@CHash@@QAEPAUSTHash_Node@@PAD@Z ; CHash::hashLookup
  0001d	85 c0		 test	 eax, eax
  0001f	74 06		 je	 SHORT $LN3@isNode
  00021	b0 01		 mov	 al, 1

; 161  : }

  00023	5d		 pop	 ebp
  00024	c2 08 00	 ret	 8
$LN3@isNode:

; 159  : 	}
; 160  : 	return false;

  00027	32 c0		 xor	 al, al

; 161  : }

  00029	5d		 pop	 ebp
  0002a	c2 08 00	 ret	 8
?isNode@CDKeyHashMap@@QAE_NPAD0@Z ENDP			; CDKeyHashMap::isNode
_TEXT	ENDS
; Function compile flags: /Ogtp
; File e:\infinia-library-3.0\com\src\comdualkeyhash.cpp
;	COMDAT ?delValueBuf@CDKeyHashMap@@QAEXPAUSTValue@@@Z
_TEXT	SEGMENT
_pValue$ = 8						; size = 4
?delValueBuf@CDKeyHashMap@@QAEXPAUSTValue@@@Z PROC	; CDKeyHashMap::delValueBuf, COMDAT
; _this$ = ecx

; 248  : { 

  00000	55		 push	 ebp
  00001	8b ec		 mov	 ebp, esp
  00003	57		 push	 edi
  00004	8b f9		 mov	 edi, ecx

; 249  : 	if (m_bValInternal) {

  00006	80 7f 14 00	 cmp	 BYTE PTR [edi+20], 0
  0000a	74 1e		 je	 SHORT $LN2@delValueBu

; 250  : 		gs_pMMgr->delBufByIndex((TCHAR *)pValue->pValue, pValue->nIdx); m_pValue->delMem(pValue);

  0000c	8b 0d 00 00 00
	00		 mov	 ecx, DWORD PTR ?gs_pMMgr@@3PAVCMemManager@@A ; gs_pMMgr
  00012	56		 push	 esi
  00013	8b 75 08	 mov	 esi, DWORD PTR _pValue$[ebp]
  00016	ff 36		 push	 DWORD PTR [esi]
  00018	ff 76 04	 push	 DWORD PTR [esi+4]
  0001b	e8 00 00 00 00	 call	 ?delBufByIndex@CMemManager@@QAEXPADH@Z ; CMemManager::delBufByIndex
  00020	8b 4f 04	 mov	 ecx, DWORD PTR [edi+4]
  00023	56		 push	 esi
  00024	e8 00 00 00 00	 call	 ?delMem@?$CBMemPool@USTValue@@@@QAE_NPAUSTValue@@@Z ; CBMemPool<STValue>::delMem
  00029	5e		 pop	 esi
$LN2@delValueBu:
  0002a	5f		 pop	 edi

; 251  : 	}
; 252  : 
; 253  : 	//   ...  
; 254  : } // value     

  0002b	5d		 pop	 ebp
  0002c	c2 04 00	 ret	 4
?delValueBuf@CDKeyHashMap@@QAEXPAUSTValue@@@Z ENDP	; CDKeyHashMap::delValueBuf
_TEXT	ENDS
; Function compile flags: /Ogtp
; File e:\infinia-library-3.0\com\src\comdualkeyhash.cpp
; File e:\infinia-library-3.0\com\include\combufpool.h
; File e:\infinia-library-3.0\com\src\comdualkeyhash.cpp
; File e:\infinia-library-3.0\com\include\commemmanager.h
; File e:\infinia-library-3.0\com\include\combufpool.h
; File e:\infinia-library-3.0\com\include\commemmanager.h
; File e:\infinia-library-3.0\com\src\comdualkeyhash.cpp
; File e:\infinia-library-3.0\com\include\comtypes.h
; File e:\infinia-library-3.0\com\src\comdualkeyhash.cpp
;	COMDAT ?newValueBuf@CDKeyHashMap@@QAEPAUSTValue@@HPAD@Z
_TEXT	SEGMENT
_$S1$1 = -8						; size = 8
_pValueBuf$1$ = 8					; size = 4
_size$ = 8						; size = 4
_pValue$ = 12						; size = 4
?newValueBuf@CDKeyHashMap@@QAEPAUSTValue@@HPAD@Z PROC	; CDKeyHashMap::newValueBuf, COMDAT
; _this$ = ecx

; 235  : {

  00000	55		 push	 ebp
  00001	8b ec		 mov	 ebp, esp
  00003	83 ec 08	 sub	 esp, 8

; 237  : 	STValue *pSTValue = m_pValue->newMem();

  00006	8b 49 04	 mov	 ecx, DWORD PTR [ecx+4]
  00009	53		 push	 ebx
  0000a	56		 push	 esi
  0000b	57		 push	 edi
  0000c	e8 00 00 00 00	 call	 ?newMem@?$CBMemPool@USTValue@@@@QAEPAUSTValue@@XZ ; CBMemPool<STValue>::newMem
; File e:\infinia-library-3.0\com\include\combufpool.h

; 51   : inline int getIndex(int s) { int m; union { double x; int b[2]; }; x = s; m = (b[1] >> 20) - 1023; return m + ((s&(s - (1 << m))) ? 1 : 0); }

  00011	8b 75 08	 mov	 esi, DWORD PTR _size$[ebp]
  00014	ba 01 00 00 00	 mov	 edx, 1
  00019	8b fe		 mov	 edi, esi
; File e:\infinia-library-3.0\com\src\comdualkeyhash.cpp

; 237  : 	STValue *pSTValue = m_pValue->newMem();

  0001b	8b d8		 mov	 ebx, eax
; File e:\infinia-library-3.0\com\include\commemmanager.h

; 35   : 	inline char *newBuf(int nSize, int *pIndex) { *pIndex = getIndex(nSize);  return __newBuf(*pIndex, nSize); }

  0001d	56		 push	 esi
  0001e	66 0f 6e c6	 movd	 xmm0, esi
; File e:\infinia-library-3.0\com\include\combufpool.h

; 51   : inline int getIndex(int s) { int m; union { double x; int b[2]; }; x = s; m = (b[1] >> 20) - 1023; return m + ((s&(s - (1 << m))) ? 1 : 0); }

  00022	f3 0f e6 c0	 cvtdq2pd xmm0, xmm0
  00026	f2 0f 11 45 f8	 movsd	 QWORD PTR _$S1$1[ebp], xmm0
  0002b	8b 4d fc	 mov	 ecx, DWORD PTR _$S1$1[ebp+4]
  0002e	c1 f9 14	 sar	 ecx, 20			; 00000014H
  00031	81 e9 ff 03 00
	00		 sub	 ecx, 1023		; 000003ffH
  00037	d3 e2		 shl	 edx, cl
  00039	2b fa		 sub	 edi, edx
  0003b	23 fe		 and	 edi, esi
  0003d	f7 df		 neg	 edi
  0003f	1b ff		 sbb	 edi, edi
  00041	f7 df		 neg	 edi
  00043	03 f9		 add	 edi, ecx
; File e:\infinia-library-3.0\com\include\commemmanager.h

; 35   : 	inline char *newBuf(int nSize, int *pIndex) { *pIndex = getIndex(nSize);  return __newBuf(*pIndex, nSize); }

  00045	8b 0d 00 00 00
	00		 mov	 ecx, DWORD PTR ?gs_pMMgr@@3PAVCMemManager@@A ; gs_pMMgr
  0004b	57		 push	 edi
  0004c	e8 00 00 00 00	 call	 ?__newBuf@CMemManager@@AAEPADHI@Z ; CMemManager::__newBuf
; File e:\infinia-library-3.0\com\src\comdualkeyhash.cpp

; 238  : 	TCHAR *pValueBuf = gs_pMMgr->newBuf(size, &nIdx);

  00051	89 45 08	 mov	 DWORD PTR _pValueBuf$1$[ebp], eax
; File e:\infinia-library-3.0\com\include\comtypes.h

; 309  : inline void *c_memcpy(void *de, const void *so, int l) { char *d = (char*)de; const char *s = (char*)so; while (l--) *d++ = *s++; return de;}

  00054	8b c8		 mov	 ecx, eax
  00056	85 f6		 test	 esi, esi
  00058	74 17		 je	 SHORT $LN12@newValueBu
  0005a	8b 55 0c	 mov	 edx, DWORD PTR _pValue$[ebp]
  0005d	2b d0		 sub	 edx, eax
  0005f	90		 npad	 1
$LL8@newValueBu:
  00060	8a 04 0a	 mov	 al, BYTE PTR [edx+ecx]
  00063	8d 49 01	 lea	 ecx, DWORD PTR [ecx+1]
  00066	88 41 ff	 mov	 BYTE PTR [ecx-1], al
  00069	83 ee 01	 sub	 esi, 1
  0006c	75 f2		 jne	 SHORT $LL8@newValueBu
  0006e	8b 45 08	 mov	 eax, DWORD PTR _pValueBuf$1$[ebp]
$LN12@newValueBu:
; File e:\infinia-library-3.0\com\src\comdualkeyhash.cpp

; 240  : 	pSTValue->nIdx = nIdx;

  00071	89 3b		 mov	 DWORD PTR [ebx], edi
  00073	5f		 pop	 edi

; 241  : 	pSTValue->pValue = pValueBuf;

  00074	89 43 04	 mov	 DWORD PTR [ebx+4], eax

; 242  : 
; 243  : 	return pSTValue;

  00077	8b c3		 mov	 eax, ebx
  00079	5e		 pop	 esi
  0007a	5b		 pop	 ebx

; 244  : }

  0007b	8b e5		 mov	 esp, ebp
  0007d	5d		 pop	 ebp
  0007e	c2 08 00	 ret	 8
?newValueBuf@CDKeyHashMap@@QAEPAUSTValue@@HPAD@Z ENDP	; CDKeyHashMap::newValueBuf
_TEXT	ENDS
; Function compile flags: /Ogtp
; File e:\infinia-library-3.0\com\src\comdualkeyhash.cpp
; File e:\infinia-library-3.0\com\include\combufpool.h
; File e:\infinia-library-3.0\com\src\comdualkeyhash.cpp
; File e:\infinia-library-3.0\com\include\combufpool.h
; File e:\infinia-library-3.0\com\include\commemmanager.h
; File e:\infinia-library-3.0\com\src\comdualkeyhash.cpp
;	COMDAT ?deleteNode@CDKeyHashMap@@QAE_NPAD0@Z
_TEXT	SEGMENT
_$S1$1 = -8						; size = 8
_pKey1$ = 8						; size = 4
_pKey2$ = 12						; size = 4
?deleteNode@CDKeyHashMap@@QAE_NPAD0@Z PROC		; CDKeyHashMap::deleteNode, COMDAT
; _this$ = ecx

; 212  : {

  00000	55		 push	 ebp
  00001	8b ec		 mov	 ebp, esp
  00003	83 ec 08	 sub	 esp, 8
  00006	53		 push	 ebx
  00007	8b d9		 mov	 ebx, ecx
  00009	57		 push	 edi

; 213  : 	SThash_next **ppPrev=NULL;
; 214  : 	SThash_next *pNext1, *pCur2;
; 215  : 
; 216  : 	pNext1 = m_pHashGroup->getNext(pKey1);

  0000a	ff 75 08	 push	 DWORD PTR _pKey1$[ebp]
  0000d	8b 4b 08	 mov	 ecx, DWORD PTR [ebx+8]
  00010	e8 00 00 00 00	 call	 ?getNext@CHash@@QAEPAUSThash_next@@PAD@Z ; CHash::getNext

; 217  : 
; 218  : 	if (pNext1) {

  00015	85 c0		 test	 eax, eax
  00017	0f 84 a3 00 00
	00		 je	 $LN3@deleteNode

; 219  : 		CHash *pHash = (CHash *)pNext1->pNode.value;
; 220  : 		pCur2 = pHash->getNode(pKey2, ppPrev);

  0001d	8b 48 04	 mov	 ecx, DWORD PTR [eax+4]
  00020	6a 00		 push	 0
  00022	ff 75 0c	 push	 DWORD PTR _pKey2$[ebp]
  00025	e8 00 00 00 00	 call	 ?getNode@CHash@@QAEPAUSThash_next@@PADPAPAU2@@Z ; CHash::getNode
  0002a	8b f8		 mov	 edi, eax

; 221  : 		if (pCur2) {

  0002c	85 ff		 test	 edi, edi
  0002e	0f 84 8c 00 00
	00		 je	 $LN3@deleteNode

; 222  : 			*ppPrev = pCur2->next;  // NULL  .

  00034	8b 4f 08	 mov	 ecx, DWORD PTR [edi+8]
  00037	89 0d 00 00 00
	00		 mov	 DWORD PTR ds:0, ecx

; 223  : 			gs_pMMgr->delBuf(pCur2->pNode.pKey, STRING_SIZE(pCur2->pNode.pKey));	// key2  

  0003d	8b 17		 mov	 edx, DWORD PTR [edi]
  0003f	8d 4a 01	 lea	 ecx, DWORD PTR [edx+1]
$LL13@deleteNode:
  00042	8a 02		 mov	 al, BYTE PTR [edx]
  00044	42		 inc	 edx
  00045	84 c0		 test	 al, al
  00047	75 f9		 jne	 SHORT $LL13@deleteNode
  00049	2b d1		 sub	 edx, ecx
; File e:\infinia-library-3.0\com\include\combufpool.h

; 51   : inline int getIndex(int s) { int m; union { double x; int b[2]; }; x = s; m = (b[1] >> 20) - 1023; return m + ((s&(s - (1 << m))) ? 1 : 0); }

  0004b	b8 01 00 00 00	 mov	 eax, 1
; File e:\infinia-library-3.0\com\src\comdualkeyhash.cpp

; 223  : 			gs_pMMgr->delBuf(pCur2->pNode.pKey, STRING_SIZE(pCur2->pNode.pKey));	// key2  

  00050	42		 inc	 edx
  00051	56		 push	 esi
  00052	66 0f 6e c2	 movd	 xmm0, edx
; File e:\infinia-library-3.0\com\include\combufpool.h

; 51   : inline int getIndex(int s) { int m; union { double x; int b[2]; }; x = s; m = (b[1] >> 20) - 1023; return m + ((s&(s - (1 << m))) ? 1 : 0); }

  00056	f3 0f e6 c0	 cvtdq2pd xmm0, xmm0
  0005a	f2 0f 11 45 f8	 movsd	 QWORD PTR _$S1$1[ebp], xmm0
  0005f	8b 75 fc	 mov	 esi, DWORD PTR _$S1$1[ebp+4]
  00062	c1 fe 14	 sar	 esi, 20			; 00000014H
  00065	81 ee ff 03 00
	00		 sub	 esi, 1023		; 000003ffH
  0006b	8b ce		 mov	 ecx, esi
  0006d	d3 e0		 shl	 eax, cl
  0006f	8b ca		 mov	 ecx, edx
  00071	2b c8		 sub	 ecx, eax
  00073	23 ca		 and	 ecx, edx
  00075	f7 d9		 neg	 ecx
  00077	1b c9		 sbb	 ecx, ecx
  00079	f7 d9		 neg	 ecx
  0007b	03 ce		 add	 ecx, esi
; File e:\infinia-library-3.0\com\include\commemmanager.h

; 38   : 	inline void delBuf(char *pBuf, int nSize) { int nIdx = getIndex(nSize); delBufByIndex(pBuf, nIdx); }

  0007d	51		 push	 ecx
  0007e	ff 37		 push	 DWORD PTR [edi]
  00080	8b 0d 00 00 00
	00		 mov	 ecx, DWORD PTR ?gs_pMMgr@@3PAVCMemManager@@A ; gs_pMMgr
  00086	e8 00 00 00 00	 call	 ?delBufByIndex@CMemManager@@QAEXPADH@Z ; CMemManager::delBufByIndex
; File e:\infinia-library-3.0\com\src\comdualkeyhash.cpp

; 224  : 			if (m_bValInternal)delValueBuf((STValue *)pCur2->pNode.value);	// key2  value  

  0008b	80 7b 14 00	 cmp	 BYTE PTR [ebx+20], 0
  0008f	74 1c		 je	 SHORT $LN11@deleteNode
  00091	8b 77 04	 mov	 esi, DWORD PTR [edi+4]

; 250  : 		gs_pMMgr->delBufByIndex((TCHAR *)pValue->pValue, pValue->nIdx); m_pValue->delMem(pValue);

  00094	8b 0d 00 00 00
	00		 mov	 ecx, DWORD PTR ?gs_pMMgr@@3PAVCMemManager@@A ; gs_pMMgr
  0009a	ff 36		 push	 DWORD PTR [esi]
  0009c	ff 76 04	 push	 DWORD PTR [esi+4]
  0009f	e8 00 00 00 00	 call	 ?delBufByIndex@CMemManager@@QAEXPADH@Z ; CMemManager::delBufByIndex
  000a4	8b 4b 04	 mov	 ecx, DWORD PTR [ebx+4]
  000a7	56		 push	 esi
  000a8	e8 00 00 00 00	 call	 ?delMem@?$CBMemPool@USTValue@@@@QAE_NPAUSTValue@@@Z ; CBMemPool<STValue>::delMem
$LN11@deleteNode:

; 225  : 			m_pHashNext->delMem(pCur2);										// key2,value,next  node 

  000ad	8b 0b		 mov	 ecx, DWORD PTR [ebx]
  000af	57		 push	 edi
  000b0	e8 00 00 00 00	 call	 ?delMem@?$CBMemPool@USThash_next@@@@QAE_NPAUSThash_next@@@Z ; CBMemPool<SThash_next>::delMem
  000b5	5e		 pop	 esi
  000b6	5f		 pop	 edi

; 226  : 
; 227  : 			return true;

  000b7	b0 01		 mov	 al, 1
  000b9	5b		 pop	 ebx

; 231  : }

  000ba	8b e5		 mov	 esp, ebp
  000bc	5d		 pop	 ebp
  000bd	c2 08 00	 ret	 8
$LN3@deleteNode:
  000c0	5f		 pop	 edi

; 228  : 		}
; 229  : 	}
; 230  : 	return false;

  000c1	32 c0		 xor	 al, al
  000c3	5b		 pop	 ebx

; 231  : }

  000c4	8b e5		 mov	 esp, ebp
  000c6	5d		 pop	 ebp
  000c7	c2 08 00	 ret	 8
?deleteNode@CDKeyHashMap@@QAE_NPAD0@Z ENDP		; CDKeyHashMap::deleteNode
_TEXT	ENDS
; Function compile flags: /Ogtp
; File e:\infinia-library-3.0\com\src\comdualkeyhash.cpp
; File e:\infinia-library-3.0\com\include\combufpool.h
; File e:\infinia-library-3.0\com\src\comdualkeyhash.cpp
; File e:\infinia-library-3.0\com\include\combufpool.h
; File e:\infinia-library-3.0\com\include\commemmanager.h
; File e:\infinia-library-3.0\com\src\comdualkeyhash.cpp
; File e:\infinia-library-3.0\com\include\combmempool.h
; File e:\infinia-library-3.0\com\include\comtypes.h
; File e:\infinia-library-3.0\com\include\combmempool.h
; File e:\infinia-library-3.0\com\src\comdualkeyhash.cpp
; File e:\infinia-library-3.0\com\include\combmempool.h
; File e:\infinia-library-3.0\com\include\comtypes.h
; File e:\infinia-library-3.0\com\include\combmempool.h
; File e:\infinia-library-3.0\com\src\comdualkeyhash.cpp
; File e:\infinia-library-3.0\com\include\combufpool.h
; File e:\infinia-library-3.0\com\src\comdualkeyhash.cpp
; File e:\infinia-library-3.0\com\include\combufpool.h
; File e:\infinia-library-3.0\com\include\commemmanager.h
; File e:\infinia-library-3.0\com\src\comdualkeyhash.cpp
; File e:\infinia-library-3.0\com\include\combmempool.h
; File e:\infinia-library-3.0\com\include\comtypes.h
; File e:\infinia-library-3.0\com\include\combmempool.h
; File e:\infinia-library-3.0\com\src\comdualkeyhash.cpp
; File e:\infinia-library-3.0\com\include\combmempool.h
; File e:\infinia-library-3.0\com\src\comdualkeyhash.cpp
; File e:\infinia-library-3.0\com\include\combmempool.h
; File e:\infinia-library-3.0\com\src\comdualkeyhash.cpp
; File e:\infinia-library-3.0\com\include\combmempool.h
; File e:\infinia-library-3.0\com\src\comdualkeyhash.cpp
;	COMDAT ?deleteHash@CDKeyHashMap@@QAE_NPAD@Z
_TEXT	SEGMENT
_$S1$1 = -20						; size = 8
_$S1$2 = -20						; size = 8
_pCur$1$ = -12						; size = 4
_this$1$ = -8						; size = 4
_pHash$1$ = -4						; size = 4
tv458 = 8						; size = 4
_j$1$ = 8						; size = 4
_pKey1$ = 8						; size = 4
?deleteHash@CDKeyHashMap@@QAE_NPAD@Z PROC		; CDKeyHashMap::deleteHash, COMDAT
; _this$ = ecx

; 180  : {

  00000	55		 push	 ebp
  00001	8b ec		 mov	 ebp, esp
  00003	83 ec 14	 sub	 esp, 20			; 00000014H
  00006	53		 push	 ebx
  00007	57		 push	 edi
  00008	8b d9		 mov	 ebx, ecx

; 181  : 	SThash_next **ppPrev=NULL;
; 182  : 	SThash_next *pNext2;
; 183  : 	SThash_next *pCur = m_pHashGroup->getNode(pKey1, ppPrev);

  0000a	6a 00		 push	 0
  0000c	ff 75 08	 push	 DWORD PTR _pKey1$[ebp]
  0000f	89 5d f8	 mov	 DWORD PTR _this$1$[ebp], ebx
  00012	8b 4b 08	 mov	 ecx, DWORD PTR [ebx+8]
  00015	e8 00 00 00 00	 call	 ?getNode@CHash@@QAEPAUSThash_next@@PADPAPAU2@@Z ; CHash::getNode
  0001a	8b f8		 mov	 edi, eax
  0001c	89 7d f4	 mov	 DWORD PTR _pCur$1$[ebp], edi

; 184  : 	CHash *pHash;
; 185  : 	unsigned int j;
; 186  : 
; 187  : 	if (pCur) {

  0001f	85 ff		 test	 edi, edi
  00021	0f 84 4f 02 00
	00		 je	 $LN7@deleteHash

; 188  : 		*ppPrev = pCur->next; // NULL  .

  00027	8b 4f 08	 mov	 ecx, DWORD PTR [edi+8]

; 189  : 
; 190  : 		pHash = (CHash *)pCur->pNode.value;
; 191  : 		for (j = 0; j < m_nMaxCount2; j++) {

  0002a	33 c0		 xor	 eax, eax
  0002c	89 0d 00 00 00
	00		 mov	 DWORD PTR ds:0, ecx
  00032	8b 4f 04	 mov	 ecx, DWORD PTR [edi+4]
  00035	56		 push	 esi
  00036	89 4d fc	 mov	 DWORD PTR _pHash$1$[ebp], ecx
  00039	89 45 08	 mov	 DWORD PTR _j$1$[ebp], eax
  0003c	39 43 10	 cmp	 DWORD PTR [ebx+16], eax
  0003f	0f 86 3d 01 00
	00		 jbe	 $LN3@deleteHash
$LL4@deleteHash:

; 192  : 			pNext2 = pHash->getNext(j);

  00045	50		 push	 eax
  00046	e8 00 00 00 00	 call	 ?getNext@CHash@@QAEPAUSThash_next@@I@Z ; CHash::getNext
  0004b	8b f8		 mov	 edi, eax

; 193  : 			while (pNext2) {

  0004d	85 ff		 test	 edi, edi
  0004f	0f 84 17 01 00
	00		 je	 $LN2@deleteHash
$LL5@deleteHash:

; 194  : 				gs_pMMgr->delBuf(pNext2->pNode.pKey, STRING_SIZE(pNext2->pNode.pKey));	// key2  

  00055	8b 1f		 mov	 ebx, DWORD PTR [edi]
  00057	8b d3		 mov	 edx, ebx
  00059	8d 4a 01	 lea	 ecx, DWORD PTR [edx+1]
  0005c	0f 1f 40 00	 npad	 4
$LL77@deleteHash:
  00060	8a 02		 mov	 al, BYTE PTR [edx]
  00062	42		 inc	 edx
  00063	84 c0		 test	 al, al
  00065	75 f9		 jne	 SHORT $LL77@deleteHash
  00067	2b d1		 sub	 edx, ecx
; File e:\infinia-library-3.0\com\include\combufpool.h

; 51   : inline int getIndex(int s) { int m; union { double x; int b[2]; }; x = s; m = (b[1] >> 20) - 1023; return m + ((s&(s - (1 << m))) ? 1 : 0); }

  00069	b8 01 00 00 00	 mov	 eax, 1
; File e:\infinia-library-3.0\com\src\comdualkeyhash.cpp

; 194  : 				gs_pMMgr->delBuf(pNext2->pNode.pKey, STRING_SIZE(pNext2->pNode.pKey));	// key2  

  0006e	42		 inc	 edx
  0006f	66 0f 6e c2	 movd	 xmm0, edx
; File e:\infinia-library-3.0\com\include\combufpool.h

; 51   : inline int getIndex(int s) { int m; union { double x; int b[2]; }; x = s; m = (b[1] >> 20) - 1023; return m + ((s&(s - (1 << m))) ? 1 : 0); }

  00073	f3 0f e6 c0	 cvtdq2pd xmm0, xmm0
  00077	f2 0f 11 45 ec	 movsd	 QWORD PTR _$S1$2[ebp], xmm0
  0007c	8b 75 f0	 mov	 esi, DWORD PTR _$S1$2[ebp+4]
  0007f	c1 fe 14	 sar	 esi, 20			; 00000014H
  00082	81 ee ff 03 00
	00		 sub	 esi, 1023		; 000003ffH
  00088	8b ce		 mov	 ecx, esi
  0008a	d3 e0		 shl	 eax, cl
  0008c	8b ca		 mov	 ecx, edx
  0008e	2b c8		 sub	 ecx, eax
  00090	23 ca		 and	 ecx, edx
  00092	f7 d9		 neg	 ecx
  00094	1b c9		 sbb	 ecx, ecx
  00096	f7 d9		 neg	 ecx
  00098	03 ce		 add	 ecx, esi
; File e:\infinia-library-3.0\com\include\commemmanager.h

; 38   : 	inline void delBuf(char *pBuf, int nSize) { int nIdx = getIndex(nSize); delBufByIndex(pBuf, nIdx); }

  0009a	51		 push	 ecx
  0009b	8b 0d 00 00 00
	00		 mov	 ecx, DWORD PTR ?gs_pMMgr@@3PAVCMemManager@@A ; gs_pMMgr
  000a1	53		 push	 ebx
  000a2	e8 00 00 00 00	 call	 ?delBufByIndex@CMemManager@@QAEXPADH@Z ; CMemManager::delBufByIndex
; File e:\infinia-library-3.0\com\src\comdualkeyhash.cpp

; 195  : 				if (m_bValInternal) delValueBuf((STValue *)pNext2->pNode.value);	// key2  value  

  000a7	8b 5d f8	 mov	 ebx, DWORD PTR _this$1$[ebp]
  000aa	80 7b 14 00	 cmp	 BYTE PTR [ebx+20], 0
  000ae	74 55		 je	 SHORT $LN27@deleteHash
  000b0	8b 77 04	 mov	 esi, DWORD PTR [edi+4]

; 250  : 		gs_pMMgr->delBufByIndex((TCHAR *)pValue->pValue, pValue->nIdx); m_pValue->delMem(pValue);

  000b3	8b 0d 00 00 00
	00		 mov	 ecx, DWORD PTR ?gs_pMMgr@@3PAVCMemManager@@A ; gs_pMMgr
  000b9	ff 36		 push	 DWORD PTR [esi]
  000bb	ff 76 04	 push	 DWORD PTR [esi+4]
  000be	e8 00 00 00 00	 call	 ?delBufByIndex@CMemManager@@QAEXPADH@Z ; CMemManager::delBufByIndex
  000c3	8b 4b 04	 mov	 ecx, DWORD PTR [ebx+4]
; File e:\infinia-library-3.0\com\include\combmempool.h

; 194  : 	int nIdx = int(pUsedMem - m_pChunk);

  000c6	8b d6		 mov	 edx, esi
  000c8	2b 51 14	 sub	 edx, DWORD PTR [ecx+20]
  000cb	c1 fa 03	 sar	 edx, 3
; File e:\infinia-library-3.0\com\include\comtypes.h

; 322  : inline bool ISINCLUDE(int i, int max) { if (0 <= i && i < max) return true; return false; }

  000ce	85 d2		 test	 edx, edx
  000d0	78 11		 js	 SHORT $LN22@deleteHash
  000d2	3b 51 08	 cmp	 edx, DWORD PTR [ecx+8]
  000d5	7d 0c		 jge	 SHORT $LN22@deleteHash
; File e:\infinia-library-3.0\com\include\combmempool.h

; 197  : 		m_nFlagArray[nIdx] = 0;

  000d7	8b 41 10	 mov	 eax, DWORD PTR [ecx+16]
  000da	c6 04 02 00	 mov	 BYTE PTR [edx+eax], 0

; 198  : 		m_nUseCnt--;

  000de	ff 49 04	 dec	 DWORD PTR [ecx+4]

; 199  : 		return true;

  000e1	eb 22		 jmp	 SHORT $LN27@deleteHash
$LN22@deleteHash:

; 200  : 	}
; 201  : 	if (m_bSlot) return false;

  000e3	80 39 00	 cmp	 BYTE PTR [ecx], 0
  000e6	75 1d		 jne	 SHORT $LN27@deleteHash

; 202  : 	switch (m_nObjAllocType) {

  000e8	8b 41 0c	 mov	 eax, DWORD PTR [ecx+12]
  000eb	83 e8 02	 sub	 eax, 2
  000ee	74 0a		 je	 SHORT $LN24@deleteHash
  000f0	83 e8 01	 sub	 eax, 1
  000f3	74 3a		 je	 SHORT $LN25@deleteHash
  000f5	83 e8 02	 sub	 eax, 2
  000f8	75 0b		 jne	 SHORT $LN27@deleteHash
$LN24@deleteHash:

; 203  : 	case eAlloc_Type_new:	
; 204  : 	case eAlloc_Type_newArray:	delete pUsedMem; break;

  000fa	6a 08		 push	 8
  000fc	56		 push	 esi
  000fd	e8 00 00 00 00	 call	 ??3@YAXPAXI@Z		; operator delete
  00102	83 c4 08	 add	 esp, 8
$LN27@deleteHash:
; File e:\infinia-library-3.0\com\src\comdualkeyhash.cpp

; 196  : 				m_pHashNext->delMem(pNext2);										// key2,value,next  node 

  00105	8b 33		 mov	 esi, DWORD PTR [ebx]
; File e:\infinia-library-3.0\com\include\combmempool.h

; 194  : 	int nIdx = int(pUsedMem - m_pChunk);

  00107	8b cf		 mov	 ecx, edi
  00109	b8 ab aa aa 2a	 mov	 eax, 715827883		; 2aaaaaabH
  0010e	2b 4e 14	 sub	 ecx, DWORD PTR [esi+20]
  00111	f7 e9		 imul	 ecx
  00113	d1 fa		 sar	 edx, 1
  00115	8b ca		 mov	 ecx, edx
  00117	c1 e9 1f	 shr	 ecx, 31			; 0000001fH
  0011a	03 ca		 add	 ecx, edx
; File e:\infinia-library-3.0\com\include\comtypes.h

; 322  : inline bool ISINCLUDE(int i, int max) { if (0 <= i && i < max) return true; return false; }

  0011c	78 1d		 js	 SHORT $LN35@deleteHash
  0011e	3b 4e 08	 cmp	 ecx, DWORD PTR [esi+8]
  00121	7d 18		 jge	 SHORT $LN35@deleteHash
; File e:\infinia-library-3.0\com\include\combmempool.h

; 197  : 		m_nFlagArray[nIdx] = 0;

  00123	8b 46 10	 mov	 eax, DWORD PTR [esi+16]
  00126	c6 04 01 00	 mov	 BYTE PTR [ecx+eax], 0

; 198  : 		m_nUseCnt--;

  0012a	ff 4e 04	 dec	 DWORD PTR [esi+4]

; 199  : 		return true;

  0012d	eb 32		 jmp	 SHORT $LN40@deleteHash
$LN25@deleteHash:

; 205  : 	case eAlloc_Type_alloc:	free(pUsedMem); break;

  0012f	56		 push	 esi
  00130	ff 15 00 00 00
	00		 call	 DWORD PTR __imp__free
  00136	83 c4 04	 add	 esp, 4
  00139	eb ca		 jmp	 SHORT $LN27@deleteHash
$LN35@deleteHash:

; 201  : 	if (m_bSlot) return false;

  0013b	80 3e 00	 cmp	 BYTE PTR [esi], 0
  0013e	75 21		 jne	 SHORT $LN40@deleteHash

; 202  : 	switch (m_nObjAllocType) {

  00140	8b 46 0c	 mov	 eax, DWORD PTR [esi+12]
  00143	83 e8 02	 sub	 eax, 2
  00146	74 0e		 je	 SHORT $LN37@deleteHash
  00148	83 e8 01	 sub	 eax, 1
  0014b	0f 84 d4 00 00
	00		 je	 $LN38@deleteHash
  00151	83 e8 02	 sub	 eax, 2
  00154	75 0b		 jne	 SHORT $LN40@deleteHash
$LN37@deleteHash:

; 203  : 	case eAlloc_Type_new:	
; 204  : 	case eAlloc_Type_newArray:	delete pUsedMem; break;

  00156	6a 0c		 push	 12			; 0000000cH
  00158	57		 push	 edi
  00159	e8 00 00 00 00	 call	 ??3@YAXPAXI@Z		; operator delete
  0015e	83 c4 08	 add	 esp, 8
$LN40@deleteHash:
; File e:\infinia-library-3.0\com\src\comdualkeyhash.cpp

; 197  : 				pNext2 = pNext2->next;

  00161	8b 7f 08	 mov	 edi, DWORD PTR [edi+8]
  00164	85 ff		 test	 edi, edi
  00166	0f 85 e9 fe ff
	ff		 jne	 $LL5@deleteHash
$LN2@deleteHash:

; 189  : 
; 190  : 		pHash = (CHash *)pCur->pNode.value;
; 191  : 		for (j = 0; j < m_nMaxCount2; j++) {

  0016c	8b 45 08	 mov	 eax, DWORD PTR _j$1$[ebp]
  0016f	8b 4d fc	 mov	 ecx, DWORD PTR _pHash$1$[ebp]
  00172	40		 inc	 eax
  00173	89 45 08	 mov	 DWORD PTR _j$1$[ebp], eax
  00176	3b 43 10	 cmp	 eax, DWORD PTR [ebx+16]
  00179	0f 82 c6 fe ff
	ff		 jb	 $LL4@deleteHash
  0017f	8b 7d f4	 mov	 edi, DWORD PTR _pCur$1$[ebp]
$LN3@deleteHash:

; 200  : 		gs_pMMgr->delBuf(pCur->pNode.pKey, STRING_SIZE(pCur->pNode.pKey));	// key1  

  00182	8b 37		 mov	 esi, DWORD PTR [edi]
  00184	8b d6		 mov	 edx, esi
  00186	8d 4a 01	 lea	 ecx, DWORD PTR [edx+1]
  00189	0f 1f 80 00 00
	00 00		 npad	 7
$LL78@deleteHash:
  00190	8a 02		 mov	 al, BYTE PTR [edx]
  00192	42		 inc	 edx
  00193	84 c0		 test	 al, al
  00195	75 f9		 jne	 SHORT $LL78@deleteHash
  00197	2b d1		 sub	 edx, ecx
; File e:\infinia-library-3.0\com\include\combufpool.h

; 51   : inline int getIndex(int s) { int m; union { double x; int b[2]; }; x = s; m = (b[1] >> 20) - 1023; return m + ((s&(s - (1 << m))) ? 1 : 0); }

  00199	b8 01 00 00 00	 mov	 eax, 1
; File e:\infinia-library-3.0\com\src\comdualkeyhash.cpp

; 200  : 		gs_pMMgr->delBuf(pCur->pNode.pKey, STRING_SIZE(pCur->pNode.pKey));	// key1  

  0019e	42		 inc	 edx
  0019f	66 0f 6e c2	 movd	 xmm0, edx
; File e:\infinia-library-3.0\com\include\combufpool.h

; 51   : inline int getIndex(int s) { int m; union { double x; int b[2]; }; x = s; m = (b[1] >> 20) - 1023; return m + ((s&(s - (1 << m))) ? 1 : 0); }

  001a3	f3 0f e6 c0	 cvtdq2pd xmm0, xmm0
  001a7	f2 0f 11 45 ec	 movsd	 QWORD PTR _$S1$1[ebp], xmm0
  001ac	8b 4d f0	 mov	 ecx, DWORD PTR _$S1$1[ebp+4]
  001af	c1 f9 14	 sar	 ecx, 20			; 00000014H
  001b2	81 e9 ff 03 00
	00		 sub	 ecx, 1023		; 000003ffH
  001b8	d3 e0		 shl	 eax, cl
  001ba	89 45 08	 mov	 DWORD PTR tv458[ebp], eax
  001bd	8b c2		 mov	 eax, edx
  001bf	2b 45 08	 sub	 eax, DWORD PTR tv458[ebp]
  001c2	23 c2		 and	 eax, edx
  001c4	f7 d8		 neg	 eax
  001c6	1b c0		 sbb	 eax, eax
  001c8	f7 d8		 neg	 eax
  001ca	03 c1		 add	 eax, ecx
; File e:\infinia-library-3.0\com\include\commemmanager.h

; 38   : 	inline void delBuf(char *pBuf, int nSize) { int nIdx = getIndex(nSize); delBufByIndex(pBuf, nIdx); }

  001cc	8b 0d 00 00 00
	00		 mov	 ecx, DWORD PTR ?gs_pMMgr@@3PAVCMemManager@@A ; gs_pMMgr
  001d2	50		 push	 eax
  001d3	56		 push	 esi
  001d4	e8 00 00 00 00	 call	 ?delBufByIndex@CMemManager@@QAEXPADH@Z ; CMemManager::delBufByIndex
; File e:\infinia-library-3.0\com\src\comdualkeyhash.cpp

; 201  : 		delete pHash;															// key1  value  

  001d9	8b 75 fc	 mov	 esi, DWORD PTR _pHash$1$[ebp]
  001dc	85 f6		 test	 esi, esi
  001de	74 12		 je	 SHORT $LN50@deleteHash
  001e0	8b ce		 mov	 ecx, esi
  001e2	e8 00 00 00 00	 call	 ??1CHash@@QAE@XZ	; CHash::~CHash
  001e7	6a 10		 push	 16			; 00000010H
  001e9	56		 push	 esi
  001ea	e8 00 00 00 00	 call	 ??3@YAXPAXI@Z		; operator delete
  001ef	83 c4 08	 add	 esp, 8
$LN50@deleteHash:

; 202  : 		m_pHashNext->delMem(pCur);												// key1,value,next  node 

  001f2	8b 33		 mov	 esi, DWORD PTR [ebx]
; File e:\infinia-library-3.0\com\include\combmempool.h

; 194  : 	int nIdx = int(pUsedMem - m_pChunk);

  001f4	8b cf		 mov	 ecx, edi
  001f6	b8 ab aa aa 2a	 mov	 eax, 715827883		; 2aaaaaabH
  001fb	2b 4e 14	 sub	 ecx, DWORD PTR [esi+20]
  001fe	f7 e9		 imul	 ecx
  00200	d1 fa		 sar	 edx, 1
  00202	8b ca		 mov	 ecx, edx
  00204	c1 e9 1f	 shr	 ecx, 31			; 0000001fH
  00207	03 ca		 add	 ecx, edx
; File e:\infinia-library-3.0\com\include\comtypes.h

; 322  : inline bool ISINCLUDE(int i, int max) { if (0 <= i && i < max) return true; return false; }

  00209	78 29		 js	 SHORT $LN56@deleteHash
  0020b	3b 4e 08	 cmp	 ecx, DWORD PTR [esi+8]
  0020e	7d 24		 jge	 SHORT $LN56@deleteHash
; File e:\infinia-library-3.0\com\include\combmempool.h

; 197  : 		m_nFlagArray[nIdx] = 0;

  00210	8b 46 10	 mov	 eax, DWORD PTR [esi+16]
  00213	c6 04 01 00	 mov	 BYTE PTR [ecx+eax], 0
; File e:\infinia-library-3.0\com\src\comdualkeyhash.cpp

; 204  : 		return true;

  00217	b0 01		 mov	 al, 1
; File e:\infinia-library-3.0\com\include\combmempool.h

; 198  : 		m_nUseCnt--;

  00219	ff 4e 04	 dec	 DWORD PTR [esi+4]
  0021c	5e		 pop	 esi
  0021d	5f		 pop	 edi
  0021e	5b		 pop	 ebx
; File e:\infinia-library-3.0\com\src\comdualkeyhash.cpp

; 207  : }

  0021f	8b e5		 mov	 esp, ebp
  00221	5d		 pop	 ebp
  00222	c2 04 00	 ret	 4
$LN38@deleteHash:
; File e:\infinia-library-3.0\com\include\combmempool.h

; 205  : 	case eAlloc_Type_alloc:	free(pUsedMem); break;

  00225	57		 push	 edi
  00226	ff 15 00 00 00
	00		 call	 DWORD PTR __imp__free
  0022c	83 c4 04	 add	 esp, 4
  0022f	e9 2d ff ff ff	 jmp	 $LN40@deleteHash
$LN56@deleteHash:

; 201  : 	if (m_bSlot) return false;

  00234	80 3e 00	 cmp	 BYTE PTR [esi], 0
  00237	75 1d		 jne	 SHORT $LN61@deleteHash

; 202  : 	switch (m_nObjAllocType) {

  00239	8b 46 0c	 mov	 eax, DWORD PTR [esi+12]
  0023c	83 e8 02	 sub	 eax, 2
  0023f	74 0a		 je	 SHORT $LN58@deleteHash
  00241	83 e8 01	 sub	 eax, 1
  00244	74 1b		 je	 SHORT $LN59@deleteHash
  00246	83 e8 02	 sub	 eax, 2
  00249	75 0b		 jne	 SHORT $LN61@deleteHash
$LN58@deleteHash:

; 203  : 	case eAlloc_Type_new:	
; 204  : 	case eAlloc_Type_newArray:	delete pUsedMem; break;

  0024b	6a 0c		 push	 12			; 0000000cH
  0024d	57		 push	 edi
  0024e	e8 00 00 00 00	 call	 ??3@YAXPAXI@Z		; operator delete
  00253	83 c4 08	 add	 esp, 8
$LN61@deleteHash:
  00256	5e		 pop	 esi
  00257	5f		 pop	 edi
; File e:\infinia-library-3.0\com\src\comdualkeyhash.cpp

; 204  : 		return true;

  00258	b0 01		 mov	 al, 1
  0025a	5b		 pop	 ebx

; 207  : }

  0025b	8b e5		 mov	 esp, ebp
  0025d	5d		 pop	 ebp
  0025e	c2 04 00	 ret	 4
$LN59@deleteHash:
; File e:\infinia-library-3.0\com\include\combmempool.h

; 205  : 	case eAlloc_Type_alloc:	free(pUsedMem); break;

  00261	57		 push	 edi
  00262	ff 15 00 00 00
	00		 call	 DWORD PTR __imp__free
  00268	83 c4 04	 add	 esp, 4
; File e:\infinia-library-3.0\com\src\comdualkeyhash.cpp

; 204  : 		return true;

  0026b	b0 01		 mov	 al, 1
  0026d	5e		 pop	 esi
  0026e	5f		 pop	 edi
  0026f	5b		 pop	 ebx

; 207  : }

  00270	8b e5		 mov	 esp, ebp
  00272	5d		 pop	 ebp
  00273	c2 04 00	 ret	 4
$LN7@deleteHash:
  00276	5f		 pop	 edi

; 205  : 	}		
; 206  : 	return false;

  00277	32 c0		 xor	 al, al
  00279	5b		 pop	 ebx

; 207  : }

  0027a	8b e5		 mov	 esp, ebp
  0027c	5d		 pop	 ebp
  0027d	c2 04 00	 ret	 4
?deleteHash@CDKeyHashMap@@QAE_NPAD@Z ENDP		; CDKeyHashMap::deleteHash
_TEXT	ENDS
; Function compile flags: /Ogtp
; File e:\infinia-library-3.0\com\src\comdualkeyhash.cpp
;	COMDAT ?setValue@CDKeyHashMap@@QAEHPAD0PAX@Z
_TEXT	SEGMENT
_pKey1$ = 8						; size = 4
_pKey2$ = 12						; size = 4
_pValue$ = 16						; size = 4
?setValue@CDKeyHashMap@@QAEHPAD0PAX@Z PROC		; CDKeyHashMap::setValue, COMDAT
; _this$ = ecx

; 137  : {

  00000	55		 push	 ebp
  00001	8b ec		 mov	 ebp, esp
  00003	53		 push	 ebx
  00004	8b d9		 mov	 ebx, ecx
  00006	57		 push	 edi

; 138  : 	CHash *pHash;
; 139  : 	STHash_Node *pNode = m_pHashGroup->hashLookup(pKey1);

  00007	ff 75 08	 push	 DWORD PTR _pKey1$[ebp]
  0000a	8b 4b 08	 mov	 ecx, DWORD PTR [ebx+8]
  0000d	e8 00 00 00 00	 call	 ?hashLookup@CHash@@QAEPAUSTHash_Node@@PAD@Z ; CHash::hashLookup

; 140  : 	if (pNode) {

  00012	85 c0		 test	 eax, eax
  00014	74 47		 je	 SHORT $LN3@setValue

; 141  : 		pHash = (CHash *)pNode->value;
; 142  : 		pNode = pHash->hashLookup(pKey2);

  00016	ff 75 0c	 push	 DWORD PTR _pKey2$[ebp]
  00019	8b 48 04	 mov	 ecx, DWORD PTR [eax+4]
  0001c	e8 00 00 00 00	 call	 ?hashLookup@CHash@@QAEPAUSTHash_Node@@PAD@Z ; CHash::hashLookup
  00021	8b f8		 mov	 edi, eax

; 143  : 		if (pNode) {

  00023	85 ff		 test	 edi, edi
  00025	74 36		 je	 SHORT $LN3@setValue

; 144  : 			if (pNode->value) { delValueBuf((STValue *)pNode->value); }

  00027	56		 push	 esi
  00028	8b 77 04	 mov	 esi, DWORD PTR [edi+4]
  0002b	85 f6		 test	 esi, esi
  0002d	74 1f		 je	 SHORT $LN7@setValue

; 249  : 	if (m_bValInternal) {

  0002f	80 7b 14 00	 cmp	 BYTE PTR [ebx+20], 0
  00033	74 19		 je	 SHORT $LN7@setValue

; 250  : 		gs_pMMgr->delBufByIndex((TCHAR *)pValue->pValue, pValue->nIdx); m_pValue->delMem(pValue);

  00035	ff 36		 push	 DWORD PTR [esi]
  00037	8b 0d 00 00 00
	00		 mov	 ecx, DWORD PTR ?gs_pMMgr@@3PAVCMemManager@@A ; gs_pMMgr
  0003d	ff 76 04	 push	 DWORD PTR [esi+4]
  00040	e8 00 00 00 00	 call	 ?delBufByIndex@CMemManager@@QAEXPADH@Z ; CMemManager::delBufByIndex
  00045	8b 4b 04	 mov	 ecx, DWORD PTR [ebx+4]
  00048	56		 push	 esi
  00049	e8 00 00 00 00	 call	 ?delMem@?$CBMemPool@USTValue@@@@QAE_NPAUSTValue@@@Z ; CBMemPool<STValue>::delMem
$LN7@setValue:

; 145  : 			pNode->value = pValue; 

  0004e	8b 45 10	 mov	 eax, DWORD PTR _pValue$[ebp]
  00051	5e		 pop	 esi
  00052	89 47 04	 mov	 DWORD PTR [edi+4], eax

; 146  : 			return eHASH_RESULT_SUCESS;

  00055	33 c0		 xor	 eax, eax
  00057	5f		 pop	 edi
  00058	5b		 pop	 ebx

; 150  : }

  00059	5d		 pop	 ebp
  0005a	c2 0c 00	 ret	 12			; 0000000cH
$LN3@setValue:
  0005d	5f		 pop	 edi

; 147  : 		}
; 148  : 	}
; 149  : 	return eHASH_RESULT_INVALID_KEY;

  0005e	b8 fd ff ff ff	 mov	 eax, -3			; fffffffdH
  00063	5b		 pop	 ebx

; 150  : }

  00064	5d		 pop	 ebp
  00065	c2 0c 00	 ret	 12			; 0000000cH
?setValue@CDKeyHashMap@@QAEHPAD0PAX@Z ENDP		; CDKeyHashMap::setValue
_TEXT	ENDS
; Function compile flags: /Ogtp
; File e:\infinia-library-3.0\com\src\comdualkeyhash.cpp
; File e:\infinia-library-3.0\com\include\comhash.h
; File e:\infinia-library-3.0\com\src\comdualkeyhash.cpp
;	COMDAT ?addKeyValue@CDKeyHashMap@@QAEHPAD0PAX1@Z
_TEXT	SEGMENT
_pHash$ = -4						; size = 4
_pKey1$ = 8						; size = 4
_pKey2$ = 12						; size = 4
_pValue$ = 16						; size = 4
_pHashValue$ = 20					; size = 4
?addKeyValue@CDKeyHashMap@@QAEHPAD0PAX1@Z PROC		; CDKeyHashMap::addKeyValue, COMDAT
; _this$ = ecx

; 123  : {

  00000	55		 push	 ebp
  00001	8b ec		 mov	 ebp, esp
  00003	51		 push	 ecx

; 124  : 	CHash *pHash;
; 125  : 	int nRes; // 1. key2's hashKey -> 2. nRes
; 126  : 	nRes = addKey(pKey1, pKey2, &pHash);

  00004	6a 00		 push	 0
  00006	8d 45 fc	 lea	 eax, DWORD PTR _pHash$[ebp]
  00009	50		 push	 eax
  0000a	ff 75 0c	 push	 DWORD PTR _pKey2$[ebp]
  0000d	ff 75 08	 push	 DWORD PTR _pKey1$[ebp]
  00010	e8 00 00 00 00	 call	 ?addKey@CDKeyHashMap@@QAEHPAD0PAPAVCHash@@PAX@Z ; CDKeyHashMap::addKey

; 127  : 	if (pHash) {

  00015	8b 55 fc	 mov	 edx, DWORD PTR _pHash$[ebp]
  00018	85 d2		 test	 edx, edx
  0001a	74 1c		 je	 SHORT $LN4@addKeyValu

; 128  : 		if(pHashValue) pHash->setHashValue(pHashValue);

  0001c	8b 4d 14	 mov	 ecx, DWORD PTR _pHashValue$[ebp]
  0001f	85 c9		 test	 ecx, ecx
  00021	74 03		 je	 SHORT $LN3@addKeyValu
; File e:\infinia-library-3.0\com\include\comhash.h

; 86   : 	inline void setHashValue(void *p) { m_pHashValue = p; }

  00023	89 4a 0c	 mov	 DWORD PTR [edx+12], ecx
$LN3@addKeyValu:
; File e:\infinia-library-3.0\com\src\comdualkeyhash.cpp

; 129  : 		if (nRes >= 0) {

  00026	85 c0		 test	 eax, eax
  00028	78 0e		 js	 SHORT $LN4@addKeyValu

; 130  : 			nRes = pHash->setValue(nRes, pKey2, pValue);

  0002a	ff 75 10	 push	 DWORD PTR _pValue$[ebp]
  0002d	8b ca		 mov	 ecx, edx
  0002f	ff 75 0c	 push	 DWORD PTR _pKey2$[ebp]
  00032	50		 push	 eax
  00033	e8 00 00 00 00	 call	 ?setValue@CHash@@QAE?AW4HASH_RETURN_CODE@@IPADPAX@Z ; CHash::setValue
$LN4@addKeyValu:

; 131  : 		}
; 132  : 	}
; 133  : 	return nRes;
; 134  : }

  00038	8b e5		 mov	 esp, ebp
  0003a	5d		 pop	 ebp
  0003b	c2 10 00	 ret	 16			; 00000010H
?addKeyValue@CDKeyHashMap@@QAEHPAD0PAX1@Z ENDP		; CDKeyHashMap::addKeyValue
_TEXT	ENDS
; Function compile flags: /Ogtp
; File e:\infinia-library-3.0\com\src\comdualkeyhash.cpp
; File e:\infinia-library-3.0\com\include\combufpool.h
; File e:\infinia-library-3.0\com\src\comdualkeyhash.cpp
; File e:\infinia-library-3.0\com\include\combufpool.h
; File e:\infinia-library-3.0\com\include\commemmanager.h
; File e:\infinia-library-3.0\com\include\combufpool.h
; File e:\infinia-library-3.0\com\include\commemmanager.h
; File e:\infinia-library-3.0\com\src\comdualkeyhash.cpp
; File e:\infinia-library-3.0\com\include\comhash.h
; File e:\infinia-library-3.0\com\src\comdualkeyhash.cpp
;	COMDAT ?addKey@CDKeyHashMap@@QAEHPAD0PAPAVCHash@@PAX@Z
_TEXT	SEGMENT
_$S1$2 = -20						; size = 8
_this$1$ = -16						; size = 4
__$EHRec$ = -12						; size = 12
_pBuf$1$ = 8						; size = 4
_pNext$2$ = 8						; size = 4
$T3 = 8							; size = 4
_pKey1$ = 8						; size = 4
_pBuf$2$ = 12						; size = 4
_pNext$1$ = 12						; size = 4
_nRes1$1$ = 12						; size = 4
_pKey2$ = 12						; size = 4
_pTarget$ = 16						; size = 4
_pHashValue$ = 20					; size = 4
?addKey@CDKeyHashMap@@QAEHPAD0PAPAVCHash@@PAX@Z PROC	; CDKeyHashMap::addKey, COMDAT
; _this$ = ecx

; 75   : {

  00000	55		 push	 ebp
  00001	8b ec		 mov	 ebp, esp
  00003	6a ff		 push	 -1
  00005	68 00 00 00 00	 push	 __ehhandler$?addKey@CDKeyHashMap@@QAEHPAD0PAPAVCHash@@PAX@Z
  0000a	64 a1 00 00 00
	00		 mov	 eax, DWORD PTR fs:0
  00010	50		 push	 eax
  00011	83 ec 08	 sub	 esp, 8
  00014	53		 push	 ebx
  00015	56		 push	 esi
  00016	57		 push	 edi
  00017	a1 00 00 00 00	 mov	 eax, DWORD PTR ___security_cookie
  0001c	33 c5		 xor	 eax, ebp
  0001e	50		 push	 eax
  0001f	8d 45 f4	 lea	 eax, DWORD PTR __$EHRec$[ebp]
  00022	64 a3 00 00 00
	00		 mov	 DWORD PTR fs:0, eax
  00028	8b d9		 mov	 ebx, ecx
  0002a	89 5d f0	 mov	 DWORD PTR _this$1$[ebp], ebx

; 76   : 	SThash_next *pNext;
; 77   : 	CHash *pHash;
; 78   : 	TCHAR *pBuf;
; 79   : 	int nRes1=0, nRes2=0;
; 80   : 
; 81   : 
; 82   : 	STHash_Node *pNode = m_pHashGroup->hashLookup(pKey1);

  0002d	8b 75 08	 mov	 esi, DWORD PTR _pKey1$[ebp]
  00030	8b 4b 08	 mov	 ecx, DWORD PTR [ebx+8]
  00033	56		 push	 esi
  00034	e8 00 00 00 00	 call	 ?hashLookup@CHash@@QAEPAUSTHash_Node@@PAD@Z ; CHash::hashLookup

; 83   : 	if (pNode) {

  00039	8b 7d 0c	 mov	 edi, DWORD PTR _pKey2$[ebp]
  0003c	85 c0		 test	 eax, eax
  0003e	74 47		 je	 SHORT $LN2@addKey

; 84   : 		pHash = (CHash *)pNode->value;

  00040	8b 58 04	 mov	 ebx, DWORD PTR [eax+4]

; 85   : 		if (pHash->hashLookup(pKey2)) {

  00043	8b cb		 mov	 ecx, ebx
  00045	57		 push	 edi
  00046	e8 00 00 00 00	 call	 ?hashLookup@CHash@@QAEPAUSTHash_Node@@PAD@Z ; CHash::hashLookup
  0004b	85 c0		 test	 eax, eax
  0004d	0f 84 3c 01 00
	00		 je	 $LN34@addKey

; 86   : 			gs_cLogger.DebugLog(LEVEL_ERROR, "DUPLICATE_KEYS pKey1[%s] pHash->hashLookup(pKey2[%s])", pKey1, pKey2);

  00053	57		 push	 edi
  00054	56		 push	 esi
  00055	68 00 00 00 00	 push	 OFFSET ??_C@_0DG@CMDPEIID@DUPLICATE_KEYS?5pKey1?$FL?$CFs?$FN?5pHash?9?$DO@
  0005a	6a 56		 push	 86			; 00000056H
  0005c	68 00 00 00 00	 push	 OFFSET ??_C@_0BF@IHKEPCHI@CDKeyHashMap?3?3addKey?$AA@
  00061	6a 05		 push	 5
  00063	68 00 00 00 00	 push	 OFFSET ?gs_cLogger@@3VCLogger@@A ; gs_cLogger
  00068	e8 00 00 00 00	 call	 ?__debugLog@CLogger@@QAAXHPBDH0ZZ ; CLogger::__debugLog
  0006d	83 c4 1c	 add	 esp, 28			; 0000001cH

; 87   : 			return eHASH_RESULT_DUPLICATE_KEYS;

  00070	83 c8 ff	 or	 eax, -1

; 120  : }

  00073	8b 4d f4	 mov	 ecx, DWORD PTR __$EHRec$[ebp]
  00076	64 89 0d 00 00
	00 00		 mov	 DWORD PTR fs:0, ecx
  0007d	59		 pop	 ecx
  0007e	5f		 pop	 edi
  0007f	5e		 pop	 esi
  00080	5b		 pop	 ebx
  00081	8b e5		 mov	 esp, ebp
  00083	5d		 pop	 ebp
  00084	c2 10 00	 ret	 16			; 00000010H
$LN2@addKey:

; 88   : 		}
; 89   : 	}
; 90   : 	else {
; 91   : 		pHash = new (std::nothrow)CHash(m_nMaxCount2);					// key1  value  

  00087	68 00 00 00 00	 push	 OFFSET ?nothrow@std@@3Unothrow_t@1@B ; std::nothrow
  0008c	6a 10		 push	 16			; 00000010H
  0008e	e8 00 00 00 00	 call	 ??2@YAPAXIABUnothrow_t@std@@@Z ; operator new
  00093	83 c4 08	 add	 esp, 8
  00096	89 45 08	 mov	 DWORD PTR $T3[ebp], eax
  00099	c7 45 fc 00 00
	00 00		 mov	 DWORD PTR __$EHRec$[ebp+8], 0
  000a0	85 c0		 test	 eax, eax
  000a2	74 0e		 je	 SHORT $LN15@addKey
  000a4	ff 73 10	 push	 DWORD PTR [ebx+16]
  000a7	8b c8		 mov	 ecx, eax
  000a9	e8 00 00 00 00	 call	 ??0CHash@@QAE@I@Z	; CHash::CHash
  000ae	8b d8		 mov	 ebx, eax
  000b0	eb 02		 jmp	 SHORT $LN16@addKey
$LN15@addKey:
  000b2	33 db		 xor	 ebx, ebx
$LN16@addKey:
  000b4	c7 45 fc ff ff
	ff ff		 mov	 DWORD PTR __$EHRec$[ebp+8], -1

; 92   : 		if (!pHash) return eHASH_RESULT_FAIL_ALLOCATION;

  000bb	85 db		 test	 ebx, ebx
  000bd	75 19		 jne	 SHORT $LN5@addKey
$LN36@addKey:
  000bf	b8 fb ff ff ff	 mov	 eax, -5			; fffffffbH

; 120  : }

  000c4	8b 4d f4	 mov	 ecx, DWORD PTR __$EHRec$[ebp]
  000c7	64 89 0d 00 00
	00 00		 mov	 DWORD PTR fs:0, ecx
  000ce	59		 pop	 ecx
  000cf	5f		 pop	 edi
  000d0	5e		 pop	 esi
  000d1	5b		 pop	 ebx
  000d2	8b e5		 mov	 esp, ebp
  000d4	5d		 pop	 ebp
  000d5	c2 10 00	 ret	 16			; 00000010H
$LN5@addKey:

; 93   : 		pNext = m_pHashNext->newMem();						// key1,value,next  node 

  000d8	8b 4d f0	 mov	 ecx, DWORD PTR _this$1$[ebp]
  000db	8b 09		 mov	 ecx, DWORD PTR [ecx]
  000dd	e8 00 00 00 00	 call	 ?newMem@?$CBMemPool@USThash_next@@@@QAEPAUSThash_next@@XZ ; CBMemPool<SThash_next>::newMem
  000e2	89 45 0c	 mov	 DWORD PTR _pNext$1$[ebp], eax

; 94   : 		if(!pNext) return eHASH_RESULT_FAIL_ALLOCATION;

  000e5	85 c0		 test	 eax, eax
  000e7	74 d6		 je	 SHORT $LN36@addKey

; 95   : 		pBuf = (TCHAR*)gs_pMMgr->newBuf(STRING_SIZE(pKey1));				// key1  

  000e9	8b ce		 mov	 ecx, esi
  000eb	8d 51 01	 lea	 edx, DWORD PTR [ecx+1]
  000ee	66 90		 npad	 2
$LL32@addKey:
  000f0	8a 01		 mov	 al, BYTE PTR [ecx]
  000f2	41		 inc	 ecx
  000f3	84 c0		 test	 al, al
  000f5	75 f9		 jne	 SHORT $LL32@addKey
  000f7	2b ca		 sub	 ecx, edx
  000f9	8d 41 01	 lea	 eax, DWORD PTR [ecx+1]
  000fc	8b 0d 00 00 00
	00		 mov	 ecx, DWORD PTR ?gs_pMMgr@@3PAVCMemManager@@A ; gs_pMMgr
  00102	50		 push	 eax
  00103	e8 00 00 00 00	 call	 ?newBuf@CMemManager@@QAEPADH@Z ; CMemManager::newBuf
  00108	8b d0		 mov	 edx, eax
  0010a	89 55 08	 mov	 DWORD PTR _pBuf$1$[ebp], edx

; 96   : 		if(!pBuf) return eHASH_RESULT_FAIL_ALLOCATION;

  0010d	85 d2		 test	 edx, edx
  0010f	74 ae		 je	 SHORT $LN36@addKey

; 97   : 		_tcscpy(pBuf, pKey1);

  00111	8b ca		 mov	 ecx, edx
  00113	2b ce		 sub	 ecx, esi
$LL17@addKey:
  00115	8a 06		 mov	 al, BYTE PTR [esi]
  00117	8d 76 01	 lea	 esi, DWORD PTR [esi+1]
  0011a	88 44 31 ff	 mov	 BYTE PTR [ecx+esi-1], al
  0011e	84 c0		 test	 al, al
  00120	75 f3		 jne	 SHORT $LL17@addKey

; 98   : 		nRes1 = m_pHashGroup->addNode(pNext, pBuf, (void *)pHash);	// 1  

  00122	8b 75 f0	 mov	 esi, DWORD PTR _this$1$[ebp]
  00125	53		 push	 ebx
  00126	52		 push	 edx
  00127	ff 75 0c	 push	 DWORD PTR _pNext$1$[ebp]
  0012a	8b 4e 08	 mov	 ecx, DWORD PTR [esi+8]
  0012d	e8 00 00 00 00	 call	 ?addNode@CHash@@QAEHPAUSThash_next@@PADPAX@Z ; CHash::addNode
  00132	89 45 0c	 mov	 DWORD PTR _nRes1$1$[ebp], eax

; 99   : 		if (nRes1 < 0) {

  00135	85 c0		 test	 eax, eax
  00137	79 39		 jns	 SHORT $LN8@addKey

; 100  : 			gs_cLogger.DebugLog(LEVEL_ERROR, "errorNo[%d] new CHash(max:%d) key1:%s", nRes1, m_nMaxCount2, pBuf);

  00139	ff 75 08	 push	 DWORD PTR _pBuf$1$[ebp]
  0013c	ff 76 10	 push	 DWORD PTR [esi+16]
  0013f	50		 push	 eax
  00140	68 00 00 00 00	 push	 OFFSET ??_C@_0CG@HJJILFAE@errorNo?$FL?$CFd?$FN?5new?5CHash?$CImax?3?$CFd?$CJ?5ke@
  00145	6a 64		 push	 100			; 00000064H
  00147	68 00 00 00 00	 push	 OFFSET ??_C@_0BF@IHKEPCHI@CDKeyHashMap?3?3addKey?$AA@
  0014c	6a 05		 push	 5
  0014e	68 00 00 00 00	 push	 OFFSET ?gs_cLogger@@3VCLogger@@A ; gs_cLogger
  00153	e8 00 00 00 00	 call	 ?__debugLog@CLogger@@QAAXHPBDH0ZZ ; CLogger::__debugLog

; 101  : 			return nRes1;

  00158	8b 45 0c	 mov	 eax, DWORD PTR _nRes1$1$[ebp]
  0015b	83 c4 20	 add	 esp, 32			; 00000020H

; 120  : }

  0015e	8b 4d f4	 mov	 ecx, DWORD PTR __$EHRec$[ebp]
  00161	64 89 0d 00 00
	00 00		 mov	 DWORD PTR fs:0, ecx
  00168	59		 pop	 ecx
  00169	5f		 pop	 edi
  0016a	5e		 pop	 esi
  0016b	5b		 pop	 ebx
  0016c	8b e5		 mov	 esp, ebp
  0016e	5d		 pop	 ebp
  0016f	c2 10 00	 ret	 16			; 00000010H
$LN8@addKey:

; 102  : 		}
; 103  : 		gs_cLogger.PutLogQueue(LEVEL_DEBUG, _T("new CHash(max:%d) key1:%s hashNo[%d]"), m_nMaxCount2, pBuf, nRes1);

  00172	50		 push	 eax
  00173	ff 75 08	 push	 DWORD PTR _pBuf$1$[ebp]
  00176	ff 76 10	 push	 DWORD PTR [esi+16]
  00179	68 00 00 00 00	 push	 OFFSET ??_C@_0CF@JDKICIC@new?5CHash?$CImax?3?$CFd?$CJ?5key1?3?$CFs?5hashNo@
  0017e	6a 01		 push	 1
  00180	68 00 00 00 00	 push	 OFFSET ?gs_cLogger@@3VCLogger@@A ; gs_cLogger
  00185	e8 00 00 00 00	 call	 ?PutLogQueue@CLogger@@QAAXHPBDZZ ; CLogger::PutLogQueue
  0018a	83 c4 18	 add	 esp, 24			; 00000018H
  0018d	eb 03		 jmp	 SHORT $LN3@addKey
$LN34@addKey:
  0018f	8b 75 f0	 mov	 esi, DWORD PTR _this$1$[ebp]
$LN3@addKey:

; 104  : 	}
; 105  : 
; 106  : 	pNext = m_pHashNext->newMem();						// key2, value, next  node 

  00192	8b 0e		 mov	 ecx, DWORD PTR [esi]
  00194	e8 00 00 00 00	 call	 ?newMem@?$CBMemPool@USThash_next@@@@QAEPAUSThash_next@@XZ ; CBMemPool<SThash_next>::newMem
  00199	89 45 08	 mov	 DWORD PTR _pNext$2$[ebp], eax

; 107  : 	if (!pNext) return eHASH_RESULT_FAIL_ALLOCATION;

  0019c	85 c0		 test	 eax, eax
  0019e	0f 84 1b ff ff
	ff		 je	 $LN36@addKey

; 108  : 	pBuf = (TCHAR*)gs_pMMgr->newBuf(STRING_SIZE(pKey2));				// key2  

  001a4	8b f7		 mov	 esi, edi
  001a6	8d 4e 01	 lea	 ecx, DWORD PTR [esi+1]
  001a9	0f 1f 80 00 00
	00 00		 npad	 7
$LL33@addKey:
  001b0	8a 06		 mov	 al, BYTE PTR [esi]
  001b2	46		 inc	 esi
  001b3	84 c0		 test	 al, al
  001b5	75 f9		 jne	 SHORT $LL33@addKey
  001b7	2b f1		 sub	 esi, ecx
; File e:\infinia-library-3.0\com\include\combufpool.h

; 51   : inline int getIndex(int s) { int m; union { double x; int b[2]; }; x = s; m = (b[1] >> 20) - 1023; return m + ((s&(s - (1 << m))) ? 1 : 0); }

  001b9	b8 01 00 00 00	 mov	 eax, 1
; File e:\infinia-library-3.0\com\src\comdualkeyhash.cpp

; 108  : 	pBuf = (TCHAR*)gs_pMMgr->newBuf(STRING_SIZE(pKey2));				// key2  

  001be	46		 inc	 esi
; File e:\infinia-library-3.0\com\include\combufpool.h

; 51   : inline int getIndex(int s) { int m; union { double x; int b[2]; }; x = s; m = (b[1] >> 20) - 1023; return m + ((s&(s - (1 << m))) ? 1 : 0); }

  001bf	8b d6		 mov	 edx, esi
; File e:\infinia-library-3.0\com\include\commemmanager.h

; 34   : 	inline char *newBuf(int nSize) { int nIdx = getIndex(nSize);  return __newBuf(nIdx, nSize); }

  001c1	56		 push	 esi
  001c2	66 0f 6e c6	 movd	 xmm0, esi
; File e:\infinia-library-3.0\com\include\combufpool.h

; 51   : inline int getIndex(int s) { int m; union { double x; int b[2]; }; x = s; m = (b[1] >> 20) - 1023; return m + ((s&(s - (1 << m))) ? 1 : 0); }

  001c6	f3 0f e6 c0	 cvtdq2pd xmm0, xmm0
  001ca	f2 0f 11 45 ec	 movsd	 QWORD PTR _$S1$2[ebp], xmm0
  001cf	8b 4d f0	 mov	 ecx, DWORD PTR _$S1$2[ebp+4]
  001d2	c1 f9 14	 sar	 ecx, 20			; 00000014H
  001d5	81 e9 ff 03 00
	00		 sub	 ecx, 1023		; 000003ffH
  001db	d3 e0		 shl	 eax, cl
  001dd	2b d0		 sub	 edx, eax
  001df	23 d6		 and	 edx, esi
  001e1	f7 da		 neg	 edx
  001e3	1b d2		 sbb	 edx, edx
  001e5	f7 da		 neg	 edx
  001e7	03 d1		 add	 edx, ecx
; File e:\infinia-library-3.0\com\include\commemmanager.h

; 34   : 	inline char *newBuf(int nSize) { int nIdx = getIndex(nSize);  return __newBuf(nIdx, nSize); }

  001e9	8b 0d 00 00 00
	00		 mov	 ecx, DWORD PTR ?gs_pMMgr@@3PAVCMemManager@@A ; gs_pMMgr
  001ef	52		 push	 edx
  001f0	e8 00 00 00 00	 call	 ?__newBuf@CMemManager@@AAEPADHI@Z ; CMemManager::__newBuf
; File e:\infinia-library-3.0\com\src\comdualkeyhash.cpp

; 108  : 	pBuf = (TCHAR*)gs_pMMgr->newBuf(STRING_SIZE(pKey2));				// key2  

  001f5	8b d0		 mov	 edx, eax
  001f7	89 55 0c	 mov	 DWORD PTR _pBuf$2$[ebp], edx

; 109  : 	if (!pBuf) return eHASH_RESULT_FAIL_ALLOCATION;

  001fa	85 d2		 test	 edx, edx
  001fc	0f 84 bd fe ff
	ff		 je	 $LN36@addKey

; 110  : 	_tcscpy(pBuf, pKey2);

  00202	8b ca		 mov	 ecx, edx
  00204	2b cf		 sub	 ecx, edi
$LL18@addKey:
  00206	8a 07		 mov	 al, BYTE PTR [edi]
  00208	8d 7f 01	 lea	 edi, DWORD PTR [edi+1]
  0020b	88 44 39 ff	 mov	 BYTE PTR [ecx+edi-1], al
  0020f	84 c0		 test	 al, al
  00211	75 f3		 jne	 SHORT $LL18@addKey

; 111  : 	if (pHashValue) pHash->setHashValue(pHashValue);

  00213	8b 45 14	 mov	 eax, DWORD PTR _pHashValue$[ebp]
  00216	85 c0		 test	 eax, eax
  00218	74 03		 je	 SHORT $LN11@addKey
; File e:\infinia-library-3.0\com\include\comhash.h

; 86   : 	inline void setHashValue(void *p) { m_pHashValue = p; }

  0021a	89 43 0c	 mov	 DWORD PTR [ebx+12], eax
$LN11@addKey:
; File e:\infinia-library-3.0\com\src\comdualkeyhash.cpp

; 112  : 	if(pTarget) *pTarget = pHash;

  0021d	8b 45 10	 mov	 eax, DWORD PTR _pTarget$[ebp]
  00220	85 c0		 test	 eax, eax
  00222	74 02		 je	 SHORT $LN12@addKey
  00224	89 18		 mov	 DWORD PTR [eax], ebx
$LN12@addKey:

; 113  : 	// 2   (key2  value   )
; 114  : 	nRes2 = pHash->addNode(pNext, pBuf); // 2   (key2  value   )

  00226	6a 00		 push	 0
  00228	52		 push	 edx
  00229	ff 75 08	 push	 DWORD PTR _pNext$2$[ebp]
  0022c	8b cb		 mov	 ecx, ebx
  0022e	e8 00 00 00 00	 call	 ?addNode@CHash@@QAEHPAUSThash_next@@PADPAX@Z ; CHash::addNode
  00233	8b f0		 mov	 esi, eax

; 115  : 	if (nRes2 < 0) {

  00235	85 f6		 test	 esi, esi
  00237	79 18		 jns	 SHORT $LN13@addKey

; 116  : 		gs_cLogger.PutQueue(LEVEL_ERROR, "errorNo[%d] pHash->addNode(pNext, %s)", nRes2, pBuf);

  00239	ff 75 0c	 push	 DWORD PTR _pBuf$2$[ebp]
  0023c	56		 push	 esi
  0023d	68 00 00 00 00	 push	 OFFSET ??_C@_0CG@LOLNAHMC@errorNo?$FL?$CFd?$FN?5pHash?9?$DOaddNode?$CIpNext@
  00242	6a 05		 push	 5
  00244	68 00 00 00 00	 push	 OFFSET ?gs_cLogger@@3VCLogger@@A ; gs_cLogger
  00249	e8 00 00 00 00	 call	 ?PutLogQueue@CLogger@@QAAXHPBDZZ ; CLogger::PutLogQueue
  0024e	83 c4 14	 add	 esp, 20			; 00000014H
$LN13@addKey:

; 117  : 		return nRes2;
; 118  : 	}
; 119  : 	return nRes2;

  00251	8b c6		 mov	 eax, esi

; 120  : }

  00253	8b 4d f4	 mov	 ecx, DWORD PTR __$EHRec$[ebp]
  00256	64 89 0d 00 00
	00 00		 mov	 DWORD PTR fs:0, ecx
  0025d	59		 pop	 ecx
  0025e	5f		 pop	 edi
  0025f	5e		 pop	 esi
  00260	5b		 pop	 ebx
  00261	8b e5		 mov	 esp, ebp
  00263	5d		 pop	 ebp
  00264	c2 10 00	 ret	 16			; 00000010H
_TEXT	ENDS
;	COMDAT text$x
text$x	SEGMENT
__unwindfunclet$?addKey@CDKeyHashMap@@QAEHPAD0PAPAVCHash@@PAX@Z$0:
  00000	68 00 00 00 00	 push	 OFFSET ?nothrow@std@@3Unothrow_t@1@B ; std::nothrow
  00005	8b 45 08	 mov	 eax, DWORD PTR $T3[ebp]
  00008	50		 push	 eax
  00009	e8 00 00 00 00	 call	 ??3@YAXPAXABUnothrow_t@std@@@Z ; operator delete
  0000e	83 c4 08	 add	 esp, 8
  00011	c3		 ret	 0
__ehhandler$?addKey@CDKeyHashMap@@QAEHPAD0PAPAVCHash@@PAX@Z:
  00012	8b 54 24 08	 mov	 edx, DWORD PTR [esp+8]
  00016	8d 42 0c	 lea	 eax, DWORD PTR [edx+12]
  00019	8b 4a e8	 mov	 ecx, DWORD PTR [edx-24]
  0001c	33 c8		 xor	 ecx, eax
  0001e	e8 00 00 00 00	 call	 @__security_check_cookie@4
  00023	b8 00 00 00 00	 mov	 eax, OFFSET __ehfuncinfo$?addKey@CDKeyHashMap@@QAEHPAD0PAPAVCHash@@PAX@Z
  00028	e9 00 00 00 00	 jmp	 ___CxxFrameHandler3
text$x	ENDS
?addKey@CDKeyHashMap@@QAEHPAD0PAPAVCHash@@PAX@Z ENDP	; CDKeyHashMap::addKey
; Function compile flags: /Ogtp
; File e:\infinia-library-3.0\com\src\comdualkeyhash.cpp
; File e:\infinia-library-3.0\com\include\combufpool.h
; File e:\infinia-library-3.0\com\src\comdualkeyhash.cpp
; File e:\infinia-library-3.0\com\include\combufpool.h
; File e:\infinia-library-3.0\com\include\commemmanager.h
; File e:\infinia-library-3.0\com\src\comdualkeyhash.cpp
; File e:\infinia-library-3.0\com\include\combmempool.h
; File e:\infinia-library-3.0\com\include\comtypes.h
; File e:\infinia-library-3.0\com\include\combmempool.h
; File e:\infinia-library-3.0\com\src\comdualkeyhash.cpp
; File e:\infinia-library-3.0\com\include\combmempool.h
; File e:\infinia-library-3.0\com\src\comdualkeyhash.cpp
; File e:\infinia-library-3.0\com\include\combmempool.h
; File e:\infinia-library-3.0\com\include\comtypes.h
; File e:\infinia-library-3.0\com\include\combmempool.h
; File e:\infinia-library-3.0\com\src\comdualkeyhash.cpp
; File e:\infinia-library-3.0\com\include\combufpool.h
; File e:\infinia-library-3.0\com\src\comdualkeyhash.cpp
; File e:\infinia-library-3.0\com\include\combufpool.h
; File e:\infinia-library-3.0\com\include\commemmanager.h
; File e:\infinia-library-3.0\com\src\comdualkeyhash.cpp
; File e:\infinia-library-3.0\com\include\combmempool.h
; File e:\infinia-library-3.0\com\src\comdualkeyhash.cpp
; File e:\infinia-library-3.0\com\include\combmempool.h
; File e:\infinia-library-3.0\com\src\comdualkeyhash.cpp
; File e:\infinia-library-3.0\com\include\combmempool.h
; File e:\infinia-library-3.0\com\include\comtypes.h
; File e:\infinia-library-3.0\com\include\combmempool.h
; File e:\infinia-library-3.0\com\src\comdualkeyhash.cpp
; File e:\infinia-library-3.0\com\include\combmempool.h
; File e:\infinia-library-3.0\com\src\comdualkeyhash.cpp
; File e:\infinia-library-3.0\com\include\combmempool.h
; File e:\infinia-library-3.0\com\src\comdualkeyhash.cpp
; File e:\infinia-library-3.0\com\include\combmempool.h
; File e:\infinia-library-3.0\com\src\comdualkeyhash.cpp
; File e:\infinia-library-3.0\com\include\combmempool.h
; File e:\infinia-library-3.0\com\src\comdualkeyhash.cpp
;	COMDAT ??1CDKeyHashMap@@QAE@XZ
_TEXT	SEGMENT
_$S1$2 = -40						; size = 8
_$S1$3 = -40						; size = 8
_i$1$ = -32						; size = 4
_pHash$1$ = -28						; size = 4
_j$1$ = -24						; size = 4
_this$1$ = -20						; size = 4
_pNext1$1$ = -16					; size = 4
__$EHRec$ = -12						; size = 12
??1CDKeyHashMap@@QAE@XZ PROC				; CDKeyHashMap::~CDKeyHashMap, COMDAT
; _this$ = ecx

; 37   : {

  00000	55		 push	 ebp
  00001	8b ec		 mov	 ebp, esp
  00003	6a ff		 push	 -1
  00005	68 00 00 00 00	 push	 __ehhandler$??1CDKeyHashMap@@QAE@XZ
  0000a	64 a1 00 00 00
	00		 mov	 eax, DWORD PTR fs:0
  00010	50		 push	 eax
  00011	83 ec 1c	 sub	 esp, 28			; 0000001cH
  00014	53		 push	 ebx
  00015	56		 push	 esi
  00016	57		 push	 edi
  00017	a1 00 00 00 00	 mov	 eax, DWORD PTR ___security_cookie
  0001c	33 c5		 xor	 eax, ebp
  0001e	50		 push	 eax
  0001f	8d 45 f4	 lea	 eax, DWORD PTR __$EHRec$[ebp]
  00022	64 a3 00 00 00
	00		 mov	 DWORD PTR fs:0, eax
  00028	8b d9		 mov	 ebx, ecx
  0002a	89 5d ec	 mov	 DWORD PTR _this$1$[ebp], ebx

; 45   : 	for (i = 0; i < m_nMaxCount1; i++) {

  0002d	8b 3d 00 00 00
	00		 mov	 edi, DWORD PTR __imp__free
  00033	33 c0		 xor	 eax, eax
  00035	89 45 e0	 mov	 DWORD PTR _i$1$[ebp], eax
  00038	39 43 0c	 cmp	 DWORD PTR [ebx+12], eax
  0003b	0f 86 76 02 00
	00		 jbe	 $LN3@CDKeyHashM
$LL4@CDKeyHashM:

; 46   : 		pNext1 = m_pHashGroup->getNext(i);

  00041	8b 4b 08	 mov	 ecx, DWORD PTR [ebx+8]
  00044	50		 push	 eax
  00045	e8 00 00 00 00	 call	 ?getNext@CHash@@QAEPAUSThash_next@@I@Z ; CHash::getNext
  0004a	89 45 f0	 mov	 DWORD PTR _pNext1$1$[ebp], eax

; 47   : 		while (pNext1) {

  0004d	85 c0		 test	 eax, eax
  0004f	0f 84 4c 02 00
	00		 je	 $LN125@CDKeyHashM
$LL5@CDKeyHashM:

; 48   : 			pHash = (CHash *)pNext1->pNode.value;

  00055	8b 48 04	 mov	 ecx, DWORD PTR [eax+4]

; 49   : 			for (j = 0; j < m_nMaxCount2; j++) {

  00058	33 c0		 xor	 eax, eax
  0005a	89 4d e4	 mov	 DWORD PTR _pHash$1$[ebp], ecx
  0005d	89 45 e8	 mov	 DWORD PTR _j$1$[ebp], eax
  00060	39 43 10	 cmp	 DWORD PTR [ebx+16], eax
  00063	0f 86 45 01 00
	00		 jbe	 $LN8@CDKeyHashM
  00069	0f 1f 80 00 00
	00 00		 npad	 7
$LL9@CDKeyHashM:

; 50   : 				pNext2 = pHash->getNext(j);

  00070	50		 push	 eax
  00071	e8 00 00 00 00	 call	 ?getNext@CHash@@QAEPAUSThash_next@@I@Z ; CHash::getNext
  00076	8b d8		 mov	 ebx, eax

; 51   : 				while (pNext2) {

  00078	85 db		 test	 ebx, ebx
  0007a	0f 84 18 01 00
	00		 je	 $LN7@CDKeyHashM
$LL10@CDKeyHashM:

; 52   : 					gs_pMMgr->delBuf(pNext2->pNode.pKey, STRING_SIZE(pNext2->pNode.pKey));	// key2  

  00080	8b 3b		 mov	 edi, DWORD PTR [ebx]
  00082	8b d7		 mov	 edx, edi
  00084	8d 4a 01	 lea	 ecx, DWORD PTR [edx+1]
$LL123@CDKeyHashM:
  00087	8a 02		 mov	 al, BYTE PTR [edx]
  00089	42		 inc	 edx
  0008a	84 c0		 test	 al, al
  0008c	75 f9		 jne	 SHORT $LL123@CDKeyHashM
  0008e	2b d1		 sub	 edx, ecx
; File e:\infinia-library-3.0\com\include\combufpool.h

; 51   : inline int getIndex(int s) { int m; union { double x; int b[2]; }; x = s; m = (b[1] >> 20) - 1023; return m + ((s&(s - (1 << m))) ? 1 : 0); }

  00090	b8 01 00 00 00	 mov	 eax, 1
; File e:\infinia-library-3.0\com\src\comdualkeyhash.cpp

; 52   : 					gs_pMMgr->delBuf(pNext2->pNode.pKey, STRING_SIZE(pNext2->pNode.pKey));	// key2  

  00095	42		 inc	 edx
  00096	66 0f 6e c2	 movd	 xmm0, edx
; File e:\infinia-library-3.0\com\include\combufpool.h

; 51   : inline int getIndex(int s) { int m; union { double x; int b[2]; }; x = s; m = (b[1] >> 20) - 1023; return m + ((s&(s - (1 << m))) ? 1 : 0); }

  0009a	f3 0f e6 c0	 cvtdq2pd xmm0, xmm0
  0009e	f2 0f 11 45 d8	 movsd	 QWORD PTR _$S1$3[ebp], xmm0
  000a3	8b 75 dc	 mov	 esi, DWORD PTR _$S1$3[ebp+4]
  000a6	c1 fe 14	 sar	 esi, 20			; 00000014H
  000a9	81 ee ff 03 00
	00		 sub	 esi, 1023		; 000003ffH
  000af	8b ce		 mov	 ecx, esi
  000b1	d3 e0		 shl	 eax, cl
  000b3	8b ca		 mov	 ecx, edx
  000b5	2b c8		 sub	 ecx, eax
  000b7	23 ca		 and	 ecx, edx
  000b9	f7 d9		 neg	 ecx
  000bb	1b c9		 sbb	 ecx, ecx
  000bd	f7 d9		 neg	 ecx
  000bf	03 ce		 add	 ecx, esi
; File e:\infinia-library-3.0\com\include\commemmanager.h

; 38   : 	inline void delBuf(char *pBuf, int nSize) { int nIdx = getIndex(nSize); delBufByIndex(pBuf, nIdx); }

  000c1	51		 push	 ecx
  000c2	8b 0d 00 00 00
	00		 mov	 ecx, DWORD PTR ?gs_pMMgr@@3PAVCMemManager@@A ; gs_pMMgr
  000c8	57		 push	 edi
  000c9	e8 00 00 00 00	 call	 ?delBufByIndex@CMemManager@@QAEXPADH@Z ; CMemManager::delBufByIndex
; File e:\infinia-library-3.0\com\src\comdualkeyhash.cpp

; 53   : 					if(m_bValInternal)delValueBuf((STValue *)pNext2->pNode.value);					// key2  value  

  000ce	8b 7d ec	 mov	 edi, DWORD PTR _this$1$[ebp]
  000d1	80 7f 14 00	 cmp	 BYTE PTR [edi+20], 0
  000d5	74 55		 je	 SHORT $LN37@CDKeyHashM
  000d7	8b 73 04	 mov	 esi, DWORD PTR [ebx+4]

; 250  : 		gs_pMMgr->delBufByIndex((TCHAR *)pValue->pValue, pValue->nIdx); m_pValue->delMem(pValue);

  000da	8b 0d 00 00 00
	00		 mov	 ecx, DWORD PTR ?gs_pMMgr@@3PAVCMemManager@@A ; gs_pMMgr
  000e0	ff 36		 push	 DWORD PTR [esi]
  000e2	ff 76 04	 push	 DWORD PTR [esi+4]
  000e5	e8 00 00 00 00	 call	 ?delBufByIndex@CMemManager@@QAEXPADH@Z ; CMemManager::delBufByIndex
  000ea	8b 4f 04	 mov	 ecx, DWORD PTR [edi+4]
; File e:\infinia-library-3.0\com\include\combmempool.h

; 194  : 	int nIdx = int(pUsedMem - m_pChunk);

  000ed	8b d6		 mov	 edx, esi
  000ef	2b 51 14	 sub	 edx, DWORD PTR [ecx+20]
  000f2	c1 fa 03	 sar	 edx, 3
; File e:\infinia-library-3.0\com\include\comtypes.h

; 322  : inline bool ISINCLUDE(int i, int max) { if (0 <= i && i < max) return true; return false; }

  000f5	85 d2		 test	 edx, edx
  000f7	78 11		 js	 SHORT $LN32@CDKeyHashM
  000f9	3b 51 08	 cmp	 edx, DWORD PTR [ecx+8]
  000fc	7d 0c		 jge	 SHORT $LN32@CDKeyHashM
; File e:\infinia-library-3.0\com\include\combmempool.h

; 197  : 		m_nFlagArray[nIdx] = 0;

  000fe	8b 41 10	 mov	 eax, DWORD PTR [ecx+16]
  00101	c6 04 02 00	 mov	 BYTE PTR [edx+eax], 0

; 198  : 		m_nUseCnt--;

  00105	ff 49 04	 dec	 DWORD PTR [ecx+4]

; 199  : 		return true;

  00108	eb 22		 jmp	 SHORT $LN37@CDKeyHashM
$LN32@CDKeyHashM:

; 200  : 	}
; 201  : 	if (m_bSlot) return false;

  0010a	80 39 00	 cmp	 BYTE PTR [ecx], 0
  0010d	75 1d		 jne	 SHORT $LN37@CDKeyHashM

; 202  : 	switch (m_nObjAllocType) {

  0010f	8b 41 0c	 mov	 eax, DWORD PTR [ecx+12]
  00112	83 e8 02	 sub	 eax, 2
  00115	74 0a		 je	 SHORT $LN34@CDKeyHashM
  00117	83 e8 01	 sub	 eax, 1
  0011a	74 42		 je	 SHORT $LN35@CDKeyHashM
  0011c	83 e8 02	 sub	 eax, 2
  0011f	75 0b		 jne	 SHORT $LN37@CDKeyHashM
$LN34@CDKeyHashM:

; 203  : 	case eAlloc_Type_new:	
; 204  : 	case eAlloc_Type_newArray:	delete pUsedMem; break;

  00121	6a 08		 push	 8
  00123	56		 push	 esi
  00124	e8 00 00 00 00	 call	 ??3@YAXPAXI@Z		; operator delete
  00129	83 c4 08	 add	 esp, 8
$LN37@CDKeyHashM:
; File e:\infinia-library-3.0\com\src\comdualkeyhash.cpp

; 56   : 					m_pHashNext->delMem(pDelNode);												// key2,value,next  node 

  0012c	8b 75 ec	 mov	 esi, DWORD PTR _this$1$[ebp]
  0012f	8b fb		 mov	 edi, ebx
  00131	8b 5b 08	 mov	 ebx, DWORD PTR [ebx+8]
; File e:\infinia-library-3.0\com\include\combmempool.h

; 194  : 	int nIdx = int(pUsedMem - m_pChunk);

  00134	8b cf		 mov	 ecx, edi
  00136	b8 ab aa aa 2a	 mov	 eax, 715827883		; 2aaaaaabH
; File e:\infinia-library-3.0\com\src\comdualkeyhash.cpp

; 56   : 					m_pHashNext->delMem(pDelNode);												// key2,value,next  node 

  0013b	8b 36		 mov	 esi, DWORD PTR [esi]
; File e:\infinia-library-3.0\com\include\combmempool.h

; 194  : 	int nIdx = int(pUsedMem - m_pChunk);

  0013d	2b 4e 14	 sub	 ecx, DWORD PTR [esi+20]
  00140	f7 e9		 imul	 ecx
  00142	d1 fa		 sar	 edx, 1
  00144	8b ca		 mov	 ecx, edx
  00146	c1 e9 1f	 shr	 ecx, 31			; 0000001fH
  00149	03 ca		 add	 ecx, edx
; File e:\infinia-library-3.0\com\include\comtypes.h

; 322  : inline bool ISINCLUDE(int i, int max) { if (0 <= i && i < max) return true; return false; }

  0014b	78 1d		 js	 SHORT $LN45@CDKeyHashM
  0014d	3b 4e 08	 cmp	 ecx, DWORD PTR [esi+8]
  00150	7d 18		 jge	 SHORT $LN45@CDKeyHashM
; File e:\infinia-library-3.0\com\include\combmempool.h

; 197  : 		m_nFlagArray[nIdx] = 0;

  00152	8b 46 10	 mov	 eax, DWORD PTR [esi+16]
  00155	c6 04 01 00	 mov	 BYTE PTR [ecx+eax], 0

; 198  : 		m_nUseCnt--;

  00159	ff 4e 04	 dec	 DWORD PTR [esi+4]

; 199  : 		return true;

  0015c	eb 32		 jmp	 SHORT $LN50@CDKeyHashM
$LN35@CDKeyHashM:

; 205  : 	case eAlloc_Type_alloc:	free(pUsedMem); break;

  0015e	56		 push	 esi
  0015f	ff 15 00 00 00
	00		 call	 DWORD PTR __imp__free
  00165	83 c4 04	 add	 esp, 4
  00168	eb c2		 jmp	 SHORT $LN37@CDKeyHashM
$LN45@CDKeyHashM:

; 201  : 	if (m_bSlot) return false;

  0016a	80 3e 00	 cmp	 BYTE PTR [esi], 0
  0016d	75 21		 jne	 SHORT $LN50@CDKeyHashM

; 202  : 	switch (m_nObjAllocType) {

  0016f	8b 46 0c	 mov	 eax, DWORD PTR [esi+12]
  00172	83 e8 02	 sub	 eax, 2
  00175	74 0e		 je	 SHORT $LN47@CDKeyHashM
  00177	83 e8 01	 sub	 eax, 1
  0017a	0f 84 cd 00 00
	00		 je	 $LN48@CDKeyHashM
  00180	83 e8 02	 sub	 eax, 2
  00183	75 0b		 jne	 SHORT $LN50@CDKeyHashM
$LN47@CDKeyHashM:

; 203  : 	case eAlloc_Type_new:	
; 204  : 	case eAlloc_Type_newArray:	delete pUsedMem; break;

  00185	6a 0c		 push	 12			; 0000000cH
  00187	57		 push	 edi
  00188	e8 00 00 00 00	 call	 ??3@YAXPAXI@Z		; operator delete
  0018d	83 c4 08	 add	 esp, 8
$LN50@CDKeyHashM:
; File e:\infinia-library-3.0\com\src\comdualkeyhash.cpp

; 51   : 				while (pNext2) {

  00190	85 db		 test	 ebx, ebx
  00192	0f 85 e8 fe ff
	ff		 jne	 $LL10@CDKeyHashM
$LN7@CDKeyHashM:

; 49   : 			for (j = 0; j < m_nMaxCount2; j++) {

  00198	8b 45 e8	 mov	 eax, DWORD PTR _j$1$[ebp]
  0019b	8b 5d ec	 mov	 ebx, DWORD PTR _this$1$[ebp]
  0019e	40		 inc	 eax
  0019f	8b 4d e4	 mov	 ecx, DWORD PTR _pHash$1$[ebp]
  001a2	89 45 e8	 mov	 DWORD PTR _j$1$[ebp], eax
  001a5	3b 43 10	 cmp	 eax, DWORD PTR [ebx+16]
  001a8	0f 82 c2 fe ff
	ff		 jb	 $LL9@CDKeyHashM
$LN8@CDKeyHashM:

; 59   : 			gs_pMMgr->delBuf(pNext1->pNode.pKey, STRING_SIZE(pNext1->pNode.pKey));	// key1  

  001ae	8b 7d f0	 mov	 edi, DWORD PTR _pNext1$1$[ebp]
  001b1	8b 3f		 mov	 edi, DWORD PTR [edi]
  001b3	8b d7		 mov	 edx, edi
  001b5	8d 4a 01	 lea	 ecx, DWORD PTR [edx+1]
$LL124@CDKeyHashM:
  001b8	8a 02		 mov	 al, BYTE PTR [edx]
  001ba	42		 inc	 edx
  001bb	84 c0		 test	 al, al
  001bd	75 f9		 jne	 SHORT $LL124@CDKeyHashM
  001bf	2b d1		 sub	 edx, ecx
; File e:\infinia-library-3.0\com\include\combufpool.h

; 51   : inline int getIndex(int s) { int m; union { double x; int b[2]; }; x = s; m = (b[1] >> 20) - 1023; return m + ((s&(s - (1 << m))) ? 1 : 0); }

  001c1	b8 01 00 00 00	 mov	 eax, 1
; File e:\infinia-library-3.0\com\src\comdualkeyhash.cpp

; 59   : 			gs_pMMgr->delBuf(pNext1->pNode.pKey, STRING_SIZE(pNext1->pNode.pKey));	// key1  

  001c6	42		 inc	 edx
  001c7	66 0f 6e c2	 movd	 xmm0, edx
; File e:\infinia-library-3.0\com\include\combufpool.h

; 51   : inline int getIndex(int s) { int m; union { double x; int b[2]; }; x = s; m = (b[1] >> 20) - 1023; return m + ((s&(s - (1 << m))) ? 1 : 0); }

  001cb	f3 0f e6 c0	 cvtdq2pd xmm0, xmm0
  001cf	f2 0f 11 45 d8	 movsd	 QWORD PTR _$S1$2[ebp], xmm0
  001d4	8b 75 dc	 mov	 esi, DWORD PTR _$S1$2[ebp+4]
  001d7	c1 fe 14	 sar	 esi, 20			; 00000014H
  001da	81 ee ff 03 00
	00		 sub	 esi, 1023		; 000003ffH
  001e0	8b ce		 mov	 ecx, esi
  001e2	d3 e0		 shl	 eax, cl
  001e4	8b ca		 mov	 ecx, edx
  001e6	2b c8		 sub	 ecx, eax
  001e8	23 ca		 and	 ecx, edx
  001ea	f7 d9		 neg	 ecx
  001ec	1b c9		 sbb	 ecx, ecx
  001ee	f7 d9		 neg	 ecx
  001f0	03 ce		 add	 ecx, esi
; File e:\infinia-library-3.0\com\include\commemmanager.h

; 38   : 	inline void delBuf(char *pBuf, int nSize) { int nIdx = getIndex(nSize); delBufByIndex(pBuf, nIdx); }

  001f2	51		 push	 ecx
  001f3	8b 0d 00 00 00
	00		 mov	 ecx, DWORD PTR ?gs_pMMgr@@3PAVCMemManager@@A ; gs_pMMgr
  001f9	57		 push	 edi
  001fa	e8 00 00 00 00	 call	 ?delBufByIndex@CMemManager@@QAEXPADH@Z ; CMemManager::delBufByIndex
; File e:\infinia-library-3.0\com\src\comdualkeyhash.cpp

; 60   : 			delete pHash;																	// key1  value  

  001ff	8b 75 e4	 mov	 esi, DWORD PTR _pHash$1$[ebp]
  00202	85 f6		 test	 esi, esi
  00204	74 12		 je	 SHORT $LN60@CDKeyHashM
  00206	8b ce		 mov	 ecx, esi
  00208	e8 00 00 00 00	 call	 ??1CHash@@QAE@XZ	; CHash::~CHash
  0020d	6a 10		 push	 16			; 00000010H
  0020f	56		 push	 esi
  00210	e8 00 00 00 00	 call	 ??3@YAXPAXI@Z		; operator delete
  00215	83 c4 08	 add	 esp, 8
$LN60@CDKeyHashM:

; 61   : 			pDelNode = pNext1;

  00218	8b 45 f0	 mov	 eax, DWORD PTR _pNext1$1$[ebp]
  0021b	8b f8		 mov	 edi, eax

; 63   : 			m_pHashNext->delMem(pDelNode);												// key1,value,next  node 

  0021d	8b 33		 mov	 esi, DWORD PTR [ebx]
; File e:\infinia-library-3.0\com\include\combmempool.h

; 194  : 	int nIdx = int(pUsedMem - m_pChunk);

  0021f	8b cf		 mov	 ecx, edi
; File e:\infinia-library-3.0\com\src\comdualkeyhash.cpp

; 62   : 			pNext1 = pNext1->next;

  00221	8b 40 08	 mov	 eax, DWORD PTR [eax+8]
; File e:\infinia-library-3.0\com\include\combmempool.h

; 194  : 	int nIdx = int(pUsedMem - m_pChunk);

  00224	2b 4e 14	 sub	 ecx, DWORD PTR [esi+20]
; File e:\infinia-library-3.0\com\src\comdualkeyhash.cpp

; 62   : 			pNext1 = pNext1->next;

  00227	89 45 f0	 mov	 DWORD PTR _pNext1$1$[ebp], eax
; File e:\infinia-library-3.0\com\include\combmempool.h

; 194  : 	int nIdx = int(pUsedMem - m_pChunk);

  0022a	b8 ab aa aa 2a	 mov	 eax, 715827883		; 2aaaaaabH
  0022f	f7 e9		 imul	 ecx
  00231	d1 fa		 sar	 edx, 1
  00233	8b ca		 mov	 ecx, edx
  00235	c1 e9 1f	 shr	 ecx, 31			; 0000001fH
  00238	03 ca		 add	 ecx, edx
; File e:\infinia-library-3.0\com\include\comtypes.h

; 322  : inline bool ISINCLUDE(int i, int max) { if (0 <= i && i < max) return true; return false; }

  0023a	78 22		 js	 SHORT $LN66@CDKeyHashM
  0023c	3b 4e 08	 cmp	 ecx, DWORD PTR [esi+8]
  0023f	7d 1d		 jge	 SHORT $LN66@CDKeyHashM
; File e:\infinia-library-3.0\com\include\combmempool.h

; 197  : 		m_nFlagArray[nIdx] = 0;

  00241	8b 46 10	 mov	 eax, DWORD PTR [esi+16]
  00244	c6 04 01 00	 mov	 BYTE PTR [ecx+eax], 0

; 198  : 		m_nUseCnt--;

  00248	ff 4e 04	 dec	 DWORD PTR [esi+4]

; 199  : 		return true;

  0024b	eb 33		 jmp	 SHORT $LN126@CDKeyHashM
$LN48@CDKeyHashM:

; 205  : 	case eAlloc_Type_alloc:	free(pUsedMem); break;

  0024d	57		 push	 edi
  0024e	8b 3d 00 00 00
	00		 mov	 edi, DWORD PTR __imp__free
  00254	ff d7		 call	 edi
  00256	83 c4 04	 add	 esp, 4
  00259	e9 32 ff ff ff	 jmp	 $LN50@CDKeyHashM
$LN66@CDKeyHashM:

; 201  : 	if (m_bSlot) return false;

  0025e	80 3e 00	 cmp	 BYTE PTR [esi], 0
  00261	75 1d		 jne	 SHORT $LN126@CDKeyHashM

; 202  : 	switch (m_nObjAllocType) {

  00263	8b 46 0c	 mov	 eax, DWORD PTR [esi+12]
  00266	83 e8 02	 sub	 eax, 2
  00269	74 0a		 je	 SHORT $LN68@CDKeyHashM
  0026b	83 e8 01	 sub	 eax, 1
  0026e	74 23		 je	 SHORT $LN69@CDKeyHashM
  00270	83 e8 02	 sub	 eax, 2
  00273	75 0b		 jne	 SHORT $LN126@CDKeyHashM
$LN68@CDKeyHashM:

; 203  : 	case eAlloc_Type_new:	
; 204  : 	case eAlloc_Type_newArray:	delete pUsedMem; break;

  00275	6a 0c		 push	 12			; 0000000cH
  00277	57		 push	 edi
  00278	e8 00 00 00 00	 call	 ??3@YAXPAXI@Z		; operator delete
  0027d	83 c4 08	 add	 esp, 8
$LN126@CDKeyHashM:
  00280	8b 3d 00 00 00
	00		 mov	 edi, DWORD PTR __imp__free
$LN71@CDKeyHashM:
; File e:\infinia-library-3.0\com\src\comdualkeyhash.cpp

; 47   : 		while (pNext1) {

  00286	8b 45 f0	 mov	 eax, DWORD PTR _pNext1$1$[ebp]
  00289	85 c0		 test	 eax, eax
  0028b	0f 85 c4 fd ff
	ff		 jne	 $LL5@CDKeyHashM
  00291	eb 14		 jmp	 SHORT $LN2@CDKeyHashM
$LN69@CDKeyHashM:
; File e:\infinia-library-3.0\com\include\combmempool.h

; 205  : 	case eAlloc_Type_alloc:	free(pUsedMem); break;

  00293	57		 push	 edi
  00294	8b 3d 00 00 00
	00		 mov	 edi, DWORD PTR __imp__free
  0029a	ff d7		 call	 edi
  0029c	83 c4 04	 add	 esp, 4
  0029f	eb e5		 jmp	 SHORT $LN71@CDKeyHashM
$LN125@CDKeyHashM:
  002a1	8b 3d 00 00 00
	00		 mov	 edi, DWORD PTR __imp__free
$LN2@CDKeyHashM:
; File e:\infinia-library-3.0\com\src\comdualkeyhash.cpp

; 45   : 	for (i = 0; i < m_nMaxCount1; i++) {

  002a7	8b 45 e0	 mov	 eax, DWORD PTR _i$1$[ebp]
  002aa	40		 inc	 eax
  002ab	89 45 e0	 mov	 DWORD PTR _i$1$[ebp], eax
  002ae	3b 43 0c	 cmp	 eax, DWORD PTR [ebx+12]
  002b1	0f 82 8a fd ff
	ff		 jb	 $LL4@CDKeyHashM
$LN3@CDKeyHashM:

; 64   : 		}
; 65   : 	}
; 66   : 
; 67   : 	//        .
; 68   : 	delete m_pValue;

  002b7	8b 73 04	 mov	 esi, DWORD PTR [ebx+4]
  002ba	85 f6		 test	 esi, esi
  002bc	74 4c		 je	 SHORT $LN77@CDKeyHashM
; File e:\infinia-library-3.0\com\include\combmempool.h

; 86   : 	if (m_pChunk) {

  002be	8b 4e 14	 mov	 ecx, DWORD PTR [esi+20]
  002c1	85 c9		 test	 ecx, ecx
  002c3	74 26		 je	 SHORT $LN83@CDKeyHashM

; 87   : 		switch (m_nObjAllocType) {

  002c5	8b 46 0c	 mov	 eax, DWORD PTR [esi+12]
  002c8	83 e8 02	 sub	 eax, 2
  002cb	74 0e		 je	 SHORT $LN84@CDKeyHashM
  002cd	83 e8 01	 sub	 eax, 1
  002d0	0f 84 ad 00 00
	00		 je	 $LN85@CDKeyHashM
  002d6	83 e8 02	 sub	 eax, 2
  002d9	75 09		 jne	 SHORT $LN81@CDKeyHashM
$LN84@CDKeyHashM:

; 88   : 		case eAlloc_Type_new:		
; 89   : 		case eAlloc_Type_newArray:	delete[] m_pChunk;	break;

  002db	51		 push	 ecx
  002dc	e8 00 00 00 00	 call	 ??_V@YAXPAX@Z		; operator delete[]
$LN128@CDKeyHashM:
  002e1	83 c4 04	 add	 esp, 4
$LN81@CDKeyHashM:

; 91   : 		}
; 92   : 
; 93   : 		m_pChunk = NULL;

  002e4	c7 46 14 00 00
	00 00		 mov	 DWORD PTR [esi+20], 0
$LN83@CDKeyHashM:

; 94   : 	}
; 95   : 
; 96   : 	if (m_nFlagArray) {

  002eb	8b 46 10	 mov	 eax, DWORD PTR [esi+16]
  002ee	85 c0		 test	 eax, eax
  002f0	74 0d		 je	 SHORT $LN86@CDKeyHashM

; 97   : 		free(m_nFlagArray);

  002f2	50		 push	 eax
  002f3	ff d7		 call	 edi
  002f5	83 c4 04	 add	 esp, 4

; 98   : 		m_nFlagArray = NULL;

  002f8	c7 46 10 00 00
	00 00		 mov	 DWORD PTR [esi+16], 0
$LN86@CDKeyHashM:
  002ff	6a 18		 push	 24			; 00000018H
  00301	56		 push	 esi
  00302	e8 00 00 00 00	 call	 ??3@YAXPAXI@Z		; operator delete
  00307	83 c4 08	 add	 esp, 8
$LN77@CDKeyHashM:
; File e:\infinia-library-3.0\com\src\comdualkeyhash.cpp

; 69   : 	delete m_pHashNext;

  0030a	8b 33		 mov	 esi, DWORD PTR [ebx]
  0030c	85 f6		 test	 esi, esi
  0030e	74 48		 je	 SHORT $LN90@CDKeyHashM
; File e:\infinia-library-3.0\com\include\combmempool.h

; 86   : 	if (m_pChunk) {

  00310	8b 4e 14	 mov	 ecx, DWORD PTR [esi+20]
  00313	85 c9		 test	 ecx, ecx
  00315	74 22		 je	 SHORT $LN96@CDKeyHashM

; 87   : 		switch (m_nObjAllocType) {

  00317	8b 46 0c	 mov	 eax, DWORD PTR [esi+12]
  0031a	83 e8 02	 sub	 eax, 2
  0031d	74 0a		 je	 SHORT $LN97@CDKeyHashM
  0031f	83 e8 01	 sub	 eax, 1
  00322	74 67		 je	 SHORT $LN98@CDKeyHashM
  00324	83 e8 02	 sub	 eax, 2
  00327	75 09		 jne	 SHORT $LN94@CDKeyHashM
$LN97@CDKeyHashM:

; 88   : 		case eAlloc_Type_new:		
; 89   : 		case eAlloc_Type_newArray:	delete[] m_pChunk;	break;

  00329	51		 push	 ecx
  0032a	e8 00 00 00 00	 call	 ??_V@YAXPAX@Z		; operator delete[]
$LN129@CDKeyHashM:
  0032f	83 c4 04	 add	 esp, 4
$LN94@CDKeyHashM:

; 91   : 		}
; 92   : 
; 93   : 		m_pChunk = NULL;

  00332	c7 46 14 00 00
	00 00		 mov	 DWORD PTR [esi+20], 0
$LN96@CDKeyHashM:

; 94   : 	}
; 95   : 
; 96   : 	if (m_nFlagArray) {

  00339	8b 46 10	 mov	 eax, DWORD PTR [esi+16]
  0033c	85 c0		 test	 eax, eax
  0033e	74 0d		 je	 SHORT $LN99@CDKeyHashM

; 97   : 		free(m_nFlagArray);

  00340	50		 push	 eax
  00341	ff d7		 call	 edi
  00343	83 c4 04	 add	 esp, 4

; 98   : 		m_nFlagArray = NULL;

  00346	c7 46 10 00 00
	00 00		 mov	 DWORD PTR [esi+16], 0
$LN99@CDKeyHashM:
  0034d	6a 18		 push	 24			; 00000018H
  0034f	56		 push	 esi
  00350	e8 00 00 00 00	 call	 ??3@YAXPAXI@Z		; operator delete
  00355	83 c4 08	 add	 esp, 8
$LN90@CDKeyHashM:
; File e:\infinia-library-3.0\com\src\comdualkeyhash.cpp

; 70   : 	delete m_pHashGroup;

  00358	8b 73 08	 mov	 esi, DWORD PTR [ebx+8]
  0035b	85 f6		 test	 esi, esi
  0035d	74 12		 je	 SHORT $LN103@CDKeyHashM
  0035f	8b ce		 mov	 ecx, esi
  00361	e8 00 00 00 00	 call	 ??1CHash@@QAE@XZ	; CHash::~CHash
  00366	6a 10		 push	 16			; 00000010H
  00368	56		 push	 esi
  00369	e8 00 00 00 00	 call	 ??3@YAXPAXI@Z		; operator delete
  0036e	83 c4 08	 add	 esp, 8
$LN103@CDKeyHashM:

; 71   : }

  00371	8b 4d f4	 mov	 ecx, DWORD PTR __$EHRec$[ebp]
  00374	64 89 0d 00 00
	00 00		 mov	 DWORD PTR fs:0, ecx
  0037b	59		 pop	 ecx
  0037c	5f		 pop	 edi
  0037d	5e		 pop	 esi
  0037e	5b		 pop	 ebx
  0037f	8b e5		 mov	 esp, ebp
  00381	5d		 pop	 ebp
  00382	c3		 ret	 0
$LN85@CDKeyHashM:
; File e:\infinia-library-3.0\com\include\combmempool.h

; 90   : 		case eAlloc_Type_alloc:		free(m_pChunk);		break;

  00383	51		 push	 ecx
  00384	ff d7		 call	 edi
  00386	e9 56 ff ff ff	 jmp	 $LN128@CDKeyHashM
$LN98@CDKeyHashM:
  0038b	51		 push	 ecx
  0038c	ff d7		 call	 edi
  0038e	eb 9f		 jmp	 SHORT $LN129@CDKeyHashM
_TEXT	ENDS
;	COMDAT text$x
text$x	SEGMENT
__ehhandler$??1CDKeyHashMap@@QAE@XZ:
  00000	8b 54 24 08	 mov	 edx, DWORD PTR [esp+8]
  00004	8d 42 0c	 lea	 eax, DWORD PTR [edx+12]
  00007	8b 4a d4	 mov	 ecx, DWORD PTR [edx-44]
  0000a	33 c8		 xor	 ecx, eax
  0000c	e8 00 00 00 00	 call	 @__security_check_cookie@4
  00011	b8 00 00 00 00	 mov	 eax, OFFSET __ehfuncinfo$??1CDKeyHashMap@@QAE@XZ
  00016	e9 00 00 00 00	 jmp	 ___CxxFrameHandler3
text$x	ENDS
??1CDKeyHashMap@@QAE@XZ ENDP				; CDKeyHashMap::~CDKeyHashMap
; Function compile flags: /Ogtp
; File e:\infinia-library-3.0\com\src\comdualkeyhash.cpp
; File e:\infinia-library-3.0\com\include\combmempool.h
; File e:\infinia-library-3.0\com\src\comdualkeyhash.cpp
; File e:\infinia-library-3.0\com\include\combmempool.h
; File e:\infinia-library-3.0\com\src\comdualkeyhash.cpp
; File e:\infinia-library-3.0\com\include\combmempool.h
; File e:\infinia-library-3.0\com\src\comdualkeyhash.cpp
; File e:\infinia-library-3.0\com\include\commemmanager.h
; File e:\infinia-library-3.0\com\src\comdualkeyhash.cpp
; File e:\infinia-library-3.0\com\include\commemmanager.h
; File e:\infinia-library-3.0\com\src\comdualkeyhash.cpp
; File e:\infinia-library-3.0\com\include\commemmanager.h
; File e:\infinia-library-3.0\com\src\comdualkeyhash.cpp
; File e:\infinia-library-3.0\com\include\commemmanager.h
; File e:\infinia-library-3.0\com\src\comdualkeyhash.cpp
; File e:\infinia-library-3.0\com\include\commemmanager.h
; File e:\infinia-library-3.0\com\src\comdualkeyhash.cpp
; File e:\infinia-library-3.0\com\include\commemmanager.h
; File e:\infinia-library-3.0\com\src\comdualkeyhash.cpp
; File e:\infinia-library-3.0\com\include\commemmanager.h
; File e:\infinia-library-3.0\com\src\comdualkeyhash.cpp
; File e:\infinia-library-3.0\com\include\commemmanager.h
; File e:\infinia-library-3.0\com\src\comdualkeyhash.cpp
; File e:\infinia-library-3.0\com\include\combmempool.h
; File e:\infinia-library-3.0\com\src\comdualkeyhash.cpp
; File e:\infinia-library-3.0\com\include\combmempool.h
; File e:\infinia-library-3.0\com\src\comdualkeyhash.cpp
; File e:\infinia-library-3.0\com\include\combmempool.h
; File e:\infinia-library-3.0\com\src\comdualkeyhash.cpp
;	COMDAT ??0CDKeyHashMap@@QAE@HH_N@Z
_TEXT	SEGMENT
$T2 = -16						; size = 4
$T3 = -16						; size = 4
__$EHRec$ = -12						; size = 12
_nKey1Max$ = 8						; size = 4
_nKey2Max$ = 12						; size = 4
$T4 = 16						; size = 4
_bValInternal$ = 16					; size = 1
??0CDKeyHashMap@@QAE@HH_N@Z PROC			; CDKeyHashMap::CDKeyHashMap, COMDAT
; _this$ = ecx

; 9    : {

  00000	55		 push	 ebp
  00001	8b ec		 mov	 ebp, esp
  00003	6a ff		 push	 -1
  00005	68 00 00 00 00	 push	 __ehhandler$??0CDKeyHashMap@@QAE@HH_N@Z
  0000a	64 a1 00 00 00
	00		 mov	 eax, DWORD PTR fs:0
  00010	50		 push	 eax
  00011	51		 push	 ecx
  00012	56		 push	 esi
  00013	57		 push	 edi
  00014	a1 00 00 00 00	 mov	 eax, DWORD PTR ___security_cookie
  00019	33 c5		 xor	 eax, ebp
  0001b	50		 push	 eax
  0001c	8d 45 f4	 lea	 eax, DWORD PTR __$EHRec$[ebp]
  0001f	64 a3 00 00 00
	00		 mov	 DWORD PTR fs:0, eax
  00025	8b f9		 mov	 edi, ecx

; 10   : 	m_nMaxCount1 = nKey1Max;

  00027	8b 45 08	 mov	 eax, DWORD PTR _nKey1Max$[ebp]
  0002a	89 47 0c	 mov	 DWORD PTR [edi+12], eax

; 11   : 	m_nMaxCount2 = nKey2Max;

  0002d	8b 45 0c	 mov	 eax, DWORD PTR _nKey2Max$[ebp]

; 12   : 	m_pHashNext = new CBMemPool<SThash_next>(eAlloc_Type_alloc);

  00030	6a 18		 push	 24			; 00000018H
  00032	89 47 10	 mov	 DWORD PTR [edi+16], eax
  00035	e8 00 00 00 00	 call	 ??2@YAPAXI@Z		; operator new
  0003a	8b f0		 mov	 esi, eax
  0003c	83 c4 04	 add	 esp, 4
  0003f	89 75 f0	 mov	 DWORD PTR $T3[ebp], esi
  00042	85 f6		 test	 esi, esi
  00044	74 33		 je	 SHORT $LN5@CDKeyHashM
  00046	0f 57 c0	 xorps	 xmm0, xmm0
  00049	0f 11 06	 movups	 XMMWORD PTR [esi], xmm0
  0004c	66 0f d6 46 10	 movq	 QWORD PTR [esi+16], xmm0
; File e:\infinia-library-3.0\com\include\combmempool.h

; 75   : 	m_nAllocCount = 0;

  00051	c7 46 08 00 00
	00 00		 mov	 DWORD PTR [esi+8], 0

; 76   : 	m_pChunk = NULL;

  00058	c7 46 14 00 00
	00 00		 mov	 DWORD PTR [esi+20], 0

; 77   : 	m_nUseCnt = 0;

  0005f	c7 46 04 00 00
	00 00		 mov	 DWORD PTR [esi+4], 0

; 78   : 	m_nFlagArray = NULL;

  00066	c7 46 10 00 00
	00 00		 mov	 DWORD PTR [esi+16], 0

; 79   : 	m_nObjAllocType = nType;

  0006d	c7 46 0c 03 00
	00 00		 mov	 DWORD PTR [esi+12], 3

; 80   : 	m_bSlot = false;

  00074	c6 06 00	 mov	 BYTE PTR [esi], 0
; File e:\infinia-library-3.0\com\src\comdualkeyhash.cpp

; 12   : 	m_pHashNext = new CBMemPool<SThash_next>(eAlloc_Type_alloc);

  00077	eb 02		 jmp	 SHORT $LN6@CDKeyHashM
$LN5@CDKeyHashM:
  00079	33 f6		 xor	 esi, esi
$LN6@CDKeyHashM:

; 13   : 	m_pHashNext->alloc(nKey1Max + nKey2Max + 50);

  0007b	8b 4d 08	 mov	 ecx, DWORD PTR _nKey1Max$[ebp]
  0007e	8b 45 0c	 mov	 eax, DWORD PTR _nKey2Max$[ebp]
  00081	83 c1 32	 add	 ecx, 50			; 00000032H
  00084	03 c1		 add	 eax, ecx
  00086	89 37		 mov	 DWORD PTR [edi], esi
; File e:\infinia-library-3.0\com\include\combmempool.h

; 32   : 	inline int alloc(int nMaxCount) { m_nAllocCount = __alloc(nMaxCount); return m_nAllocCount; }

  00088	50		 push	 eax
  00089	8b ce		 mov	 ecx, esi
  0008b	e8 00 00 00 00	 call	 ?__alloc@?$CBMemPool@USThash_next@@@@AAEHH@Z ; CBMemPool<SThash_next>::__alloc
; File e:\infinia-library-3.0\com\src\comdualkeyhash.cpp

; 14   : 	m_pHashGroup = new CHash(nKey1Max);

  00090	6a 10		 push	 16			; 00000010H
; File e:\infinia-library-3.0\com\include\combmempool.h

; 32   : 	inline int alloc(int nMaxCount) { m_nAllocCount = __alloc(nMaxCount); return m_nAllocCount; }

  00092	89 46 08	 mov	 DWORD PTR [esi+8], eax
; File e:\infinia-library-3.0\com\src\comdualkeyhash.cpp

; 14   : 	m_pHashGroup = new CHash(nKey1Max);

  00095	e8 00 00 00 00	 call	 ??2@YAPAXI@Z		; operator new
  0009a	83 c4 04	 add	 esp, 4
  0009d	89 45 f0	 mov	 DWORD PTR $T2[ebp], eax
  000a0	c7 45 fc 00 00
	00 00		 mov	 DWORD PTR __$EHRec$[ebp+8], 0
  000a7	85 c0		 test	 eax, eax
  000a9	74 12		 je	 SHORT $LN7@CDKeyHashM
  000ab	ff 75 08	 push	 DWORD PTR _nKey1Max$[ebp]
  000ae	0f 57 c0	 xorps	 xmm0, xmm0
  000b1	8b c8		 mov	 ecx, eax
  000b3	0f 11 00	 movups	 XMMWORD PTR [eax], xmm0
  000b6	e8 00 00 00 00	 call	 ??0CHash@@QAE@I@Z	; CHash::CHash
  000bb	eb 02		 jmp	 SHORT $LN8@CDKeyHashM
$LN7@CDKeyHashM:
  000bd	33 c0		 xor	 eax, eax
$LN8@CDKeyHashM:
  000bf	89 47 08	 mov	 DWORD PTR [edi+8], eax

; 15   : 
; 16   : 	int nBasicCount = nKey2Max << 1;	//(nKey2Max * 2)

  000c2	8b 45 0c	 mov	 eax, DWORD PTR _nKey2Max$[ebp]
  000c5	c7 45 fc ff ff
	ff ff		 mov	 DWORD PTR __$EHRec$[ebp+8], -1
  000cc	8d 14 00	 lea	 edx, DWORD PTR [eax+eax]

; 17   : 	gs_pMMgr->init(IDX_BUF_4, nBasicCount);

  000cf	a1 00 00 00 00	 mov	 eax, DWORD PTR ?gs_pMMgr@@3PAVCMemManager@@A ; gs_pMMgr
; File e:\infinia-library-3.0\com\include\commemmanager.h

; 29   : 	inline void init(E_IDX_BUF eIdx, int nMax) { m_stConfig.nMaxList[eIdx] += nMax; }

  000d4	01 50 60	 add	 DWORD PTR [eax+96], edx
  000d7	8d 42 32	 lea	 eax, DWORD PTR [edx+50]
; File e:\infinia-library-3.0\com\src\comdualkeyhash.cpp

; 18   : 	gs_pMMgr->init(IDX_BUF_8, nBasicCount + 50);

  000da	8b 0d 00 00 00
	00		 mov	 ecx, DWORD PTR ?gs_pMMgr@@3PAVCMemManager@@A ; gs_pMMgr
; File e:\infinia-library-3.0\com\include\commemmanager.h

; 29   : 	inline void init(E_IDX_BUF eIdx, int nMax) { m_stConfig.nMaxList[eIdx] += nMax; }

  000e0	01 41 64	 add	 DWORD PTR [ecx+100], eax
  000e3	8d 42 32	 lea	 eax, DWORD PTR [edx+50]
; File e:\infinia-library-3.0\com\src\comdualkeyhash.cpp

; 19   : 	gs_pMMgr->init(IDX_BUF_16, nBasicCount + 50);

  000e6	8b 0d 00 00 00
	00		 mov	 ecx, DWORD PTR ?gs_pMMgr@@3PAVCMemManager@@A ; gs_pMMgr
; File e:\infinia-library-3.0\com\include\commemmanager.h

; 29   : 	inline void init(E_IDX_BUF eIdx, int nMax) { m_stConfig.nMaxList[eIdx] += nMax; }

  000ec	01 41 68	 add	 DWORD PTR [ecx+104], eax
  000ef	8d 42 32	 lea	 eax, DWORD PTR [edx+50]
; File e:\infinia-library-3.0\com\src\comdualkeyhash.cpp

; 20   : 	gs_pMMgr->init(IDX_BUF_32, nBasicCount + 50);

  000f2	8b 0d 00 00 00
	00		 mov	 ecx, DWORD PTR ?gs_pMMgr@@3PAVCMemManager@@A ; gs_pMMgr
; File e:\infinia-library-3.0\com\include\commemmanager.h

; 29   : 	inline void init(E_IDX_BUF eIdx, int nMax) { m_stConfig.nMaxList[eIdx] += nMax; }

  000f8	01 41 6c	 add	 DWORD PTR [ecx+108], eax
; File e:\infinia-library-3.0\com\src\comdualkeyhash.cpp

; 21   : 	gs_pMMgr->init(IDX_BUF_64, nBasicCount);

  000fb	a1 00 00 00 00	 mov	 eax, DWORD PTR ?gs_pMMgr@@3PAVCMemManager@@A ; gs_pMMgr
; File e:\infinia-library-3.0\com\include\commemmanager.h

; 29   : 	inline void init(E_IDX_BUF eIdx, int nMax) { m_stConfig.nMaxList[eIdx] += nMax; }

  00100	01 50 70	 add	 DWORD PTR [eax+112], edx
; File e:\infinia-library-3.0\com\src\comdualkeyhash.cpp

; 22   : 	gs_pMMgr->init(IDX_BUF_128, nBasicCount);

  00103	a1 00 00 00 00	 mov	 eax, DWORD PTR ?gs_pMMgr@@3PAVCMemManager@@A ; gs_pMMgr
; File e:\infinia-library-3.0\com\include\commemmanager.h

; 29   : 	inline void init(E_IDX_BUF eIdx, int nMax) { m_stConfig.nMaxList[eIdx] += nMax; }

  00108	01 50 74	 add	 DWORD PTR [eax+116], edx
; File e:\infinia-library-3.0\com\src\comdualkeyhash.cpp

; 23   : 	gs_pMMgr->init(IDX_BUF_256, 10);

  0010b	a1 00 00 00 00	 mov	 eax, DWORD PTR ?gs_pMMgr@@3PAVCMemManager@@A ; gs_pMMgr
; File e:\infinia-library-3.0\com\include\commemmanager.h

; 29   : 	inline void init(E_IDX_BUF eIdx, int nMax) { m_stConfig.nMaxList[eIdx] += nMax; }

  00110	83 40 78 0a	 add	 DWORD PTR [eax+120], 10	; 0000000aH
; File e:\infinia-library-3.0\com\src\comdualkeyhash.cpp

; 24   : 	gs_pMMgr->init(IDX_BUF_512, 10);

  00114	a1 00 00 00 00	 mov	 eax, DWORD PTR ?gs_pMMgr@@3PAVCMemManager@@A ; gs_pMMgr
; File e:\infinia-library-3.0\com\include\commemmanager.h

; 29   : 	inline void init(E_IDX_BUF eIdx, int nMax) { m_stConfig.nMaxList[eIdx] += nMax; }

  00119	83 40 7c 0a	 add	 DWORD PTR [eax+124], 10	; 0000000aH
; File e:\infinia-library-3.0\com\src\comdualkeyhash.cpp

; 26   : 	m_bValInternal = bValInternal;

  0011d	8a 45 10	 mov	 al, BYTE PTR _bValInternal$[ebp]
  00120	88 47 14	 mov	 BYTE PTR [edi+20], al

; 27   : 
; 28   : 	if (m_bValInternal) {

  00123	84 c0		 test	 al, al
  00125	74 5e		 je	 SHORT $LN2@CDKeyHashM

; 29   : 		m_pValue = new CBMemPool<STValue>(eAlloc_Type_alloc);

  00127	6a 18		 push	 24			; 00000018H
  00129	e8 00 00 00 00	 call	 ??2@YAPAXI@Z		; operator new
  0012e	8b f0		 mov	 esi, eax
  00130	83 c4 04	 add	 esp, 4
  00133	89 75 10	 mov	 DWORD PTR $T4[ebp], esi
  00136	85 f6		 test	 esi, esi
  00138	74 33		 je	 SHORT $LN9@CDKeyHashM
  0013a	0f 57 c0	 xorps	 xmm0, xmm0
  0013d	0f 11 06	 movups	 XMMWORD PTR [esi], xmm0
  00140	66 0f d6 46 10	 movq	 QWORD PTR [esi+16], xmm0
; File e:\infinia-library-3.0\com\include\combmempool.h

; 75   : 	m_nAllocCount = 0;

  00145	c7 46 08 00 00
	00 00		 mov	 DWORD PTR [esi+8], 0

; 76   : 	m_pChunk = NULL;

  0014c	c7 46 14 00 00
	00 00		 mov	 DWORD PTR [esi+20], 0

; 77   : 	m_nUseCnt = 0;

  00153	c7 46 04 00 00
	00 00		 mov	 DWORD PTR [esi+4], 0

; 78   : 	m_nFlagArray = NULL;

  0015a	c7 46 10 00 00
	00 00		 mov	 DWORD PTR [esi+16], 0

; 79   : 	m_nObjAllocType = nType;

  00161	c7 46 0c 03 00
	00 00		 mov	 DWORD PTR [esi+12], 3

; 80   : 	m_bSlot = false;

  00168	c6 06 00	 mov	 BYTE PTR [esi], 0
; File e:\infinia-library-3.0\com\src\comdualkeyhash.cpp

; 29   : 		m_pValue = new CBMemPool<STValue>(eAlloc_Type_alloc);

  0016b	eb 02		 jmp	 SHORT $LN10@CDKeyHashM
$LN9@CDKeyHashM:
  0016d	33 f6		 xor	 esi, esi
$LN10@CDKeyHashM:

; 30   : 		m_pValue->alloc(nKey2Max + 50);

  0016f	8b 45 0c	 mov	 eax, DWORD PTR _nKey2Max$[ebp]
; File e:\infinia-library-3.0\com\include\combmempool.h

; 32   : 	inline int alloc(int nMaxCount) { m_nAllocCount = __alloc(nMaxCount); return m_nAllocCount; }

  00172	8b ce		 mov	 ecx, esi
; File e:\infinia-library-3.0\com\src\comdualkeyhash.cpp

; 30   : 		m_pValue->alloc(nKey2Max + 50);

  00174	83 c0 32	 add	 eax, 50			; 00000032H
  00177	89 77 04	 mov	 DWORD PTR [edi+4], esi
; File e:\infinia-library-3.0\com\include\combmempool.h

; 32   : 	inline int alloc(int nMaxCount) { m_nAllocCount = __alloc(nMaxCount); return m_nAllocCount; }

  0017a	50		 push	 eax
  0017b	e8 00 00 00 00	 call	 ?__alloc@?$CBMemPool@USTValue@@@@AAEHH@Z ; CBMemPool<STValue>::__alloc
  00180	89 46 08	 mov	 DWORD PTR [esi+8], eax
  00183	eb 07		 jmp	 SHORT $LN48@CDKeyHashM
$LN2@CDKeyHashM:
; File e:\infinia-library-3.0\com\src\comdualkeyhash.cpp

; 32   : 	else m_pValue = NULL;

  00185	c7 47 04 00 00
	00 00		 mov	 DWORD PTR [edi+4], 0
$LN48@CDKeyHashM:

; 33   : }

  0018c	8b c7		 mov	 eax, edi
  0018e	8b 4d f4	 mov	 ecx, DWORD PTR __$EHRec$[ebp]
  00191	64 89 0d 00 00
	00 00		 mov	 DWORD PTR fs:0, ecx
  00198	59		 pop	 ecx
  00199	5f		 pop	 edi
  0019a	5e		 pop	 esi
  0019b	8b e5		 mov	 esp, ebp
  0019d	5d		 pop	 ebp
  0019e	c2 0c 00	 ret	 12			; 0000000cH
_TEXT	ENDS
;	COMDAT text$x
text$x	SEGMENT
__unwindfunclet$??0CDKeyHashMap@@QAE@HH_N@Z$1:
  00000	6a 10		 push	 16			; 00000010H
  00002	8b 45 f0	 mov	 eax, DWORD PTR $T2[ebp]
  00005	50		 push	 eax
  00006	e8 00 00 00 00	 call	 ??3@YAXPAXI@Z		; operator delete
  0000b	83 c4 08	 add	 esp, 8
  0000e	c3		 ret	 0
__ehhandler$??0CDKeyHashMap@@QAE@HH_N@Z:
  0000f	8b 54 24 08	 mov	 edx, DWORD PTR [esp+8]
  00013	8d 42 0c	 lea	 eax, DWORD PTR [edx+12]
  00016	8b 4a f0	 mov	 ecx, DWORD PTR [edx-16]
  00019	33 c8		 xor	 ecx, eax
  0001b	e8 00 00 00 00	 call	 @__security_check_cookie@4
  00020	b8 00 00 00 00	 mov	 eax, OFFSET __ehfuncinfo$??0CDKeyHashMap@@QAE@HH_N@Z
  00025	e9 00 00 00 00	 jmp	 ___CxxFrameHandler3
text$x	ENDS
??0CDKeyHashMap@@QAE@HH_N@Z ENDP			; CDKeyHashMap::CDKeyHashMap
; Function compile flags: /Ogtp
; File e:\infinia-library-3.0\com\include\commemmanager.h
; File e:\infinia-library-3.0\com\include\combufpool.h
; File e:\infinia-library-3.0\com\include\commemmanager.h
; File e:\infinia-library-3.0\com\include\combufpool.h
; File e:\infinia-library-3.0\com\include\commemmanager.h
;	COMDAT ?delBuf@CMemManager@@QAEXPADH@Z
_TEXT	SEGMENT
_$S1$1 = -8						; size = 8
_pBuf$ = 8						; size = 4
_nSize$ = 12						; size = 4
?delBuf@CMemManager@@QAEXPADH@Z PROC			; CMemManager::delBuf, COMDAT
; _this$ = ecx

; 38   : 	inline void delBuf(char *pBuf, int nSize) { int nIdx = getIndex(nSize); delBufByIndex(pBuf, nIdx); }

  00000	55		 push	 ebp
  00001	8b ec		 mov	 ebp, esp
  00003	83 ec 08	 sub	 esp, 8
; File e:\infinia-library-3.0\com\include\combufpool.h

; 51   : inline int getIndex(int s) { int m; union { double x; int b[2]; }; x = s; m = (b[1] >> 20) - 1023; return m + ((s&(s - (1 << m))) ? 1 : 0); }

  00006	8b 55 0c	 mov	 edx, DWORD PTR _nSize$[ebp]
  00009	b8 01 00 00 00	 mov	 eax, 1
  0000e	56		 push	 esi
  0000f	57		 push	 edi
; File e:\infinia-library-3.0\com\include\commemmanager.h

; 38   : 	inline void delBuf(char *pBuf, int nSize) { int nIdx = getIndex(nSize); delBufByIndex(pBuf, nIdx); }

  00010	8b f9		 mov	 edi, ecx
  00012	66 0f 6e c2	 movd	 xmm0, edx
; File e:\infinia-library-3.0\com\include\combufpool.h

; 51   : inline int getIndex(int s) { int m; union { double x; int b[2]; }; x = s; m = (b[1] >> 20) - 1023; return m + ((s&(s - (1 << m))) ? 1 : 0); }

  00016	f3 0f e6 c0	 cvtdq2pd xmm0, xmm0
  0001a	f2 0f 11 45 f8	 movsd	 QWORD PTR _$S1$1[ebp], xmm0
  0001f	8b 75 fc	 mov	 esi, DWORD PTR _$S1$1[ebp+4]
  00022	c1 fe 14	 sar	 esi, 20			; 00000014H
  00025	81 ee ff 03 00
	00		 sub	 esi, 1023		; 000003ffH
  0002b	8b ce		 mov	 ecx, esi
  0002d	d3 e0		 shl	 eax, cl
  0002f	8b ca		 mov	 ecx, edx
  00031	2b c8		 sub	 ecx, eax
  00033	23 ca		 and	 ecx, edx
  00035	f7 d9		 neg	 ecx
  00037	1b c9		 sbb	 ecx, ecx
  00039	f7 d9		 neg	 ecx
  0003b	03 ce		 add	 ecx, esi
; File e:\infinia-library-3.0\com\include\commemmanager.h

; 38   : 	inline void delBuf(char *pBuf, int nSize) { int nIdx = getIndex(nSize); delBufByIndex(pBuf, nIdx); }

  0003d	51		 push	 ecx
  0003e	ff 75 08	 push	 DWORD PTR _pBuf$[ebp]
  00041	8b cf		 mov	 ecx, edi
  00043	e8 00 00 00 00	 call	 ?delBufByIndex@CMemManager@@QAEXPADH@Z ; CMemManager::delBufByIndex
  00048	5f		 pop	 edi
  00049	5e		 pop	 esi
  0004a	8b e5		 mov	 esp, ebp
  0004c	5d		 pop	 ebp
  0004d	c2 08 00	 ret	 8
?delBuf@CMemManager@@QAEXPADH@Z ENDP			; CMemManager::delBuf
_TEXT	ENDS
; Function compile flags: /Ogtp
; File e:\infinia-library-3.0\com\include\commemmanager.h
; File e:\infinia-library-3.0\com\include\combufpool.h
; File e:\infinia-library-3.0\com\include\commemmanager.h
; File e:\infinia-library-3.0\com\include\combufpool.h
; File e:\infinia-library-3.0\com\include\commemmanager.h
; File e:\infinia-library-3.0\com\include\combufpool.h
; File e:\infinia-library-3.0\com\include\commemmanager.h
;	COMDAT ?newBuf@CMemManager@@QAEPADHPAH@Z
_TEXT	SEGMENT
_$S1$1 = -8						; size = 8
_nSize$ = 8						; size = 4
_pIndex$ = 12						; size = 4
?newBuf@CMemManager@@QAEPADHPAH@Z PROC			; CMemManager::newBuf, COMDAT
; _this$ = ecx

; 35   : 	inline char *newBuf(int nSize, int *pIndex) { *pIndex = getIndex(nSize);  return __newBuf(*pIndex, nSize); }

  00000	55		 push	 ebp
  00001	8b ec		 mov	 ebp, esp
  00003	83 ec 08	 sub	 esp, 8
  00006	56		 push	 esi
; File e:\infinia-library-3.0\com\include\combufpool.h

; 51   : inline int getIndex(int s) { int m; union { double x; int b[2]; }; x = s; m = (b[1] >> 20) - 1023; return m + ((s&(s - (1 << m))) ? 1 : 0); }

  00007	8b 75 08	 mov	 esi, DWORD PTR _nSize$[ebp]
  0000a	b8 01 00 00 00	 mov	 eax, 1
  0000f	57		 push	 edi
; File e:\infinia-library-3.0\com\include\commemmanager.h

; 35   : 	inline char *newBuf(int nSize, int *pIndex) { *pIndex = getIndex(nSize);  return __newBuf(*pIndex, nSize); }

  00010	8b f9		 mov	 edi, ecx
  00012	56		 push	 esi
  00013	66 0f 6e c6	 movd	 xmm0, esi
; File e:\infinia-library-3.0\com\include\combufpool.h

; 51   : inline int getIndex(int s) { int m; union { double x; int b[2]; }; x = s; m = (b[1] >> 20) - 1023; return m + ((s&(s - (1 << m))) ? 1 : 0); }

  00017	f3 0f e6 c0	 cvtdq2pd xmm0, xmm0
  0001b	f2 0f 11 45 f8	 movsd	 QWORD PTR _$S1$1[ebp], xmm0
  00020	8b 55 fc	 mov	 edx, DWORD PTR _$S1$1[ebp+4]
  00023	c1 fa 14	 sar	 edx, 20			; 00000014H
  00026	81 ea ff 03 00
	00		 sub	 edx, 1023		; 000003ffH
  0002c	8b ca		 mov	 ecx, edx
  0002e	d3 e0		 shl	 eax, cl
  00030	8b ce		 mov	 ecx, esi
  00032	2b c8		 sub	 ecx, eax
; File e:\infinia-library-3.0\com\include\commemmanager.h

; 35   : 	inline char *newBuf(int nSize, int *pIndex) { *pIndex = getIndex(nSize);  return __newBuf(*pIndex, nSize); }

  00034	8b 45 0c	 mov	 eax, DWORD PTR _pIndex$[ebp]
; File e:\infinia-library-3.0\com\include\combufpool.h

; 51   : inline int getIndex(int s) { int m; union { double x; int b[2]; }; x = s; m = (b[1] >> 20) - 1023; return m + ((s&(s - (1 << m))) ? 1 : 0); }

  00037	23 ce		 and	 ecx, esi
  00039	f7 d9		 neg	 ecx
  0003b	1b c9		 sbb	 ecx, ecx
  0003d	f7 d9		 neg	 ecx
  0003f	03 ca		 add	 ecx, edx
; File e:\infinia-library-3.0\com\include\commemmanager.h

; 35   : 	inline char *newBuf(int nSize, int *pIndex) { *pIndex = getIndex(nSize);  return __newBuf(*pIndex, nSize); }

  00041	89 08		 mov	 DWORD PTR [eax], ecx
  00043	51		 push	 ecx
  00044	8b cf		 mov	 ecx, edi
  00046	e8 00 00 00 00	 call	 ?__newBuf@CMemManager@@AAEPADHI@Z ; CMemManager::__newBuf
  0004b	5f		 pop	 edi
  0004c	5e		 pop	 esi
  0004d	8b e5		 mov	 esp, ebp
  0004f	5d		 pop	 ebp
  00050	c2 08 00	 ret	 8
?newBuf@CMemManager@@QAEPADHPAH@Z ENDP			; CMemManager::newBuf
_TEXT	ENDS
; Function compile flags: /Ogtp
; File e:\infinia-library-3.0\com\include\commemmanager.h
; File e:\infinia-library-3.0\com\include\combufpool.h
; File e:\infinia-library-3.0\com\include\commemmanager.h
; File e:\infinia-library-3.0\com\include\combufpool.h
; File e:\infinia-library-3.0\com\include\commemmanager.h
; File e:\infinia-library-3.0\com\include\combufpool.h
; File e:\infinia-library-3.0\com\include\commemmanager.h
;	COMDAT ?newBuf@CMemManager@@QAEPADH@Z
_TEXT	SEGMENT
_$S1$1 = -8						; size = 8
_nSize$ = 8						; size = 4
?newBuf@CMemManager@@QAEPADH@Z PROC			; CMemManager::newBuf, COMDAT
; _this$ = ecx

; 34   : 	inline char *newBuf(int nSize) { int nIdx = getIndex(nSize);  return __newBuf(nIdx, nSize); }

  00000	55		 push	 ebp
  00001	8b ec		 mov	 ebp, esp
  00003	83 ec 08	 sub	 esp, 8
; File e:\infinia-library-3.0\com\include\combufpool.h

; 51   : inline int getIndex(int s) { int m; union { double x; int b[2]; }; x = s; m = (b[1] >> 20) - 1023; return m + ((s&(s - (1 << m))) ? 1 : 0); }

  00006	8b 55 08	 mov	 edx, DWORD PTR _nSize$[ebp]
  00009	b8 01 00 00 00	 mov	 eax, 1
  0000e	56		 push	 esi
  0000f	57		 push	 edi
; File e:\infinia-library-3.0\com\include\commemmanager.h

; 34   : 	inline char *newBuf(int nSize) { int nIdx = getIndex(nSize);  return __newBuf(nIdx, nSize); }

  00010	8b f9		 mov	 edi, ecx
  00012	66 0f 6e c2	 movd	 xmm0, edx
; File e:\infinia-library-3.0\com\include\combufpool.h

; 51   : inline int getIndex(int s) { int m; union { double x; int b[2]; }; x = s; m = (b[1] >> 20) - 1023; return m + ((s&(s - (1 << m))) ? 1 : 0); }

  00016	f3 0f e6 c0	 cvtdq2pd xmm0, xmm0
; File e:\infinia-library-3.0\com\include\commemmanager.h

; 34   : 	inline char *newBuf(int nSize) { int nIdx = getIndex(nSize);  return __newBuf(nIdx, nSize); }

  0001a	52		 push	 edx
; File e:\infinia-library-3.0\com\include\combufpool.h

; 51   : inline int getIndex(int s) { int m; union { double x; int b[2]; }; x = s; m = (b[1] >> 20) - 1023; return m + ((s&(s - (1 << m))) ? 1 : 0); }

  0001b	f2 0f 11 45 f8	 movsd	 QWORD PTR _$S1$1[ebp], xmm0
  00020	8b 75 fc	 mov	 esi, DWORD PTR _$S1$1[ebp+4]
  00023	c1 fe 14	 sar	 esi, 20			; 00000014H
  00026	81 ee ff 03 00
	00		 sub	 esi, 1023		; 000003ffH
  0002c	8b ce		 mov	 ecx, esi
  0002e	d3 e0		 shl	 eax, cl
  00030	8b ca		 mov	 ecx, edx
  00032	2b c8		 sub	 ecx, eax
  00034	23 ca		 and	 ecx, edx
  00036	f7 d9		 neg	 ecx
  00038	1b c9		 sbb	 ecx, ecx
  0003a	f7 d9		 neg	 ecx
  0003c	03 ce		 add	 ecx, esi
; File e:\infinia-library-3.0\com\include\commemmanager.h

; 34   : 	inline char *newBuf(int nSize) { int nIdx = getIndex(nSize);  return __newBuf(nIdx, nSize); }

  0003e	51		 push	 ecx
  0003f	8b cf		 mov	 ecx, edi
  00041	e8 00 00 00 00	 call	 ?__newBuf@CMemManager@@AAEPADHI@Z ; CMemManager::__newBuf
  00046	5f		 pop	 edi
  00047	5e		 pop	 esi
  00048	8b e5		 mov	 esp, ebp
  0004a	5d		 pop	 ebp
  0004b	c2 04 00	 ret	 4
?newBuf@CMemManager@@QAEPADH@Z ENDP			; CMemManager::newBuf
_TEXT	ENDS
; Function compile flags: /Ogtp
; File e:\infinia-library-3.0\com\include\commemmanager.h
;	COMDAT ?init@CMemManager@@QAEXW4E_IDX_BUF@@H@Z
_TEXT	SEGMENT
_eIdx$ = 8						; size = 4
_nMax$ = 12						; size = 4
?init@CMemManager@@QAEXW4E_IDX_BUF@@H@Z PROC		; CMemManager::init, COMDAT
; _this$ = ecx

; 29   : 	inline void init(E_IDX_BUF eIdx, int nMax) { m_stConfig.nMaxList[eIdx] += nMax; }

  00000	55		 push	 ebp
  00001	8b ec		 mov	 ebp, esp
  00003	8b 45 08	 mov	 eax, DWORD PTR _eIdx$[ebp]
  00006	8d 0c 81	 lea	 ecx, DWORD PTR [ecx+eax*4]
  00009	8b 45 0c	 mov	 eax, DWORD PTR _nMax$[ebp]
  0000c	01 41 58	 add	 DWORD PTR [ecx+88], eax
  0000f	5d		 pop	 ebp
  00010	c2 08 00	 ret	 8
?init@CMemManager@@QAEXW4E_IDX_BUF@@H@Z ENDP		; CMemManager::init
_TEXT	ENDS
; Function compile flags: /Ogtp
; File e:\infinia-library-3.0\com\include\combufpool.h
;	COMDAT ?getIndex@@YAHH@Z
_TEXT	SEGMENT
_$S1$ = -8						; size = 8
_s$ = 8							; size = 4
?getIndex@@YAHH@Z PROC					; getIndex, COMDAT

; 51   : inline int getIndex(int s) { int m; union { double x; int b[2]; }; x = s; m = (b[1] >> 20) - 1023; return m + ((s&(s - (1 << m))) ? 1 : 0); }

  00000	55		 push	 ebp
  00001	8b ec		 mov	 ebp, esp
  00003	83 ec 08	 sub	 esp, 8
  00006	56		 push	 esi
  00007	8b 75 08	 mov	 esi, DWORD PTR _s$[ebp]
  0000a	ba 01 00 00 00	 mov	 edx, 1
  0000f	8b c6		 mov	 eax, esi
  00011	66 0f 6e c6	 movd	 xmm0, esi
  00015	f3 0f e6 c0	 cvtdq2pd xmm0, xmm0
  00019	f2 0f 11 45 f8	 movsd	 QWORD PTR _$S1$[ebp], xmm0
  0001e	8b 4d fc	 mov	 ecx, DWORD PTR _$S1$[ebp+4]
  00021	c1 f9 14	 sar	 ecx, 20			; 00000014H
  00024	81 e9 ff 03 00
	00		 sub	 ecx, 1023		; 000003ffH
  0002a	d3 e2		 shl	 edx, cl
  0002c	2b c2		 sub	 eax, edx
  0002e	23 c6		 and	 eax, esi
  00030	f7 d8		 neg	 eax
  00032	5e		 pop	 esi
  00033	1b c0		 sbb	 eax, eax
  00035	f7 d8		 neg	 eax
  00037	03 c1		 add	 eax, ecx
  00039	8b e5		 mov	 esp, ebp
  0003b	5d		 pop	 ebp
  0003c	c3		 ret	 0
?getIndex@@YAHH@Z ENDP					; getIndex
_TEXT	ENDS
; Function compile flags: /Ogtp
; File e:\infinia-library-3.0\com\include\comtypes.h
;	COMDAT ?ISINCLUDE@@YA_NHH@Z
_TEXT	SEGMENT
_i$ = 8							; size = 4
_max$ = 12						; size = 4
?ISINCLUDE@@YA_NHH@Z PROC				; ISINCLUDE, COMDAT

; 322  : inline bool ISINCLUDE(int i, int max) { if (0 <= i && i < max) return true; return false; }

  00000	55		 push	 ebp
  00001	8b ec		 mov	 ebp, esp
  00003	8b 45 08	 mov	 eax, DWORD PTR _i$[ebp]
  00006	85 c0		 test	 eax, eax
  00008	78 09		 js	 SHORT $LN2@ISINCLUDE
  0000a	3b 45 0c	 cmp	 eax, DWORD PTR _max$[ebp]
  0000d	7d 04		 jge	 SHORT $LN2@ISINCLUDE
  0000f	b0 01		 mov	 al, 1
  00011	5d		 pop	 ebp
  00012	c3		 ret	 0
$LN2@ISINCLUDE:
  00013	32 c0		 xor	 al, al
  00015	5d		 pop	 ebp
  00016	c3		 ret	 0
?ISINCLUDE@@YA_NHH@Z ENDP				; ISINCLUDE
_TEXT	ENDS
; Function compile flags: /Ogtp
; File e:\infinia-library-3.0\com\include\comtypes.h
;	COMDAT ?c_memcpy@@YAPAXPAXPBXH@Z
_TEXT	SEGMENT
_de$ = 8						; size = 4
_so$ = 12						; size = 4
_l$ = 16						; size = 4
?c_memcpy@@YAPAXPAXPBXH@Z PROC				; c_memcpy, COMDAT

; 309  : inline void *c_memcpy(void *de, const void *so, int l) { char *d = (char*)de; const char *s = (char*)so; while (l--) *d++ = *s++; return de;}

  00000	55		 push	 ebp
  00001	8b ec		 mov	 ebp, esp
  00003	8b 45 08	 mov	 eax, DWORD PTR _de$[ebp]
  00006	8b d0		 mov	 edx, eax
  00008	56		 push	 esi
  00009	8b 75 10	 mov	 esi, DWORD PTR _l$[ebp]
  0000c	85 f6		 test	 esi, esi
  0000e	74 15		 je	 SHORT $LN6@c_memcpy
  00010	57		 push	 edi
  00011	8b 7d 0c	 mov	 edi, DWORD PTR _so$[ebp]
  00014	2b f8		 sub	 edi, eax
$LL2@c_memcpy:
  00016	8a 0c 17	 mov	 cl, BYTE PTR [edi+edx]
  00019	8d 52 01	 lea	 edx, DWORD PTR [edx+1]
  0001c	88 4a ff	 mov	 BYTE PTR [edx-1], cl
  0001f	83 ee 01	 sub	 esi, 1
  00022	75 f2		 jne	 SHORT $LL2@c_memcpy
  00024	5f		 pop	 edi
$LN6@c_memcpy:
  00025	5e		 pop	 esi
  00026	5d		 pop	 ebp
  00027	c3		 ret	 0
?c_memcpy@@YAPAXPAXPBXH@Z ENDP				; c_memcpy
_TEXT	ENDS
; Function compile flags: /Ogtp
; File c:\program files (x86)\windows kits\10\include\10.0.10240.0\ucrt\stdio.h
;	COMDAT _sprintf
_TEXT	SEGMENT
__Buffer$ = 8						; size = 4
__Format$ = 12						; size = 4
_sprintf PROC						; COMDAT

; 1776 : {

  00000	55		 push	 ebp
  00001	8b ec		 mov	 ebp, esp
  00003	8b 45 08	 mov	 eax, DWORD PTR __Buffer$[ebp]

; 1386 :     int const _Result = __stdio_common_vsprintf(

  00006	8d 4d 10	 lea	 ecx, DWORD PTR __Format$[ebp+4]
  00009	51		 push	 ecx
  0000a	6a 00		 push	 0
  0000c	ff 75 0c	 push	 DWORD PTR __Format$[ebp]
  0000f	6a ff		 push	 -1
  00011	50		 push	 eax
  00012	e8 00 00 00 00	 call	 ___local_stdio_printf_options
  00017	8b 08		 mov	 ecx, DWORD PTR [eax]
  00019	ff 70 04	 push	 DWORD PTR [eax+4]
  0001c	83 c9 01	 or	 ecx, 1
  0001f	51		 push	 ecx
  00020	ff 15 00 00 00
	00		 call	 DWORD PTR __imp____stdio_common_vsprintf

; 1387 :         _CRT_INTERNAL_LOCAL_PRINTF_OPTIONS | _CRT_INTERNAL_PRINTF_LEGACY_VSPRINTF_NULL_TERMINATION,
; 1388 :         _Buffer, _BufferCount, _Format, _Locale, _ArgList);
; 1389 : 
; 1390 :     return _Result < 0 ? -1 : _Result;

  00026	83 c9 ff	 or	 ecx, -1
  00029	83 c4 1c	 add	 esp, 28			; 0000001cH
  0002c	85 c0		 test	 eax, eax
  0002e	0f 48 c1	 cmovs	 eax, ecx

; 1777 :     int _Result;
; 1778 :     va_list _ArgList;
; 1779 :     __crt_va_start(_ArgList, _Format);
; 1780 : 
; 1781 :     #pragma warning(push)
; 1782 :     #pragma warning(disable: 4996) // Deprecation
; 1783 :     _Result = _vsprintf_l(_Buffer, _Format, NULL, _ArgList);
; 1784 :     #pragma warning(pop)
; 1785 : 
; 1786 :     __crt_va_end(_ArgList);
; 1787 :     return _Result;
; 1788 : }

  00031	5d		 pop	 ebp
  00032	c3		 ret	 0
_sprintf ENDP
_TEXT	ENDS
; Function compile flags: /Ogtp
; File c:\program files (x86)\windows kits\10\include\10.0.10240.0\ucrt\stdio.h
;	COMDAT __vsprintf_l
_TEXT	SEGMENT
__Buffer$ = 8						; size = 4
__Format$ = 12						; size = 4
__Locale$ = 16						; size = 4
__ArgList$ = 20						; size = 4
__vsprintf_l PROC					; COMDAT

; 1455 : {

  00000	55		 push	 ebp
  00001	8b ec		 mov	 ebp, esp

; 1386 :     int const _Result = __stdio_common_vsprintf(

  00003	ff 75 14	 push	 DWORD PTR __ArgList$[ebp]
  00006	ff 75 10	 push	 DWORD PTR __Locale$[ebp]
  00009	ff 75 0c	 push	 DWORD PTR __Format$[ebp]
  0000c	6a ff		 push	 -1
  0000e	ff 75 08	 push	 DWORD PTR __Buffer$[ebp]
  00011	e8 00 00 00 00	 call	 ___local_stdio_printf_options
  00016	8b 08		 mov	 ecx, DWORD PTR [eax]
  00018	ff 70 04	 push	 DWORD PTR [eax+4]
  0001b	83 c9 01	 or	 ecx, 1
  0001e	51		 push	 ecx
  0001f	ff 15 00 00 00
	00		 call	 DWORD PTR __imp____stdio_common_vsprintf

; 1387 :         _CRT_INTERNAL_LOCAL_PRINTF_OPTIONS | _CRT_INTERNAL_PRINTF_LEGACY_VSPRINTF_NULL_TERMINATION,
; 1388 :         _Buffer, _BufferCount, _Format, _Locale, _ArgList);
; 1389 : 
; 1390 :     return _Result < 0 ? -1 : _Result;

  00025	83 c9 ff	 or	 ecx, -1
  00028	83 c4 1c	 add	 esp, 28			; 0000001cH
  0002b	85 c0		 test	 eax, eax
  0002d	0f 48 c1	 cmovs	 eax, ecx

; 1456 :     #pragma warning(push)
; 1457 :     #pragma warning(disable: 4996) // Deprecation
; 1458 :     return _vsnprintf_l(_Buffer, (size_t)-1, _Format, _Locale, _ArgList);
; 1459 :     #pragma warning(pop)
; 1460 : }

  00030	5d		 pop	 ebp
  00031	c3		 ret	 0
__vsprintf_l ENDP
_TEXT	ENDS
; Function compile flags: /Ogtp
; File c:\program files (x86)\windows kits\10\include\10.0.10240.0\ucrt\stdio.h
;	COMDAT __vsnprintf_l
_TEXT	SEGMENT
__Buffer$ = 8						; size = 4
__BufferCount$ = 12					; size = 4
__Format$ = 16						; size = 4
__Locale$ = 20						; size = 4
__ArgList$ = 24						; size = 4
__vsnprintf_l PROC					; COMDAT

; 1385 : {

  00000	55		 push	 ebp
  00001	8b ec		 mov	 ebp, esp

; 1386 :     int const _Result = __stdio_common_vsprintf(

  00003	ff 75 18	 push	 DWORD PTR __ArgList$[ebp]
  00006	ff 75 14	 push	 DWORD PTR __Locale$[ebp]
  00009	ff 75 10	 push	 DWORD PTR __Format$[ebp]
  0000c	ff 75 0c	 push	 DWORD PTR __BufferCount$[ebp]
  0000f	ff 75 08	 push	 DWORD PTR __Buffer$[ebp]
  00012	e8 00 00 00 00	 call	 ___local_stdio_printf_options
  00017	8b 08		 mov	 ecx, DWORD PTR [eax]
  00019	ff 70 04	 push	 DWORD PTR [eax+4]
  0001c	83 c9 01	 or	 ecx, 1
  0001f	51		 push	 ecx
  00020	ff 15 00 00 00
	00		 call	 DWORD PTR __imp____stdio_common_vsprintf

; 1387 :         _CRT_INTERNAL_LOCAL_PRINTF_OPTIONS | _CRT_INTERNAL_PRINTF_LEGACY_VSPRINTF_NULL_TERMINATION,
; 1388 :         _Buffer, _BufferCount, _Format, _Locale, _ArgList);
; 1389 : 
; 1390 :     return _Result < 0 ? -1 : _Result;

  00026	83 c9 ff	 or	 ecx, -1
  00029	83 c4 1c	 add	 esp, 28			; 0000001cH
  0002c	85 c0		 test	 eax, eax
  0002e	0f 48 c1	 cmovs	 eax, ecx

; 1391 : }

  00031	5d		 pop	 ebp
  00032	c3		 ret	 0
__vsnprintf_l ENDP
_TEXT	ENDS
; Function compile flags: /Ogtp
; File c:\program files (x86)\microsoft visual studio 14.0\vc\include\vadefs.h
;	COMDAT ??$__vcrt_va_start_verify_argument_type@QBD@@YAXXZ
_TEXT	SEGMENT
??$__vcrt_va_start_verify_argument_type@QBD@@YAXXZ PROC	; __vcrt_va_start_verify_argument_type<char const * const>, COMDAT

; 145  :             static_assert(!__vcrt_va_list_is_reference<_Ty>::__the_value, "va_start argument must not have reference type and must not be parenthesized");
; 146  :         }

  00000	c3		 ret	 0
??$__vcrt_va_start_verify_argument_type@QBD@@YAXXZ ENDP	; __vcrt_va_start_verify_argument_type<char const * const>
_TEXT	ENDS
; Function compile flags: /Ogtp
; File c:\program files (x86)\windows kits\10\include\10.0.10240.0\ucrt\corecrt_stdio_config.h
;	COMDAT ___local_stdio_printf_options
_TEXT	SEGMENT
___local_stdio_printf_options PROC			; COMDAT

; 74   :     static unsigned __int64 _OptionsStorage;
; 75   :     return &_OptionsStorage;

  00000	b8 00 00 00 00	 mov	 eax, OFFSET ?_OptionsStorage@?1??__local_stdio_printf_options@@9@4_KA ; `__local_stdio_printf_options'::`2'::_OptionsStorage

; 76   : }

  00005	c3		 ret	 0
___local_stdio_printf_options ENDP
_TEXT	ENDS
; Function compile flags: /Ogtp
;	COMDAT ??_GCHash@@QAEPAXI@Z
_TEXT	SEGMENT
___flags$ = 8						; size = 4
??_GCHash@@QAEPAXI@Z PROC				; CHash::`scalar deleting destructor', COMDAT
; _this$ = ecx
  00000	55		 push	 ebp
  00001	8b ec		 mov	 ebp, esp
  00003	56		 push	 esi
  00004	8b f1		 mov	 esi, ecx
  00006	e8 00 00 00 00	 call	 ??1CHash@@QAE@XZ	; CHash::~CHash
  0000b	f6 45 08 01	 test	 BYTE PTR ___flags$[ebp], 1
  0000f	74 0b		 je	 SHORT $LN4@scalar
  00011	6a 10		 push	 16			; 00000010H
  00013	56		 push	 esi
  00014	e8 00 00 00 00	 call	 ??3@YAXPAXI@Z		; operator delete
  00019	83 c4 08	 add	 esp, 8
$LN4@scalar:
  0001c	8b c6		 mov	 eax, esi
  0001e	5e		 pop	 esi
  0001f	5d		 pop	 ebp
  00020	c2 04 00	 ret	 4
??_GCHash@@QAEPAXI@Z ENDP				; CHash::`scalar deleting destructor'
_TEXT	ENDS
; Function compile flags: /Ogtp
;	COMDAT ?__autoclassinit2@CHash@@QAEXI@Z
_TEXT	SEGMENT
_classSize$ = 8						; size = 4
?__autoclassinit2@CHash@@QAEXI@Z PROC			; CHash::__autoclassinit2, COMDAT
; _this$ = ecx
  00000	55		 push	 ebp
  00001	8b ec		 mov	 ebp, esp
  00003	ff 75 08	 push	 DWORD PTR _classSize$[ebp]
  00006	6a 00		 push	 0
  00008	51		 push	 ecx
  00009	e8 00 00 00 00	 call	 _memset
  0000e	83 c4 0c	 add	 esp, 12			; 0000000cH
  00011	5d		 pop	 ebp
  00012	c2 04 00	 ret	 4
?__autoclassinit2@CHash@@QAEXI@Z ENDP			; CHash::__autoclassinit2
_TEXT	ENDS
; Function compile flags: /Ogtp
; File e:\infinia-library-3.0\com\include\comhash.h
;	COMDAT ?setHashValue@CHash@@QAEXPAX@Z
_TEXT	SEGMENT
_p$ = 8							; size = 4
?setHashValue@CHash@@QAEXPAX@Z PROC			; CHash::setHashValue, COMDAT
; _this$ = ecx

; 86   : 	inline void setHashValue(void *p) { m_pHashValue = p; }

  00000	55		 push	 ebp
  00001	8b ec		 mov	 ebp, esp
  00003	8b 45 08	 mov	 eax, DWORD PTR _p$[ebp]
  00006	89 41 0c	 mov	 DWORD PTR [ecx+12], eax
  00009	5d		 pop	 ebp
  0000a	c2 04 00	 ret	 4
?setHashValue@CHash@@QAEXPAX@Z ENDP			; CHash::setHashValue
_TEXT	ENDS
END
