; Listing generated by Microsoft (R) Optimizing Compiler Version 19.00.24215.1 

	TITLE	E:\InfiniA-Library-3.0\com\src\wvSocket.cpp
	.686P
	.XMM
	include listing.inc
	.model	flat

INCLUDELIB MSVCRT
INCLUDELIB OLDNAMES

PUBLIC	___local_stdio_printf_options
PUBLIC	??$__vcrt_va_start_verify_argument_type@QBD@@YAXXZ ; __vcrt_va_start_verify_argument_type<char const * const>
PUBLIC	_sprintf
PUBLIC	??0WVSocket@@QAE@XZ				; WVSocket::WVSocket
PUBLIC	??0WVSocket@@QAE@PBDH@Z				; WVSocket::WVSocket
PUBLIC	??1WVSocket@@QAE@XZ				; WVSocket::~WVSocket
PUBLIC	?IsRecvData@WVSocket@@QAE_NXZ			; WVSocket::IsRecvData
PUBLIC	?SetOption@WVSocket@@QAEHHHPBXH@Z		; WVSocket::SetOption
PUBLIC	?GetOption@WVSocket@@QAEHHHPAXPAH@Z		; WVSocket::GetOption
PUBLIC	?GetData@WVSocket@@QAEHPADHJ@Z			; WVSocket::GetData
PUBLIC	?PutData@WVSocket@@QAEHPADHJ@Z			; WVSocket::PutData
PUBLIC	?SetAcceptedSocket@WVSocket@@QAEXH@Z		; WVSocket::SetAcceptedSocket
PUBLIC	?GetRecvData@WVSocket@@QAEHPADH@Z		; WVSocket::GetRecvData
PUBLIC	?ConnectTo@WVSocket@@QAEHPBDH@Z			; WVSocket::ConnectTo
PUBLIC	?SendNRecv@WVSocket@@QAEHPAHPADH@Z		; WVSocket::SendNRecv
PUBLIC	?RecvStringData@WVSocket@@QAEHPADH@Z		; WVSocket::RecvStringData
PUBLIC	?GetHostIP@WVSocket@@SAPBDXZ			; WVSocket::GetHostIP
PUBLIC	?ConnectWithTimeout@WVSocket@@QAEHPADHH@Z	; WVSocket::ConnectWithTimeout
PUBLIC	?onClose@WVSocket@@IAEXXZ			; WVSocket::onClose
PUBLIC	?_OptionsStorage@?1??__local_stdio_printf_options@@9@4_KA ; `__local_stdio_printf_options'::`2'::_OptionsStorage
PUBLIC	??_C@_0BE@HHMJOGOP@Socket?5select?5error?$AA@	; `string'
PUBLIC	??_C@_0CI@LFKMKMJE@WVSocket?3?3ConnectTo?5Socket?5creat@ ; `string'
PUBLIC	??_C@_0CJ@OHPJPDLP@WVSocket?3?3ConnectTo?5Socket?5conne@ ; `string'
PUBLIC	??_C@_0CG@CIJBBMJE@WVSocket?3?3ConnectTo?5Socket?5send?5@ ; `string'
PUBLIC	??_C@_0CE@BMAJOFHB@WVSocket?3?3PutData?5Socket?5send?5Er@ ; `string'
PUBLIC	??_C@_0CI@PPMNHIMC@WVSocket?3?3PutData?5Socket?5send?5Er@ ; `string'
PUBLIC	??_C@_0CF@EHGGGPNJ@WVSocket?3?3PutData?5send?5timeout?5E@ ; `string'
PUBLIC	??_C@_0BN@MDLCBMMI@WVSocket?3?3GetData?5recv?5Error?$AA@ ; `string'
PUBLIC	??_C@_0CO@PKINNAA@WVSocket?3?3RecvStringData?5length?5@ ; `string'
PUBLIC	??_C@_0DB@ELBIILNL@WVSocket?3?3RecvStringData?5length?5@ ; `string'
PUBLIC	??_C@_0M@PCENNPGA@?$CFd?4?$CFd?4?$CFd?4?$CFd?$AA@ ; `string'
EXTRN	??_U@YAPAXI@Z:PROC				; operator new[]
EXTRN	??_V@YAXPAX@Z:PROC				; operator delete[]
EXTRN	__imp__Sleep@4:PROC
EXTRN	__imp__atoi:PROC
EXTRN	___WSAFDIsSet@8:PROC
EXTRN	__imp__closesocket@4:PROC
EXTRN	__imp__connect@12:PROC
EXTRN	__imp__getsockopt@20:PROC
EXTRN	__imp__htons@4:PROC
EXTRN	__imp__inet_addr@4:PROC
EXTRN	__imp__recv@16:PROC
EXTRN	__imp__select@20:PROC
EXTRN	__imp__send@16:PROC
EXTRN	__imp__setsockopt@20:PROC
EXTRN	__imp__socket@12:PROC
EXTRN	__imp__gethostbyname@4:PROC
EXTRN	__imp__gethostname@8:PROC
EXTRN	__imp__WSAGetLastError@0:PROC
EXTRN	__imp___time64:PROC
EXTRN	__imp____stdio_common_vsprintf:PROC
EXTRN	@__security_check_cookie@4:PROC
EXTRN	_memset:PROC
EXTRN	___security_cookie:DWORD
;	COMDAT ?_OptionsStorage@?1??__local_stdio_printf_options@@9@4_KA
_BSS	SEGMENT
?_OptionsStorage@?1??__local_stdio_printf_options@@9@4_KA DQ 01H DUP (?) ; `__local_stdio_printf_options'::`2'::_OptionsStorage
_BSS	ENDS
;	COMDAT ?_hostIP@?1??GetHostIP@WVSocket@@SAPBDXZ@4PADA
_BSS	SEGMENT
?_hostIP@?1??GetHostIP@WVSocket@@SAPBDXZ@4PADA DB 014H DUP (?) ; `WVSocket::GetHostIP'::`2'::_hostIP
_BSS	ENDS
;	COMDAT ??_C@_0M@PCENNPGA@?$CFd?4?$CFd?4?$CFd?4?$CFd?$AA@
CONST	SEGMENT
??_C@_0M@PCENNPGA@?$CFd?4?$CFd?4?$CFd?4?$CFd?$AA@ DB '%d.%d.%d.%d', 00H ; `string'
CONST	ENDS
;	COMDAT ??_C@_0DB@ELBIILNL@WVSocket?3?3RecvStringData?5length?5@
CONST	SEGMENT
??_C@_0DB@ELBIILNL@WVSocket?3?3RecvStringData?5length?5@ DB 'WVSocket::Re'
	DB	'cvStringData length Reading Timeout!', 00H	; `string'
CONST	ENDS
;	COMDAT ??_C@_0CO@PKINNAA@WVSocket?3?3RecvStringData?5length?5@
CONST	SEGMENT
??_C@_0CO@PKINNAA@WVSocket?3?3RecvStringData?5length?5@ DB 'WVSocket::Rec'
	DB	'vStringData length Reading Down!', 00H	; `string'
CONST	ENDS
;	COMDAT ??_C@_0BN@MDLCBMMI@WVSocket?3?3GetData?5recv?5Error?$AA@
CONST	SEGMENT
??_C@_0BN@MDLCBMMI@WVSocket?3?3GetData?5recv?5Error?$AA@ DB 'WVSocket::Ge'
	DB	'tData recv Error', 00H			; `string'
CONST	ENDS
;	COMDAT ??_C@_0CF@EHGGGPNJ@WVSocket?3?3PutData?5send?5timeout?5E@
CONST	SEGMENT
??_C@_0CF@EHGGGPNJ@WVSocket?3?3PutData?5send?5timeout?5E@ DB 'WVSocket::P'
	DB	'utData send timeout Error', 00H		; `string'
CONST	ENDS
;	COMDAT ??_C@_0CI@PPMNHIMC@WVSocket?3?3PutData?5Socket?5send?5Er@
CONST	SEGMENT
??_C@_0CI@PPMNHIMC@WVSocket?3?3PutData?5Socket?5send?5Er@ DB 'WVSocket::P'
	DB	'utData Socket send Error - 2', 00H		; `string'
CONST	ENDS
;	COMDAT ??_C@_0CE@BMAJOFHB@WVSocket?3?3PutData?5Socket?5send?5Er@
CONST	SEGMENT
??_C@_0CE@BMAJOFHB@WVSocket?3?3PutData?5Socket?5send?5Er@ DB 'WVSocket::P'
	DB	'utData Socket send Error', 00H		; `string'
CONST	ENDS
;	COMDAT ??_C@_0CG@CIJBBMJE@WVSocket?3?3ConnectTo?5Socket?5send?5@
CONST	SEGMENT
??_C@_0CG@CIJBBMJE@WVSocket?3?3ConnectTo?5Socket?5send?5@ DB 'WVSocket::C'
	DB	'onnectTo Socket send Error', 00H		; `string'
CONST	ENDS
;	COMDAT ??_C@_0CJ@OHPJPDLP@WVSocket?3?3ConnectTo?5Socket?5conne@
CONST	SEGMENT
??_C@_0CJ@OHPJPDLP@WVSocket?3?3ConnectTo?5Socket?5conne@ DB 'WVSocket::Co'
	DB	'nnectTo Socket connect Error', 00H		; `string'
CONST	ENDS
;	COMDAT ??_C@_0CI@LFKMKMJE@WVSocket?3?3ConnectTo?5Socket?5creat@
CONST	SEGMENT
??_C@_0CI@LFKMKMJE@WVSocket?3?3ConnectTo?5Socket?5creat@ DB 'WVSocket::Co'
	DB	'nnectTo Socket create Error', 00H		; `string'
CONST	ENDS
;	COMDAT ??_C@_0BE@HHMJOGOP@Socket?5select?5error?$AA@
CONST	SEGMENT
??_C@_0BE@HHMJOGOP@Socket?5select?5error?$AA@ DB 'Socket select error', 00H ; `string'
CONST	ENDS
; Function compile flags: /Ogtp
; File e:\infinia-library-3.0\com\src\wvsocket.cpp
;	COMDAT ?onClose@WVSocket@@IAEXXZ
_TEXT	SEGMENT
?onClose@WVSocket@@IAEXXZ PROC				; WVSocket::onClose, COMDAT
; _this$ = ecx

; 97   : {

  00000	56		 push	 esi
  00001	8b f1		 mov	 esi, ecx

; 98   : 	SOCKETCLOSE(m_nSocket);

  00003	ff 76 04	 push	 DWORD PTR [esi+4]
  00006	ff 15 00 00 00
	00		 call	 DWORD PTR __imp__closesocket@4

; 99   : 	m_nSocket = -1;

  0000c	c7 46 04 ff ff
	ff ff		 mov	 DWORD PTR [esi+4], -1

; 100  : 	m_bConnected = false;

  00013	c6 06 00	 mov	 BYTE PTR [esi], 0
  00016	5e		 pop	 esi

; 101  : }

  00017	c3		 ret	 0
?onClose@WVSocket@@IAEXXZ ENDP				; WVSocket::onClose
_TEXT	ENDS
; Function compile flags: /Ogtp
; File e:\infinia-library-3.0\com\src\wvsocket.cpp
;	COMDAT ?ConnectWithTimeout@WVSocket@@QAEHPADHH@Z
_TEXT	SEGMENT
_szIP$ = 8						; size = 4
_nPort$ = 12						; size = 4
_nTimeout$ = 16						; size = 4
?ConnectWithTimeout@WVSocket@@QAEHPADHH@Z PROC		; WVSocket::ConnectWithTimeout, COMDAT
; _this$ = ecx

; 369  : #ifndef WIN32
; 370  : 	struct sockaddr_in sa;
; 371  : 	struct	timeval tmval;
; 372  : 	int nRet, flags, error;
; 373  : 	fd_set	wset, rset;
; 374  : 	
; 375  : 	strcpy(m_szIP, szIP);
; 376  : 	m_nPort = nPort;
; 377  : 	if (m_nSocket == -1) {
; 378  : 		m_nSocket = ::socket(SOCK_FLAG, SOCK_STREAM, 0);
; 379  : 		if (m_nSocket == -1) {
; 380  : 			return -1;
; 381  : 		}
; 382  : 	}
; 383  : 
; 384  : 	memset(&sa, 0x00, sizeof(sa));
; 385  : 	
; 386  : 	sa.sin_family = AF_INET;
; 387  : 	sa.sin_port = htons((short)nPort);
; 388  : 	sa.sin_addr.s_addr = inet_addr(szIP);
; 389  : 	
; 390  : 	if (!nTimeout) {
; 391  : 		if (m_cLogger)
; 392  : 			m_cLogger->LogPrint(LOG_DEBUG, "Normal connect\n");
; 393  : 		nRet = connect(m_nSocket, (struct sockaddr*)&sa, sizeof(sockaddr_in));
; 394  : 		if(nRet == -1) {
; 395  : 			onClose();
; 396  : 			return nRet;
; 397  : 		}
; 398  : 		else {
; 399  : 			m_bConnected = true;
; 400  : 			return 1;
; 401  : 		}
; 402  : 	}
; 403  : 
; 404  : 
; 405  : 	memset(&tmval, 0, sizeof(tmval));
; 406  : 	tmval.tv_sec = nTimeout;
; 407  : 
; 408  : 	flags = fcntl(m_nSocket, F_GETFL, 0);
; 409  : 	fcntl(m_nSocket, F_SETFL, flags | O_NONBLOCK);
; 410  : 
; 411  : 	error = 0;
; 412  : 
; 413  : 	nRet = connect(m_nSocket, (struct sockaddr*)&sa, sizeof(sockaddr_in));
; 414  : 	if (nRet < 0 && errno != EINPROGRESS) {
; 415  : 		onClose();
; 416  : 		return nRet;
; 417  : 	}
; 418  : 
; 419  : 	if (nRet == 0)
; 420  : 		goto done;
; 421  : 
; 422  : 	FD_ZERO(&rset);
; 423  : 	FD_SET(m_nSocket, &rset);
; 424  : 	wset = rset;
; 425  : 
; 426  : 	if (select(m_nSocket + 1, &rset, &wset, NULL, &tmval) == 0) {
; 427  : 		printf("TImeout Error\n");
; 428  : 		errno = ETIMEDOUT;
; 429  : 		return -1;
; 430  : 	}
; 431  : 
; 432  : 	if (FD_ISSET(m_nSocket, &rset) || FD_ISSET(m_nSocket, &wset)) {
; 433  : 		int len = sizeof(error);
; 434  : #if	defined(__ia64)
; 435  : 		if (getsockopt(m_nSocket, SOL_SOCKET, SO_ERROR, (void*)&error, &len) < 0) {
; 436  : #else
; 437  : 		if (getsockopt(m_nSocket, SOL_SOCKET, SO_ERROR, (void*)&error, (socklen_t *)&len) < 0) {
; 438  : #endif
; 439  : 			onClose();
; 440  : 			return -1;
; 441  : 		}
; 442  : 	}
; 443  : 	
; 444  : done:
; 445  : 	fcntl(m_nSocket, F_SETFL, flags);
; 446  : 	if (error != 0) {
; 447  : 		errno = error;
; 448  : 		onClose();
; 449  : 		return -1;
; 450  : 	}
; 451  : 	
; 452  : 	m_bConnected = true;
; 453  : #endif
; 454  : 	return 1;

  00000	b8 01 00 00 00	 mov	 eax, 1

; 455  : }

  00005	c2 0c 00	 ret	 12			; 0000000cH
?ConnectWithTimeout@WVSocket@@QAEHPADHH@Z ENDP		; WVSocket::ConnectWithTimeout
_TEXT	ENDS
; Function compile flags: /Ogtp
; File e:\infinia-library-3.0\com\src\wvsocket.cpp
;	COMDAT ?GetHostIP@WVSocket@@SAPBDXZ
_TEXT	SEGMENT
_szHName$ = -132					; size = 128
__$ArrayPad$ = -4					; size = 4
?GetHostIP@WVSocket@@SAPBDXZ PROC			; WVSocket::GetHostIP, COMDAT

; 347  : {

  00000	55		 push	 ebp
  00001	8b ec		 mov	 ebp, esp
  00003	81 ec 84 00 00
	00		 sub	 esp, 132		; 00000084H
  00009	a1 00 00 00 00	 mov	 eax, DWORD PTR ___security_cookie
  0000e	33 c5		 xor	 eax, ebp
  00010	89 45 fc	 mov	 DWORD PTR __$ArrayPad$[ebp], eax

; 348  : 	static	char _hostIP[20];
; 349  :     struct  hostent *hEntry;
; 350  : 	char    szHName[128];
; 351  : 
; 352  : 	if (gethostname(szHName, sizeof(szHName)) == 0) {

  00013	68 80 00 00 00	 push	 128			; 00000080H
  00018	8d 85 7c ff ff
	ff		 lea	 eax, DWORD PTR _szHName$[ebp]
  0001e	50		 push	 eax
  0001f	ff 15 00 00 00
	00		 call	 DWORD PTR __imp__gethostname@8
  00025	85 c0		 test	 eax, eax
  00027	75 56		 jne	 SHORT $LN3@GetHostIP

; 353  : 		hEntry = gethostbyname(szHName);

  00029	8d 85 7c ff ff
	ff		 lea	 eax, DWORD PTR _szHName$[ebp]
  0002f	50		 push	 eax
  00030	ff 15 00 00 00
	00		 call	 DWORD PTR __imp__gethostbyname@4

; 354  : 		if (hEntry && hEntry->h_addr_list && hEntry->h_addr_list[0]) {

  00036	85 c0		 test	 eax, eax
  00038	74 45		 je	 SHORT $LN3@GetHostIP
  0003a	8b 48 0c	 mov	 ecx, DWORD PTR [eax+12]
  0003d	85 c9		 test	 ecx, ecx
  0003f	74 3e		 je	 SHORT $LN3@GetHostIP
  00041	8b 09		 mov	 ecx, DWORD PTR [ecx]
  00043	85 c9		 test	 ecx, ecx
  00045	74 38		 je	 SHORT $LN3@GetHostIP

; 355  : 			sprintf(_hostIP, "%d.%d.%d.%d", 

  00047	0f b6 41 03	 movzx	 eax, BYTE PTR [ecx+3]
  0004b	50		 push	 eax
  0004c	0f b6 41 02	 movzx	 eax, BYTE PTR [ecx+2]
  00050	50		 push	 eax
  00051	0f b6 41 01	 movzx	 eax, BYTE PTR [ecx+1]
  00055	50		 push	 eax
  00056	0f b6 01	 movzx	 eax, BYTE PTR [ecx]
  00059	50		 push	 eax
  0005a	68 00 00 00 00	 push	 OFFSET ??_C@_0M@PCENNPGA@?$CFd?4?$CFd?4?$CFd?4?$CFd?$AA@
  0005f	68 00 00 00 00	 push	 OFFSET ?_hostIP@?1??GetHostIP@WVSocket@@SAPBDXZ@4PADA
  00064	e8 00 00 00 00	 call	 _sprintf
  00069	83 c4 18	 add	 esp, 24			; 00000018H

; 356  : 				(unsigned char)hEntry->h_addr_list[0][0],
; 357  : 				(unsigned char)hEntry->h_addr_list[0][1],
; 358  : 				(unsigned char)hEntry->h_addr_list[0][2],
; 359  : 				(unsigned char)hEntry->h_addr_list[0][3]);
; 360  : 			return _hostIP;

  0006c	b8 00 00 00 00	 mov	 eax, OFFSET ?_hostIP@?1??GetHostIP@WVSocket@@SAPBDXZ@4PADA

; 361  : 		}
; 362  : 	}
; 363  : 	return NULL;
; 364  : }

  00071	8b 4d fc	 mov	 ecx, DWORD PTR __$ArrayPad$[ebp]
  00074	33 cd		 xor	 ecx, ebp
  00076	e8 00 00 00 00	 call	 @__security_check_cookie@4
  0007b	8b e5		 mov	 esp, ebp
  0007d	5d		 pop	 ebp
  0007e	c3		 ret	 0
$LN3@GetHostIP:
  0007f	8b 4d fc	 mov	 ecx, DWORD PTR __$ArrayPad$[ebp]
  00082	33 c0		 xor	 eax, eax
  00084	33 cd		 xor	 ecx, ebp
  00086	e8 00 00 00 00	 call	 @__security_check_cookie@4
  0008b	8b e5		 mov	 esp, ebp
  0008d	5d		 pop	 ebp
  0008e	c3		 ret	 0
?GetHostIP@WVSocket@@SAPBDXZ ENDP			; WVSocket::GetHostIP
_TEXT	ENDS
; Function compile flags: /Ogtp
; File e:\infinia-library-3.0\com\src\wvsocket.cpp
; File e:\infinia-library-3.0\com\include\comtypes.h
; File e:\infinia-library-3.0\com\src\wvsocket.cpp
; File e:\infinia-library-3.0\com\include\comtypes.h
; File e:\infinia-library-3.0\com\src\wvsocket.cpp
;	COMDAT ?RecvStringData@WVSocket@@QAEHPADH@Z
_TEXT	SEGMENT
_nSize$1$ = -16						; size = 4
_tmpBuf$ = -12						; size = 5
__$ArrayPad$ = -4					; size = 4
_szBuffer$ = 8						; size = 4
_nBLen$ = 12						; size = 4
?RecvStringData@WVSocket@@QAEHPADH@Z PROC		; WVSocket::RecvStringData, COMDAT
; _this$ = ecx

; 293  : {

  00000	55		 push	 ebp
  00001	8b ec		 mov	 ebp, esp
  00003	83 ec 10	 sub	 esp, 16			; 00000010H
  00006	a1 00 00 00 00	 mov	 eax, DWORD PTR ___security_cookie
  0000b	33 c5		 xor	 eax, ebp
  0000d	89 45 fc	 mov	 DWORD PTR __$ArrayPad$[ebp], eax
  00010	56		 push	 esi
  00011	57		 push	 edi
  00012	8b 7d 08	 mov	 edi, DWORD PTR _szBuffer$[ebp]

; 294  : 	int nSize = 0;
; 295  : 	int nPos = 0;
; 296  : 	int nTmp = 0;
; 297  : 	char	tmpBuf[5];
; 298  : 
; 299  : 	nTmp = GetData(tmpBuf, 3, DEF_TIMEOUT);

  00015	8d 45 f4	 lea	 eax, DWORD PTR _tmpBuf$[ebp]
  00018	6a 03		 push	 3
  0001a	6a 03		 push	 3
  0001c	50		 push	 eax
  0001d	8b f1		 mov	 esi, ecx
  0001f	e8 00 00 00 00	 call	 ?GetData@WVSocket@@QAEHPADHJ@Z ; WVSocket::GetData

; 300  : 	nPos += 3;
; 301  : 
; 302  : 	if (nTmp == -1) {

  00024	83 f8 ff	 cmp	 eax, -1
  00027	75 5d		 jne	 SHORT $LN2@RecvString

; 98   : 	SOCKETCLOSE(m_nSocket);

  00029	ff 76 04	 push	 DWORD PTR [esi+4]
  0002c	ff 15 00 00 00
	00		 call	 DWORD PTR __imp__closesocket@4

; 99   : 	m_nSocket = -1;

  00032	c7 46 04 ff ff
	ff ff		 mov	 DWORD PTR [esi+4], -1

; 100  : 	m_bConnected = false;

  00039	c6 06 00	 mov	 BYTE PTR [esi], 0

; 303  : 		onClose();
; 304  : 		strcpy(m_szErrMsg, "WVSocket::RecvStringData length Reading Down!");

  0003c	0f 10 05 00 00
	00 00		 movups	 xmm0, XMMWORD PTR ??_C@_0CO@PKINNAA@WVSocket?3?3RecvStringData?5length?5@
  00043	5f		 pop	 edi
  00044	0f 11 46 38	 movups	 XMMWORD PTR [esi+56], xmm0
  00048	0f 10 05 10 00
	00 00		 movups	 xmm0, XMMWORD PTR ??_C@_0CO@PKINNAA@WVSocket?3?3RecvStringData?5length?5@+16
  0004f	0f 11 46 48	 movups	 XMMWORD PTR [esi+72], xmm0
  00053	f3 0f 7e 05 20
	00 00 00	 movq	 xmm0, QWORD PTR ??_C@_0CO@PKINNAA@WVSocket?3?3RecvStringData?5length?5@+32
  0005b	66 0f d6 46 58	 movq	 QWORD PTR [esi+88], xmm0
  00060	a1 28 00 00 00	 mov	 eax, DWORD PTR ??_C@_0CO@PKINNAA@WVSocket?3?3RecvStringData?5length?5@+40
  00065	89 46 60	 mov	 DWORD PTR [esi+96], eax
  00068	66 a1 2c 00 00
	00		 mov	 ax, WORD PTR ??_C@_0CO@PKINNAA@WVSocket?3?3RecvStringData?5length?5@+44
  0006e	66 89 46 64	 mov	 WORD PTR [esi+100], ax

; 305  : 		return -1;

  00072	83 c8 ff	 or	 eax, -1
  00075	5e		 pop	 esi

; 341  : 	m_nRecvDLen = nPos;
; 342  : 	return nPos;
; 343  : }

  00076	8b 4d fc	 mov	 ecx, DWORD PTR __$ArrayPad$[ebp]
  00079	33 cd		 xor	 ecx, ebp
  0007b	e8 00 00 00 00	 call	 @__security_check_cookie@4
  00080	8b e5		 mov	 esp, ebp
  00082	5d		 pop	 ebp
  00083	c2 08 00	 ret	 8
$LN2@RecvString:

; 306  : 	}
; 307  : 	else if (nTmp == -2) {

  00086	83 f8 fe	 cmp	 eax, -2			; fffffffeH
  00089	75 51		 jne	 SHORT $LN4@RecvString

; 98   : 	SOCKETCLOSE(m_nSocket);

  0008b	ff 76 04	 push	 DWORD PTR [esi+4]
  0008e	ff 15 00 00 00
	00		 call	 DWORD PTR __imp__closesocket@4

; 99   : 	m_nSocket = -1;

  00094	c7 46 04 ff ff
	ff ff		 mov	 DWORD PTR [esi+4], -1

; 100  : 	m_bConnected = false;

  0009b	c6 06 00	 mov	 BYTE PTR [esi], 0

; 308  : 		onClose();
; 309  : 		strcpy(m_szErrMsg, "WVSocket::RecvStringData length Reading Timeout!");

  0009e	0f 10 05 00 00
	00 00		 movups	 xmm0, XMMWORD PTR ??_C@_0DB@ELBIILNL@WVSocket?3?3RecvStringData?5length?5@
  000a5	5f		 pop	 edi
  000a6	0f 11 46 38	 movups	 XMMWORD PTR [esi+56], xmm0
  000aa	0f 10 05 10 00
	00 00		 movups	 xmm0, XMMWORD PTR ??_C@_0DB@ELBIILNL@WVSocket?3?3RecvStringData?5length?5@+16
  000b1	0f 11 46 48	 movups	 XMMWORD PTR [esi+72], xmm0
  000b5	0f 10 05 20 00
	00 00		 movups	 xmm0, XMMWORD PTR ??_C@_0DB@ELBIILNL@WVSocket?3?3RecvStringData?5length?5@+32
  000bc	0f 11 46 58	 movups	 XMMWORD PTR [esi+88], xmm0
  000c0	a0 30 00 00 00	 mov	 al, BYTE PTR ??_C@_0DB@ELBIILNL@WVSocket?3?3RecvStringData?5length?5@+48
  000c5	88 46 68	 mov	 BYTE PTR [esi+104], al

; 310  : 		return -1;

  000c8	83 c8 ff	 or	 eax, -1
  000cb	5e		 pop	 esi

; 341  : 	m_nRecvDLen = nPos;
; 342  : 	return nPos;
; 343  : }

  000cc	8b 4d fc	 mov	 ecx, DWORD PTR __$ArrayPad$[ebp]
  000cf	33 cd		 xor	 ecx, ebp
  000d1	e8 00 00 00 00	 call	 @__security_check_cookie@4
  000d6	8b e5		 mov	 esp, ebp
  000d8	5d		 pop	 ebp
  000d9	c2 08 00	 ret	 8
$LN4@RecvString:
  000dc	53		 push	 ebx

; 311  : 	}
; 312  : 	SLEEP(1);

  000dd	68 e8 03 00 00	 push	 1000			; 000003e8H
  000e2	ff 15 00 00 00
	00		 call	 DWORD PTR __imp__Sleep@4

; 313  : 	//패킷 총 길이 계산하기
; 314  : 	nSize = atoi(tmpBuf);

  000e8	8d 45 f4	 lea	 eax, DWORD PTR _tmpBuf$[ebp]
  000eb	50		 push	 eax
  000ec	ff 15 00 00 00
	00		 call	 DWORD PTR __imp__atoi
  000f2	83 c4 04	 add	 esp, 4
  000f5	89 45 f0	 mov	 DWORD PTR _nSize$1$[ebp], eax

; 315  : 	if (m_nRecvBLen < nPos + nSize + 1) {

  000f8	8d 58 04	 lea	 ebx, DWORD PTR [eax+4]
  000fb	39 5e 0c	 cmp	 DWORD PTR [esi+12], ebx
  000fe	7d 23		 jge	 SHORT $LN7@RecvString

; 316  : 		if (m_szRecvData)

  00100	8b 46 08	 mov	 eax, DWORD PTR [esi+8]
  00103	85 c0		 test	 eax, eax
  00105	74 09		 je	 SHORT $LN6@RecvString

; 317  : 			delete [] m_szRecvData;	//20100127

  00107	50		 push	 eax
  00108	e8 00 00 00 00	 call	 ??_V@YAXPAX@Z		; operator delete[]
  0010d	83 c4 04	 add	 esp, 4
$LN6@RecvString:

; 318  : 		m_nRecvBLen = nPos+nSize+1;
; 319  : 		m_szRecvData = new char[m_nRecvBLen];

  00110	53		 push	 ebx
  00111	89 5e 0c	 mov	 DWORD PTR [esi+12], ebx
  00114	e8 00 00 00 00	 call	 ??_U@YAPAXI@Z		; operator new[]
  00119	83 c4 04	 add	 esp, 4
  0011c	89 46 08	 mov	 DWORD PTR [esi+8], eax

; 320  : 		if (m_szRecvData == NULL)

  0011f	85 c0		 test	 eax, eax
  00121	74 61		 je	 SHORT $LN36@RecvString
$LN7@RecvString:

; 323  : 	memset(m_szRecvData, 0, m_nRecvBLen);

  00123	ff 76 0c	 push	 DWORD PTR [esi+12]
  00126	6a 00		 push	 0
  00128	ff 76 08	 push	 DWORD PTR [esi+8]
  0012b	e8 00 00 00 00	 call	 _memset
; File e:\infinia-library-3.0\com\include\comtypes.h

; 309  : inline void *c_memcpy(void *de, const void *so, int l) { char *d = (char*)de; const char *s = (char*)so; while (l--) *d++ = *s++; return de;}

  00130	8b 56 08	 mov	 edx, DWORD PTR [esi+8]
  00133	8d 5d f4	 lea	 ebx, DWORD PTR _tmpBuf$[ebp]
; File e:\infinia-library-3.0\com\src\wvsocket.cpp

; 323  : 	memset(m_szRecvData, 0, m_nRecvBLen);

  00136	83 c4 0c	 add	 esp, 12			; 0000000cH

; 324  : 	c_memcpy(m_szRecvData, tmpBuf, nPos);

  00139	b9 03 00 00 00	 mov	 ecx, 3
  0013e	66 90		 npad	 2
$LL19@RecvString:
; File e:\infinia-library-3.0\com\include\comtypes.h

; 309  : inline void *c_memcpy(void *de, const void *so, int l) { char *d = (char*)de; const char *s = (char*)so; while (l--) *d++ = *s++; return de;}

  00140	8a 03		 mov	 al, BYTE PTR [ebx]
  00142	8d 52 01	 lea	 edx, DWORD PTR [edx+1]
  00145	88 42 ff	 mov	 BYTE PTR [edx-1], al
  00148	8d 5b 01	 lea	 ebx, DWORD PTR [ebx+1]
  0014b	83 e9 01	 sub	 ecx, 1
  0014e	75 f0		 jne	 SHORT $LL19@RecvString
; File e:\infinia-library-3.0\com\src\wvsocket.cpp

; 326  : 	if((nTmp = GetData(m_szRecvData+nPos, nSize - nPos, DEF_TIMEOUT)) == -1) {

  00150	8b 5d f0	 mov	 ebx, DWORD PTR _nSize$1$[ebp]
  00153	8b ce		 mov	 ecx, esi
  00155	6a 03		 push	 3
  00157	8d 43 fd	 lea	 eax, DWORD PTR [ebx-3]
  0015a	50		 push	 eax
  0015b	8b 46 08	 mov	 eax, DWORD PTR [esi+8]
  0015e	83 c0 03	 add	 eax, 3
  00161	50		 push	 eax
  00162	e8 00 00 00 00	 call	 ?GetData@WVSocket@@QAEHPADHJ@Z ; WVSocket::GetData
  00167	83 f8 ff	 cmp	 eax, -1
  0016a	74 05		 je	 SHORT $LN35@RecvString

; 327  : 		onClose();
; 328  : 		return -1;
; 329  : 	}
; 330  : 	else if (nTmp == -2) {

  0016c	83 f8 fe	 cmp	 eax, -2			; fffffffeH
  0016f	75 29		 jne	 SHORT $LN10@RecvString
$LN35@RecvString:

; 98   : 	SOCKETCLOSE(m_nSocket);

  00171	ff 76 04	 push	 DWORD PTR [esi+4]
  00174	ff 15 00 00 00
	00		 call	 DWORD PTR __imp__closesocket@4

; 99   : 	m_nSocket = -1;

  0017a	c7 46 04 ff ff
	ff ff		 mov	 DWORD PTR [esi+4], -1

; 100  : 	m_bConnected = false;

  00181	c6 06 00	 mov	 BYTE PTR [esi], 0
$LN36@RecvString:
  00184	5b		 pop	 ebx
  00185	5f		 pop	 edi

; 331  : 		onClose();
; 332  : 		return -1;

  00186	83 c8 ff	 or	 eax, -1
  00189	5e		 pop	 esi

; 341  : 	m_nRecvDLen = nPos;
; 342  : 	return nPos;
; 343  : }

  0018a	8b 4d fc	 mov	 ecx, DWORD PTR __$ArrayPad$[ebp]
  0018d	33 cd		 xor	 ecx, ebp
  0018f	e8 00 00 00 00	 call	 @__security_check_cookie@4
  00194	8b e5		 mov	 esp, ebp
  00196	5d		 pop	 ebp
  00197	c2 08 00	 ret	 8
$LN10@RecvString:

; 333  : 	}
; 334  : 
; 335  : 	nPos = nSize;
; 336  : 	if (nBLen < nPos) {

  0019a	39 5d 0c	 cmp	 DWORD PTR _nBLen$[ebp], ebx
  0019d	7d 18		 jge	 SHORT $LN11@RecvString

; 337  : 		return -2;

  0019f	5b		 pop	 ebx
  001a0	5f		 pop	 edi
  001a1	b8 fe ff ff ff	 mov	 eax, -2			; fffffffeH
  001a6	5e		 pop	 esi

; 341  : 	m_nRecvDLen = nPos;
; 342  : 	return nPos;
; 343  : }

  001a7	8b 4d fc	 mov	 ecx, DWORD PTR __$ArrayPad$[ebp]
  001aa	33 cd		 xor	 ecx, ebp
  001ac	e8 00 00 00 00	 call	 @__security_check_cookie@4
  001b1	8b e5		 mov	 esp, ebp
  001b3	5d		 pop	 ebp
  001b4	c2 08 00	 ret	 8
$LN11@RecvString:

; 338  : 	}
; 339  : 
; 340  : 	strcpy(szBuffer, m_szRecvData);

  001b7	8b 4e 08	 mov	 ecx, DWORD PTR [esi+8]
  001ba	66 0f 1f 44 00
	00		 npad	 6
$LL13@RecvString:
  001c0	8a 01		 mov	 al, BYTE PTR [ecx]
  001c2	8d 49 01	 lea	 ecx, DWORD PTR [ecx+1]
  001c5	88 07		 mov	 BYTE PTR [edi], al
  001c7	8d 7f 01	 lea	 edi, DWORD PTR [edi+1]
  001ca	84 c0		 test	 al, al
  001cc	75 f2		 jne	 SHORT $LL13@RecvString

; 341  : 	m_nRecvDLen = nPos;
; 342  : 	return nPos;
; 343  : }

  001ce	8b 4d fc	 mov	 ecx, DWORD PTR __$ArrayPad$[ebp]
  001d1	8b c3		 mov	 eax, ebx
  001d3	89 5e 10	 mov	 DWORD PTR [esi+16], ebx
  001d6	33 cd		 xor	 ecx, ebp
  001d8	5b		 pop	 ebx
  001d9	5f		 pop	 edi
  001da	5e		 pop	 esi
  001db	e8 00 00 00 00	 call	 @__security_check_cookie@4
  001e0	8b e5		 mov	 esp, ebp
  001e2	5d		 pop	 ebp
  001e3	c2 08 00	 ret	 8
?RecvStringData@WVSocket@@QAEHPADH@Z ENDP		; WVSocket::RecvStringData
_TEXT	ENDS
; Function compile flags: /Ogtp
; File e:\infinia-library-3.0\com\src\wvsocket.cpp
;	COMDAT ?SendNRecv@WVSocket@@QAEHPAHPADH@Z
_TEXT	SEGMENT
_nLen$ = 8						; size = 4
_szBuffer$ = 12						; size = 4
_nBLen$ = 16						; size = 4
?SendNRecv@WVSocket@@QAEHPAHPADH@Z PROC			; WVSocket::SendNRecv, COMDAT
; _this$ = ecx

; 181  : {

  00000	55		 push	 ebp
  00001	8b ec		 mov	 ebp, esp
  00003	56		 push	 esi
  00004	57		 push	 edi

; 182  : 	if(m_nSocket < 0)	return -1;
; 183  : 
; 184  : 	int nSize = send(m_nSocket, szBuffer, *nLen, NODELAY);

  00005	8b 7d 08	 mov	 edi, DWORD PTR _nLen$[ebp]
  00008	8b f1		 mov	 esi, ecx
  0000a	6a 00		 push	 0
  0000c	ff 37		 push	 DWORD PTR [edi]
  0000e	ff 75 0c	 push	 DWORD PTR _szBuffer$[ebp]
  00011	ff 76 04	 push	 DWORD PTR [esi+4]
  00014	ff 15 00 00 00
	00		 call	 DWORD PTR __imp__send@16

; 185  : 	if(nSize != *nLen) {

  0001a	3b 07		 cmp	 eax, DWORD PTR [edi]
  0001c	74 44		 je	 SHORT $LN3@SendNRecv

; 186  : 		strcpy(m_szErrMsg, "WVSocket::ConnectTo Socket send Error");		

  0001e	0f 10 05 00 00
	00 00		 movups	 xmm0, XMMWORD PTR ??_C@_0CG@CIJBBMJE@WVSocket?3?3ConnectTo?5Socket?5send?5@

; 98   : 	SOCKETCLOSE(m_nSocket);

  00025	ff 76 04	 push	 DWORD PTR [esi+4]

; 186  : 		strcpy(m_szErrMsg, "WVSocket::ConnectTo Socket send Error");		

  00028	0f 11 46 38	 movups	 XMMWORD PTR [esi+56], xmm0
  0002c	0f 10 05 10 00
	00 00		 movups	 xmm0, XMMWORD PTR ??_C@_0CG@CIJBBMJE@WVSocket?3?3ConnectTo?5Socket?5send?5@+16
  00033	0f 11 46 48	 movups	 XMMWORD PTR [esi+72], xmm0
  00037	a1 20 00 00 00	 mov	 eax, DWORD PTR ??_C@_0CG@CIJBBMJE@WVSocket?3?3ConnectTo?5Socket?5send?5@+32
  0003c	89 46 58	 mov	 DWORD PTR [esi+88], eax
  0003f	66 a1 24 00 00
	00		 mov	 ax, WORD PTR ??_C@_0CG@CIJBBMJE@WVSocket?3?3ConnectTo?5Socket?5send?5@+36
  00045	66 89 46 5c	 mov	 WORD PTR [esi+92], ax

; 98   : 	SOCKETCLOSE(m_nSocket);

  00049	ff 15 00 00 00
	00		 call	 DWORD PTR __imp__closesocket@4
  0004f	5f		 pop	 edi

; 99   : 	m_nSocket = -1;

  00050	c7 46 04 ff ff
	ff ff		 mov	 DWORD PTR [esi+4], -1

; 187  : 		onClose();
; 188  : 		return -1;

  00057	83 c8 ff	 or	 eax, -1

; 100  : 	m_bConnected = false;

  0005a	c6 06 00	 mov	 BYTE PTR [esi], 0
  0005d	5e		 pop	 esi

; 193  : }

  0005e	5d		 pop	 ebp
  0005f	c2 0c 00	 ret	 12			; 0000000cH
$LN3@SendNRecv:

; 189  : 	}
; 190  : 	SLEEP(1);

  00062	68 e8 03 00 00	 push	 1000			; 000003e8H
  00067	ff 15 00 00 00
	00		 call	 DWORD PTR __imp__Sleep@4

; 191  : 	*nLen = RecvStringData(szBuffer, nBLen);

  0006d	ff 75 10	 push	 DWORD PTR _nBLen$[ebp]
  00070	8b ce		 mov	 ecx, esi
  00072	ff 75 0c	 push	 DWORD PTR _szBuffer$[ebp]
  00075	e8 00 00 00 00	 call	 ?RecvStringData@WVSocket@@QAEHPADH@Z ; WVSocket::RecvStringData

; 192  : 	return *nLen < 0 ? -1 : *nLen;

  0007a	83 c9 ff	 or	 ecx, -1
  0007d	89 07		 mov	 DWORD PTR [edi], eax
  0007f	85 c0		 test	 eax, eax
  00081	5f		 pop	 edi
  00082	0f 48 c1	 cmovs	 eax, ecx
  00085	5e		 pop	 esi

; 193  : }

  00086	5d		 pop	 ebp
  00087	c2 0c 00	 ret	 12			; 0000000cH
?SendNRecv@WVSocket@@QAEHPAHPADH@Z ENDP			; WVSocket::SendNRecv
_TEXT	ENDS
; Function compile flags: /Ogtp
; File e:\infinia-library-3.0\com\src\wvsocket.cpp
;	COMDAT ?ConnectTo@WVSocket@@QAEHPBDH@Z
_TEXT	SEGMENT
_sa$ = -20						; size = 16
__$ArrayPad$ = -4					; size = 4
_szIP$ = 8						; size = 4
_nPort$ = 12						; size = 4
?ConnectTo@WVSocket@@QAEHPBDH@Z PROC			; WVSocket::ConnectTo, COMDAT
; _this$ = ecx

; 151  : {

  00000	55		 push	 ebp
  00001	8b ec		 mov	 ebp, esp
  00003	83 ec 14	 sub	 esp, 20			; 00000014H
  00006	a1 00 00 00 00	 mov	 eax, DWORD PTR ___security_cookie
  0000b	33 c5		 xor	 eax, ebp
  0000d	89 45 fc	 mov	 DWORD PTR __$ArrayPad$[ebp], eax
  00010	53		 push	 ebx
  00011	56		 push	 esi
  00012	8b f1		 mov	 esi, ecx
  00014	57		 push	 edi
  00015	8b 7d 08	 mov	 edi, DWORD PTR _szIP$[ebp]

; 152  : 	struct sockaddr_in sa;
; 153  : 	
; 154  : 	strcpy(m_szIP, szIP);

  00018	8b c7		 mov	 eax, edi
  0001a	8d 56 14	 lea	 edx, DWORD PTR [esi+20]
  0001d	2b d7		 sub	 edx, edi
  0001f	90		 npad	 1
$LL6@ConnectTo:
  00020	8a 08		 mov	 cl, BYTE PTR [eax]
  00022	8d 40 01	 lea	 eax, DWORD PTR [eax+1]
  00025	88 4c 02 ff	 mov	 BYTE PTR [edx+eax-1], cl
  00029	84 c9		 test	 cl, cl
  0002b	75 f3		 jne	 SHORT $LL6@ConnectTo

; 155  : 	m_nPort = nPort;
; 156  : 	if (m_nSocket == -1) {

  0002d	83 7e 04 ff	 cmp	 DWORD PTR [esi+4], -1
  00031	8b 5d 0c	 mov	 ebx, DWORD PTR _nPort$[ebp]
  00034	89 5e 34	 mov	 DWORD PTR [esi+52], ebx
  00037	75 4c		 jne	 SHORT $LN3@ConnectTo

; 157  : 		m_nSocket = ::socket(SOCK_FLAG, SOCK_STREAM, 0);

  00039	6a 00		 push	 0
  0003b	6a 01		 push	 1
  0003d	6a 02		 push	 2
  0003f	ff 15 00 00 00
	00		 call	 DWORD PTR __imp__socket@12
  00045	89 46 04	 mov	 DWORD PTR [esi+4], eax

; 158  : 		if (m_nSocket == -1) {

  00048	83 f8 ff	 cmp	 eax, -1
  0004b	75 38		 jne	 SHORT $LN3@ConnectTo

; 159  : 			strcpy(m_szErrMsg, "WVSocket::ConnectTo Socket create Error");

  0004d	0f 10 05 00 00
	00 00		 movups	 xmm0, XMMWORD PTR ??_C@_0CI@LFKMKMJE@WVSocket?3?3ConnectTo?5Socket?5creat@
  00054	5f		 pop	 edi

; 160  : 			return -1;

  00055	0b c0		 or	 eax, eax
  00057	0f 11 46 38	 movups	 XMMWORD PTR [esi+56], xmm0
  0005b	0f 10 05 10 00
	00 00		 movups	 xmm0, XMMWORD PTR ??_C@_0CI@LFKMKMJE@WVSocket?3?3ConnectTo?5Socket?5creat@+16
  00062	0f 11 46 48	 movups	 XMMWORD PTR [esi+72], xmm0
  00066	f3 0f 7e 05 20
	00 00 00	 movq	 xmm0, QWORD PTR ??_C@_0CI@LFKMKMJE@WVSocket?3?3ConnectTo?5Socket?5creat@+32
  0006e	66 0f d6 46 58	 movq	 QWORD PTR [esi+88], xmm0
  00073	5e		 pop	 esi
  00074	5b		 pop	 ebx

; 175  : 	}
; 176  : 	m_bConnected = true;
; 177  : 	return 1;
; 178  : }

  00075	8b 4d fc	 mov	 ecx, DWORD PTR __$ArrayPad$[ebp]
  00078	33 cd		 xor	 ecx, ebp
  0007a	e8 00 00 00 00	 call	 @__security_check_cookie@4
  0007f	8b e5		 mov	 esp, ebp
  00081	5d		 pop	 ebp
  00082	c2 08 00	 ret	 8
$LN3@ConnectTo:
  00085	0f 57 c0	 xorps	 xmm0, xmm0

; 161  : 		}
; 162  : 	}
; 163  : 
; 164  : 	memset(&sa, 0x00, sizeof(sa));
; 165  : 	
; 166  : 	sa.sin_family = AF_INET;

  00088	b8 02 00 00 00	 mov	 eax, 2
  0008d	0f 11 45 ec	 movups	 XMMWORD PTR _sa$[ebp], xmm0

; 167  : 	sa.sin_port = htons((short)nPort);

  00091	53		 push	 ebx
  00092	66 89 45 ec	 mov	 WORD PTR _sa$[ebp], ax
  00096	ff 15 00 00 00
	00		 call	 DWORD PTR __imp__htons@4

; 168  : 	sa.sin_addr.s_addr = inet_addr(szIP);

  0009c	57		 push	 edi
  0009d	66 89 45 ee	 mov	 WORD PTR _sa$[ebp+2], ax
  000a1	ff 15 00 00 00
	00		 call	 DWORD PTR __imp__inet_addr@4
  000a7	89 45 f0	 mov	 DWORD PTR _sa$[ebp+4], eax

; 169  : 	
; 170  : 	int nRet = connect(m_nSocket, (struct sockaddr*)&sa, sizeof(sockaddr_in));

  000aa	8d 45 ec	 lea	 eax, DWORD PTR _sa$[ebp]
  000ad	6a 10		 push	 16			; 00000010H
  000af	50		 push	 eax
  000b0	ff 76 04	 push	 DWORD PTR [esi+4]
  000b3	ff 15 00 00 00
	00		 call	 DWORD PTR __imp__connect@12

; 171  : 	if(nRet == -1) {

  000b9	83 f8 ff	 cmp	 eax, -1
  000bc	75 54		 jne	 SHORT $LN4@ConnectTo

; 172  : 		strcpy(m_szErrMsg, "WVSocket::ConnectTo Socket connect Error");		

  000be	0f 10 05 00 00
	00 00		 movups	 xmm0, XMMWORD PTR ??_C@_0CJ@OHPJPDLP@WVSocket?3?3ConnectTo?5Socket?5conne@

; 98   : 	SOCKETCLOSE(m_nSocket);

  000c5	ff 76 04	 push	 DWORD PTR [esi+4]

; 172  : 		strcpy(m_szErrMsg, "WVSocket::ConnectTo Socket connect Error");		

  000c8	0f 11 46 38	 movups	 XMMWORD PTR [esi+56], xmm0
  000cc	0f 10 05 10 00
	00 00		 movups	 xmm0, XMMWORD PTR ??_C@_0CJ@OHPJPDLP@WVSocket?3?3ConnectTo?5Socket?5conne@+16
  000d3	0f 11 46 48	 movups	 XMMWORD PTR [esi+72], xmm0
  000d7	f3 0f 7e 05 20
	00 00 00	 movq	 xmm0, QWORD PTR ??_C@_0CJ@OHPJPDLP@WVSocket?3?3ConnectTo?5Socket?5conne@+32
  000df	66 0f d6 46 58	 movq	 QWORD PTR [esi+88], xmm0
  000e4	a0 28 00 00 00	 mov	 al, BYTE PTR ??_C@_0CJ@OHPJPDLP@WVSocket?3?3ConnectTo?5Socket?5conne@+40
  000e9	88 46 60	 mov	 BYTE PTR [esi+96], al

; 98   : 	SOCKETCLOSE(m_nSocket);

  000ec	ff 15 00 00 00
	00		 call	 DWORD PTR __imp__closesocket@4
  000f2	5f		 pop	 edi

; 99   : 	m_nSocket = -1;

  000f3	c7 46 04 ff ff
	ff ff		 mov	 DWORD PTR [esi+4], -1

; 173  : 		onClose();
; 174  : 		return nRet;

  000fa	83 c8 ff	 or	 eax, -1

; 100  : 	m_bConnected = false;

  000fd	c6 06 00	 mov	 BYTE PTR [esi], 0
  00100	5e		 pop	 esi
  00101	5b		 pop	 ebx

; 175  : 	}
; 176  : 	m_bConnected = true;
; 177  : 	return 1;
; 178  : }

  00102	8b 4d fc	 mov	 ecx, DWORD PTR __$ArrayPad$[ebp]
  00105	33 cd		 xor	 ecx, ebp
  00107	e8 00 00 00 00	 call	 @__security_check_cookie@4
  0010c	8b e5		 mov	 esp, ebp
  0010e	5d		 pop	 ebp
  0010f	c2 08 00	 ret	 8
$LN4@ConnectTo:
  00112	8b 4d fc	 mov	 ecx, DWORD PTR __$ArrayPad$[ebp]
  00115	b8 01 00 00 00	 mov	 eax, 1
  0011a	5f		 pop	 edi
  0011b	c6 06 01	 mov	 BYTE PTR [esi], 1
  0011e	33 cd		 xor	 ecx, ebp
  00120	5e		 pop	 esi
  00121	5b		 pop	 ebx
  00122	e8 00 00 00 00	 call	 @__security_check_cookie@4
  00127	8b e5		 mov	 esp, ebp
  00129	5d		 pop	 ebp
  0012a	c2 08 00	 ret	 8
?ConnectTo@WVSocket@@QAEHPBDH@Z ENDP			; WVSocket::ConnectTo
_TEXT	ENDS
; Function compile flags: /Ogtp
; File e:\infinia-library-3.0\com\src\wvsocket.cpp
; File e:\infinia-library-3.0\com\include\comtypes.h
; File e:\infinia-library-3.0\com\src\wvsocket.cpp
; File e:\infinia-library-3.0\com\include\comtypes.h
; File e:\infinia-library-3.0\com\src\wvsocket.cpp
;	COMDAT ?GetRecvData@WVSocket@@QAEHPADH@Z
_TEXT	SEGMENT
_pBuf$ = 8						; size = 4
_nBLen$ = 12						; size = 4
?GetRecvData@WVSocket@@QAEHPADH@Z PROC			; WVSocket::GetRecvData, COMDAT
; _this$ = ecx

; 112  : {

  00000	55		 push	 ebp
  00001	8b ec		 mov	 ebp, esp

; 113  : 	if (m_szRecvData && pBuf) {

  00003	8b 51 08	 mov	 edx, DWORD PTR [ecx+8]
  00006	85 d2		 test	 edx, edx
  00008	74 51		 je	 SHORT $LN2@GetRecvDat
  0000a	8b 45 08	 mov	 eax, DWORD PTR _pBuf$[ebp]
  0000d	85 c0		 test	 eax, eax
  0000f	74 4a		 je	 SHORT $LN2@GetRecvDat

; 114  : 		if (nBLen < m_nRecvDLen) {

  00011	56		 push	 esi
  00012	8b 75 0c	 mov	 esi, DWORD PTR _nBLen$[ebp]
  00015	57		 push	 edi
  00016	8b 79 10	 mov	 edi, DWORD PTR [ecx+16]
  00019	3b f7		 cmp	 esi, edi
  0001b	7d 1d		 jge	 SHORT $LN3@GetRecvDat
; File e:\infinia-library-3.0\com\include\comtypes.h

; 309  : inline void *c_memcpy(void *de, const void *so, int l) { char *d = (char*)de; const char *s = (char*)so; while (l--) *d++ = *s++; return de;}

  0001d	85 f6		 test	 esi, esi
  0001f	74 10		 je	 SHORT $LN15@GetRecvDat
$LL6@GetRecvDat:
  00021	8a 0a		 mov	 cl, BYTE PTR [edx]
  00023	8d 40 01	 lea	 eax, DWORD PTR [eax+1]
  00026	88 48 ff	 mov	 BYTE PTR [eax-1], cl
  00029	8d 52 01	 lea	 edx, DWORD PTR [edx+1]
  0002c	83 ee 01	 sub	 esi, 1
  0002f	75 f0		 jne	 SHORT $LL6@GetRecvDat
$LN15@GetRecvDat:
  00031	5f		 pop	 edi
; File e:\infinia-library-3.0\com\src\wvsocket.cpp

; 116  : 			return -1;

  00032	83 c8 ff	 or	 eax, -1
  00035	5e		 pop	 esi

; 122  : }

  00036	5d		 pop	 ebp
  00037	c2 08 00	 ret	 8
$LN3@GetRecvDat:
; File e:\infinia-library-3.0\com\include\comtypes.h

; 309  : inline void *c_memcpy(void *de, const void *so, int l) { char *d = (char*)de; const char *s = (char*)so; while (l--) *d++ = *s++; return de;}

  0003a	85 ff		 test	 edi, edi
  0003c	74 12		 je	 SHORT $LN17@GetRecvDat
  0003e	66 90		 npad	 2
$LL10@GetRecvDat:
  00040	8a 0a		 mov	 cl, BYTE PTR [edx]
  00042	8d 40 01	 lea	 eax, DWORD PTR [eax+1]
  00045	88 48 ff	 mov	 BYTE PTR [eax-1], cl
  00048	8d 52 01	 lea	 edx, DWORD PTR [edx+1]
  0004b	83 ef 01	 sub	 edi, 1
  0004e	75 f0		 jne	 SHORT $LL10@GetRecvDat
$LN17@GetRecvDat:
  00050	5f		 pop	 edi
; File e:\infinia-library-3.0\com\src\wvsocket.cpp

; 119  : 		return 1;

  00051	b8 01 00 00 00	 mov	 eax, 1
  00056	5e		 pop	 esi

; 122  : }

  00057	5d		 pop	 ebp
  00058	c2 08 00	 ret	 8
$LN2@GetRecvDat:

; 120  : 	}
; 121  : 	return 0;

  0005b	33 c0		 xor	 eax, eax

; 122  : }

  0005d	5d		 pop	 ebp
  0005e	c2 08 00	 ret	 8
?GetRecvData@WVSocket@@QAEHPADH@Z ENDP			; WVSocket::GetRecvData
_TEXT	ENDS
; Function compile flags: /Ogtp
; File e:\infinia-library-3.0\com\src\wvsocket.cpp
;	COMDAT ?SetAcceptedSocket@WVSocket@@QAEXH@Z
_TEXT	SEGMENT
_nSocket$ = 8						; size = 4
?SetAcceptedSocket@WVSocket@@QAEXH@Z PROC		; WVSocket::SetAcceptedSocket, COMDAT
; _this$ = ecx

; 104  : {

  00000	55		 push	 ebp
  00001	8b ec		 mov	 ebp, esp
  00003	56		 push	 esi
  00004	8b f1		 mov	 esi, ecx

; 105  : 	if (m_nSocket >= 0)
; 106  : 		SOCKETCLOSE(m_nSocket);

  00006	ff 76 04	 push	 DWORD PTR [esi+4]
  00009	ff 15 00 00 00
	00		 call	 DWORD PTR __imp__closesocket@4

; 107  : 	m_nSocket = nSocket;

  0000f	8b 45 08	 mov	 eax, DWORD PTR _nSocket$[ebp]
  00012	89 46 04	 mov	 DWORD PTR [esi+4], eax

; 108  : 	m_bConnected = true;

  00015	c6 06 01	 mov	 BYTE PTR [esi], 1
  00018	5e		 pop	 esi

; 109  : }

  00019	5d		 pop	 ebp
  0001a	c2 04 00	 ret	 4
?SetAcceptedSocket@WVSocket@@QAEXH@Z ENDP		; WVSocket::SetAcceptedSocket
_TEXT	ENDS
; Function compile flags: /Ogtp
; File e:\infinia-library-3.0\com\src\wvsocket.cpp
; File c:\program files (x86)\windows kits\10\include\10.0.10240.0\ucrt\time.h
; File e:\infinia-library-3.0\com\src\wvsocket.cpp
; File c:\program files (x86)\windows kits\10\include\10.0.10240.0\ucrt\time.h
; File e:\infinia-library-3.0\com\src\wvsocket.cpp
; File c:\program files (x86)\windows kits\10\include\10.0.10240.0\ucrt\time.h
; File e:\infinia-library-3.0\com\src\wvsocket.cpp
; File c:\program files (x86)\windows kits\10\include\10.0.10240.0\ucrt\time.h
; File e:\infinia-library-3.0\com\src\wvsocket.cpp
;	COMDAT ?PutData@WVSocket@@QAEHPADHJ@Z
_TEXT	SEGMENT
_tmIn$2$ = -8						; size = 4
_tmIn$1$ = -4						; size = 4
_szBuf$ = 8						; size = 4
tv183 = 12						; size = 4
_nLen$ = 12						; size = 4
_ltimeOut$ = 16						; size = 4
?PutData@WVSocket@@QAEHPADHJ@Z PROC			; WVSocket::PutData, COMDAT
; _this$ = ecx

; 198  : {

  00000	55		 push	 ebp
  00001	8b ec		 mov	 ebp, esp
  00003	83 ec 08	 sub	 esp, 8

; 199  : 	time_t	tmIn, tmCur;
; 200  : 	int	sLen, sPos;
; 201  : 
; 202  : 	if (m_nSocket < 0)
; 203  : 		return -1;
; 204  : 	
; 205  : 	if (ltimeOut == 0) {

  00006	83 7d 10 00	 cmp	 DWORD PTR _ltimeOut$[ebp], 0
  0000a	56		 push	 esi
  0000b	8b f1		 mov	 esi, ecx
  0000d	75 54		 jne	 SHORT $LN5@PutData

; 206  : 		sLen = send(m_nSocket, szBuf, nLen, 0);

  0000f	6a 00		 push	 0
  00011	ff 75 0c	 push	 DWORD PTR _nLen$[ebp]
  00014	ff 75 08	 push	 DWORD PTR _szBuf$[ebp]
  00017	ff 76 04	 push	 DWORD PTR [esi+4]
  0001a	ff 15 00 00 00
	00		 call	 DWORD PTR __imp__send@16

; 207  : 		if (sLen < 0) 

  00020	85 c0		 test	 eax, eax
  00022	0f 89 32 01 00
	00		 jns	 $LN1@PutData

; 208  : 		{
; 209  : 			strcpy(m_szErrMsg, "WVSocket::PutData Socket send Error");	

  00028	0f 10 05 00 00
	00 00		 movups	 xmm0, XMMWORD PTR ??_C@_0CE@BMAJOFHB@WVSocket?3?3PutData?5Socket?5send?5Er@

; 98   : 	SOCKETCLOSE(m_nSocket);

  0002f	ff 76 04	 push	 DWORD PTR [esi+4]

; 208  : 		{
; 209  : 			strcpy(m_szErrMsg, "WVSocket::PutData Socket send Error");	

  00032	0f 11 46 38	 movups	 XMMWORD PTR [esi+56], xmm0
  00036	0f 10 05 10 00
	00 00		 movups	 xmm0, XMMWORD PTR ??_C@_0CE@BMAJOFHB@WVSocket?3?3PutData?5Socket?5send?5Er@+16
  0003d	0f 11 46 48	 movups	 XMMWORD PTR [esi+72], xmm0
  00041	a1 20 00 00 00	 mov	 eax, DWORD PTR ??_C@_0CE@BMAJOFHB@WVSocket?3?3PutData?5Socket?5send?5Er@+32
  00046	89 46 58	 mov	 DWORD PTR [esi+88], eax

; 98   : 	SOCKETCLOSE(m_nSocket);

  00049	ff 15 00 00 00
	00		 call	 DWORD PTR __imp__closesocket@4

; 99   : 	m_nSocket = -1;

  0004f	c7 46 04 ff ff
	ff ff		 mov	 DWORD PTR [esi+4], -1

; 210  : 			onClose();
; 211  : 			return -1;

  00056	83 c8 ff	 or	 eax, -1

; 100  : 	m_bConnected = false;

  00059	c6 06 00	 mov	 BYTE PTR [esi], 0
  0005c	5e		 pop	 esi

; 248  : }

  0005d	8b e5		 mov	 esp, ebp
  0005f	5d		 pop	 ebp
  00060	c2 0c 00	 ret	 12			; 0000000cH
$LN5@PutData:
  00063	53		 push	 ebx
  00064	57		 push	 edi

; 212  : 		}
; 213  : 		return sLen;
; 214  : 	}
; 215  : 
; 216  : 	sPos = sLen = 0;

  00065	33 ff		 xor	 edi, edi
; File c:\program files (x86)\windows kits\10\include\10.0.10240.0\ucrt\time.h

; 535  :             return _time64(_Time);

  00067	57		 push	 edi
  00068	ff 15 00 00 00
	00		 call	 DWORD PTR __imp___time64
; File e:\infinia-library-3.0\com\src\wvsocket.cpp

; 218  : 	while (sPos < nLen) {

  0006e	8b 5d 0c	 mov	 ebx, DWORD PTR _nLen$[ebp]
; File c:\program files (x86)\windows kits\10\include\10.0.10240.0\ucrt\time.h

; 535  :             return _time64(_Time);

  00071	83 c4 04	 add	 esp, 4
; File e:\infinia-library-3.0\com\src\wvsocket.cpp

; 217  : 	tmIn = tmCur = time(NULL);

  00074	89 45 fc	 mov	 DWORD PTR _tmIn$1$[ebp], eax
  00077	89 55 f8	 mov	 DWORD PTR _tmIn$2$[ebp], edx

; 218  : 	while (sPos < nLen) {

  0007a	85 db		 test	 ebx, ebx
  0007c	0f 8e d4 00 00
	00		 jle	 $LN3@PutData
$LL2@PutData:

; 219  : 		sLen = send(m_nSocket, szBuf + sPos, nLen - sPos, NODELAY);

  00082	6a 00		 push	 0
  00084	8b c3		 mov	 eax, ebx
  00086	2b c7		 sub	 eax, edi
  00088	50		 push	 eax
  00089	8b 45 08	 mov	 eax, DWORD PTR _szBuf$[ebp]
  0008c	03 c7		 add	 eax, edi
  0008e	50		 push	 eax
  0008f	ff 76 04	 push	 DWORD PTR [esi+4]
  00092	ff 15 00 00 00
	00		 call	 DWORD PTR __imp__send@16

; 220  : 		if (sLen < 0) {

  00098	85 c0		 test	 eax, eax
  0009a	79 1a		 jns	 SHORT $LN7@PutData

; 221  : #ifdef WIN32
; 222  : 			if (WSAGetLastError() == WSAEWOULDBLOCK) {

  0009c	ff 15 00 00 00
	00		 call	 DWORD PTR __imp__WSAGetLastError@0
  000a2	3d 33 27 00 00	 cmp	 eax, 10035		; 00002733H
  000a7	75 43		 jne	 SHORT $LN9@PutData

; 223  : #else
; 224  : 			if (errno == EWOULDBLOCK) {
; 225  : #endif
; 226  : 				SLEEP(1);

  000a9	68 e8 03 00 00	 push	 1000			; 000003e8H
  000ae	ff 15 00 00 00
	00		 call	 DWORD PTR __imp__Sleep@4

; 227  : 				continue;

  000b4	eb 27		 jmp	 SHORT $LN27@PutData
$LN7@PutData:
; File c:\program files (x86)\windows kits\10\include\10.0.10240.0\ucrt\time.h

; 535  :             return _time64(_Time);

  000b6	6a 00		 push	 0
; File e:\infinia-library-3.0\com\src\wvsocket.cpp

; 237  : 			sPos += sLen;

  000b8	03 f8		 add	 edi, eax
; File c:\program files (x86)\windows kits\10\include\10.0.10240.0\ucrt\time.h

; 535  :             return _time64(_Time);

  000ba	ff 15 00 00 00
	00		 call	 DWORD PTR __imp___time64
  000c0	83 c4 04	 add	 esp, 4
  000c3	8b ca		 mov	 ecx, edx
; File e:\infinia-library-3.0\com\src\wvsocket.cpp

; 241  : 		if (tmCur - tmIn > ltimeOut) {

  000c5	2b 45 fc	 sub	 eax, DWORD PTR _tmIn$1$[ebp]
  000c8	89 45 0c	 mov	 DWORD PTR tv183[ebp], eax
  000cb	8b 45 10	 mov	 eax, DWORD PTR _ltimeOut$[ebp]
  000ce	1b 4d f8	 sbb	 ecx, DWORD PTR _tmIn$2$[ebp]
  000d1	99		 cdq
  000d2	3b ca		 cmp	 ecx, edx
  000d4	7f 58		 jg	 SHORT $LN23@PutData
  000d6	7c 05		 jl	 SHORT $LN27@PutData
  000d8	39 45 0c	 cmp	 DWORD PTR tv183[ebp], eax
  000db	77 51		 ja	 SHORT $LN23@PutData
$LN27@PutData:

; 218  : 	while (sPos < nLen) {

  000dd	3b fb		 cmp	 edi, ebx
  000df	7c a1		 jl	 SHORT $LL2@PutData

; 243  : 			return sPos;
; 244  : 		}
; 245  : 	}
; 246  : 
; 247  : 	return sPos;

  000e1	8b c7		 mov	 eax, edi
  000e3	5f		 pop	 edi
  000e4	5b		 pop	 ebx
  000e5	5e		 pop	 esi

; 248  : }

  000e6	8b e5		 mov	 esp, ebp
  000e8	5d		 pop	 ebp
  000e9	c2 0c 00	 ret	 12			; 0000000cH
$LN9@PutData:

; 228  : 			}
; 229  : 			else {
; 230  : 				strcpy(m_szErrMsg, "WVSocket::PutData Socket send Error - 2");	

  000ec	0f 10 05 00 00
	00 00		 movups	 xmm0, XMMWORD PTR ??_C@_0CI@PPMNHIMC@WVSocket?3?3PutData?5Socket?5send?5Er@

; 98   : 	SOCKETCLOSE(m_nSocket);

  000f3	ff 76 04	 push	 DWORD PTR [esi+4]

; 228  : 			}
; 229  : 			else {
; 230  : 				strcpy(m_szErrMsg, "WVSocket::PutData Socket send Error - 2");	

  000f6	0f 11 46 38	 movups	 XMMWORD PTR [esi+56], xmm0
  000fa	0f 10 05 10 00
	00 00		 movups	 xmm0, XMMWORD PTR ??_C@_0CI@PPMNHIMC@WVSocket?3?3PutData?5Socket?5send?5Er@+16
  00101	0f 11 46 48	 movups	 XMMWORD PTR [esi+72], xmm0
  00105	f3 0f 7e 05 20
	00 00 00	 movq	 xmm0, QWORD PTR ??_C@_0CI@PPMNHIMC@WVSocket?3?3PutData?5Socket?5send?5Er@+32
  0010d	66 0f d6 46 58	 movq	 QWORD PTR [esi+88], xmm0

; 98   : 	SOCKETCLOSE(m_nSocket);

  00112	ff 15 00 00 00
	00		 call	 DWORD PTR __imp__closesocket@4
  00118	5f		 pop	 edi
  00119	5b		 pop	 ebx

; 99   : 	m_nSocket = -1;

  0011a	c7 46 04 ff ff
	ff ff		 mov	 DWORD PTR [esi+4], -1

; 231  : 			}
; 232  : 			onClose();
; 233  : 			return -1;

  00121	83 c8 ff	 or	 eax, -1

; 100  : 	m_bConnected = false;

  00124	c6 06 00	 mov	 BYTE PTR [esi], 0
  00127	5e		 pop	 esi

; 248  : }

  00128	8b e5		 mov	 esp, ebp
  0012a	5d		 pop	 ebp
  0012b	c2 0c 00	 ret	 12			; 0000000cH
$LN23@PutData:

; 242  : 			strcpy(m_szErrMsg, "WVSocket::PutData send timeout Error");

  0012e	0f 10 05 00 00
	00 00		 movups	 xmm0, XMMWORD PTR ??_C@_0CF@EHGGGPNJ@WVSocket?3?3PutData?5send?5timeout?5E@
  00135	0f 11 46 38	 movups	 XMMWORD PTR [esi+56], xmm0
  00139	0f 10 05 10 00
	00 00		 movups	 xmm0, XMMWORD PTR ??_C@_0CF@EHGGGPNJ@WVSocket?3?3PutData?5send?5timeout?5E@+16
  00140	0f 11 46 48	 movups	 XMMWORD PTR [esi+72], xmm0
  00144	8b 0d 20 00 00
	00		 mov	 ecx, DWORD PTR ??_C@_0CF@EHGGGPNJ@WVSocket?3?3PutData?5send?5timeout?5E@+32
  0014a	89 4e 58	 mov	 DWORD PTR [esi+88], ecx
  0014d	8a 0d 24 00 00
	00		 mov	 cl, BYTE PTR ??_C@_0CF@EHGGGPNJ@WVSocket?3?3PutData?5send?5timeout?5E@+36
  00153	88 4e 5c	 mov	 BYTE PTR [esi+92], cl
$LN3@PutData:

; 243  : 			return sPos;
; 244  : 		}
; 245  : 	}
; 246  : 
; 247  : 	return sPos;

  00156	8b c7		 mov	 eax, edi
  00158	5f		 pop	 edi
  00159	5b		 pop	 ebx
$LN1@PutData:
  0015a	5e		 pop	 esi

; 248  : }

  0015b	8b e5		 mov	 esp, ebp
  0015d	5d		 pop	 ebp
  0015e	c2 0c 00	 ret	 12			; 0000000cH
?PutData@WVSocket@@QAEHPADHJ@Z ENDP			; WVSocket::PutData
_TEXT	ENDS
; Function compile flags: /Ogtp
; File e:\infinia-library-3.0\com\src\wvsocket.cpp
; File c:\program files (x86)\windows kits\10\include\10.0.10240.0\ucrt\time.h
; File e:\infinia-library-3.0\com\src\wvsocket.cpp
; File c:\program files (x86)\windows kits\10\include\10.0.10240.0\ucrt\time.h
; File e:\infinia-library-3.0\com\src\wvsocket.cpp
; File c:\program files (x86)\windows kits\10\include\10.0.10240.0\ucrt\time.h
; File e:\infinia-library-3.0\com\src\wvsocket.cpp
;	COMDAT ?GetData@WVSocket@@QAEHPADHJ@Z
_TEXT	SEGMENT
_stTm$ = -12						; size = 8
_stTm$2$ = -8						; size = 4
_stTm$1$ = -4						; size = 4
_szBuf$ = 8						; size = 4
_nLen$ = 12						; size = 4
_ltimeOut$ = 16						; size = 4
?GetData@WVSocket@@QAEHPADHJ@Z PROC			; WVSocket::GetData, COMDAT
; _this$ = ecx

; 251  : {

  00000	55		 push	 ebp
  00001	8b ec		 mov	 ebp, esp
  00003	83 ec 0c	 sub	 esp, 12			; 0000000cH
  00006	53		 push	 ebx

; 252  : 	int	nRet, nPos = 0;
; 253  : 	time_t	stTm, curTm;
; 254  : 
; 255  : 	if (m_nSocket < 0)
; 256  : 		return -1;
; 257  : 
; 258  : 	if (ltimeOut)

  00007	8b 5d 10	 mov	 ebx, DWORD PTR _ltimeOut$[ebp]
  0000a	56		 push	 esi
  0000b	33 f6		 xor	 esi, esi
  0000d	57		 push	 edi
  0000e	8b f9		 mov	 edi, ecx
  00010	85 db		 test	 ebx, ebx
  00012	74 0f		 je	 SHORT $LN30@GetData
; File c:\program files (x86)\windows kits\10\include\10.0.10240.0\ucrt\time.h

; 535  :             return _time64(_Time);

  00014	56		 push	 esi
  00015	ff 15 00 00 00
	00		 call	 DWORD PTR __imp___time64
  0001b	83 c4 04	 add	 esp, 4
; File e:\infinia-library-3.0\com\src\wvsocket.cpp

; 259  : 		stTm = curTm = time(NULL);

  0001e	89 55 f8	 mov	 DWORD PTR _stTm$2$[ebp], edx
  00021	eb 09		 jmp	 SHORT $LN31@GetData
$LN30@GetData:
  00023	8b 45 f8	 mov	 eax, DWORD PTR _stTm$[ebp+4]
  00026	89 45 f8	 mov	 DWORD PTR _stTm$2$[ebp], eax
  00029	8b 45 f4	 mov	 eax, DWORD PTR _stTm$[ebp]
$LN31@GetData:
  0002c	89 45 fc	 mov	 DWORD PTR _stTm$1$[ebp], eax
$LN32@GetData:
  0002f	8b 45 0c	 mov	 eax, DWORD PTR _nLen$[ebp]
$LL2@GetData:

; 260  : 
; 261  : 	while (1) {
; 262  : 		nRet = recv(m_nSocket, szBuf+nPos, nLen-nPos, NODELAY);

  00032	6a 00		 push	 0
  00034	2b c6		 sub	 eax, esi
  00036	50		 push	 eax
  00037	8b 45 08	 mov	 eax, DWORD PTR _szBuf$[ebp]
  0003a	03 c6		 add	 eax, esi
  0003c	50		 push	 eax
  0003d	ff 77 04	 push	 DWORD PTR [edi+4]
  00040	ff 15 00 00 00
	00		 call	 DWORD PTR __imp__recv@16

; 263  : 		if (nRet <= 0) {

  00046	85 c0		 test	 eax, eax
  00048	7f 1a		 jg	 SHORT $LN6@GetData

; 264  : #ifdef WIN32
; 265  : 			if (WSAGetLastError() != WSAEWOULDBLOCK) {

  0004a	ff 15 00 00 00
	00		 call	 DWORD PTR __imp__WSAGetLastError@0
  00050	3d 33 27 00 00	 cmp	 eax, 10035		; 00002733H
  00055	75 42		 jne	 SHORT $LN21@GetData

; 272  : 			}
; 273  : 			SLEEP(1);

  00057	68 e8 03 00 00	 push	 1000			; 000003e8H
  0005c	ff 15 00 00 00
	00		 call	 DWORD PTR __imp__Sleep@4

; 274  : 		}
; 275  : 		else

  00062	eb 02		 jmp	 SHORT $LN7@GetData
$LN6@GetData:

; 276  : 			nPos += nRet;

  00064	03 f0		 add	 esi, eax
$LN7@GetData:

; 277  : 		if (nPos >= nLen)

  00066	8b 45 0c	 mov	 eax, DWORD PTR _nLen$[ebp]
  00069	3b f0		 cmp	 esi, eax
  0006b	7d 73		 jge	 SHORT $LN22@GetData

; 278  : 			break;
; 279  : 
; 280  : 		if (ltimeOut) {

  0006d	85 db		 test	 ebx, ebx
  0006f	74 c1		 je	 SHORT $LL2@GetData
; File c:\program files (x86)\windows kits\10\include\10.0.10240.0\ucrt\time.h

; 535  :             return _time64(_Time);

  00071	6a 00		 push	 0
  00073	ff 15 00 00 00
	00		 call	 DWORD PTR __imp___time64
  00079	8b d8		 mov	 ebx, eax
  0007b	83 c4 04	 add	 esp, 4
; File e:\infinia-library-3.0\com\src\wvsocket.cpp

; 283  : 			if (curTm - stTm > ltimeOut)

  0007e	2b 5d fc	 sub	 ebx, DWORD PTR _stTm$1$[ebp]
; File c:\program files (x86)\windows kits\10\include\10.0.10240.0\ucrt\time.h

; 535  :             return _time64(_Time);

  00081	8b ca		 mov	 ecx, edx
; File e:\infinia-library-3.0\com\src\wvsocket.cpp

; 283  : 			if (curTm - stTm > ltimeOut)

  00083	8b 45 10	 mov	 eax, DWORD PTR _ltimeOut$[ebp]
  00086	1b 4d f8	 sbb	 ecx, DWORD PTR _stTm$2$[ebp]
  00089	99		 cdq
  0008a	3b ca		 cmp	 ecx, edx
  0008c	7f 52		 jg	 SHORT $LN22@GetData
  0008e	7c 04		 jl	 SHORT $LN29@GetData
  00090	3b d8		 cmp	 ebx, eax
  00092	77 4c		 ja	 SHORT $LN22@GetData
$LN29@GetData:

; 284  : 				return nPos;
; 285  : 		}
; 286  : 	}

  00094	8b 5d 10	 mov	 ebx, DWORD PTR _ltimeOut$[ebp]
  00097	eb 96		 jmp	 SHORT $LN32@GetData
$LN21@GetData:

; 266  : #else
; 267  : 			if (errno != EWOULDBLOCK) {
; 268  : #endif
; 269  : 				strcpy(m_szErrMsg, "WVSocket::GetData recv Error");

  00099	0f 10 05 00 00
	00 00		 movups	 xmm0, XMMWORD PTR ??_C@_0BN@MDLCBMMI@WVSocket?3?3GetData?5recv?5Error?$AA@

; 98   : 	SOCKETCLOSE(m_nSocket);

  000a0	ff 77 04	 push	 DWORD PTR [edi+4]

; 266  : #else
; 267  : 			if (errno != EWOULDBLOCK) {
; 268  : #endif
; 269  : 				strcpy(m_szErrMsg, "WVSocket::GetData recv Error");

  000a3	0f 11 47 38	 movups	 XMMWORD PTR [edi+56], xmm0
  000a7	f3 0f 7e 05 10
	00 00 00	 movq	 xmm0, QWORD PTR ??_C@_0BN@MDLCBMMI@WVSocket?3?3GetData?5recv?5Error?$AA@+16
  000af	66 0f d6 47 48	 movq	 QWORD PTR [edi+72], xmm0
  000b4	a1 18 00 00 00	 mov	 eax, DWORD PTR ??_C@_0BN@MDLCBMMI@WVSocket?3?3GetData?5recv?5Error?$AA@+24
  000b9	89 47 50	 mov	 DWORD PTR [edi+80], eax
  000bc	a0 1c 00 00 00	 mov	 al, BYTE PTR ??_C@_0BN@MDLCBMMI@WVSocket?3?3GetData?5recv?5Error?$AA@+28
  000c1	88 47 54	 mov	 BYTE PTR [edi+84], al

; 98   : 	SOCKETCLOSE(m_nSocket);

  000c4	ff 15 00 00 00
	00		 call	 DWORD PTR __imp__closesocket@4

; 99   : 	m_nSocket = -1;

  000ca	c7 47 04 ff ff
	ff ff		 mov	 DWORD PTR [edi+4], -1

; 270  : 				onClose();
; 271  : 				return -1;

  000d1	83 c8 ff	 or	 eax, -1

; 100  : 	m_bConnected = false;

  000d4	c6 07 00	 mov	 BYTE PTR [edi], 0
  000d7	5f		 pop	 edi
  000d8	5e		 pop	 esi
  000d9	5b		 pop	 ebx

; 288  : }

  000da	8b e5		 mov	 esp, ebp
  000dc	5d		 pop	 ebp
  000dd	c2 0c 00	 ret	 12			; 0000000cH
$LN22@GetData:
  000e0	5f		 pop	 edi

; 287  : 	return nPos;

  000e1	8b c6		 mov	 eax, esi
  000e3	5e		 pop	 esi
  000e4	5b		 pop	 ebx

; 288  : }

  000e5	8b e5		 mov	 esp, ebp
  000e7	5d		 pop	 ebp
  000e8	c2 0c 00	 ret	 12			; 0000000cH
?GetData@WVSocket@@QAEHPADHJ@Z ENDP			; WVSocket::GetData
_TEXT	ENDS
; Function compile flags: /Ogtp
; File e:\infinia-library-3.0\com\src\wvsocket.cpp
;	COMDAT ?GetOption@WVSocket@@QAEHHHPAXPAH@Z
_TEXT	SEGMENT
_level$ = 8						; size = 4
_optname$ = 12						; size = 4
_optval$ = 16						; size = 4
_optlen$ = 20						; size = 4
?GetOption@WVSocket@@QAEHHHPAXPAH@Z PROC		; WVSocket::GetOption, COMDAT
; _this$ = ecx

; 137  : {

  00000	55		 push	 ebp
  00001	8b ec		 mov	 ebp, esp

; 138  : 	if (m_nSocket < 0)
; 139  : 		return -1;
; 140  : 
; 141  : #ifdef WIN32
; 142  : 	return getsockopt(m_nSocket, level, optname, (char*)optval, optlen);

  00003	ff 75 14	 push	 DWORD PTR _optlen$[ebp]
  00006	ff 75 10	 push	 DWORD PTR _optval$[ebp]
  00009	ff 75 0c	 push	 DWORD PTR _optname$[ebp]
  0000c	ff 75 08	 push	 DWORD PTR _level$[ebp]
  0000f	ff 71 04	 push	 DWORD PTR [ecx+4]
  00012	ff 15 00 00 00
	00		 call	 DWORD PTR __imp__getsockopt@20

; 143  : #elif defined(__ia64)
; 144  : 	return getsockopt(m_nSocket, level, optname, optval, (int *)optlen);
; 145  : #else
; 146  : 	return getsockopt(m_nSocket, level, optname, optval, optlen);
; 147  : #endif
; 148  : }

  00018	5d		 pop	 ebp
  00019	c2 10 00	 ret	 16			; 00000010H
?GetOption@WVSocket@@QAEHHHPAXPAH@Z ENDP		; WVSocket::GetOption
_TEXT	ENDS
; Function compile flags: /Ogtp
; File e:\infinia-library-3.0\com\src\wvsocket.cpp
;	COMDAT ?SetOption@WVSocket@@QAEHHHPBXH@Z
_TEXT	SEGMENT
_level$ = 8						; size = 4
_optname$ = 12						; size = 4
_optval$ = 16						; size = 4
_optlen$ = 20						; size = 4
?SetOption@WVSocket@@QAEHHHPBXH@Z PROC			; WVSocket::SetOption, COMDAT
; _this$ = ecx

; 125  : {

  00000	55		 push	 ebp
  00001	8b ec		 mov	 ebp, esp

; 126  : 	if (m_nSocket < 0)
; 127  : 		return -1;
; 128  : 
; 129  : #ifdef WIN32
; 130  : 	return setsockopt(m_nSocket, level, optname, (char*)optval, optlen);

  00003	ff 75 14	 push	 DWORD PTR _optlen$[ebp]
  00006	ff 75 10	 push	 DWORD PTR _optval$[ebp]
  00009	ff 75 0c	 push	 DWORD PTR _optname$[ebp]
  0000c	ff 75 08	 push	 DWORD PTR _level$[ebp]
  0000f	ff 71 04	 push	 DWORD PTR [ecx+4]
  00012	ff 15 00 00 00
	00		 call	 DWORD PTR __imp__setsockopt@20

; 131  : #else
; 132  : 	return setsockopt(m_nSocket, level, optname, optval, optlen);
; 133  : #endif
; 134  : }

  00018	5d		 pop	 ebp
  00019	c2 10 00	 ret	 16			; 00000010H
?SetOption@WVSocket@@QAEHHHPBXH@Z ENDP			; WVSocket::SetOption
_TEXT	ENDS
; Function compile flags: /Ogtp
; File e:\infinia-library-3.0\com\src\wvsocket.cpp
;	COMDAT ?IsRecvData@WVSocket@@QAE_NXZ
_TEXT	SEGMENT
_stFds$ = -272						; size = 260
_tv$ = -12						; size = 8
__$ArrayPad$ = -4					; size = 4
?IsRecvData@WVSocket@@QAE_NXZ PROC			; WVSocket::IsRecvData, COMDAT
; _this$ = ecx

; 67   : {

  00000	55		 push	 ebp
  00001	8b ec		 mov	 ebp, esp
  00003	81 ec 10 01 00
	00		 sub	 esp, 272		; 00000110H
  00009	a1 00 00 00 00	 mov	 eax, DWORD PTR ___security_cookie
  0000e	33 c5		 xor	 eax, ebp
  00010	89 45 fc	 mov	 DWORD PTR __$ArrayPad$[ebp], eax
  00013	56		 push	 esi
  00014	8b f1		 mov	 esi, ecx

; 68   : 	struct timeval	tv;
; 69   : 	fd_set	stFds;
; 70   : 	int	nCount;
; 71   : 	int nfds;
; 72   : 
; 73   : 	if (m_nSocket < 0)
; 74   : 		return false;
; 75   : 
; 76   : 	tv.tv_sec	= 0;

  00016	c7 45 f4 00 00
	00 00		 mov	 DWORD PTR _tv$[ebp], 0

; 77   : 	tv.tv_usec	= 10000;
; 78   : 
; 79   : 	FD_ZERO(&stFds);
; 80   : 
; 81   : 	FD_SET(m_nSocket, &stFds);
; 82   : 	nfds = (int)m_nSocket;
; 83   : 	nCount =  select (nfds + 1, &stFds, NULL, NULL, &tv);

  0001d	8d 4d f4	 lea	 ecx, DWORD PTR _tv$[ebp]
  00020	c7 45 f8 10 27
	00 00		 mov	 DWORD PTR _tv$[ebp+4], 10000 ; 00002710H
  00027	51		 push	 ecx
  00028	6a 00		 push	 0
  0002a	8b 46 04	 mov	 eax, DWORD PTR [esi+4]
  0002d	8d 8d f0 fe ff
	ff		 lea	 ecx, DWORD PTR _stFds$[ebp]
  00033	6a 00		 push	 0
  00035	89 85 f4 fe ff
	ff		 mov	 DWORD PTR _stFds$[ebp+4], eax
  0003b	40		 inc	 eax
  0003c	51		 push	 ecx
  0003d	50		 push	 eax
  0003e	c7 85 f0 fe ff
	ff 01 00 00 00	 mov	 DWORD PTR _stFds$[ebp], 1
  00048	ff 15 00 00 00
	00		 call	 DWORD PTR __imp__select@20

; 84   : 	if (nCount  == -1) {

  0004e	83 f8 ff	 cmp	 eax, -1
  00051	75 37		 jne	 SHORT $LN12@IsRecvData

; 85   : 		strcpy(m_szErrMsg, "Socket select error");

  00053	0f 10 05 00 00
	00 00		 movups	 xmm0, XMMWORD PTR ??_C@_0BE@HHMJOGOP@Socket?5select?5error?$AA@

; 98   : 	SOCKETCLOSE(m_nSocket);

  0005a	ff 76 04	 push	 DWORD PTR [esi+4]

; 85   : 		strcpy(m_szErrMsg, "Socket select error");

  0005d	0f 11 46 38	 movups	 XMMWORD PTR [esi+56], xmm0
  00061	a1 10 00 00 00	 mov	 eax, DWORD PTR ??_C@_0BE@HHMJOGOP@Socket?5select?5error?$AA@+16
  00066	89 46 48	 mov	 DWORD PTR [esi+72], eax

; 98   : 	SOCKETCLOSE(m_nSocket);

  00069	ff 15 00 00 00
	00		 call	 DWORD PTR __imp__closesocket@4

; 99   : 	m_nSocket = -1;

  0006f	c7 46 04 ff ff
	ff ff		 mov	 DWORD PTR [esi+4], -1

; 86   : 		onClose();
; 87   : 		return false;

  00076	32 c0		 xor	 al, al

; 100  : 	m_bConnected = false;

  00078	c6 06 00	 mov	 BYTE PTR [esi], 0
  0007b	5e		 pop	 esi

; 91   : 		return true;
; 92   : 
; 93   : 	return false;
; 94   : }

  0007c	8b 4d fc	 mov	 ecx, DWORD PTR __$ArrayPad$[ebp]
  0007f	33 cd		 xor	 ecx, ebp
  00081	e8 00 00 00 00	 call	 @__security_check_cookie@4
  00086	8b e5		 mov	 esp, ebp
  00088	5d		 pop	 ebp
  00089	c3		 ret	 0
$LN12@IsRecvData:

; 88   : 	}
; 89   : 
; 90   : 	if (FD_ISSET(m_nSocket, &stFds))

  0008a	8d 85 f0 fe ff
	ff		 lea	 eax, DWORD PTR _stFds$[ebp]
  00090	50		 push	 eax
  00091	ff 76 04	 push	 DWORD PTR [esi+4]
  00094	e8 00 00 00 00	 call	 ___WSAFDIsSet@8

; 91   : 		return true;
; 92   : 
; 93   : 	return false;
; 94   : }

  00099	8b 4d fc	 mov	 ecx, DWORD PTR __$ArrayPad$[ebp]
  0009c	85 c0		 test	 eax, eax
  0009e	5e		 pop	 esi
  0009f	0f 95 c0	 setne	 al
  000a2	33 cd		 xor	 ecx, ebp
  000a4	e8 00 00 00 00	 call	 @__security_check_cookie@4
  000a9	8b e5		 mov	 esp, ebp
  000ab	5d		 pop	 ebp
  000ac	c3		 ret	 0
?IsRecvData@WVSocket@@QAE_NXZ ENDP			; WVSocket::IsRecvData
_TEXT	ENDS
; Function compile flags: /Ogtp
; File e:\infinia-library-3.0\com\src\wvsocket.cpp
;	COMDAT ??1WVSocket@@QAE@XZ
_TEXT	SEGMENT
??1WVSocket@@QAE@XZ PROC				; WVSocket::~WVSocket, COMDAT
; _this$ = ecx

; 54   : {

  00000	56		 push	 esi
  00001	8b f1		 mov	 esi, ecx

; 55   : 	if (m_nSocket > 0) 

  00003	8b 46 04	 mov	 eax, DWORD PTR [esi+4]
  00006	85 c0		 test	 eax, eax
  00008	74 11		 je	 SHORT $LN2@WVSocket

; 98   : 	SOCKETCLOSE(m_nSocket);

  0000a	50		 push	 eax
  0000b	ff 15 00 00 00
	00		 call	 DWORD PTR __imp__closesocket@4

; 99   : 	m_nSocket = -1;

  00011	c7 46 04 ff ff
	ff ff		 mov	 DWORD PTR [esi+4], -1

; 100  : 	m_bConnected = false;

  00018	c6 06 00	 mov	 BYTE PTR [esi], 0
$LN2@WVSocket:

; 56   : 		onClose();
; 57   : 
; 58   : 	if (m_szRecvData)

  0001b	8b 46 08	 mov	 eax, DWORD PTR [esi+8]
  0001e	85 c0		 test	 eax, eax
  00020	74 09		 je	 SHORT $LN7@WVSocket

; 59   : 		delete [] m_szRecvData;	//20100127

  00022	50		 push	 eax
  00023	e8 00 00 00 00	 call	 ??_V@YAXPAX@Z		; operator delete[]
  00028	83 c4 04	 add	 esp, 4
$LN7@WVSocket:

; 60   : 
; 61   : 	m_nRecvBLen = m_nRecvDLen = 0;

  0002b	c7 46 0c 00 00
	00 00		 mov	 DWORD PTR [esi+12], 0
  00032	c7 46 10 00 00
	00 00		 mov	 DWORD PTR [esi+16], 0
  00039	5e		 pop	 esi

; 62   : 
; 63   : }

  0003a	c3		 ret	 0
??1WVSocket@@QAE@XZ ENDP				; WVSocket::~WVSocket
_TEXT	ENDS
; Function compile flags: /Ogtp
; File e:\infinia-library-3.0\com\src\wvsocket.cpp
;	COMDAT ??0WVSocket@@QAE@PBDH@Z
_TEXT	SEGMENT
_szIP$ = 8						; size = 4
_nPort$ = 12						; size = 4
??0WVSocket@@QAE@PBDH@Z PROC				; WVSocket::WVSocket, COMDAT
; _this$ = ecx

; 38   : {

  00000	55		 push	 ebp
  00001	8b ec		 mov	 ebp, esp
  00003	56		 push	 esi

; 39   : 	m_bConnected = false;
; 40   : 	m_nSocket = -1;
; 41   : 	m_szRecvData = NULL;
; 42   : 	m_nRecvDLen = 0;
; 43   : 	m_nRecvBLen = 0;
; 44   : 
; 45   : 
; 46   : 	memset(m_szIP, 0, sizeof(m_szIP));
; 47   : 	m_nPort = -1;
; 48   : 
; 49   : 
; 50   : 	ConnectTo(szIP, nPort);

  00004	ff 75 0c	 push	 DWORD PTR _nPort$[ebp]
  00007	8b f1		 mov	 esi, ecx
  00009	0f 57 c0	 xorps	 xmm0, xmm0
  0000c	ff 75 08	 push	 DWORD PTR _szIP$[ebp]
  0000f	c6 06 00	 mov	 BYTE PTR [esi], 0
  00012	c7 46 04 ff ff
	ff ff		 mov	 DWORD PTR [esi+4], -1
  00019	c7 46 08 00 00
	00 00		 mov	 DWORD PTR [esi+8], 0
  00020	c7 46 10 00 00
	00 00		 mov	 DWORD PTR [esi+16], 0
  00027	c7 46 0c 00 00
	00 00		 mov	 DWORD PTR [esi+12], 0
  0002e	0f 11 46 14	 movups	 XMMWORD PTR [esi+20], xmm0
  00032	66 0f d6 46 24	 movq	 QWORD PTR [esi+36], xmm0
  00037	c7 46 2c 00 00
	00 00		 mov	 DWORD PTR [esi+44], 0
  0003e	66 c7 46 30 00
	00		 mov	 WORD PTR [esi+48], 0
  00044	c7 46 34 ff ff
	ff ff		 mov	 DWORD PTR [esi+52], -1
  0004b	e8 00 00 00 00	 call	 ?ConnectTo@WVSocket@@QAEHPBDH@Z ; WVSocket::ConnectTo

; 51   : }

  00050	8b c6		 mov	 eax, esi
  00052	5e		 pop	 esi
  00053	5d		 pop	 ebp
  00054	c2 08 00	 ret	 8
??0WVSocket@@QAE@PBDH@Z ENDP				; WVSocket::WVSocket
_TEXT	ENDS
; Function compile flags: /Ogtp
; File e:\infinia-library-3.0\com\src\wvsocket.cpp
;	COMDAT ??0WVSocket@@QAE@XZ
_TEXT	SEGMENT
??0WVSocket@@QAE@XZ PROC				; WVSocket::WVSocket, COMDAT
; _this$ = ecx

; 24   : {

  00000	56		 push	 esi
  00001	8b f1		 mov	 esi, ecx
  00003	0f 57 c0	 xorps	 xmm0, xmm0

; 25   : 	m_bConnected = false;
; 26   : 	m_nSocket = -1;
; 27   : 	m_szRecvData = NULL;
; 28   : 	m_nRecvDLen = 0;
; 29   : 	m_nRecvBLen = 0;
; 30   : 	memset(m_szIP, 0, sizeof(m_szIP));
; 31   : 	m_nPort = -1;
; 32   : 
; 33   : 	m_nSocket = ::socket(SOCK_FLAG, SOCK_STREAM, 0);

  00006	6a 00		 push	 0
  00008	6a 01		 push	 1
  0000a	6a 02		 push	 2
  0000c	c6 06 00	 mov	 BYTE PTR [esi], 0
  0000f	c7 46 04 ff ff
	ff ff		 mov	 DWORD PTR [esi+4], -1
  00016	c7 46 08 00 00
	00 00		 mov	 DWORD PTR [esi+8], 0
  0001d	c7 46 10 00 00
	00 00		 mov	 DWORD PTR [esi+16], 0
  00024	c7 46 0c 00 00
	00 00		 mov	 DWORD PTR [esi+12], 0
  0002b	0f 11 46 14	 movups	 XMMWORD PTR [esi+20], xmm0
  0002f	66 0f d6 46 24	 movq	 QWORD PTR [esi+36], xmm0
  00034	c7 46 2c 00 00
	00 00		 mov	 DWORD PTR [esi+44], 0
  0003b	66 c7 46 30 00
	00		 mov	 WORD PTR [esi+48], 0
  00041	c7 46 34 ff ff
	ff ff		 mov	 DWORD PTR [esi+52], -1
  00048	ff 15 00 00 00
	00		 call	 DWORD PTR __imp__socket@12
  0004e	89 46 04	 mov	 DWORD PTR [esi+4], eax

; 34   : 
; 35   : }

  00051	8b c6		 mov	 eax, esi
  00053	5e		 pop	 esi
  00054	c3		 ret	 0
??0WVSocket@@QAE@XZ ENDP				; WVSocket::WVSocket
_TEXT	ENDS
; Function compile flags: /Ogtp
; File e:\infinia-library-3.0\com\include\comtypes.h
;	COMDAT ?c_memcpy@@YAPAXPAXPBXH@Z
_TEXT	SEGMENT
_de$ = 8						; size = 4
_so$ = 12						; size = 4
_l$ = 16						; size = 4
?c_memcpy@@YAPAXPAXPBXH@Z PROC				; c_memcpy, COMDAT

; 309  : inline void *c_memcpy(void *de, const void *so, int l) { char *d = (char*)de; const char *s = (char*)so; while (l--) *d++ = *s++; return de;}

  00000	55		 push	 ebp
  00001	8b ec		 mov	 ebp, esp
  00003	8b 45 08	 mov	 eax, DWORD PTR _de$[ebp]
  00006	8b d0		 mov	 edx, eax
  00008	56		 push	 esi
  00009	8b 75 10	 mov	 esi, DWORD PTR _l$[ebp]
  0000c	85 f6		 test	 esi, esi
  0000e	74 15		 je	 SHORT $LN6@c_memcpy
  00010	57		 push	 edi
  00011	8b 7d 0c	 mov	 edi, DWORD PTR _so$[ebp]
  00014	2b f8		 sub	 edi, eax
$LL2@c_memcpy:
  00016	8a 0c 17	 mov	 cl, BYTE PTR [edi+edx]
  00019	8d 52 01	 lea	 edx, DWORD PTR [edx+1]
  0001c	88 4a ff	 mov	 BYTE PTR [edx-1], cl
  0001f	83 ee 01	 sub	 esi, 1
  00022	75 f2		 jne	 SHORT $LL2@c_memcpy
  00024	5f		 pop	 edi
$LN6@c_memcpy:
  00025	5e		 pop	 esi
  00026	5d		 pop	 ebp
  00027	c3		 ret	 0
?c_memcpy@@YAPAXPAXPBXH@Z ENDP				; c_memcpy
_TEXT	ENDS
; Function compile flags: /Ogtp
; File c:\program files (x86)\windows kits\10\include\10.0.10240.0\ucrt\stdio.h
;	COMDAT _sprintf
_TEXT	SEGMENT
__Buffer$ = 8						; size = 4
__Format$ = 12						; size = 4
_sprintf PROC						; COMDAT

; 1776 : {

  00000	55		 push	 ebp
  00001	8b ec		 mov	 ebp, esp
  00003	8b 45 08	 mov	 eax, DWORD PTR __Buffer$[ebp]

; 1386 :     int const _Result = __stdio_common_vsprintf(

  00006	8d 4d 10	 lea	 ecx, DWORD PTR __Format$[ebp+4]
  00009	51		 push	 ecx
  0000a	6a 00		 push	 0
  0000c	ff 75 0c	 push	 DWORD PTR __Format$[ebp]
  0000f	6a ff		 push	 -1
  00011	50		 push	 eax
  00012	e8 00 00 00 00	 call	 ___local_stdio_printf_options
  00017	8b 08		 mov	 ecx, DWORD PTR [eax]
  00019	ff 70 04	 push	 DWORD PTR [eax+4]
  0001c	83 c9 01	 or	 ecx, 1
  0001f	51		 push	 ecx
  00020	ff 15 00 00 00
	00		 call	 DWORD PTR __imp____stdio_common_vsprintf

; 1387 :         _CRT_INTERNAL_LOCAL_PRINTF_OPTIONS | _CRT_INTERNAL_PRINTF_LEGACY_VSPRINTF_NULL_TERMINATION,
; 1388 :         _Buffer, _BufferCount, _Format, _Locale, _ArgList);
; 1389 : 
; 1390 :     return _Result < 0 ? -1 : _Result;

  00026	83 c9 ff	 or	 ecx, -1
  00029	83 c4 1c	 add	 esp, 28			; 0000001cH
  0002c	85 c0		 test	 eax, eax
  0002e	0f 48 c1	 cmovs	 eax, ecx

; 1777 :     int _Result;
; 1778 :     va_list _ArgList;
; 1779 :     __crt_va_start(_ArgList, _Format);
; 1780 : 
; 1781 :     #pragma warning(push)
; 1782 :     #pragma warning(disable: 4996) // Deprecation
; 1783 :     _Result = _vsprintf_l(_Buffer, _Format, NULL, _ArgList);
; 1784 :     #pragma warning(pop)
; 1785 : 
; 1786 :     __crt_va_end(_ArgList);
; 1787 :     return _Result;
; 1788 : }

  00031	5d		 pop	 ebp
  00032	c3		 ret	 0
_sprintf ENDP
_TEXT	ENDS
; Function compile flags: /Ogtp
; File c:\program files (x86)\windows kits\10\include\10.0.10240.0\ucrt\stdio.h
;	COMDAT __vsprintf_l
_TEXT	SEGMENT
__Buffer$ = 8						; size = 4
__Format$ = 12						; size = 4
__Locale$ = 16						; size = 4
__ArgList$ = 20						; size = 4
__vsprintf_l PROC					; COMDAT

; 1455 : {

  00000	55		 push	 ebp
  00001	8b ec		 mov	 ebp, esp

; 1386 :     int const _Result = __stdio_common_vsprintf(

  00003	ff 75 14	 push	 DWORD PTR __ArgList$[ebp]
  00006	ff 75 10	 push	 DWORD PTR __Locale$[ebp]
  00009	ff 75 0c	 push	 DWORD PTR __Format$[ebp]
  0000c	6a ff		 push	 -1
  0000e	ff 75 08	 push	 DWORD PTR __Buffer$[ebp]
  00011	e8 00 00 00 00	 call	 ___local_stdio_printf_options
  00016	8b 08		 mov	 ecx, DWORD PTR [eax]
  00018	ff 70 04	 push	 DWORD PTR [eax+4]
  0001b	83 c9 01	 or	 ecx, 1
  0001e	51		 push	 ecx
  0001f	ff 15 00 00 00
	00		 call	 DWORD PTR __imp____stdio_common_vsprintf

; 1387 :         _CRT_INTERNAL_LOCAL_PRINTF_OPTIONS | _CRT_INTERNAL_PRINTF_LEGACY_VSPRINTF_NULL_TERMINATION,
; 1388 :         _Buffer, _BufferCount, _Format, _Locale, _ArgList);
; 1389 : 
; 1390 :     return _Result < 0 ? -1 : _Result;

  00025	83 c9 ff	 or	 ecx, -1
  00028	83 c4 1c	 add	 esp, 28			; 0000001cH
  0002b	85 c0		 test	 eax, eax
  0002d	0f 48 c1	 cmovs	 eax, ecx

; 1456 :     #pragma warning(push)
; 1457 :     #pragma warning(disable: 4996) // Deprecation
; 1458 :     return _vsnprintf_l(_Buffer, (size_t)-1, _Format, _Locale, _ArgList);
; 1459 :     #pragma warning(pop)
; 1460 : }

  00030	5d		 pop	 ebp
  00031	c3		 ret	 0
__vsprintf_l ENDP
_TEXT	ENDS
; Function compile flags: /Ogtp
; File c:\program files (x86)\windows kits\10\include\10.0.10240.0\ucrt\stdio.h
;	COMDAT __vsnprintf_l
_TEXT	SEGMENT
__Buffer$ = 8						; size = 4
__BufferCount$ = 12					; size = 4
__Format$ = 16						; size = 4
__Locale$ = 20						; size = 4
__ArgList$ = 24						; size = 4
__vsnprintf_l PROC					; COMDAT

; 1385 : {

  00000	55		 push	 ebp
  00001	8b ec		 mov	 ebp, esp

; 1386 :     int const _Result = __stdio_common_vsprintf(

  00003	ff 75 18	 push	 DWORD PTR __ArgList$[ebp]
  00006	ff 75 14	 push	 DWORD PTR __Locale$[ebp]
  00009	ff 75 10	 push	 DWORD PTR __Format$[ebp]
  0000c	ff 75 0c	 push	 DWORD PTR __BufferCount$[ebp]
  0000f	ff 75 08	 push	 DWORD PTR __Buffer$[ebp]
  00012	e8 00 00 00 00	 call	 ___local_stdio_printf_options
  00017	8b 08		 mov	 ecx, DWORD PTR [eax]
  00019	ff 70 04	 push	 DWORD PTR [eax+4]
  0001c	83 c9 01	 or	 ecx, 1
  0001f	51		 push	 ecx
  00020	ff 15 00 00 00
	00		 call	 DWORD PTR __imp____stdio_common_vsprintf

; 1387 :         _CRT_INTERNAL_LOCAL_PRINTF_OPTIONS | _CRT_INTERNAL_PRINTF_LEGACY_VSPRINTF_NULL_TERMINATION,
; 1388 :         _Buffer, _BufferCount, _Format, _Locale, _ArgList);
; 1389 : 
; 1390 :     return _Result < 0 ? -1 : _Result;

  00026	83 c9 ff	 or	 ecx, -1
  00029	83 c4 1c	 add	 esp, 28			; 0000001cH
  0002c	85 c0		 test	 eax, eax
  0002e	0f 48 c1	 cmovs	 eax, ecx

; 1391 : }

  00031	5d		 pop	 ebp
  00032	c3		 ret	 0
__vsnprintf_l ENDP
_TEXT	ENDS
; Function compile flags: /Ogtp
; File c:\program files (x86)\microsoft visual studio 14.0\vc\include\vadefs.h
;	COMDAT ??$__vcrt_va_start_verify_argument_type@QBD@@YAXXZ
_TEXT	SEGMENT
??$__vcrt_va_start_verify_argument_type@QBD@@YAXXZ PROC	; __vcrt_va_start_verify_argument_type<char const * const>, COMDAT

; 145  :             static_assert(!__vcrt_va_list_is_reference<_Ty>::__the_value, "va_start argument must not have reference type and must not be parenthesized");
; 146  :         }

  00000	c3		 ret	 0
??$__vcrt_va_start_verify_argument_type@QBD@@YAXXZ ENDP	; __vcrt_va_start_verify_argument_type<char const * const>
_TEXT	ENDS
; Function compile flags: /Ogtp
; File c:\program files (x86)\windows kits\10\include\10.0.10240.0\ucrt\corecrt_stdio_config.h
;	COMDAT ___local_stdio_printf_options
_TEXT	SEGMENT
___local_stdio_printf_options PROC			; COMDAT

; 74   :     static unsigned __int64 _OptionsStorage;
; 75   :     return &_OptionsStorage;

  00000	b8 00 00 00 00	 mov	 eax, OFFSET ?_OptionsStorage@?1??__local_stdio_printf_options@@9@4_KA ; `__local_stdio_printf_options'::`2'::_OptionsStorage

; 76   : }

  00005	c3		 ret	 0
___local_stdio_printf_options ENDP
_TEXT	ENDS
; Function compile flags: /Ogtp
; File c:\program files (x86)\windows kits\10\include\10.0.10240.0\ucrt\time.h
;	COMDAT _time
_TEXT	SEGMENT
__Time$ = 8						; size = 4
_time	PROC						; COMDAT

; 534  :         {

  00000	55		 push	 ebp
  00001	8b ec		 mov	 ebp, esp

; 536  :         }

  00003	5d		 pop	 ebp

; 535  :             return _time64(_Time);

  00004	ff 25 00 00 00
	00		 jmp	 DWORD PTR __imp___time64
_time	ENDP
_TEXT	ENDS
END
