; Listing generated by Microsoft (R) Optimizing Compiler Version 19.00.24215.1 

include listing.inc

INCLUDELIB MSVCRTD
INCLUDELIB OLDNAMES

PUBLIC	?gs_pCore@@3PEAVCCoreList@@EA			; gs_pCore
PUBLIC	?gs_today_time@@3USTTodayTime@@A		; gs_today_time
_BSS	SEGMENT
?gs_pCore@@3PEAVCCoreList@@EA DQ 01H DUP (?)		; gs_pCore
?gs_today_time@@3USTTodayTime@@A DB 01cH DUP (?)	; gs_today_time
_BSS	ENDS
CONST	SEGMENT
$SG46113 DB	'LIST_COUNT', 00H
	ORG $+5
$SG47141 DB	'i[%d] m_nMax[%d]', 00H
	ORG $+3
$SG45352 DB	'%s_%d', 00H
	ORG $+2
$SG45956 DB	'LOG', 00H
$SG46118 DB	'new (std::nothrow) CTList<CScheduler>() is NULL', 00H
$SG46119 DB	'CCoreList::initScheduler', 00H
	ORG $+3
$SG45500 DB	'%s_%d', 00H
	ORG $+6
$SG46121 DB	'm_pSchedulerList->alloc nCnt[%d]', 00H
	ORG $+3
$SG45575 DB	'%s_%d', 00H
	ORG $+6
$SG46122 DB	'CCoreList::initScheduler', 00H
	ORG $+3
$SG45922 DB	'MPOOL', 00H
	ORG $+6
$SG46123 DB	'TIME_POOL_MAX', 00H
	ORG $+2
$SG46126 DB	'has Failed!! m_pIntervalPool.alloc(%d)', 0aH, 00H
$SG47152 DB	'pList calloc is NULL', 00H
	ORG $+3
$SG46129 DB	'[seq:%d] new (std::nothrow) CScheduler() is NULL', 00H
	ORG $+3
$SG45926 DB	'MPOOL', 00H
	ORG $+6
$SG46130 DB	'CCoreList::initScheduler', 00H
	ORG $+3
$SG45928 DB	'MPOOL', 00H
	ORG $+6
$SG46132 DB	'[seq:%d] pScheduler->init', 00H
	ORG $+6
$SG46133 DB	'CCoreList::initScheduler', 00H
	ORG $+3
$SG45930 DB	'MPOOL', 00H
	ORG $+6
$SG46135 DB	'[seq:%d] pScheduler->push_back', 00H
	ORG $+1
$SG46136 DB	'CCoreList::initScheduler', 00H
	ORG $+3
$SG45932 DB	'MPOOL', 00H
	ORG $+6
$SG46165 DB	'LIST_COUNT', 00H
	ORG $+5
$SG46170 DB	'EVENT_POOL_MAX', 00H
	ORG $+1
$SG46173 DB	'has Failed!! m_pEventPool.alloc(%d)', 0aH, 00H
	ORG $+3
$SG46169 DB	'has Failed!! m_pEventThreadList = new CTList<CComQueueTh'
	DB	'read>()', 0aH, 00H
	ORG $+3
$SG45934 DB	'MPOOL', 00H
	ORG $+6
$SG47199 DB	'atomic_nr[%d] is NULL', 00H
	ORG $+2
$SG47204 DB	'm_pChunk is NULL [%d]', 00H
	ORG $+2
$SG46176 DB	'has Failed!! [seq:%d] pEventThread = new (std::nothrow) '
	DB	'CComQueueThread()', 0aH, 00H
	ORG $+5
$SG46178 DB	'has Failed!! [seq:%d] pEventThread->init()', 0aH, 00H
	ORG $+4
$SG46180 DB	'has Failed!! [seq:%d] m_pEventThreadList->setNewObj(pSch'
	DB	'eduler)', 0aH, 00H
	ORG $+3
$SG45936 DB	'MPOOL', 00H
	ORG $+6
$SG46198 DB	'pLogger is NULL! [%s:%s]', 00H
	ORG $+3
$SG45938 DB	'MPOOL', 00H
	ORG $+6
$SG46199 DB	'CCoreList::initLogger', 00H
	ORG $+2
$SG46202 DB	'pLogger->initConfig has Failed!!![%s:%s]', 00H
	ORG $+3
$SG45940 DB	'MPOOL', 00H
	ORG $+6
$SG46203 DB	'CCoreList::initLogger', 00H
	ORG $+2
$SG46206 DB	'pWriter is NULL!!![%s:%s] [nSTLNo:%d]', 00H
	ORG $+2
$SG46207 DB	'CCoreList::initLogger', 00H
	ORG $+2
$SG46214 DB	'CCoreList::initLogger', 00H
	ORG $+2
$SG46216 DB	'pWriter is NULL!!![nSTLNo:%d]', 0aH, 00H
	ORG $+1
$SG46217 DB	'CCoreList::initLogger', 00H
	ORG $+2
$SG46227 DB	'pWriter is NULL! pLogger[nSTLNo:%d]', 00H
	ORG $+4
$SG46228 DB	'CCoreList::setLoggerEnable', 00H
	ORG $+5
$SG46238 DB	'pWriter is NULL! pLogger[nSTLNo:%d]', 00H
	ORG $+4
$SG46239 DB	'CCoreList::setLoggerDisable', 00H
	ORG $+4
$SG47275 DB	'atomic_nr[%d] is NULL', 00H
	ORG $+2
$SG47280 DB	'm_pChunk is NULL [%d]', 00H
	ORG $+2
$SG45246 DB	'CComThread::start', 00H
	ORG $+6
$SG45247 DB	'm_fpLoopProc is NULL', 00H
	ORG $+3
$SG45249 DB	'CComThread::start', 00H
	ORG $+6
$SG45250 DB	'0 > m_stInfo.nIdx', 00H
	ORG $+6
$SG45253 DB	'CComThread::start', 00H
	ORG $+6
$SG45254 DB	'THREAD_CREATE has Failed', 00H
	ORG $+7
$SG46317 DB	'[lastIdx:%d] new CComThread', 00H
	ORG $+4
$SG46318 DB	'CCoreList::addComThread', 00H
$SG46321 DB	'[lastIdx:%d] pComThread->init()', 00H
$SG46322 DB	'CCoreList::addComThread', 00H
$SG46325 DB	'[idx:%d] m_pThreadList->push_back()', 00H
	ORG $+4
$SG46326 DB	'CCoreList::addComThread', 00H
$SG46329 DB	'[idx:%d] pComThread->start()', 00H
	ORG $+3
$SG46330 DB	'CCoreList::addComThread', 00H
$SG46363 DB	'CCoreList::addLogWriter', 00H
$SG46364 DB	'pWriter = new (std::nothrow) CSTLogger()', 00H
	ORG $+7
$SG46366 DB	'[idx:%d] pWriter->push_back(pWriter)', 00H
	ORG $+3
$SG46367 DB	'CCoreList::addLogWriter', 00H
$SG46370 DB	'pWriter->init(nCount:%d, idx:%d)', 00H
	ORG $+7
$SG46371 DB	'CCoreList::addLogWriter', 00H
$SG46374 DB	'[idx:%d] pWriter->start()!', 00H
	ORG $+5
$SG46375 DB	'CCoreList::addLogWriter', 00H
$SG45353 DB	'LIST_COUNT', 00H
	ORG $+5
$SG46401 DB	'CCoreList::addScheduler', 00H
$SG46402 DB	'pScheduler = new (std::nothrow) CScheduler()', 00H
	ORG $+3
$SG46404 DB	'[idx:%d] pScheduler->push_back(pWriter)', 00H
$SG46405 DB	'CCoreList::addScheduler', 00H
$SG46408 DB	'pScheduler->init(nCount:%d, millisecWait:%d, idx:%d)', 00H
	ORG $+3
$SG46409 DB	'CCoreList::addScheduler', 00H
$SG46412 DB	'[idx:%d] pScheduler->start()', 00H
	ORG $+3
$SG46413 DB	'CCoreList::addScheduler', 00H
$SG45390 DB	'CSTLogger::start', 00H
	ORG $+7
$SG45391 DB	'm_cThread.init', 00H
	ORG $+1
$SG45393 DB	'CSTLogger::start', 00H
	ORG $+7
$SG45394 DB	'm_cThread.start', 00H
$SG45395 DB	'CSTLogger::start()', 0aH, 00H
	ORG $+4
$SG46438 DB	'CCoreList::addQueueThread', 00H
	ORG $+6
$SG46439 DB	'FAIL! pEventThread = new (std::nothrow) CComQueueThread('
	DB	')', 00H
	ORG $+6
$SG46441 DB	'[idx:%d] m_pEventThreadList->push_back(pEventThread)', 00H
	ORG $+3
$SG46442 DB	'CCoreList::addQueueThread', 00H
	ORG $+6
$SG45419 DB	'Logger is already Enabled!', 00H
	ORG $+5
$SG46445 DB	'pEventThread->init(nCount:%d, idx:%d)', 00H
	ORG $+2
$SG46446 DB	'CCoreList::addQueueThread', 00H
	ORG $+6
$SG45424 DB	'CSTLogger::procLoggerEnable', 00H
	ORG $+4
$SG46449 DB	'[idx:%d] pEventThread->start()! ', 00H
	ORG $+7
$SG45425 DB	'Logger has not Initialized!', 00H
	ORG $+4
$SG46450 DB	'CCoreList::addQueueThread', 00H
	ORG $+6
$SG45428 DB	'Logger already exist!', 0aH, 00H
	ORG $+1
$SG45430 DB	'm_pLoggerList->push_back failed!', 0aH, 00H
	ORG $+6
$SG45431 DB	'[%s] procLoggerEnable', 0aH, 00H
	ORG $+1
$SG45442 DB	'writeCount[%d] [%s] porcLoggerDisable', 0aH, 00H
	ORG $+1
$SG46470 DB	'm_pThreadList->alloc(%d)', 00H
	ORG $+7
$SG46471 DB	'CCoreList::initComThread', 00H
	ORG $+7
$SG46486 DB	'm_pWriterList->alloc(%d)', 00H
	ORG $+7
$SG46487 DB	'CCoreList::initLogWriter', 00H
	ORG $+7
$SG46505 DB	'm_pSchedulerList->alloc(%d)', 00H
	ORG $+4
$SG46506 DB	'CCoreList::initScheduler', 00H
	ORG $+7
$SG46511 DB	'has Failed!! m_pIntervalPool->alloc(%d)', 0aH, 00H
	ORG $+7
$SG46512 DB	'CCoreList::initScheduler', 00H
	ORG $+7
$SG45501 DB	'LIST_COUNT', 00H
	ORG $+5
$SG45503 DB	'TIME_WAIT', 00H
	ORG $+6
$SG45506 DB	'has Failed!! m_pTimeList->alloc(%d)', 0aH, 00H
	ORG $+3
$SG46536 DB	'm_pEventThreadList->alloc(%d)', 00H
	ORG $+2
$SG46537 DB	'CCoreList::initQueueThread', 00H
	ORG $+5
$SG46542 DB	'has Failed!! m_pEventPool->alloc(%d)', 0aH, 00H
	ORG $+2
$SG46543 DB	'CCoreList::initQueueThread', 00H
	ORG $+5
$SG45528 DB	'has Failed!! m_pTimeList->alloc(%d)', 0aH, 00H
	ORG $+3
$SG45534 DB	'CScheduler::start', 00H
	ORG $+6
$SG45535 DB	'm_cThread.init', 00H
	ORG $+1
$SG45537 DB	'CScheduler::start', 00H
	ORG $+6
$SG45538 DB	'm_cThread.start', 00H
$SG45576 DB	'LIST_COUNT', 00H
	ORG $+5
$SG45578 DB	'has Failed!! m_sLogQueue.alloc(%d)', 0aH, 00H
	ORG $+4
$SG45585 DB	'has Failed!! m_sLogQueue.alloc(%d)', 0aH, 00H
	ORG $+4
$SG45591 DB	'CComQueueThread::start', 00H
	ORG $+1
$SG45592 DB	'm_cThread.init', 00H
	ORG $+1
$SG45594 DB	'CComQueueThread::start', 00H
	ORG $+1
$SG45595 DB	'm_cThread.start', 00H
$SG45618 DB	'CCoreList::CCoreList', 00H
	ORG $+3
$SG45619 DB	'gs_pMMgr alloc has Failed!!!', 00H
	ORG $+3
$SG45621 DB	'CCoreList::CCoreList', 00H
	ORG $+3
$SG45622 DB	'initSystemFile() has Failed!!!', 00H
	ORG $+1
$SG45624 DB	'CCoreList::CCoreList', 00H
	ORG $+3
$SG45625 DB	'start() has Failed!!!', 00H
	ORG $+2
$SG46750 DB	' del FAIL! i[%d] m_nMax[%d]', 00H
	ORG $+4
$SG46761 DB	'pList calloc is NULL', 00H
	ORG $+3
$SG46856 DB	'FULL! m_nMaxCount[%d]', 00H
	ORG $+2
$SG46857 DB	'CMemList<struct STIntervalInfo>::add', 00H
	ORG $+3
$SG46868 DB	'CMemList<struct STIntervalInfo>::del', 00H
	ORG $+3
$SG46869 DB	'can''t find obj', 00H
	ORG $+1
$SG46928 DB	'i[%d] m_nMax[%d]', 00H
	ORG $+7
$SG46939 DB	'pList calloc is NULL', 00H
	ORG $+3
$SG45921 DB	'IDX_BUF_32', 00H
	ORG $+5
$SG45925 DB	'IDX_BUF_2', 00H
	ORG $+6
$SG45927 DB	'IDX_BUF_%d', 00H
	ORG $+5
$SG45929 DB	'IDX_BUF_%d', 00H
	ORG $+5
$SG45931 DB	'IDX_BUF_%dk', 00H
	ORG $+4
$SG45933 DB	'IDX_BUF_%dk', 00H
	ORG $+4
$SG45935 DB	'IDX_BUF_512k', 00H
	ORG $+3
$SG45937 DB	'IDX_BUF_1m', 00H
	ORG $+5
$SG45939 DB	'IDX_BUF_2m', 00H
	ORG $+5
$SG45942 DB	'CCoreList::initSystemFile', 00H
	ORG $+6
$SG45943 DB	'gs_pMMgr->alloc() has Failed!!!', 00H
$SG45945 DB	'COMTHREAD', 00H
	ORG $+6
$SG45947 DB	'LOG_WRITER', 00H
	ORG $+5
$SG45949 DB	'SCHEDULER', 00H
	ORG $+6
$SG45951 DB	'EVENTPROC', 00H
	ORG $+6
$SG45953 DB	'CCoreList::initSystemFile', 00H
	ORG $+6
$SG45954 DB	'gs_DTEManager.initConfig has Failed!!!', 00H
	ORG $+1
$SG45957 DB	'CCoreList::initSystemFile', 00H
	ORG $+6
$SG45958 DB	'initLogger has Failed!!!', 00H
	ORG $+7
$SG46999 DB	'i[%d] m_nMax[%d]', 00H
	ORG $+7
$SG45982 DB	'CCoreList::initDefaultPool', 00H
	ORG $+5
$SG45983 DB	'gs_pMMgr->alloc() has Failed!!!', 00H
$SG47010 DB	'pList calloc is NULL', 00H
	ORG $+3
$SG46017 DB	'LIST_COUNT', 00H
	ORG $+5
$SG46022 DB	'CCoreList::initComThread', 00H
	ORG $+7
$SG46023 DB	'm_pThreadList = new CTList<CComThread>() is NULL', 00H
	ORG $+7
$SG46026 DB	'CCoreList::initComThread', 00H
	ORG $+7
$SG46027 DB	'new (std::nothrow) CComThread() is NULL', 00H
$SG46029 DB	'CCoreList::initComThread', 00H
	ORG $+7
$SG46030 DB	'm_pThreadList->push_back', 00H
	ORG $+7
$SG47070 DB	'i[%d] m_nMax[%d]', 00H
	ORG $+7
$SG47081 DB	'pList calloc is NULL', 00H
	ORG $+3
$SG46059 DB	'LIST_COUNT', 00H
	ORG $+5
$SG46064 DB	'm_pWriterList->alloc nCnt[%d]', 00H
	ORG $+2
$SG46065 DB	'CCoreList::initLogWriter', 00H
	ORG $+7
$SG46068 DB	'[seq:%d] new (std::nothrow) CSTLogger() is NULL', 00H
$SG46069 DB	'CCoreList::initLogWriter', 00H
	ORG $+7
$SG46073 DB	'[seq:%d] pWriter->init', 00H
	ORG $+1
$SG46074 DB	'CCoreList::initLogWriter', 00H
	ORG $+7
$SG46076 DB	'[seq:%d] pWriter->push_back', 00H
	ORG $+4
$SG46077 DB	'CCoreList::initLogWriter', 00H
CONST	ENDS
PUBLIC	__local_stdio_printf_options
PUBLIC	_vfprintf_l
PUBLIC	??$__vcrt_va_start_verify_argument_type@QEBD@@YAXXZ ; __vcrt_va_start_verify_argument_type<char const * __ptr64 const>
PUBLIC	printf
PUBLIC	_vsnprintf_l
PUBLIC	_vsprintf_l
PUBLIC	sprintf
PUBLIC	??1abstract_condition@common@@UEAA@XZ		; common::abstract_condition::~abstract_condition
PUBLIC	??0abstract_condition@common@@QEAA@XZ		; common::abstract_condition::abstract_condition
PUBLIC	??_Gabstract_condition@common@@UEAAPEAXI@Z	; common::abstract_condition::`scalar deleting destructor'
PUBLIC	??0condition@win32@common@@QEAA@XZ		; common::win32::condition::condition
PUBLIC	??1condition@win32@common@@UEAA@XZ		; common::win32::condition::~condition
PUBLIC	?signal@condition@win32@common@@UEAAXXZ		; common::win32::condition::signal
PUBLIC	?signal_all@condition@win32@common@@UEAAXXZ	; common::win32::condition::signal_all
PUBLIC	?wait@condition@win32@common@@QEAA_NHPEAVcritical_section@23@@Z ; common::win32::condition::wait
PUBLIC	??_Gcondition@win32@common@@UEAAPEAXI@Z		; common::win32::condition::`scalar deleting destructor'
PUBLIC	??0win64_atomic@win32@common@@QEAA@XZ		; common::win32::win64_atomic::win64_atomic
PUBLIC	??1win64_atomic@win32@common@@QEAA@XZ		; common::win32::win64_atomic::~win64_atomic
PUBLIC	?getCount@win64_atomic@win32@common@@QEAAHXZ	; common::win32::win64_atomic::getCount
PUBLIC	?setCount@win64_atomic@win32@common@@QEAAXH@Z	; common::win32::win64_atomic::setCount
PUBLIC	?init@win64_atomic@win32@common@@QEAAXXZ	; common::win32::win64_atomic::init
PUBLIC	?atomic_increment@win64_atomic@win32@common@@QEAA_JXZ ; common::win32::win64_atomic::atomic_increment
PUBLIC	?atomic_decrement@win64_atomic@win32@common@@QEAA_JXZ ; common::win32::win64_atomic::atomic_decrement
PUBLIC	?atomic_compare_exchange@win64_atomic@win32@common@@QEAA_J_J0@Z ; common::win32::win64_atomic::atomic_compare_exchange
PUBLIC	??_Ewin64_atomic@win32@common@@QEAAPEAXI@Z	; common::win32::win64_atomic::`vector deleting destructor'
PUBLIC	?ISABLETODELETE@@YA_NW4E_ALLOC_TYPE@@@Z		; ISABLETODELETE
PUBLIC	?ISINCLUDE@@YA_NHH@Z				; ISINCLUDE
PUBLIC	?comGlobalErrorProc@@YAXPEADPEBDH@Z		; comGlobalErrorProc
PUBLIC	?__autoclassinit2@CQueueS@@QEAAX_K@Z		; CQueueS::__autoclassinit2
PUBLIC	??_GCQueueS@@QEAAPEAXI@Z			; CQueueS::`scalar deleting destructor'
PUBLIC	?Year@CDateTime@@QEAAHXZ			; CDateTime::Year
PUBLIC	?Month@CDateTime@@QEAAHXZ			; CDateTime::Month
PUBLIC	?Mday@CDateTime@@QEAAHXZ			; CDateTime::Mday
PUBLIC	?Hour@CDateTime@@QEAAHXZ			; CDateTime::Hour
PUBLIC	?Minute@CDateTime@@QEAAHXZ			; CDateTime::Minute
PUBLIC	?Sec@CDateTime@@QEAAHXZ				; CDateTime::Sec
PUBLIC	?getIndex@@YAHH@Z				; getIndex
PUBLIC	?newBuf@CMemManager@@QEAAPEADH@Z		; CMemManager::newBuf
PUBLIC	?delBuf@CMemManager@@QEAAXPEADH@Z		; CMemManager::delBuf
PUBLIC	?addLogSize@CLogger@@QEAAXH@Z			; CLogger::addLogSize
PUBLIC	?getSTLNo@CLogger@@QEAAHXZ			; CLogger::getSTLNo
PUBLIC	?setLogFlag@CLogger@@QEAAXW4E_LOG_FLAG@@@Z	; CLogger::setLogFlag
PUBLIC	?clearLogFlag@CLogger@@QEAAXW4E_LOG_FLAG@@@Z	; CLogger::clearLogFlag
PUBLIC	?isLogFlag@CLogger@@QEAA_NW4E_LOG_FLAG@@@Z	; CLogger::isLogFlag
PUBLIC	?pop@CLogger@@QEAAPEADXZ			; CLogger::pop
PUBLIC	?getLogName@CLogger@@QEAAPEADXZ			; CLogger::getLogName
PUBLIC	?setCondition@CLogger@@QEAAXPEAVcondition@win32@common@@@Z ; CLogger::setCondition
PUBLIC	??_GCLogger@@QEAAPEAXI@Z			; CLogger::`scalar deleting destructor'
PUBLIC	??_ECLogger@@QEAAPEAXI@Z			; CLogger::`vector deleting destructor'
PUBLIC	??0STThreadInfo@@QEAA@XZ			; STThreadInfo::STThreadInfo
PUBLIC	??1STThreadInfo@@QEAA@XZ			; STThreadInfo::~STThreadInfo
PUBLIC	??0CComThread@@QEAA@XZ				; CComThread::CComThread
PUBLIC	??1CComThread@@QEAA@XZ				; CComThread::~CComThread
PUBLIC	?init@CComThread@@QEAA_NP6AXPEAUSTThreadInfo@@@ZPEAXH2@Z ; CComThread::init
PUBLIC	?start@CComThread@@QEAA_NXZ			; CComThread::start
PUBLIC	?quit@CComThread@@QEAA_NXZ			; CComThread::quit
PUBLIC	?ProcThread@CComThread@@SAKPEAX@Z		; CComThread::ProcThread
PUBLIC	?setIdx@CComThread@@QEAAXH@Z			; CComThread::setIdx
PUBLIC	?bActive@CComThread@@QEAA_NXZ			; CComThread::bActive
PUBLIC	?sendSignal@CComThread@@QEAAXXZ			; CComThread::sendSignal
PUBLIC	??_GCComThread@@QEAAPEAXI@Z			; CComThread::`scalar deleting destructor'
PUBLIC	??_ECComThread@@QEAAPEAXI@Z			; CComThread::`vector deleting destructor'
PUBLIC	?loggerLoop@@YAXPEAUSTThreadInfo@@@Z		; loggerLoop
PUBLIC	??0CSTLogger@@QEAA@XZ				; CSTLogger::CSTLogger
PUBLIC	??1CSTLogger@@QEAA@XZ				; CSTLogger::~CSTLogger
PUBLIC	?initConfig@CSTLogger@@QEAA_NPEADH0@Z		; CSTLogger::initConfig
PUBLIC	?init@CSTLogger@@QEAA_NHH@Z			; CSTLogger::init
PUBLIC	?start@CSTLogger@@QEAA_NXZ			; CSTLogger::start
PUBLIC	?quit@CSTLogger@@QEAA_NXZ			; CSTLogger::quit
PUBLIC	?IsCommand@CSTLogger@@QEAA_NXZ			; CSTLogger::IsCommand
PUBLIC	?GetQueue@CSTLogger@@QEAAXXZ			; CSTLogger::GetQueue
PUBLIC	?TimeProc@CSTLogger@@QEAAXXZ			; CSTLogger::TimeProc
PUBLIC	?procLoggerEnable@CSTLogger@@QEAAXPEAVCLogger@@@Z ; CSTLogger::procLoggerEnable
PUBLIC	?porcLoggerDisable@CSTLogger@@QEAAXPEAVCLogger@@@Z ; CSTLogger::porcLoggerDisable
PUBLIC	?pushCommand@CSTLogger@@QEAA_NPEAUSTLCommand@@@Z ; CSTLogger::pushCommand
PUBLIC	?_init@CSTLogger@@AEAA_NH@Z			; CSTLogger::_init
PUBLIC	??_GCSTLogger@@QEAAPEAXI@Z			; CSTLogger::`scalar deleting destructor'
PUBLIC	??_ECSTLogger@@QEAAPEAXI@Z			; CSTLogger::`vector deleting destructor'
PUBLIC	?schedulerLoop@@YAXPEAUSTThreadInfo@@@Z		; schedulerLoop
PUBLIC	??0CScheduler@@QEAA@XZ				; CScheduler::CScheduler
PUBLIC	??1CScheduler@@QEAA@XZ				; CScheduler::~CScheduler
PUBLIC	?initConfig@CScheduler@@QEAA_NPEADH0@Z		; CScheduler::initConfig
PUBLIC	?init@CScheduler@@QEAA_NHHH@Z			; CScheduler::init
PUBLIC	?start@CScheduler@@QEAA_NXZ			; CScheduler::start
PUBLIC	?quit@CScheduler@@QEAA_NXZ			; CScheduler::quit
PUBLIC	?timeNext@CScheduler@@QEAAPEAUSTIntervalInfo@@PEAH@Z ; CScheduler::timeNext
PUBLIC	?deleteTime@CScheduler@@QEAA_NPEAUSTIntervalInfo@@@Z ; CScheduler::deleteTime
PUBLIC	?addTime@CScheduler@@QEAAHPEAUSTIntervalInfo@@@Z ; CScheduler::addTime
PUBLIC	?getMilliSecHalf@CScheduler@@QEAAHXZ		; CScheduler::getMilliSecHalf
PUBLIC	?setGoal@CScheduler@@QEAAXXZ			; CScheduler::setGoal
PUBLIC	?getGoal@CScheduler@@QEAAIXZ			; CScheduler::getGoal
PUBLIC	??_GCScheduler@@QEAAPEAXI@Z			; CScheduler::`scalar deleting destructor'
PUBLIC	??_ECScheduler@@QEAAPEAXI@Z			; CScheduler::`vector deleting destructor'
PUBLIC	??0?$CMemList@USTIntervalInfo@@@@QEAA@XZ	; CMemList<STIntervalInfo>::CMemList<STIntervalInfo>
PUBLIC	??1?$CMemList@USTIntervalInfo@@@@QEAA@XZ	; CMemList<STIntervalInfo>::~CMemList<STIntervalInfo>
PUBLIC	?alloc@?$CMemList@USTIntervalInfo@@@@QEAAHHW4E_ALLOC_TYPE@@@Z ; CMemList<STIntervalInfo>::alloc
PUBLIC	?getNext@?$CMemList@USTIntervalInfo@@@@QEAAPEAUSTIntervalInfo@@PEAH@Z ; CMemList<STIntervalInfo>::getNext
PUBLIC	?add@?$CMemList@USTIntervalInfo@@@@QEAAHPEAUSTIntervalInfo@@@Z ; CMemList<STIntervalInfo>::add
PUBLIC	?del@?$CMemList@USTIntervalInfo@@@@QEAA_NPEAUSTIntervalInfo@@@Z ; CMemList<STIntervalInfo>::del
PUBLIC	?_del@?$CMemList@USTIntervalInfo@@@@AEAAXH@Z	; CMemList<STIntervalInfo>::_del
PUBLIC	?__autoclassinit2@?$CMemList@USTIntervalInfo@@@@QEAAX_K@Z ; CMemList<STIntervalInfo>::__autoclassinit2
PUBLIC	??_G?$CMemList@USTIntervalInfo@@@@QEAAPEAXI@Z	; CMemList<STIntervalInfo>::`scalar deleting destructor'
PUBLIC	?eventThreadLoop@@YAXPEAUSTThreadInfo@@@Z	; eventThreadLoop
PUBLIC	??0CComQueueThread@@QEAA@XZ			; CComQueueThread::CComQueueThread
PUBLIC	??1CComQueueThread@@QEAA@XZ			; CComQueueThread::~CComQueueThread
PUBLIC	?initConfig@CComQueueThread@@QEAA_NPEADH0@Z	; CComQueueThread::initConfig
PUBLIC	?init@CComQueueThread@@QEAA_NHH@Z		; CComQueueThread::init
PUBLIC	?start@CComQueueThread@@QEAA_NXZ		; CComQueueThread::start
PUBLIC	?quit@CComQueueThread@@QEAA_NXZ			; CComQueueThread::quit
PUBLIC	?putQueue@CComQueueThread@@QEAA_NPEAUSTEvent@@@Z ; CComQueueThread::putQueue
PUBLIC	?getEvent@CComQueueThread@@QEAAPEAUSTEvent@@XZ	; CComQueueThread::getEvent
PUBLIC	??_GCComQueueThread@@QEAAPEAXI@Z		; CComQueueThread::`scalar deleting destructor'
PUBLIC	??_ECComQueueThread@@QEAAPEAXI@Z		; CComQueueThread::`vector deleting destructor'
PUBLIC	??0CCoreList@@QEAA@XZ				; CCoreList::CCoreList
PUBLIC	??1CCoreList@@QEAA@XZ				; CCoreList::~CCoreList
PUBLIC	?initSystemFile@CCoreList@@QEAA_NXZ		; CCoreList::initSystemFile
PUBLIC	?initDefaultPool@CCoreList@@QEAA_NHHH@Z		; CCoreList::initDefaultPool
PUBLIC	?initLogger@CCoreList@@QEAA_NPEAVCLogger@@PEAD1@Z ; CCoreList::initLogger
PUBLIC	?initLogger@CCoreList@@QEAA_NPEAVCLogger@@@Z	; CCoreList::initLogger
PUBLIC	?setLoggerEnable@CCoreList@@QEAA_NPEAVCLogger@@@Z ; CCoreList::setLoggerEnable
PUBLIC	?setLoggerDisable@CCoreList@@QEAA_NPEAVCLogger@@@Z ; CCoreList::setLoggerDisable
PUBLIC	?start@CCoreList@@QEAA_NXZ			; CCoreList::start
PUBLIC	?destroy@CCoreList@@QEAAXXZ			; CCoreList::destroy
PUBLIC	?delEvent@CCoreList@@QEAA_NPEAUSTEvent@@@Z	; CCoreList::delEvent
PUBLIC	?putEvent@CCoreList@@QEAA_NPEAUSTEvent@@@Z	; CCoreList::putEvent
PUBLIC	?putTimer@CCoreList@@QEAA_NPEAUSTIntervalInfo@@@Z ; CCoreList::putTimer
PUBLIC	?addComThread@CCoreList@@QEAAHP6AXPEAUSTThreadInfo@@@ZPEAXH2@Z ; CCoreList::addComThread
PUBLIC	?delComThread@CCoreList@@QEAA_NH@Z		; CCoreList::delComThread
PUBLIC	?addLogWriter@CCoreList@@QEAAHH@Z		; CCoreList::addLogWriter
PUBLIC	?addScheduler@CCoreList@@QEAAHHH@Z		; CCoreList::addScheduler
PUBLIC	?addQueueThread@CCoreList@@QEAAHH@Z		; CCoreList::addQueueThread
PUBLIC	?initComThread@CCoreList@@QEAA_NPEAD0@Z		; CCoreList::initComThread
PUBLIC	?initLogWriter@CCoreList@@QEAA_NPEAD0_N@Z	; CCoreList::initLogWriter
PUBLIC	?initScheduler@CCoreList@@QEAA_NPEAD0@Z		; CCoreList::initScheduler
PUBLIC	?initQueueThread@CCoreList@@QEAA_NPEAD0@Z	; CCoreList::initQueueThread
PUBLIC	?initComThread@CCoreList@@QEAA_NH@Z		; CCoreList::initComThread
PUBLIC	?initLogWriter@CCoreList@@QEAA_NH@Z		; CCoreList::initLogWriter
PUBLIC	?initScheduler@CCoreList@@QEAA_NHH@Z		; CCoreList::initScheduler
PUBLIC	?initQueueThread@CCoreList@@QEAA_NHH@Z		; CCoreList::initQueueThread
PUBLIC	?setListAllocType@CCoreList@@QEAAXW4E_ALLOC_TYPE@@W4E_SYS_LIST_TYPE@@@Z ; CCoreList::setListAllocType
PUBLIC	??0?$CMemPool@USTIntervalInfo@@@@QEAA@XZ	; CMemPool<STIntervalInfo>::CMemPool<STIntervalInfo>
PUBLIC	??1?$CMemPool@USTIntervalInfo@@@@QEAA@XZ	; CMemPool<STIntervalInfo>::~CMemPool<STIntervalInfo>
PUBLIC	?clear@?$CMemPool@USTIntervalInfo@@@@QEAAXXZ	; CMemPool<STIntervalInfo>::clear
PUBLIC	?alloc@?$CMemPool@USTIntervalInfo@@@@QEAAHHW4E_ALLOC_TYPE@@@Z ; CMemPool<STIntervalInfo>::alloc
PUBLIC	?__autoclassinit2@?$CMemPool@USTIntervalInfo@@@@QEAAX_K@Z ; CMemPool<STIntervalInfo>::__autoclassinit2
PUBLIC	??_G?$CMemPool@USTIntervalInfo@@@@QEAAPEAXI@Z	; CMemPool<STIntervalInfo>::`scalar deleting destructor'
PUBLIC	??0?$CMemPool@USTEvent@@@@QEAA@XZ		; CMemPool<STEvent>::CMemPool<STEvent>
PUBLIC	??1?$CMemPool@USTEvent@@@@QEAA@XZ		; CMemPool<STEvent>::~CMemPool<STEvent>
PUBLIC	?clear@?$CMemPool@USTEvent@@@@QEAAXXZ		; CMemPool<STEvent>::clear
PUBLIC	?alloc@?$CMemPool@USTEvent@@@@QEAAHHW4E_ALLOC_TYPE@@@Z ; CMemPool<STEvent>::alloc
PUBLIC	?delMem@?$CMemPool@USTEvent@@@@QEAA_NPEAUSTEvent@@@Z ; CMemPool<STEvent>::delMem
PUBLIC	?__autoclassinit2@?$CMemPool@USTEvent@@@@QEAAX_K@Z ; CMemPool<STEvent>::__autoclassinit2
PUBLIC	??_G?$CMemPool@USTEvent@@@@QEAAPEAXI@Z		; CMemPool<STEvent>::`scalar deleting destructor'
PUBLIC	??0?$CTList@VCLogger@@@@QEAA@XZ			; CTList<CLogger>::CTList<CLogger>
PUBLIC	??1?$CTList@VCLogger@@@@QEAA@XZ			; CTList<CLogger>::~CTList<CLogger>
PUBLIC	?alloc@?$CTList@VCLogger@@@@QEAAHHW4E_ALLOC_TYPE@@@Z ; CTList<CLogger>::alloc
PUBLIC	?push_back@?$CTList@VCLogger@@@@QEAA_NPEAVCLogger@@PEAH@Z ; CTList<CLogger>::push_back
PUBLIC	?IsExist@?$CTList@VCLogger@@@@QEAA_NPEAVCLogger@@@Z ; CTList<CLogger>::IsExist
PUBLIC	?del@?$CTList@VCLogger@@@@QEAA_NPEAVCLogger@@@Z	; CTList<CLogger>::del
PUBLIC	?getNext@?$CTList@VCLogger@@@@QEAAPEAVCLogger@@PEAH@Z ; CTList<CLogger>::getNext
PUBLIC	?__alloc@?$CTList@VCLogger@@@@AEAAHH@Z		; CTList<CLogger>::__alloc
PUBLIC	?_DEL@?$CTList@VCLogger@@@@AEAAXH@Z		; CTList<CLogger>::_DEL
PUBLIC	?__autoclassinit2@?$CTList@VCLogger@@@@QEAAX_K@Z ; CTList<CLogger>::__autoclassinit2
PUBLIC	??_G?$CTList@VCLogger@@@@QEAAPEAXI@Z		; CTList<CLogger>::`scalar deleting destructor'
PUBLIC	??0?$CTList@VCSTLogger@@@@QEAA@XZ		; CTList<CSTLogger>::CTList<CSTLogger>
PUBLIC	??1?$CTList@VCSTLogger@@@@QEAA@XZ		; CTList<CSTLogger>::~CTList<CSTLogger>
PUBLIC	?alloc@?$CTList@VCSTLogger@@@@QEAAHHW4E_ALLOC_TYPE@@@Z ; CTList<CSTLogger>::alloc
PUBLIC	?push_back@?$CTList@VCSTLogger@@@@QEAA_NPEAVCSTLogger@@PEAH@Z ; CTList<CSTLogger>::push_back
PUBLIC	?del@?$CTList@VCSTLogger@@@@QEAA_NH@Z		; CTList<CSTLogger>::del
PUBLIC	?getObj@?$CTList@VCSTLogger@@@@QEAAPEAVCSTLogger@@H@Z ; CTList<CSTLogger>::getObj
PUBLIC	?getNext@?$CTList@VCSTLogger@@@@QEAAPEAVCSTLogger@@PEAH@Z ; CTList<CSTLogger>::getNext
PUBLIC	?size@?$CTList@VCSTLogger@@@@QEAAHXZ		; CTList<CSTLogger>::size
PUBLIC	?setObjAllocType@?$CTList@VCSTLogger@@@@QEAAXW4E_ALLOC_TYPE@@@Z ; CTList<CSTLogger>::setObjAllocType
PUBLIC	?__alloc@?$CTList@VCSTLogger@@@@AEAAHH@Z	; CTList<CSTLogger>::__alloc
PUBLIC	?_DEL@?$CTList@VCSTLogger@@@@AEAAXH@Z		; CTList<CSTLogger>::_DEL
PUBLIC	?__autoclassinit2@?$CTList@VCSTLogger@@@@QEAAX_K@Z ; CTList<CSTLogger>::__autoclassinit2
PUBLIC	??_G?$CTList@VCSTLogger@@@@QEAAPEAXI@Z		; CTList<CSTLogger>::`scalar deleting destructor'
PUBLIC	??0?$CTList@VCScheduler@@@@QEAA@XZ		; CTList<CScheduler>::CTList<CScheduler>
PUBLIC	??1?$CTList@VCScheduler@@@@QEAA@XZ		; CTList<CScheduler>::~CTList<CScheduler>
PUBLIC	?alloc@?$CTList@VCScheduler@@@@QEAAHHW4E_ALLOC_TYPE@@@Z ; CTList<CScheduler>::alloc
PUBLIC	?push_back@?$CTList@VCScheduler@@@@QEAA_NPEAVCScheduler@@PEAH@Z ; CTList<CScheduler>::push_back
PUBLIC	?del@?$CTList@VCScheduler@@@@QEAA_NH@Z		; CTList<CScheduler>::del
PUBLIC	?getObj@?$CTList@VCScheduler@@@@QEAAPEAVCScheduler@@H@Z ; CTList<CScheduler>::getObj
PUBLIC	?getNext@?$CTList@VCScheduler@@@@QEAAPEAVCScheduler@@PEAH@Z ; CTList<CScheduler>::getNext
PUBLIC	?size@?$CTList@VCScheduler@@@@QEAAHXZ		; CTList<CScheduler>::size
PUBLIC	?setObjAllocType@?$CTList@VCScheduler@@@@QEAAXW4E_ALLOC_TYPE@@@Z ; CTList<CScheduler>::setObjAllocType
PUBLIC	?__alloc@?$CTList@VCScheduler@@@@AEAAHH@Z	; CTList<CScheduler>::__alloc
PUBLIC	?_DEL@?$CTList@VCScheduler@@@@AEAAXH@Z		; CTList<CScheduler>::_DEL
PUBLIC	?__autoclassinit2@?$CTList@VCScheduler@@@@QEAAX_K@Z ; CTList<CScheduler>::__autoclassinit2
PUBLIC	??_G?$CTList@VCScheduler@@@@QEAAPEAXI@Z		; CTList<CScheduler>::`scalar deleting destructor'
PUBLIC	??0?$CTList@VCComThread@@@@QEAA@XZ		; CTList<CComThread>::CTList<CComThread>
PUBLIC	??1?$CTList@VCComThread@@@@QEAA@XZ		; CTList<CComThread>::~CTList<CComThread>
PUBLIC	?alloc@?$CTList@VCComThread@@@@QEAAHHW4E_ALLOC_TYPE@@@Z ; CTList<CComThread>::alloc
PUBLIC	?push_back@?$CTList@VCComThread@@@@QEAA_NPEAVCComThread@@PEAH@Z ; CTList<CComThread>::push_back
PUBLIC	?del@?$CTList@VCComThread@@@@QEAA_NH@Z		; CTList<CComThread>::del
PUBLIC	?getObj@?$CTList@VCComThread@@@@QEAAPEAVCComThread@@H@Z ; CTList<CComThread>::getObj
PUBLIC	?getNext@?$CTList@VCComThread@@@@QEAAPEAVCComThread@@PEAH@Z ; CTList<CComThread>::getNext
PUBLIC	?size@?$CTList@VCComThread@@@@QEAAHXZ		; CTList<CComThread>::size
PUBLIC	?lastIdx@?$CTList@VCComThread@@@@QEAAHXZ	; CTList<CComThread>::lastIdx
PUBLIC	?setObjAllocType@?$CTList@VCComThread@@@@QEAAXW4E_ALLOC_TYPE@@@Z ; CTList<CComThread>::setObjAllocType
PUBLIC	?__alloc@?$CTList@VCComThread@@@@AEAAHH@Z	; CTList<CComThread>::__alloc
PUBLIC	?_DEL@?$CTList@VCComThread@@@@AEAAXH@Z		; CTList<CComThread>::_DEL
PUBLIC	?__autoclassinit2@?$CTList@VCComThread@@@@QEAAX_K@Z ; CTList<CComThread>::__autoclassinit2
PUBLIC	??_G?$CTList@VCComThread@@@@QEAAPEAXI@Z		; CTList<CComThread>::`scalar deleting destructor'
PUBLIC	??0?$CTList@VCComQueueThread@@@@QEAA@XZ		; CTList<CComQueueThread>::CTList<CComQueueThread>
PUBLIC	??1?$CTList@VCComQueueThread@@@@QEAA@XZ		; CTList<CComQueueThread>::~CTList<CComQueueThread>
PUBLIC	?alloc@?$CTList@VCComQueueThread@@@@QEAAHHW4E_ALLOC_TYPE@@@Z ; CTList<CComQueueThread>::alloc
PUBLIC	?push_back@?$CTList@VCComQueueThread@@@@QEAA_NPEAVCComQueueThread@@PEAH@Z ; CTList<CComQueueThread>::push_back
PUBLIC	?del@?$CTList@VCComQueueThread@@@@QEAA_NH@Z	; CTList<CComQueueThread>::del
PUBLIC	?getObj@?$CTList@VCComQueueThread@@@@QEAAPEAVCComQueueThread@@H@Z ; CTList<CComQueueThread>::getObj
PUBLIC	?getNext@?$CTList@VCComQueueThread@@@@QEAAPEAVCComQueueThread@@PEAH@Z ; CTList<CComQueueThread>::getNext
PUBLIC	?size@?$CTList@VCComQueueThread@@@@QEAAHXZ	; CTList<CComQueueThread>::size
PUBLIC	?setObjAllocType@?$CTList@VCComQueueThread@@@@QEAAXW4E_ALLOC_TYPE@@@Z ; CTList<CComQueueThread>::setObjAllocType
PUBLIC	?__alloc@?$CTList@VCComQueueThread@@@@AEAAHH@Z	; CTList<CComQueueThread>::__alloc
PUBLIC	?_DEL@?$CTList@VCComQueueThread@@@@AEAAXH@Z	; CTList<CComQueueThread>::_DEL
PUBLIC	?__autoclassinit2@?$CTList@VCComQueueThread@@@@QEAAX_K@Z ; CTList<CComQueueThread>::__autoclassinit2
PUBLIC	??_G?$CTList@VCComQueueThread@@@@QEAAPEAXI@Z	; CTList<CComQueueThread>::`scalar deleting destructor'
PUBLIC	?_OptionsStorage@?1??__local_stdio_printf_options@@9@4_KA ; `__local_stdio_printf_options'::`2'::_OptionsStorage
PUBLIC	??_7abstract_condition@common@@6B@		; common::abstract_condition::`vftable'
PUBLIC	??_7condition@win32@common@@6B@			; common::win32::condition::`vftable'
PUBLIC	??_C@_0BD@KEHDJCKJ@ERROR?$CB?5?$FL?$CFs?3?$CFd?$FN?5?$CFs?6?$AA@ ; `string'
PUBLIC	??_R4abstract_condition@common@@6B@		; common::abstract_condition::`RTTI Complete Object Locator'
PUBLIC	??_R0?AVabstract_condition@common@@@8		; common::abstract_condition `RTTI Type Descriptor'
PUBLIC	??_R3abstract_condition@common@@8		; common::abstract_condition::`RTTI Class Hierarchy Descriptor'
PUBLIC	??_R2abstract_condition@common@@8		; common::abstract_condition::`RTTI Base Class Array'
PUBLIC	??_R1A@?0A@EA@abstract_condition@common@@8	; common::abstract_condition::`RTTI Base Class Descriptor at (0,-1,0,64)'
PUBLIC	??_R4condition@win32@common@@6B@		; common::win32::condition::`RTTI Complete Object Locator'
PUBLIC	??_R0?AVcondition@win32@common@@@8		; common::win32::condition `RTTI Type Descriptor'
PUBLIC	??_R3condition@win32@common@@8			; common::win32::condition::`RTTI Class Hierarchy Descriptor'
PUBLIC	??_R2condition@win32@common@@8			; common::win32::condition::`RTTI Base Class Array'
PUBLIC	??_R1A@?0A@EA@condition@win32@common@@8		; common::win32::condition::`RTTI Base Class Descriptor at (0,-1,0,64)'
EXTRN	??_L@YAXPEAX_K1P6AX0@Z2@Z:PROC			; `eh vector constructor iterator'
EXTRN	??_M@YAXPEAX_K1P6AX0@Z@Z:PROC			; `eh vector destructor iterator'
EXTRN	_purecall:PROC
EXTRN	??2@YAPEAX_K@Z:PROC				; operator new
EXTRN	??3@YAXPEAX_K@Z:PROC				; operator delete
EXTRN	??_V@YAXPEAX@Z:PROC				; operator delete[]
EXTRN	??_V@YAXPEAX_K@Z:PROC				; operator delete[]
EXTRN	memcpy:PROC
EXTRN	memset:PROC
EXTRN	strlen:PROC
EXTRN	?initSystem@CEnv@@SAHPEAD@Z:PROC		; CEnv::initSystem
EXTRN	__imp___acrt_iob_func:PROC
EXTRN	__imp___stdio_common_vfprintf:PROC
EXTRN	__imp___stdio_common_vsprintf:PROC
EXTRN	__imp_calloc:PROC
EXTRN	__imp_free:PROC
EXTRN	__imp_exit:PROC
EXTRN	__imp_abort:PROC
EXTRN	__imp_atoi:PROC
EXTRN	??2@YAPEAX_KAEBUnothrow_t@std@@@Z:PROC		; operator new
EXTRN	??_U@YAPEAX_KAEBUnothrow_t@std@@@Z:PROC		; operator new[]
EXTRN	??3@YAXPEAXAEBUnothrow_t@std@@@Z:PROC		; operator delete
EXTRN	??_V@YAXPEAXAEBUnothrow_t@std@@@Z:PROC		; operator delete[]
EXTRN	__imp_CreateThread:PROC
EXTRN	__imp_SetEvent:PROC
EXTRN	__imp_ResetEvent:PROC
EXTRN	__imp_WaitForSingleObject:PROC
EXTRN	__imp_CloseHandle:PROC
EXTRN	__imp_GetTickCount:PROC
EXTRN	__imp_CreateEventA:PROC
EXTRN	__imp_GetPrivateProfileIntA:PROC
EXTRN	??_Eabstract_condition@common@@UEAAPEAXI@Z:PROC	; common::abstract_condition::`vector deleting destructor'
EXTRN	??_Econdition@win32@common@@UEAAPEAXI@Z:PROC	; common::win32::condition::`vector deleting destructor'
EXTRN	??0CQueueS@@QEAA@XZ:PROC			; CQueueS::CQueueS
EXTRN	??1CQueueS@@QEAA@XZ:PROC			; CQueueS::~CQueueS
EXTRN	?alloc@CQueueS@@QEAA_NHW4E_ALLOC_TYPE@@@Z:PROC	; CQueueS::alloc
EXTRN	?push@CQueueS@@QEAA_NPEAX@Z:PROC		; CQueueS::push
EXTRN	?pop@CQueueS@@QEAAPEAXXZ:PROC			; CQueueS::pop
EXTRN	??0CDateTime@@QEAA@W4DT_TYPE@@W4TZ_TYPE@@@Z:PROC ; CDateTime::CDateTime
EXTRN	??1CDateTime@@QEAA@XZ:PROC			; CDateTime::~CDateTime
EXTRN	?DateString@CDateTime@@QEAAPEBDD@Z:PROC		; CDateTime::DateString
EXTRN	??0CMemManager@@QEAA@XZ:PROC			; CMemManager::CMemManager
EXTRN	?init@CMemManager@@QEAAXPEAUSTBufConf@@@Z:PROC	; CMemManager::init
EXTRN	?alloc@CMemManager@@QEAA_NXZ:PROC		; CMemManager::alloc
EXTRN	?delBufByIndex@CMemManager@@QEAAXPEADH@Z:PROC	; CMemManager::delBufByIndex
EXTRN	?__newBuf@CMemManager@@AEAAPEADH_K@Z:PROC	; CMemManager::__newBuf
EXTRN	?initConfig@CTimeExpManager@@QEAA_NPEAD@Z:PROC	; CTimeExpManager::initConfig
EXTRN	??1CLogger@@QEAA@XZ:PROC			; CLogger::~CLogger
EXTRN	?initConfig@CLogger@@QEAA?AW4E_LOG_INIT_RES@@PEAD0@Z:PROC ; CLogger::initConfig
EXTRN	?OpenLogger@CLogger@@QEAAXXZ:PROC		; CLogger::OpenLogger
EXTRN	?LogPrint@CLogger@@QEAAXPEAD@Z:PROC		; CLogger::LogPrint
EXTRN	?disable@CLogger@@QEAAXXZ:PROC			; CLogger::disable
EXTRN	?checkChangeProc@CLogger@@QEAAXH@Z:PROC		; CLogger::checkChangeProc
EXTRN	_RTC_CheckStackVars:PROC
EXTRN	_RTC_InitBase:PROC
EXTRN	_RTC_Shutdown:PROC
EXTRN	__CxxFrameHandler3:PROC
EXTRN	__GSHandlerCheck:PROC
EXTRN	__GSHandlerCheck_EH:PROC
EXTRN	__security_check_cookie:PROC
EXTRN	?nothrow@std@@3Unothrow_t@1@B:BYTE		; std::nothrow
EXTRN	?g_pSystem@@3PEADEA:QWORD			; g_pSystem
EXTRN	?g_szSystemError@@3PADA:BYTE			; g_szSystemError
EXTRN	?g_szMessage@@3PADA:BYTE			; g_szMessage
EXTRN	?gs_pMMgr@@3PEAVCMemManager@@EA:QWORD		; gs_pMMgr
EXTRN	?gs_cLogger@@3VCLogger@@A:BYTE			; gs_cLogger
EXTRN	?gs_DTEManager@@3VCTimeExpManager@@A:QWORD	; gs_DTEManager
EXTRN	??_7type_info@@6B@:BYTE				; type_info::`vftable'
EXTRN	__security_cookie:QWORD
EXTRN	_fltused:DWORD
;	COMDAT ?_OptionsStorage@?1??__local_stdio_printf_options@@9@4_KA
_BSS	SEGMENT
?_OptionsStorage@?1??__local_stdio_printf_options@@9@4_KA DQ 01H DUP (?) ; `__local_stdio_printf_options'::`2'::_OptionsStorage
_BSS	ENDS
;	COMDAT pdata
pdata	SEGMENT
$pdata$__local_stdio_printf_options DD imagerel $LN3
	DD	imagerel $LN3+11
	DD	imagerel $unwind$__local_stdio_printf_options
pdata	ENDS
;	COMDAT pdata
pdata	SEGMENT
$pdata$_vfprintf_l DD imagerel $LN3
	DD	imagerel $LN3+90
	DD	imagerel $unwind$_vfprintf_l
pdata	ENDS
;	COMDAT pdata
pdata	SEGMENT
$pdata$??$__vcrt_va_start_verify_argument_type@QEBD@@YAXXZ DD imagerel $LN3
	DD	imagerel $LN3+4
	DD	imagerel $unwind$??$__vcrt_va_start_verify_argument_type@QEBD@@YAXXZ
pdata	ENDS
;	COMDAT pdata
pdata	SEGMENT
$pdata$printf DD imagerel $LN3
	DD	imagerel $LN3+162
	DD	imagerel $unwind$printf
pdata	ENDS
;	COMDAT pdata
pdata	SEGMENT
$pdata$_vsnprintf_l DD imagerel $LN5
	DD	imagerel $LN5+140
	DD	imagerel $unwind$_vsnprintf_l
pdata	ENDS
;	COMDAT pdata
pdata	SEGMENT
$pdata$_vsprintf_l DD imagerel $LN3
	DD	imagerel $LN3+88
	DD	imagerel $unwind$_vsprintf_l
pdata	ENDS
;	COMDAT pdata
pdata	SEGMENT
$pdata$sprintf DD imagerel $LN3
	DD	imagerel $LN3+156
	DD	imagerel $unwind$sprintf
pdata	ENDS
;	COMDAT pdata
pdata	SEGMENT
$pdata$??1abstract_condition@common@@UEAA@XZ DD imagerel $LN3
	DD	imagerel $LN3+23
	DD	imagerel $unwind$??1abstract_condition@common@@UEAA@XZ
pdata	ENDS
;	COMDAT pdata
pdata	SEGMENT
$pdata$??0abstract_condition@common@@QEAA@XZ DD imagerel $LN3
	DD	imagerel $LN3+28
	DD	imagerel $unwind$??0abstract_condition@common@@QEAA@XZ
pdata	ENDS
;	COMDAT pdata
pdata	SEGMENT
$pdata$??_Gabstract_condition@common@@UEAAPEAXI@Z DD imagerel $LN4
	DD	imagerel $LN4+81
	DD	imagerel $unwind$??_Gabstract_condition@common@@UEAAPEAXI@Z
pdata	ENDS
;	COMDAT pdata
pdata	SEGMENT
$pdata$??0condition@win32@common@@QEAA@XZ DD imagerel $LN4
	DD	imagerel $LN4+94
	DD	imagerel $unwind$??0condition@win32@common@@QEAA@XZ
pdata	ENDS
;	COMDAT pdata
pdata	SEGMENT
$pdata$??1condition@win32@common@@UEAA@XZ DD imagerel $LN3
	DD	imagerel $LN3+76
	DD	imagerel $unwind$??1condition@win32@common@@UEAA@XZ
pdata	ENDS
;	COMDAT pdata
pdata	SEGMENT
$pdata$?signal@condition@win32@common@@UEAAXXZ DD imagerel $LN3
	DD	imagerel $LN3+51
	DD	imagerel $unwind$?signal@condition@win32@common@@UEAAXXZ
pdata	ENDS
;	COMDAT pdata
pdata	SEGMENT
$pdata$?signal_all@condition@win32@common@@UEAAXXZ DD imagerel $LN3
	DD	imagerel $LN3+42
	DD	imagerel $unwind$?signal_all@condition@win32@common@@UEAAXXZ
pdata	ENDS
;	COMDAT pdata
pdata	SEGMENT
$pdata$?wait@condition@win32@common@@QEAA_NHPEAVcritical_section@23@@Z DD imagerel $LN9
	DD	imagerel $LN9+198
	DD	imagerel $unwind$?wait@condition@win32@common@@QEAA_NHPEAVcritical_section@23@@Z
pdata	ENDS
;	COMDAT pdata
pdata	SEGMENT
$pdata$??_Gcondition@win32@common@@UEAAPEAXI@Z DD imagerel $LN4
	DD	imagerel $LN4+81
	DD	imagerel $unwind$??_Gcondition@win32@common@@UEAAPEAXI@Z
pdata	ENDS
;	COMDAT pdata
pdata	SEGMENT
$pdata$??0win64_atomic@win32@common@@QEAA@XZ DD imagerel $LN3
	DD	imagerel $LN3+25
	DD	imagerel $unwind$??0win64_atomic@win32@common@@QEAA@XZ
pdata	ENDS
;	COMDAT pdata
pdata	SEGMENT
$pdata$??1win64_atomic@win32@common@@QEAA@XZ DD imagerel $LN3
	DD	imagerel $LN3+8
	DD	imagerel $unwind$??1win64_atomic@win32@common@@QEAA@XZ
pdata	ENDS
;	COMDAT pdata
pdata	SEGMENT
$pdata$?getCount@win64_atomic@win32@common@@QEAAHXZ DD imagerel $LN3
	DD	imagerel $LN3+16
	DD	imagerel $unwind$?getCount@win64_atomic@win32@common@@QEAAHXZ
pdata	ENDS
;	COMDAT pdata
pdata	SEGMENT
$pdata$?setCount@win64_atomic@win32@common@@QEAAXH@Z DD imagerel $LN3
	DD	imagerel $LN3+25
	DD	imagerel $unwind$?setCount@win64_atomic@win32@common@@QEAAXH@Z
pdata	ENDS
;	COMDAT pdata
pdata	SEGMENT
$pdata$?init@win64_atomic@win32@common@@QEAAXXZ DD imagerel $LN3
	DD	imagerel $LN3+20
	DD	imagerel $unwind$?init@win64_atomic@win32@common@@QEAAXXZ
pdata	ENDS
;	COMDAT pdata
pdata	SEGMENT
$pdata$?atomic_increment@win64_atomic@win32@common@@QEAA_JXZ DD imagerel $LN3
	DD	imagerel $LN3+29
	DD	imagerel $unwind$?atomic_increment@win64_atomic@win32@common@@QEAA_JXZ
pdata	ENDS
;	COMDAT pdata
pdata	SEGMENT
$pdata$?atomic_decrement@win64_atomic@win32@common@@QEAA_JXZ DD imagerel $LN3
	DD	imagerel $LN3+31
	DD	imagerel $unwind$?atomic_decrement@win64_atomic@win32@common@@QEAA_JXZ
pdata	ENDS
;	COMDAT pdata
pdata	SEGMENT
$pdata$?atomic_compare_exchange@win64_atomic@win32@common@@QEAA_J_J0@Z DD imagerel $LN3
	DD	imagerel $LN3+78
	DD	imagerel $unwind$?atomic_compare_exchange@win64_atomic@win32@common@@QEAA_J_J0@Z
pdata	ENDS
;	COMDAT pdata
pdata	SEGMENT
$pdata$??_Ewin64_atomic@win32@common@@QEAAPEAXI@Z DD imagerel $LN6
	DD	imagerel $LN6+192
	DD	imagerel $unwind$??_Ewin64_atomic@win32@common@@QEAAPEAXI@Z
pdata	ENDS
;	COMDAT pdata
pdata	SEGMENT
$pdata$?ISABLETODELETE@@YA_NW4E_ALLOC_TYPE@@@Z DD imagerel $LN4
	DD	imagerel $LN4+20
	DD	imagerel $unwind$?ISABLETODELETE@@YA_NW4E_ALLOC_TYPE@@@Z
pdata	ENDS
;	COMDAT pdata
pdata	SEGMENT
$pdata$?ISINCLUDE@@YA_NHH@Z DD imagerel $LN4
	DD	imagerel $LN4+34
	DD	imagerel $unwind$?ISINCLUDE@@YA_NHH@Z
pdata	ENDS
;	COMDAT pdata
pdata	SEGMENT
$pdata$?comGlobalErrorProc@@YAXPEADPEBDH@Z DD imagerel $LN3
	DD	imagerel $LN3+97
	DD	imagerel $unwind$?comGlobalErrorProc@@YAXPEADPEBDH@Z
pdata	ENDS
;	COMDAT pdata
pdata	SEGMENT
$pdata$?__autoclassinit2@CQueueS@@QEAAX_K@Z DD imagerel $LN3
	DD	imagerel $LN3+27
	DD	imagerel $unwind$?__autoclassinit2@CQueueS@@QEAAX_K@Z
pdata	ENDS
;	COMDAT pdata
pdata	SEGMENT
$pdata$??_GCQueueS@@QEAAPEAXI@Z DD imagerel $LN4
	DD	imagerel $LN4+81
	DD	imagerel $unwind$??_GCQueueS@@QEAAPEAXI@Z
pdata	ENDS
;	COMDAT pdata
pdata	SEGMENT
$pdata$?Year@CDateTime@@QEAAHXZ DD imagerel $LN3
	DD	imagerel $LN3+16
	DD	imagerel $unwind$?Year@CDateTime@@QEAAHXZ
pdata	ENDS
;	COMDAT pdata
pdata	SEGMENT
$pdata$?Month@CDateTime@@QEAAHXZ DD imagerel $LN3
	DD	imagerel $LN3+16
	DD	imagerel $unwind$?Month@CDateTime@@QEAAHXZ
pdata	ENDS
;	COMDAT pdata
pdata	SEGMENT
$pdata$?Mday@CDateTime@@QEAAHXZ DD imagerel $LN3
	DD	imagerel $LN3+16
	DD	imagerel $unwind$?Mday@CDateTime@@QEAAHXZ
pdata	ENDS
;	COMDAT pdata
pdata	SEGMENT
$pdata$?Hour@CDateTime@@QEAAHXZ DD imagerel $LN3
	DD	imagerel $LN3+16
	DD	imagerel $unwind$?Hour@CDateTime@@QEAAHXZ
pdata	ENDS
;	COMDAT pdata
pdata	SEGMENT
$pdata$?Minute@CDateTime@@QEAAHXZ DD imagerel $LN3
	DD	imagerel $LN3+16
	DD	imagerel $unwind$?Minute@CDateTime@@QEAAHXZ
pdata	ENDS
;	COMDAT pdata
pdata	SEGMENT
$pdata$?Sec@CDateTime@@QEAAHXZ DD imagerel $LN3
	DD	imagerel $LN3+15
	DD	imagerel $unwind$?Sec@CDateTime@@QEAAHXZ
pdata	ENDS
;	COMDAT pdata
pdata	SEGMENT
$pdata$?getIndex@@YAHH@Z DD imagerel $LN5
	DD	imagerel $LN5+162
	DD	imagerel $unwind$?getIndex@@YAHH@Z
pdata	ENDS
;	COMDAT pdata
pdata	SEGMENT
$pdata$?newBuf@CMemManager@@QEAAPEADH@Z DD imagerel $LN3
	DD	imagerel $LN3+75
	DD	imagerel $unwind$?newBuf@CMemManager@@QEAAPEADH@Z
pdata	ENDS
;	COMDAT pdata
pdata	SEGMENT
$pdata$?delBuf@CMemManager@@QEAAXPEADH@Z DD imagerel $LN3
	DD	imagerel $LN3+79
	DD	imagerel $unwind$?delBuf@CMemManager@@QEAAXPEADH@Z
pdata	ENDS
;	COMDAT pdata
pdata	SEGMENT
$pdata$?addLogSize@CLogger@@QEAAXH@Z DD imagerel $LN3
	DD	imagerel $LN3+38
	DD	imagerel $unwind$?addLogSize@CLogger@@QEAAXH@Z
pdata	ENDS
;	COMDAT pdata
pdata	SEGMENT
$pdata$?getSTLNo@CLogger@@QEAAHXZ DD imagerel $LN3
	DD	imagerel $LN3+19
	DD	imagerel $unwind$?getSTLNo@CLogger@@QEAAHXZ
pdata	ENDS
;	COMDAT pdata
pdata	SEGMENT
$pdata$?setLogFlag@CLogger@@QEAAXW4E_LOG_FLAG@@@Z DD imagerel $LN3
	DD	imagerel $LN3+40
	DD	imagerel $unwind$?setLogFlag@CLogger@@QEAAXW4E_LOG_FLAG@@@Z
pdata	ENDS
;	COMDAT pdata
pdata	SEGMENT
$pdata$?clearLogFlag@CLogger@@QEAAXW4E_LOG_FLAG@@@Z DD imagerel $LN3
	DD	imagerel $LN3+44
	DD	imagerel $unwind$?clearLogFlag@CLogger@@QEAAXW4E_LOG_FLAG@@@Z
pdata	ENDS
;	COMDAT pdata
pdata	SEGMENT
$pdata$?isLogFlag@CLogger@@QEAA_NW4E_LOG_FLAG@@@Z DD imagerel $LN5
	DD	imagerel $LN5+75
	DD	imagerel $unwind$?isLogFlag@CLogger@@QEAA_NW4E_LOG_FLAG@@@Z
pdata	ENDS
;	COMDAT pdata
pdata	SEGMENT
$pdata$?pop@CLogger@@QEAAPEADXZ DD imagerel $LN3
	DD	imagerel $LN3+49
	DD	imagerel $unwind$?pop@CLogger@@QEAAPEADXZ
pdata	ENDS
;	COMDAT pdata
pdata	SEGMENT
$pdata$?getLogName@CLogger@@QEAAPEADXZ DD imagerel $LN3
	DD	imagerel $LN3+20
	DD	imagerel $unwind$?getLogName@CLogger@@QEAAPEADXZ
pdata	ENDS
;	COMDAT pdata
pdata	SEGMENT
$pdata$?setCondition@CLogger@@QEAAXPEAVcondition@win32@common@@@Z DD imagerel $LN3
	DD	imagerel $LN3+27
	DD	imagerel $unwind$?setCondition@CLogger@@QEAAXPEAVcondition@win32@common@@@Z
pdata	ENDS
;	COMDAT pdata
pdata	SEGMENT
$pdata$??_GCLogger@@QEAAPEAXI@Z DD imagerel $LN4
	DD	imagerel $LN4+81
	DD	imagerel $unwind$??_GCLogger@@QEAAPEAXI@Z
pdata	ENDS
;	COMDAT pdata
pdata	SEGMENT
$pdata$??_ECLogger@@QEAAPEAXI@Z DD imagerel $LN6
	DD	imagerel $LN6+192
	DD	imagerel $unwind$??_ECLogger@@QEAAPEAXI@Z
pdata	ENDS
;	COMDAT pdata
pdata	SEGMENT
$pdata$??0STThreadInfo@@QEAA@XZ DD imagerel $LN4
	DD	imagerel $LN4+58
	DD	imagerel $unwind$??0STThreadInfo@@QEAA@XZ
pdata	ENDS
;	COMDAT pdata
pdata	SEGMENT
$pdata$??1STThreadInfo@@QEAA@XZ DD imagerel $LN3
	DD	imagerel $LN3+53
	DD	imagerel $unwind$??1STThreadInfo@@QEAA@XZ
pdata	ENDS
pdata	SEGMENT
$pdata$??0CComThread@@QEAA@XZ DD imagerel $LN4
	DD	imagerel $LN4+154
	DD	imagerel $unwind$??0CComThread@@QEAA@XZ
$pdata$??1CComThread@@QEAA@XZ DD imagerel $LN3
	DD	imagerel $LN3+74
	DD	imagerel $unwind$??1CComThread@@QEAA@XZ
$pdata$?init@CComThread@@QEAA_NP6AXPEAUSTThreadInfo@@@ZPEAXH2@Z DD imagerel $LN3
	DD	imagerel $LN3+90
	DD	imagerel $unwind$?init@CComThread@@QEAA_NP6AXPEAUSTThreadInfo@@@ZPEAXH2@Z
$pdata$?start@CComThread@@QEAA_NXZ DD imagerel $LN7
	DD	imagerel $LN7+242
	DD	imagerel $unwind$?start@CComThread@@QEAA_NXZ
$pdata$?quit@CComThread@@QEAA_NXZ DD imagerel $LN4
	DD	imagerel $LN4+86
	DD	imagerel $unwind$?quit@CComThread@@QEAA_NXZ
$pdata$?ProcThread@CComThread@@SAKPEAX@Z DD imagerel $LN5
	DD	imagerel $LN5+127
	DD	imagerel $unwind$?ProcThread@CComThread@@SAKPEAX@Z
pdata	ENDS
;	COMDAT pdata
pdata	SEGMENT
$pdata$?setIdx@CComThread@@QEAAXH@Z DD imagerel $LN3
	DD	imagerel $LN3+24
	DD	imagerel $unwind$?setIdx@CComThread@@QEAAXH@Z
pdata	ENDS
;	COMDAT pdata
pdata	SEGMENT
$pdata$?bActive@CComThread@@QEAA_NXZ DD imagerel $LN3
	DD	imagerel $LN3+17
	DD	imagerel $unwind$?bActive@CComThread@@QEAA_NXZ
pdata	ENDS
;	COMDAT pdata
pdata	SEGMENT
$pdata$?sendSignal@CComThread@@QEAAXXZ DD imagerel $LN3
	DD	imagerel $LN3+70
	DD	imagerel $unwind$?sendSignal@CComThread@@QEAAXXZ
pdata	ENDS
;	COMDAT pdata
pdata	SEGMENT
$pdata$??_GCComThread@@QEAAPEAXI@Z DD imagerel $LN4
	DD	imagerel $LN4+81
	DD	imagerel $unwind$??_GCComThread@@QEAAPEAXI@Z
pdata	ENDS
;	COMDAT pdata
pdata	SEGMENT
$pdata$??_ECComThread@@QEAAPEAXI@Z DD imagerel $LN6
	DD	imagerel $LN6+189
	DD	imagerel $unwind$??_ECComThread@@QEAAPEAXI@Z
pdata	ENDS
pdata	SEGMENT
$pdata$?loggerLoop@@YAXPEAUSTThreadInfo@@@Z DD imagerel $LN4
	DD	imagerel $LN4+89
	DD	imagerel $unwind$?loggerLoop@@YAXPEAUSTThreadInfo@@@Z
$pdata$??0CSTLogger@@QEAA@XZ DD imagerel $LN4
	DD	imagerel $LN4+80
	DD	imagerel $unwind$??0CSTLogger@@QEAA@XZ
$pdata$??1CSTLogger@@QEAA@XZ DD imagerel $LN9
	DD	imagerel $LN9+248
	DD	imagerel $unwind$??1CSTLogger@@QEAA@XZ
$pdata$?initConfig@CSTLogger@@QEAA_NPEADH0@Z DD imagerel $LN5
	DD	imagerel $LN5+201
	DD	imagerel $unwind$?initConfig@CSTLogger@@QEAA_NPEADH0@Z
$pdata$?init@CSTLogger@@QEAA_NHH@Z DD imagerel $LN5
	DD	imagerel $LN5+100
	DD	imagerel $unwind$?init@CSTLogger@@QEAA_NHH@Z
$pdata$?start@CSTLogger@@QEAA_NXZ DD imagerel $LN6
	DD	imagerel $LN6+202
	DD	imagerel $unwind$?start@CSTLogger@@QEAA_NXZ
$pdata$?quit@CSTLogger@@QEAA_NXZ DD imagerel $LN6
	DD	imagerel $LN6+139
	DD	imagerel $unwind$?quit@CSTLogger@@QEAA_NXZ
$pdata$?IsCommand@CSTLogger@@QEAA_NXZ DD imagerel $LN8
	DD	imagerel $LN8+186
	DD	imagerel $unwind$?IsCommand@CSTLogger@@QEAA_NXZ
$pdata$?GetQueue@CSTLogger@@QEAAXXZ DD imagerel $LN7
	DD	imagerel $LN7+269
	DD	imagerel $unwind$?GetQueue@CSTLogger@@QEAAXXZ
$pdata$?TimeProc@CSTLogger@@QEAAXXZ DD imagerel $LN10
	DD	imagerel $LN10+510
	DD	imagerel $unwind$?TimeProc@CSTLogger@@QEAAXXZ
pdata	ENDS
pdata	SEGMENT
$pdata$?dtor$0@?0??TimeProc@CSTLogger@@QEAAXXZ@4HA DD imagerel ?dtor$0@?0??TimeProc@CSTLogger@@QEAAXXZ@4HA
	DD	imagerel ?dtor$0@?0??TimeProc@CSTLogger@@QEAAXXZ@4HA+35
	DD	imagerel $unwind$?dtor$0@?0??TimeProc@CSTLogger@@QEAAXXZ@4HA
pdata	ENDS
pdata	SEGMENT
$pdata$?procLoggerEnable@CSTLogger@@QEAAXPEAVCLogger@@@Z DD imagerel $LN12
	DD	imagerel $LN12+317
	DD	imagerel $unwind$?procLoggerEnable@CSTLogger@@QEAAXPEAVCLogger@@@Z
$pdata$?porcLoggerDisable@CSTLogger@@QEAAXPEAVCLogger@@@Z DD imagerel $LN5
	DD	imagerel $LN5+239
	DD	imagerel $unwind$?porcLoggerDisable@CSTLogger@@QEAAXPEAVCLogger@@@Z
pdata	ENDS
;	COMDAT pdata
pdata	SEGMENT
$pdata$?pushCommand@CSTLogger@@QEAA_NPEAUSTLCommand@@@Z DD imagerel $LN4
	DD	imagerel $LN4+86
	DD	imagerel $unwind$?pushCommand@CSTLogger@@QEAA_NPEAUSTLCommand@@@Z
pdata	ENDS
pdata	SEGMENT
$pdata$?_init@CSTLogger@@AEAA_NH@Z DD imagerel $LN11
	DD	imagerel $LN11+289
	DD	imagerel $unwind$?_init@CSTLogger@@AEAA_NH@Z
pdata	ENDS
pdata	SEGMENT
$pdata$?dtor$0@?0??_init@CSTLogger@@AEAA_NH@Z@4HA DD imagerel ?dtor$0@?0??_init@CSTLogger@@AEAA_NH@Z@4HA
	DD	imagerel ?dtor$0@?0??_init@CSTLogger@@AEAA_NH@Z@4HA+40
	DD	imagerel $unwind$?dtor$0@?0??_init@CSTLogger@@AEAA_NH@Z@4HA
$pdata$?dtor$1@?0??_init@CSTLogger@@AEAA_NH@Z@4HA DD imagerel ?dtor$1@?0??_init@CSTLogger@@AEAA_NH@Z@4HA
	DD	imagerel ?dtor$1@?0??_init@CSTLogger@@AEAA_NH@Z@4HA+40
	DD	imagerel $unwind$?dtor$1@?0??_init@CSTLogger@@AEAA_NH@Z@4HA
pdata	ENDS
;	COMDAT pdata
pdata	SEGMENT
$pdata$??_GCSTLogger@@QEAAPEAXI@Z DD imagerel $LN4
	DD	imagerel $LN4+81
	DD	imagerel $unwind$??_GCSTLogger@@QEAAPEAXI@Z
pdata	ENDS
;	COMDAT pdata
pdata	SEGMENT
$pdata$??_ECSTLogger@@QEAAPEAXI@Z DD imagerel $LN6
	DD	imagerel $LN6+189
	DD	imagerel $unwind$??_ECSTLogger@@QEAAPEAXI@Z
pdata	ENDS
pdata	SEGMENT
$pdata$?schedulerLoop@@YAXPEAUSTThreadInfo@@@Z DD imagerel $LN8
	DD	imagerel $LN8+294
	DD	imagerel $unwind$?schedulerLoop@@YAXPEAUSTThreadInfo@@@Z
$pdata$??0CScheduler@@QEAA@XZ DD imagerel $LN4
	DD	imagerel $LN4+91
	DD	imagerel $unwind$??0CScheduler@@QEAA@XZ
$pdata$??1CScheduler@@QEAA@XZ DD imagerel $LN3
	DD	imagerel $LN3+70
	DD	imagerel $unwind$??1CScheduler@@QEAA@XZ
$pdata$?initConfig@CScheduler@@QEAA_NPEADH0@Z DD imagerel $LN10
	DD	imagerel $LN10+515
	DD	imagerel $unwind$?initConfig@CScheduler@@QEAA_NPEADH0@Z
pdata	ENDS
pdata	SEGMENT
$pdata$?dtor$0@?0??initConfig@CScheduler@@QEAA_NPEADH0@Z@4HA DD imagerel ?dtor$0@?0??initConfig@CScheduler@@QEAA_NPEADH0@Z@4HA
	DD	imagerel ?dtor$0@?0??initConfig@CScheduler@@QEAA_NPEADH0@Z@4HA+40
	DD	imagerel $unwind$?dtor$0@?0??initConfig@CScheduler@@QEAA_NPEADH0@Z@4HA
pdata	ENDS
pdata	SEGMENT
$pdata$?init@CScheduler@@QEAA_NHHH@Z DD imagerel $LN9
	DD	imagerel $LN9+335
	DD	imagerel $unwind$?init@CScheduler@@QEAA_NHHH@Z
pdata	ENDS
pdata	SEGMENT
$pdata$?dtor$0@?0??init@CScheduler@@QEAA_NHHH@Z@4HA DD imagerel ?dtor$0@?0??init@CScheduler@@QEAA_NHHH@Z@4HA
	DD	imagerel ?dtor$0@?0??init@CScheduler@@QEAA_NHHH@Z@4HA+40
	DD	imagerel $unwind$?dtor$0@?0??init@CScheduler@@QEAA_NHHH@Z@4HA
pdata	ENDS
pdata	SEGMENT
$pdata$?start@CScheduler@@QEAA_NXZ DD imagerel $LN6
	DD	imagerel $LN6+193
	DD	imagerel $unwind$?start@CScheduler@@QEAA_NXZ
$pdata$?quit@CScheduler@@QEAA_NXZ DD imagerel $LN6
	DD	imagerel $LN6+139
	DD	imagerel $unwind$?quit@CScheduler@@QEAA_NXZ
pdata	ENDS
;	COMDAT pdata
pdata	SEGMENT
$pdata$?timeNext@CScheduler@@QEAAPEAUSTIntervalInfo@@PEAH@Z DD imagerel $LN3
	DD	imagerel $LN3+60
	DD	imagerel $unwind$?timeNext@CScheduler@@QEAAPEAUSTIntervalInfo@@PEAH@Z
pdata	ENDS
;	COMDAT pdata
pdata	SEGMENT
$pdata$?deleteTime@CScheduler@@QEAA_NPEAUSTIntervalInfo@@@Z DD imagerel $LN3
	DD	imagerel $LN3+60
	DD	imagerel $unwind$?deleteTime@CScheduler@@QEAA_NPEAUSTIntervalInfo@@@Z
pdata	ENDS
;	COMDAT pdata
pdata	SEGMENT
$pdata$?addTime@CScheduler@@QEAAHPEAUSTIntervalInfo@@@Z DD imagerel $LN3
	DD	imagerel $LN3+60
	DD	imagerel $unwind$?addTime@CScheduler@@QEAAHPEAUSTIntervalInfo@@@Z
pdata	ENDS
;	COMDAT pdata
pdata	SEGMENT
$pdata$?getMilliSecHalf@CScheduler@@QEAAHXZ DD imagerel $LN3
	DD	imagerel $LN3+16
	DD	imagerel $unwind$?getMilliSecHalf@CScheduler@@QEAAHXZ
pdata	ENDS
;	COMDAT pdata
pdata	SEGMENT
$pdata$?setGoal@CScheduler@@QEAAXXZ DD imagerel $LN3
	DD	imagerel $LN3+32
	DD	imagerel $unwind$?setGoal@CScheduler@@QEAAXXZ
pdata	ENDS
;	COMDAT pdata
pdata	SEGMENT
$pdata$?getGoal@CScheduler@@QEAAIXZ DD imagerel $LN3
	DD	imagerel $LN3+16
	DD	imagerel $unwind$?getGoal@CScheduler@@QEAAIXZ
pdata	ENDS
;	COMDAT pdata
pdata	SEGMENT
$pdata$??_GCScheduler@@QEAAPEAXI@Z DD imagerel $LN4
	DD	imagerel $LN4+81
	DD	imagerel $unwind$??_GCScheduler@@QEAAPEAXI@Z
pdata	ENDS
;	COMDAT pdata
pdata	SEGMENT
$pdata$??_ECScheduler@@QEAAPEAXI@Z DD imagerel $LN6
	DD	imagerel $LN6+189
	DD	imagerel $unwind$??_ECScheduler@@QEAAPEAXI@Z
pdata	ENDS
;	COMDAT pdata
pdata	SEGMENT
$pdata$??0?$CMemList@USTIntervalInfo@@@@QEAA@XZ DD imagerel $LN4
	DD	imagerel $LN4+123
	DD	imagerel $unwind$??0?$CMemList@USTIntervalInfo@@@@QEAA@XZ
pdata	ENDS
;	COMDAT pdata
pdata	SEGMENT
$pdata$?dtor$0@?0???0?$CMemList@USTIntervalInfo@@@@QEAA@XZ@4HA DD imagerel ?dtor$0@?0???0?$CMemList@USTIntervalInfo@@@@QEAA@XZ@4HA
	DD	imagerel ?dtor$0@?0???0?$CMemList@USTIntervalInfo@@@@QEAA@XZ@4HA+39
	DD	imagerel $unwind$?dtor$0@?0???0?$CMemList@USTIntervalInfo@@@@QEAA@XZ@4HA
pdata	ENDS
;	COMDAT pdata
pdata	SEGMENT
$pdata$??1?$CMemList@USTIntervalInfo@@@@QEAA@XZ DD imagerel $LN23
	DD	imagerel $LN23+637
	DD	imagerel $unwind$??1?$CMemList@USTIntervalInfo@@@@QEAA@XZ
pdata	ENDS
;	COMDAT pdata
pdata	SEGMENT
$pdata$?alloc@?$CMemList@USTIntervalInfo@@@@QEAAHHW4E_ALLOC_TYPE@@@Z DD imagerel $LN11
	DD	imagerel $LN11+430
	DD	imagerel $unwind$?alloc@?$CMemList@USTIntervalInfo@@@@QEAAHHW4E_ALLOC_TYPE@@@Z
pdata	ENDS
;	COMDAT pdata
pdata	SEGMENT
$pdata$?dtor$0@?0??alloc@?$CMemList@USTIntervalInfo@@@@QEAAHHW4E_ALLOC_TYPE@@@Z@4HA DD imagerel ?dtor$0@?0??alloc@?$CMemList@USTIntervalInfo@@@@QEAAHHW4E_ALLOC_TYPE@@@Z@4HA
	DD	imagerel ?dtor$0@?0??alloc@?$CMemList@USTIntervalInfo@@@@QEAAHHW4E_ALLOC_TYPE@@@Z@4HA+42
	DD	imagerel $unwind$?dtor$0@?0??alloc@?$CMemList@USTIntervalInfo@@@@QEAAHHW4E_ALLOC_TYPE@@@Z@4HA
pdata	ENDS
;	COMDAT pdata
pdata	SEGMENT
$pdata$?getNext@?$CMemList@USTIntervalInfo@@@@QEAAPEAUSTIntervalInfo@@PEAH@Z DD imagerel $LN10
	DD	imagerel $LN10+234
	DD	imagerel $unwind$?getNext@?$CMemList@USTIntervalInfo@@@@QEAAPEAUSTIntervalInfo@@PEAH@Z
pdata	ENDS
;	COMDAT pdata
pdata	SEGMENT
$pdata$?add@?$CMemList@USTIntervalInfo@@@@QEAAHPEAUSTIntervalInfo@@@Z DD imagerel $LN16
	DD	imagerel $LN16+496
	DD	imagerel $unwind$?add@?$CMemList@USTIntervalInfo@@@@QEAAHPEAUSTIntervalInfo@@@Z
pdata	ENDS
;	COMDAT pdata
pdata	SEGMENT
$pdata$?del@?$CMemList@USTIntervalInfo@@@@QEAA_NPEAUSTIntervalInfo@@@Z DD imagerel $LN7
	DD	imagerel $LN7+146
	DD	imagerel $unwind$?del@?$CMemList@USTIntervalInfo@@@@QEAA_NPEAUSTIntervalInfo@@@Z
pdata	ENDS
;	COMDAT pdata
pdata	SEGMENT
$pdata$?_del@?$CMemList@USTIntervalInfo@@@@AEAAXH@Z DD imagerel $LN6
	DD	imagerel $LN6+136
	DD	imagerel $unwind$?_del@?$CMemList@USTIntervalInfo@@@@AEAAXH@Z
pdata	ENDS
;	COMDAT pdata
pdata	SEGMENT
$pdata$?__autoclassinit2@?$CMemList@USTIntervalInfo@@@@QEAAX_K@Z DD imagerel $LN3
	DD	imagerel $LN3+27
	DD	imagerel $unwind$?__autoclassinit2@?$CMemList@USTIntervalInfo@@@@QEAAX_K@Z
pdata	ENDS
;	COMDAT pdata
pdata	SEGMENT
$pdata$??_G?$CMemList@USTIntervalInfo@@@@QEAAPEAXI@Z DD imagerel $LN4
	DD	imagerel $LN4+81
	DD	imagerel $unwind$??_G?$CMemList@USTIntervalInfo@@@@QEAAPEAXI@Z
pdata	ENDS
pdata	SEGMENT
$pdata$?eventThreadLoop@@YAXPEAUSTThreadInfo@@@Z DD imagerel $LN5
	DD	imagerel $LN5+142
	DD	imagerel $unwind$?eventThreadLoop@@YAXPEAUSTThreadInfo@@@Z
$pdata$??0CComQueueThread@@QEAA@XZ DD imagerel $LN5
	DD	imagerel $LN5+82
	DD	imagerel $unwind$??0CComQueueThread@@QEAA@XZ
pdata	ENDS
pdata	SEGMENT
$pdata$?dtor$0@?0???0CComQueueThread@@QEAA@XZ@4HA DD imagerel ?dtor$0@?0???0CComQueueThread@@QEAA@XZ@4HA
	DD	imagerel ?dtor$0@?0???0CComQueueThread@@QEAA@XZ@4HA+35
	DD	imagerel $unwind$?dtor$0@?0???0CComQueueThread@@QEAA@XZ@4HA
pdata	ENDS
pdata	SEGMENT
$pdata$??1CComQueueThread@@QEAA@XZ DD imagerel $LN3
	DD	imagerel $LN3+88
	DD	imagerel $unwind$??1CComQueueThread@@QEAA@XZ
$pdata$?initConfig@CComQueueThread@@QEAA_NPEADH0@Z DD imagerel $LN4
	DD	imagerel $LN4+222
	DD	imagerel $unwind$?initConfig@CComQueueThread@@QEAA_NPEADH0@Z
$pdata$?init@CComQueueThread@@QEAA_NHH@Z DD imagerel $LN4
	DD	imagerel $LN4+115
	DD	imagerel $unwind$?init@CComQueueThread@@QEAA_NHH@Z
$pdata$?start@CComQueueThread@@QEAA_NXZ DD imagerel $LN6
	DD	imagerel $LN6+187
	DD	imagerel $unwind$?start@CComQueueThread@@QEAA_NXZ
$pdata$?quit@CComQueueThread@@QEAA_NXZ DD imagerel $LN3
	DD	imagerel $LN3+51
	DD	imagerel $unwind$?quit@CComQueueThread@@QEAA_NXZ
pdata	ENDS
;	COMDAT pdata
pdata	SEGMENT
$pdata$?putQueue@CComQueueThread@@QEAA_NPEAUSTEvent@@@Z DD imagerel $LN4
	DD	imagerel $LN4+102
	DD	imagerel $unwind$?putQueue@CComQueueThread@@QEAA_NPEAUSTEvent@@@Z
pdata	ENDS
;	COMDAT pdata
pdata	SEGMENT
$pdata$?getEvent@CComQueueThread@@QEAAPEAUSTEvent@@XZ DD imagerel $LN3
	DD	imagerel $LN3+53
	DD	imagerel $unwind$?getEvent@CComQueueThread@@QEAAPEAUSTEvent@@XZ
pdata	ENDS
;	COMDAT pdata
pdata	SEGMENT
$pdata$??_GCComQueueThread@@QEAAPEAXI@Z DD imagerel $LN4
	DD	imagerel $LN4+81
	DD	imagerel $unwind$??_GCComQueueThread@@QEAAPEAXI@Z
pdata	ENDS
;	COMDAT pdata
pdata	SEGMENT
$pdata$??_ECComQueueThread@@QEAAPEAXI@Z DD imagerel $LN6
	DD	imagerel $LN6+192
	DD	imagerel $unwind$??_ECComQueueThread@@QEAAPEAXI@Z
pdata	ENDS
pdata	SEGMENT
$pdata$??0CCoreList@@QEAA@XZ DD imagerel $LN10
	DD	imagerel $LN10+348
	DD	imagerel $unwind$??0CCoreList@@QEAA@XZ
pdata	ENDS
pdata	SEGMENT
$pdata$?dtor$0@?0???0CCoreList@@QEAA@XZ@4HA DD imagerel ?dtor$0@?0???0CCoreList@@QEAA@XZ@4HA
	DD	imagerel ?dtor$0@?0???0CCoreList@@QEAA@XZ@4HA+42
	DD	imagerel $unwind$?dtor$0@?0???0CCoreList@@QEAA@XZ@4HA
pdata	ENDS
pdata	SEGMENT
$pdata$??1CCoreList@@QEAA@XZ DD imagerel $LN3
	DD	imagerel $LN3+56
	DD	imagerel $unwind$??1CCoreList@@QEAA@XZ
$pdata$?initSystemFile@CCoreList@@QEAA_NXZ DD imagerel $LN25
	DD	imagerel $LN25+1268
	DD	imagerel $unwind$?initSystemFile@CCoreList@@QEAA_NXZ
$pdata$?initDefaultPool@CCoreList@@QEAA_NHHH@Z DD imagerel $LN16
	DD	imagerel $LN16+503
	DD	imagerel $unwind$?initDefaultPool@CCoreList@@QEAA_NHHH@Z
$pdata$?initLogger@CCoreList@@QEAA_NPEAVCLogger@@PEAD1@Z DD imagerel $LN10
	DD	imagerel $LN10+377
	DD	imagerel $unwind$?initLogger@CCoreList@@QEAA_NPEAVCLogger@@PEAD1@Z
$pdata$?initLogger@CCoreList@@QEAA_NPEAVCLogger@@@Z DD imagerel $LN5
	DD	imagerel $LN5+194
	DD	imagerel $unwind$?initLogger@CCoreList@@QEAA_NPEAVCLogger@@@Z
$pdata$?setLoggerEnable@CCoreList@@QEAA_NPEAVCLogger@@@Z DD imagerel $LN4
	DD	imagerel $LN4+219
	DD	imagerel $unwind$?setLoggerEnable@CCoreList@@QEAA_NPEAVCLogger@@@Z
$pdata$?setLoggerDisable@CCoreList@@QEAA_NPEAVCLogger@@@Z DD imagerel $LN4
	DD	imagerel $LN4+219
	DD	imagerel $unwind$?setLoggerDisable@CCoreList@@QEAA_NPEAVCLogger@@@Z
$pdata$?start@CCoreList@@QEAA_NXZ DD imagerel $LN32
	DD	imagerel $LN32+795
	DD	imagerel $unwind$?start@CCoreList@@QEAA_NXZ
pdata	ENDS
pdata	SEGMENT
$pdata$?dtor$0@?0??start@CCoreList@@QEAA_NXZ@4HA DD imagerel ?dtor$0@?0??start@CCoreList@@QEAA_NXZ@4HA
	DD	imagerel ?dtor$0@?0??start@CCoreList@@QEAA_NXZ@4HA+35
	DD	imagerel $unwind$?dtor$0@?0??start@CCoreList@@QEAA_NXZ@4HA
pdata	ENDS
pdata	SEGMENT
$pdata$?destroy@CCoreList@@QEAAXXZ DD imagerel $LN21
	DD	imagerel $LN21+660
	DD	imagerel $unwind$?destroy@CCoreList@@QEAAXXZ
pdata	ENDS
;	COMDAT pdata
pdata	SEGMENT
$pdata$?delEvent@CCoreList@@QEAA_NPEAUSTEvent@@@Z DD imagerel $LN3
	DD	imagerel $LN3+60
	DD	imagerel $unwind$?delEvent@CCoreList@@QEAA_NPEAUSTEvent@@@Z
pdata	ENDS
pdata	SEGMENT
$pdata$?putEvent@CCoreList@@QEAA_NPEAUSTEvent@@@Z DD imagerel $LN5
	DD	imagerel $LN5+107
	DD	imagerel $unwind$?putEvent@CCoreList@@QEAA_NPEAUSTEvent@@@Z
$pdata$?putTimer@CCoreList@@QEAA_NPEAUSTIntervalInfo@@@Z DD imagerel $LN5
	DD	imagerel $LN5+104
	DD	imagerel $unwind$?putTimer@CCoreList@@QEAA_NPEAUSTIntervalInfo@@@Z
$pdata$?addComThread@CCoreList@@QEAAHP6AXPEAUSTThreadInfo@@@ZPEAXH2@Z DD imagerel $LN18
	DD	imagerel $LN18+726
	DD	imagerel $unwind$?addComThread@CCoreList@@QEAAHP6AXPEAUSTThreadInfo@@@ZPEAXH2@Z
pdata	ENDS
pdata	SEGMENT
$pdata$?dtor$0@?0??addComThread@CCoreList@@QEAAHP6AXPEAUSTThreadInfo@@@ZPEAXH2@Z@4HA DD imagerel ?dtor$0@?0??addComThread@CCoreList@@QEAAHP6AXPEAUSTThreadInfo@@@ZPEAXH2@Z@4HA
	DD	imagerel ?dtor$0@?0??addComThread@CCoreList@@QEAAHP6AXPEAUSTThreadInfo@@@ZPEAXH2@Z@4HA+42
	DD	imagerel $unwind$?dtor$0@?0??addComThread@CCoreList@@QEAAHP6AXPEAUSTThreadInfo@@@ZPEAXH2@Z@4HA
pdata	ENDS
pdata	SEGMENT
$pdata$?delComThread@CCoreList@@QEAA_NH@Z DD imagerel $LN6
	DD	imagerel $LN6+154
	DD	imagerel $unwind$?delComThread@CCoreList@@QEAA_NH@Z
$pdata$?addLogWriter@CCoreList@@QEAAHH@Z DD imagerel $LN17
	DD	imagerel $LN17+634
	DD	imagerel $unwind$?addLogWriter@CCoreList@@QEAAHH@Z
pdata	ENDS
pdata	SEGMENT
$pdata$?dtor$0@?0??addLogWriter@CCoreList@@QEAAHH@Z@4HA DD imagerel ?dtor$0@?0??addLogWriter@CCoreList@@QEAAHH@Z@4HA
	DD	imagerel ?dtor$0@?0??addLogWriter@CCoreList@@QEAAHH@Z@4HA+42
	DD	imagerel $unwind$?dtor$0@?0??addLogWriter@CCoreList@@QEAAHH@Z@4HA
pdata	ENDS
pdata	SEGMENT
$pdata$?addScheduler@CCoreList@@QEAAHHH@Z DD imagerel $LN17
	DD	imagerel $LN17+680
	DD	imagerel $unwind$?addScheduler@CCoreList@@QEAAHHH@Z
pdata	ENDS
pdata	SEGMENT
$pdata$?dtor$0@?0??addScheduler@CCoreList@@QEAAHHH@Z@4HA DD imagerel ?dtor$0@?0??addScheduler@CCoreList@@QEAAHHH@Z@4HA
	DD	imagerel ?dtor$0@?0??addScheduler@CCoreList@@QEAAHHH@Z@4HA+42
	DD	imagerel $unwind$?dtor$0@?0??addScheduler@CCoreList@@QEAAHHH@Z@4HA
pdata	ENDS
pdata	SEGMENT
$pdata$?addQueueThread@CCoreList@@QEAAHH@Z DD imagerel $LN17
	DD	imagerel $LN17+641
	DD	imagerel $unwind$?addQueueThread@CCoreList@@QEAAHH@Z
pdata	ENDS
pdata	SEGMENT
$pdata$?dtor$0@?0??addQueueThread@CCoreList@@QEAAHH@Z@4HA DD imagerel ?dtor$0@?0??addQueueThread@CCoreList@@QEAAHH@Z@4HA
	DD	imagerel ?dtor$0@?0??addQueueThread@CCoreList@@QEAAHH@Z@4HA+42
	DD	imagerel $unwind$?dtor$0@?0??addQueueThread@CCoreList@@QEAAHH@Z@4HA
pdata	ENDS
pdata	SEGMENT
$pdata$?initComThread@CCoreList@@QEAA_NPEAD0@Z DD imagerel $LN17
	DD	imagerel $LN17+590
	DD	imagerel $unwind$?initComThread@CCoreList@@QEAA_NPEAD0@Z
pdata	ENDS
pdata	SEGMENT
$pdata$?dtor$0@?0??initComThread@CCoreList@@QEAA_NPEAD0@Z@4HA DD imagerel ?dtor$0@?0??initComThread@CCoreList@@QEAA_NPEAD0@Z@4HA
	DD	imagerel ?dtor$0@?0??initComThread@CCoreList@@QEAA_NPEAD0@Z@4HA+40
	DD	imagerel $unwind$?dtor$0@?0??initComThread@CCoreList@@QEAA_NPEAD0@Z@4HA
$pdata$?dtor$1@?0??initComThread@CCoreList@@QEAA_NPEAD0@Z@4HA DD imagerel ?dtor$1@?0??initComThread@CCoreList@@QEAA_NPEAD0@Z@4HA
	DD	imagerel ?dtor$1@?0??initComThread@CCoreList@@QEAA_NPEAD0@Z@4HA+42
	DD	imagerel $unwind$?dtor$1@?0??initComThread@CCoreList@@QEAA_NPEAD0@Z@4HA
pdata	ENDS
pdata	SEGMENT
$pdata$?initLogWriter@CCoreList@@QEAA_NPEAD0_N@Z DD imagerel $LN20
	DD	imagerel $LN20+837
	DD	imagerel $unwind$?initLogWriter@CCoreList@@QEAA_NPEAD0_N@Z
pdata	ENDS
pdata	SEGMENT
$pdata$?dtor$0@?0??initLogWriter@CCoreList@@QEAA_NPEAD0_N@Z@4HA DD imagerel ?dtor$0@?0??initLogWriter@CCoreList@@QEAA_NPEAD0_N@Z@4HA
	DD	imagerel ?dtor$0@?0??initLogWriter@CCoreList@@QEAA_NPEAD0_N@Z@4HA+43
	DD	imagerel $unwind$?dtor$0@?0??initLogWriter@CCoreList@@QEAA_NPEAD0_N@Z@4HA
$pdata$?dtor$1@?0??initLogWriter@CCoreList@@QEAA_NPEAD0_N@Z@4HA DD imagerel ?dtor$1@?0??initLogWriter@CCoreList@@QEAA_NPEAD0_N@Z@4HA
	DD	imagerel ?dtor$1@?0??initLogWriter@CCoreList@@QEAA_NPEAD0_N@Z@4HA+45
	DD	imagerel $unwind$?dtor$1@?0??initLogWriter@CCoreList@@QEAA_NPEAD0_N@Z@4HA
pdata	ENDS
pdata	SEGMENT
$pdata$?initScheduler@CCoreList@@QEAA_NPEAD0@Z DD imagerel $LN23
	DD	imagerel $LN23+1035
	DD	imagerel $unwind$?initScheduler@CCoreList@@QEAA_NPEAD0@Z
pdata	ENDS
pdata	SEGMENT
$pdata$?dtor$0@?0??initScheduler@CCoreList@@QEAA_NPEAD0@Z@4HA DD imagerel ?dtor$0@?0??initScheduler@CCoreList@@QEAA_NPEAD0@Z@4HA
	DD	imagerel ?dtor$0@?0??initScheduler@CCoreList@@QEAA_NPEAD0@Z@4HA+45
	DD	imagerel $unwind$?dtor$0@?0??initScheduler@CCoreList@@QEAA_NPEAD0@Z@4HA
$pdata$?dtor$1@?0??initScheduler@CCoreList@@QEAA_NPEAD0@Z@4HA DD imagerel ?dtor$1@?0??initScheduler@CCoreList@@QEAA_NPEAD0@Z@4HA
	DD	imagerel ?dtor$1@?0??initScheduler@CCoreList@@QEAA_NPEAD0@Z@4HA+45
	DD	imagerel $unwind$?dtor$1@?0??initScheduler@CCoreList@@QEAA_NPEAD0@Z@4HA
$pdata$?dtor$2@?0??initScheduler@CCoreList@@QEAA_NPEAD0@Z@4HA DD imagerel ?dtor$2@?0??initScheduler@CCoreList@@QEAA_NPEAD0@Z@4HA
	DD	imagerel ?dtor$2@?0??initScheduler@CCoreList@@QEAA_NPEAD0@Z@4HA+45
	DD	imagerel $unwind$?dtor$2@?0??initScheduler@CCoreList@@QEAA_NPEAD0@Z@4HA
pdata	ENDS
pdata	SEGMENT
$pdata$?initQueueThread@CCoreList@@QEAA_NPEAD0@Z DD imagerel $LN21
	DD	imagerel $LN21+820
	DD	imagerel $unwind$?initQueueThread@CCoreList@@QEAA_NPEAD0@Z
pdata	ENDS
pdata	SEGMENT
$pdata$?dtor$0@?0??initQueueThread@CCoreList@@QEAA_NPEAD0@Z@4HA DD imagerel ?dtor$0@?0??initQueueThread@CCoreList@@QEAA_NPEAD0@Z@4HA
	DD	imagerel ?dtor$0@?0??initQueueThread@CCoreList@@QEAA_NPEAD0@Z@4HA+40
	DD	imagerel $unwind$?dtor$0@?0??initQueueThread@CCoreList@@QEAA_NPEAD0@Z@4HA
$pdata$?dtor$1@?0??initQueueThread@CCoreList@@QEAA_NPEAD0@Z@4HA DD imagerel ?dtor$1@?0??initQueueThread@CCoreList@@QEAA_NPEAD0@Z@4HA
	DD	imagerel ?dtor$1@?0??initQueueThread@CCoreList@@QEAA_NPEAD0@Z@4HA+40
	DD	imagerel $unwind$?dtor$1@?0??initQueueThread@CCoreList@@QEAA_NPEAD0@Z@4HA
$pdata$?dtor$2@?0??initQueueThread@CCoreList@@QEAA_NPEAD0@Z@4HA DD imagerel ?dtor$2@?0??initQueueThread@CCoreList@@QEAA_NPEAD0@Z@4HA
	DD	imagerel ?dtor$2@?0??initQueueThread@CCoreList@@QEAA_NPEAD0@Z@4HA+45
	DD	imagerel $unwind$?dtor$2@?0??initQueueThread@CCoreList@@QEAA_NPEAD0@Z@4HA
pdata	ENDS
pdata	SEGMENT
$pdata$?initComThread@CCoreList@@QEAA_NH@Z DD imagerel $LN8
	DD	imagerel $LN8+337
	DD	imagerel $unwind$?initComThread@CCoreList@@QEAA_NH@Z
pdata	ENDS
pdata	SEGMENT
$pdata$?dtor$0@?0??initComThread@CCoreList@@QEAA_NH@Z@4HA DD imagerel ?dtor$0@?0??initComThread@CCoreList@@QEAA_NH@Z@4HA
	DD	imagerel ?dtor$0@?0??initComThread@CCoreList@@QEAA_NH@Z@4HA+45
	DD	imagerel $unwind$?dtor$0@?0??initComThread@CCoreList@@QEAA_NH@Z@4HA
pdata	ENDS
pdata	SEGMENT
$pdata$?initLogWriter@CCoreList@@QEAA_NH@Z DD imagerel $LN8
	DD	imagerel $LN8+334
	DD	imagerel $unwind$?initLogWriter@CCoreList@@QEAA_NH@Z
pdata	ENDS
pdata	SEGMENT
$pdata$?dtor$0@?0??initLogWriter@CCoreList@@QEAA_NH@Z@4HA DD imagerel ?dtor$0@?0??initLogWriter@CCoreList@@QEAA_NH@Z@4HA
	DD	imagerel ?dtor$0@?0??initLogWriter@CCoreList@@QEAA_NH@Z@4HA+45
	DD	imagerel $unwind$?dtor$0@?0??initLogWriter@CCoreList@@QEAA_NH@Z@4HA
pdata	ENDS
pdata	SEGMENT
$pdata$?initScheduler@CCoreList@@QEAA_NHH@Z DD imagerel $LN14
	DD	imagerel $LN14+593
	DD	imagerel $unwind$?initScheduler@CCoreList@@QEAA_NHH@Z
pdata	ENDS
pdata	SEGMENT
$pdata$?dtor$0@?0??initScheduler@CCoreList@@QEAA_NHH@Z@4HA DD imagerel ?dtor$0@?0??initScheduler@CCoreList@@QEAA_NHH@Z@4HA
	DD	imagerel ?dtor$0@?0??initScheduler@CCoreList@@QEAA_NHH@Z@4HA+43
	DD	imagerel $unwind$?dtor$0@?0??initScheduler@CCoreList@@QEAA_NHH@Z@4HA
$pdata$?dtor$1@?0??initScheduler@CCoreList@@QEAA_NHH@Z@4HA DD imagerel ?dtor$1@?0??initScheduler@CCoreList@@QEAA_NHH@Z@4HA
	DD	imagerel ?dtor$1@?0??initScheduler@CCoreList@@QEAA_NHH@Z@4HA+43
	DD	imagerel $unwind$?dtor$1@?0??initScheduler@CCoreList@@QEAA_NHH@Z@4HA
pdata	ENDS
pdata	SEGMENT
$pdata$?initQueueThread@CCoreList@@QEAA_NHH@Z DD imagerel $LN14
	DD	imagerel $LN14+593
	DD	imagerel $unwind$?initQueueThread@CCoreList@@QEAA_NHH@Z
pdata	ENDS
pdata	SEGMENT
$pdata$?dtor$0@?0??initQueueThread@CCoreList@@QEAA_NHH@Z@4HA DD imagerel ?dtor$0@?0??initQueueThread@CCoreList@@QEAA_NHH@Z@4HA
	DD	imagerel ?dtor$0@?0??initQueueThread@CCoreList@@QEAA_NHH@Z@4HA+43
	DD	imagerel $unwind$?dtor$0@?0??initQueueThread@CCoreList@@QEAA_NHH@Z@4HA
$pdata$?dtor$1@?0??initQueueThread@CCoreList@@QEAA_NHH@Z@4HA DD imagerel ?dtor$1@?0??initQueueThread@CCoreList@@QEAA_NHH@Z@4HA
	DD	imagerel ?dtor$1@?0??initQueueThread@CCoreList@@QEAA_NHH@Z@4HA+43
	DD	imagerel $unwind$?dtor$1@?0??initQueueThread@CCoreList@@QEAA_NHH@Z@4HA
pdata	ENDS
pdata	SEGMENT
$pdata$?setListAllocType@CCoreList@@QEAAXW4E_ALLOC_TYPE@@W4E_SYS_LIST_TYPE@@@Z DD imagerel $LN9
	DD	imagerel $LN9+160
	DD	imagerel $unwind$?setListAllocType@CCoreList@@QEAAXW4E_ALLOC_TYPE@@W4E_SYS_LIST_TYPE@@@Z
pdata	ENDS
;	COMDAT pdata
pdata	SEGMENT
$pdata$??0?$CMemPool@USTIntervalInfo@@@@QEAA@XZ DD imagerel $LN4
	DD	imagerel $LN4+119
	DD	imagerel $unwind$??0?$CMemPool@USTIntervalInfo@@@@QEAA@XZ
pdata	ENDS
;	COMDAT pdata
pdata	SEGMENT
$pdata$??1?$CMemPool@USTIntervalInfo@@@@QEAA@XZ DD imagerel $LN11
	DD	imagerel $LN11+239
	DD	imagerel $unwind$??1?$CMemPool@USTIntervalInfo@@@@QEAA@XZ
pdata	ENDS
;	COMDAT pdata
pdata	SEGMENT
$pdata$?clear@?$CMemPool@USTIntervalInfo@@@@QEAAXXZ DD imagerel $LN6
	DD	imagerel $LN6+126
	DD	imagerel $unwind$?clear@?$CMemPool@USTIntervalInfo@@@@QEAAXXZ
pdata	ENDS
;	COMDAT pdata
pdata	SEGMENT
$pdata$?alloc@?$CMemPool@USTIntervalInfo@@@@QEAAHHW4E_ALLOC_TYPE@@@Z DD imagerel $LN15
	DD	imagerel $LN15+632
	DD	imagerel $unwind$?alloc@?$CMemPool@USTIntervalInfo@@@@QEAAHHW4E_ALLOC_TYPE@@@Z
pdata	ENDS
;	COMDAT pdata
pdata	SEGMENT
$pdata$?dtor$0@?0??alloc@?$CMemPool@USTIntervalInfo@@@@QEAAHHW4E_ALLOC_TYPE@@@Z@4HA DD imagerel ?dtor$0@?0??alloc@?$CMemPool@USTIntervalInfo@@@@QEAAHHW4E_ALLOC_TYPE@@@Z@4HA
	DD	imagerel ?dtor$0@?0??alloc@?$CMemPool@USTIntervalInfo@@@@QEAAHHW4E_ALLOC_TYPE@@@Z@4HA+42
	DD	imagerel $unwind$?dtor$0@?0??alloc@?$CMemPool@USTIntervalInfo@@@@QEAAHHW4E_ALLOC_TYPE@@@Z@4HA
pdata	ENDS
;	COMDAT pdata
pdata	SEGMENT
$pdata$?__autoclassinit2@?$CMemPool@USTIntervalInfo@@@@QEAAX_K@Z DD imagerel $LN3
	DD	imagerel $LN3+27
	DD	imagerel $unwind$?__autoclassinit2@?$CMemPool@USTIntervalInfo@@@@QEAAX_K@Z
pdata	ENDS
;	COMDAT pdata
pdata	SEGMENT
$pdata$??_G?$CMemPool@USTIntervalInfo@@@@QEAAPEAXI@Z DD imagerel $LN4
	DD	imagerel $LN4+81
	DD	imagerel $unwind$??_G?$CMemPool@USTIntervalInfo@@@@QEAAPEAXI@Z
pdata	ENDS
;	COMDAT pdata
pdata	SEGMENT
$pdata$??0?$CMemPool@USTEvent@@@@QEAA@XZ DD imagerel $LN4
	DD	imagerel $LN4+119
	DD	imagerel $unwind$??0?$CMemPool@USTEvent@@@@QEAA@XZ
pdata	ENDS
;	COMDAT pdata
pdata	SEGMENT
$pdata$??1?$CMemPool@USTEvent@@@@QEAA@XZ DD imagerel $LN11
	DD	imagerel $LN11+239
	DD	imagerel $unwind$??1?$CMemPool@USTEvent@@@@QEAA@XZ
pdata	ENDS
;	COMDAT pdata
pdata	SEGMENT
$pdata$?clear@?$CMemPool@USTEvent@@@@QEAAXXZ DD imagerel $LN6
	DD	imagerel $LN6+126
	DD	imagerel $unwind$?clear@?$CMemPool@USTEvent@@@@QEAAXXZ
pdata	ENDS
;	COMDAT pdata
pdata	SEGMENT
$pdata$?alloc@?$CMemPool@USTEvent@@@@QEAAHHW4E_ALLOC_TYPE@@@Z DD imagerel $LN15
	DD	imagerel $LN15+632
	DD	imagerel $unwind$?alloc@?$CMemPool@USTEvent@@@@QEAAHHW4E_ALLOC_TYPE@@@Z
pdata	ENDS
;	COMDAT pdata
pdata	SEGMENT
$pdata$?dtor$0@?0??alloc@?$CMemPool@USTEvent@@@@QEAAHHW4E_ALLOC_TYPE@@@Z@4HA DD imagerel ?dtor$0@?0??alloc@?$CMemPool@USTEvent@@@@QEAAHHW4E_ALLOC_TYPE@@@Z@4HA
	DD	imagerel ?dtor$0@?0??alloc@?$CMemPool@USTEvent@@@@QEAAHHW4E_ALLOC_TYPE@@@Z@4HA+42
	DD	imagerel $unwind$?dtor$0@?0??alloc@?$CMemPool@USTEvent@@@@QEAAHHW4E_ALLOC_TYPE@@@Z@4HA
pdata	ENDS
;	COMDAT pdata
pdata	SEGMENT
$pdata$?delMem@?$CMemPool@USTEvent@@@@QEAA_NPEAUSTEvent@@@Z DD imagerel $LN10
	DD	imagerel $LN10+252
	DD	imagerel $unwind$?delMem@?$CMemPool@USTEvent@@@@QEAA_NPEAUSTEvent@@@Z
pdata	ENDS
;	COMDAT pdata
pdata	SEGMENT
$pdata$?__autoclassinit2@?$CMemPool@USTEvent@@@@QEAAX_K@Z DD imagerel $LN3
	DD	imagerel $LN3+27
	DD	imagerel $unwind$?__autoclassinit2@?$CMemPool@USTEvent@@@@QEAAX_K@Z
pdata	ENDS
;	COMDAT pdata
pdata	SEGMENT
$pdata$??_G?$CMemPool@USTEvent@@@@QEAAPEAXI@Z DD imagerel $LN4
	DD	imagerel $LN4+81
	DD	imagerel $unwind$??_G?$CMemPool@USTEvent@@@@QEAAPEAXI@Z
pdata	ENDS
;	COMDAT pdata
pdata	SEGMENT
$pdata$??0?$CTList@VCLogger@@@@QEAA@XZ DD imagerel $LN3
	DD	imagerel $LN3+85
	DD	imagerel $unwind$??0?$CTList@VCLogger@@@@QEAA@XZ
pdata	ENDS
;	COMDAT pdata
pdata	SEGMENT
$pdata$??1?$CTList@VCLogger@@@@QEAA@XZ DD imagerel $LN20
	DD	imagerel $LN20+509
	DD	imagerel $unwind$??1?$CTList@VCLogger@@@@QEAA@XZ
pdata	ENDS
;	COMDAT pdata
pdata	SEGMENT
$pdata$?alloc@?$CTList@VCLogger@@@@QEAAHHW4E_ALLOC_TYPE@@@Z DD imagerel $LN3
	DD	imagerel $LN3+87
	DD	imagerel $unwind$?alloc@?$CTList@VCLogger@@@@QEAAHHW4E_ALLOC_TYPE@@@Z
pdata	ENDS
;	COMDAT pdata
pdata	SEGMENT
$pdata$?push_back@?$CTList@VCLogger@@@@QEAA_NPEAVCLogger@@PEAH@Z DD imagerel $LN15
	DD	imagerel $LN15+366
	DD	imagerel $unwind$?push_back@?$CTList@VCLogger@@@@QEAA_NPEAVCLogger@@PEAH@Z
pdata	ENDS
;	COMDAT pdata
pdata	SEGMENT
$pdata$?IsExist@?$CTList@VCLogger@@@@QEAA_NPEAVCLogger@@@Z DD imagerel $LN8
	DD	imagerel $LN8+121
	DD	imagerel $unwind$?IsExist@?$CTList@VCLogger@@@@QEAA_NPEAVCLogger@@@Z
pdata	ENDS
;	COMDAT pdata
pdata	SEGMENT
$pdata$?del@?$CTList@VCLogger@@@@QEAA_NPEAVCLogger@@@Z DD imagerel $LN7
	DD	imagerel $LN7+154
	DD	imagerel $unwind$?del@?$CTList@VCLogger@@@@QEAA_NPEAVCLogger@@@Z
pdata	ENDS
;	COMDAT pdata
pdata	SEGMENT
$pdata$?getNext@?$CTList@VCLogger@@@@QEAAPEAVCLogger@@PEAH@Z DD imagerel $LN7
	DD	imagerel $LN7+97
	DD	imagerel $unwind$?getNext@?$CTList@VCLogger@@@@QEAAPEAVCLogger@@PEAH@Z
pdata	ENDS
;	COMDAT pdata
pdata	SEGMENT
$pdata$?__alloc@?$CTList@VCLogger@@@@AEAAHH@Z DD imagerel $LN5
	DD	imagerel $LN5+171
	DD	imagerel $unwind$?__alloc@?$CTList@VCLogger@@@@AEAAHH@Z
pdata	ENDS
;	COMDAT pdata
pdata	SEGMENT
$pdata$?_DEL@?$CTList@VCLogger@@@@AEAAXH@Z DD imagerel $LN3
	DD	imagerel $LN3+63
	DD	imagerel $unwind$?_DEL@?$CTList@VCLogger@@@@AEAAXH@Z
pdata	ENDS
;	COMDAT pdata
pdata	SEGMENT
$pdata$?__autoclassinit2@?$CTList@VCLogger@@@@QEAAX_K@Z DD imagerel $LN3
	DD	imagerel $LN3+27
	DD	imagerel $unwind$?__autoclassinit2@?$CTList@VCLogger@@@@QEAAX_K@Z
pdata	ENDS
;	COMDAT pdata
pdata	SEGMENT
$pdata$??_G?$CTList@VCLogger@@@@QEAAPEAXI@Z DD imagerel $LN4
	DD	imagerel $LN4+81
	DD	imagerel $unwind$??_G?$CTList@VCLogger@@@@QEAAPEAXI@Z
pdata	ENDS
;	COMDAT pdata
pdata	SEGMENT
$pdata$??0?$CTList@VCSTLogger@@@@QEAA@XZ DD imagerel $LN3
	DD	imagerel $LN3+85
	DD	imagerel $unwind$??0?$CTList@VCSTLogger@@@@QEAA@XZ
pdata	ENDS
;	COMDAT pdata
pdata	SEGMENT
$pdata$??1?$CTList@VCSTLogger@@@@QEAA@XZ DD imagerel $LN20
	DD	imagerel $LN20+509
	DD	imagerel $unwind$??1?$CTList@VCSTLogger@@@@QEAA@XZ
pdata	ENDS
;	COMDAT pdata
pdata	SEGMENT
$pdata$?alloc@?$CTList@VCSTLogger@@@@QEAAHHW4E_ALLOC_TYPE@@@Z DD imagerel $LN3
	DD	imagerel $LN3+87
	DD	imagerel $unwind$?alloc@?$CTList@VCSTLogger@@@@QEAAHHW4E_ALLOC_TYPE@@@Z
pdata	ENDS
;	COMDAT pdata
pdata	SEGMENT
$pdata$?push_back@?$CTList@VCSTLogger@@@@QEAA_NPEAVCSTLogger@@PEAH@Z DD imagerel $LN15
	DD	imagerel $LN15+366
	DD	imagerel $unwind$?push_back@?$CTList@VCSTLogger@@@@QEAA_NPEAVCSTLogger@@PEAH@Z
pdata	ENDS
;	COMDAT pdata
pdata	SEGMENT
$pdata$?del@?$CTList@VCSTLogger@@@@QEAA_NH@Z DD imagerel $LN4
	DD	imagerel $LN4+117
	DD	imagerel $unwind$?del@?$CTList@VCSTLogger@@@@QEAA_NH@Z
pdata	ENDS
;	COMDAT pdata
pdata	SEGMENT
$pdata$?getObj@?$CTList@VCSTLogger@@@@QEAAPEAVCSTLogger@@H@Z DD imagerel $LN4
	DD	imagerel $LN4+85
	DD	imagerel $unwind$?getObj@?$CTList@VCSTLogger@@@@QEAAPEAVCSTLogger@@H@Z
pdata	ENDS
;	COMDAT pdata
pdata	SEGMENT
$pdata$?getNext@?$CTList@VCSTLogger@@@@QEAAPEAVCSTLogger@@PEAH@Z DD imagerel $LN7
	DD	imagerel $LN7+97
	DD	imagerel $unwind$?getNext@?$CTList@VCSTLogger@@@@QEAAPEAVCSTLogger@@PEAH@Z
pdata	ENDS
;	COMDAT pdata
pdata	SEGMENT
$pdata$?size@?$CTList@VCSTLogger@@@@QEAAHXZ DD imagerel $LN3
	DD	imagerel $LN3+16
	DD	imagerel $unwind$?size@?$CTList@VCSTLogger@@@@QEAAHXZ
pdata	ENDS
;	COMDAT pdata
pdata	SEGMENT
$pdata$?setObjAllocType@?$CTList@VCSTLogger@@@@QEAAXW4E_ALLOC_TYPE@@@Z DD imagerel $LN3
	DD	imagerel $LN3+24
	DD	imagerel $unwind$?setObjAllocType@?$CTList@VCSTLogger@@@@QEAAXW4E_ALLOC_TYPE@@@Z
pdata	ENDS
;	COMDAT pdata
pdata	SEGMENT
$pdata$?__alloc@?$CTList@VCSTLogger@@@@AEAAHH@Z DD imagerel $LN5
	DD	imagerel $LN5+171
	DD	imagerel $unwind$?__alloc@?$CTList@VCSTLogger@@@@AEAAHH@Z
pdata	ENDS
;	COMDAT pdata
pdata	SEGMENT
$pdata$?_DEL@?$CTList@VCSTLogger@@@@AEAAXH@Z DD imagerel $LN3
	DD	imagerel $LN3+63
	DD	imagerel $unwind$?_DEL@?$CTList@VCSTLogger@@@@AEAAXH@Z
pdata	ENDS
;	COMDAT pdata
pdata	SEGMENT
$pdata$?__autoclassinit2@?$CTList@VCSTLogger@@@@QEAAX_K@Z DD imagerel $LN3
	DD	imagerel $LN3+27
	DD	imagerel $unwind$?__autoclassinit2@?$CTList@VCSTLogger@@@@QEAAX_K@Z
pdata	ENDS
;	COMDAT pdata
pdata	SEGMENT
$pdata$??_G?$CTList@VCSTLogger@@@@QEAAPEAXI@Z DD imagerel $LN4
	DD	imagerel $LN4+81
	DD	imagerel $unwind$??_G?$CTList@VCSTLogger@@@@QEAAPEAXI@Z
pdata	ENDS
;	COMDAT pdata
pdata	SEGMENT
$pdata$??0?$CTList@VCScheduler@@@@QEAA@XZ DD imagerel $LN3
	DD	imagerel $LN3+85
	DD	imagerel $unwind$??0?$CTList@VCScheduler@@@@QEAA@XZ
pdata	ENDS
;	COMDAT pdata
pdata	SEGMENT
$pdata$??1?$CTList@VCScheduler@@@@QEAA@XZ DD imagerel $LN20
	DD	imagerel $LN20+509
	DD	imagerel $unwind$??1?$CTList@VCScheduler@@@@QEAA@XZ
pdata	ENDS
;	COMDAT pdata
pdata	SEGMENT
$pdata$?alloc@?$CTList@VCScheduler@@@@QEAAHHW4E_ALLOC_TYPE@@@Z DD imagerel $LN3
	DD	imagerel $LN3+87
	DD	imagerel $unwind$?alloc@?$CTList@VCScheduler@@@@QEAAHHW4E_ALLOC_TYPE@@@Z
pdata	ENDS
;	COMDAT pdata
pdata	SEGMENT
$pdata$?push_back@?$CTList@VCScheduler@@@@QEAA_NPEAVCScheduler@@PEAH@Z DD imagerel $LN15
	DD	imagerel $LN15+366
	DD	imagerel $unwind$?push_back@?$CTList@VCScheduler@@@@QEAA_NPEAVCScheduler@@PEAH@Z
pdata	ENDS
;	COMDAT pdata
pdata	SEGMENT
$pdata$?del@?$CTList@VCScheduler@@@@QEAA_NH@Z DD imagerel $LN4
	DD	imagerel $LN4+117
	DD	imagerel $unwind$?del@?$CTList@VCScheduler@@@@QEAA_NH@Z
pdata	ENDS
;	COMDAT pdata
pdata	SEGMENT
$pdata$?getObj@?$CTList@VCScheduler@@@@QEAAPEAVCScheduler@@H@Z DD imagerel $LN4
	DD	imagerel $LN4+85
	DD	imagerel $unwind$?getObj@?$CTList@VCScheduler@@@@QEAAPEAVCScheduler@@H@Z
pdata	ENDS
;	COMDAT pdata
pdata	SEGMENT
$pdata$?getNext@?$CTList@VCScheduler@@@@QEAAPEAVCScheduler@@PEAH@Z DD imagerel $LN7
	DD	imagerel $LN7+97
	DD	imagerel $unwind$?getNext@?$CTList@VCScheduler@@@@QEAAPEAVCScheduler@@PEAH@Z
pdata	ENDS
;	COMDAT pdata
pdata	SEGMENT
$pdata$?size@?$CTList@VCScheduler@@@@QEAAHXZ DD imagerel $LN3
	DD	imagerel $LN3+16
	DD	imagerel $unwind$?size@?$CTList@VCScheduler@@@@QEAAHXZ
pdata	ENDS
;	COMDAT pdata
pdata	SEGMENT
$pdata$?setObjAllocType@?$CTList@VCScheduler@@@@QEAAXW4E_ALLOC_TYPE@@@Z DD imagerel $LN3
	DD	imagerel $LN3+24
	DD	imagerel $unwind$?setObjAllocType@?$CTList@VCScheduler@@@@QEAAXW4E_ALLOC_TYPE@@@Z
pdata	ENDS
;	COMDAT pdata
pdata	SEGMENT
$pdata$?__alloc@?$CTList@VCScheduler@@@@AEAAHH@Z DD imagerel $LN5
	DD	imagerel $LN5+171
	DD	imagerel $unwind$?__alloc@?$CTList@VCScheduler@@@@AEAAHH@Z
pdata	ENDS
;	COMDAT pdata
pdata	SEGMENT
$pdata$?_DEL@?$CTList@VCScheduler@@@@AEAAXH@Z DD imagerel $LN3
	DD	imagerel $LN3+63
	DD	imagerel $unwind$?_DEL@?$CTList@VCScheduler@@@@AEAAXH@Z
pdata	ENDS
;	COMDAT pdata
pdata	SEGMENT
$pdata$?__autoclassinit2@?$CTList@VCScheduler@@@@QEAAX_K@Z DD imagerel $LN3
	DD	imagerel $LN3+27
	DD	imagerel $unwind$?__autoclassinit2@?$CTList@VCScheduler@@@@QEAAX_K@Z
pdata	ENDS
;	COMDAT pdata
pdata	SEGMENT
$pdata$??_G?$CTList@VCScheduler@@@@QEAAPEAXI@Z DD imagerel $LN4
	DD	imagerel $LN4+81
	DD	imagerel $unwind$??_G?$CTList@VCScheduler@@@@QEAAPEAXI@Z
pdata	ENDS
;	COMDAT pdata
pdata	SEGMENT
$pdata$??0?$CTList@VCComThread@@@@QEAA@XZ DD imagerel $LN3
	DD	imagerel $LN3+85
	DD	imagerel $unwind$??0?$CTList@VCComThread@@@@QEAA@XZ
pdata	ENDS
;	COMDAT pdata
pdata	SEGMENT
$pdata$??1?$CTList@VCComThread@@@@QEAA@XZ DD imagerel $LN20
	DD	imagerel $LN20+509
	DD	imagerel $unwind$??1?$CTList@VCComThread@@@@QEAA@XZ
pdata	ENDS
;	COMDAT pdata
pdata	SEGMENT
$pdata$?alloc@?$CTList@VCComThread@@@@QEAAHHW4E_ALLOC_TYPE@@@Z DD imagerel $LN3
	DD	imagerel $LN3+87
	DD	imagerel $unwind$?alloc@?$CTList@VCComThread@@@@QEAAHHW4E_ALLOC_TYPE@@@Z
pdata	ENDS
;	COMDAT pdata
pdata	SEGMENT
$pdata$?push_back@?$CTList@VCComThread@@@@QEAA_NPEAVCComThread@@PEAH@Z DD imagerel $LN15
	DD	imagerel $LN15+366
	DD	imagerel $unwind$?push_back@?$CTList@VCComThread@@@@QEAA_NPEAVCComThread@@PEAH@Z
pdata	ENDS
;	COMDAT pdata
pdata	SEGMENT
$pdata$?del@?$CTList@VCComThread@@@@QEAA_NH@Z DD imagerel $LN4
	DD	imagerel $LN4+117
	DD	imagerel $unwind$?del@?$CTList@VCComThread@@@@QEAA_NH@Z
pdata	ENDS
;	COMDAT pdata
pdata	SEGMENT
$pdata$?getObj@?$CTList@VCComThread@@@@QEAAPEAVCComThread@@H@Z DD imagerel $LN4
	DD	imagerel $LN4+85
	DD	imagerel $unwind$?getObj@?$CTList@VCComThread@@@@QEAAPEAVCComThread@@H@Z
pdata	ENDS
;	COMDAT pdata
pdata	SEGMENT
$pdata$?getNext@?$CTList@VCComThread@@@@QEAAPEAVCComThread@@PEAH@Z DD imagerel $LN7
	DD	imagerel $LN7+97
	DD	imagerel $unwind$?getNext@?$CTList@VCComThread@@@@QEAAPEAVCComThread@@PEAH@Z
pdata	ENDS
;	COMDAT pdata
pdata	SEGMENT
$pdata$?size@?$CTList@VCComThread@@@@QEAAHXZ DD imagerel $LN3
	DD	imagerel $LN3+16
	DD	imagerel $unwind$?size@?$CTList@VCComThread@@@@QEAAHXZ
pdata	ENDS
;	COMDAT pdata
pdata	SEGMENT
$pdata$?lastIdx@?$CTList@VCComThread@@@@QEAAHXZ DD imagerel $LN3
	DD	imagerel $LN3+16
	DD	imagerel $unwind$?lastIdx@?$CTList@VCComThread@@@@QEAAHXZ
pdata	ENDS
;	COMDAT pdata
pdata	SEGMENT
$pdata$?setObjAllocType@?$CTList@VCComThread@@@@QEAAXW4E_ALLOC_TYPE@@@Z DD imagerel $LN3
	DD	imagerel $LN3+24
	DD	imagerel $unwind$?setObjAllocType@?$CTList@VCComThread@@@@QEAAXW4E_ALLOC_TYPE@@@Z
pdata	ENDS
;	COMDAT pdata
pdata	SEGMENT
$pdata$?__alloc@?$CTList@VCComThread@@@@AEAAHH@Z DD imagerel $LN5
	DD	imagerel $LN5+171
	DD	imagerel $unwind$?__alloc@?$CTList@VCComThread@@@@AEAAHH@Z
pdata	ENDS
;	COMDAT pdata
pdata	SEGMENT
$pdata$?_DEL@?$CTList@VCComThread@@@@AEAAXH@Z DD imagerel $LN3
	DD	imagerel $LN3+63
	DD	imagerel $unwind$?_DEL@?$CTList@VCComThread@@@@AEAAXH@Z
pdata	ENDS
;	COMDAT pdata
pdata	SEGMENT
$pdata$?__autoclassinit2@?$CTList@VCComThread@@@@QEAAX_K@Z DD imagerel $LN3
	DD	imagerel $LN3+27
	DD	imagerel $unwind$?__autoclassinit2@?$CTList@VCComThread@@@@QEAAX_K@Z
pdata	ENDS
;	COMDAT pdata
pdata	SEGMENT
$pdata$??_G?$CTList@VCComThread@@@@QEAAPEAXI@Z DD imagerel $LN4
	DD	imagerel $LN4+81
	DD	imagerel $unwind$??_G?$CTList@VCComThread@@@@QEAAPEAXI@Z
pdata	ENDS
;	COMDAT pdata
pdata	SEGMENT
$pdata$??0?$CTList@VCComQueueThread@@@@QEAA@XZ DD imagerel $LN3
	DD	imagerel $LN3+85
	DD	imagerel $unwind$??0?$CTList@VCComQueueThread@@@@QEAA@XZ
pdata	ENDS
;	COMDAT pdata
pdata	SEGMENT
$pdata$??1?$CTList@VCComQueueThread@@@@QEAA@XZ DD imagerel $LN20
	DD	imagerel $LN20+509
	DD	imagerel $unwind$??1?$CTList@VCComQueueThread@@@@QEAA@XZ
pdata	ENDS
;	COMDAT pdata
pdata	SEGMENT
$pdata$?alloc@?$CTList@VCComQueueThread@@@@QEAAHHW4E_ALLOC_TYPE@@@Z DD imagerel $LN3
	DD	imagerel $LN3+87
	DD	imagerel $unwind$?alloc@?$CTList@VCComQueueThread@@@@QEAAHHW4E_ALLOC_TYPE@@@Z
pdata	ENDS
;	COMDAT pdata
pdata	SEGMENT
$pdata$?push_back@?$CTList@VCComQueueThread@@@@QEAA_NPEAVCComQueueThread@@PEAH@Z DD imagerel $LN15
	DD	imagerel $LN15+366
	DD	imagerel $unwind$?push_back@?$CTList@VCComQueueThread@@@@QEAA_NPEAVCComQueueThread@@PEAH@Z
pdata	ENDS
;	COMDAT pdata
pdata	SEGMENT
$pdata$?del@?$CTList@VCComQueueThread@@@@QEAA_NH@Z DD imagerel $LN4
	DD	imagerel $LN4+117
	DD	imagerel $unwind$?del@?$CTList@VCComQueueThread@@@@QEAA_NH@Z
pdata	ENDS
;	COMDAT pdata
pdata	SEGMENT
$pdata$?getObj@?$CTList@VCComQueueThread@@@@QEAAPEAVCComQueueThread@@H@Z DD imagerel $LN4
	DD	imagerel $LN4+85
	DD	imagerel $unwind$?getObj@?$CTList@VCComQueueThread@@@@QEAAPEAVCComQueueThread@@H@Z
pdata	ENDS
;	COMDAT pdata
pdata	SEGMENT
$pdata$?getNext@?$CTList@VCComQueueThread@@@@QEAAPEAVCComQueueThread@@PEAH@Z DD imagerel $LN7
	DD	imagerel $LN7+97
	DD	imagerel $unwind$?getNext@?$CTList@VCComQueueThread@@@@QEAAPEAVCComQueueThread@@PEAH@Z
pdata	ENDS
;	COMDAT pdata
pdata	SEGMENT
$pdata$?size@?$CTList@VCComQueueThread@@@@QEAAHXZ DD imagerel $LN3
	DD	imagerel $LN3+16
	DD	imagerel $unwind$?size@?$CTList@VCComQueueThread@@@@QEAAHXZ
pdata	ENDS
;	COMDAT pdata
pdata	SEGMENT
$pdata$?setObjAllocType@?$CTList@VCComQueueThread@@@@QEAAXW4E_ALLOC_TYPE@@@Z DD imagerel $LN3
	DD	imagerel $LN3+24
	DD	imagerel $unwind$?setObjAllocType@?$CTList@VCComQueueThread@@@@QEAAXW4E_ALLOC_TYPE@@@Z
pdata	ENDS
;	COMDAT pdata
pdata	SEGMENT
$pdata$?__alloc@?$CTList@VCComQueueThread@@@@AEAAHH@Z DD imagerel $LN5
	DD	imagerel $LN5+171
	DD	imagerel $unwind$?__alloc@?$CTList@VCComQueueThread@@@@AEAAHH@Z
pdata	ENDS
;	COMDAT pdata
pdata	SEGMENT
$pdata$?_DEL@?$CTList@VCComQueueThread@@@@AEAAXH@Z DD imagerel $LN3
	DD	imagerel $LN3+63
	DD	imagerel $unwind$?_DEL@?$CTList@VCComQueueThread@@@@AEAAXH@Z
pdata	ENDS
;	COMDAT pdata
pdata	SEGMENT
$pdata$?__autoclassinit2@?$CTList@VCComQueueThread@@@@QEAAX_K@Z DD imagerel $LN3
	DD	imagerel $LN3+27
	DD	imagerel $unwind$?__autoclassinit2@?$CTList@VCComQueueThread@@@@QEAAX_K@Z
pdata	ENDS
;	COMDAT pdata
pdata	SEGMENT
$pdata$??_G?$CTList@VCComQueueThread@@@@QEAAPEAXI@Z DD imagerel $LN4
	DD	imagerel $LN4+81
	DD	imagerel $unwind$??_G?$CTList@VCComQueueThread@@@@QEAAPEAXI@Z
pdata	ENDS
;	COMDAT rtc$TMZ
rtc$TMZ	SEGMENT
_RTC_Shutdown.rtc$TMZ DQ FLAT:_RTC_Shutdown
rtc$TMZ	ENDS
;	COMDAT rtc$IMZ
rtc$IMZ	SEGMENT
_RTC_InitBase.rtc$IMZ DQ FLAT:_RTC_InitBase
rtc$IMZ	ENDS
;	COMDAT ??_R1A@?0A@EA@condition@win32@common@@8
rdata$r	SEGMENT
??_R1A@?0A@EA@condition@win32@common@@8 DD imagerel ??_R0?AVcondition@win32@common@@@8 ; common::win32::condition::`RTTI Base Class Descriptor at (0,-1,0,64)'
	DD	01H
	DD	00H
	DD	0ffffffffH
	DD	00H
	DD	040H
	DD	imagerel ??_R3condition@win32@common@@8
rdata$r	ENDS
;	COMDAT ??_R2condition@win32@common@@8
rdata$r	SEGMENT
??_R2condition@win32@common@@8 DD imagerel ??_R1A@?0A@EA@condition@win32@common@@8 ; common::win32::condition::`RTTI Base Class Array'
	DD	imagerel ??_R1A@?0A@EA@abstract_condition@common@@8
	ORG $+3
rdata$r	ENDS
;	COMDAT ??_R3condition@win32@common@@8
rdata$r	SEGMENT
??_R3condition@win32@common@@8 DD 00H			; common::win32::condition::`RTTI Class Hierarchy Descriptor'
	DD	00H
	DD	02H
	DD	imagerel ??_R2condition@win32@common@@8
rdata$r	ENDS
;	COMDAT ??_R0?AVcondition@win32@common@@@8
data$r	SEGMENT
??_R0?AVcondition@win32@common@@@8 DQ FLAT:??_7type_info@@6B@ ; common::win32::condition `RTTI Type Descriptor'
	DQ	0000000000000000H
	DB	'.?AVcondition@win32@common@@', 00H
data$r	ENDS
;	COMDAT ??_R4condition@win32@common@@6B@
rdata$r	SEGMENT
??_R4condition@win32@common@@6B@ DD 01H			; common::win32::condition::`RTTI Complete Object Locator'
	DD	00H
	DD	00H
	DD	imagerel ??_R0?AVcondition@win32@common@@@8
	DD	imagerel ??_R3condition@win32@common@@8
	DD	imagerel ??_R4condition@win32@common@@6B@
rdata$r	ENDS
;	COMDAT ??_R1A@?0A@EA@abstract_condition@common@@8
rdata$r	SEGMENT
??_R1A@?0A@EA@abstract_condition@common@@8 DD imagerel ??_R0?AVabstract_condition@common@@@8 ; common::abstract_condition::`RTTI Base Class Descriptor at (0,-1,0,64)'
	DD	00H
	DD	00H
	DD	0ffffffffH
	DD	00H
	DD	040H
	DD	imagerel ??_R3abstract_condition@common@@8
rdata$r	ENDS
;	COMDAT ??_R2abstract_condition@common@@8
rdata$r	SEGMENT
??_R2abstract_condition@common@@8 DD imagerel ??_R1A@?0A@EA@abstract_condition@common@@8 ; common::abstract_condition::`RTTI Base Class Array'
	ORG $+3
rdata$r	ENDS
;	COMDAT ??_R3abstract_condition@common@@8
rdata$r	SEGMENT
??_R3abstract_condition@common@@8 DD 00H		; common::abstract_condition::`RTTI Class Hierarchy Descriptor'
	DD	00H
	DD	01H
	DD	imagerel ??_R2abstract_condition@common@@8
rdata$r	ENDS
;	COMDAT ??_R0?AVabstract_condition@common@@@8
data$r	SEGMENT
??_R0?AVabstract_condition@common@@@8 DQ FLAT:??_7type_info@@6B@ ; common::abstract_condition `RTTI Type Descriptor'
	DQ	0000000000000000H
	DB	'.?AVabstract_condition@common@@', 00H
data$r	ENDS
;	COMDAT ??_R4abstract_condition@common@@6B@
rdata$r	SEGMENT
??_R4abstract_condition@common@@6B@ DD 01H		; common::abstract_condition::`RTTI Complete Object Locator'
	DD	00H
	DD	00H
	DD	imagerel ??_R0?AVabstract_condition@common@@@8
	DD	imagerel ??_R3abstract_condition@common@@8
	DD	imagerel ??_R4abstract_condition@common@@6B@
rdata$r	ENDS
;	COMDAT ??_C@_0BD@KEHDJCKJ@ERROR?$CB?5?$FL?$CFs?3?$CFd?$FN?5?$CFs?6?$AA@
CONST	SEGMENT
??_C@_0BD@KEHDJCKJ@ERROR?$CB?5?$FL?$CFs?3?$CFd?$FN?5?$CFs?6?$AA@ DB 'ERRO'
	DB	'R! [%s:%d] %s', 0aH, 00H			; `string'
CONST	ENDS
;	COMDAT ??_7condition@win32@common@@6B@
CONST	SEGMENT
??_7condition@win32@common@@6B@ DQ FLAT:??_R4condition@win32@common@@6B@ ; common::win32::condition::`vftable'
	DQ	FLAT:??_Econdition@win32@common@@UEAAPEAXI@Z
	DQ	FLAT:?signal@condition@win32@common@@UEAAXXZ
	DQ	FLAT:?signal_all@condition@win32@common@@UEAAXXZ
CONST	ENDS
;	COMDAT ??_7abstract_condition@common@@6B@
CONST	SEGMENT
??_7abstract_condition@common@@6B@ DQ FLAT:??_R4abstract_condition@common@@6B@ ; common::abstract_condition::`vftable'
	DQ	FLAT:??_Eabstract_condition@common@@UEAAPEAXI@Z
	DQ	FLAT:_purecall
	DQ	FLAT:_purecall
CONST	ENDS
;	COMDAT xdata
xdata	SEGMENT
$unwind$??_G?$CTList@VCComQueueThread@@@@QEAAPEAXI@Z DD 022201H
	DD	0700a320eH
xdata	ENDS
;	COMDAT xdata
xdata	SEGMENT
$unwind$?__autoclassinit2@?$CTList@VCComQueueThread@@@@QEAAX_K@Z DD 010b01H
	DD	0700bH
xdata	ENDS
;	COMDAT xdata
xdata	SEGMENT
$unwind$?_DEL@?$CTList@VCComQueueThread@@@@AEAAXH@Z DD 010a01H
	DD	0700aH
xdata	ENDS
;	COMDAT xdata
xdata	SEGMENT
$unwind$?__alloc@?$CTList@VCComQueueThread@@@@AEAAHH@Z DD 022201H
	DD	0700a520eH
xdata	ENDS
;	COMDAT xdata
xdata	SEGMENT
$unwind$?setObjAllocType@?$CTList@VCComQueueThread@@@@QEAAXW4E_ALLOC_TYPE@@@Z DD 010a01H
	DD	0700aH
xdata	ENDS
;	COMDAT xdata
xdata	SEGMENT
$unwind$?size@?$CTList@VCComQueueThread@@@@QEAAHXZ DD 010601H
	DD	07006H
xdata	ENDS
;	COMDAT xdata
xdata	SEGMENT
$unwind$?getNext@?$CTList@VCComQueueThread@@@@QEAAPEAVCComQueueThread@@PEAH@Z DD 010b01H
	DD	0700bH
xdata	ENDS
;	COMDAT xdata
xdata	SEGMENT
$unwind$?getObj@?$CTList@VCComQueueThread@@@@QEAAPEAVCComQueueThread@@H@Z DD 022201H
	DD	0700a320eH
xdata	ENDS
;	COMDAT xdata
xdata	SEGMENT
$unwind$?del@?$CTList@VCComQueueThread@@@@QEAA_NH@Z DD 022201H
	DD	0700a320eH
xdata	ENDS
;	COMDAT xdata
xdata	SEGMENT
$unwind$?push_back@?$CTList@VCComQueueThread@@@@QEAA_NPEAVCComQueueThread@@PEAH@Z DD 022801H
	DD	070105214H
xdata	ENDS
;	COMDAT xdata
xdata	SEGMENT
$unwind$?alloc@?$CTList@VCComQueueThread@@@@QEAAHHW4E_ALLOC_TYPE@@@Z DD 022701H
	DD	0700f3213H
xdata	ENDS
;	COMDAT xdata
xdata	SEGMENT
$ip2state$??1?$CTList@VCComQueueThread@@@@QEAA@XZ DD imagerel ??1?$CTList@VCComQueueThread@@@@QEAA@XZ
	DD	0ffffffffH
xdata	ENDS
;	COMDAT xdata
xdata	SEGMENT
$unwind$??1?$CTList@VCComQueueThread@@@@QEAA@XZ DD 033f19H
	DD	012010dH
	DD	07006H
	DD	imagerel __GSHandlerCheck_EH
	DD	imagerel $cppxdata$??1?$CTList@VCComQueueThread@@@@QEAA@XZ
	DD	08bH
xdata	ENDS
;	COMDAT CONST
CONST	SEGMENT
??1?$CTList@VCComQueueThread@@@@QEAA@XZ$rtcName$0 DB 069H ; CTList<CComQueueThread>::~CTList<CComQueueThread>
	DB	064H
	DB	078H
	DB	00H
	ORG $+12
??1?$CTList@VCComQueueThread@@@@QEAA@XZ$rtcVarDesc DD 024H ; CTList<CComQueueThread>::~CTList<CComQueueThread>
	DD	04H
	DQ	FLAT:??1?$CTList@VCComQueueThread@@@@QEAA@XZ$rtcName$0
	ORG $+48
??1?$CTList@VCComQueueThread@@@@QEAA@XZ$rtcFrameData DD 01H ; CTList<CComQueueThread>::~CTList<CComQueueThread>
	DD	00H
	DQ	FLAT:??1?$CTList@VCComQueueThread@@@@QEAA@XZ$rtcVarDesc
$cppxdata$??1?$CTList@VCComQueueThread@@@@QEAA@XZ DD 019930522H
	DD	00H
	DD	00H
	DD	00H
	DD	00H
	DD	01H
	DD	imagerel $ip2state$??1?$CTList@VCComQueueThread@@@@QEAA@XZ
	DD	068H
	DD	00H
	DD	05H
CONST	ENDS
;	COMDAT xdata
xdata	SEGMENT
$unwind$??0?$CTList@VCComQueueThread@@@@QEAA@XZ DD 010601H
	DD	07006H
xdata	ENDS
;	COMDAT xdata
xdata	SEGMENT
$unwind$??_G?$CTList@VCComThread@@@@QEAAPEAXI@Z DD 022201H
	DD	0700a320eH
xdata	ENDS
;	COMDAT xdata
xdata	SEGMENT
$unwind$?__autoclassinit2@?$CTList@VCComThread@@@@QEAAX_K@Z DD 010b01H
	DD	0700bH
xdata	ENDS
;	COMDAT xdata
xdata	SEGMENT
$unwind$?_DEL@?$CTList@VCComThread@@@@AEAAXH@Z DD 010a01H
	DD	0700aH
xdata	ENDS
;	COMDAT xdata
xdata	SEGMENT
$unwind$?__alloc@?$CTList@VCComThread@@@@AEAAHH@Z DD 022201H
	DD	0700a520eH
xdata	ENDS
;	COMDAT xdata
xdata	SEGMENT
$unwind$?setObjAllocType@?$CTList@VCComThread@@@@QEAAXW4E_ALLOC_TYPE@@@Z DD 010a01H
	DD	0700aH
xdata	ENDS
;	COMDAT xdata
xdata	SEGMENT
$unwind$?lastIdx@?$CTList@VCComThread@@@@QEAAHXZ DD 010601H
	DD	07006H
xdata	ENDS
;	COMDAT xdata
xdata	SEGMENT
$unwind$?size@?$CTList@VCComThread@@@@QEAAHXZ DD 010601H
	DD	07006H
xdata	ENDS
;	COMDAT xdata
xdata	SEGMENT
$unwind$?getNext@?$CTList@VCComThread@@@@QEAAPEAVCComThread@@PEAH@Z DD 010b01H
	DD	0700bH
xdata	ENDS
;	COMDAT xdata
xdata	SEGMENT
$unwind$?getObj@?$CTList@VCComThread@@@@QEAAPEAVCComThread@@H@Z DD 022201H
	DD	0700a320eH
xdata	ENDS
;	COMDAT xdata
xdata	SEGMENT
$unwind$?del@?$CTList@VCComThread@@@@QEAA_NH@Z DD 022201H
	DD	0700a320eH
xdata	ENDS
;	COMDAT xdata
xdata	SEGMENT
$unwind$?push_back@?$CTList@VCComThread@@@@QEAA_NPEAVCComThread@@PEAH@Z DD 022801H
	DD	070105214H
xdata	ENDS
;	COMDAT xdata
xdata	SEGMENT
$unwind$?alloc@?$CTList@VCComThread@@@@QEAAHHW4E_ALLOC_TYPE@@@Z DD 022701H
	DD	0700f3213H
xdata	ENDS
;	COMDAT xdata
xdata	SEGMENT
$ip2state$??1?$CTList@VCComThread@@@@QEAA@XZ DD imagerel ??1?$CTList@VCComThread@@@@QEAA@XZ
	DD	0ffffffffH
xdata	ENDS
;	COMDAT xdata
xdata	SEGMENT
$unwind$??1?$CTList@VCComThread@@@@QEAA@XZ DD 033f19H
	DD	012010dH
	DD	07006H
	DD	imagerel __GSHandlerCheck_EH
	DD	imagerel $cppxdata$??1?$CTList@VCComThread@@@@QEAA@XZ
	DD	08bH
xdata	ENDS
;	COMDAT CONST
CONST	SEGMENT
??1?$CTList@VCComThread@@@@QEAA@XZ$rtcName$0 DB 069H	; CTList<CComThread>::~CTList<CComThread>
	DB	064H
	DB	078H
	DB	00H
	ORG $+12
??1?$CTList@VCComThread@@@@QEAA@XZ$rtcVarDesc DD 024H	; CTList<CComThread>::~CTList<CComThread>
	DD	04H
	DQ	FLAT:??1?$CTList@VCComThread@@@@QEAA@XZ$rtcName$0
	ORG $+48
??1?$CTList@VCComThread@@@@QEAA@XZ$rtcFrameData DD 01H	; CTList<CComThread>::~CTList<CComThread>
	DD	00H
	DQ	FLAT:??1?$CTList@VCComThread@@@@QEAA@XZ$rtcVarDesc
$cppxdata$??1?$CTList@VCComThread@@@@QEAA@XZ DD 019930522H
	DD	00H
	DD	00H
	DD	00H
	DD	00H
	DD	01H
	DD	imagerel $ip2state$??1?$CTList@VCComThread@@@@QEAA@XZ
	DD	068H
	DD	00H
	DD	05H
CONST	ENDS
;	COMDAT xdata
xdata	SEGMENT
$unwind$??0?$CTList@VCComThread@@@@QEAA@XZ DD 010601H
	DD	07006H
xdata	ENDS
;	COMDAT xdata
xdata	SEGMENT
$unwind$??_G?$CTList@VCScheduler@@@@QEAAPEAXI@Z DD 022201H
	DD	0700a320eH
xdata	ENDS
;	COMDAT xdata
xdata	SEGMENT
$unwind$?__autoclassinit2@?$CTList@VCScheduler@@@@QEAAX_K@Z DD 010b01H
	DD	0700bH
xdata	ENDS
;	COMDAT xdata
xdata	SEGMENT
$unwind$?_DEL@?$CTList@VCScheduler@@@@AEAAXH@Z DD 010a01H
	DD	0700aH
xdata	ENDS
;	COMDAT xdata
xdata	SEGMENT
$unwind$?__alloc@?$CTList@VCScheduler@@@@AEAAHH@Z DD 022201H
	DD	0700a520eH
xdata	ENDS
;	COMDAT xdata
xdata	SEGMENT
$unwind$?setObjAllocType@?$CTList@VCScheduler@@@@QEAAXW4E_ALLOC_TYPE@@@Z DD 010a01H
	DD	0700aH
xdata	ENDS
;	COMDAT xdata
xdata	SEGMENT
$unwind$?size@?$CTList@VCScheduler@@@@QEAAHXZ DD 010601H
	DD	07006H
xdata	ENDS
;	COMDAT xdata
xdata	SEGMENT
$unwind$?getNext@?$CTList@VCScheduler@@@@QEAAPEAVCScheduler@@PEAH@Z DD 010b01H
	DD	0700bH
xdata	ENDS
;	COMDAT xdata
xdata	SEGMENT
$unwind$?getObj@?$CTList@VCScheduler@@@@QEAAPEAVCScheduler@@H@Z DD 022201H
	DD	0700a320eH
xdata	ENDS
;	COMDAT xdata
xdata	SEGMENT
$unwind$?del@?$CTList@VCScheduler@@@@QEAA_NH@Z DD 022201H
	DD	0700a320eH
xdata	ENDS
;	COMDAT xdata
xdata	SEGMENT
$unwind$?push_back@?$CTList@VCScheduler@@@@QEAA_NPEAVCScheduler@@PEAH@Z DD 022801H
	DD	070105214H
xdata	ENDS
;	COMDAT xdata
xdata	SEGMENT
$unwind$?alloc@?$CTList@VCScheduler@@@@QEAAHHW4E_ALLOC_TYPE@@@Z DD 022701H
	DD	0700f3213H
xdata	ENDS
;	COMDAT xdata
xdata	SEGMENT
$ip2state$??1?$CTList@VCScheduler@@@@QEAA@XZ DD imagerel ??1?$CTList@VCScheduler@@@@QEAA@XZ
	DD	0ffffffffH
xdata	ENDS
;	COMDAT xdata
xdata	SEGMENT
$unwind$??1?$CTList@VCScheduler@@@@QEAA@XZ DD 033f19H
	DD	012010dH
	DD	07006H
	DD	imagerel __GSHandlerCheck_EH
	DD	imagerel $cppxdata$??1?$CTList@VCScheduler@@@@QEAA@XZ
	DD	08bH
xdata	ENDS
;	COMDAT CONST
CONST	SEGMENT
??1?$CTList@VCScheduler@@@@QEAA@XZ$rtcName$0 DB 069H	; CTList<CScheduler>::~CTList<CScheduler>
	DB	064H
	DB	078H
	DB	00H
	ORG $+12
??1?$CTList@VCScheduler@@@@QEAA@XZ$rtcVarDesc DD 024H	; CTList<CScheduler>::~CTList<CScheduler>
	DD	04H
	DQ	FLAT:??1?$CTList@VCScheduler@@@@QEAA@XZ$rtcName$0
	ORG $+48
??1?$CTList@VCScheduler@@@@QEAA@XZ$rtcFrameData DD 01H	; CTList<CScheduler>::~CTList<CScheduler>
	DD	00H
	DQ	FLAT:??1?$CTList@VCScheduler@@@@QEAA@XZ$rtcVarDesc
$cppxdata$??1?$CTList@VCScheduler@@@@QEAA@XZ DD 019930522H
	DD	00H
	DD	00H
	DD	00H
	DD	00H
	DD	01H
	DD	imagerel $ip2state$??1?$CTList@VCScheduler@@@@QEAA@XZ
	DD	068H
	DD	00H
	DD	05H
CONST	ENDS
;	COMDAT xdata
xdata	SEGMENT
$unwind$??0?$CTList@VCScheduler@@@@QEAA@XZ DD 010601H
	DD	07006H
xdata	ENDS
;	COMDAT xdata
xdata	SEGMENT
$unwind$??_G?$CTList@VCSTLogger@@@@QEAAPEAXI@Z DD 022201H
	DD	0700a320eH
xdata	ENDS
;	COMDAT xdata
xdata	SEGMENT
$unwind$?__autoclassinit2@?$CTList@VCSTLogger@@@@QEAAX_K@Z DD 010b01H
	DD	0700bH
xdata	ENDS
;	COMDAT xdata
xdata	SEGMENT
$unwind$?_DEL@?$CTList@VCSTLogger@@@@AEAAXH@Z DD 010a01H
	DD	0700aH
xdata	ENDS
;	COMDAT xdata
xdata	SEGMENT
$unwind$?__alloc@?$CTList@VCSTLogger@@@@AEAAHH@Z DD 022201H
	DD	0700a520eH
xdata	ENDS
;	COMDAT xdata
xdata	SEGMENT
$unwind$?setObjAllocType@?$CTList@VCSTLogger@@@@QEAAXW4E_ALLOC_TYPE@@@Z DD 010a01H
	DD	0700aH
xdata	ENDS
;	COMDAT xdata
xdata	SEGMENT
$unwind$?size@?$CTList@VCSTLogger@@@@QEAAHXZ DD 010601H
	DD	07006H
xdata	ENDS
;	COMDAT xdata
xdata	SEGMENT
$unwind$?getNext@?$CTList@VCSTLogger@@@@QEAAPEAVCSTLogger@@PEAH@Z DD 010b01H
	DD	0700bH
xdata	ENDS
;	COMDAT xdata
xdata	SEGMENT
$unwind$?getObj@?$CTList@VCSTLogger@@@@QEAAPEAVCSTLogger@@H@Z DD 022201H
	DD	0700a320eH
xdata	ENDS
;	COMDAT xdata
xdata	SEGMENT
$unwind$?del@?$CTList@VCSTLogger@@@@QEAA_NH@Z DD 022201H
	DD	0700a320eH
xdata	ENDS
;	COMDAT xdata
xdata	SEGMENT
$unwind$?push_back@?$CTList@VCSTLogger@@@@QEAA_NPEAVCSTLogger@@PEAH@Z DD 022801H
	DD	070105214H
xdata	ENDS
;	COMDAT xdata
xdata	SEGMENT
$unwind$?alloc@?$CTList@VCSTLogger@@@@QEAAHHW4E_ALLOC_TYPE@@@Z DD 022701H
	DD	0700f3213H
xdata	ENDS
;	COMDAT xdata
xdata	SEGMENT
$ip2state$??1?$CTList@VCSTLogger@@@@QEAA@XZ DD imagerel ??1?$CTList@VCSTLogger@@@@QEAA@XZ
	DD	0ffffffffH
xdata	ENDS
;	COMDAT xdata
xdata	SEGMENT
$unwind$??1?$CTList@VCSTLogger@@@@QEAA@XZ DD 033f19H
	DD	012010dH
	DD	07006H
	DD	imagerel __GSHandlerCheck_EH
	DD	imagerel $cppxdata$??1?$CTList@VCSTLogger@@@@QEAA@XZ
	DD	08bH
xdata	ENDS
;	COMDAT CONST
CONST	SEGMENT
??1?$CTList@VCSTLogger@@@@QEAA@XZ$rtcName$0 DB 069H	; CTList<CSTLogger>::~CTList<CSTLogger>
	DB	064H
	DB	078H
	DB	00H
	ORG $+12
??1?$CTList@VCSTLogger@@@@QEAA@XZ$rtcVarDesc DD 024H	; CTList<CSTLogger>::~CTList<CSTLogger>
	DD	04H
	DQ	FLAT:??1?$CTList@VCSTLogger@@@@QEAA@XZ$rtcName$0
	ORG $+48
??1?$CTList@VCSTLogger@@@@QEAA@XZ$rtcFrameData DD 01H	; CTList<CSTLogger>::~CTList<CSTLogger>
	DD	00H
	DQ	FLAT:??1?$CTList@VCSTLogger@@@@QEAA@XZ$rtcVarDesc
$cppxdata$??1?$CTList@VCSTLogger@@@@QEAA@XZ DD 019930522H
	DD	00H
	DD	00H
	DD	00H
	DD	00H
	DD	01H
	DD	imagerel $ip2state$??1?$CTList@VCSTLogger@@@@QEAA@XZ
	DD	068H
	DD	00H
	DD	05H
CONST	ENDS
;	COMDAT xdata
xdata	SEGMENT
$unwind$??0?$CTList@VCSTLogger@@@@QEAA@XZ DD 010601H
	DD	07006H
xdata	ENDS
;	COMDAT xdata
xdata	SEGMENT
$unwind$??_G?$CTList@VCLogger@@@@QEAAPEAXI@Z DD 022201H
	DD	0700a320eH
xdata	ENDS
;	COMDAT xdata
xdata	SEGMENT
$unwind$?__autoclassinit2@?$CTList@VCLogger@@@@QEAAX_K@Z DD 010b01H
	DD	0700bH
xdata	ENDS
;	COMDAT xdata
xdata	SEGMENT
$unwind$?_DEL@?$CTList@VCLogger@@@@AEAAXH@Z DD 010a01H
	DD	0700aH
xdata	ENDS
;	COMDAT xdata
xdata	SEGMENT
$unwind$?__alloc@?$CTList@VCLogger@@@@AEAAHH@Z DD 022201H
	DD	0700a520eH
xdata	ENDS
;	COMDAT xdata
xdata	SEGMENT
$unwind$?getNext@?$CTList@VCLogger@@@@QEAAPEAVCLogger@@PEAH@Z DD 010b01H
	DD	0700bH
xdata	ENDS
;	COMDAT xdata
xdata	SEGMENT
$unwind$?del@?$CTList@VCLogger@@@@QEAA_NPEAVCLogger@@@Z DD 022301H
	DD	0700b520fH
xdata	ENDS
;	COMDAT xdata
xdata	SEGMENT
$unwind$?IsExist@?$CTList@VCLogger@@@@QEAA_NPEAVCLogger@@@Z DD 022301H
	DD	0700b120fH
xdata	ENDS
;	COMDAT xdata
xdata	SEGMENT
$unwind$?push_back@?$CTList@VCLogger@@@@QEAA_NPEAVCLogger@@PEAH@Z DD 022801H
	DD	070105214H
xdata	ENDS
;	COMDAT xdata
xdata	SEGMENT
$unwind$?alloc@?$CTList@VCLogger@@@@QEAAHHW4E_ALLOC_TYPE@@@Z DD 022701H
	DD	0700f3213H
xdata	ENDS
;	COMDAT xdata
xdata	SEGMENT
$ip2state$??1?$CTList@VCLogger@@@@QEAA@XZ DD imagerel ??1?$CTList@VCLogger@@@@QEAA@XZ
	DD	0ffffffffH
xdata	ENDS
;	COMDAT xdata
xdata	SEGMENT
$unwind$??1?$CTList@VCLogger@@@@QEAA@XZ DD 033f19H
	DD	012010dH
	DD	07006H
	DD	imagerel __GSHandlerCheck_EH
	DD	imagerel $cppxdata$??1?$CTList@VCLogger@@@@QEAA@XZ
	DD	08bH
xdata	ENDS
;	COMDAT CONST
CONST	SEGMENT
??1?$CTList@VCLogger@@@@QEAA@XZ$rtcName$0 DB 069H	; CTList<CLogger>::~CTList<CLogger>
	DB	064H
	DB	078H
	DB	00H
	ORG $+12
??1?$CTList@VCLogger@@@@QEAA@XZ$rtcVarDesc DD 024H	; CTList<CLogger>::~CTList<CLogger>
	DD	04H
	DQ	FLAT:??1?$CTList@VCLogger@@@@QEAA@XZ$rtcName$0
	ORG $+48
??1?$CTList@VCLogger@@@@QEAA@XZ$rtcFrameData DD 01H	; CTList<CLogger>::~CTList<CLogger>
	DD	00H
	DQ	FLAT:??1?$CTList@VCLogger@@@@QEAA@XZ$rtcVarDesc
$cppxdata$??1?$CTList@VCLogger@@@@QEAA@XZ DD 019930522H
	DD	00H
	DD	00H
	DD	00H
	DD	00H
	DD	01H
	DD	imagerel $ip2state$??1?$CTList@VCLogger@@@@QEAA@XZ
	DD	068H
	DD	00H
	DD	05H
CONST	ENDS
;	COMDAT xdata
xdata	SEGMENT
$unwind$??0?$CTList@VCLogger@@@@QEAA@XZ DD 010601H
	DD	07006H
xdata	ENDS
;	COMDAT xdata
xdata	SEGMENT
$unwind$??_G?$CMemPool@USTEvent@@@@QEAAPEAXI@Z DD 022201H
	DD	0700a320eH
xdata	ENDS
;	COMDAT xdata
xdata	SEGMENT
$unwind$?__autoclassinit2@?$CMemPool@USTEvent@@@@QEAAX_K@Z DD 010b01H
	DD	0700bH
xdata	ENDS
;	COMDAT xdata
xdata	SEGMENT
$unwind$?delMem@?$CMemPool@USTEvent@@@@QEAA_NPEAUSTEvent@@@Z DD 022301H
	DD	0700b720fH
xdata	ENDS
;	COMDAT xdata
xdata	SEGMENT
$unwind$?dtor$0@?0??alloc@?$CMemPool@USTEvent@@@@QEAAHHW4E_ALLOC_TYPE@@@Z@4HA DD 031001H
	DD	0700c4210H
	DD	0500bH
xdata	ENDS
;	COMDAT xdata
xdata	SEGMENT
$ip2state$?alloc@?$CMemPool@USTEvent@@@@QEAAHHW4E_ALLOC_TYPE@@@Z DD imagerel ?alloc@?$CMemPool@USTEvent@@@@QEAAHHW4E_ALLOC_TYPE@@@Z
	DD	0ffffffffH
	DD	imagerel ?alloc@?$CMemPool@USTEvent@@@@QEAAHHW4E_ALLOC_TYPE@@@Z+123
	DD	00H
	DD	imagerel ?alloc@?$CMemPool@USTEvent@@@@QEAAHHW4E_ALLOC_TYPE@@@Z+225
	DD	0ffffffffH
xdata	ENDS
;	COMDAT xdata
xdata	SEGMENT
$stateUnwindMap$?alloc@?$CMemPool@USTEvent@@@@QEAAHHW4E_ALLOC_TYPE@@@Z DD 0ffffffffH
	DD	imagerel ?dtor$0@?0??alloc@?$CMemPool@USTEvent@@@@QEAAHHW4E_ALLOC_TYPE@@@Z@4HA
xdata	ENDS
;	COMDAT CONST
CONST	SEGMENT
$cppxdata$?alloc@?$CMemPool@USTEvent@@@@QEAAHHW4E_ALLOC_TYPE@@@Z DD 019930522H
	DD	01H
	DD	imagerel $stateUnwindMap$?alloc@?$CMemPool@USTEvent@@@@QEAAHHW4E_ALLOC_TYPE@@@Z
	DD	00H
	DD	00H
	DD	03H
	DD	imagerel $ip2state$?alloc@?$CMemPool@USTEvent@@@@QEAAHHW4E_ALLOC_TYPE@@@Z
	DD	060H
	DD	00H
	DD	01H
CONST	ENDS
;	COMDAT xdata
xdata	SEGMENT
$unwind$?alloc@?$CMemPool@USTEvent@@@@QEAAHHW4E_ALLOC_TYPE@@@Z DD 033611H
	DD	0120116H
	DD	0700fH
	DD	imagerel __CxxFrameHandler3
	DD	imagerel $cppxdata$?alloc@?$CMemPool@USTEvent@@@@QEAAHHW4E_ALLOC_TYPE@@@Z
xdata	ENDS
;	COMDAT xdata
xdata	SEGMENT
$unwind$?clear@?$CMemPool@USTEvent@@@@QEAAXXZ DD 021e01H
	DD	07006520aH
xdata	ENDS
;	COMDAT xdata
xdata	SEGMENT
$unwind$??1?$CMemPool@USTEvent@@@@QEAA@XZ DD 021e01H
	DD	07006920aH
xdata	ENDS
;	COMDAT xdata
xdata	SEGMENT
$unwind$??0?$CMemPool@USTEvent@@@@QEAA@XZ DD 021e01H
	DD	07006320aH
xdata	ENDS
;	COMDAT xdata
xdata	SEGMENT
$unwind$??_G?$CMemPool@USTIntervalInfo@@@@QEAAPEAXI@Z DD 022201H
	DD	0700a320eH
xdata	ENDS
;	COMDAT xdata
xdata	SEGMENT
$unwind$?__autoclassinit2@?$CMemPool@USTIntervalInfo@@@@QEAAX_K@Z DD 010b01H
	DD	0700bH
xdata	ENDS
;	COMDAT xdata
xdata	SEGMENT
$unwind$?dtor$0@?0??alloc@?$CMemPool@USTIntervalInfo@@@@QEAAHHW4E_ALLOC_TYPE@@@Z@4HA DD 031001H
	DD	0700c4210H
	DD	0500bH
xdata	ENDS
;	COMDAT xdata
xdata	SEGMENT
$ip2state$?alloc@?$CMemPool@USTIntervalInfo@@@@QEAAHHW4E_ALLOC_TYPE@@@Z DD imagerel ?alloc@?$CMemPool@USTIntervalInfo@@@@QEAAHHW4E_ALLOC_TYPE@@@Z
	DD	0ffffffffH
	DD	imagerel ?alloc@?$CMemPool@USTIntervalInfo@@@@QEAAHHW4E_ALLOC_TYPE@@@Z+123
	DD	00H
	DD	imagerel ?alloc@?$CMemPool@USTIntervalInfo@@@@QEAAHHW4E_ALLOC_TYPE@@@Z+225
	DD	0ffffffffH
xdata	ENDS
;	COMDAT xdata
xdata	SEGMENT
$stateUnwindMap$?alloc@?$CMemPool@USTIntervalInfo@@@@QEAAHHW4E_ALLOC_TYPE@@@Z DD 0ffffffffH
	DD	imagerel ?dtor$0@?0??alloc@?$CMemPool@USTIntervalInfo@@@@QEAAHHW4E_ALLOC_TYPE@@@Z@4HA
xdata	ENDS
;	COMDAT CONST
CONST	SEGMENT
$cppxdata$?alloc@?$CMemPool@USTIntervalInfo@@@@QEAAHHW4E_ALLOC_TYPE@@@Z DD 019930522H
	DD	01H
	DD	imagerel $stateUnwindMap$?alloc@?$CMemPool@USTIntervalInfo@@@@QEAAHHW4E_ALLOC_TYPE@@@Z
	DD	00H
	DD	00H
	DD	03H
	DD	imagerel $ip2state$?alloc@?$CMemPool@USTIntervalInfo@@@@QEAAHHW4E_ALLOC_TYPE@@@Z
	DD	060H
	DD	00H
	DD	01H
CONST	ENDS
;	COMDAT xdata
xdata	SEGMENT
$unwind$?alloc@?$CMemPool@USTIntervalInfo@@@@QEAAHHW4E_ALLOC_TYPE@@@Z DD 033611H
	DD	0120116H
	DD	0700fH
	DD	imagerel __CxxFrameHandler3
	DD	imagerel $cppxdata$?alloc@?$CMemPool@USTIntervalInfo@@@@QEAAHHW4E_ALLOC_TYPE@@@Z
xdata	ENDS
;	COMDAT xdata
xdata	SEGMENT
$unwind$?clear@?$CMemPool@USTIntervalInfo@@@@QEAAXXZ DD 021e01H
	DD	07006520aH
xdata	ENDS
;	COMDAT xdata
xdata	SEGMENT
$unwind$??1?$CMemPool@USTIntervalInfo@@@@QEAA@XZ DD 021e01H
	DD	07006920aH
xdata	ENDS
;	COMDAT xdata
xdata	SEGMENT
$unwind$??0?$CMemPool@USTIntervalInfo@@@@QEAA@XZ DD 021e01H
	DD	07006320aH
xdata	ENDS
;	COMDAT xdata
xdata	SEGMENT
$unwind$?delEvent@CCoreList@@QEAA_NPEAUSTEvent@@@Z DD 022301H
	DD	0700b320fH
xdata	ENDS
;	COMDAT xdata
xdata	SEGMENT
$ip2state$??_ECComQueueThread@@QEAAPEAXI@Z DD imagerel ??_ECComQueueThread@@QEAAPEAXI@Z
	DD	0ffffffffH
xdata	ENDS
;	COMDAT CONST
CONST	SEGMENT
$cppxdata$??_ECComQueueThread@@QEAAPEAXI@Z DD 019930522H
	DD	00H
	DD	00H
	DD	00H
	DD	00H
	DD	01H
	DD	imagerel $ip2state$??_ECComQueueThread@@QEAAPEAXI@Z
	DD	020H
	DD	00H
	DD	05H
CONST	ENDS
;	COMDAT xdata
xdata	SEGMENT
$unwind$??_ECComQueueThread@@QEAAPEAXI@Z DD 022b19H
	DD	0700a520eH
	DD	imagerel __CxxFrameHandler3
	DD	imagerel $cppxdata$??_ECComQueueThread@@QEAAPEAXI@Z
xdata	ENDS
;	COMDAT xdata
xdata	SEGMENT
$unwind$??_GCComQueueThread@@QEAAPEAXI@Z DD 022201H
	DD	0700a320eH
xdata	ENDS
;	COMDAT xdata
xdata	SEGMENT
$unwind$?getEvent@CComQueueThread@@QEAAPEAUSTEvent@@XZ DD 021e01H
	DD	07006320aH
xdata	ENDS
;	COMDAT xdata
xdata	SEGMENT
$unwind$?putQueue@CComQueueThread@@QEAA_NPEAUSTEvent@@@Z DD 022301H
	DD	0700b320fH
xdata	ENDS
;	COMDAT xdata
xdata	SEGMENT
$unwind$??_G?$CMemList@USTIntervalInfo@@@@QEAAPEAXI@Z DD 022201H
	DD	0700a320eH
xdata	ENDS
;	COMDAT xdata
xdata	SEGMENT
$unwind$?__autoclassinit2@?$CMemList@USTIntervalInfo@@@@QEAAX_K@Z DD 010b01H
	DD	0700bH
xdata	ENDS
;	COMDAT xdata
xdata	SEGMENT
$unwind$?_del@?$CMemList@USTIntervalInfo@@@@AEAAXH@Z DD 022201H
	DD	0700a320eH
xdata	ENDS
;	COMDAT xdata
xdata	SEGMENT
$unwind$?del@?$CMemList@USTIntervalInfo@@@@QEAA_NPEAUSTIntervalInfo@@@Z DD 022301H
	DD	0700b520fH
xdata	ENDS
;	COMDAT xdata
xdata	SEGMENT
$unwind$?add@?$CMemList@USTIntervalInfo@@@@QEAAHPEAUSTIntervalInfo@@@Z DD 022301H
	DD	0700b520fH
xdata	ENDS
;	COMDAT xdata
xdata	SEGMENT
$unwind$?getNext@?$CMemList@USTIntervalInfo@@@@QEAAPEAUSTIntervalInfo@@PEAH@Z DD 022301H
	DD	0700b520fH
xdata	ENDS
;	COMDAT xdata
xdata	SEGMENT
$unwind$?dtor$0@?0??alloc@?$CMemList@USTIntervalInfo@@@@QEAAHHW4E_ALLOC_TYPE@@@Z@4HA DD 031001H
	DD	0700c4210H
	DD	0500bH
xdata	ENDS
;	COMDAT xdata
xdata	SEGMENT
$ip2state$?alloc@?$CMemList@USTIntervalInfo@@@@QEAAHHW4E_ALLOC_TYPE@@@Z DD imagerel ?alloc@?$CMemList@USTIntervalInfo@@@@QEAAHHW4E_ALLOC_TYPE@@@Z
	DD	0ffffffffH
	DD	imagerel ?alloc@?$CMemList@USTIntervalInfo@@@@QEAAHHW4E_ALLOC_TYPE@@@Z+159
	DD	00H
	DD	imagerel ?alloc@?$CMemList@USTIntervalInfo@@@@QEAAHHW4E_ALLOC_TYPE@@@Z+261
	DD	0ffffffffH
xdata	ENDS
;	COMDAT xdata
xdata	SEGMENT
$stateUnwindMap$?alloc@?$CMemList@USTIntervalInfo@@@@QEAAHHW4E_ALLOC_TYPE@@@Z DD 0ffffffffH
	DD	imagerel ?dtor$0@?0??alloc@?$CMemList@USTIntervalInfo@@@@QEAAHHW4E_ALLOC_TYPE@@@Z@4HA
xdata	ENDS
;	COMDAT CONST
CONST	SEGMENT
$cppxdata$?alloc@?$CMemList@USTIntervalInfo@@@@QEAAHHW4E_ALLOC_TYPE@@@Z DD 019930522H
	DD	01H
	DD	imagerel $stateUnwindMap$?alloc@?$CMemList@USTIntervalInfo@@@@QEAAHHW4E_ALLOC_TYPE@@@Z
	DD	00H
	DD	00H
	DD	03H
	DD	imagerel $ip2state$?alloc@?$CMemList@USTIntervalInfo@@@@QEAAHHW4E_ALLOC_TYPE@@@Z
	DD	050H
	DD	00H
	DD	01H
CONST	ENDS
;	COMDAT xdata
xdata	SEGMENT
$unwind$?alloc@?$CMemList@USTIntervalInfo@@@@QEAAHHW4E_ALLOC_TYPE@@@Z DD 023011H
	DD	0700fb213H
	DD	imagerel __CxxFrameHandler3
	DD	imagerel $cppxdata$?alloc@?$CMemList@USTIntervalInfo@@@@QEAAHHW4E_ALLOC_TYPE@@@Z
xdata	ENDS
;	COMDAT xdata
xdata	SEGMENT
$ip2state$??1?$CMemList@USTIntervalInfo@@@@QEAA@XZ DD imagerel ??1?$CMemList@USTIntervalInfo@@@@QEAA@XZ
	DD	0ffffffffH
xdata	ENDS
;	COMDAT xdata
xdata	SEGMENT
$unwind$??1?$CMemList@USTIntervalInfo@@@@QEAA@XZ DD 033f19H
	DD	014010dH
	DD	07006H
	DD	imagerel __GSHandlerCheck_EH
	DD	imagerel $cppxdata$??1?$CMemList@USTIntervalInfo@@@@QEAA@XZ
	DD	093H
xdata	ENDS
;	COMDAT CONST
CONST	SEGMENT
??1?$CMemList@USTIntervalInfo@@@@QEAA@XZ$rtcName$0 DB 069H ; CMemList<STIntervalInfo>::~CMemList<STIntervalInfo>
	DB	064H
	DB	078H
	DB	00H
	ORG $+12
??1?$CMemList@USTIntervalInfo@@@@QEAA@XZ$rtcVarDesc DD 024H ; CMemList<STIntervalInfo>::~CMemList<STIntervalInfo>
	DD	04H
	DQ	FLAT:??1?$CMemList@USTIntervalInfo@@@@QEAA@XZ$rtcName$0
	ORG $+48
??1?$CMemList@USTIntervalInfo@@@@QEAA@XZ$rtcFrameData DD 01H ; CMemList<STIntervalInfo>::~CMemList<STIntervalInfo>
	DD	00H
	DQ	FLAT:??1?$CMemList@USTIntervalInfo@@@@QEAA@XZ$rtcVarDesc
$cppxdata$??1?$CMemList@USTIntervalInfo@@@@QEAA@XZ DD 019930522H
	DD	00H
	DD	00H
	DD	00H
	DD	00H
	DD	01H
	DD	imagerel $ip2state$??1?$CMemList@USTIntervalInfo@@@@QEAA@XZ
	DD	068H
	DD	00H
	DD	05H
CONST	ENDS
;	COMDAT xdata
xdata	SEGMENT
$unwind$?dtor$0@?0???0?$CMemList@USTIntervalInfo@@@@QEAA@XZ@4HA DD 031001H
	DD	0700c4210H
	DD	0500bH
xdata	ENDS
;	COMDAT xdata
xdata	SEGMENT
$ip2state$??0?$CMemList@USTIntervalInfo@@@@QEAA@XZ DD imagerel ??0?$CMemList@USTIntervalInfo@@@@QEAA@XZ
	DD	0ffffffffH
	DD	imagerel ??0?$CMemList@USTIntervalInfo@@@@QEAA@XZ+57
	DD	00H
	DD	imagerel ??0?$CMemList@USTIntervalInfo@@@@QEAA@XZ+112
	DD	0ffffffffH
xdata	ENDS
;	COMDAT xdata
xdata	SEGMENT
$stateUnwindMap$??0?$CMemList@USTIntervalInfo@@@@QEAA@XZ DD 0ffffffffH
	DD	imagerel ?dtor$0@?0???0?$CMemList@USTIntervalInfo@@@@QEAA@XZ@4HA
xdata	ENDS
;	COMDAT CONST
CONST	SEGMENT
$cppxdata$??0?$CMemList@USTIntervalInfo@@@@QEAA@XZ DD 019930522H
	DD	01H
	DD	imagerel $stateUnwindMap$??0?$CMemList@USTIntervalInfo@@@@QEAA@XZ
	DD	00H
	DD	00H
	DD	03H
	DD	imagerel $ip2state$??0?$CMemList@USTIntervalInfo@@@@QEAA@XZ
	DD	020H
	DD	00H
	DD	01H
CONST	ENDS
;	COMDAT xdata
xdata	SEGMENT
$unwind$??0?$CMemList@USTIntervalInfo@@@@QEAA@XZ DD 022711H
	DD	07006520aH
	DD	imagerel __CxxFrameHandler3
	DD	imagerel $cppxdata$??0?$CMemList@USTIntervalInfo@@@@QEAA@XZ
xdata	ENDS
;	COMDAT xdata
xdata	SEGMENT
$ip2state$??_ECScheduler@@QEAAPEAXI@Z DD imagerel ??_ECScheduler@@QEAAPEAXI@Z
	DD	0ffffffffH
xdata	ENDS
;	COMDAT CONST
CONST	SEGMENT
$cppxdata$??_ECScheduler@@QEAAPEAXI@Z DD 019930522H
	DD	00H
	DD	00H
	DD	00H
	DD	00H
	DD	01H
	DD	imagerel $ip2state$??_ECScheduler@@QEAAPEAXI@Z
	DD	020H
	DD	00H
	DD	05H
CONST	ENDS
;	COMDAT xdata
xdata	SEGMENT
$unwind$??_ECScheduler@@QEAAPEAXI@Z DD 022b19H
	DD	0700a520eH
	DD	imagerel __CxxFrameHandler3
	DD	imagerel $cppxdata$??_ECScheduler@@QEAAPEAXI@Z
xdata	ENDS
;	COMDAT xdata
xdata	SEGMENT
$unwind$??_GCScheduler@@QEAAPEAXI@Z DD 022201H
	DD	0700a320eH
xdata	ENDS
;	COMDAT xdata
xdata	SEGMENT
$unwind$?getGoal@CScheduler@@QEAAIXZ DD 010601H
	DD	07006H
xdata	ENDS
;	COMDAT xdata
xdata	SEGMENT
$unwind$?setGoal@CScheduler@@QEAAXXZ DD 010601H
	DD	07006H
xdata	ENDS
;	COMDAT xdata
xdata	SEGMENT
$unwind$?getMilliSecHalf@CScheduler@@QEAAHXZ DD 010601H
	DD	07006H
xdata	ENDS
;	COMDAT xdata
xdata	SEGMENT
$unwind$?addTime@CScheduler@@QEAAHPEAUSTIntervalInfo@@@Z DD 022301H
	DD	0700b320fH
xdata	ENDS
;	COMDAT xdata
xdata	SEGMENT
$unwind$?deleteTime@CScheduler@@QEAA_NPEAUSTIntervalInfo@@@Z DD 022301H
	DD	0700b320fH
xdata	ENDS
;	COMDAT xdata
xdata	SEGMENT
$unwind$?timeNext@CScheduler@@QEAAPEAUSTIntervalInfo@@PEAH@Z DD 022301H
	DD	0700b320fH
xdata	ENDS
;	COMDAT xdata
xdata	SEGMENT
$ip2state$??_ECSTLogger@@QEAAPEAXI@Z DD imagerel ??_ECSTLogger@@QEAAPEAXI@Z
	DD	0ffffffffH
xdata	ENDS
;	COMDAT CONST
CONST	SEGMENT
$cppxdata$??_ECSTLogger@@QEAAPEAXI@Z DD 019930522H
	DD	00H
	DD	00H
	DD	00H
	DD	00H
	DD	01H
	DD	imagerel $ip2state$??_ECSTLogger@@QEAAPEAXI@Z
	DD	020H
	DD	00H
	DD	05H
CONST	ENDS
;	COMDAT xdata
xdata	SEGMENT
$unwind$??_ECSTLogger@@QEAAPEAXI@Z DD 022b19H
	DD	0700a520eH
	DD	imagerel __CxxFrameHandler3
	DD	imagerel $cppxdata$??_ECSTLogger@@QEAAPEAXI@Z
xdata	ENDS
;	COMDAT xdata
xdata	SEGMENT
$unwind$??_GCSTLogger@@QEAAPEAXI@Z DD 022201H
	DD	0700a320eH
xdata	ENDS
;	COMDAT xdata
xdata	SEGMENT
$unwind$?pushCommand@CSTLogger@@QEAA_NPEAUSTLCommand@@@Z DD 022301H
	DD	0700b320fH
xdata	ENDS
;	COMDAT xdata
xdata	SEGMENT
$ip2state$??_ECComThread@@QEAAPEAXI@Z DD imagerel ??_ECComThread@@QEAAPEAXI@Z
	DD	0ffffffffH
xdata	ENDS
;	COMDAT CONST
CONST	SEGMENT
$cppxdata$??_ECComThread@@QEAAPEAXI@Z DD 019930522H
	DD	00H
	DD	00H
	DD	00H
	DD	00H
	DD	01H
	DD	imagerel $ip2state$??_ECComThread@@QEAAPEAXI@Z
	DD	020H
	DD	00H
	DD	05H
CONST	ENDS
;	COMDAT xdata
xdata	SEGMENT
$unwind$??_ECComThread@@QEAAPEAXI@Z DD 022b19H
	DD	0700a520eH
	DD	imagerel __CxxFrameHandler3
	DD	imagerel $cppxdata$??_ECComThread@@QEAAPEAXI@Z
xdata	ENDS
;	COMDAT xdata
xdata	SEGMENT
$unwind$??_GCComThread@@QEAAPEAXI@Z DD 022201H
	DD	0700a320eH
xdata	ENDS
;	COMDAT xdata
xdata	SEGMENT
$unwind$?sendSignal@CComThread@@QEAAXXZ DD 021e01H
	DD	07006520aH
xdata	ENDS
;	COMDAT xdata
xdata	SEGMENT
$unwind$?bActive@CComThread@@QEAA_NXZ DD 010601H
	DD	07006H
xdata	ENDS
;	COMDAT xdata
xdata	SEGMENT
$unwind$?setIdx@CComThread@@QEAAXH@Z DD 010a01H
	DD	0700aH
xdata	ENDS
CONST	SEGMENT
	ORG $+7
$cppxdata$??1CComThread@@QEAA@XZ DD 019930522H
	DD	00H
	DD	00H
	DD	00H
	DD	00H
	DD	01H
	DD	imagerel $ip2state$??1CComThread@@QEAA@XZ
	DD	020H
	DD	00H
	DD	05H
$cppxdata$??1CSTLogger@@QEAA@XZ DD 019930522H
	DD	00H
	DD	00H
	DD	00H
	DD	00H
	DD	01H
	DD	imagerel $ip2state$??1CSTLogger@@QEAA@XZ
	DD	040H
	DD	00H
	DD	05H
?initConfig@CSTLogger@@QEAA_NPEADH0@Z$rtcName$0 DB 073H	; CSTLogger::initConfig
	DB	07aH
	DB	053H
	DB	065H
	DB	063H
	DB	074H
	DB	00H
	ORG $+1
?initConfig@CSTLogger@@QEAA_NPEADH0@Z$rtcVarDesc DD 028H ; CSTLogger::initConfig
	DD	018H
	DQ	FLAT:?initConfig@CSTLogger@@QEAA_NPEADH0@Z$rtcName$0
	ORG $+48
?initConfig@CSTLogger@@QEAA_NPEADH0@Z$rtcFrameData DD 01H ; CSTLogger::initConfig
	DD	00H
	DQ	FLAT:?initConfig@CSTLogger@@QEAA_NPEADH0@Z$rtcVarDesc
?GetQueue@CSTLogger@@QEAAXXZ$rtcName$0 DB 069H		; CSTLogger::GetQueue
	DB	064H
	DB	078H
	DB	00H
?TimeProc@CSTLogger@@QEAAXXZ$rtcName$0 DB 06cH		; CSTLogger::TimeProc
	DB	074H
	DB	06dH
	DB	00H
?TimeProc@CSTLogger@@QEAAXXZ$rtcName$1 DB 069H		; CSTLogger::TimeProc
	DB	064H
	DB	078H
	DB	00H
	ORG $+4
?GetQueue@CSTLogger@@QEAAXXZ$rtcVarDesc DD 024H		; CSTLogger::GetQueue
	DD	04H
	DQ	FLAT:?GetQueue@CSTLogger@@QEAAXXZ$rtcName$0
	ORG $+48
?GetQueue@CSTLogger@@QEAAXXZ$rtcFrameData DD 01H	; CSTLogger::GetQueue
	DD	00H
	DQ	FLAT:?GetQueue@CSTLogger@@QEAAXXZ$rtcVarDesc
?TimeProc@CSTLogger@@QEAAXXZ$rtcVarDesc DD 0b4H		; CSTLogger::TimeProc
	DD	04H
	DQ	FLAT:?TimeProc@CSTLogger@@QEAAXXZ$rtcName$1
	DD	030H
	DD	068H
	DQ	FLAT:?TimeProc@CSTLogger@@QEAAXXZ$rtcName$0
	ORG $+96
?TimeProc@CSTLogger@@QEAAXXZ$rtcFrameData DD 02H	; CSTLogger::TimeProc
	DD	00H
	DQ	FLAT:?TimeProc@CSTLogger@@QEAAXXZ$rtcVarDesc
$cppxdata$?TimeProc@CSTLogger@@QEAAXXZ DD 019930522H
	DD	01H
	DD	imagerel $stateUnwindMap$?TimeProc@CSTLogger@@QEAAXXZ
	DD	00H
	DD	00H
	DD	03H
	DD	imagerel $ip2state$?TimeProc@CSTLogger@@QEAAXXZ
	DD	0d8H
	DD	00H
	DD	01H
$cppxdata$?_init@CSTLogger@@AEAA_NH@Z DD 019930522H
	DD	02H
	DD	imagerel $stateUnwindMap$?_init@CSTLogger@@AEAA_NH@Z
	DD	00H
	DD	00H
	DD	05H
	DD	imagerel $ip2state$?_init@CSTLogger@@AEAA_NH@Z
	DD	040H
	DD	00H
	DD	01H
?schedulerLoop@@YAXPEAUSTThreadInfo@@@Z$rtcName$0 DB 069H ; schedulerLoop
	DB	064H
	DB	078H
	DB	00H
?initConfig@CScheduler@@QEAA_NPEADH0@Z$rtcName$0 DB 073H ; CScheduler::initConfig
	DB	07aH
	DB	053H
	DB	065H
	DB	063H
	DB	074H
	DB	00H
	ORG $+5
?schedulerLoop@@YAXPEAUSTThreadInfo@@@Z$rtcVarDesc DD 044H ; schedulerLoop
	DD	04H
	DQ	FLAT:?schedulerLoop@@YAXPEAUSTThreadInfo@@@Z$rtcName$0
	ORG $+48
?schedulerLoop@@YAXPEAUSTThreadInfo@@@Z$rtcFrameData DD 01H ; schedulerLoop
	DD	00H
	DQ	FLAT:?schedulerLoop@@YAXPEAUSTThreadInfo@@@Z$rtcVarDesc
$cppxdata$??1CScheduler@@QEAA@XZ DD 019930522H
	DD	00H
	DD	00H
	DD	00H
	DD	00H
	DD	01H
	DD	imagerel $ip2state$??1CScheduler@@QEAA@XZ
	DD	020H
	DD	00H
	DD	05H
$cppxdata$?initConfig@CScheduler@@QEAA_NPEADH0@Z DD 019930522H
	DD	01H
	DD	imagerel $stateUnwindMap$?initConfig@CScheduler@@QEAA_NPEADH0@Z
	DD	00H
	DD	00H
	DD	03H
	DD	imagerel $ip2state$?initConfig@CScheduler@@QEAA_NPEADH0@Z
	DD	070H
	DD	00H
	DD	01H
?initConfig@CScheduler@@QEAA_NPEADH0@Z$rtcVarDesc DD 028H ; CScheduler::initConfig
	DD	018H
	DQ	FLAT:?initConfig@CScheduler@@QEAA_NPEADH0@Z$rtcName$0
	ORG $+48
?initConfig@CScheduler@@QEAA_NPEADH0@Z$rtcFrameData DD 01H ; CScheduler::initConfig
	DD	00H
	DQ	FLAT:?initConfig@CScheduler@@QEAA_NPEADH0@Z$rtcVarDesc
$cppxdata$?init@CScheduler@@QEAA_NHHH@Z DD 019930522H
	DD	01H
	DD	imagerel $stateUnwindMap$?init@CScheduler@@QEAA_NHHH@Z
	DD	00H
	DD	00H
	DD	03H
	DD	imagerel $ip2state$?init@CScheduler@@QEAA_NHHH@Z
	DD	040H
	DD	00H
	DD	01H
$cppxdata$??0CComQueueThread@@QEAA@XZ DD 019930522H
	DD	01H
	DD	imagerel $stateUnwindMap$??0CComQueueThread@@QEAA@XZ
	DD	00H
	DD	00H
	DD	03H
	DD	imagerel $ip2state$??0CComQueueThread@@QEAA@XZ
	DD	020H
	DD	00H
	DD	01H
$cppxdata$??1CComQueueThread@@QEAA@XZ DD 019930522H
	DD	00H
	DD	00H
	DD	00H
	DD	00H
	DD	01H
	DD	imagerel $ip2state$??1CComQueueThread@@QEAA@XZ
	DD	020H
	DD	00H
	DD	05H
?initConfig@CComQueueThread@@QEAA_NPEADH0@Z$rtcName$0 DB 073H ; CComQueueThread::initConfig
	DB	07aH
	DB	053H
	DB	065H
	DB	063H
	DB	074H
	DB	00H
	ORG $+1
?initConfig@CComQueueThread@@QEAA_NPEADH0@Z$rtcVarDesc DD 028H ; CComQueueThread::initConfig
	DD	018H
	DQ	FLAT:?initConfig@CComQueueThread@@QEAA_NPEADH0@Z$rtcName$0
	ORG $+48
?initConfig@CComQueueThread@@QEAA_NPEADH0@Z$rtcFrameData DD 01H ; CComQueueThread::initConfig
	DD	00H
	DQ	FLAT:?initConfig@CComQueueThread@@QEAA_NPEADH0@Z$rtcVarDesc
$cppxdata$??0CCoreList@@QEAA@XZ DD 019930522H
	DD	01H
	DD	imagerel $stateUnwindMap$??0CCoreList@@QEAA@XZ
	DD	00H
	DD	00H
	DD	03H
	DD	imagerel $ip2state$??0CCoreList@@QEAA@XZ
	DD	030H
	DD	00H
	DD	01H
$cppxdata$??1CCoreList@@QEAA@XZ DD 019930522H
	DD	00H
	DD	00H
	DD	00H
	DD	00H
	DD	01H
	DD	imagerel $ip2state$??1CCoreList@@QEAA@XZ
	DD	020H
	DD	00H
	DD	05H
?initSystemFile@CCoreList@@QEAA_NXZ$rtcName$0 DB 073H	; CCoreList::initSystemFile
	DB	07aH
	DB	043H
	DB	06fH
	DB	06eH
	DB	066H
	DB	00H
	ORG $+1
?initSystemFile@CCoreList@@QEAA_NXZ$rtcName$1 DB 073H	; CCoreList::initSystemFile
	DB	07aH
	DB	04bH
	DB	065H
	DB	079H
	DB	00H
	ORG $+2
?initSystemFile@CCoreList@@QEAA_NXZ$rtcVarDesc DD 0b8H	; CCoreList::initSystemFile
	DD	024H
	DQ	FLAT:?initSystemFile@CCoreList@@QEAA_NXZ$rtcName$1
	DD	040H
	DD	058H
	DQ	FLAT:?initSystemFile@CCoreList@@QEAA_NXZ$rtcName$0
	ORG $+96
?initSystemFile@CCoreList@@QEAA_NXZ$rtcFrameData DD 02H	; CCoreList::initSystemFile
	DD	00H
	DQ	FLAT:?initSystemFile@CCoreList@@QEAA_NXZ$rtcVarDesc
?initDefaultPool@CCoreList@@QEAA_NHHH@Z$rtcName$0 DB 073H ; CCoreList::initDefaultPool
	DB	07aH
	DB	043H
	DB	06fH
	DB	06eH
	DB	066H
	DB	00H
	ORG $+1
?initDefaultPool@CCoreList@@QEAA_NHHH@Z$rtcFrameData DD 01H ; CCoreList::initDefaultPool
	DD	00H
	DQ	FLAT:?initDefaultPool@CCoreList@@QEAA_NHHH@Z$rtcVarDesc
?start@CCoreList@@QEAA_NXZ$rtcName$0 DB 063H		; CCoreList::start
	DB	075H
	DB	072H
	DB	054H
	DB	06dH
	DB	00H
	ORG $+2
?initDefaultPool@CCoreList@@QEAA_NHHH@Z$rtcVarDesc DD 040H ; CCoreList::initDefaultPool
	DD	058H
	DQ	FLAT:?initDefaultPool@CCoreList@@QEAA_NHHH@Z$rtcName$0
	ORG $+48
?start@CCoreList@@QEAA_NXZ$rtcVarDesc DD 060H		; CCoreList::start
	DD	068H
	DQ	FLAT:?start@CCoreList@@QEAA_NXZ$rtcName$0
	ORG $+48
?start@CCoreList@@QEAA_NXZ$rtcFrameData DD 01H		; CCoreList::start
	DD	00H
	DQ	FLAT:?start@CCoreList@@QEAA_NXZ$rtcVarDesc
$cppxdata$?start@CCoreList@@QEAA_NXZ DD 019930522H
	DD	01H
	DD	imagerel $stateUnwindMap$?start@CCoreList@@QEAA_NXZ
	DD	00H
	DD	00H
	DD	05H
	DD	imagerel $ip2state$?start@CCoreList@@QEAA_NXZ
	DD	0e8H
	DD	00H
	DD	01H
?addComThread@CCoreList@@QEAAHP6AXPEAUSTThreadInfo@@@ZPEAXH2@Z$rtcName$0 DB 069H ; CCoreList::addComThread
	DB	064H
	DB	078H
	DB	00H
	ORG $+4
?addComThread@CCoreList@@QEAAHP6AXPEAUSTThreadInfo@@@ZPEAXH2@Z$rtcVarDesc DD 044H ; CCoreList::addComThread
	DD	04H
	DQ	FLAT:?addComThread@CCoreList@@QEAAHP6AXPEAUSTThreadInfo@@@ZPEAXH2@Z$rtcName$0
	ORG $+48
?addComThread@CCoreList@@QEAAHP6AXPEAUSTThreadInfo@@@ZPEAXH2@Z$rtcFrameData DD 01H ; CCoreList::addComThread
	DD	00H
	DQ	FLAT:?addComThread@CCoreList@@QEAAHP6AXPEAUSTThreadInfo@@@ZPEAXH2@Z$rtcVarDesc
$cppxdata$?addComThread@CCoreList@@QEAAHP6AXPEAUSTThreadInfo@@@ZPEAXH2@Z DD 019930522H
	DD	01H
	DD	imagerel $stateUnwindMap$?addComThread@CCoreList@@QEAAHP6AXPEAUSTThreadInfo@@@ZPEAXH2@Z
	DD	00H
	DD	00H
	DD	03H
	DD	imagerel $ip2state$?addComThread@CCoreList@@QEAAHP6AXPEAUSTThreadInfo@@@ZPEAXH2@Z
	DD	080H
	DD	00H
	DD	01H
?addLogWriter@CCoreList@@QEAAHH@Z$rtcName$0 DB 069H	; CCoreList::addLogWriter
	DB	064H
	DB	078H
	DB	00H
	ORG $+4
?addLogWriter@CCoreList@@QEAAHH@Z$rtcVarDesc DD 024H	; CCoreList::addLogWriter
	DD	04H
	DQ	FLAT:?addLogWriter@CCoreList@@QEAAHH@Z$rtcName$0
	ORG $+48
?addLogWriter@CCoreList@@QEAAHH@Z$rtcFrameData DD 01H	; CCoreList::addLogWriter
	DD	00H
	DQ	FLAT:?addLogWriter@CCoreList@@QEAAHH@Z$rtcVarDesc
$cppxdata$?addLogWriter@CCoreList@@QEAAHH@Z DD 019930522H
	DD	01H
	DD	imagerel $stateUnwindMap$?addLogWriter@CCoreList@@QEAAHH@Z
	DD	00H
	DD	00H
	DD	03H
	DD	imagerel $ip2state$?addLogWriter@CCoreList@@QEAAHH@Z
	DD	068H
	DD	00H
	DD	01H
?addScheduler@CCoreList@@QEAAHHH@Z$rtcName$0 DB 069H	; CCoreList::addScheduler
	DB	064H
	DB	078H
	DB	00H
	ORG $+4
?addScheduler@CCoreList@@QEAAHHH@Z$rtcVarDesc DD 034H	; CCoreList::addScheduler
	DD	04H
	DQ	FLAT:?addScheduler@CCoreList@@QEAAHHH@Z$rtcName$0
	ORG $+48
?addScheduler@CCoreList@@QEAAHHH@Z$rtcFrameData DD 01H	; CCoreList::addScheduler
	DD	00H
	DQ	FLAT:?addScheduler@CCoreList@@QEAAHHH@Z$rtcVarDesc
$cppxdata$?addScheduler@CCoreList@@QEAAHHH@Z DD 019930522H
	DD	01H
	DD	imagerel $stateUnwindMap$?addScheduler@CCoreList@@QEAAHHH@Z
	DD	00H
	DD	00H
	DD	03H
	DD	imagerel $ip2state$?addScheduler@CCoreList@@QEAAHHH@Z
	DD	078H
	DD	00H
	DD	01H
?addQueueThread@CCoreList@@QEAAHH@Z$rtcName$0 DB 069H	; CCoreList::addQueueThread
	DB	064H
	DB	078H
	DB	00H
	ORG $+4
?addQueueThread@CCoreList@@QEAAHH@Z$rtcVarDesc DD 024H	; CCoreList::addQueueThread
	DD	04H
	DQ	FLAT:?addQueueThread@CCoreList@@QEAAHH@Z$rtcName$0
	ORG $+48
?addQueueThread@CCoreList@@QEAAHH@Z$rtcFrameData DD 01H	; CCoreList::addQueueThread
	DD	00H
	DQ	FLAT:?addQueueThread@CCoreList@@QEAAHH@Z$rtcVarDesc
$cppxdata$?addQueueThread@CCoreList@@QEAAHH@Z DD 019930522H
	DD	01H
	DD	imagerel $stateUnwindMap$?addQueueThread@CCoreList@@QEAAHH@Z
	DD	00H
	DD	00H
	DD	03H
	DD	imagerel $ip2state$?addQueueThread@CCoreList@@QEAAHH@Z
	DD	068H
	DD	00H
	DD	01H
?initComThread@CCoreList@@QEAA_NPEAD0@Z$rtcName$0 DB 069H ; CCoreList::initComThread
	DB	064H
	DB	078H
	DB	00H
	ORG $+4
?initComThread@CCoreList@@QEAA_NPEAD0@Z$rtcVarDesc DD 034H ; CCoreList::initComThread
	DD	04H
	DQ	FLAT:?initComThread@CCoreList@@QEAA_NPEAD0@Z$rtcName$0
	ORG $+48
?initComThread@CCoreList@@QEAA_NPEAD0@Z$rtcFrameData DD 01H ; CCoreList::initComThread
	DD	00H
	DQ	FLAT:?initComThread@CCoreList@@QEAA_NPEAD0@Z$rtcVarDesc
$cppxdata$?initComThread@CCoreList@@QEAA_NPEAD0@Z DD 019930522H
	DD	02H
	DD	imagerel $stateUnwindMap$?initComThread@CCoreList@@QEAA_NPEAD0@Z
	DD	00H
	DD	00H
	DD	05H
	DD	imagerel $ip2state$?initComThread@CCoreList@@QEAA_NPEAD0@Z
	DD	078H
	DD	00H
	DD	01H
?initLogWriter@CCoreList@@QEAA_NPEAD0_N@Z$rtcName$0 DB 069H ; CCoreList::initLogWriter
	DB	064H
	DB	078H
	DB	00H
?initScheduler@CCoreList@@QEAA_NPEAD0@Z$rtcName$0 DB 069H ; CCoreList::initScheduler
	DB	064H
	DB	078H
	DB	00H
?initLogWriter@CCoreList@@QEAA_NPEAD0_N@Z$rtcName$1 DB 073H ; CCoreList::initLogWriter
	DB	07aH
	DB	045H
	DB	072H
	DB	072H
	DB	06fH
	DB	072H
	DB	04dH
	DB	073H
	DB	067H
	DB	00H
	ORG $+5
?initLogWriter@CCoreList@@QEAA_NPEAD0_N@Z$rtcVarDesc DD 060H ; CCoreList::initLogWriter
	DD	080H
	DQ	FLAT:?initLogWriter@CCoreList@@QEAA_NPEAD0_N@Z$rtcName$1
	DD	034H
	DD	04H
	DQ	FLAT:?initLogWriter@CCoreList@@QEAA_NPEAD0_N@Z$rtcName$0
	ORG $+96
?initLogWriter@CCoreList@@QEAA_NPEAD0_N@Z$rtcFrameData DD 02H ; CCoreList::initLogWriter
	DD	00H
	DQ	FLAT:?initLogWriter@CCoreList@@QEAA_NPEAD0_N@Z$rtcVarDesc
$cppxdata$?initLogWriter@CCoreList@@QEAA_NPEAD0_N@Z DD 019930522H
	DD	02H
	DD	imagerel $stateUnwindMap$?initLogWriter@CCoreList@@QEAA_NPEAD0_N@Z
	DD	00H
	DD	00H
	DD	05H
	DD	imagerel $ip2state$?initLogWriter@CCoreList@@QEAA_NPEAD0_N@Z
	DD	0110H
	DD	00H
	DD	01H
?initScheduler@CCoreList@@QEAA_NPEAD0@Z$rtcName$1 DB 073H ; CCoreList::initScheduler
	DB	07aH
	DB	045H
	DB	072H
	DB	072H
	DB	06fH
	DB	072H
	DB	04dH
	DB	073H
	DB	067H
	DB	00H
	ORG $+5
?initScheduler@CCoreList@@QEAA_NPEAD0@Z$rtcFrameData DD 02H ; CCoreList::initScheduler
	DD	00H
	DQ	FLAT:?initScheduler@CCoreList@@QEAA_NPEAD0@Z$rtcVarDesc
$cppxdata$?initScheduler@CCoreList@@QEAA_NPEAD0@Z DD 019930522H
	DD	03H
	DD	imagerel $stateUnwindMap$?initScheduler@CCoreList@@QEAA_NPEAD0@Z
	DD	00H
	DD	00H
	DD	07H
	DD	imagerel $ip2state$?initScheduler@CCoreList@@QEAA_NPEAD0@Z
	DD	0120H
	DD	00H
	DD	01H
?initScheduler@CCoreList@@QEAA_NPEAD0@Z$rtcVarDesc DD 060H ; CCoreList::initScheduler
	DD	080H
	DQ	FLAT:?initScheduler@CCoreList@@QEAA_NPEAD0@Z$rtcName$1
	DD	034H
	DD	04H
	DQ	FLAT:?initScheduler@CCoreList@@QEAA_NPEAD0@Z$rtcName$0
	ORG $+96
?initQueueThread@CCoreList@@QEAA_NPEAD0@Z$rtcName$0 DB 069H ; CCoreList::initQueueThread
	DB	064H
	DB	078H
	DB	00H
	ORG $+12
?initQueueThread@CCoreList@@QEAA_NPEAD0@Z$rtcVarDesc DD 034H ; CCoreList::initQueueThread
	DD	04H
	DQ	FLAT:?initQueueThread@CCoreList@@QEAA_NPEAD0@Z$rtcName$0
	ORG $+48
?initQueueThread@CCoreList@@QEAA_NPEAD0@Z$rtcFrameData DD 01H ; CCoreList::initQueueThread
	DD	00H
	DQ	FLAT:?initQueueThread@CCoreList@@QEAA_NPEAD0@Z$rtcVarDesc
$cppxdata$?initQueueThread@CCoreList@@QEAA_NPEAD0@Z DD 019930522H
	DD	03H
	DD	imagerel $stateUnwindMap$?initQueueThread@CCoreList@@QEAA_NPEAD0@Z
	DD	00H
	DD	00H
	DD	07H
	DD	imagerel $ip2state$?initQueueThread@CCoreList@@QEAA_NPEAD0@Z
	DD	088H
	DD	00H
	DD	01H
?initComThread@CCoreList@@QEAA_NH@Z$rtcName$0 DB 073H	; CCoreList::initComThread
	DB	07aH
	DB	045H
	DB	072H
	DB	072H
	DB	06fH
	DB	072H
	DB	04dH
	DB	073H
	DB	067H
	DB	00H
	ORG $+13
?initComThread@CCoreList@@QEAA_NH@Z$rtcVarDesc DD 030H	; CCoreList::initComThread
	DD	080H
	DQ	FLAT:?initComThread@CCoreList@@QEAA_NH@Z$rtcName$0
	ORG $+48
?initComThread@CCoreList@@QEAA_NH@Z$rtcFrameData DD 01H	; CCoreList::initComThread
	DD	00H
	DQ	FLAT:?initComThread@CCoreList@@QEAA_NH@Z$rtcVarDesc
$cppxdata$?initComThread@CCoreList@@QEAA_NH@Z DD 019930522H
	DD	01H
	DD	imagerel $stateUnwindMap$?initComThread@CCoreList@@QEAA_NH@Z
	DD	00H
	DD	00H
	DD	03H
	DD	imagerel $ip2state$?initComThread@CCoreList@@QEAA_NH@Z
	DD	0d0H
	DD	00H
	DD	01H
?initLogWriter@CCoreList@@QEAA_NH@Z$rtcName$0 DB 073H	; CCoreList::initLogWriter
	DB	07aH
	DB	045H
	DB	072H
	DB	072H
	DB	06fH
	DB	072H
	DB	04dH
	DB	073H
	DB	067H
	DB	00H
	ORG $+13
?initLogWriter@CCoreList@@QEAA_NH@Z$rtcVarDesc DD 030H	; CCoreList::initLogWriter
	DD	080H
	DQ	FLAT:?initLogWriter@CCoreList@@QEAA_NH@Z$rtcName$0
	ORG $+48
?initLogWriter@CCoreList@@QEAA_NH@Z$rtcFrameData DD 01H	; CCoreList::initLogWriter
	DD	00H
	DQ	FLAT:?initLogWriter@CCoreList@@QEAA_NH@Z$rtcVarDesc
$cppxdata$?initLogWriter@CCoreList@@QEAA_NH@Z DD 019930522H
	DD	01H
	DD	imagerel $stateUnwindMap$?initLogWriter@CCoreList@@QEAA_NH@Z
	DD	00H
	DD	00H
	DD	03H
	DD	imagerel $ip2state$?initLogWriter@CCoreList@@QEAA_NH@Z
	DD	0d0H
	DD	00H
	DD	01H
?initScheduler@CCoreList@@QEAA_NHH@Z$rtcName$0 DB 073H	; CCoreList::initScheduler
	DB	07aH
	DB	045H
	DB	072H
	DB	072H
	DB	06fH
	DB	072H
	DB	04dH
	DB	073H
	DB	067H
	DB	00H
	ORG $+13
?initScheduler@CCoreList@@QEAA_NHH@Z$rtcVarDesc DD 030H	; CCoreList::initScheduler
	DD	080H
	DQ	FLAT:?initScheduler@CCoreList@@QEAA_NHH@Z$rtcName$0
	ORG $+48
?initScheduler@CCoreList@@QEAA_NHH@Z$rtcFrameData DD 01H ; CCoreList::initScheduler
	DD	00H
	DQ	FLAT:?initScheduler@CCoreList@@QEAA_NHH@Z$rtcVarDesc
$cppxdata$?initScheduler@CCoreList@@QEAA_NHH@Z DD 019930522H
	DD	02H
	DD	imagerel $stateUnwindMap$?initScheduler@CCoreList@@QEAA_NHH@Z
	DD	00H
	DD	00H
	DD	05H
	DD	imagerel $ip2state$?initScheduler@CCoreList@@QEAA_NHH@Z
	DD	0e0H
	DD	00H
	DD	01H
?initQueueThread@CCoreList@@QEAA_NHH@Z$rtcName$0 DB 073H ; CCoreList::initQueueThread
	DB	07aH
	DB	045H
	DB	072H
	DB	072H
	DB	06fH
	DB	072H
	DB	04dH
	DB	073H
	DB	067H
	DB	00H
	ORG $+13
?initQueueThread@CCoreList@@QEAA_NHH@Z$rtcVarDesc DD 030H ; CCoreList::initQueueThread
	DD	080H
	DQ	FLAT:?initQueueThread@CCoreList@@QEAA_NHH@Z$rtcName$0
	ORG $+48
?initQueueThread@CCoreList@@QEAA_NHH@Z$rtcFrameData DD 01H ; CCoreList::initQueueThread
	DD	00H
	DQ	FLAT:?initQueueThread@CCoreList@@QEAA_NHH@Z$rtcVarDesc
$cppxdata$?initQueueThread@CCoreList@@QEAA_NHH@Z DD 019930522H
	DD	02H
	DD	imagerel $stateUnwindMap$?initQueueThread@CCoreList@@QEAA_NHH@Z
	DD	00H
	DD	00H
	DD	05H
	DD	imagerel $ip2state$?initQueueThread@CCoreList@@QEAA_NHH@Z
	DD	0e0H
	DD	00H
	DD	01H
CONST	ENDS
xdata	SEGMENT
$unwind$??0CComThread@@QEAA@XZ DD 021e01H
	DD	07006320aH
$unwind$??1CComThread@@QEAA@XZ DD 022719H
	DD	07006520aH
	DD	imagerel __CxxFrameHandler3
	DD	imagerel $cppxdata$??1CComThread@@QEAA@XZ
$ip2state$??1CComThread@@QEAA@XZ DD imagerel ??1CComThread@@QEAA@XZ
	DD	0ffffffffH
$unwind$?init@CComThread@@QEAA_NP6AXPEAUSTThreadInfo@@@ZPEAXH2@Z DD 011501H
	DD	07015H
$unwind$?start@CComThread@@QEAA_NXZ DD 021e01H
	DD	07006720aH
$unwind$?quit@CComThread@@QEAA_NXZ DD 021e01H
	DD	07006520aH
$unwind$?ProcThread@CComThread@@SAKPEAX@Z DD 021e01H
	DD	07006520aH
$unwind$?loggerLoop@@YAXPEAUSTThreadInfo@@@Z DD 021e01H
	DD	07006520aH
$unwind$??0CSTLogger@@QEAA@XZ DD 021e01H
	DD	07006320aH
$unwind$??1CSTLogger@@QEAA@XZ DD 022719H
	DD	07006b20aH
	DD	imagerel __CxxFrameHandler3
	DD	imagerel $cppxdata$??1CSTLogger@@QEAA@XZ
$ip2state$??1CSTLogger@@QEAA@XZ DD imagerel ??1CSTLogger@@QEAA@XZ
	DD	0ffffffffH
$unwind$?initConfig@CSTLogger@@QEAA_NPEADH0@Z DD 023c19H
	DD	07015b219H
	DD	imagerel __GSHandlerCheck
	DD	050H
$unwind$?init@CSTLogger@@QEAA_NHH@Z DD 022701H
	DD	0700f3213H
$unwind$?start@CSTLogger@@QEAA_NXZ DD 021e01H
	DD	07006520aH
$unwind$?quit@CSTLogger@@QEAA_NXZ DD 021e01H
	DD	07006720aH
$unwind$?IsCommand@CSTLogger@@QEAA_NXZ DD 021e01H
	DD	07006720aH
$unwind$?GetQueue@CSTLogger@@QEAAXXZ DD 022d19H
	DD	07006b20aH
	DD	imagerel __GSHandlerCheck
	DD	058H
$unwind$?TimeProc@CSTLogger@@QEAAXXZ DD 034219H
	DD	01e010dH
	DD	07006H
	DD	imagerel __GSHandlerCheck_EH
	DD	imagerel $cppxdata$?TimeProc@CSTLogger@@QEAAXXZ
	DD	0e2H
$stateUnwindMap$?TimeProc@CSTLogger@@QEAAXXZ DD 0ffffffffH
	DD	imagerel ?dtor$0@?0??TimeProc@CSTLogger@@QEAAXXZ@4HA
$ip2state$?TimeProc@CSTLogger@@QEAAXXZ DD imagerel ?TimeProc@CSTLogger@@QEAAXXZ
	DD	0ffffffffH
	DD	imagerel ?TimeProc@CSTLogger@@QEAAXXZ+85
	DD	00H
	DD	imagerel ?TimeProc@CSTLogger@@QEAAXXZ+460
	DD	0ffffffffH
$unwind$?dtor$0@?0??TimeProc@CSTLogger@@QEAAXXZ@4HA DD 031001H
	DD	0700c4210H
	DD	0500bH
$unwind$?procLoggerEnable@CSTLogger@@QEAAXPEAVCLogger@@@Z DD 022301H
	DD	0700b320fH
$unwind$?porcLoggerDisable@CSTLogger@@QEAAXPEAVCLogger@@@Z DD 022301H
	DD	0700b720fH
$unwind$?_init@CSTLogger@@AEAA_NH@Z DD 022b11H
	DD	0700ab20eH
	DD	imagerel __CxxFrameHandler3
	DD	imagerel $cppxdata$?_init@CSTLogger@@AEAA_NH@Z
$stateUnwindMap$?_init@CSTLogger@@AEAA_NH@Z DD 0ffffffffH
	DD	imagerel ?dtor$0@?0??_init@CSTLogger@@AEAA_NH@Z@4HA
	DD	0ffffffffH
	DD	imagerel ?dtor$1@?0??_init@CSTLogger@@AEAA_NH@Z@4HA
$ip2state$?_init@CSTLogger@@AEAA_NH@Z DD imagerel ?_init@CSTLogger@@AEAA_NH@Z
	DD	0ffffffffH
	DD	imagerel ?_init@CSTLogger@@AEAA_NH@Z+58
	DD	00H
	DD	imagerel ?_init@CSTLogger@@AEAA_NH@Z+117
	DD	0ffffffffH
	DD	imagerel ?_init@CSTLogger@@AEAA_NH@Z+175
	DD	01H
	DD	imagerel ?_init@CSTLogger@@AEAA_NH@Z+234
	DD	0ffffffffH
$unwind$?dtor$0@?0??_init@CSTLogger@@AEAA_NH@Z@4HA DD 031001H
	DD	0700c4210H
	DD	0500bH
$unwind$?dtor$1@?0??_init@CSTLogger@@AEAA_NH@Z@4HA DD 031001H
	DD	0700c4210H
	DD	0500bH
$unwind$?schedulerLoop@@YAXPEAUSTThreadInfo@@@Z DD 023019H
	DD	07006d20aH
	DD	imagerel __GSHandlerCheck
	DD	060H
$unwind$??0CScheduler@@QEAA@XZ DD 021e01H
	DD	07006320aH
$unwind$??1CScheduler@@QEAA@XZ DD 022719H
	DD	07006520aH
	DD	imagerel __CxxFrameHandler3
	DD	imagerel $cppxdata$??1CScheduler@@QEAA@XZ
$ip2state$??1CScheduler@@QEAA@XZ DD imagerel ??1CScheduler@@QEAA@XZ
	DD	0ffffffffH
$unwind$?initConfig@CScheduler@@QEAA_NPEADH0@Z DD 034e19H
	DD	012011cH
	DD	07015H
	DD	imagerel __GSHandlerCheck_EH
	DD	imagerel $cppxdata$?initConfig@CScheduler@@QEAA_NPEADH0@Z
	DD	08aH
$stateUnwindMap$?initConfig@CScheduler@@QEAA_NPEADH0@Z DD 0ffffffffH
	DD	imagerel ?dtor$0@?0??initConfig@CScheduler@@QEAA_NPEADH0@Z@4HA
$ip2state$?initConfig@CScheduler@@QEAA_NPEADH0@Z DD imagerel ?initConfig@CScheduler@@QEAA_NPEADH0@Z
	DD	0ffffffffH
	DD	imagerel ?initConfig@CScheduler@@QEAA_NPEADH0@Z+271
	DD	00H
	DD	imagerel ?initConfig@CScheduler@@QEAA_NPEADH0@Z+330
	DD	0ffffffffH
$unwind$?dtor$0@?0??initConfig@CScheduler@@QEAA_NPEADH0@Z@4HA DD 031001H
	DD	0700c4210H
	DD	0500bH
$unwind$?init@CScheduler@@QEAA_NHHH@Z DD 023511H
	DD	07014b218H
	DD	imagerel __CxxFrameHandler3
	DD	imagerel $cppxdata$?init@CScheduler@@QEAA_NHHH@Z
$stateUnwindMap$?init@CScheduler@@QEAA_NHHH@Z DD 0ffffffffH
	DD	imagerel ?dtor$0@?0??init@CScheduler@@QEAA_NHHH@Z@4HA
$ip2state$?init@CScheduler@@QEAA_NHHH@Z DD imagerel ?init@CScheduler@@QEAA_NHHH@Z
	DD	0ffffffffH
	DD	imagerel ?init@CScheduler@@QEAA_NHHH@Z+126
	DD	00H
	DD	imagerel ?init@CScheduler@@QEAA_NHHH@Z+185
	DD	0ffffffffH
$unwind$?dtor$0@?0??init@CScheduler@@QEAA_NHHH@Z@4HA DD 031001H
	DD	0700c4210H
	DD	0500bH
$unwind$?start@CScheduler@@QEAA_NXZ DD 021e01H
	DD	07006520aH
$unwind$?quit@CScheduler@@QEAA_NXZ DD 021e01H
	DD	07006720aH
$unwind$?eventThreadLoop@@YAXPEAUSTThreadInfo@@@Z DD 021e01H
	DD	07006520aH
$unwind$??0CComQueueThread@@QEAA@XZ DD 022711H
	DD	07006520aH
	DD	imagerel __CxxFrameHandler3
	DD	imagerel $cppxdata$??0CComQueueThread@@QEAA@XZ
$stateUnwindMap$??0CComQueueThread@@QEAA@XZ DD 0ffffffffH
	DD	imagerel ?dtor$0@?0???0CComQueueThread@@QEAA@XZ@4HA
$ip2state$??0CComQueueThread@@QEAA@XZ DD imagerel ??0CComQueueThread@@QEAA@XZ
	DD	0ffffffffH
	DD	imagerel ??0CComQueueThread@@QEAA@XZ+53
	DD	00H
	DD	imagerel ??0CComQueueThread@@QEAA@XZ+71
	DD	0ffffffffH
$unwind$?dtor$0@?0???0CComQueueThread@@QEAA@XZ@4HA DD 031001H
	DD	0700c4210H
	DD	0500bH
$unwind$??1CComQueueThread@@QEAA@XZ DD 022719H
	DD	07006520aH
	DD	imagerel __CxxFrameHandler3
	DD	imagerel $cppxdata$??1CComQueueThread@@QEAA@XZ
$ip2state$??1CComQueueThread@@QEAA@XZ DD imagerel ??1CComQueueThread@@QEAA@XZ
	DD	0ffffffffH
$unwind$?initConfig@CComQueueThread@@QEAA_NPEADH0@Z DD 023c19H
	DD	07015b219H
	DD	imagerel __GSHandlerCheck
	DD	050H
$unwind$?init@CComQueueThread@@QEAA_NHH@Z DD 022701H
	DD	0700f3213H
$unwind$?start@CComQueueThread@@QEAA_NXZ DD 021e01H
	DD	07006520aH
$unwind$?quit@CComQueueThread@@QEAA_NXZ DD 021e01H
	DD	07006320aH
$unwind$??0CCoreList@@QEAA@XZ DD 022711H
	DD	07006720aH
	DD	imagerel __CxxFrameHandler3
	DD	imagerel $cppxdata$??0CCoreList@@QEAA@XZ
$stateUnwindMap$??0CCoreList@@QEAA@XZ DD 0ffffffffH
	DD	imagerel ?dtor$0@?0???0CCoreList@@QEAA@XZ@4HA
$ip2state$??0CCoreList@@QEAA@XZ DD imagerel ??0CCoreList@@QEAA@XZ
	DD	0ffffffffH
	DD	imagerel ??0CCoreList@@QEAA@XZ+138
	DD	00H
	DD	imagerel ??0CCoreList@@QEAA@XZ+182
	DD	0ffffffffH
$unwind$?dtor$0@?0???0CCoreList@@QEAA@XZ@4HA DD 031001H
	DD	0700c4210H
	DD	0500bH
$unwind$??1CCoreList@@QEAA@XZ DD 022719H
	DD	07006520aH
	DD	imagerel __CxxFrameHandler3
	DD	imagerel $cppxdata$??1CCoreList@@QEAA@XZ
$ip2state$??1CCoreList@@QEAA@XZ DD imagerel ??1CCoreList@@QEAA@XZ
	DD	0ffffffffH
$unwind$?initSystemFile@CCoreList@@QEAA_NXZ DD 033619H
	DD	022010dH
	DD	07006H
	DD	imagerel __GSHandlerCheck
	DD	0100H
$unwind$?initDefaultPool@CCoreList@@QEAA_NHHH@Z DD 034419H
	DD	018011bH
	DD	07014H
	DD	imagerel __GSHandlerCheck
	DD	0b0H
$unwind$?initLogger@CCoreList@@QEAA_NPEAVCLogger@@PEAD1@Z DD 022d01H
	DD	070159219H
$unwind$?initLogger@CCoreList@@QEAA_NPEAVCLogger@@@Z DD 022301H
	DD	0700b520fH
$unwind$?setLoggerEnable@CCoreList@@QEAA_NPEAVCLogger@@@Z DD 022301H
	DD	0700b520fH
$unwind$?setLoggerDisable@CCoreList@@QEAA_NPEAVCLogger@@@Z DD 022301H
	DD	0700b520fH
$unwind$?start@CCoreList@@QEAA_NXZ DD 034219H
	DD	020010dH
	DD	07006H
	DD	imagerel __GSHandlerCheck_EH
	DD	imagerel $cppxdata$?start@CCoreList@@QEAA_NXZ
	DD	0f2H
$stateUnwindMap$?start@CCoreList@@QEAA_NXZ DD 0ffffffffH
	DD	imagerel ?dtor$0@?0??start@CCoreList@@QEAA_NXZ@4HA
$ip2state$?start@CCoreList@@QEAA_NXZ DD imagerel ?start@CCoreList@@QEAA_NXZ
	DD	0ffffffffH
	DD	imagerel ?start@CCoreList@@QEAA_NXZ+85
	DD	00H
	DD	imagerel ?start@CCoreList@@QEAA_NXZ+690
	DD	0ffffffffH
	DD	imagerel ?start@CCoreList@@QEAA_NXZ+710
	DD	00H
	DD	imagerel ?start@CCoreList@@QEAA_NXZ+731
	DD	0ffffffffH
$unwind$?dtor$0@?0??start@CCoreList@@QEAA_NXZ@4HA DD 031001H
	DD	0700c4210H
	DD	0500bH
$unwind$?destroy@CCoreList@@QEAAXXZ DD 032401H
	DD	016010dH
	DD	07006H
$unwind$?putEvent@CCoreList@@QEAA_NPEAUSTEvent@@@Z DD 022301H
	DD	0700b520fH
$unwind$?putTimer@CCoreList@@QEAA_NPEAUSTIntervalInfo@@@Z DD 022301H
	DD	0700b520fH
$unwind$?addComThread@CCoreList@@QEAAHP6AXPEAUSTThreadInfo@@@ZPEAXH2@Z DD 035119H
	DD	014011cH
	DD	07015H
	DD	imagerel __GSHandlerCheck_EH
	DD	imagerel $cppxdata$?addComThread@CCoreList@@QEAAHP6AXPEAUSTThreadInfo@@@ZPEAXH2@Z
	DD	09aH
$stateUnwindMap$?addComThread@CCoreList@@QEAAHP6AXPEAUSTThreadInfo@@@ZPEAXH2@Z DD 0ffffffffH
	DD	imagerel ?dtor$0@?0??addComThread@CCoreList@@QEAAHP6AXPEAUSTThreadInfo@@@ZPEAXH2@Z@4HA
$ip2state$?addComThread@CCoreList@@QEAAHP6AXPEAUSTThreadInfo@@@ZPEAXH2@Z DD imagerel ?addComThread@CCoreList@@QEAAHP6AXPEAUSTThreadInfo@@@ZPEAXH2@Z
	DD	0ffffffffH
	DD	imagerel ?addComThread@CCoreList@@QEAAHP6AXPEAUSTThreadInfo@@@ZPEAXH2@Z+153
	DD	00H
	DD	imagerel ?addComThread@CCoreList@@QEAAHP6AXPEAUSTThreadInfo@@@ZPEAXH2@Z+206
	DD	0ffffffffH
$unwind$?dtor$0@?0??addComThread@CCoreList@@QEAAHP6AXPEAUSTThreadInfo@@@ZPEAXH2@Z@4HA DD 031001H
	DD	0700c4210H
	DD	0500bH
$unwind$?delComThread@CCoreList@@QEAA_NH@Z DD 022201H
	DD	0700a720eH
$unwind$?addLogWriter@CCoreList@@QEAAHH@Z DD 034319H
	DD	0120111H
	DD	0700aH
	DD	imagerel __GSHandlerCheck_EH
	DD	imagerel $cppxdata$?addLogWriter@CCoreList@@QEAAHH@Z
	DD	082H
$stateUnwindMap$?addLogWriter@CCoreList@@QEAAHH@Z DD 0ffffffffH
	DD	imagerel ?dtor$0@?0??addLogWriter@CCoreList@@QEAAHH@Z@4HA
$ip2state$?addLogWriter@CCoreList@@QEAAHH@Z DD imagerel ?addLogWriter@CCoreList@@QEAAHH@Z
	DD	0ffffffffH
	DD	imagerel ?addLogWriter@CCoreList@@QEAAHH@Z+138
	DD	00H
	DD	imagerel ?addLogWriter@CCoreList@@QEAAHH@Z+182
	DD	0ffffffffH
$unwind$?dtor$0@?0??addLogWriter@CCoreList@@QEAAHH@Z@4HA DD 031001H
	DD	0700c4210H
	DD	0500bH
$unwind$?addScheduler@CCoreList@@QEAAHHH@Z DD 034819H
	DD	0140116H
	DD	0700fH
	DD	imagerel __GSHandlerCheck_EH
	DD	imagerel $cppxdata$?addScheduler@CCoreList@@QEAAHHH@Z
	DD	092H
$stateUnwindMap$?addScheduler@CCoreList@@QEAAHHH@Z DD 0ffffffffH
	DD	imagerel ?dtor$0@?0??addScheduler@CCoreList@@QEAAHHH@Z@4HA
$ip2state$?addScheduler@CCoreList@@QEAAHHH@Z DD imagerel ?addScheduler@CCoreList@@QEAAHHH@Z
	DD	0ffffffffH
	DD	imagerel ?addScheduler@CCoreList@@QEAAHHH@Z+147
	DD	00H
	DD	imagerel ?addScheduler@CCoreList@@QEAAHHH@Z+200
	DD	0ffffffffH
$unwind$?dtor$0@?0??addScheduler@CCoreList@@QEAAHHH@Z@4HA DD 031001H
	DD	0700c4210H
	DD	0500bH
$unwind$?addQueueThread@CCoreList@@QEAAHH@Z DD 034319H
	DD	0120111H
	DD	0700aH
	DD	imagerel __GSHandlerCheck_EH
	DD	imagerel $cppxdata$?addQueueThread@CCoreList@@QEAAHH@Z
	DD	082H
$stateUnwindMap$?addQueueThread@CCoreList@@QEAAHH@Z DD 0ffffffffH
	DD	imagerel ?dtor$0@?0??addQueueThread@CCoreList@@QEAAHH@Z@4HA
$ip2state$?addQueueThread@CCoreList@@QEAAHH@Z DD imagerel ?addQueueThread@CCoreList@@QEAAHH@Z
	DD	0ffffffffH
	DD	imagerel ?addQueueThread@CCoreList@@QEAAHH@Z+142
	DD	00H
	DD	imagerel ?addQueueThread@CCoreList@@QEAAHH@Z+186
	DD	0ffffffffH
$unwind$?dtor$0@?0??addQueueThread@CCoreList@@QEAAHH@Z@4HA DD 031001H
	DD	0700c4210H
	DD	0500bH
$unwind$?initComThread@CCoreList@@QEAA_NPEAD0@Z DD 034919H
	DD	0140117H
	DD	07010H
	DD	imagerel __GSHandlerCheck_EH
	DD	imagerel $cppxdata$?initComThread@CCoreList@@QEAA_NPEAD0@Z
	DD	092H
$stateUnwindMap$?initComThread@CCoreList@@QEAA_NPEAD0@Z DD 0ffffffffH
	DD	imagerel ?dtor$0@?0??initComThread@CCoreList@@QEAA_NPEAD0@Z@4HA
	DD	0ffffffffH
	DD	imagerel ?dtor$1@?0??initComThread@CCoreList@@QEAA_NPEAD0@Z@4HA
$ip2state$?initComThread@CCoreList@@QEAA_NPEAD0@Z DD imagerel ?initComThread@CCoreList@@QEAA_NPEAD0@Z
	DD	0ffffffffH
	DD	imagerel ?initComThread@CCoreList@@QEAA_NPEAD0@Z+154
	DD	00H
	DD	imagerel ?initComThread@CCoreList@@QEAA_NPEAD0@Z+222
	DD	0ffffffffH
	DD	imagerel ?initComThread@CCoreList@@QEAA_NPEAD0@Z+360
	DD	01H
	DD	imagerel ?initComThread@CCoreList@@QEAA_NPEAD0@Z+413
	DD	0ffffffffH
$unwind$?dtor$0@?0??initComThread@CCoreList@@QEAA_NPEAD0@Z@4HA DD 031001H
	DD	0700c4210H
	DD	0500bH
$unwind$?dtor$1@?0??initComThread@CCoreList@@QEAA_NPEAD0@Z@4HA DD 031001H
	DD	0700c4210H
	DD	0500bH
$unwind$?initLogWriter@CCoreList@@QEAA_NPEAD0_N@Z DD 035119H
	DD	026011cH
	DD	07015H
	DD	imagerel __GSHandlerCheck_EH
	DD	imagerel $cppxdata$?initLogWriter@CCoreList@@QEAA_NPEAD0_N@Z
	DD	012aH
$stateUnwindMap$?initLogWriter@CCoreList@@QEAA_NPEAD0_N@Z DD 0ffffffffH
	DD	imagerel ?dtor$0@?0??initLogWriter@CCoreList@@QEAA_NPEAD0_N@Z@4HA
	DD	0ffffffffH
	DD	imagerel ?dtor$1@?0??initLogWriter@CCoreList@@QEAA_NPEAD0_N@Z@4HA
$ip2state$?initLogWriter@CCoreList@@QEAA_NPEAD0_N@Z DD imagerel ?initLogWriter@CCoreList@@QEAA_NPEAD0_N@Z
	DD	0ffffffffH
	DD	imagerel ?initLogWriter@CCoreList@@QEAA_NPEAD0_N@Z+167
	DD	00H
	DD	imagerel ?initLogWriter@CCoreList@@QEAA_NPEAD0_N@Z+247
	DD	0ffffffffH
	DD	imagerel ?initLogWriter@CCoreList@@QEAA_NPEAD0_N@Z+414
	DD	01H
	DD	imagerel ?initLogWriter@CCoreList@@QEAA_NPEAD0_N@Z+476
	DD	0ffffffffH
$unwind$?dtor$0@?0??initLogWriter@CCoreList@@QEAA_NPEAD0_N@Z@4HA DD 031001H
	DD	0700c4210H
	DD	0500bH
$unwind$?dtor$1@?0??initLogWriter@CCoreList@@QEAA_NPEAD0_N@Z@4HA DD 031001H
	DD	0700c4210H
	DD	0500bH
$unwind$?initScheduler@CCoreList@@QEAA_NPEAD0@Z DD 034c19H
	DD	02a0117H
	DD	07010H
	DD	imagerel __GSHandlerCheck_EH
	DD	imagerel $cppxdata$?initScheduler@CCoreList@@QEAA_NPEAD0@Z
	DD	0142H
$stateUnwindMap$?initScheduler@CCoreList@@QEAA_NPEAD0@Z DD 0ffffffffH
	DD	imagerel ?dtor$0@?0??initScheduler@CCoreList@@QEAA_NPEAD0@Z@4HA
	DD	0ffffffffH
	DD	imagerel ?dtor$1@?0??initScheduler@CCoreList@@QEAA_NPEAD0@Z@4HA
	DD	0ffffffffH
	DD	imagerel ?dtor$2@?0??initScheduler@CCoreList@@QEAA_NPEAD0@Z@4HA
$ip2state$?initScheduler@CCoreList@@QEAA_NPEAD0@Z DD imagerel ?initScheduler@CCoreList@@QEAA_NPEAD0@Z
	DD	0ffffffffH
	DD	imagerel ?initScheduler@CCoreList@@QEAA_NPEAD0@Z+167
	DD	00H
	DD	imagerel ?initScheduler@CCoreList@@QEAA_NPEAD0@Z+229
	DD	0ffffffffH
	DD	imagerel ?initScheduler@CCoreList@@QEAA_NPEAD0@Z+465
	DD	01H
	DD	imagerel ?initScheduler@CCoreList@@QEAA_NPEAD0@Z+527
	DD	0ffffffffH
	DD	imagerel ?initScheduler@CCoreList@@QEAA_NPEAD0@Z+660
	DD	02H
	DD	imagerel ?initScheduler@CCoreList@@QEAA_NPEAD0@Z+722
	DD	0ffffffffH
$unwind$?dtor$0@?0??initScheduler@CCoreList@@QEAA_NPEAD0@Z@4HA DD 031001H
	DD	0700c4210H
	DD	0500bH
$unwind$?dtor$1@?0??initScheduler@CCoreList@@QEAA_NPEAD0@Z@4HA DD 031001H
	DD	0700c4210H
	DD	0500bH
$unwind$?dtor$2@?0??initScheduler@CCoreList@@QEAA_NPEAD0@Z@4HA DD 031001H
	DD	0700c4210H
	DD	0500bH
$unwind$?initQueueThread@CCoreList@@QEAA_NPEAD0@Z DD 034c19H
	DD	0160117H
	DD	07010H
	DD	imagerel __GSHandlerCheck_EH
	DD	imagerel $cppxdata$?initQueueThread@CCoreList@@QEAA_NPEAD0@Z
	DD	0aaH
$stateUnwindMap$?initQueueThread@CCoreList@@QEAA_NPEAD0@Z DD 0ffffffffH
	DD	imagerel ?dtor$0@?0??initQueueThread@CCoreList@@QEAA_NPEAD0@Z@4HA
	DD	0ffffffffH
	DD	imagerel ?dtor$1@?0??initQueueThread@CCoreList@@QEAA_NPEAD0@Z@4HA
	DD	0ffffffffH
	DD	imagerel ?dtor$2@?0??initQueueThread@CCoreList@@QEAA_NPEAD0@Z@4HA
$ip2state$?initQueueThread@CCoreList@@QEAA_NPEAD0@Z DD imagerel ?initQueueThread@CCoreList@@QEAA_NPEAD0@Z
	DD	0ffffffffH
	DD	imagerel ?initQueueThread@CCoreList@@QEAA_NPEAD0@Z+138
	DD	00H
	DD	imagerel ?initQueueThread@CCoreList@@QEAA_NPEAD0@Z+206
	DD	0ffffffffH
	DD	imagerel ?initQueueThread@CCoreList@@QEAA_NPEAD0@Z+340
	DD	01H
	DD	imagerel ?initQueueThread@CCoreList@@QEAA_NPEAD0@Z+408
	DD	0ffffffffH
	DD	imagerel ?initQueueThread@CCoreList@@QEAA_NPEAD0@Z+538
	DD	02H
	DD	imagerel ?initQueueThread@CCoreList@@QEAA_NPEAD0@Z+597
	DD	0ffffffffH
$unwind$?dtor$0@?0??initQueueThread@CCoreList@@QEAA_NPEAD0@Z@4HA DD 031001H
	DD	0700c4210H
	DD	0500bH
$unwind$?dtor$1@?0??initQueueThread@CCoreList@@QEAA_NPEAD0@Z@4HA DD 031001H
	DD	0700c4210H
	DD	0500bH
$unwind$?dtor$2@?0??initQueueThread@CCoreList@@QEAA_NPEAD0@Z@4HA DD 031001H
	DD	0700c4210H
	DD	0500bH
$unwind$?initComThread@CCoreList@@QEAA_NH@Z DD 034619H
	DD	01e0111H
	DD	0700aH
	DD	imagerel __GSHandlerCheck_EH
	DD	imagerel $cppxdata$?initComThread@CCoreList@@QEAA_NH@Z
	DD	0e2H
$stateUnwindMap$?initComThread@CCoreList@@QEAA_NH@Z DD 0ffffffffH
	DD	imagerel ?dtor$0@?0??initComThread@CCoreList@@QEAA_NH@Z@4HA
$ip2state$?initComThread@CCoreList@@QEAA_NH@Z DD imagerel ?initComThread@CCoreList@@QEAA_NH@Z
	DD	0ffffffffH
	DD	imagerel ?initComThread@CCoreList@@QEAA_NH@Z+114
	DD	00H
	DD	imagerel ?initComThread@CCoreList@@QEAA_NH@Z+176
	DD	0ffffffffH
$unwind$?dtor$0@?0??initComThread@CCoreList@@QEAA_NH@Z@4HA DD 031001H
	DD	0700c4210H
	DD	0500bH
$unwind$?initLogWriter@CCoreList@@QEAA_NH@Z DD 034619H
	DD	01e0111H
	DD	0700aH
	DD	imagerel __GSHandlerCheck_EH
	DD	imagerel $cppxdata$?initLogWriter@CCoreList@@QEAA_NH@Z
	DD	0e2H
$stateUnwindMap$?initLogWriter@CCoreList@@QEAA_NH@Z DD 0ffffffffH
	DD	imagerel ?dtor$0@?0??initLogWriter@CCoreList@@QEAA_NH@Z@4HA
$ip2state$?initLogWriter@CCoreList@@QEAA_NH@Z DD imagerel ?initLogWriter@CCoreList@@QEAA_NH@Z
	DD	0ffffffffH
	DD	imagerel ?initLogWriter@CCoreList@@QEAA_NH@Z+113
	DD	00H
	DD	imagerel ?initLogWriter@CCoreList@@QEAA_NH@Z+175
	DD	0ffffffffH
$unwind$?dtor$0@?0??initLogWriter@CCoreList@@QEAA_NH@Z@4HA DD 031001H
	DD	0700c4210H
	DD	0500bH
$unwind$?initScheduler@CCoreList@@QEAA_NHH@Z DD 034b19H
	DD	0200116H
	DD	0700fH
	DD	imagerel __GSHandlerCheck_EH
	DD	imagerel $cppxdata$?initScheduler@CCoreList@@QEAA_NHH@Z
	DD	0faH
$stateUnwindMap$?initScheduler@CCoreList@@QEAA_NHH@Z DD 0ffffffffH
	DD	imagerel ?dtor$0@?0??initScheduler@CCoreList@@QEAA_NHH@Z@4HA
	DD	0ffffffffH
	DD	imagerel ?dtor$1@?0??initScheduler@CCoreList@@QEAA_NHH@Z@4HA
$ip2state$?initScheduler@CCoreList@@QEAA_NHH@Z DD imagerel ?initScheduler@CCoreList@@QEAA_NHH@Z
	DD	0ffffffffH
	DD	imagerel ?initScheduler@CCoreList@@QEAA_NHH@Z+112
	DD	00H
	DD	imagerel ?initScheduler@CCoreList@@QEAA_NHH@Z+192
	DD	0ffffffffH
	DD	imagerel ?initScheduler@CCoreList@@QEAA_NHH@Z+359
	DD	01H
	DD	imagerel ?initScheduler@CCoreList@@QEAA_NHH@Z+439
	DD	0ffffffffH
$unwind$?dtor$0@?0??initScheduler@CCoreList@@QEAA_NHH@Z@4HA DD 031001H
	DD	0700c4210H
	DD	0500bH
$unwind$?dtor$1@?0??initScheduler@CCoreList@@QEAA_NHH@Z@4HA DD 031001H
	DD	0700c4210H
	DD	0500bH
$unwind$?initQueueThread@CCoreList@@QEAA_NHH@Z DD 034b19H
	DD	0200116H
	DD	0700fH
	DD	imagerel __GSHandlerCheck_EH
	DD	imagerel $cppxdata$?initQueueThread@CCoreList@@QEAA_NHH@Z
	DD	0faH
$stateUnwindMap$?initQueueThread@CCoreList@@QEAA_NHH@Z DD 0ffffffffH
	DD	imagerel ?dtor$0@?0??initQueueThread@CCoreList@@QEAA_NHH@Z@4HA
	DD	0ffffffffH
	DD	imagerel ?dtor$1@?0??initQueueThread@CCoreList@@QEAA_NHH@Z@4HA
$ip2state$?initQueueThread@CCoreList@@QEAA_NHH@Z DD imagerel ?initQueueThread@CCoreList@@QEAA_NHH@Z
	DD	0ffffffffH
	DD	imagerel ?initQueueThread@CCoreList@@QEAA_NHH@Z+112
	DD	00H
	DD	imagerel ?initQueueThread@CCoreList@@QEAA_NHH@Z+192
	DD	0ffffffffH
	DD	imagerel ?initQueueThread@CCoreList@@QEAA_NHH@Z+359
	DD	01H
	DD	imagerel ?initQueueThread@CCoreList@@QEAA_NHH@Z+439
	DD	0ffffffffH
$unwind$?dtor$0@?0??initQueueThread@CCoreList@@QEAA_NHH@Z@4HA DD 031001H
	DD	0700c4210H
	DD	0500bH
$unwind$?dtor$1@?0??initQueueThread@CCoreList@@QEAA_NHH@Z@4HA DD 031001H
	DD	0700c4210H
	DD	0500bH
$unwind$?setListAllocType@CCoreList@@QEAAXW4E_ALLOC_TYPE@@W4E_SYS_LIST_TYPE@@@Z DD 022701H
	DD	0700f5213H
xdata	ENDS
;	COMDAT xdata
xdata	SEGMENT
$unwind$??1STThreadInfo@@QEAA@XZ DD 021e01H
	DD	07006320aH
xdata	ENDS
;	COMDAT xdata
xdata	SEGMENT
$unwind$??0STThreadInfo@@QEAA@XZ DD 021e01H
	DD	07006320aH
xdata	ENDS
;	COMDAT xdata
xdata	SEGMENT
$ip2state$??_ECLogger@@QEAAPEAXI@Z DD imagerel ??_ECLogger@@QEAAPEAXI@Z
	DD	0ffffffffH
xdata	ENDS
;	COMDAT CONST
CONST	SEGMENT
$cppxdata$??_ECLogger@@QEAAPEAXI@Z DD 019930522H
	DD	00H
	DD	00H
	DD	00H
	DD	00H
	DD	01H
	DD	imagerel $ip2state$??_ECLogger@@QEAAPEAXI@Z
	DD	020H
	DD	00H
	DD	05H
CONST	ENDS
;	COMDAT xdata
xdata	SEGMENT
$unwind$??_ECLogger@@QEAAPEAXI@Z DD 022b19H
	DD	0700a520eH
	DD	imagerel __CxxFrameHandler3
	DD	imagerel $cppxdata$??_ECLogger@@QEAAPEAXI@Z
xdata	ENDS
;	COMDAT xdata
xdata	SEGMENT
$unwind$??_GCLogger@@QEAAPEAXI@Z DD 022201H
	DD	0700a320eH
xdata	ENDS
;	COMDAT xdata
xdata	SEGMENT
$unwind$?setCondition@CLogger@@QEAAXPEAVcondition@win32@common@@@Z DD 010b01H
	DD	0700bH
xdata	ENDS
;	COMDAT xdata
xdata	SEGMENT
$unwind$?getLogName@CLogger@@QEAAPEADXZ DD 010601H
	DD	07006H
xdata	ENDS
;	COMDAT xdata
xdata	SEGMENT
$unwind$?pop@CLogger@@QEAAPEADXZ DD 021e01H
	DD	07006320aH
xdata	ENDS
;	COMDAT xdata
xdata	SEGMENT
$unwind$?isLogFlag@CLogger@@QEAA_NW4E_LOG_FLAG@@@Z DD 022201H
	DD	0700a120eH
xdata	ENDS
;	COMDAT xdata
xdata	SEGMENT
$unwind$?clearLogFlag@CLogger@@QEAAXW4E_LOG_FLAG@@@Z DD 010a01H
	DD	0700aH
xdata	ENDS
;	COMDAT xdata
xdata	SEGMENT
$unwind$?setLogFlag@CLogger@@QEAAXW4E_LOG_FLAG@@@Z DD 010a01H
	DD	0700aH
xdata	ENDS
;	COMDAT xdata
xdata	SEGMENT
$unwind$?getSTLNo@CLogger@@QEAAHXZ DD 010601H
	DD	07006H
xdata	ENDS
;	COMDAT xdata
xdata	SEGMENT
$unwind$?addLogSize@CLogger@@QEAAXH@Z DD 010a01H
	DD	0700aH
xdata	ENDS
;	COMDAT xdata
xdata	SEGMENT
$unwind$?delBuf@CMemManager@@QEAAXPEADH@Z DD 022801H
	DD	070105214H
xdata	ENDS
;	COMDAT xdata
xdata	SEGMENT
$unwind$?newBuf@CMemManager@@QEAAPEADH@Z DD 022201H
	DD	0700a520eH
xdata	ENDS
;	COMDAT xdata
xdata	SEGMENT
$unwind$?getIndex@@YAHH@Z DD 021c01H
	DD	070059209H
xdata	ENDS
;	COMDAT CONST
CONST	SEGMENT
?getIndex@@YAHH@Z$rtcName$0 DB 024H			; getIndex
	DB	053H
	DB	031H
	DB	00H
	ORG $+12
?getIndex@@YAHH@Z$rtcVarDesc DD 038H			; getIndex
	DD	08H
	DQ	FLAT:?getIndex@@YAHH@Z$rtcName$0
	ORG $+48
?getIndex@@YAHH@Z$rtcFrameData DD 01H			; getIndex
	DD	00H
	DQ	FLAT:?getIndex@@YAHH@Z$rtcVarDesc
CONST	ENDS
;	COMDAT xdata
xdata	SEGMENT
$unwind$?Sec@CDateTime@@QEAAHXZ DD 010601H
	DD	07006H
xdata	ENDS
;	COMDAT xdata
xdata	SEGMENT
$unwind$?Minute@CDateTime@@QEAAHXZ DD 010601H
	DD	07006H
xdata	ENDS
;	COMDAT xdata
xdata	SEGMENT
$unwind$?Hour@CDateTime@@QEAAHXZ DD 010601H
	DD	07006H
xdata	ENDS
;	COMDAT xdata
xdata	SEGMENT
$unwind$?Mday@CDateTime@@QEAAHXZ DD 010601H
	DD	07006H
xdata	ENDS
;	COMDAT xdata
xdata	SEGMENT
$unwind$?Month@CDateTime@@QEAAHXZ DD 010601H
	DD	07006H
xdata	ENDS
;	COMDAT xdata
xdata	SEGMENT
$unwind$?Year@CDateTime@@QEAAHXZ DD 010601H
	DD	07006H
xdata	ENDS
;	COMDAT xdata
xdata	SEGMENT
$unwind$??_GCQueueS@@QEAAPEAXI@Z DD 022201H
	DD	0700a320eH
xdata	ENDS
;	COMDAT xdata
xdata	SEGMENT
$unwind$?__autoclassinit2@CQueueS@@QEAAX_K@Z DD 010b01H
	DD	0700bH
xdata	ENDS
;	COMDAT xdata
xdata	SEGMENT
$unwind$?comGlobalErrorProc@@YAXPEADPEBDH@Z DD 022801H
	DD	070105214H
xdata	ENDS
;	COMDAT xdata
xdata	SEGMENT
$unwind$?ISINCLUDE@@YA_NHH@Z DD 010901H
	DD	07009H
xdata	ENDS
;	COMDAT xdata
xdata	SEGMENT
$unwind$?ISABLETODELETE@@YA_NW4E_ALLOC_TYPE@@@Z DD 010501H
	DD	07005H
xdata	ENDS
;	COMDAT xdata
xdata	SEGMENT
$ip2state$??_Ewin64_atomic@win32@common@@QEAAPEAXI@Z DD imagerel ??_Ewin64_atomic@win32@common@@QEAAPEAXI@Z
	DD	0ffffffffH
xdata	ENDS
;	COMDAT CONST
CONST	SEGMENT
$cppxdata$??_Ewin64_atomic@win32@common@@QEAAPEAXI@Z DD 019930522H
	DD	00H
	DD	00H
	DD	00H
	DD	00H
	DD	01H
	DD	imagerel $ip2state$??_Ewin64_atomic@win32@common@@QEAAPEAXI@Z
	DD	020H
	DD	00H
	DD	05H
CONST	ENDS
;	COMDAT xdata
xdata	SEGMENT
$unwind$??_Ewin64_atomic@win32@common@@QEAAPEAXI@Z DD 022b19H
	DD	0700a520eH
	DD	imagerel __CxxFrameHandler3
	DD	imagerel $cppxdata$??_Ewin64_atomic@win32@common@@QEAAPEAXI@Z
xdata	ENDS
;	COMDAT xdata
xdata	SEGMENT
$unwind$?atomic_compare_exchange@win64_atomic@win32@common@@QEAA_J_J0@Z DD 022801H
	DD	070101214H
xdata	ENDS
;	COMDAT xdata
xdata	SEGMENT
$unwind$?atomic_decrement@win64_atomic@win32@common@@QEAA_JXZ DD 010601H
	DD	07006H
xdata	ENDS
;	COMDAT xdata
xdata	SEGMENT
$unwind$?atomic_increment@win64_atomic@win32@common@@QEAA_JXZ DD 010601H
	DD	07006H
xdata	ENDS
;	COMDAT xdata
xdata	SEGMENT
$unwind$?init@win64_atomic@win32@common@@QEAAXXZ DD 010601H
	DD	07006H
xdata	ENDS
;	COMDAT xdata
xdata	SEGMENT
$unwind$?setCount@win64_atomic@win32@common@@QEAAXH@Z DD 010a01H
	DD	0700aH
xdata	ENDS
;	COMDAT xdata
xdata	SEGMENT
$unwind$?getCount@win64_atomic@win32@common@@QEAAHXZ DD 010601H
	DD	07006H
xdata	ENDS
;	COMDAT xdata
xdata	SEGMENT
$unwind$??1win64_atomic@win32@common@@QEAA@XZ DD 010601H
	DD	07006H
xdata	ENDS
;	COMDAT xdata
xdata	SEGMENT
$unwind$??0win64_atomic@win32@common@@QEAA@XZ DD 010601H
	DD	07006H
xdata	ENDS
;	COMDAT xdata
xdata	SEGMENT
$unwind$??_Gcondition@win32@common@@UEAAPEAXI@Z DD 022201H
	DD	0700a320eH
xdata	ENDS
;	COMDAT xdata
xdata	SEGMENT
$unwind$?wait@condition@win32@common@@QEAA_NHPEAVcritical_section@23@@Z DD 022701H
	DD	0700f5213H
xdata	ENDS
;	COMDAT xdata
xdata	SEGMENT
$unwind$?signal_all@condition@win32@common@@UEAAXXZ DD 021e01H
	DD	07006320aH
xdata	ENDS
;	COMDAT xdata
xdata	SEGMENT
$unwind$?signal@condition@win32@common@@UEAAXXZ DD 021e01H
	DD	07006320aH
xdata	ENDS
;	COMDAT xdata
xdata	SEGMENT
$unwind$??1condition@win32@common@@UEAA@XZ DD 021e01H
	DD	07006320aH
xdata	ENDS
;	COMDAT xdata
xdata	SEGMENT
$unwind$??0condition@win32@common@@QEAA@XZ DD 021e01H
	DD	07006320aH
xdata	ENDS
;	COMDAT xdata
xdata	SEGMENT
$unwind$??_Gabstract_condition@common@@UEAAPEAXI@Z DD 022201H
	DD	0700a320eH
xdata	ENDS
;	COMDAT xdata
xdata	SEGMENT
$unwind$??0abstract_condition@common@@QEAA@XZ DD 010601H
	DD	07006H
xdata	ENDS
;	COMDAT xdata
xdata	SEGMENT
$unwind$??1abstract_condition@common@@UEAA@XZ DD 010601H
	DD	07006H
xdata	ENDS
;	COMDAT xdata
xdata	SEGMENT
$unwind$sprintf DD 023c19H
	DD	07015b219H
	DD	imagerel __GSHandlerCheck
	DD	050H
xdata	ENDS
;	COMDAT CONST
CONST	SEGMENT
sprintf$rtcName$0 DB 05fH
	DB	041H
	DB	072H
	DB	067H
	DB	04cH
	DB	069H
	DB	073H
	DB	074H
	DB	00H
	ORG $+7
sprintf$rtcVarDesc DD 038H
	DD	08H
	DQ	FLAT:sprintf$rtcName$0
	ORG $+48
sprintf$rtcFrameData DD 01H
	DD	00H
	DQ	FLAT:sprintf$rtcVarDesc
CONST	ENDS
;	COMDAT xdata
xdata	SEGMENT
$unwind$_vsprintf_l DD 022d01H
	DD	070155219H
xdata	ENDS
;	COMDAT xdata
xdata	SEGMENT
$unwind$_vsnprintf_l DD 022d01H
	DD	070157219H
xdata	ENDS
;	COMDAT xdata
xdata	SEGMENT
$unwind$printf DD 023c19H
	DD	07015b219H
	DD	imagerel __GSHandlerCheck
	DD	050H
xdata	ENDS
;	COMDAT CONST
CONST	SEGMENT
printf$rtcName$0 DB 05fH
	DB	041H
	DB	072H
	DB	067H
	DB	04cH
	DB	069H
	DB	073H
	DB	074H
	DB	00H
	ORG $+7
printf$rtcVarDesc DD 038H
	DD	08H
	DQ	FLAT:printf$rtcName$0
	ORG $+48
printf$rtcFrameData DD 01H
	DD	00H
	DQ	FLAT:printf$rtcVarDesc
CONST	ENDS
;	COMDAT xdata
xdata	SEGMENT
$unwind$??$__vcrt_va_start_verify_argument_type@QEBD@@YAXXZ DD 010201H
	DD	07002H
xdata	ENDS
;	COMDAT xdata
xdata	SEGMENT
$unwind$_vfprintf_l DD 022d01H
	DD	070155219H
xdata	ENDS
;	COMDAT xdata
xdata	SEGMENT
$unwind$__local_stdio_printf_options DD 010201H
	DD	07002H
xdata	ENDS
; Function compile flags: /Odtp /RTCsu
;	COMDAT ??_G?$CTList@VCComQueueThread@@@@QEAAPEAXI@Z
_TEXT	SEGMENT
this$ = 48
__flags$ = 56
??_G?$CTList@VCComQueueThread@@@@QEAAPEAXI@Z PROC	; CTList<CComQueueThread>::`scalar deleting destructor', COMDAT
$LN4:
  00000	89 54 24 10	 mov	 DWORD PTR [rsp+16], edx
  00004	48 89 4c 24 08	 mov	 QWORD PTR [rsp+8], rcx
  00009	57		 push	 rdi
  0000a	48 83 ec 20	 sub	 rsp, 32			; 00000020H
  0000e	48 8b fc	 mov	 rdi, rsp
  00011	b9 08 00 00 00	 mov	 ecx, 8
  00016	b8 cc cc cc cc	 mov	 eax, -858993460		; ccccccccH
  0001b	f3 ab		 rep stosd
  0001d	48 8b 4c 24 30	 mov	 rcx, QWORD PTR [rsp+48]
  00022	48 8b 4c 24 30	 mov	 rcx, QWORD PTR this$[rsp]
  00027	e8 00 00 00 00	 call	 ??1?$CTList@VCComQueueThread@@@@QEAA@XZ ; CTList<CComQueueThread>::~CTList<CComQueueThread>
  0002c	8b 44 24 38	 mov	 eax, DWORD PTR __flags$[rsp]
  00030	83 e0 01	 and	 eax, 1
  00033	85 c0		 test	 eax, eax
  00035	74 0f		 je	 SHORT $LN2@scalar
  00037	ba 20 00 00 00	 mov	 edx, 32			; 00000020H
  0003c	48 8b 4c 24 30	 mov	 rcx, QWORD PTR this$[rsp]
  00041	e8 00 00 00 00	 call	 ??3@YAXPEAX_K@Z		; operator delete
$LN2@scalar:
  00046	48 8b 44 24 30	 mov	 rax, QWORD PTR this$[rsp]
  0004b	48 83 c4 20	 add	 rsp, 32			; 00000020H
  0004f	5f		 pop	 rdi
  00050	c3		 ret	 0
??_G?$CTList@VCComQueueThread@@@@QEAAPEAXI@Z ENDP	; CTList<CComQueueThread>::`scalar deleting destructor'
_TEXT	ENDS
; Function compile flags: /Odtp /RTCsu
;	COMDAT ?__autoclassinit2@?$CTList@VCComQueueThread@@@@QEAAX_K@Z
_TEXT	SEGMENT
this$ = 16
classSize$ = 24
?__autoclassinit2@?$CTList@VCComQueueThread@@@@QEAAX_K@Z PROC ; CTList<CComQueueThread>::__autoclassinit2, COMDAT
$LN3:
  00000	48 89 54 24 10	 mov	 QWORD PTR [rsp+16], rdx
  00005	48 89 4c 24 08	 mov	 QWORD PTR [rsp+8], rcx
  0000a	57		 push	 rdi
  0000b	48 8b 7c 24 10	 mov	 rdi, QWORD PTR this$[rsp]
  00010	33 c0		 xor	 eax, eax
  00012	48 8b 4c 24 18	 mov	 rcx, QWORD PTR classSize$[rsp]
  00017	f3 aa		 rep stosb
  00019	5f		 pop	 rdi
  0001a	c3		 ret	 0
?__autoclassinit2@?$CTList@VCComQueueThread@@@@QEAAX_K@Z ENDP ; CTList<CComQueueThread>::__autoclassinit2
_TEXT	ENDS
; Function compile flags: /Odtp /RTCsu
; File e:\infinia-library-3.0\com\include\comtlist.h
;	COMDAT ?_DEL@?$CTList@VCComQueueThread@@@@AEAAXH@Z
_TEXT	SEGMENT
this$ = 16
i$ = 24
?_DEL@?$CTList@VCComQueueThread@@@@AEAAXH@Z PROC	; CTList<CComQueueThread>::_DEL, COMDAT

; 360  : 	inline void _DEL(int i) { m_pArray[i] = 0; m_nUse--; m_nDelIdx = i; }

$LN3:
  00000	89 54 24 10	 mov	 DWORD PTR [rsp+16], edx
  00004	48 89 4c 24 08	 mov	 QWORD PTR [rsp+8], rcx
  00009	57		 push	 rdi
  0000a	48 63 44 24 18	 movsxd	 rax, DWORD PTR i$[rsp]
  0000f	48 8b 4c 24 10	 mov	 rcx, QWORD PTR this$[rsp]
  00014	48 8b 09	 mov	 rcx, QWORD PTR [rcx]
  00017	48 c7 04 c1 00
	00 00 00	 mov	 QWORD PTR [rcx+rax*8], 0
  0001f	48 8b 44 24 10	 mov	 rax, QWORD PTR this$[rsp]
  00024	8b 40 08	 mov	 eax, DWORD PTR [rax+8]
  00027	ff c8		 dec	 eax
  00029	48 8b 4c 24 10	 mov	 rcx, QWORD PTR this$[rsp]
  0002e	89 41 08	 mov	 DWORD PTR [rcx+8], eax
  00031	48 8b 44 24 10	 mov	 rax, QWORD PTR this$[rsp]
  00036	8b 4c 24 18	 mov	 ecx, DWORD PTR i$[rsp]
  0003a	89 48 10	 mov	 DWORD PTR [rax+16], ecx
  0003d	5f		 pop	 rdi
  0003e	c3		 ret	 0
?_DEL@?$CTList@VCComQueueThread@@@@AEAAXH@Z ENDP	; CTList<CComQueueThread>::_DEL
_TEXT	ENDS
; Function compile flags: /Odtp /RTCsu
; File e:\infinia-library-3.0\com\include\comtlist.h
;	COMDAT ?__alloc@?$CTList@VCComQueueThread@@@@AEAAHH@Z
_TEXT	SEGMENT
pList$ = 32
this$ = 64
nMaxCount$ = 72
?__alloc@?$CTList@VCComQueueThread@@@@AEAAHH@Z PROC	; CTList<CComQueueThread>::__alloc, COMDAT

; 402  : {

$LN5:
  00000	89 54 24 10	 mov	 DWORD PTR [rsp+16], edx
  00004	48 89 4c 24 08	 mov	 QWORD PTR [rsp+8], rcx
  00009	57		 push	 rdi
  0000a	48 83 ec 30	 sub	 rsp, 48			; 00000030H
  0000e	48 8b fc	 mov	 rdi, rsp
  00011	b9 0c 00 00 00	 mov	 ecx, 12
  00016	b8 cc cc cc cc	 mov	 eax, -858993460		; ccccccccH
  0001b	f3 ab		 rep stosd
  0001d	48 8b 4c 24 40	 mov	 rcx, QWORD PTR [rsp+64]

; 403  : 	T** pList = (T**)calloc(nMaxCount, sizeof(T*));

  00022	48 63 44 24 48	 movsxd	 rax, DWORD PTR nMaxCount$[rsp]
  00027	ba 08 00 00 00	 mov	 edx, 8
  0002c	48 8b c8	 mov	 rcx, rax
  0002f	ff 15 00 00 00
	00		 call	 QWORD PTR __imp_calloc
  00035	48 89 44 24 20	 mov	 QWORD PTR pList$[rsp], rax

; 404  : 	if (!pList) {

  0003a	48 83 7c 24 20
	00		 cmp	 QWORD PTR pList$[rsp], 0
  00040	75 17		 jne	 SHORT $LN2@alloc

; 405  : 		_stprintf(g_szMessage, "pList calloc is NULL");

  00042	48 8d 15 00 00
	00 00		 lea	 rdx, OFFSET FLAT:$SG47152
  00049	48 8d 0d 00 00
	00 00		 lea	 rcx, OFFSET FLAT:?g_szMessage@@3PADA ; g_szMessage
  00050	e8 00 00 00 00	 call	 sprintf

; 406  : 		return 0;

  00055	33 c0		 xor	 eax, eax
  00057	eb 4c		 jmp	 SHORT $LN1@alloc
$LN2@alloc:

; 407  : 	}
; 408  : 	//_stprintf(g_szMessage, _T("CTList::__alloc list m_nMaxCount[%d]"), nMaxCount);
; 409  : 	if (m_pArray) {

  00059	48 8b 44 24 40	 mov	 rax, QWORD PTR this$[rsp]
  0005e	48 83 38 00	 cmp	 QWORD PTR [rax], 0
  00062	74 30		 je	 SHORT $LN3@alloc

; 410  : 		memcpy(pList, m_pArray, m_nMax * sizeof(T*));

  00064	48 8b 44 24 40	 mov	 rax, QWORD PTR this$[rsp]
  00069	48 63 40 14	 movsxd	 rax, DWORD PTR [rax+20]
  0006d	48 c1 e0 03	 shl	 rax, 3
  00071	4c 8b c0	 mov	 r8, rax
  00074	48 8b 44 24 40	 mov	 rax, QWORD PTR this$[rsp]
  00079	48 8b 10	 mov	 rdx, QWORD PTR [rax]
  0007c	48 8b 4c 24 20	 mov	 rcx, QWORD PTR pList$[rsp]
  00081	e8 00 00 00 00	 call	 memcpy

; 411  : 		free(m_pArray);

  00086	48 8b 44 24 40	 mov	 rax, QWORD PTR this$[rsp]
  0008b	48 8b 08	 mov	 rcx, QWORD PTR [rax]
  0008e	ff 15 00 00 00
	00		 call	 QWORD PTR __imp_free
$LN3@alloc:

; 412  : 	}
; 413  : 	m_pArray = pList;

  00094	48 8b 44 24 40	 mov	 rax, QWORD PTR this$[rsp]
  00099	48 8b 4c 24 20	 mov	 rcx, QWORD PTR pList$[rsp]
  0009e	48 89 08	 mov	 QWORD PTR [rax], rcx

; 414  : 	return nMaxCount;

  000a1	8b 44 24 48	 mov	 eax, DWORD PTR nMaxCount$[rsp]
$LN1@alloc:

; 415  : }

  000a5	48 83 c4 30	 add	 rsp, 48			; 00000030H
  000a9	5f		 pop	 rdi
  000aa	c3		 ret	 0
?__alloc@?$CTList@VCComQueueThread@@@@AEAAHH@Z ENDP	; CTList<CComQueueThread>::__alloc
_TEXT	ENDS
; Function compile flags: /Odtp /RTCsu
; File e:\infinia-library-3.0\com\include\comtlist.h
;	COMDAT ?setObjAllocType@?$CTList@VCComQueueThread@@@@QEAAXW4E_ALLOC_TYPE@@@Z
_TEXT	SEGMENT
this$ = 16
type$ = 24
?setObjAllocType@?$CTList@VCComQueueThread@@@@QEAAXW4E_ALLOC_TYPE@@@Z PROC ; CTList<CComQueueThread>::setObjAllocType, COMDAT

; 350  : 	inline void setObjAllocType(E_ALLOC_TYPE type) { m_nObjAllocType = type; }

$LN3:
  00000	89 54 24 10	 mov	 DWORD PTR [rsp+16], edx
  00004	48 89 4c 24 08	 mov	 QWORD PTR [rsp+8], rcx
  00009	57		 push	 rdi
  0000a	48 8b 44 24 10	 mov	 rax, QWORD PTR this$[rsp]
  0000f	8b 4c 24 18	 mov	 ecx, DWORD PTR type$[rsp]
  00013	89 48 18	 mov	 DWORD PTR [rax+24], ecx
  00016	5f		 pop	 rdi
  00017	c3		 ret	 0
?setObjAllocType@?$CTList@VCComQueueThread@@@@QEAAXW4E_ALLOC_TYPE@@@Z ENDP ; CTList<CComQueueThread>::setObjAllocType
_TEXT	ENDS
; Function compile flags: /Odtp /RTCsu
; File e:\infinia-library-3.0\com\include\comtlist.h
;	COMDAT ?size@?$CTList@VCComQueueThread@@@@QEAAHXZ
_TEXT	SEGMENT
this$ = 16
?size@?$CTList@VCComQueueThread@@@@QEAAHXZ PROC		; CTList<CComQueueThread>::size, COMDAT

; 347  : 	inline int  size() { return m_nUse; }

$LN3:
  00000	48 89 4c 24 08	 mov	 QWORD PTR [rsp+8], rcx
  00005	57		 push	 rdi
  00006	48 8b 44 24 10	 mov	 rax, QWORD PTR this$[rsp]
  0000b	8b 40 08	 mov	 eax, DWORD PTR [rax+8]
  0000e	5f		 pop	 rdi
  0000f	c3		 ret	 0
?size@?$CTList@VCComQueueThread@@@@QEAAHXZ ENDP		; CTList<CComQueueThread>::size
_TEXT	ENDS
; Function compile flags: /Odtp /RTCsu
; File e:\infinia-library-3.0\com\include\comtlist.h
;	COMDAT ?getNext@?$CTList@VCComQueueThread@@@@QEAAPEAVCComQueueThread@@PEAH@Z
_TEXT	SEGMENT
this$ = 16
pIdx$ = 24
?getNext@?$CTList@VCComQueueThread@@@@QEAAPEAVCComQueueThread@@PEAH@Z PROC ; CTList<CComQueueThread>::getNext, COMDAT

; 334  : 	inline T* getNext(int *pIdx) {

$LN7:
  00000	48 89 54 24 10	 mov	 QWORD PTR [rsp+16], rdx
  00005	48 89 4c 24 08	 mov	 QWORD PTR [rsp+8], rcx
  0000a	57		 push	 rdi

; 335  : 		for (*pIdx; *pIdx < m_nMax; (*pIdx)++) {

  0000b	eb 10		 jmp	 SHORT $LN4@getNext
$LN2@getNext:
  0000d	48 8b 44 24 18	 mov	 rax, QWORD PTR pIdx$[rsp]
  00012	8b 00		 mov	 eax, DWORD PTR [rax]
  00014	ff c0		 inc	 eax
  00016	48 8b 4c 24 18	 mov	 rcx, QWORD PTR pIdx$[rsp]
  0001b	89 01		 mov	 DWORD PTR [rcx], eax
$LN4@getNext:
  0001d	48 8b 44 24 18	 mov	 rax, QWORD PTR pIdx$[rsp]
  00022	48 8b 4c 24 10	 mov	 rcx, QWORD PTR this$[rsp]
  00027	8b 49 14	 mov	 ecx, DWORD PTR [rcx+20]
  0002a	39 08		 cmp	 DWORD PTR [rax], ecx
  0002c	7d 2f		 jge	 SHORT $LN3@getNext

; 336  : 			if (m_pArray[*pIdx]) { return m_pArray[*pIdx]; }

  0002e	48 8b 44 24 18	 mov	 rax, QWORD PTR pIdx$[rsp]
  00033	48 63 00	 movsxd	 rax, DWORD PTR [rax]
  00036	48 8b 4c 24 10	 mov	 rcx, QWORD PTR this$[rsp]
  0003b	48 8b 09	 mov	 rcx, QWORD PTR [rcx]
  0003e	48 83 3c c1 00	 cmp	 QWORD PTR [rcx+rax*8], 0
  00043	74 16		 je	 SHORT $LN5@getNext
  00045	48 8b 44 24 18	 mov	 rax, QWORD PTR pIdx$[rsp]
  0004a	48 63 00	 movsxd	 rax, DWORD PTR [rax]
  0004d	48 8b 4c 24 10	 mov	 rcx, QWORD PTR this$[rsp]
  00052	48 8b 09	 mov	 rcx, QWORD PTR [rcx]
  00055	48 8b 04 c1	 mov	 rax, QWORD PTR [rcx+rax*8]
  00059	eb 04		 jmp	 SHORT $LN1@getNext
$LN5@getNext:

; 337  : 		}

  0005b	eb b0		 jmp	 SHORT $LN2@getNext
$LN3@getNext:

; 338  : 		return NULL;

  0005d	33 c0		 xor	 eax, eax
$LN1@getNext:

; 339  : 	}

  0005f	5f		 pop	 rdi
  00060	c3		 ret	 0
?getNext@?$CTList@VCComQueueThread@@@@QEAAPEAVCComQueueThread@@PEAH@Z ENDP ; CTList<CComQueueThread>::getNext
_TEXT	ENDS
; Function compile flags: /Odtp /RTCsu
; File e:\infinia-library-3.0\com\include\comtlist.h
;	COMDAT ?getObj@?$CTList@VCComQueueThread@@@@QEAAPEAVCComQueueThread@@H@Z
_TEXT	SEGMENT
this$ = 48
i$ = 56
?getObj@?$CTList@VCComQueueThread@@@@QEAAPEAVCComQueueThread@@H@Z PROC ; CTList<CComQueueThread>::getObj, COMDAT

; 332  : 	inline T* getObj(int i) { if (ISINCLUDE(i, m_nMax)) return m_pArray[i]; return NULL; }

$LN4:
  00000	89 54 24 10	 mov	 DWORD PTR [rsp+16], edx
  00004	48 89 4c 24 08	 mov	 QWORD PTR [rsp+8], rcx
  00009	57		 push	 rdi
  0000a	48 83 ec 20	 sub	 rsp, 32			; 00000020H
  0000e	48 8b fc	 mov	 rdi, rsp
  00011	b9 08 00 00 00	 mov	 ecx, 8
  00016	b8 cc cc cc cc	 mov	 eax, -858993460		; ccccccccH
  0001b	f3 ab		 rep stosd
  0001d	48 8b 4c 24 30	 mov	 rcx, QWORD PTR [rsp+48]
  00022	48 8b 44 24 30	 mov	 rax, QWORD PTR this$[rsp]
  00027	8b 50 14	 mov	 edx, DWORD PTR [rax+20]
  0002a	8b 4c 24 38	 mov	 ecx, DWORD PTR i$[rsp]
  0002e	e8 00 00 00 00	 call	 ?ISINCLUDE@@YA_NHH@Z	; ISINCLUDE
  00033	0f b6 c0	 movzx	 eax, al
  00036	85 c0		 test	 eax, eax
  00038	74 13		 je	 SHORT $LN2@getObj
  0003a	48 63 44 24 38	 movsxd	 rax, DWORD PTR i$[rsp]
  0003f	48 8b 4c 24 30	 mov	 rcx, QWORD PTR this$[rsp]
  00044	48 8b 09	 mov	 rcx, QWORD PTR [rcx]
  00047	48 8b 04 c1	 mov	 rax, QWORD PTR [rcx+rax*8]
  0004b	eb 02		 jmp	 SHORT $LN1@getObj
$LN2@getObj:
  0004d	33 c0		 xor	 eax, eax
$LN1@getObj:
  0004f	48 83 c4 20	 add	 rsp, 32			; 00000020H
  00053	5f		 pop	 rdi
  00054	c3		 ret	 0
?getObj@?$CTList@VCComQueueThread@@@@QEAAPEAVCComQueueThread@@H@Z ENDP ; CTList<CComQueueThread>::getObj
_TEXT	ENDS
; Function compile flags: /Odtp /RTCsu
; File e:\infinia-library-3.0\com\include\comtlist.h
;	COMDAT ?del@?$CTList@VCComQueueThread@@@@QEAA_NH@Z
_TEXT	SEGMENT
this$ = 48
i$ = 56
?del@?$CTList@VCComQueueThread@@@@QEAA_NH@Z PROC	; CTList<CComQueueThread>::del, COMDAT

; 523  : {

$LN4:
  00000	89 54 24 10	 mov	 DWORD PTR [rsp+16], edx
  00004	48 89 4c 24 08	 mov	 QWORD PTR [rsp+8], rcx
  00009	57		 push	 rdi
  0000a	48 83 ec 20	 sub	 rsp, 32			; 00000020H
  0000e	48 8b fc	 mov	 rdi, rsp
  00011	b9 08 00 00 00	 mov	 ecx, 8
  00016	b8 cc cc cc cc	 mov	 eax, -858993460		; ccccccccH
  0001b	f3 ab		 rep stosd
  0001d	48 8b 4c 24 30	 mov	 rcx, QWORD PTR [rsp+48]

; 524  : 	if (!ISINCLUDE(i, m_nMax)) {

  00022	48 8b 44 24 30	 mov	 rax, QWORD PTR this$[rsp]
  00027	8b 50 14	 mov	 edx, DWORD PTR [rax+20]
  0002a	8b 4c 24 38	 mov	 ecx, DWORD PTR i$[rsp]
  0002e	e8 00 00 00 00	 call	 ?ISINCLUDE@@YA_NHH@Z	; ISINCLUDE
  00033	0f b6 c0	 movzx	 eax, al
  00036	85 c0		 test	 eax, eax
  00038	75 25		 jne	 SHORT $LN2@del

; 525  : 		_stprintf(g_szMessage, "i[%d] m_nMax[%d]", i, m_nMax);

  0003a	48 8b 44 24 30	 mov	 rax, QWORD PTR this$[rsp]
  0003f	44 8b 48 14	 mov	 r9d, DWORD PTR [rax+20]
  00043	44 8b 44 24 38	 mov	 r8d, DWORD PTR i$[rsp]
  00048	48 8d 15 00 00
	00 00		 lea	 rdx, OFFSET FLAT:$SG47141
  0004f	48 8d 0d 00 00
	00 00		 lea	 rcx, OFFSET FLAT:?g_szMessage@@3PADA ; g_szMessage
  00056	e8 00 00 00 00	 call	 sprintf

; 526  : 		return false;

  0005b	32 c0		 xor	 al, al
  0005d	eb 10		 jmp	 SHORT $LN1@del
$LN2@del:

; 527  : 	}
; 528  : 	_DEL(i);

  0005f	8b 54 24 38	 mov	 edx, DWORD PTR i$[rsp]
  00063	48 8b 4c 24 30	 mov	 rcx, QWORD PTR this$[rsp]
  00068	e8 00 00 00 00	 call	 ?_DEL@?$CTList@VCComQueueThread@@@@AEAAXH@Z ; CTList<CComQueueThread>::_DEL

; 529  : 	//_stprintf(g_szMessage, _T("CMemList::del i[%d] m_nLast[%d] m_nCurCount[%d]"), i, m_nLast, m_nUse);
; 530  : 	return true;

  0006d	b0 01		 mov	 al, 1
$LN1@del:

; 531  : }

  0006f	48 83 c4 20	 add	 rsp, 32			; 00000020H
  00073	5f		 pop	 rdi
  00074	c3		 ret	 0
?del@?$CTList@VCComQueueThread@@@@QEAA_NH@Z ENDP	; CTList<CComQueueThread>::del
_TEXT	ENDS
; Function compile flags: /Odtp /RTCsu
; File e:\infinia-library-3.0\com\include\comtlist.h
;	COMDAT ?push_back@?$CTList@VCComQueueThread@@@@QEAA_NPEAVCComQueueThread@@PEAH@Z
_TEXT	SEGMENT
nIdx$ = 32
i$ = 36
this$ = 64
Obj$ = 72
pIdx$ = 80
?push_back@?$CTList@VCComQueueThread@@@@QEAA_NPEAVCComQueueThread@@PEAH@Z PROC ; CTList<CComQueueThread>::push_back, COMDAT

; 472  : {

$LN15:
  00000	4c 89 44 24 18	 mov	 QWORD PTR [rsp+24], r8
  00005	48 89 54 24 10	 mov	 QWORD PTR [rsp+16], rdx
  0000a	48 89 4c 24 08	 mov	 QWORD PTR [rsp+8], rcx
  0000f	57		 push	 rdi
  00010	48 83 ec 30	 sub	 rsp, 48			; 00000030H
  00014	48 8b fc	 mov	 rdi, rsp
  00017	b9 0c 00 00 00	 mov	 ecx, 12
  0001c	b8 cc cc cc cc	 mov	 eax, -858993460		; ccccccccH
  00021	f3 ab		 rep stosd
  00023	48 8b 4c 24 40	 mov	 rcx, QWORD PTR [rsp+64]

; 473  : 	int nIdx, i;
; 474  : 
; 475  : 	if (m_nUse >= m_nMax) {

  00028	48 8b 44 24 40	 mov	 rax, QWORD PTR this$[rsp]
  0002d	48 8b 4c 24 40	 mov	 rcx, QWORD PTR this$[rsp]
  00032	8b 49 14	 mov	 ecx, DWORD PTR [rcx+20]
  00035	39 48 08	 cmp	 DWORD PTR [rax+8], ecx
  00038	7c 4b		 jl	 SHORT $LN5@push_back

; 476  : 		if (!__alloc(m_nMax + TLIST_ADD_SIZE)) return false;

  0003a	48 8b 44 24 40	 mov	 rax, QWORD PTR this$[rsp]
  0003f	8b 40 14	 mov	 eax, DWORD PTR [rax+20]
  00042	83 c0 40	 add	 eax, 64			; 00000040H
  00045	8b d0		 mov	 edx, eax
  00047	48 8b 4c 24 40	 mov	 rcx, QWORD PTR this$[rsp]
  0004c	e8 00 00 00 00	 call	 ?__alloc@?$CTList@VCComQueueThread@@@@AEAAHH@Z ; CTList<CComQueueThread>::__alloc
  00051	85 c0		 test	 eax, eax
  00053	75 07		 jne	 SHORT $LN6@push_back
  00055	32 c0		 xor	 al, al
  00057	e9 0c 01 00 00	 jmp	 $LN1@push_back
$LN6@push_back:

; 477  : 		nIdx = m_nMax;

  0005c	48 8b 44 24 40	 mov	 rax, QWORD PTR this$[rsp]
  00061	8b 40 14	 mov	 eax, DWORD PTR [rax+20]
  00064	89 44 24 20	 mov	 DWORD PTR nIdx$[rsp], eax

; 478  : 		m_nMax += TLIST_ADD_SIZE;

  00068	48 8b 44 24 40	 mov	 rax, QWORD PTR this$[rsp]
  0006d	8b 40 14	 mov	 eax, DWORD PTR [rax+20]
  00070	83 c0 40	 add	 eax, 64			; 00000040H
  00073	48 8b 4c 24 40	 mov	 rcx, QWORD PTR this$[rsp]
  00078	89 41 14	 mov	 DWORD PTR [rcx+20], eax

; 479  : 		goto ADD_SUCCESS;

  0007b	e9 99 00 00 00	 jmp	 $LN7@push_back
  00080	e9 94 00 00 00	 jmp	 $ADD_SUCCESS$16
$LN5@push_back:

; 480  : 	}
; 481  : 
; 482  : 	if (!m_pArray[m_nLast]) { nIdx = m_nLast;  goto ADD_SUCCESS; }

  00085	48 8b 44 24 40	 mov	 rax, QWORD PTR this$[rsp]
  0008a	48 63 40 0c	 movsxd	 rax, DWORD PTR [rax+12]
  0008e	48 8b 4c 24 40	 mov	 rcx, QWORD PTR this$[rsp]
  00093	48 8b 09	 mov	 rcx, QWORD PTR [rcx]
  00096	48 83 3c c1 00	 cmp	 QWORD PTR [rcx+rax*8], 0
  0009b	75 10		 jne	 SHORT $LN8@push_back
  0009d	48 8b 44 24 40	 mov	 rax, QWORD PTR this$[rsp]
  000a2	8b 40 0c	 mov	 eax, DWORD PTR [rax+12]
  000a5	89 44 24 20	 mov	 DWORD PTR nIdx$[rsp], eax
  000a9	eb 6e		 jmp	 SHORT $LN9@push_back
  000ab	eb 6c		 jmp	 SHORT $ADD_SUCCESS$16
$LN8@push_back:

; 483  : 
; 484  : 	nIdx = m_nLast;

  000ad	48 8b 44 24 40	 mov	 rax, QWORD PTR this$[rsp]
  000b2	8b 40 0c	 mov	 eax, DWORD PTR [rax+12]
  000b5	89 44 24 20	 mov	 DWORD PTR nIdx$[rsp], eax

; 485  : 	for (i = 0; i < m_nMax; i++)

  000b9	c7 44 24 24 00
	00 00 00	 mov	 DWORD PTR i$[rsp], 0
  000c1	eb 0a		 jmp	 SHORT $LN4@push_back
$LN2@push_back:
  000c3	8b 44 24 24	 mov	 eax, DWORD PTR i$[rsp]
  000c7	ff c0		 inc	 eax
  000c9	89 44 24 24	 mov	 DWORD PTR i$[rsp], eax
$LN4@push_back:
  000cd	48 8b 44 24 40	 mov	 rax, QWORD PTR this$[rsp]
  000d2	8b 40 14	 mov	 eax, DWORD PTR [rax+20]
  000d5	39 44 24 24	 cmp	 DWORD PTR i$[rsp], eax
  000d9	7d 3a		 jge	 SHORT $LN3@push_back

; 486  : 	{
; 487  : 		if (nIdx >= m_nMax) nIdx = 0;

  000db	48 8b 44 24 40	 mov	 rax, QWORD PTR this$[rsp]
  000e0	8b 40 14	 mov	 eax, DWORD PTR [rax+20]
  000e3	39 44 24 20	 cmp	 DWORD PTR nIdx$[rsp], eax
  000e7	7c 08		 jl	 SHORT $LN10@push_back
  000e9	c7 44 24 20 00
	00 00 00	 mov	 DWORD PTR nIdx$[rsp], 0
$LN10@push_back:

; 488  : 		if (!m_pArray[nIdx]) {

  000f1	48 63 44 24 20	 movsxd	 rax, DWORD PTR nIdx$[rsp]
  000f6	48 8b 4c 24 40	 mov	 rcx, QWORD PTR this$[rsp]
  000fb	48 8b 09	 mov	 rcx, QWORD PTR [rcx]
  000fe	48 83 3c c1 00	 cmp	 QWORD PTR [rcx+rax*8], 0
  00103	75 04		 jne	 SHORT $LN11@push_back

; 489  : 			goto ADD_SUCCESS;

  00105	eb 12		 jmp	 SHORT $LN12@push_back
  00107	eb 10		 jmp	 SHORT $ADD_SUCCESS$16
$LN11@push_back:

; 490  : 		}
; 491  : 		nIdx++;

  00109	8b 44 24 20	 mov	 eax, DWORD PTR nIdx$[rsp]
  0010d	ff c0		 inc	 eax
  0010f	89 44 24 20	 mov	 DWORD PTR nIdx$[rsp], eax

; 492  : 	}

  00113	eb ae		 jmp	 SHORT $LN2@push_back
$LN3@push_back:

; 493  : 	//_stprintf(m_szMessage, _T("add FAIL! m_nLast[%d] m_nCurCount[%d] m_nMax[%d]"), m_nLast, m_nUse, m_nMax);
; 494  : 	return false;

  00115	32 c0		 xor	 al, al
  00117	eb 4f		 jmp	 SHORT $LN1@push_back
$LN7@push_back:
$LN9@push_back:
$LN12@push_back:
$ADD_SUCCESS$16:

; 495  : 
; 496  : ADD_SUCCESS:
; 497  : 	m_nUse++;

  00119	48 8b 44 24 40	 mov	 rax, QWORD PTR this$[rsp]
  0011e	8b 40 08	 mov	 eax, DWORD PTR [rax+8]
  00121	ff c0		 inc	 eax
  00123	48 8b 4c 24 40	 mov	 rcx, QWORD PTR this$[rsp]
  00128	89 41 08	 mov	 DWORD PTR [rcx+8], eax

; 498  : 	m_pArray[nIdx] = Obj;

  0012b	48 63 44 24 20	 movsxd	 rax, DWORD PTR nIdx$[rsp]
  00130	48 8b 4c 24 40	 mov	 rcx, QWORD PTR this$[rsp]
  00135	48 8b 09	 mov	 rcx, QWORD PTR [rcx]
  00138	48 8b 54 24 48	 mov	 rdx, QWORD PTR Obj$[rsp]
  0013d	48 89 14 c1	 mov	 QWORD PTR [rcx+rax*8], rdx

; 499  : 	m_nLast++;

  00141	48 8b 44 24 40	 mov	 rax, QWORD PTR this$[rsp]
  00146	8b 40 0c	 mov	 eax, DWORD PTR [rax+12]
  00149	ff c0		 inc	 eax
  0014b	48 8b 4c 24 40	 mov	 rcx, QWORD PTR this$[rsp]
  00150	89 41 0c	 mov	 DWORD PTR [rcx+12], eax

; 500  : 	//_stprintf(g_szMessage, _T("CMemList::add i[%d] m_nLast[%d] m_nCurCount[%d]"), nIdx, m_nLast, m_nUse);
; 501  : 	if (pIdx) *pIdx = nIdx;

  00153	48 83 7c 24 50
	00		 cmp	 QWORD PTR pIdx$[rsp], 0
  00159	74 0b		 je	 SHORT $LN13@push_back
  0015b	48 8b 44 24 50	 mov	 rax, QWORD PTR pIdx$[rsp]
  00160	8b 4c 24 20	 mov	 ecx, DWORD PTR nIdx$[rsp]
  00164	89 08		 mov	 DWORD PTR [rax], ecx
$LN13@push_back:

; 502  : 	return true;

  00166	b0 01		 mov	 al, 1
$LN1@push_back:

; 503  : }

  00168	48 83 c4 30	 add	 rsp, 48			; 00000030H
  0016c	5f		 pop	 rdi
  0016d	c3		 ret	 0
?push_back@?$CTList@VCComQueueThread@@@@QEAA_NPEAVCComQueueThread@@PEAH@Z ENDP ; CTList<CComQueueThread>::push_back
_TEXT	ENDS
; Function compile flags: /Odtp /RTCsu
; File e:\infinia-library-3.0\com\include\comtlist.h
;	COMDAT ?alloc@?$CTList@VCComQueueThread@@@@QEAAHHW4E_ALLOC_TYPE@@@Z
_TEXT	SEGMENT
this$ = 48
nMaxCount$ = 56
type$ = 64
?alloc@?$CTList@VCComQueueThread@@@@QEAAHHW4E_ALLOC_TYPE@@@Z PROC ; CTList<CComQueueThread>::alloc, COMDAT

; 326  : 	int alloc(int nMaxCount, E_ALLOC_TYPE type = eAlloc_Type_new) { m_nObjAllocType = type;  m_nMax = __alloc(nMaxCount); return m_nMax; }

$LN3:
  00000	44 89 44 24 18	 mov	 DWORD PTR [rsp+24], r8d
  00005	89 54 24 10	 mov	 DWORD PTR [rsp+16], edx
  00009	48 89 4c 24 08	 mov	 QWORD PTR [rsp+8], rcx
  0000e	57		 push	 rdi
  0000f	48 83 ec 20	 sub	 rsp, 32			; 00000020H
  00013	48 8b fc	 mov	 rdi, rsp
  00016	b9 08 00 00 00	 mov	 ecx, 8
  0001b	b8 cc cc cc cc	 mov	 eax, -858993460		; ccccccccH
  00020	f3 ab		 rep stosd
  00022	48 8b 4c 24 30	 mov	 rcx, QWORD PTR [rsp+48]
  00027	48 8b 44 24 30	 mov	 rax, QWORD PTR this$[rsp]
  0002c	8b 4c 24 40	 mov	 ecx, DWORD PTR type$[rsp]
  00030	89 48 18	 mov	 DWORD PTR [rax+24], ecx
  00033	8b 54 24 38	 mov	 edx, DWORD PTR nMaxCount$[rsp]
  00037	48 8b 4c 24 30	 mov	 rcx, QWORD PTR this$[rsp]
  0003c	e8 00 00 00 00	 call	 ?__alloc@?$CTList@VCComQueueThread@@@@AEAAHH@Z ; CTList<CComQueueThread>::__alloc
  00041	48 8b 4c 24 30	 mov	 rcx, QWORD PTR this$[rsp]
  00046	89 41 14	 mov	 DWORD PTR [rcx+20], eax
  00049	48 8b 44 24 30	 mov	 rax, QWORD PTR this$[rsp]
  0004e	8b 40 14	 mov	 eax, DWORD PTR [rax+20]
  00051	48 83 c4 20	 add	 rsp, 32			; 00000020H
  00055	5f		 pop	 rdi
  00056	c3		 ret	 0
?alloc@?$CTList@VCComQueueThread@@@@QEAAHHW4E_ALLOC_TYPE@@@Z ENDP ; CTList<CComQueueThread>::alloc
_TEXT	ENDS
; Function compile flags: /Odtp /RTCsu
; File e:\infinia-library-3.0\com\include\comtlist.h
;	COMDAT ??1?$CTList@VCComQueueThread@@@@QEAA@XZ
_TEXT	SEGMENT
idx$4 = 36
p$5 = 56
$T6 = 72
$T7 = 80
$T8 = 88
$T9 = 96
$T10 = 104
tv77 = 112
tv82 = 120
tv95 = 128
__$ArrayPad$ = 136
this$ = 160
??1?$CTList@VCComQueueThread@@@@QEAA@XZ PROC		; CTList<CComQueueThread>::~CTList<CComQueueThread>, COMDAT

; 376  : {

$LN20:
  00000	48 89 4c 24 08	 mov	 QWORD PTR [rsp+8], rcx
  00005	57		 push	 rdi
  00006	48 81 ec 90 00
	00 00		 sub	 rsp, 144		; 00000090H
  0000d	48 8b fc	 mov	 rdi, rsp
  00010	b9 24 00 00 00	 mov	 ecx, 36			; 00000024H
  00015	b8 cc cc cc cc	 mov	 eax, -858993460		; ccccccccH
  0001a	f3 ab		 rep stosd
  0001c	48 8b 8c 24 a0
	00 00 00	 mov	 rcx, QWORD PTR [rsp+160]
  00024	48 c7 44 24 68
	fe ff ff ff	 mov	 QWORD PTR $T10[rsp], -2
  0002d	48 8b 05 00 00
	00 00		 mov	 rax, QWORD PTR __security_cookie
  00034	48 33 c4	 xor	 rax, rsp
  00037	48 89 84 24 88
	00 00 00	 mov	 QWORD PTR __$ArrayPad$[rsp], rax

; 377  : 	if (!m_pArray) return;

  0003f	48 8b 84 24 a0
	00 00 00	 mov	 rax, QWORD PTR this$[rsp]
  00047	48 83 38 00	 cmp	 QWORD PTR [rax], 0
  0004b	75 05		 jne	 SHORT $LN6@CTList
  0004d	e9 81 01 00 00	 jmp	 $LN1@CTList
$LN6@CTList:

; 378  : 
; 379  : 	if (ISABLETODELETE(m_nObjAllocType)) {

  00052	48 8b 84 24 a0
	00 00 00	 mov	 rax, QWORD PTR this$[rsp]
  0005a	8b 48 18	 mov	 ecx, DWORD PTR [rax+24]
  0005d	e8 00 00 00 00	 call	 ?ISABLETODELETE@@YA_NW4E_ALLOC_TYPE@@@Z ; ISABLETODELETE
  00062	90		 npad	 1
  00063	0f b6 c0	 movzx	 eax, al
  00066	85 c0		 test	 eax, eax
  00068	0f 84 36 01 00
	00		 je	 $LN7@CTList

; 380  : 		int idx = 0;

  0006e	c7 44 24 24 00
	00 00 00	 mov	 DWORD PTR idx$4[rsp], 0

; 381  : 		T *p = getNext(&idx);

  00076	48 8d 54 24 24	 lea	 rdx, QWORD PTR idx$4[rsp]
  0007b	48 8b 8c 24 a0
	00 00 00	 mov	 rcx, QWORD PTR this$[rsp]
  00083	e8 00 00 00 00	 call	 ?getNext@?$CTList@VCComQueueThread@@@@QEAAPEAVCComQueueThread@@PEAH@Z ; CTList<CComQueueThread>::getNext
  00088	90		 npad	 1
  00089	48 89 44 24 38	 mov	 QWORD PTR p$5[rsp], rax
$LN2@CTList:

; 382  : 		while (p) {

  0008e	48 83 7c 24 38
	00		 cmp	 QWORD PTR p$5[rsp], 0
  00094	0f 84 0a 01 00
	00		 je	 $LN7@CTList

; 383  : 			idx++;

  0009a	8b 44 24 24	 mov	 eax, DWORD PTR idx$4[rsp]
  0009e	ff c0		 inc	 eax
  000a0	89 44 24 24	 mov	 DWORD PTR idx$4[rsp], eax

; 384  : 			switch (m_nObjAllocType) {

  000a4	48 8b 84 24 a0
	00 00 00	 mov	 rax, QWORD PTR this$[rsp]
  000ac	8b 40 18	 mov	 eax, DWORD PTR [rax+24]
  000af	89 44 24 70	 mov	 DWORD PTR tv77[rsp], eax
  000b3	83 7c 24 70 02	 cmp	 DWORD PTR tv77[rsp], 2
  000b8	74 1a		 je	 SHORT $LN8@CTList
  000ba	83 7c 24 70 03	 cmp	 DWORD PTR tv77[rsp], 3
  000bf	74 51		 je	 SHORT $LN9@CTList
  000c1	83 7c 24 70 04	 cmp	 DWORD PTR tv77[rsp], 4
  000c6	74 58		 je	 SHORT $LN10@CTList
  000c8	83 7c 24 70 05	 cmp	 DWORD PTR tv77[rsp], 5
  000cd	74 76		 je	 SHORT $LN11@CTList
  000cf	e9 b3 00 00 00	 jmp	 $LN4@CTList
$LN8@CTList:

; 385  : 				case eAlloc_Type_new		:	delete p; break;

  000d4	48 8b 44 24 38	 mov	 rax, QWORD PTR p$5[rsp]
  000d9	48 89 44 24 50	 mov	 QWORD PTR $T7[rsp], rax
  000de	48 8b 44 24 50	 mov	 rax, QWORD PTR $T7[rsp]
  000e3	48 89 44 24 48	 mov	 QWORD PTR $T6[rsp], rax
  000e8	48 83 7c 24 48
	00		 cmp	 QWORD PTR $T6[rsp], 0
  000ee	74 17		 je	 SHORT $LN16@CTList
  000f0	ba 01 00 00 00	 mov	 edx, 1
  000f5	48 8b 4c 24 48	 mov	 rcx, QWORD PTR $T6[rsp]
  000fa	e8 00 00 00 00	 call	 ??_GCComQueueThread@@QEAAPEAXI@Z
  000ff	90		 npad	 1
  00100	48 89 44 24 78	 mov	 QWORD PTR tv82[rsp], rax
  00105	eb 09		 jmp	 SHORT $LN17@CTList
$LN16@CTList:
  00107	48 c7 44 24 78
	00 00 00 00	 mov	 QWORD PTR tv82[rsp], 0
$LN17@CTList:
  00110	eb 75		 jmp	 SHORT $LN4@CTList
$LN9@CTList:

; 386  : 				case eAlloc_Type_alloc		:	free(p); break;

  00112	48 8b 4c 24 38	 mov	 rcx, QWORD PTR p$5[rsp]
  00117	ff 15 00 00 00
	00		 call	 QWORD PTR __imp_free
  0011d	90		 npad	 1
  0011e	eb 67		 jmp	 SHORT $LN4@CTList
$LN10@CTList:

; 387  : 				case eAlloc_Type_BufPool	:	gs_pMMgr->delBuf((char *)p, STRING_SIZE((TCHAR *)p)); break;

  00120	48 8b 4c 24 38	 mov	 rcx, QWORD PTR p$5[rsp]
  00125	e8 00 00 00 00	 call	 strlen
  0012a	90		 npad	 1
  0012b	48 ff c0	 inc	 rax
  0012e	44 8b c0	 mov	 r8d, eax
  00131	48 8b 54 24 38	 mov	 rdx, QWORD PTR p$5[rsp]
  00136	48 8b 0d 00 00
	00 00		 mov	 rcx, QWORD PTR ?gs_pMMgr@@3PEAVCMemManager@@EA ; gs_pMMgr
  0013d	e8 00 00 00 00	 call	 ?delBuf@CMemManager@@QEAAXPEADH@Z ; CMemManager::delBuf
  00142	90		 npad	 1
  00143	eb 42		 jmp	 SHORT $LN4@CTList
$LN11@CTList:

; 388  : 				case eAlloc_Type_newArray	:	delete[] p; break;

  00145	48 8b 44 24 38	 mov	 rax, QWORD PTR p$5[rsp]
  0014a	48 89 44 24 60	 mov	 QWORD PTR $T9[rsp], rax
  0014f	48 8b 44 24 60	 mov	 rax, QWORD PTR $T9[rsp]
  00154	48 89 44 24 58	 mov	 QWORD PTR $T8[rsp], rax
  00159	48 83 7c 24 58
	00		 cmp	 QWORD PTR $T8[rsp], 0
  0015f	74 1a		 je	 SHORT $LN18@CTList
  00161	ba 03 00 00 00	 mov	 edx, 3
  00166	48 8b 4c 24 58	 mov	 rcx, QWORD PTR $T8[rsp]
  0016b	e8 00 00 00 00	 call	 ??_ECComQueueThread@@QEAAPEAXI@Z
  00170	90		 npad	 1
  00171	48 89 84 24 80
	00 00 00	 mov	 QWORD PTR tv95[rsp], rax
  00179	eb 0c		 jmp	 SHORT $LN4@CTList
$LN18@CTList:
  0017b	48 c7 84 24 80
	00 00 00 00 00
	00 00		 mov	 QWORD PTR tv95[rsp], 0
$LN4@CTList:

; 389  : 				case eAlloc_Type_none		:	break;
; 390  : 				case eAlloc_Type_MemPool	:	break;
; 391  : 			}
; 392  : 			p = getNext(&idx);

  00187	48 8d 54 24 24	 lea	 rdx, QWORD PTR idx$4[rsp]
  0018c	48 8b 8c 24 a0
	00 00 00	 mov	 rcx, QWORD PTR this$[rsp]
  00194	e8 00 00 00 00	 call	 ?getNext@?$CTList@VCComQueueThread@@@@QEAAPEAVCComQueueThread@@PEAH@Z ; CTList<CComQueueThread>::getNext
  00199	90		 npad	 1
  0019a	48 89 44 24 38	 mov	 QWORD PTR p$5[rsp], rax

; 393  : 		}

  0019f	e9 ea fe ff ff	 jmp	 $LN2@CTList
$LN7@CTList:

; 394  : 	}
; 395  : 
; 396  : 	if (m_pArray)	free(m_pArray);

  001a4	48 8b 84 24 a0
	00 00 00	 mov	 rax, QWORD PTR this$[rsp]
  001ac	48 83 38 00	 cmp	 QWORD PTR [rax], 0
  001b0	74 12		 je	 SHORT $LN14@CTList
  001b2	48 8b 84 24 a0
	00 00 00	 mov	 rax, QWORD PTR this$[rsp]
  001ba	48 8b 08	 mov	 rcx, QWORD PTR [rax]
  001bd	ff 15 00 00 00
	00		 call	 QWORD PTR __imp_free
  001c3	90		 npad	 1
$LN14@CTList:

; 397  : 	m_pArray = 0;

  001c4	48 8b 84 24 a0
	00 00 00	 mov	 rax, QWORD PTR this$[rsp]
  001cc	48 c7 00 00 00
	00 00		 mov	 QWORD PTR [rax], 0
$LN1@CTList:

; 398  : }

  001d3	48 8b cc	 mov	 rcx, rsp
  001d6	48 8d 15 00 00
	00 00		 lea	 rdx, OFFSET FLAT:??1?$CTList@VCComQueueThread@@@@QEAA@XZ$rtcFrameData
  001dd	e8 00 00 00 00	 call	 _RTC_CheckStackVars
  001e2	90		 npad	 1
  001e3	48 8b 8c 24 88
	00 00 00	 mov	 rcx, QWORD PTR __$ArrayPad$[rsp]
  001eb	48 33 cc	 xor	 rcx, rsp
  001ee	e8 00 00 00 00	 call	 __security_check_cookie
  001f3	90		 npad	 1
  001f4	48 81 c4 90 00
	00 00		 add	 rsp, 144		; 00000090H
  001fb	5f		 pop	 rdi
  001fc	c3		 ret	 0
??1?$CTList@VCComQueueThread@@@@QEAA@XZ ENDP		; CTList<CComQueueThread>::~CTList<CComQueueThread>
_TEXT	ENDS
; Function compile flags: /Odtp /RTCsu
; File e:\infinia-library-3.0\com\include\comtlist.h
;	COMDAT ??0?$CTList@VCComQueueThread@@@@QEAA@XZ
_TEXT	SEGMENT
this$ = 16
??0?$CTList@VCComQueueThread@@@@QEAA@XZ PROC		; CTList<CComQueueThread>::CTList<CComQueueThread>, COMDAT

; 365  : {

$LN3:
  00000	48 89 4c 24 08	 mov	 QWORD PTR [rsp+8], rcx
  00005	57		 push	 rdi

; 366  : 	m_pArray = NULL;

  00006	48 8b 44 24 10	 mov	 rax, QWORD PTR this$[rsp]
  0000b	48 c7 00 00 00
	00 00		 mov	 QWORD PTR [rax], 0

; 367  : 	m_nUse = 0;

  00012	48 8b 44 24 10	 mov	 rax, QWORD PTR this$[rsp]
  00017	c7 40 08 00 00
	00 00		 mov	 DWORD PTR [rax+8], 0

; 368  : 	m_nLast = 0;

  0001e	48 8b 44 24 10	 mov	 rax, QWORD PTR this$[rsp]
  00023	c7 40 0c 00 00
	00 00		 mov	 DWORD PTR [rax+12], 0

; 369  : 	m_nDelIdx = 0;

  0002a	48 8b 44 24 10	 mov	 rax, QWORD PTR this$[rsp]
  0002f	c7 40 10 00 00
	00 00		 mov	 DWORD PTR [rax+16], 0

; 370  : 	m_nMax = 0;

  00036	48 8b 44 24 10	 mov	 rax, QWORD PTR this$[rsp]
  0003b	c7 40 14 00 00
	00 00		 mov	 DWORD PTR [rax+20], 0

; 371  : 	m_nObjAllocType = eAlloc_Type_none;

  00042	48 8b 44 24 10	 mov	 rax, QWORD PTR this$[rsp]
  00047	c7 40 18 00 00
	00 00		 mov	 DWORD PTR [rax+24], 0

; 372  : }

  0004e	48 8b 44 24 10	 mov	 rax, QWORD PTR this$[rsp]
  00053	5f		 pop	 rdi
  00054	c3		 ret	 0
??0?$CTList@VCComQueueThread@@@@QEAA@XZ ENDP		; CTList<CComQueueThread>::CTList<CComQueueThread>
_TEXT	ENDS
; Function compile flags: /Odtp /RTCsu
;	COMDAT ??_G?$CTList@VCComThread@@@@QEAAPEAXI@Z
_TEXT	SEGMENT
this$ = 48
__flags$ = 56
??_G?$CTList@VCComThread@@@@QEAAPEAXI@Z PROC		; CTList<CComThread>::`scalar deleting destructor', COMDAT
$LN4:
  00000	89 54 24 10	 mov	 DWORD PTR [rsp+16], edx
  00004	48 89 4c 24 08	 mov	 QWORD PTR [rsp+8], rcx
  00009	57		 push	 rdi
  0000a	48 83 ec 20	 sub	 rsp, 32			; 00000020H
  0000e	48 8b fc	 mov	 rdi, rsp
  00011	b9 08 00 00 00	 mov	 ecx, 8
  00016	b8 cc cc cc cc	 mov	 eax, -858993460		; ccccccccH
  0001b	f3 ab		 rep stosd
  0001d	48 8b 4c 24 30	 mov	 rcx, QWORD PTR [rsp+48]
  00022	48 8b 4c 24 30	 mov	 rcx, QWORD PTR this$[rsp]
  00027	e8 00 00 00 00	 call	 ??1?$CTList@VCComThread@@@@QEAA@XZ ; CTList<CComThread>::~CTList<CComThread>
  0002c	8b 44 24 38	 mov	 eax, DWORD PTR __flags$[rsp]
  00030	83 e0 01	 and	 eax, 1
  00033	85 c0		 test	 eax, eax
  00035	74 0f		 je	 SHORT $LN2@scalar
  00037	ba 20 00 00 00	 mov	 edx, 32			; 00000020H
  0003c	48 8b 4c 24 30	 mov	 rcx, QWORD PTR this$[rsp]
  00041	e8 00 00 00 00	 call	 ??3@YAXPEAX_K@Z		; operator delete
$LN2@scalar:
  00046	48 8b 44 24 30	 mov	 rax, QWORD PTR this$[rsp]
  0004b	48 83 c4 20	 add	 rsp, 32			; 00000020H
  0004f	5f		 pop	 rdi
  00050	c3		 ret	 0
??_G?$CTList@VCComThread@@@@QEAAPEAXI@Z ENDP		; CTList<CComThread>::`scalar deleting destructor'
_TEXT	ENDS
; Function compile flags: /Odtp /RTCsu
;	COMDAT ?__autoclassinit2@?$CTList@VCComThread@@@@QEAAX_K@Z
_TEXT	SEGMENT
this$ = 16
classSize$ = 24
?__autoclassinit2@?$CTList@VCComThread@@@@QEAAX_K@Z PROC ; CTList<CComThread>::__autoclassinit2, COMDAT
$LN3:
  00000	48 89 54 24 10	 mov	 QWORD PTR [rsp+16], rdx
  00005	48 89 4c 24 08	 mov	 QWORD PTR [rsp+8], rcx
  0000a	57		 push	 rdi
  0000b	48 8b 7c 24 10	 mov	 rdi, QWORD PTR this$[rsp]
  00010	33 c0		 xor	 eax, eax
  00012	48 8b 4c 24 18	 mov	 rcx, QWORD PTR classSize$[rsp]
  00017	f3 aa		 rep stosb
  00019	5f		 pop	 rdi
  0001a	c3		 ret	 0
?__autoclassinit2@?$CTList@VCComThread@@@@QEAAX_K@Z ENDP ; CTList<CComThread>::__autoclassinit2
_TEXT	ENDS
; Function compile flags: /Odtp /RTCsu
; File e:\infinia-library-3.0\com\include\comtlist.h
;	COMDAT ?_DEL@?$CTList@VCComThread@@@@AEAAXH@Z
_TEXT	SEGMENT
this$ = 16
i$ = 24
?_DEL@?$CTList@VCComThread@@@@AEAAXH@Z PROC		; CTList<CComThread>::_DEL, COMDAT

; 360  : 	inline void _DEL(int i) { m_pArray[i] = 0; m_nUse--; m_nDelIdx = i; }

$LN3:
  00000	89 54 24 10	 mov	 DWORD PTR [rsp+16], edx
  00004	48 89 4c 24 08	 mov	 QWORD PTR [rsp+8], rcx
  00009	57		 push	 rdi
  0000a	48 63 44 24 18	 movsxd	 rax, DWORD PTR i$[rsp]
  0000f	48 8b 4c 24 10	 mov	 rcx, QWORD PTR this$[rsp]
  00014	48 8b 09	 mov	 rcx, QWORD PTR [rcx]
  00017	48 c7 04 c1 00
	00 00 00	 mov	 QWORD PTR [rcx+rax*8], 0
  0001f	48 8b 44 24 10	 mov	 rax, QWORD PTR this$[rsp]
  00024	8b 40 08	 mov	 eax, DWORD PTR [rax+8]
  00027	ff c8		 dec	 eax
  00029	48 8b 4c 24 10	 mov	 rcx, QWORD PTR this$[rsp]
  0002e	89 41 08	 mov	 DWORD PTR [rcx+8], eax
  00031	48 8b 44 24 10	 mov	 rax, QWORD PTR this$[rsp]
  00036	8b 4c 24 18	 mov	 ecx, DWORD PTR i$[rsp]
  0003a	89 48 10	 mov	 DWORD PTR [rax+16], ecx
  0003d	5f		 pop	 rdi
  0003e	c3		 ret	 0
?_DEL@?$CTList@VCComThread@@@@AEAAXH@Z ENDP		; CTList<CComThread>::_DEL
_TEXT	ENDS
; Function compile flags: /Odtp /RTCsu
; File e:\infinia-library-3.0\com\include\comtlist.h
;	COMDAT ?__alloc@?$CTList@VCComThread@@@@AEAAHH@Z
_TEXT	SEGMENT
pList$ = 32
this$ = 64
nMaxCount$ = 72
?__alloc@?$CTList@VCComThread@@@@AEAAHH@Z PROC		; CTList<CComThread>::__alloc, COMDAT

; 402  : {

$LN5:
  00000	89 54 24 10	 mov	 DWORD PTR [rsp+16], edx
  00004	48 89 4c 24 08	 mov	 QWORD PTR [rsp+8], rcx
  00009	57		 push	 rdi
  0000a	48 83 ec 30	 sub	 rsp, 48			; 00000030H
  0000e	48 8b fc	 mov	 rdi, rsp
  00011	b9 0c 00 00 00	 mov	 ecx, 12
  00016	b8 cc cc cc cc	 mov	 eax, -858993460		; ccccccccH
  0001b	f3 ab		 rep stosd
  0001d	48 8b 4c 24 40	 mov	 rcx, QWORD PTR [rsp+64]

; 403  : 	T** pList = (T**)calloc(nMaxCount, sizeof(T*));

  00022	48 63 44 24 48	 movsxd	 rax, DWORD PTR nMaxCount$[rsp]
  00027	ba 08 00 00 00	 mov	 edx, 8
  0002c	48 8b c8	 mov	 rcx, rax
  0002f	ff 15 00 00 00
	00		 call	 QWORD PTR __imp_calloc
  00035	48 89 44 24 20	 mov	 QWORD PTR pList$[rsp], rax

; 404  : 	if (!pList) {

  0003a	48 83 7c 24 20
	00		 cmp	 QWORD PTR pList$[rsp], 0
  00040	75 17		 jne	 SHORT $LN2@alloc

; 405  : 		_stprintf(g_szMessage, "pList calloc is NULL");

  00042	48 8d 15 00 00
	00 00		 lea	 rdx, OFFSET FLAT:$SG47081
  00049	48 8d 0d 00 00
	00 00		 lea	 rcx, OFFSET FLAT:?g_szMessage@@3PADA ; g_szMessage
  00050	e8 00 00 00 00	 call	 sprintf

; 406  : 		return 0;

  00055	33 c0		 xor	 eax, eax
  00057	eb 4c		 jmp	 SHORT $LN1@alloc
$LN2@alloc:

; 407  : 	}
; 408  : 	//_stprintf(g_szMessage, _T("CTList::__alloc list m_nMaxCount[%d]"), nMaxCount);
; 409  : 	if (m_pArray) {

  00059	48 8b 44 24 40	 mov	 rax, QWORD PTR this$[rsp]
  0005e	48 83 38 00	 cmp	 QWORD PTR [rax], 0
  00062	74 30		 je	 SHORT $LN3@alloc

; 410  : 		memcpy(pList, m_pArray, m_nMax * sizeof(T*));

  00064	48 8b 44 24 40	 mov	 rax, QWORD PTR this$[rsp]
  00069	48 63 40 14	 movsxd	 rax, DWORD PTR [rax+20]
  0006d	48 c1 e0 03	 shl	 rax, 3
  00071	4c 8b c0	 mov	 r8, rax
  00074	48 8b 44 24 40	 mov	 rax, QWORD PTR this$[rsp]
  00079	48 8b 10	 mov	 rdx, QWORD PTR [rax]
  0007c	48 8b 4c 24 20	 mov	 rcx, QWORD PTR pList$[rsp]
  00081	e8 00 00 00 00	 call	 memcpy

; 411  : 		free(m_pArray);

  00086	48 8b 44 24 40	 mov	 rax, QWORD PTR this$[rsp]
  0008b	48 8b 08	 mov	 rcx, QWORD PTR [rax]
  0008e	ff 15 00 00 00
	00		 call	 QWORD PTR __imp_free
$LN3@alloc:

; 412  : 	}
; 413  : 	m_pArray = pList;

  00094	48 8b 44 24 40	 mov	 rax, QWORD PTR this$[rsp]
  00099	48 8b 4c 24 20	 mov	 rcx, QWORD PTR pList$[rsp]
  0009e	48 89 08	 mov	 QWORD PTR [rax], rcx

; 414  : 	return nMaxCount;

  000a1	8b 44 24 48	 mov	 eax, DWORD PTR nMaxCount$[rsp]
$LN1@alloc:

; 415  : }

  000a5	48 83 c4 30	 add	 rsp, 48			; 00000030H
  000a9	5f		 pop	 rdi
  000aa	c3		 ret	 0
?__alloc@?$CTList@VCComThread@@@@AEAAHH@Z ENDP		; CTList<CComThread>::__alloc
_TEXT	ENDS
; Function compile flags: /Odtp /RTCsu
; File e:\infinia-library-3.0\com\include\comtlist.h
;	COMDAT ?setObjAllocType@?$CTList@VCComThread@@@@QEAAXW4E_ALLOC_TYPE@@@Z
_TEXT	SEGMENT
this$ = 16
type$ = 24
?setObjAllocType@?$CTList@VCComThread@@@@QEAAXW4E_ALLOC_TYPE@@@Z PROC ; CTList<CComThread>::setObjAllocType, COMDAT

; 350  : 	inline void setObjAllocType(E_ALLOC_TYPE type) { m_nObjAllocType = type; }

$LN3:
  00000	89 54 24 10	 mov	 DWORD PTR [rsp+16], edx
  00004	48 89 4c 24 08	 mov	 QWORD PTR [rsp+8], rcx
  00009	57		 push	 rdi
  0000a	48 8b 44 24 10	 mov	 rax, QWORD PTR this$[rsp]
  0000f	8b 4c 24 18	 mov	 ecx, DWORD PTR type$[rsp]
  00013	89 48 18	 mov	 DWORD PTR [rax+24], ecx
  00016	5f		 pop	 rdi
  00017	c3		 ret	 0
?setObjAllocType@?$CTList@VCComThread@@@@QEAAXW4E_ALLOC_TYPE@@@Z ENDP ; CTList<CComThread>::setObjAllocType
_TEXT	ENDS
; Function compile flags: /Odtp /RTCsu
; File e:\infinia-library-3.0\com\include\comtlist.h
;	COMDAT ?lastIdx@?$CTList@VCComThread@@@@QEAAHXZ
_TEXT	SEGMENT
this$ = 16
?lastIdx@?$CTList@VCComThread@@@@QEAAHXZ PROC		; CTList<CComThread>::lastIdx, COMDAT

; 348  : 	inline int  lastIdx() { return m_nLast; }

$LN3:
  00000	48 89 4c 24 08	 mov	 QWORD PTR [rsp+8], rcx
  00005	57		 push	 rdi
  00006	48 8b 44 24 10	 mov	 rax, QWORD PTR this$[rsp]
  0000b	8b 40 0c	 mov	 eax, DWORD PTR [rax+12]
  0000e	5f		 pop	 rdi
  0000f	c3		 ret	 0
?lastIdx@?$CTList@VCComThread@@@@QEAAHXZ ENDP		; CTList<CComThread>::lastIdx
_TEXT	ENDS
; Function compile flags: /Odtp /RTCsu
; File e:\infinia-library-3.0\com\include\comtlist.h
;	COMDAT ?size@?$CTList@VCComThread@@@@QEAAHXZ
_TEXT	SEGMENT
this$ = 16
?size@?$CTList@VCComThread@@@@QEAAHXZ PROC		; CTList<CComThread>::size, COMDAT

; 347  : 	inline int  size() { return m_nUse; }

$LN3:
  00000	48 89 4c 24 08	 mov	 QWORD PTR [rsp+8], rcx
  00005	57		 push	 rdi
  00006	48 8b 44 24 10	 mov	 rax, QWORD PTR this$[rsp]
  0000b	8b 40 08	 mov	 eax, DWORD PTR [rax+8]
  0000e	5f		 pop	 rdi
  0000f	c3		 ret	 0
?size@?$CTList@VCComThread@@@@QEAAHXZ ENDP		; CTList<CComThread>::size
_TEXT	ENDS
; Function compile flags: /Odtp /RTCsu
; File e:\infinia-library-3.0\com\include\comtlist.h
;	COMDAT ?getNext@?$CTList@VCComThread@@@@QEAAPEAVCComThread@@PEAH@Z
_TEXT	SEGMENT
this$ = 16
pIdx$ = 24
?getNext@?$CTList@VCComThread@@@@QEAAPEAVCComThread@@PEAH@Z PROC ; CTList<CComThread>::getNext, COMDAT

; 334  : 	inline T* getNext(int *pIdx) {

$LN7:
  00000	48 89 54 24 10	 mov	 QWORD PTR [rsp+16], rdx
  00005	48 89 4c 24 08	 mov	 QWORD PTR [rsp+8], rcx
  0000a	57		 push	 rdi

; 335  : 		for (*pIdx; *pIdx < m_nMax; (*pIdx)++) {

  0000b	eb 10		 jmp	 SHORT $LN4@getNext
$LN2@getNext:
  0000d	48 8b 44 24 18	 mov	 rax, QWORD PTR pIdx$[rsp]
  00012	8b 00		 mov	 eax, DWORD PTR [rax]
  00014	ff c0		 inc	 eax
  00016	48 8b 4c 24 18	 mov	 rcx, QWORD PTR pIdx$[rsp]
  0001b	89 01		 mov	 DWORD PTR [rcx], eax
$LN4@getNext:
  0001d	48 8b 44 24 18	 mov	 rax, QWORD PTR pIdx$[rsp]
  00022	48 8b 4c 24 10	 mov	 rcx, QWORD PTR this$[rsp]
  00027	8b 49 14	 mov	 ecx, DWORD PTR [rcx+20]
  0002a	39 08		 cmp	 DWORD PTR [rax], ecx
  0002c	7d 2f		 jge	 SHORT $LN3@getNext

; 336  : 			if (m_pArray[*pIdx]) { return m_pArray[*pIdx]; }

  0002e	48 8b 44 24 18	 mov	 rax, QWORD PTR pIdx$[rsp]
  00033	48 63 00	 movsxd	 rax, DWORD PTR [rax]
  00036	48 8b 4c 24 10	 mov	 rcx, QWORD PTR this$[rsp]
  0003b	48 8b 09	 mov	 rcx, QWORD PTR [rcx]
  0003e	48 83 3c c1 00	 cmp	 QWORD PTR [rcx+rax*8], 0
  00043	74 16		 je	 SHORT $LN5@getNext
  00045	48 8b 44 24 18	 mov	 rax, QWORD PTR pIdx$[rsp]
  0004a	48 63 00	 movsxd	 rax, DWORD PTR [rax]
  0004d	48 8b 4c 24 10	 mov	 rcx, QWORD PTR this$[rsp]
  00052	48 8b 09	 mov	 rcx, QWORD PTR [rcx]
  00055	48 8b 04 c1	 mov	 rax, QWORD PTR [rcx+rax*8]
  00059	eb 04		 jmp	 SHORT $LN1@getNext
$LN5@getNext:

; 337  : 		}

  0005b	eb b0		 jmp	 SHORT $LN2@getNext
$LN3@getNext:

; 338  : 		return NULL;

  0005d	33 c0		 xor	 eax, eax
$LN1@getNext:

; 339  : 	}

  0005f	5f		 pop	 rdi
  00060	c3		 ret	 0
?getNext@?$CTList@VCComThread@@@@QEAAPEAVCComThread@@PEAH@Z ENDP ; CTList<CComThread>::getNext
_TEXT	ENDS
; Function compile flags: /Odtp /RTCsu
; File e:\infinia-library-3.0\com\include\comtlist.h
;	COMDAT ?getObj@?$CTList@VCComThread@@@@QEAAPEAVCComThread@@H@Z
_TEXT	SEGMENT
this$ = 48
i$ = 56
?getObj@?$CTList@VCComThread@@@@QEAAPEAVCComThread@@H@Z PROC ; CTList<CComThread>::getObj, COMDAT

; 332  : 	inline T* getObj(int i) { if (ISINCLUDE(i, m_nMax)) return m_pArray[i]; return NULL; }

$LN4:
  00000	89 54 24 10	 mov	 DWORD PTR [rsp+16], edx
  00004	48 89 4c 24 08	 mov	 QWORD PTR [rsp+8], rcx
  00009	57		 push	 rdi
  0000a	48 83 ec 20	 sub	 rsp, 32			; 00000020H
  0000e	48 8b fc	 mov	 rdi, rsp
  00011	b9 08 00 00 00	 mov	 ecx, 8
  00016	b8 cc cc cc cc	 mov	 eax, -858993460		; ccccccccH
  0001b	f3 ab		 rep stosd
  0001d	48 8b 4c 24 30	 mov	 rcx, QWORD PTR [rsp+48]
  00022	48 8b 44 24 30	 mov	 rax, QWORD PTR this$[rsp]
  00027	8b 50 14	 mov	 edx, DWORD PTR [rax+20]
  0002a	8b 4c 24 38	 mov	 ecx, DWORD PTR i$[rsp]
  0002e	e8 00 00 00 00	 call	 ?ISINCLUDE@@YA_NHH@Z	; ISINCLUDE
  00033	0f b6 c0	 movzx	 eax, al
  00036	85 c0		 test	 eax, eax
  00038	74 13		 je	 SHORT $LN2@getObj
  0003a	48 63 44 24 38	 movsxd	 rax, DWORD PTR i$[rsp]
  0003f	48 8b 4c 24 30	 mov	 rcx, QWORD PTR this$[rsp]
  00044	48 8b 09	 mov	 rcx, QWORD PTR [rcx]
  00047	48 8b 04 c1	 mov	 rax, QWORD PTR [rcx+rax*8]
  0004b	eb 02		 jmp	 SHORT $LN1@getObj
$LN2@getObj:
  0004d	33 c0		 xor	 eax, eax
$LN1@getObj:
  0004f	48 83 c4 20	 add	 rsp, 32			; 00000020H
  00053	5f		 pop	 rdi
  00054	c3		 ret	 0
?getObj@?$CTList@VCComThread@@@@QEAAPEAVCComThread@@H@Z ENDP ; CTList<CComThread>::getObj
_TEXT	ENDS
; Function compile flags: /Odtp /RTCsu
; File e:\infinia-library-3.0\com\include\comtlist.h
;	COMDAT ?del@?$CTList@VCComThread@@@@QEAA_NH@Z
_TEXT	SEGMENT
this$ = 48
i$ = 56
?del@?$CTList@VCComThread@@@@QEAA_NH@Z PROC		; CTList<CComThread>::del, COMDAT

; 523  : {

$LN4:
  00000	89 54 24 10	 mov	 DWORD PTR [rsp+16], edx
  00004	48 89 4c 24 08	 mov	 QWORD PTR [rsp+8], rcx
  00009	57		 push	 rdi
  0000a	48 83 ec 20	 sub	 rsp, 32			; 00000020H
  0000e	48 8b fc	 mov	 rdi, rsp
  00011	b9 08 00 00 00	 mov	 ecx, 8
  00016	b8 cc cc cc cc	 mov	 eax, -858993460		; ccccccccH
  0001b	f3 ab		 rep stosd
  0001d	48 8b 4c 24 30	 mov	 rcx, QWORD PTR [rsp+48]

; 524  : 	if (!ISINCLUDE(i, m_nMax)) {

  00022	48 8b 44 24 30	 mov	 rax, QWORD PTR this$[rsp]
  00027	8b 50 14	 mov	 edx, DWORD PTR [rax+20]
  0002a	8b 4c 24 38	 mov	 ecx, DWORD PTR i$[rsp]
  0002e	e8 00 00 00 00	 call	 ?ISINCLUDE@@YA_NHH@Z	; ISINCLUDE
  00033	0f b6 c0	 movzx	 eax, al
  00036	85 c0		 test	 eax, eax
  00038	75 25		 jne	 SHORT $LN2@del

; 525  : 		_stprintf(g_szMessage, "i[%d] m_nMax[%d]", i, m_nMax);

  0003a	48 8b 44 24 30	 mov	 rax, QWORD PTR this$[rsp]
  0003f	44 8b 48 14	 mov	 r9d, DWORD PTR [rax+20]
  00043	44 8b 44 24 38	 mov	 r8d, DWORD PTR i$[rsp]
  00048	48 8d 15 00 00
	00 00		 lea	 rdx, OFFSET FLAT:$SG47070
  0004f	48 8d 0d 00 00
	00 00		 lea	 rcx, OFFSET FLAT:?g_szMessage@@3PADA ; g_szMessage
  00056	e8 00 00 00 00	 call	 sprintf

; 526  : 		return false;

  0005b	32 c0		 xor	 al, al
  0005d	eb 10		 jmp	 SHORT $LN1@del
$LN2@del:

; 527  : 	}
; 528  : 	_DEL(i);

  0005f	8b 54 24 38	 mov	 edx, DWORD PTR i$[rsp]
  00063	48 8b 4c 24 30	 mov	 rcx, QWORD PTR this$[rsp]
  00068	e8 00 00 00 00	 call	 ?_DEL@?$CTList@VCComThread@@@@AEAAXH@Z ; CTList<CComThread>::_DEL

; 529  : 	//_stprintf(g_szMessage, _T("CMemList::del i[%d] m_nLast[%d] m_nCurCount[%d]"), i, m_nLast, m_nUse);
; 530  : 	return true;

  0006d	b0 01		 mov	 al, 1
$LN1@del:

; 531  : }

  0006f	48 83 c4 20	 add	 rsp, 32			; 00000020H
  00073	5f		 pop	 rdi
  00074	c3		 ret	 0
?del@?$CTList@VCComThread@@@@QEAA_NH@Z ENDP		; CTList<CComThread>::del
_TEXT	ENDS
; Function compile flags: /Odtp /RTCsu
; File e:\infinia-library-3.0\com\include\comtlist.h
;	COMDAT ?push_back@?$CTList@VCComThread@@@@QEAA_NPEAVCComThread@@PEAH@Z
_TEXT	SEGMENT
nIdx$ = 32
i$ = 36
this$ = 64
Obj$ = 72
pIdx$ = 80
?push_back@?$CTList@VCComThread@@@@QEAA_NPEAVCComThread@@PEAH@Z PROC ; CTList<CComThread>::push_back, COMDAT

; 472  : {

$LN15:
  00000	4c 89 44 24 18	 mov	 QWORD PTR [rsp+24], r8
  00005	48 89 54 24 10	 mov	 QWORD PTR [rsp+16], rdx
  0000a	48 89 4c 24 08	 mov	 QWORD PTR [rsp+8], rcx
  0000f	57		 push	 rdi
  00010	48 83 ec 30	 sub	 rsp, 48			; 00000030H
  00014	48 8b fc	 mov	 rdi, rsp
  00017	b9 0c 00 00 00	 mov	 ecx, 12
  0001c	b8 cc cc cc cc	 mov	 eax, -858993460		; ccccccccH
  00021	f3 ab		 rep stosd
  00023	48 8b 4c 24 40	 mov	 rcx, QWORD PTR [rsp+64]

; 473  : 	int nIdx, i;
; 474  : 
; 475  : 	if (m_nUse >= m_nMax) {

  00028	48 8b 44 24 40	 mov	 rax, QWORD PTR this$[rsp]
  0002d	48 8b 4c 24 40	 mov	 rcx, QWORD PTR this$[rsp]
  00032	8b 49 14	 mov	 ecx, DWORD PTR [rcx+20]
  00035	39 48 08	 cmp	 DWORD PTR [rax+8], ecx
  00038	7c 4b		 jl	 SHORT $LN5@push_back

; 476  : 		if (!__alloc(m_nMax + TLIST_ADD_SIZE)) return false;

  0003a	48 8b 44 24 40	 mov	 rax, QWORD PTR this$[rsp]
  0003f	8b 40 14	 mov	 eax, DWORD PTR [rax+20]
  00042	83 c0 40	 add	 eax, 64			; 00000040H
  00045	8b d0		 mov	 edx, eax
  00047	48 8b 4c 24 40	 mov	 rcx, QWORD PTR this$[rsp]
  0004c	e8 00 00 00 00	 call	 ?__alloc@?$CTList@VCComThread@@@@AEAAHH@Z ; CTList<CComThread>::__alloc
  00051	85 c0		 test	 eax, eax
  00053	75 07		 jne	 SHORT $LN6@push_back
  00055	32 c0		 xor	 al, al
  00057	e9 0c 01 00 00	 jmp	 $LN1@push_back
$LN6@push_back:

; 477  : 		nIdx = m_nMax;

  0005c	48 8b 44 24 40	 mov	 rax, QWORD PTR this$[rsp]
  00061	8b 40 14	 mov	 eax, DWORD PTR [rax+20]
  00064	89 44 24 20	 mov	 DWORD PTR nIdx$[rsp], eax

; 478  : 		m_nMax += TLIST_ADD_SIZE;

  00068	48 8b 44 24 40	 mov	 rax, QWORD PTR this$[rsp]
  0006d	8b 40 14	 mov	 eax, DWORD PTR [rax+20]
  00070	83 c0 40	 add	 eax, 64			; 00000040H
  00073	48 8b 4c 24 40	 mov	 rcx, QWORD PTR this$[rsp]
  00078	89 41 14	 mov	 DWORD PTR [rcx+20], eax

; 479  : 		goto ADD_SUCCESS;

  0007b	e9 99 00 00 00	 jmp	 $LN7@push_back
  00080	e9 94 00 00 00	 jmp	 $ADD_SUCCESS$16
$LN5@push_back:

; 480  : 	}
; 481  : 
; 482  : 	if (!m_pArray[m_nLast]) { nIdx = m_nLast;  goto ADD_SUCCESS; }

  00085	48 8b 44 24 40	 mov	 rax, QWORD PTR this$[rsp]
  0008a	48 63 40 0c	 movsxd	 rax, DWORD PTR [rax+12]
  0008e	48 8b 4c 24 40	 mov	 rcx, QWORD PTR this$[rsp]
  00093	48 8b 09	 mov	 rcx, QWORD PTR [rcx]
  00096	48 83 3c c1 00	 cmp	 QWORD PTR [rcx+rax*8], 0
  0009b	75 10		 jne	 SHORT $LN8@push_back
  0009d	48 8b 44 24 40	 mov	 rax, QWORD PTR this$[rsp]
  000a2	8b 40 0c	 mov	 eax, DWORD PTR [rax+12]
  000a5	89 44 24 20	 mov	 DWORD PTR nIdx$[rsp], eax
  000a9	eb 6e		 jmp	 SHORT $LN9@push_back
  000ab	eb 6c		 jmp	 SHORT $ADD_SUCCESS$16
$LN8@push_back:

; 483  : 
; 484  : 	nIdx = m_nLast;

  000ad	48 8b 44 24 40	 mov	 rax, QWORD PTR this$[rsp]
  000b2	8b 40 0c	 mov	 eax, DWORD PTR [rax+12]
  000b5	89 44 24 20	 mov	 DWORD PTR nIdx$[rsp], eax

; 485  : 	for (i = 0; i < m_nMax; i++)

  000b9	c7 44 24 24 00
	00 00 00	 mov	 DWORD PTR i$[rsp], 0
  000c1	eb 0a		 jmp	 SHORT $LN4@push_back
$LN2@push_back:
  000c3	8b 44 24 24	 mov	 eax, DWORD PTR i$[rsp]
  000c7	ff c0		 inc	 eax
  000c9	89 44 24 24	 mov	 DWORD PTR i$[rsp], eax
$LN4@push_back:
  000cd	48 8b 44 24 40	 mov	 rax, QWORD PTR this$[rsp]
  000d2	8b 40 14	 mov	 eax, DWORD PTR [rax+20]
  000d5	39 44 24 24	 cmp	 DWORD PTR i$[rsp], eax
  000d9	7d 3a		 jge	 SHORT $LN3@push_back

; 486  : 	{
; 487  : 		if (nIdx >= m_nMax) nIdx = 0;

  000db	48 8b 44 24 40	 mov	 rax, QWORD PTR this$[rsp]
  000e0	8b 40 14	 mov	 eax, DWORD PTR [rax+20]
  000e3	39 44 24 20	 cmp	 DWORD PTR nIdx$[rsp], eax
  000e7	7c 08		 jl	 SHORT $LN10@push_back
  000e9	c7 44 24 20 00
	00 00 00	 mov	 DWORD PTR nIdx$[rsp], 0
$LN10@push_back:

; 488  : 		if (!m_pArray[nIdx]) {

  000f1	48 63 44 24 20	 movsxd	 rax, DWORD PTR nIdx$[rsp]
  000f6	48 8b 4c 24 40	 mov	 rcx, QWORD PTR this$[rsp]
  000fb	48 8b 09	 mov	 rcx, QWORD PTR [rcx]
  000fe	48 83 3c c1 00	 cmp	 QWORD PTR [rcx+rax*8], 0
  00103	75 04		 jne	 SHORT $LN11@push_back

; 489  : 			goto ADD_SUCCESS;

  00105	eb 12		 jmp	 SHORT $LN12@push_back
  00107	eb 10		 jmp	 SHORT $ADD_SUCCESS$16
$LN11@push_back:

; 490  : 		}
; 491  : 		nIdx++;

  00109	8b 44 24 20	 mov	 eax, DWORD PTR nIdx$[rsp]
  0010d	ff c0		 inc	 eax
  0010f	89 44 24 20	 mov	 DWORD PTR nIdx$[rsp], eax

; 492  : 	}

  00113	eb ae		 jmp	 SHORT $LN2@push_back
$LN3@push_back:

; 493  : 	//_stprintf(m_szMessage, _T("add FAIL! m_nLast[%d] m_nCurCount[%d] m_nMax[%d]"), m_nLast, m_nUse, m_nMax);
; 494  : 	return false;

  00115	32 c0		 xor	 al, al
  00117	eb 4f		 jmp	 SHORT $LN1@push_back
$LN7@push_back:
$LN9@push_back:
$LN12@push_back:
$ADD_SUCCESS$16:

; 495  : 
; 496  : ADD_SUCCESS:
; 497  : 	m_nUse++;

  00119	48 8b 44 24 40	 mov	 rax, QWORD PTR this$[rsp]
  0011e	8b 40 08	 mov	 eax, DWORD PTR [rax+8]
  00121	ff c0		 inc	 eax
  00123	48 8b 4c 24 40	 mov	 rcx, QWORD PTR this$[rsp]
  00128	89 41 08	 mov	 DWORD PTR [rcx+8], eax

; 498  : 	m_pArray[nIdx] = Obj;

  0012b	48 63 44 24 20	 movsxd	 rax, DWORD PTR nIdx$[rsp]
  00130	48 8b 4c 24 40	 mov	 rcx, QWORD PTR this$[rsp]
  00135	48 8b 09	 mov	 rcx, QWORD PTR [rcx]
  00138	48 8b 54 24 48	 mov	 rdx, QWORD PTR Obj$[rsp]
  0013d	48 89 14 c1	 mov	 QWORD PTR [rcx+rax*8], rdx

; 499  : 	m_nLast++;

  00141	48 8b 44 24 40	 mov	 rax, QWORD PTR this$[rsp]
  00146	8b 40 0c	 mov	 eax, DWORD PTR [rax+12]
  00149	ff c0		 inc	 eax
  0014b	48 8b 4c 24 40	 mov	 rcx, QWORD PTR this$[rsp]
  00150	89 41 0c	 mov	 DWORD PTR [rcx+12], eax

; 500  : 	//_stprintf(g_szMessage, _T("CMemList::add i[%d] m_nLast[%d] m_nCurCount[%d]"), nIdx, m_nLast, m_nUse);
; 501  : 	if (pIdx) *pIdx = nIdx;

  00153	48 83 7c 24 50
	00		 cmp	 QWORD PTR pIdx$[rsp], 0
  00159	74 0b		 je	 SHORT $LN13@push_back
  0015b	48 8b 44 24 50	 mov	 rax, QWORD PTR pIdx$[rsp]
  00160	8b 4c 24 20	 mov	 ecx, DWORD PTR nIdx$[rsp]
  00164	89 08		 mov	 DWORD PTR [rax], ecx
$LN13@push_back:

; 502  : 	return true;

  00166	b0 01		 mov	 al, 1
$LN1@push_back:

; 503  : }

  00168	48 83 c4 30	 add	 rsp, 48			; 00000030H
  0016c	5f		 pop	 rdi
  0016d	c3		 ret	 0
?push_back@?$CTList@VCComThread@@@@QEAA_NPEAVCComThread@@PEAH@Z ENDP ; CTList<CComThread>::push_back
_TEXT	ENDS
; Function compile flags: /Odtp /RTCsu
; File e:\infinia-library-3.0\com\include\comtlist.h
;	COMDAT ?alloc@?$CTList@VCComThread@@@@QEAAHHW4E_ALLOC_TYPE@@@Z
_TEXT	SEGMENT
this$ = 48
nMaxCount$ = 56
type$ = 64
?alloc@?$CTList@VCComThread@@@@QEAAHHW4E_ALLOC_TYPE@@@Z PROC ; CTList<CComThread>::alloc, COMDAT

; 326  : 	int alloc(int nMaxCount, E_ALLOC_TYPE type = eAlloc_Type_new) { m_nObjAllocType = type;  m_nMax = __alloc(nMaxCount); return m_nMax; }

$LN3:
  00000	44 89 44 24 18	 mov	 DWORD PTR [rsp+24], r8d
  00005	89 54 24 10	 mov	 DWORD PTR [rsp+16], edx
  00009	48 89 4c 24 08	 mov	 QWORD PTR [rsp+8], rcx
  0000e	57		 push	 rdi
  0000f	48 83 ec 20	 sub	 rsp, 32			; 00000020H
  00013	48 8b fc	 mov	 rdi, rsp
  00016	b9 08 00 00 00	 mov	 ecx, 8
  0001b	b8 cc cc cc cc	 mov	 eax, -858993460		; ccccccccH
  00020	f3 ab		 rep stosd
  00022	48 8b 4c 24 30	 mov	 rcx, QWORD PTR [rsp+48]
  00027	48 8b 44 24 30	 mov	 rax, QWORD PTR this$[rsp]
  0002c	8b 4c 24 40	 mov	 ecx, DWORD PTR type$[rsp]
  00030	89 48 18	 mov	 DWORD PTR [rax+24], ecx
  00033	8b 54 24 38	 mov	 edx, DWORD PTR nMaxCount$[rsp]
  00037	48 8b 4c 24 30	 mov	 rcx, QWORD PTR this$[rsp]
  0003c	e8 00 00 00 00	 call	 ?__alloc@?$CTList@VCComThread@@@@AEAAHH@Z ; CTList<CComThread>::__alloc
  00041	48 8b 4c 24 30	 mov	 rcx, QWORD PTR this$[rsp]
  00046	89 41 14	 mov	 DWORD PTR [rcx+20], eax
  00049	48 8b 44 24 30	 mov	 rax, QWORD PTR this$[rsp]
  0004e	8b 40 14	 mov	 eax, DWORD PTR [rax+20]
  00051	48 83 c4 20	 add	 rsp, 32			; 00000020H
  00055	5f		 pop	 rdi
  00056	c3		 ret	 0
?alloc@?$CTList@VCComThread@@@@QEAAHHW4E_ALLOC_TYPE@@@Z ENDP ; CTList<CComThread>::alloc
_TEXT	ENDS
; Function compile flags: /Odtp /RTCsu
; File e:\infinia-library-3.0\com\include\comtlist.h
;	COMDAT ??1?$CTList@VCComThread@@@@QEAA@XZ
_TEXT	SEGMENT
idx$4 = 36
p$5 = 56
$T6 = 72
$T7 = 80
$T8 = 88
$T9 = 96
$T10 = 104
tv77 = 112
tv82 = 120
tv95 = 128
__$ArrayPad$ = 136
this$ = 160
??1?$CTList@VCComThread@@@@QEAA@XZ PROC			; CTList<CComThread>::~CTList<CComThread>, COMDAT

; 376  : {

$LN20:
  00000	48 89 4c 24 08	 mov	 QWORD PTR [rsp+8], rcx
  00005	57		 push	 rdi
  00006	48 81 ec 90 00
	00 00		 sub	 rsp, 144		; 00000090H
  0000d	48 8b fc	 mov	 rdi, rsp
  00010	b9 24 00 00 00	 mov	 ecx, 36			; 00000024H
  00015	b8 cc cc cc cc	 mov	 eax, -858993460		; ccccccccH
  0001a	f3 ab		 rep stosd
  0001c	48 8b 8c 24 a0
	00 00 00	 mov	 rcx, QWORD PTR [rsp+160]
  00024	48 c7 44 24 68
	fe ff ff ff	 mov	 QWORD PTR $T10[rsp], -2
  0002d	48 8b 05 00 00
	00 00		 mov	 rax, QWORD PTR __security_cookie
  00034	48 33 c4	 xor	 rax, rsp
  00037	48 89 84 24 88
	00 00 00	 mov	 QWORD PTR __$ArrayPad$[rsp], rax

; 377  : 	if (!m_pArray) return;

  0003f	48 8b 84 24 a0
	00 00 00	 mov	 rax, QWORD PTR this$[rsp]
  00047	48 83 38 00	 cmp	 QWORD PTR [rax], 0
  0004b	75 05		 jne	 SHORT $LN6@CTList
  0004d	e9 81 01 00 00	 jmp	 $LN1@CTList
$LN6@CTList:

; 378  : 
; 379  : 	if (ISABLETODELETE(m_nObjAllocType)) {

  00052	48 8b 84 24 a0
	00 00 00	 mov	 rax, QWORD PTR this$[rsp]
  0005a	8b 48 18	 mov	 ecx, DWORD PTR [rax+24]
  0005d	e8 00 00 00 00	 call	 ?ISABLETODELETE@@YA_NW4E_ALLOC_TYPE@@@Z ; ISABLETODELETE
  00062	90		 npad	 1
  00063	0f b6 c0	 movzx	 eax, al
  00066	85 c0		 test	 eax, eax
  00068	0f 84 36 01 00
	00		 je	 $LN7@CTList

; 380  : 		int idx = 0;

  0006e	c7 44 24 24 00
	00 00 00	 mov	 DWORD PTR idx$4[rsp], 0

; 381  : 		T *p = getNext(&idx);

  00076	48 8d 54 24 24	 lea	 rdx, QWORD PTR idx$4[rsp]
  0007b	48 8b 8c 24 a0
	00 00 00	 mov	 rcx, QWORD PTR this$[rsp]
  00083	e8 00 00 00 00	 call	 ?getNext@?$CTList@VCComThread@@@@QEAAPEAVCComThread@@PEAH@Z ; CTList<CComThread>::getNext
  00088	90		 npad	 1
  00089	48 89 44 24 38	 mov	 QWORD PTR p$5[rsp], rax
$LN2@CTList:

; 382  : 		while (p) {

  0008e	48 83 7c 24 38
	00		 cmp	 QWORD PTR p$5[rsp], 0
  00094	0f 84 0a 01 00
	00		 je	 $LN7@CTList

; 383  : 			idx++;

  0009a	8b 44 24 24	 mov	 eax, DWORD PTR idx$4[rsp]
  0009e	ff c0		 inc	 eax
  000a0	89 44 24 24	 mov	 DWORD PTR idx$4[rsp], eax

; 384  : 			switch (m_nObjAllocType) {

  000a4	48 8b 84 24 a0
	00 00 00	 mov	 rax, QWORD PTR this$[rsp]
  000ac	8b 40 18	 mov	 eax, DWORD PTR [rax+24]
  000af	89 44 24 70	 mov	 DWORD PTR tv77[rsp], eax
  000b3	83 7c 24 70 02	 cmp	 DWORD PTR tv77[rsp], 2
  000b8	74 1a		 je	 SHORT $LN8@CTList
  000ba	83 7c 24 70 03	 cmp	 DWORD PTR tv77[rsp], 3
  000bf	74 51		 je	 SHORT $LN9@CTList
  000c1	83 7c 24 70 04	 cmp	 DWORD PTR tv77[rsp], 4
  000c6	74 58		 je	 SHORT $LN10@CTList
  000c8	83 7c 24 70 05	 cmp	 DWORD PTR tv77[rsp], 5
  000cd	74 76		 je	 SHORT $LN11@CTList
  000cf	e9 b3 00 00 00	 jmp	 $LN4@CTList
$LN8@CTList:

; 385  : 				case eAlloc_Type_new		:	delete p; break;

  000d4	48 8b 44 24 38	 mov	 rax, QWORD PTR p$5[rsp]
  000d9	48 89 44 24 50	 mov	 QWORD PTR $T7[rsp], rax
  000de	48 8b 44 24 50	 mov	 rax, QWORD PTR $T7[rsp]
  000e3	48 89 44 24 48	 mov	 QWORD PTR $T6[rsp], rax
  000e8	48 83 7c 24 48
	00		 cmp	 QWORD PTR $T6[rsp], 0
  000ee	74 17		 je	 SHORT $LN16@CTList
  000f0	ba 01 00 00 00	 mov	 edx, 1
  000f5	48 8b 4c 24 48	 mov	 rcx, QWORD PTR $T6[rsp]
  000fa	e8 00 00 00 00	 call	 ??_GCComThread@@QEAAPEAXI@Z
  000ff	90		 npad	 1
  00100	48 89 44 24 78	 mov	 QWORD PTR tv82[rsp], rax
  00105	eb 09		 jmp	 SHORT $LN17@CTList
$LN16@CTList:
  00107	48 c7 44 24 78
	00 00 00 00	 mov	 QWORD PTR tv82[rsp], 0
$LN17@CTList:
  00110	eb 75		 jmp	 SHORT $LN4@CTList
$LN9@CTList:

; 386  : 				case eAlloc_Type_alloc		:	free(p); break;

  00112	48 8b 4c 24 38	 mov	 rcx, QWORD PTR p$5[rsp]
  00117	ff 15 00 00 00
	00		 call	 QWORD PTR __imp_free
  0011d	90		 npad	 1
  0011e	eb 67		 jmp	 SHORT $LN4@CTList
$LN10@CTList:

; 387  : 				case eAlloc_Type_BufPool	:	gs_pMMgr->delBuf((char *)p, STRING_SIZE((TCHAR *)p)); break;

  00120	48 8b 4c 24 38	 mov	 rcx, QWORD PTR p$5[rsp]
  00125	e8 00 00 00 00	 call	 strlen
  0012a	90		 npad	 1
  0012b	48 ff c0	 inc	 rax
  0012e	44 8b c0	 mov	 r8d, eax
  00131	48 8b 54 24 38	 mov	 rdx, QWORD PTR p$5[rsp]
  00136	48 8b 0d 00 00
	00 00		 mov	 rcx, QWORD PTR ?gs_pMMgr@@3PEAVCMemManager@@EA ; gs_pMMgr
  0013d	e8 00 00 00 00	 call	 ?delBuf@CMemManager@@QEAAXPEADH@Z ; CMemManager::delBuf
  00142	90		 npad	 1
  00143	eb 42		 jmp	 SHORT $LN4@CTList
$LN11@CTList:

; 388  : 				case eAlloc_Type_newArray	:	delete[] p; break;

  00145	48 8b 44 24 38	 mov	 rax, QWORD PTR p$5[rsp]
  0014a	48 89 44 24 60	 mov	 QWORD PTR $T9[rsp], rax
  0014f	48 8b 44 24 60	 mov	 rax, QWORD PTR $T9[rsp]
  00154	48 89 44 24 58	 mov	 QWORD PTR $T8[rsp], rax
  00159	48 83 7c 24 58
	00		 cmp	 QWORD PTR $T8[rsp], 0
  0015f	74 1a		 je	 SHORT $LN18@CTList
  00161	ba 03 00 00 00	 mov	 edx, 3
  00166	48 8b 4c 24 58	 mov	 rcx, QWORD PTR $T8[rsp]
  0016b	e8 00 00 00 00	 call	 ??_ECComThread@@QEAAPEAXI@Z
  00170	90		 npad	 1
  00171	48 89 84 24 80
	00 00 00	 mov	 QWORD PTR tv95[rsp], rax
  00179	eb 0c		 jmp	 SHORT $LN4@CTList
$LN18@CTList:
  0017b	48 c7 84 24 80
	00 00 00 00 00
	00 00		 mov	 QWORD PTR tv95[rsp], 0
$LN4@CTList:

; 389  : 				case eAlloc_Type_none		:	break;
; 390  : 				case eAlloc_Type_MemPool	:	break;
; 391  : 			}
; 392  : 			p = getNext(&idx);

  00187	48 8d 54 24 24	 lea	 rdx, QWORD PTR idx$4[rsp]
  0018c	48 8b 8c 24 a0
	00 00 00	 mov	 rcx, QWORD PTR this$[rsp]
  00194	e8 00 00 00 00	 call	 ?getNext@?$CTList@VCComThread@@@@QEAAPEAVCComThread@@PEAH@Z ; CTList<CComThread>::getNext
  00199	90		 npad	 1
  0019a	48 89 44 24 38	 mov	 QWORD PTR p$5[rsp], rax

; 393  : 		}

  0019f	e9 ea fe ff ff	 jmp	 $LN2@CTList
$LN7@CTList:

; 394  : 	}
; 395  : 
; 396  : 	if (m_pArray)	free(m_pArray);

  001a4	48 8b 84 24 a0
	00 00 00	 mov	 rax, QWORD PTR this$[rsp]
  001ac	48 83 38 00	 cmp	 QWORD PTR [rax], 0
  001b0	74 12		 je	 SHORT $LN14@CTList
  001b2	48 8b 84 24 a0
	00 00 00	 mov	 rax, QWORD PTR this$[rsp]
  001ba	48 8b 08	 mov	 rcx, QWORD PTR [rax]
  001bd	ff 15 00 00 00
	00		 call	 QWORD PTR __imp_free
  001c3	90		 npad	 1
$LN14@CTList:

; 397  : 	m_pArray = 0;

  001c4	48 8b 84 24 a0
	00 00 00	 mov	 rax, QWORD PTR this$[rsp]
  001cc	48 c7 00 00 00
	00 00		 mov	 QWORD PTR [rax], 0
$LN1@CTList:

; 398  : }

  001d3	48 8b cc	 mov	 rcx, rsp
  001d6	48 8d 15 00 00
	00 00		 lea	 rdx, OFFSET FLAT:??1?$CTList@VCComThread@@@@QEAA@XZ$rtcFrameData
  001dd	e8 00 00 00 00	 call	 _RTC_CheckStackVars
  001e2	90		 npad	 1
  001e3	48 8b 8c 24 88
	00 00 00	 mov	 rcx, QWORD PTR __$ArrayPad$[rsp]
  001eb	48 33 cc	 xor	 rcx, rsp
  001ee	e8 00 00 00 00	 call	 __security_check_cookie
  001f3	90		 npad	 1
  001f4	48 81 c4 90 00
	00 00		 add	 rsp, 144		; 00000090H
  001fb	5f		 pop	 rdi
  001fc	c3		 ret	 0
??1?$CTList@VCComThread@@@@QEAA@XZ ENDP			; CTList<CComThread>::~CTList<CComThread>
_TEXT	ENDS
; Function compile flags: /Odtp /RTCsu
; File e:\infinia-library-3.0\com\include\comtlist.h
;	COMDAT ??0?$CTList@VCComThread@@@@QEAA@XZ
_TEXT	SEGMENT
this$ = 16
??0?$CTList@VCComThread@@@@QEAA@XZ PROC			; CTList<CComThread>::CTList<CComThread>, COMDAT

; 365  : {

$LN3:
  00000	48 89 4c 24 08	 mov	 QWORD PTR [rsp+8], rcx
  00005	57		 push	 rdi

; 366  : 	m_pArray = NULL;

  00006	48 8b 44 24 10	 mov	 rax, QWORD PTR this$[rsp]
  0000b	48 c7 00 00 00
	00 00		 mov	 QWORD PTR [rax], 0

; 367  : 	m_nUse = 0;

  00012	48 8b 44 24 10	 mov	 rax, QWORD PTR this$[rsp]
  00017	c7 40 08 00 00
	00 00		 mov	 DWORD PTR [rax+8], 0

; 368  : 	m_nLast = 0;

  0001e	48 8b 44 24 10	 mov	 rax, QWORD PTR this$[rsp]
  00023	c7 40 0c 00 00
	00 00		 mov	 DWORD PTR [rax+12], 0

; 369  : 	m_nDelIdx = 0;

  0002a	48 8b 44 24 10	 mov	 rax, QWORD PTR this$[rsp]
  0002f	c7 40 10 00 00
	00 00		 mov	 DWORD PTR [rax+16], 0

; 370  : 	m_nMax = 0;

  00036	48 8b 44 24 10	 mov	 rax, QWORD PTR this$[rsp]
  0003b	c7 40 14 00 00
	00 00		 mov	 DWORD PTR [rax+20], 0

; 371  : 	m_nObjAllocType = eAlloc_Type_none;

  00042	48 8b 44 24 10	 mov	 rax, QWORD PTR this$[rsp]
  00047	c7 40 18 00 00
	00 00		 mov	 DWORD PTR [rax+24], 0

; 372  : }

  0004e	48 8b 44 24 10	 mov	 rax, QWORD PTR this$[rsp]
  00053	5f		 pop	 rdi
  00054	c3		 ret	 0
??0?$CTList@VCComThread@@@@QEAA@XZ ENDP			; CTList<CComThread>::CTList<CComThread>
_TEXT	ENDS
; Function compile flags: /Odtp /RTCsu
;	COMDAT ??_G?$CTList@VCScheduler@@@@QEAAPEAXI@Z
_TEXT	SEGMENT
this$ = 48
__flags$ = 56
??_G?$CTList@VCScheduler@@@@QEAAPEAXI@Z PROC		; CTList<CScheduler>::`scalar deleting destructor', COMDAT
$LN4:
  00000	89 54 24 10	 mov	 DWORD PTR [rsp+16], edx
  00004	48 89 4c 24 08	 mov	 QWORD PTR [rsp+8], rcx
  00009	57		 push	 rdi
  0000a	48 83 ec 20	 sub	 rsp, 32			; 00000020H
  0000e	48 8b fc	 mov	 rdi, rsp
  00011	b9 08 00 00 00	 mov	 ecx, 8
  00016	b8 cc cc cc cc	 mov	 eax, -858993460		; ccccccccH
  0001b	f3 ab		 rep stosd
  0001d	48 8b 4c 24 30	 mov	 rcx, QWORD PTR [rsp+48]
  00022	48 8b 4c 24 30	 mov	 rcx, QWORD PTR this$[rsp]
  00027	e8 00 00 00 00	 call	 ??1?$CTList@VCScheduler@@@@QEAA@XZ ; CTList<CScheduler>::~CTList<CScheduler>
  0002c	8b 44 24 38	 mov	 eax, DWORD PTR __flags$[rsp]
  00030	83 e0 01	 and	 eax, 1
  00033	85 c0		 test	 eax, eax
  00035	74 0f		 je	 SHORT $LN2@scalar
  00037	ba 20 00 00 00	 mov	 edx, 32			; 00000020H
  0003c	48 8b 4c 24 30	 mov	 rcx, QWORD PTR this$[rsp]
  00041	e8 00 00 00 00	 call	 ??3@YAXPEAX_K@Z		; operator delete
$LN2@scalar:
  00046	48 8b 44 24 30	 mov	 rax, QWORD PTR this$[rsp]
  0004b	48 83 c4 20	 add	 rsp, 32			; 00000020H
  0004f	5f		 pop	 rdi
  00050	c3		 ret	 0
??_G?$CTList@VCScheduler@@@@QEAAPEAXI@Z ENDP		; CTList<CScheduler>::`scalar deleting destructor'
_TEXT	ENDS
; Function compile flags: /Odtp /RTCsu
;	COMDAT ?__autoclassinit2@?$CTList@VCScheduler@@@@QEAAX_K@Z
_TEXT	SEGMENT
this$ = 16
classSize$ = 24
?__autoclassinit2@?$CTList@VCScheduler@@@@QEAAX_K@Z PROC ; CTList<CScheduler>::__autoclassinit2, COMDAT
$LN3:
  00000	48 89 54 24 10	 mov	 QWORD PTR [rsp+16], rdx
  00005	48 89 4c 24 08	 mov	 QWORD PTR [rsp+8], rcx
  0000a	57		 push	 rdi
  0000b	48 8b 7c 24 10	 mov	 rdi, QWORD PTR this$[rsp]
  00010	33 c0		 xor	 eax, eax
  00012	48 8b 4c 24 18	 mov	 rcx, QWORD PTR classSize$[rsp]
  00017	f3 aa		 rep stosb
  00019	5f		 pop	 rdi
  0001a	c3		 ret	 0
?__autoclassinit2@?$CTList@VCScheduler@@@@QEAAX_K@Z ENDP ; CTList<CScheduler>::__autoclassinit2
_TEXT	ENDS
; Function compile flags: /Odtp /RTCsu
; File e:\infinia-library-3.0\com\include\comtlist.h
;	COMDAT ?_DEL@?$CTList@VCScheduler@@@@AEAAXH@Z
_TEXT	SEGMENT
this$ = 16
i$ = 24
?_DEL@?$CTList@VCScheduler@@@@AEAAXH@Z PROC		; CTList<CScheduler>::_DEL, COMDAT

; 360  : 	inline void _DEL(int i) { m_pArray[i] = 0; m_nUse--; m_nDelIdx = i; }

$LN3:
  00000	89 54 24 10	 mov	 DWORD PTR [rsp+16], edx
  00004	48 89 4c 24 08	 mov	 QWORD PTR [rsp+8], rcx
  00009	57		 push	 rdi
  0000a	48 63 44 24 18	 movsxd	 rax, DWORD PTR i$[rsp]
  0000f	48 8b 4c 24 10	 mov	 rcx, QWORD PTR this$[rsp]
  00014	48 8b 09	 mov	 rcx, QWORD PTR [rcx]
  00017	48 c7 04 c1 00
	00 00 00	 mov	 QWORD PTR [rcx+rax*8], 0
  0001f	48 8b 44 24 10	 mov	 rax, QWORD PTR this$[rsp]
  00024	8b 40 08	 mov	 eax, DWORD PTR [rax+8]
  00027	ff c8		 dec	 eax
  00029	48 8b 4c 24 10	 mov	 rcx, QWORD PTR this$[rsp]
  0002e	89 41 08	 mov	 DWORD PTR [rcx+8], eax
  00031	48 8b 44 24 10	 mov	 rax, QWORD PTR this$[rsp]
  00036	8b 4c 24 18	 mov	 ecx, DWORD PTR i$[rsp]
  0003a	89 48 10	 mov	 DWORD PTR [rax+16], ecx
  0003d	5f		 pop	 rdi
  0003e	c3		 ret	 0
?_DEL@?$CTList@VCScheduler@@@@AEAAXH@Z ENDP		; CTList<CScheduler>::_DEL
_TEXT	ENDS
; Function compile flags: /Odtp /RTCsu
; File e:\infinia-library-3.0\com\include\comtlist.h
;	COMDAT ?__alloc@?$CTList@VCScheduler@@@@AEAAHH@Z
_TEXT	SEGMENT
pList$ = 32
this$ = 64
nMaxCount$ = 72
?__alloc@?$CTList@VCScheduler@@@@AEAAHH@Z PROC		; CTList<CScheduler>::__alloc, COMDAT

; 402  : {

$LN5:
  00000	89 54 24 10	 mov	 DWORD PTR [rsp+16], edx
  00004	48 89 4c 24 08	 mov	 QWORD PTR [rsp+8], rcx
  00009	57		 push	 rdi
  0000a	48 83 ec 30	 sub	 rsp, 48			; 00000030H
  0000e	48 8b fc	 mov	 rdi, rsp
  00011	b9 0c 00 00 00	 mov	 ecx, 12
  00016	b8 cc cc cc cc	 mov	 eax, -858993460		; ccccccccH
  0001b	f3 ab		 rep stosd
  0001d	48 8b 4c 24 40	 mov	 rcx, QWORD PTR [rsp+64]

; 403  : 	T** pList = (T**)calloc(nMaxCount, sizeof(T*));

  00022	48 63 44 24 48	 movsxd	 rax, DWORD PTR nMaxCount$[rsp]
  00027	ba 08 00 00 00	 mov	 edx, 8
  0002c	48 8b c8	 mov	 rcx, rax
  0002f	ff 15 00 00 00
	00		 call	 QWORD PTR __imp_calloc
  00035	48 89 44 24 20	 mov	 QWORD PTR pList$[rsp], rax

; 404  : 	if (!pList) {

  0003a	48 83 7c 24 20
	00		 cmp	 QWORD PTR pList$[rsp], 0
  00040	75 17		 jne	 SHORT $LN2@alloc

; 405  : 		_stprintf(g_szMessage, "pList calloc is NULL");

  00042	48 8d 15 00 00
	00 00		 lea	 rdx, OFFSET FLAT:$SG47010
  00049	48 8d 0d 00 00
	00 00		 lea	 rcx, OFFSET FLAT:?g_szMessage@@3PADA ; g_szMessage
  00050	e8 00 00 00 00	 call	 sprintf

; 406  : 		return 0;

  00055	33 c0		 xor	 eax, eax
  00057	eb 4c		 jmp	 SHORT $LN1@alloc
$LN2@alloc:

; 407  : 	}
; 408  : 	//_stprintf(g_szMessage, _T("CTList::__alloc list m_nMaxCount[%d]"), nMaxCount);
; 409  : 	if (m_pArray) {

  00059	48 8b 44 24 40	 mov	 rax, QWORD PTR this$[rsp]
  0005e	48 83 38 00	 cmp	 QWORD PTR [rax], 0
  00062	74 30		 je	 SHORT $LN3@alloc

; 410  : 		memcpy(pList, m_pArray, m_nMax * sizeof(T*));

  00064	48 8b 44 24 40	 mov	 rax, QWORD PTR this$[rsp]
  00069	48 63 40 14	 movsxd	 rax, DWORD PTR [rax+20]
  0006d	48 c1 e0 03	 shl	 rax, 3
  00071	4c 8b c0	 mov	 r8, rax
  00074	48 8b 44 24 40	 mov	 rax, QWORD PTR this$[rsp]
  00079	48 8b 10	 mov	 rdx, QWORD PTR [rax]
  0007c	48 8b 4c 24 20	 mov	 rcx, QWORD PTR pList$[rsp]
  00081	e8 00 00 00 00	 call	 memcpy

; 411  : 		free(m_pArray);

  00086	48 8b 44 24 40	 mov	 rax, QWORD PTR this$[rsp]
  0008b	48 8b 08	 mov	 rcx, QWORD PTR [rax]
  0008e	ff 15 00 00 00
	00		 call	 QWORD PTR __imp_free
$LN3@alloc:

; 412  : 	}
; 413  : 	m_pArray = pList;

  00094	48 8b 44 24 40	 mov	 rax, QWORD PTR this$[rsp]
  00099	48 8b 4c 24 20	 mov	 rcx, QWORD PTR pList$[rsp]
  0009e	48 89 08	 mov	 QWORD PTR [rax], rcx

; 414  : 	return nMaxCount;

  000a1	8b 44 24 48	 mov	 eax, DWORD PTR nMaxCount$[rsp]
$LN1@alloc:

; 415  : }

  000a5	48 83 c4 30	 add	 rsp, 48			; 00000030H
  000a9	5f		 pop	 rdi
  000aa	c3		 ret	 0
?__alloc@?$CTList@VCScheduler@@@@AEAAHH@Z ENDP		; CTList<CScheduler>::__alloc
_TEXT	ENDS
; Function compile flags: /Odtp /RTCsu
; File e:\infinia-library-3.0\com\include\comtlist.h
;	COMDAT ?setObjAllocType@?$CTList@VCScheduler@@@@QEAAXW4E_ALLOC_TYPE@@@Z
_TEXT	SEGMENT
this$ = 16
type$ = 24
?setObjAllocType@?$CTList@VCScheduler@@@@QEAAXW4E_ALLOC_TYPE@@@Z PROC ; CTList<CScheduler>::setObjAllocType, COMDAT

; 350  : 	inline void setObjAllocType(E_ALLOC_TYPE type) { m_nObjAllocType = type; }

$LN3:
  00000	89 54 24 10	 mov	 DWORD PTR [rsp+16], edx
  00004	48 89 4c 24 08	 mov	 QWORD PTR [rsp+8], rcx
  00009	57		 push	 rdi
  0000a	48 8b 44 24 10	 mov	 rax, QWORD PTR this$[rsp]
  0000f	8b 4c 24 18	 mov	 ecx, DWORD PTR type$[rsp]
  00013	89 48 18	 mov	 DWORD PTR [rax+24], ecx
  00016	5f		 pop	 rdi
  00017	c3		 ret	 0
?setObjAllocType@?$CTList@VCScheduler@@@@QEAAXW4E_ALLOC_TYPE@@@Z ENDP ; CTList<CScheduler>::setObjAllocType
_TEXT	ENDS
; Function compile flags: /Odtp /RTCsu
; File e:\infinia-library-3.0\com\include\comtlist.h
;	COMDAT ?size@?$CTList@VCScheduler@@@@QEAAHXZ
_TEXT	SEGMENT
this$ = 16
?size@?$CTList@VCScheduler@@@@QEAAHXZ PROC		; CTList<CScheduler>::size, COMDAT

; 347  : 	inline int  size() { return m_nUse; }

$LN3:
  00000	48 89 4c 24 08	 mov	 QWORD PTR [rsp+8], rcx
  00005	57		 push	 rdi
  00006	48 8b 44 24 10	 mov	 rax, QWORD PTR this$[rsp]
  0000b	8b 40 08	 mov	 eax, DWORD PTR [rax+8]
  0000e	5f		 pop	 rdi
  0000f	c3		 ret	 0
?size@?$CTList@VCScheduler@@@@QEAAHXZ ENDP		; CTList<CScheduler>::size
_TEXT	ENDS
; Function compile flags: /Odtp /RTCsu
; File e:\infinia-library-3.0\com\include\comtlist.h
;	COMDAT ?getNext@?$CTList@VCScheduler@@@@QEAAPEAVCScheduler@@PEAH@Z
_TEXT	SEGMENT
this$ = 16
pIdx$ = 24
?getNext@?$CTList@VCScheduler@@@@QEAAPEAVCScheduler@@PEAH@Z PROC ; CTList<CScheduler>::getNext, COMDAT

; 334  : 	inline T* getNext(int *pIdx) {

$LN7:
  00000	48 89 54 24 10	 mov	 QWORD PTR [rsp+16], rdx
  00005	48 89 4c 24 08	 mov	 QWORD PTR [rsp+8], rcx
  0000a	57		 push	 rdi

; 335  : 		for (*pIdx; *pIdx < m_nMax; (*pIdx)++) {

  0000b	eb 10		 jmp	 SHORT $LN4@getNext
$LN2@getNext:
  0000d	48 8b 44 24 18	 mov	 rax, QWORD PTR pIdx$[rsp]
  00012	8b 00		 mov	 eax, DWORD PTR [rax]
  00014	ff c0		 inc	 eax
  00016	48 8b 4c 24 18	 mov	 rcx, QWORD PTR pIdx$[rsp]
  0001b	89 01		 mov	 DWORD PTR [rcx], eax
$LN4@getNext:
  0001d	48 8b 44 24 18	 mov	 rax, QWORD PTR pIdx$[rsp]
  00022	48 8b 4c 24 10	 mov	 rcx, QWORD PTR this$[rsp]
  00027	8b 49 14	 mov	 ecx, DWORD PTR [rcx+20]
  0002a	39 08		 cmp	 DWORD PTR [rax], ecx
  0002c	7d 2f		 jge	 SHORT $LN3@getNext

; 336  : 			if (m_pArray[*pIdx]) { return m_pArray[*pIdx]; }

  0002e	48 8b 44 24 18	 mov	 rax, QWORD PTR pIdx$[rsp]
  00033	48 63 00	 movsxd	 rax, DWORD PTR [rax]
  00036	48 8b 4c 24 10	 mov	 rcx, QWORD PTR this$[rsp]
  0003b	48 8b 09	 mov	 rcx, QWORD PTR [rcx]
  0003e	48 83 3c c1 00	 cmp	 QWORD PTR [rcx+rax*8], 0
  00043	74 16		 je	 SHORT $LN5@getNext
  00045	48 8b 44 24 18	 mov	 rax, QWORD PTR pIdx$[rsp]
  0004a	48 63 00	 movsxd	 rax, DWORD PTR [rax]
  0004d	48 8b 4c 24 10	 mov	 rcx, QWORD PTR this$[rsp]
  00052	48 8b 09	 mov	 rcx, QWORD PTR [rcx]
  00055	48 8b 04 c1	 mov	 rax, QWORD PTR [rcx+rax*8]
  00059	eb 04		 jmp	 SHORT $LN1@getNext
$LN5@getNext:

; 337  : 		}

  0005b	eb b0		 jmp	 SHORT $LN2@getNext
$LN3@getNext:

; 338  : 		return NULL;

  0005d	33 c0		 xor	 eax, eax
$LN1@getNext:

; 339  : 	}

  0005f	5f		 pop	 rdi
  00060	c3		 ret	 0
?getNext@?$CTList@VCScheduler@@@@QEAAPEAVCScheduler@@PEAH@Z ENDP ; CTList<CScheduler>::getNext
_TEXT	ENDS
; Function compile flags: /Odtp /RTCsu
; File e:\infinia-library-3.0\com\include\comtlist.h
;	COMDAT ?getObj@?$CTList@VCScheduler@@@@QEAAPEAVCScheduler@@H@Z
_TEXT	SEGMENT
this$ = 48
i$ = 56
?getObj@?$CTList@VCScheduler@@@@QEAAPEAVCScheduler@@H@Z PROC ; CTList<CScheduler>::getObj, COMDAT

; 332  : 	inline T* getObj(int i) { if (ISINCLUDE(i, m_nMax)) return m_pArray[i]; return NULL; }

$LN4:
  00000	89 54 24 10	 mov	 DWORD PTR [rsp+16], edx
  00004	48 89 4c 24 08	 mov	 QWORD PTR [rsp+8], rcx
  00009	57		 push	 rdi
  0000a	48 83 ec 20	 sub	 rsp, 32			; 00000020H
  0000e	48 8b fc	 mov	 rdi, rsp
  00011	b9 08 00 00 00	 mov	 ecx, 8
  00016	b8 cc cc cc cc	 mov	 eax, -858993460		; ccccccccH
  0001b	f3 ab		 rep stosd
  0001d	48 8b 4c 24 30	 mov	 rcx, QWORD PTR [rsp+48]
  00022	48 8b 44 24 30	 mov	 rax, QWORD PTR this$[rsp]
  00027	8b 50 14	 mov	 edx, DWORD PTR [rax+20]
  0002a	8b 4c 24 38	 mov	 ecx, DWORD PTR i$[rsp]
  0002e	e8 00 00 00 00	 call	 ?ISINCLUDE@@YA_NHH@Z	; ISINCLUDE
  00033	0f b6 c0	 movzx	 eax, al
  00036	85 c0		 test	 eax, eax
  00038	74 13		 je	 SHORT $LN2@getObj
  0003a	48 63 44 24 38	 movsxd	 rax, DWORD PTR i$[rsp]
  0003f	48 8b 4c 24 30	 mov	 rcx, QWORD PTR this$[rsp]
  00044	48 8b 09	 mov	 rcx, QWORD PTR [rcx]
  00047	48 8b 04 c1	 mov	 rax, QWORD PTR [rcx+rax*8]
  0004b	eb 02		 jmp	 SHORT $LN1@getObj
$LN2@getObj:
  0004d	33 c0		 xor	 eax, eax
$LN1@getObj:
  0004f	48 83 c4 20	 add	 rsp, 32			; 00000020H
  00053	5f		 pop	 rdi
  00054	c3		 ret	 0
?getObj@?$CTList@VCScheduler@@@@QEAAPEAVCScheduler@@H@Z ENDP ; CTList<CScheduler>::getObj
_TEXT	ENDS
; Function compile flags: /Odtp /RTCsu
; File e:\infinia-library-3.0\com\include\comtlist.h
;	COMDAT ?del@?$CTList@VCScheduler@@@@QEAA_NH@Z
_TEXT	SEGMENT
this$ = 48
i$ = 56
?del@?$CTList@VCScheduler@@@@QEAA_NH@Z PROC		; CTList<CScheduler>::del, COMDAT

; 523  : {

$LN4:
  00000	89 54 24 10	 mov	 DWORD PTR [rsp+16], edx
  00004	48 89 4c 24 08	 mov	 QWORD PTR [rsp+8], rcx
  00009	57		 push	 rdi
  0000a	48 83 ec 20	 sub	 rsp, 32			; 00000020H
  0000e	48 8b fc	 mov	 rdi, rsp
  00011	b9 08 00 00 00	 mov	 ecx, 8
  00016	b8 cc cc cc cc	 mov	 eax, -858993460		; ccccccccH
  0001b	f3 ab		 rep stosd
  0001d	48 8b 4c 24 30	 mov	 rcx, QWORD PTR [rsp+48]

; 524  : 	if (!ISINCLUDE(i, m_nMax)) {

  00022	48 8b 44 24 30	 mov	 rax, QWORD PTR this$[rsp]
  00027	8b 50 14	 mov	 edx, DWORD PTR [rax+20]
  0002a	8b 4c 24 38	 mov	 ecx, DWORD PTR i$[rsp]
  0002e	e8 00 00 00 00	 call	 ?ISINCLUDE@@YA_NHH@Z	; ISINCLUDE
  00033	0f b6 c0	 movzx	 eax, al
  00036	85 c0		 test	 eax, eax
  00038	75 25		 jne	 SHORT $LN2@del

; 525  : 		_stprintf(g_szMessage, "i[%d] m_nMax[%d]", i, m_nMax);

  0003a	48 8b 44 24 30	 mov	 rax, QWORD PTR this$[rsp]
  0003f	44 8b 48 14	 mov	 r9d, DWORD PTR [rax+20]
  00043	44 8b 44 24 38	 mov	 r8d, DWORD PTR i$[rsp]
  00048	48 8d 15 00 00
	00 00		 lea	 rdx, OFFSET FLAT:$SG46999
  0004f	48 8d 0d 00 00
	00 00		 lea	 rcx, OFFSET FLAT:?g_szMessage@@3PADA ; g_szMessage
  00056	e8 00 00 00 00	 call	 sprintf

; 526  : 		return false;

  0005b	32 c0		 xor	 al, al
  0005d	eb 10		 jmp	 SHORT $LN1@del
$LN2@del:

; 527  : 	}
; 528  : 	_DEL(i);

  0005f	8b 54 24 38	 mov	 edx, DWORD PTR i$[rsp]
  00063	48 8b 4c 24 30	 mov	 rcx, QWORD PTR this$[rsp]
  00068	e8 00 00 00 00	 call	 ?_DEL@?$CTList@VCScheduler@@@@AEAAXH@Z ; CTList<CScheduler>::_DEL

; 529  : 	//_stprintf(g_szMessage, _T("CMemList::del i[%d] m_nLast[%d] m_nCurCount[%d]"), i, m_nLast, m_nUse);
; 530  : 	return true;

  0006d	b0 01		 mov	 al, 1
$LN1@del:

; 531  : }

  0006f	48 83 c4 20	 add	 rsp, 32			; 00000020H
  00073	5f		 pop	 rdi
  00074	c3		 ret	 0
?del@?$CTList@VCScheduler@@@@QEAA_NH@Z ENDP		; CTList<CScheduler>::del
_TEXT	ENDS
; Function compile flags: /Odtp /RTCsu
; File e:\infinia-library-3.0\com\include\comtlist.h
;	COMDAT ?push_back@?$CTList@VCScheduler@@@@QEAA_NPEAVCScheduler@@PEAH@Z
_TEXT	SEGMENT
nIdx$ = 32
i$ = 36
this$ = 64
Obj$ = 72
pIdx$ = 80
?push_back@?$CTList@VCScheduler@@@@QEAA_NPEAVCScheduler@@PEAH@Z PROC ; CTList<CScheduler>::push_back, COMDAT

; 472  : {

$LN15:
  00000	4c 89 44 24 18	 mov	 QWORD PTR [rsp+24], r8
  00005	48 89 54 24 10	 mov	 QWORD PTR [rsp+16], rdx
  0000a	48 89 4c 24 08	 mov	 QWORD PTR [rsp+8], rcx
  0000f	57		 push	 rdi
  00010	48 83 ec 30	 sub	 rsp, 48			; 00000030H
  00014	48 8b fc	 mov	 rdi, rsp
  00017	b9 0c 00 00 00	 mov	 ecx, 12
  0001c	b8 cc cc cc cc	 mov	 eax, -858993460		; ccccccccH
  00021	f3 ab		 rep stosd
  00023	48 8b 4c 24 40	 mov	 rcx, QWORD PTR [rsp+64]

; 473  : 	int nIdx, i;
; 474  : 
; 475  : 	if (m_nUse >= m_nMax) {

  00028	48 8b 44 24 40	 mov	 rax, QWORD PTR this$[rsp]
  0002d	48 8b 4c 24 40	 mov	 rcx, QWORD PTR this$[rsp]
  00032	8b 49 14	 mov	 ecx, DWORD PTR [rcx+20]
  00035	39 48 08	 cmp	 DWORD PTR [rax+8], ecx
  00038	7c 4b		 jl	 SHORT $LN5@push_back

; 476  : 		if (!__alloc(m_nMax + TLIST_ADD_SIZE)) return false;

  0003a	48 8b 44 24 40	 mov	 rax, QWORD PTR this$[rsp]
  0003f	8b 40 14	 mov	 eax, DWORD PTR [rax+20]
  00042	83 c0 40	 add	 eax, 64			; 00000040H
  00045	8b d0		 mov	 edx, eax
  00047	48 8b 4c 24 40	 mov	 rcx, QWORD PTR this$[rsp]
  0004c	e8 00 00 00 00	 call	 ?__alloc@?$CTList@VCScheduler@@@@AEAAHH@Z ; CTList<CScheduler>::__alloc
  00051	85 c0		 test	 eax, eax
  00053	75 07		 jne	 SHORT $LN6@push_back
  00055	32 c0		 xor	 al, al
  00057	e9 0c 01 00 00	 jmp	 $LN1@push_back
$LN6@push_back:

; 477  : 		nIdx = m_nMax;

  0005c	48 8b 44 24 40	 mov	 rax, QWORD PTR this$[rsp]
  00061	8b 40 14	 mov	 eax, DWORD PTR [rax+20]
  00064	89 44 24 20	 mov	 DWORD PTR nIdx$[rsp], eax

; 478  : 		m_nMax += TLIST_ADD_SIZE;

  00068	48 8b 44 24 40	 mov	 rax, QWORD PTR this$[rsp]
  0006d	8b 40 14	 mov	 eax, DWORD PTR [rax+20]
  00070	83 c0 40	 add	 eax, 64			; 00000040H
  00073	48 8b 4c 24 40	 mov	 rcx, QWORD PTR this$[rsp]
  00078	89 41 14	 mov	 DWORD PTR [rcx+20], eax

; 479  : 		goto ADD_SUCCESS;

  0007b	e9 99 00 00 00	 jmp	 $LN7@push_back
  00080	e9 94 00 00 00	 jmp	 $ADD_SUCCESS$16
$LN5@push_back:

; 480  : 	}
; 481  : 
; 482  : 	if (!m_pArray[m_nLast]) { nIdx = m_nLast;  goto ADD_SUCCESS; }

  00085	48 8b 44 24 40	 mov	 rax, QWORD PTR this$[rsp]
  0008a	48 63 40 0c	 movsxd	 rax, DWORD PTR [rax+12]
  0008e	48 8b 4c 24 40	 mov	 rcx, QWORD PTR this$[rsp]
  00093	48 8b 09	 mov	 rcx, QWORD PTR [rcx]
  00096	48 83 3c c1 00	 cmp	 QWORD PTR [rcx+rax*8], 0
  0009b	75 10		 jne	 SHORT $LN8@push_back
  0009d	48 8b 44 24 40	 mov	 rax, QWORD PTR this$[rsp]
  000a2	8b 40 0c	 mov	 eax, DWORD PTR [rax+12]
  000a5	89 44 24 20	 mov	 DWORD PTR nIdx$[rsp], eax
  000a9	eb 6e		 jmp	 SHORT $LN9@push_back
  000ab	eb 6c		 jmp	 SHORT $ADD_SUCCESS$16
$LN8@push_back:

; 483  : 
; 484  : 	nIdx = m_nLast;

  000ad	48 8b 44 24 40	 mov	 rax, QWORD PTR this$[rsp]
  000b2	8b 40 0c	 mov	 eax, DWORD PTR [rax+12]
  000b5	89 44 24 20	 mov	 DWORD PTR nIdx$[rsp], eax

; 485  : 	for (i = 0; i < m_nMax; i++)

  000b9	c7 44 24 24 00
	00 00 00	 mov	 DWORD PTR i$[rsp], 0
  000c1	eb 0a		 jmp	 SHORT $LN4@push_back
$LN2@push_back:
  000c3	8b 44 24 24	 mov	 eax, DWORD PTR i$[rsp]
  000c7	ff c0		 inc	 eax
  000c9	89 44 24 24	 mov	 DWORD PTR i$[rsp], eax
$LN4@push_back:
  000cd	48 8b 44 24 40	 mov	 rax, QWORD PTR this$[rsp]
  000d2	8b 40 14	 mov	 eax, DWORD PTR [rax+20]
  000d5	39 44 24 24	 cmp	 DWORD PTR i$[rsp], eax
  000d9	7d 3a		 jge	 SHORT $LN3@push_back

; 486  : 	{
; 487  : 		if (nIdx >= m_nMax) nIdx = 0;

  000db	48 8b 44 24 40	 mov	 rax, QWORD PTR this$[rsp]
  000e0	8b 40 14	 mov	 eax, DWORD PTR [rax+20]
  000e3	39 44 24 20	 cmp	 DWORD PTR nIdx$[rsp], eax
  000e7	7c 08		 jl	 SHORT $LN10@push_back
  000e9	c7 44 24 20 00
	00 00 00	 mov	 DWORD PTR nIdx$[rsp], 0
$LN10@push_back:

; 488  : 		if (!m_pArray[nIdx]) {

  000f1	48 63 44 24 20	 movsxd	 rax, DWORD PTR nIdx$[rsp]
  000f6	48 8b 4c 24 40	 mov	 rcx, QWORD PTR this$[rsp]
  000fb	48 8b 09	 mov	 rcx, QWORD PTR [rcx]
  000fe	48 83 3c c1 00	 cmp	 QWORD PTR [rcx+rax*8], 0
  00103	75 04		 jne	 SHORT $LN11@push_back

; 489  : 			goto ADD_SUCCESS;

  00105	eb 12		 jmp	 SHORT $LN12@push_back
  00107	eb 10		 jmp	 SHORT $ADD_SUCCESS$16
$LN11@push_back:

; 490  : 		}
; 491  : 		nIdx++;

  00109	8b 44 24 20	 mov	 eax, DWORD PTR nIdx$[rsp]
  0010d	ff c0		 inc	 eax
  0010f	89 44 24 20	 mov	 DWORD PTR nIdx$[rsp], eax

; 492  : 	}

  00113	eb ae		 jmp	 SHORT $LN2@push_back
$LN3@push_back:

; 493  : 	//_stprintf(m_szMessage, _T("add FAIL! m_nLast[%d] m_nCurCount[%d] m_nMax[%d]"), m_nLast, m_nUse, m_nMax);
; 494  : 	return false;

  00115	32 c0		 xor	 al, al
  00117	eb 4f		 jmp	 SHORT $LN1@push_back
$LN7@push_back:
$LN9@push_back:
$LN12@push_back:
$ADD_SUCCESS$16:

; 495  : 
; 496  : ADD_SUCCESS:
; 497  : 	m_nUse++;

  00119	48 8b 44 24 40	 mov	 rax, QWORD PTR this$[rsp]
  0011e	8b 40 08	 mov	 eax, DWORD PTR [rax+8]
  00121	ff c0		 inc	 eax
  00123	48 8b 4c 24 40	 mov	 rcx, QWORD PTR this$[rsp]
  00128	89 41 08	 mov	 DWORD PTR [rcx+8], eax

; 498  : 	m_pArray[nIdx] = Obj;

  0012b	48 63 44 24 20	 movsxd	 rax, DWORD PTR nIdx$[rsp]
  00130	48 8b 4c 24 40	 mov	 rcx, QWORD PTR this$[rsp]
  00135	48 8b 09	 mov	 rcx, QWORD PTR [rcx]
  00138	48 8b 54 24 48	 mov	 rdx, QWORD PTR Obj$[rsp]
  0013d	48 89 14 c1	 mov	 QWORD PTR [rcx+rax*8], rdx

; 499  : 	m_nLast++;

  00141	48 8b 44 24 40	 mov	 rax, QWORD PTR this$[rsp]
  00146	8b 40 0c	 mov	 eax, DWORD PTR [rax+12]
  00149	ff c0		 inc	 eax
  0014b	48 8b 4c 24 40	 mov	 rcx, QWORD PTR this$[rsp]
  00150	89 41 0c	 mov	 DWORD PTR [rcx+12], eax

; 500  : 	//_stprintf(g_szMessage, _T("CMemList::add i[%d] m_nLast[%d] m_nCurCount[%d]"), nIdx, m_nLast, m_nUse);
; 501  : 	if (pIdx) *pIdx = nIdx;

  00153	48 83 7c 24 50
	00		 cmp	 QWORD PTR pIdx$[rsp], 0
  00159	74 0b		 je	 SHORT $LN13@push_back
  0015b	48 8b 44 24 50	 mov	 rax, QWORD PTR pIdx$[rsp]
  00160	8b 4c 24 20	 mov	 ecx, DWORD PTR nIdx$[rsp]
  00164	89 08		 mov	 DWORD PTR [rax], ecx
$LN13@push_back:

; 502  : 	return true;

  00166	b0 01		 mov	 al, 1
$LN1@push_back:

; 503  : }

  00168	48 83 c4 30	 add	 rsp, 48			; 00000030H
  0016c	5f		 pop	 rdi
  0016d	c3		 ret	 0
?push_back@?$CTList@VCScheduler@@@@QEAA_NPEAVCScheduler@@PEAH@Z ENDP ; CTList<CScheduler>::push_back
_TEXT	ENDS
; Function compile flags: /Odtp /RTCsu
; File e:\infinia-library-3.0\com\include\comtlist.h
;	COMDAT ?alloc@?$CTList@VCScheduler@@@@QEAAHHW4E_ALLOC_TYPE@@@Z
_TEXT	SEGMENT
this$ = 48
nMaxCount$ = 56
type$ = 64
?alloc@?$CTList@VCScheduler@@@@QEAAHHW4E_ALLOC_TYPE@@@Z PROC ; CTList<CScheduler>::alloc, COMDAT

; 326  : 	int alloc(int nMaxCount, E_ALLOC_TYPE type = eAlloc_Type_new) { m_nObjAllocType = type;  m_nMax = __alloc(nMaxCount); return m_nMax; }

$LN3:
  00000	44 89 44 24 18	 mov	 DWORD PTR [rsp+24], r8d
  00005	89 54 24 10	 mov	 DWORD PTR [rsp+16], edx
  00009	48 89 4c 24 08	 mov	 QWORD PTR [rsp+8], rcx
  0000e	57		 push	 rdi
  0000f	48 83 ec 20	 sub	 rsp, 32			; 00000020H
  00013	48 8b fc	 mov	 rdi, rsp
  00016	b9 08 00 00 00	 mov	 ecx, 8
  0001b	b8 cc cc cc cc	 mov	 eax, -858993460		; ccccccccH
  00020	f3 ab		 rep stosd
  00022	48 8b 4c 24 30	 mov	 rcx, QWORD PTR [rsp+48]
  00027	48 8b 44 24 30	 mov	 rax, QWORD PTR this$[rsp]
  0002c	8b 4c 24 40	 mov	 ecx, DWORD PTR type$[rsp]
  00030	89 48 18	 mov	 DWORD PTR [rax+24], ecx
  00033	8b 54 24 38	 mov	 edx, DWORD PTR nMaxCount$[rsp]
  00037	48 8b 4c 24 30	 mov	 rcx, QWORD PTR this$[rsp]
  0003c	e8 00 00 00 00	 call	 ?__alloc@?$CTList@VCScheduler@@@@AEAAHH@Z ; CTList<CScheduler>::__alloc
  00041	48 8b 4c 24 30	 mov	 rcx, QWORD PTR this$[rsp]
  00046	89 41 14	 mov	 DWORD PTR [rcx+20], eax
  00049	48 8b 44 24 30	 mov	 rax, QWORD PTR this$[rsp]
  0004e	8b 40 14	 mov	 eax, DWORD PTR [rax+20]
  00051	48 83 c4 20	 add	 rsp, 32			; 00000020H
  00055	5f		 pop	 rdi
  00056	c3		 ret	 0
?alloc@?$CTList@VCScheduler@@@@QEAAHHW4E_ALLOC_TYPE@@@Z ENDP ; CTList<CScheduler>::alloc
_TEXT	ENDS
; Function compile flags: /Odtp /RTCsu
; File e:\infinia-library-3.0\com\include\comtlist.h
;	COMDAT ??1?$CTList@VCScheduler@@@@QEAA@XZ
_TEXT	SEGMENT
idx$4 = 36
p$5 = 56
$T6 = 72
$T7 = 80
$T8 = 88
$T9 = 96
$T10 = 104
tv77 = 112
tv82 = 120
tv95 = 128
__$ArrayPad$ = 136
this$ = 160
??1?$CTList@VCScheduler@@@@QEAA@XZ PROC			; CTList<CScheduler>::~CTList<CScheduler>, COMDAT

; 376  : {

$LN20:
  00000	48 89 4c 24 08	 mov	 QWORD PTR [rsp+8], rcx
  00005	57		 push	 rdi
  00006	48 81 ec 90 00
	00 00		 sub	 rsp, 144		; 00000090H
  0000d	48 8b fc	 mov	 rdi, rsp
  00010	b9 24 00 00 00	 mov	 ecx, 36			; 00000024H
  00015	b8 cc cc cc cc	 mov	 eax, -858993460		; ccccccccH
  0001a	f3 ab		 rep stosd
  0001c	48 8b 8c 24 a0
	00 00 00	 mov	 rcx, QWORD PTR [rsp+160]
  00024	48 c7 44 24 68
	fe ff ff ff	 mov	 QWORD PTR $T10[rsp], -2
  0002d	48 8b 05 00 00
	00 00		 mov	 rax, QWORD PTR __security_cookie
  00034	48 33 c4	 xor	 rax, rsp
  00037	48 89 84 24 88
	00 00 00	 mov	 QWORD PTR __$ArrayPad$[rsp], rax

; 377  : 	if (!m_pArray) return;

  0003f	48 8b 84 24 a0
	00 00 00	 mov	 rax, QWORD PTR this$[rsp]
  00047	48 83 38 00	 cmp	 QWORD PTR [rax], 0
  0004b	75 05		 jne	 SHORT $LN6@CTList
  0004d	e9 81 01 00 00	 jmp	 $LN1@CTList
$LN6@CTList:

; 378  : 
; 379  : 	if (ISABLETODELETE(m_nObjAllocType)) {

  00052	48 8b 84 24 a0
	00 00 00	 mov	 rax, QWORD PTR this$[rsp]
  0005a	8b 48 18	 mov	 ecx, DWORD PTR [rax+24]
  0005d	e8 00 00 00 00	 call	 ?ISABLETODELETE@@YA_NW4E_ALLOC_TYPE@@@Z ; ISABLETODELETE
  00062	90		 npad	 1
  00063	0f b6 c0	 movzx	 eax, al
  00066	85 c0		 test	 eax, eax
  00068	0f 84 36 01 00
	00		 je	 $LN7@CTList

; 380  : 		int idx = 0;

  0006e	c7 44 24 24 00
	00 00 00	 mov	 DWORD PTR idx$4[rsp], 0

; 381  : 		T *p = getNext(&idx);

  00076	48 8d 54 24 24	 lea	 rdx, QWORD PTR idx$4[rsp]
  0007b	48 8b 8c 24 a0
	00 00 00	 mov	 rcx, QWORD PTR this$[rsp]
  00083	e8 00 00 00 00	 call	 ?getNext@?$CTList@VCScheduler@@@@QEAAPEAVCScheduler@@PEAH@Z ; CTList<CScheduler>::getNext
  00088	90		 npad	 1
  00089	48 89 44 24 38	 mov	 QWORD PTR p$5[rsp], rax
$LN2@CTList:

; 382  : 		while (p) {

  0008e	48 83 7c 24 38
	00		 cmp	 QWORD PTR p$5[rsp], 0
  00094	0f 84 0a 01 00
	00		 je	 $LN7@CTList

; 383  : 			idx++;

  0009a	8b 44 24 24	 mov	 eax, DWORD PTR idx$4[rsp]
  0009e	ff c0		 inc	 eax
  000a0	89 44 24 24	 mov	 DWORD PTR idx$4[rsp], eax

; 384  : 			switch (m_nObjAllocType) {

  000a4	48 8b 84 24 a0
	00 00 00	 mov	 rax, QWORD PTR this$[rsp]
  000ac	8b 40 18	 mov	 eax, DWORD PTR [rax+24]
  000af	89 44 24 70	 mov	 DWORD PTR tv77[rsp], eax
  000b3	83 7c 24 70 02	 cmp	 DWORD PTR tv77[rsp], 2
  000b8	74 1a		 je	 SHORT $LN8@CTList
  000ba	83 7c 24 70 03	 cmp	 DWORD PTR tv77[rsp], 3
  000bf	74 51		 je	 SHORT $LN9@CTList
  000c1	83 7c 24 70 04	 cmp	 DWORD PTR tv77[rsp], 4
  000c6	74 58		 je	 SHORT $LN10@CTList
  000c8	83 7c 24 70 05	 cmp	 DWORD PTR tv77[rsp], 5
  000cd	74 76		 je	 SHORT $LN11@CTList
  000cf	e9 b3 00 00 00	 jmp	 $LN4@CTList
$LN8@CTList:

; 385  : 				case eAlloc_Type_new		:	delete p; break;

  000d4	48 8b 44 24 38	 mov	 rax, QWORD PTR p$5[rsp]
  000d9	48 89 44 24 50	 mov	 QWORD PTR $T7[rsp], rax
  000de	48 8b 44 24 50	 mov	 rax, QWORD PTR $T7[rsp]
  000e3	48 89 44 24 48	 mov	 QWORD PTR $T6[rsp], rax
  000e8	48 83 7c 24 48
	00		 cmp	 QWORD PTR $T6[rsp], 0
  000ee	74 17		 je	 SHORT $LN16@CTList
  000f0	ba 01 00 00 00	 mov	 edx, 1
  000f5	48 8b 4c 24 48	 mov	 rcx, QWORD PTR $T6[rsp]
  000fa	e8 00 00 00 00	 call	 ??_GCScheduler@@QEAAPEAXI@Z
  000ff	90		 npad	 1
  00100	48 89 44 24 78	 mov	 QWORD PTR tv82[rsp], rax
  00105	eb 09		 jmp	 SHORT $LN17@CTList
$LN16@CTList:
  00107	48 c7 44 24 78
	00 00 00 00	 mov	 QWORD PTR tv82[rsp], 0
$LN17@CTList:
  00110	eb 75		 jmp	 SHORT $LN4@CTList
$LN9@CTList:

; 386  : 				case eAlloc_Type_alloc		:	free(p); break;

  00112	48 8b 4c 24 38	 mov	 rcx, QWORD PTR p$5[rsp]
  00117	ff 15 00 00 00
	00		 call	 QWORD PTR __imp_free
  0011d	90		 npad	 1
  0011e	eb 67		 jmp	 SHORT $LN4@CTList
$LN10@CTList:

; 387  : 				case eAlloc_Type_BufPool	:	gs_pMMgr->delBuf((char *)p, STRING_SIZE((TCHAR *)p)); break;

  00120	48 8b 4c 24 38	 mov	 rcx, QWORD PTR p$5[rsp]
  00125	e8 00 00 00 00	 call	 strlen
  0012a	90		 npad	 1
  0012b	48 ff c0	 inc	 rax
  0012e	44 8b c0	 mov	 r8d, eax
  00131	48 8b 54 24 38	 mov	 rdx, QWORD PTR p$5[rsp]
  00136	48 8b 0d 00 00
	00 00		 mov	 rcx, QWORD PTR ?gs_pMMgr@@3PEAVCMemManager@@EA ; gs_pMMgr
  0013d	e8 00 00 00 00	 call	 ?delBuf@CMemManager@@QEAAXPEADH@Z ; CMemManager::delBuf
  00142	90		 npad	 1
  00143	eb 42		 jmp	 SHORT $LN4@CTList
$LN11@CTList:

; 388  : 				case eAlloc_Type_newArray	:	delete[] p; break;

  00145	48 8b 44 24 38	 mov	 rax, QWORD PTR p$5[rsp]
  0014a	48 89 44 24 60	 mov	 QWORD PTR $T9[rsp], rax
  0014f	48 8b 44 24 60	 mov	 rax, QWORD PTR $T9[rsp]
  00154	48 89 44 24 58	 mov	 QWORD PTR $T8[rsp], rax
  00159	48 83 7c 24 58
	00		 cmp	 QWORD PTR $T8[rsp], 0
  0015f	74 1a		 je	 SHORT $LN18@CTList
  00161	ba 03 00 00 00	 mov	 edx, 3
  00166	48 8b 4c 24 58	 mov	 rcx, QWORD PTR $T8[rsp]
  0016b	e8 00 00 00 00	 call	 ??_ECScheduler@@QEAAPEAXI@Z
  00170	90		 npad	 1
  00171	48 89 84 24 80
	00 00 00	 mov	 QWORD PTR tv95[rsp], rax
  00179	eb 0c		 jmp	 SHORT $LN4@CTList
$LN18@CTList:
  0017b	48 c7 84 24 80
	00 00 00 00 00
	00 00		 mov	 QWORD PTR tv95[rsp], 0
$LN4@CTList:

; 389  : 				case eAlloc_Type_none		:	break;
; 390  : 				case eAlloc_Type_MemPool	:	break;
; 391  : 			}
; 392  : 			p = getNext(&idx);

  00187	48 8d 54 24 24	 lea	 rdx, QWORD PTR idx$4[rsp]
  0018c	48 8b 8c 24 a0
	00 00 00	 mov	 rcx, QWORD PTR this$[rsp]
  00194	e8 00 00 00 00	 call	 ?getNext@?$CTList@VCScheduler@@@@QEAAPEAVCScheduler@@PEAH@Z ; CTList<CScheduler>::getNext
  00199	90		 npad	 1
  0019a	48 89 44 24 38	 mov	 QWORD PTR p$5[rsp], rax

; 393  : 		}

  0019f	e9 ea fe ff ff	 jmp	 $LN2@CTList
$LN7@CTList:

; 394  : 	}
; 395  : 
; 396  : 	if (m_pArray)	free(m_pArray);

  001a4	48 8b 84 24 a0
	00 00 00	 mov	 rax, QWORD PTR this$[rsp]
  001ac	48 83 38 00	 cmp	 QWORD PTR [rax], 0
  001b0	74 12		 je	 SHORT $LN14@CTList
  001b2	48 8b 84 24 a0
	00 00 00	 mov	 rax, QWORD PTR this$[rsp]
  001ba	48 8b 08	 mov	 rcx, QWORD PTR [rax]
  001bd	ff 15 00 00 00
	00		 call	 QWORD PTR __imp_free
  001c3	90		 npad	 1
$LN14@CTList:

; 397  : 	m_pArray = 0;

  001c4	48 8b 84 24 a0
	00 00 00	 mov	 rax, QWORD PTR this$[rsp]
  001cc	48 c7 00 00 00
	00 00		 mov	 QWORD PTR [rax], 0
$LN1@CTList:

; 398  : }

  001d3	48 8b cc	 mov	 rcx, rsp
  001d6	48 8d 15 00 00
	00 00		 lea	 rdx, OFFSET FLAT:??1?$CTList@VCScheduler@@@@QEAA@XZ$rtcFrameData
  001dd	e8 00 00 00 00	 call	 _RTC_CheckStackVars
  001e2	90		 npad	 1
  001e3	48 8b 8c 24 88
	00 00 00	 mov	 rcx, QWORD PTR __$ArrayPad$[rsp]
  001eb	48 33 cc	 xor	 rcx, rsp
  001ee	e8 00 00 00 00	 call	 __security_check_cookie
  001f3	90		 npad	 1
  001f4	48 81 c4 90 00
	00 00		 add	 rsp, 144		; 00000090H
  001fb	5f		 pop	 rdi
  001fc	c3		 ret	 0
??1?$CTList@VCScheduler@@@@QEAA@XZ ENDP			; CTList<CScheduler>::~CTList<CScheduler>
_TEXT	ENDS
; Function compile flags: /Odtp /RTCsu
; File e:\infinia-library-3.0\com\include\comtlist.h
;	COMDAT ??0?$CTList@VCScheduler@@@@QEAA@XZ
_TEXT	SEGMENT
this$ = 16
??0?$CTList@VCScheduler@@@@QEAA@XZ PROC			; CTList<CScheduler>::CTList<CScheduler>, COMDAT

; 365  : {

$LN3:
  00000	48 89 4c 24 08	 mov	 QWORD PTR [rsp+8], rcx
  00005	57		 push	 rdi

; 366  : 	m_pArray = NULL;

  00006	48 8b 44 24 10	 mov	 rax, QWORD PTR this$[rsp]
  0000b	48 c7 00 00 00
	00 00		 mov	 QWORD PTR [rax], 0

; 367  : 	m_nUse = 0;

  00012	48 8b 44 24 10	 mov	 rax, QWORD PTR this$[rsp]
  00017	c7 40 08 00 00
	00 00		 mov	 DWORD PTR [rax+8], 0

; 368  : 	m_nLast = 0;

  0001e	48 8b 44 24 10	 mov	 rax, QWORD PTR this$[rsp]
  00023	c7 40 0c 00 00
	00 00		 mov	 DWORD PTR [rax+12], 0

; 369  : 	m_nDelIdx = 0;

  0002a	48 8b 44 24 10	 mov	 rax, QWORD PTR this$[rsp]
  0002f	c7 40 10 00 00
	00 00		 mov	 DWORD PTR [rax+16], 0

; 370  : 	m_nMax = 0;

  00036	48 8b 44 24 10	 mov	 rax, QWORD PTR this$[rsp]
  0003b	c7 40 14 00 00
	00 00		 mov	 DWORD PTR [rax+20], 0

; 371  : 	m_nObjAllocType = eAlloc_Type_none;

  00042	48 8b 44 24 10	 mov	 rax, QWORD PTR this$[rsp]
  00047	c7 40 18 00 00
	00 00		 mov	 DWORD PTR [rax+24], 0

; 372  : }

  0004e	48 8b 44 24 10	 mov	 rax, QWORD PTR this$[rsp]
  00053	5f		 pop	 rdi
  00054	c3		 ret	 0
??0?$CTList@VCScheduler@@@@QEAA@XZ ENDP			; CTList<CScheduler>::CTList<CScheduler>
_TEXT	ENDS
; Function compile flags: /Odtp /RTCsu
;	COMDAT ??_G?$CTList@VCSTLogger@@@@QEAAPEAXI@Z
_TEXT	SEGMENT
this$ = 48
__flags$ = 56
??_G?$CTList@VCSTLogger@@@@QEAAPEAXI@Z PROC		; CTList<CSTLogger>::`scalar deleting destructor', COMDAT
$LN4:
  00000	89 54 24 10	 mov	 DWORD PTR [rsp+16], edx
  00004	48 89 4c 24 08	 mov	 QWORD PTR [rsp+8], rcx
  00009	57		 push	 rdi
  0000a	48 83 ec 20	 sub	 rsp, 32			; 00000020H
  0000e	48 8b fc	 mov	 rdi, rsp
  00011	b9 08 00 00 00	 mov	 ecx, 8
  00016	b8 cc cc cc cc	 mov	 eax, -858993460		; ccccccccH
  0001b	f3 ab		 rep stosd
  0001d	48 8b 4c 24 30	 mov	 rcx, QWORD PTR [rsp+48]
  00022	48 8b 4c 24 30	 mov	 rcx, QWORD PTR this$[rsp]
  00027	e8 00 00 00 00	 call	 ??1?$CTList@VCSTLogger@@@@QEAA@XZ ; CTList<CSTLogger>::~CTList<CSTLogger>
  0002c	8b 44 24 38	 mov	 eax, DWORD PTR __flags$[rsp]
  00030	83 e0 01	 and	 eax, 1
  00033	85 c0		 test	 eax, eax
  00035	74 0f		 je	 SHORT $LN2@scalar
  00037	ba 20 00 00 00	 mov	 edx, 32			; 00000020H
  0003c	48 8b 4c 24 30	 mov	 rcx, QWORD PTR this$[rsp]
  00041	e8 00 00 00 00	 call	 ??3@YAXPEAX_K@Z		; operator delete
$LN2@scalar:
  00046	48 8b 44 24 30	 mov	 rax, QWORD PTR this$[rsp]
  0004b	48 83 c4 20	 add	 rsp, 32			; 00000020H
  0004f	5f		 pop	 rdi
  00050	c3		 ret	 0
??_G?$CTList@VCSTLogger@@@@QEAAPEAXI@Z ENDP		; CTList<CSTLogger>::`scalar deleting destructor'
_TEXT	ENDS
; Function compile flags: /Odtp /RTCsu
;	COMDAT ?__autoclassinit2@?$CTList@VCSTLogger@@@@QEAAX_K@Z
_TEXT	SEGMENT
this$ = 16
classSize$ = 24
?__autoclassinit2@?$CTList@VCSTLogger@@@@QEAAX_K@Z PROC	; CTList<CSTLogger>::__autoclassinit2, COMDAT
$LN3:
  00000	48 89 54 24 10	 mov	 QWORD PTR [rsp+16], rdx
  00005	48 89 4c 24 08	 mov	 QWORD PTR [rsp+8], rcx
  0000a	57		 push	 rdi
  0000b	48 8b 7c 24 10	 mov	 rdi, QWORD PTR this$[rsp]
  00010	33 c0		 xor	 eax, eax
  00012	48 8b 4c 24 18	 mov	 rcx, QWORD PTR classSize$[rsp]
  00017	f3 aa		 rep stosb
  00019	5f		 pop	 rdi
  0001a	c3		 ret	 0
?__autoclassinit2@?$CTList@VCSTLogger@@@@QEAAX_K@Z ENDP	; CTList<CSTLogger>::__autoclassinit2
_TEXT	ENDS
; Function compile flags: /Odtp /RTCsu
; File e:\infinia-library-3.0\com\include\comtlist.h
;	COMDAT ?_DEL@?$CTList@VCSTLogger@@@@AEAAXH@Z
_TEXT	SEGMENT
this$ = 16
i$ = 24
?_DEL@?$CTList@VCSTLogger@@@@AEAAXH@Z PROC		; CTList<CSTLogger>::_DEL, COMDAT

; 360  : 	inline void _DEL(int i) { m_pArray[i] = 0; m_nUse--; m_nDelIdx = i; }

$LN3:
  00000	89 54 24 10	 mov	 DWORD PTR [rsp+16], edx
  00004	48 89 4c 24 08	 mov	 QWORD PTR [rsp+8], rcx
  00009	57		 push	 rdi
  0000a	48 63 44 24 18	 movsxd	 rax, DWORD PTR i$[rsp]
  0000f	48 8b 4c 24 10	 mov	 rcx, QWORD PTR this$[rsp]
  00014	48 8b 09	 mov	 rcx, QWORD PTR [rcx]
  00017	48 c7 04 c1 00
	00 00 00	 mov	 QWORD PTR [rcx+rax*8], 0
  0001f	48 8b 44 24 10	 mov	 rax, QWORD PTR this$[rsp]
  00024	8b 40 08	 mov	 eax, DWORD PTR [rax+8]
  00027	ff c8		 dec	 eax
  00029	48 8b 4c 24 10	 mov	 rcx, QWORD PTR this$[rsp]
  0002e	89 41 08	 mov	 DWORD PTR [rcx+8], eax
  00031	48 8b 44 24 10	 mov	 rax, QWORD PTR this$[rsp]
  00036	8b 4c 24 18	 mov	 ecx, DWORD PTR i$[rsp]
  0003a	89 48 10	 mov	 DWORD PTR [rax+16], ecx
  0003d	5f		 pop	 rdi
  0003e	c3		 ret	 0
?_DEL@?$CTList@VCSTLogger@@@@AEAAXH@Z ENDP		; CTList<CSTLogger>::_DEL
_TEXT	ENDS
; Function compile flags: /Odtp /RTCsu
; File e:\infinia-library-3.0\com\include\comtlist.h
;	COMDAT ?__alloc@?$CTList@VCSTLogger@@@@AEAAHH@Z
_TEXT	SEGMENT
pList$ = 32
this$ = 64
nMaxCount$ = 72
?__alloc@?$CTList@VCSTLogger@@@@AEAAHH@Z PROC		; CTList<CSTLogger>::__alloc, COMDAT

; 402  : {

$LN5:
  00000	89 54 24 10	 mov	 DWORD PTR [rsp+16], edx
  00004	48 89 4c 24 08	 mov	 QWORD PTR [rsp+8], rcx
  00009	57		 push	 rdi
  0000a	48 83 ec 30	 sub	 rsp, 48			; 00000030H
  0000e	48 8b fc	 mov	 rdi, rsp
  00011	b9 0c 00 00 00	 mov	 ecx, 12
  00016	b8 cc cc cc cc	 mov	 eax, -858993460		; ccccccccH
  0001b	f3 ab		 rep stosd
  0001d	48 8b 4c 24 40	 mov	 rcx, QWORD PTR [rsp+64]

; 403  : 	T** pList = (T**)calloc(nMaxCount, sizeof(T*));

  00022	48 63 44 24 48	 movsxd	 rax, DWORD PTR nMaxCount$[rsp]
  00027	ba 08 00 00 00	 mov	 edx, 8
  0002c	48 8b c8	 mov	 rcx, rax
  0002f	ff 15 00 00 00
	00		 call	 QWORD PTR __imp_calloc
  00035	48 89 44 24 20	 mov	 QWORD PTR pList$[rsp], rax

; 404  : 	if (!pList) {

  0003a	48 83 7c 24 20
	00		 cmp	 QWORD PTR pList$[rsp], 0
  00040	75 17		 jne	 SHORT $LN2@alloc

; 405  : 		_stprintf(g_szMessage, "pList calloc is NULL");

  00042	48 8d 15 00 00
	00 00		 lea	 rdx, OFFSET FLAT:$SG46939
  00049	48 8d 0d 00 00
	00 00		 lea	 rcx, OFFSET FLAT:?g_szMessage@@3PADA ; g_szMessage
  00050	e8 00 00 00 00	 call	 sprintf

; 406  : 		return 0;

  00055	33 c0		 xor	 eax, eax
  00057	eb 4c		 jmp	 SHORT $LN1@alloc
$LN2@alloc:

; 407  : 	}
; 408  : 	//_stprintf(g_szMessage, _T("CTList::__alloc list m_nMaxCount[%d]"), nMaxCount);
; 409  : 	if (m_pArray) {

  00059	48 8b 44 24 40	 mov	 rax, QWORD PTR this$[rsp]
  0005e	48 83 38 00	 cmp	 QWORD PTR [rax], 0
  00062	74 30		 je	 SHORT $LN3@alloc

; 410  : 		memcpy(pList, m_pArray, m_nMax * sizeof(T*));

  00064	48 8b 44 24 40	 mov	 rax, QWORD PTR this$[rsp]
  00069	48 63 40 14	 movsxd	 rax, DWORD PTR [rax+20]
  0006d	48 c1 e0 03	 shl	 rax, 3
  00071	4c 8b c0	 mov	 r8, rax
  00074	48 8b 44 24 40	 mov	 rax, QWORD PTR this$[rsp]
  00079	48 8b 10	 mov	 rdx, QWORD PTR [rax]
  0007c	48 8b 4c 24 20	 mov	 rcx, QWORD PTR pList$[rsp]
  00081	e8 00 00 00 00	 call	 memcpy

; 411  : 		free(m_pArray);

  00086	48 8b 44 24 40	 mov	 rax, QWORD PTR this$[rsp]
  0008b	48 8b 08	 mov	 rcx, QWORD PTR [rax]
  0008e	ff 15 00 00 00
	00		 call	 QWORD PTR __imp_free
$LN3@alloc:

; 412  : 	}
; 413  : 	m_pArray = pList;

  00094	48 8b 44 24 40	 mov	 rax, QWORD PTR this$[rsp]
  00099	48 8b 4c 24 20	 mov	 rcx, QWORD PTR pList$[rsp]
  0009e	48 89 08	 mov	 QWORD PTR [rax], rcx

; 414  : 	return nMaxCount;

  000a1	8b 44 24 48	 mov	 eax, DWORD PTR nMaxCount$[rsp]
$LN1@alloc:

; 415  : }

  000a5	48 83 c4 30	 add	 rsp, 48			; 00000030H
  000a9	5f		 pop	 rdi
  000aa	c3		 ret	 0
?__alloc@?$CTList@VCSTLogger@@@@AEAAHH@Z ENDP		; CTList<CSTLogger>::__alloc
_TEXT	ENDS
; Function compile flags: /Odtp /RTCsu
; File e:\infinia-library-3.0\com\include\comtlist.h
;	COMDAT ?setObjAllocType@?$CTList@VCSTLogger@@@@QEAAXW4E_ALLOC_TYPE@@@Z
_TEXT	SEGMENT
this$ = 16
type$ = 24
?setObjAllocType@?$CTList@VCSTLogger@@@@QEAAXW4E_ALLOC_TYPE@@@Z PROC ; CTList<CSTLogger>::setObjAllocType, COMDAT

; 350  : 	inline void setObjAllocType(E_ALLOC_TYPE type) { m_nObjAllocType = type; }

$LN3:
  00000	89 54 24 10	 mov	 DWORD PTR [rsp+16], edx
  00004	48 89 4c 24 08	 mov	 QWORD PTR [rsp+8], rcx
  00009	57		 push	 rdi
  0000a	48 8b 44 24 10	 mov	 rax, QWORD PTR this$[rsp]
  0000f	8b 4c 24 18	 mov	 ecx, DWORD PTR type$[rsp]
  00013	89 48 18	 mov	 DWORD PTR [rax+24], ecx
  00016	5f		 pop	 rdi
  00017	c3		 ret	 0
?setObjAllocType@?$CTList@VCSTLogger@@@@QEAAXW4E_ALLOC_TYPE@@@Z ENDP ; CTList<CSTLogger>::setObjAllocType
_TEXT	ENDS
; Function compile flags: /Odtp /RTCsu
; File e:\infinia-library-3.0\com\include\comtlist.h
;	COMDAT ?size@?$CTList@VCSTLogger@@@@QEAAHXZ
_TEXT	SEGMENT
this$ = 16
?size@?$CTList@VCSTLogger@@@@QEAAHXZ PROC		; CTList<CSTLogger>::size, COMDAT

; 347  : 	inline int  size() { return m_nUse; }

$LN3:
  00000	48 89 4c 24 08	 mov	 QWORD PTR [rsp+8], rcx
  00005	57		 push	 rdi
  00006	48 8b 44 24 10	 mov	 rax, QWORD PTR this$[rsp]
  0000b	8b 40 08	 mov	 eax, DWORD PTR [rax+8]
  0000e	5f		 pop	 rdi
  0000f	c3		 ret	 0
?size@?$CTList@VCSTLogger@@@@QEAAHXZ ENDP		; CTList<CSTLogger>::size
_TEXT	ENDS
; Function compile flags: /Odtp /RTCsu
; File e:\infinia-library-3.0\com\include\comtlist.h
;	COMDAT ?getNext@?$CTList@VCSTLogger@@@@QEAAPEAVCSTLogger@@PEAH@Z
_TEXT	SEGMENT
this$ = 16
pIdx$ = 24
?getNext@?$CTList@VCSTLogger@@@@QEAAPEAVCSTLogger@@PEAH@Z PROC ; CTList<CSTLogger>::getNext, COMDAT

; 334  : 	inline T* getNext(int *pIdx) {

$LN7:
  00000	48 89 54 24 10	 mov	 QWORD PTR [rsp+16], rdx
  00005	48 89 4c 24 08	 mov	 QWORD PTR [rsp+8], rcx
  0000a	57		 push	 rdi

; 335  : 		for (*pIdx; *pIdx < m_nMax; (*pIdx)++) {

  0000b	eb 10		 jmp	 SHORT $LN4@getNext
$LN2@getNext:
  0000d	48 8b 44 24 18	 mov	 rax, QWORD PTR pIdx$[rsp]
  00012	8b 00		 mov	 eax, DWORD PTR [rax]
  00014	ff c0		 inc	 eax
  00016	48 8b 4c 24 18	 mov	 rcx, QWORD PTR pIdx$[rsp]
  0001b	89 01		 mov	 DWORD PTR [rcx], eax
$LN4@getNext:
  0001d	48 8b 44 24 18	 mov	 rax, QWORD PTR pIdx$[rsp]
  00022	48 8b 4c 24 10	 mov	 rcx, QWORD PTR this$[rsp]
  00027	8b 49 14	 mov	 ecx, DWORD PTR [rcx+20]
  0002a	39 08		 cmp	 DWORD PTR [rax], ecx
  0002c	7d 2f		 jge	 SHORT $LN3@getNext

; 336  : 			if (m_pArray[*pIdx]) { return m_pArray[*pIdx]; }

