; Listing generated by Microsoft (R) Optimizing Compiler Version 19.00.24215.1 

include listing.inc

INCLUDELIB MSVCRTD
INCLUDELIB OLDNAMES

PUBLIC	?gs_pCore@@3PEAVCCoreList@@EA			; gs_pCore
PUBLIC	?gs_today_time@@3USTTodayTime@@A		; gs_today_time
_BSS	SEGMENT
?gs_pCore@@3PEAVCCoreList@@EA DQ 01H DUP (?)		; gs_pCore
?gs_today_time@@3USTTodayTime@@A DB 01cH DUP (?)	; gs_today_time
_BSS	ENDS
CONST	SEGMENT
$SG46113 DB	'LIST_COUNT', 00H
	ORG $+5
$SG47141 DB	'i[%d] m_nMax[%d]', 00H
	ORG $+3
$SG45352 DB	'%s_%d', 00H
	ORG $+2
$SG45956 DB	'LOG', 00H
$SG46118 DB	'new (std::nothrow) CTList<CScheduler>() is NULL', 00H
$SG46119 DB	'CCoreList::initScheduler', 00H
	ORG $+3
$SG45500 DB	'%s_%d', 00H
	ORG $+6
$SG46121 DB	'm_pSchedulerList->alloc nCnt[%d]', 00H
	ORG $+3
$SG45575 DB	'%s_%d', 00H
	ORG $+6
$SG46122 DB	'CCoreList::initScheduler', 00H
	ORG $+3
$SG45922 DB	'MPOOL', 00H
	ORG $+6
$SG46123 DB	'TIME_POOL_MAX', 00H
	ORG $+2
$SG46126 DB	'has Failed!! m_pIntervalPool.alloc(%d)', 0aH, 00H
$SG47152 DB	'pList calloc is NULL', 00H
	ORG $+3
$SG46129 DB	'[seq:%d] new (std::nothrow) CScheduler() is NULL', 00H
	ORG $+3
$SG45926 DB	'MPOOL', 00H
	ORG $+6
$SG46130 DB	'CCoreList::initScheduler', 00H
	ORG $+3
$SG45928 DB	'MPOOL', 00H
	ORG $+6
$SG46132 DB	'[seq:%d] pScheduler->init', 00H
	ORG $+6
$SG46133 DB	'CCoreList::initScheduler', 00H
	ORG $+3
$SG45930 DB	'MPOOL', 00H
	ORG $+6
$SG46135 DB	'[seq:%d] pScheduler->push_back', 00H
	ORG $+1
$SG46136 DB	'CCoreList::initScheduler', 00H
	ORG $+3
$SG45932 DB	'MPOOL', 00H
	ORG $+6
$SG46165 DB	'LIST_COUNT', 00H
	ORG $+5
$SG46170 DB	'EVENT_POOL_MAX', 00H
	ORG $+1
$SG46173 DB	'has Failed!! m_pEventPool.alloc(%d)', 0aH, 00H
	ORG $+3
$SG46169 DB	'has Failed!! m_pEventThreadList = new CTList<CComQueueTh'
	DB	'read>()', 0aH, 00H
	ORG $+3
$SG45934 DB	'MPOOL', 00H
	ORG $+6
$SG47199 DB	'atomic_nr[%d] is NULL', 00H
	ORG $+2
$SG47204 DB	'm_pChunk is NULL [%d]', 00H
	ORG $+2
$SG46176 DB	'has Failed!! [seq:%d] pEventThread = new (std::nothrow) '
	DB	'CComQueueThread()', 0aH, 00H
	ORG $+5
$SG46178 DB	'has Failed!! [seq:%d] pEventThread->init()', 0aH, 00H
	ORG $+4
$SG46180 DB	'has Failed!! [seq:%d] m_pEventThreadList->setNewObj(pSch'
	DB	'eduler)', 0aH, 00H
	ORG $+3
$SG45936 DB	'MPOOL', 00H
	ORG $+6
$SG46198 DB	'pLogger is NULL! [%s:%s]', 00H
	ORG $+3
$SG45938 DB	'MPOOL', 00H
	ORG $+6
$SG46199 DB	'CCoreList::initLogger', 00H
	ORG $+2
$SG46202 DB	'pLogger->initConfig has Failed!!![%s:%s]', 00H
	ORG $+3
$SG45940 DB	'MPOOL', 00H
	ORG $+6
$SG46203 DB	'CCoreList::initLogger', 00H
	ORG $+2
$SG46206 DB	'pWriter is NULL!!![%s:%s] [nSTLNo:%d]', 00H
	ORG $+2
$SG46207 DB	'CCoreList::initLogger', 00H
	ORG $+2
$SG46214 DB	'CCoreList::initLogger', 00H
	ORG $+2
$SG46216 DB	'pWriter is NULL!!![nSTLNo:%d]', 0aH, 00H
	ORG $+1
$SG46217 DB	'CCoreList::initLogger', 00H
	ORG $+2
$SG46227 DB	'pWriter is NULL! pLogger[nSTLNo:%d]', 00H
	ORG $+4
$SG46228 DB	'CCoreList::setLoggerEnable', 00H
	ORG $+5
$SG46238 DB	'pWriter is NULL! pLogger[nSTLNo:%d]', 00H
	ORG $+4
$SG46239 DB	'CCoreList::setLoggerDisable', 00H
	ORG $+4
$SG47275 DB	'atomic_nr[%d] is NULL', 00H
	ORG $+2
$SG47280 DB	'm_pChunk is NULL [%d]', 00H
	ORG $+2
$SG45246 DB	'CComThread::start', 00H
	ORG $+6
$SG45247 DB	'm_fpLoopProc is NULL', 00H
	ORG $+3
$SG45249 DB	'CComThread::start', 00H
	ORG $+6
$SG45250 DB	'0 > m_stInfo.nIdx', 00H
	ORG $+6
$SG45253 DB	'CComThread::start', 00H
	ORG $+6
$SG45254 DB	'THREAD_CREATE has Failed', 00H
	ORG $+7
$SG46317 DB	'[lastIdx:%d] new CComThread', 00H
	ORG $+4
$SG46318 DB	'CCoreList::addComThread', 00H
$SG46321 DB	'[lastIdx:%d] pComThread->init()', 00H
$SG46322 DB	'CCoreList::addComThread', 00H
$SG46325 DB	'[idx:%d] m_pThreadList->push_back()', 00H
	ORG $+4
$SG46326 DB	'CCoreList::addComThread', 00H
$SG46329 DB	'[idx:%d] pComThread->start()', 00H
	ORG $+3
$SG46330 DB	'CCoreList::addComThread', 00H
$SG46363 DB	'CCoreList::addLogWriter', 00H
$SG46364 DB	'pWriter = new (std::nothrow) CSTLogger()', 00H
	ORG $+7
$SG46366 DB	'[idx:%d] pWriter->push_back(pWriter)', 00H
	ORG $+3
$SG46367 DB	'CCoreList::addLogWriter', 00H
$SG46370 DB	'pWriter->init(nCount:%d, idx:%d)', 00H
	ORG $+7
$SG46371 DB	'CCoreList::addLogWriter', 00H
$SG46374 DB	'[idx:%d] pWriter->start()!', 00H
	ORG $+5
$SG46375 DB	'CCoreList::addLogWriter', 00H
$SG45353 DB	'LIST_COUNT', 00H
	ORG $+5
$SG46401 DB	'CCoreList::addScheduler', 00H
$SG46402 DB	'pScheduler = new (std::nothrow) CScheduler()', 00H
	ORG $+3
$SG46404 DB	'[idx:%d] pScheduler->push_back(pWriter)', 00H
$SG46405 DB	'CCoreList::addScheduler', 00H
$SG46408 DB	'pScheduler->init(nCount:%d, millisecWait:%d, idx:%d)', 00H
	ORG $+3
$SG46409 DB	'CCoreList::addScheduler', 00H
$SG46412 DB	'[idx:%d] pScheduler->start()', 00H
	ORG $+3
$SG46413 DB	'CCoreList::addScheduler', 00H
$SG45390 DB	'CSTLogger::start', 00H
	ORG $+7
$SG45391 DB	'm_cThread.init', 00H
	ORG $+1
$SG45393 DB	'CSTLogger::start', 00H
	ORG $+7
$SG45394 DB	'm_cThread.start', 00H
$SG45395 DB	'CSTLogger::start()', 0aH, 00H
	ORG $+4
$SG46438 DB	'CCoreList::addQueueThread', 00H
	ORG $+6
$SG46439 DB	'FAIL! pEventThread = new (std::nothrow) CComQueueThread('
	DB	')', 00H
	ORG $+6
$SG46441 DB	'[idx:%d] m_pEventThreadList->push_back(pEventThread)', 00H
	ORG $+3
$SG46442 DB	'CCoreList::addQueueThread', 00H
	ORG $+6
$SG45419 DB	'Logger is already Enabled!', 00H
	ORG $+5
$SG46445 DB	'pEventThread->init(nCount:%d, idx:%d)', 00H
	ORG $+2
$SG46446 DB	'CCoreList::addQueueThread', 00H
	ORG $+6
$SG45424 DB	'CSTLogger::procLoggerEnable', 00H
	ORG $+4
$SG46449 DB	'[idx:%d] pEventThread->start()! ', 00H
	ORG $+7
$SG45425 DB	'Logger has not Initialized!', 00H
	ORG $+4
$SG46450 DB	'CCoreList::addQueueThread', 00H
	ORG $+6
$SG45428 DB	'Logger already exist!', 0aH, 00H
	ORG $+1
$SG45430 DB	'm_pLoggerList->push_back failed!', 0aH, 00H
	ORG $+6
$SG45431 DB	'[%s] procLoggerEnable', 0aH, 00H
	ORG $+1
$SG45442 DB	'writeCount[%d] [%s] porcLoggerDisable', 0aH, 00H
	ORG $+1
$SG46470 DB	'm_pThreadList->alloc(%d)', 00H
	ORG $+7
$SG46471 DB	'CCoreList::initComThread', 00H
	ORG $+7
$SG46486 DB	'm_pWriterList->alloc(%d)', 00H
	ORG $+7
$SG46487 DB	'CCoreList::initLogWriter', 00H
	ORG $+7
$SG46505 DB	'm_pSchedulerList->alloc(%d)', 00H
	ORG $+4
$SG46506 DB	'CCoreList::initScheduler', 00H
	ORG $+7
$SG46511 DB	'has Failed!! m_pIntervalPool->alloc(%d)', 0aH, 00H
	ORG $+7
$SG46512 DB	'CCoreList::initScheduler', 00H
	ORG $+7
$SG45501 DB	'LIST_COUNT', 00H
	ORG $+5
$SG45503 DB	'TIME_WAIT', 00H
	ORG $+6
$SG45506 DB	'has Failed!! m_pTimeList->alloc(%d)', 0aH, 00H
	ORG $+3
$SG46536 DB	'm_pEventThreadList->alloc(%d)', 00H
	ORG $+2
$SG46537 DB	'CCoreList::initQueueThread', 00H
	ORG $+5
$SG46542 DB	'has Failed!! m_pEventPool->alloc(%d)', 0aH, 00H
	ORG $+2
$SG46543 DB	'CCoreList::initQueueThread', 00H
	ORG $+5
$SG45528 DB	'has Failed!! m_pTimeList->alloc(%d)', 0aH, 00H
	ORG $+3
$SG45534 DB	'CScheduler::start', 00H
	ORG $+6
$SG45535 DB	'm_cThread.init', 00H
	ORG $+1
$SG45537 DB	'CScheduler::start', 00H
	ORG $+6
$SG45538 DB	'm_cThread.start', 00H
$SG45576 DB	'LIST_COUNT', 00H
	ORG $+5
$SG45578 DB	'has Failed!! m_sLogQueue.alloc(%d)', 0aH, 00H
	ORG $+4
$SG45585 DB	'has Failed!! m_sLogQueue.alloc(%d)', 0aH, 00H
	ORG $+4
$SG45591 DB	'CComQueueThread::start', 00H
	ORG $+1
$SG45592 DB	'm_cThread.init', 00H
	ORG $+1
$SG45594 DB	'CComQueueThread::start', 00H
	ORG $+1
$SG45595 DB	'm_cThread.start', 00H
$SG45618 DB	'CCoreList::CCoreList', 00H
	ORG $+3
$SG45619 DB	'gs_pMMgr alloc has Failed!!!', 00H
	ORG $+3
$SG45621 DB	'CCoreList::CCoreList', 00H
	ORG $+3
$SG45622 DB	'initSystemFile() has Failed!!!', 00H
	ORG $+1
$SG45624 DB	'CCoreList::CCoreList', 00H
	ORG $+3
$SG45625 DB	'start() has Failed!!!', 00H
	ORG $+2
$SG46750 DB	' del FAIL! i[%d] m_nMax[%d]', 00H
	ORG $+4
$SG46761 DB	'pList calloc is NULL', 00H
	ORG $+3
$SG46856 DB	'FULL! m_nMaxCount[%d]', 00H
	ORG $+2
$SG46857 DB	'CMemList<struct STIntervalInfo>::add', 00H
	ORG $+3
$SG46868 DB	'CMemList<struct STIntervalInfo>::del', 00H
	ORG $+3
$SG46869 DB	'can''t find obj', 00H
	ORG $+1
$SG46928 DB	'i[%d] m_nMax[%d]', 00H
	ORG $+7
$SG46939 DB	'pList calloc is NULL', 00H
	ORG $+3
$SG45921 DB	'IDX_BUF_32', 00H
	ORG $+5
$SG45925 DB	'IDX_BUF_2', 00H
	ORG $+6
$SG45927 DB	'IDX_BUF_%d', 00H
	ORG $+5
$SG45929 DB	'IDX_BUF_%d', 00H
	ORG $+5
$SG45931 DB	'IDX_BUF_%dk', 00H
	ORG $+4
$SG45933 DB	'IDX_BUF_%dk', 00H
	ORG $+4
$SG45935 DB	'IDX_BUF_512k', 00H
	ORG $+3
$SG45937 DB	'IDX_BUF_1m', 00H
	ORG $+5
$SG45939 DB	'IDX_BUF_2m', 00H
	ORG $+5
$SG45942 DB	'CCoreList::initSystemFile', 00H
	ORG $+6
$SG45943 DB	'gs_pMMgr->alloc() has Failed!!!', 00H
$SG45945 DB	'COMTHREAD', 00H
	ORG $+6
$SG45947 DB	'LOG_WRITER', 00H
	ORG $+5
$SG45949 DB	'SCHEDULER', 00H
	ORG $+6
$SG45951 DB	'EVENTPROC', 00H
	ORG $+6
$SG45953 DB	'CCoreList::initSystemFile', 00H
	ORG $+6
$SG45954 DB	'gs_DTEManager.initConfig has Failed!!!', 00H
	ORG $+1
$SG45957 DB	'CCoreList::initSystemFile', 00H
	ORG $+6
$SG45958 DB	'initLogger has Failed!!!', 00H
	ORG $+7
$SG46999 DB	'i[%d] m_nMax[%d]', 00H
	ORG $+7
$SG45982 DB	'CCoreList::initDefaultPool', 00H
	ORG $+5
$SG45983 DB	'gs_pMMgr->alloc() has Failed!!!', 00H
$SG47010 DB	'pList calloc is NULL', 00H
	ORG $+3
$SG46017 DB	'LIST_COUNT', 00H
	ORG $+5
$SG46022 DB	'CCoreList::initComThread', 00H
	ORG $+7
$SG46023 DB	'm_pThreadList = new CTList<CComThread>() is NULL', 00H
	ORG $+7
$SG46026 DB	'CCoreList::initComThread', 00H
	ORG $+7
$SG46027 DB	'new (std::nothrow) CComThread() is NULL', 00H
$SG46029 DB	'CCoreList::initComThread', 00H
	ORG $+7
$SG46030 DB	'm_pThreadList->push_back', 00H
	ORG $+7
$SG47070 DB	'i[%d] m_nMax[%d]', 00H
	ORG $+7
$SG47081 DB	'pList calloc is NULL', 00H
	ORG $+3
$SG46059 DB	'LIST_COUNT', 00H
	ORG $+5
$SG46064 DB	'm_pWriterList->alloc nCnt[%d]', 00H
	ORG $+2
$SG46065 DB	'CCoreList::initLogWriter', 00H
	ORG $+7
$SG46068 DB	'[seq:%d] new (std::nothrow) CSTLogger() is NULL', 00H
$SG46069 DB	'CCoreList::initLogWriter', 00H
	ORG $+7
$SG46073 DB	'[seq:%d] pWriter->init', 00H
	ORG $+1
$SG46074 DB	'CCoreList::initLogWriter', 00H
	ORG $+7
$SG46076 DB	'[seq:%d] pWriter->push_back', 00H
	ORG $+4
$SG46077 DB	'CCoreList::initLogWriter', 00H
CONST	ENDS
PUBLIC	__local_stdio_printf_options
PUBLIC	_vfprintf_l
PUBLIC	??$__vcrt_va_start_verify_argument_type@QEBD@@YAXXZ ; __vcrt_va_start_verify_argument_type<char const * __ptr64 const>
PUBLIC	printf
PUBLIC	_vsnprintf_l
PUBLIC	_vsprintf_l
PUBLIC	sprintf
PUBLIC	??1abstract_condition@common@@UEAA@XZ		; common::abstract_condition::~abstract_condition
PUBLIC	??0abstract_condition@common@@QEAA@XZ		; common::abstract_condition::abstract_condition
PUBLIC	??_Gabstract_condition@common@@UEAAPEAXI@Z	; common::abstract_condition::`scalar deleting destructor'
PUBLIC	??0condition@win32@common@@QEAA@XZ		; common::win32::condition::condition
PUBLIC	??1condition@win32@common@@UEAA@XZ		; common::win32::condition::~condition
PUBLIC	?signal@condition@win32@common@@UEAAXXZ		; common::win32::condition::signal
PUBLIC	?signal_all@condition@win32@common@@UEAAXXZ	; common::win32::condition::signal_all
PUBLIC	?wait@condition@win32@common@@QEAA_NHPEAVcritical_section@23@@Z ; common::win32::condition::wait
PUBLIC	??_Gcondition@win32@common@@UEAAPEAXI@Z		; common::win32::condition::`scalar deleting destructor'
PUBLIC	??0win64_atomic@win32@common@@QEAA@XZ		; common::win32::win64_atomic::win64_atomic
PUBLIC	??1win64_atomic@win32@common@@QEAA@XZ		; common::win32::win64_atomic::~win64_atomic
PUBLIC	?getCount@win64_atomic@win32@common@@QEAAHXZ	; common::win32::win64_atomic::getCount
PUBLIC	?setCount@win64_atomic@win32@common@@QEAAXH@Z	; common::win32::win64_atomic::setCount
PUBLIC	?init@win64_atomic@win32@common@@QEAAXXZ	; common::win32::win64_atomic::init
PUBLIC	?atomic_increment@win64_atomic@win32@common@@QEAA_JXZ ; common::win32::win64_atomic::atomic_increment
PUBLIC	?atomic_decrement@win64_atomic@win32@common@@QEAA_JXZ ; common::win32::win64_atomic::atomic_decrement
PUBLIC	?atomic_compare_exchange@win64_atomic@win32@common@@QEAA_J_J0@Z ; common::win32::win64_atomic::atomic_compare_exchange
PUBLIC	??_Ewin64_atomic@win32@common@@QEAAPEAXI@Z	; common::win32::win64_atomic::`vector deleting destructor'
PUBLIC	?ISABLETODELETE@@YA_NW4E_ALLOC_TYPE@@@Z		; ISABLETODELETE
PUBLIC	?ISINCLUDE@@YA_NHH@Z				; ISINCLUDE
PUBLIC	?comGlobalErrorProc@@YAXPEADPEBDH@Z		; comGlobalErrorProc
PUBLIC	?__autoclassinit2@CQueueS@@QEAAX_K@Z		; CQueueS::__autoclassinit2
PUBLIC	??_GCQueueS@@QEAAPEAXI@Z			; CQueueS::`scalar deleting destructor'
PUBLIC	?Year@CDateTime@@QEAAHXZ			; CDateTime::Year
PUBLIC	?Month@CDateTime@@QEAAHXZ			; CDateTime::Month
PUBLIC	?Mday@CDateTime@@QEAAHXZ			; CDateTime::Mday
PUBLIC	?Hour@CDateTime@@QEAAHXZ			; CDateTime::Hour
PUBLIC	?Minute@CDateTime@@QEAAHXZ			; CDateTime::Minute
PUBLIC	?Sec@CDateTime@@QEAAHXZ				; CDateTime::Sec
PUBLIC	?getIndex@@YAHH@Z				; getIndex
PUBLIC	?newBuf@CMemManager@@QEAAPEADH@Z		; CMemManager::newBuf
PUBLIC	?delBuf@CMemManager@@QEAAXPEADH@Z		; CMemManager::delBuf
PUBLIC	?addLogSize@CLogger@@QEAAXH@Z			; CLogger::addLogSize
PUBLIC	?getSTLNo@CLogger@@QEAAHXZ			; CLogger::getSTLNo
PUBLIC	?setLogFlag@CLogger@@QEAAXW4E_LOG_FLAG@@@Z	; CLogger::setLogFlag
PUBLIC	?clearLogFlag@CLogger@@QEAAXW4E_LOG_FLAG@@@Z	; CLogger::clearLogFlag
PUBLIC	?isLogFlag@CLogger@@QEAA_NW4E_LOG_FLAG@@@Z	; CLogger::isLogFlag
PUBLIC	?pop@CLogger@@QEAAPEADXZ			; CLogger::pop
PUBLIC	?getLogName@CLogger@@QEAAPEADXZ			; CLogger::getLogName
PUBLIC	?setCondition@CLogger@@QEAAXPEAVcondition@win32@common@@@Z ; CLogger::setCondition
PUBLIC	??_GCLogger@@QEAAPEAXI@Z			; CLogger::`scalar deleting destructor'
PUBLIC	??_ECLogger@@QEAAPEAXI@Z			; CLogger::`vector deleting destructor'
PUBLIC	??0STThreadInfo@@QEAA@XZ			; STThreadInfo::STThreadInfo
PUBLIC	??1STThreadInfo@@QEAA@XZ			; STThreadInfo::~STThreadInfo
PUBLIC	??0CComThread@@QEAA@XZ				; CComThread::CComThread
PUBLIC	??1CComThread@@QEAA@XZ				; CComThread::~CComThread
PUBLIC	?init@CComThread@@QEAA_NP6AXPEAUSTThreadInfo@@@ZPEAXH2@Z ; CComThread::init
PUBLIC	?start@CComThread@@QEAA_NXZ			; CComThread::start
PUBLIC	?quit@CComThread@@QEAA_NXZ			; CComThread::quit
PUBLIC	?ProcThread@CComThread@@SAKPEAX@Z		; CComThread::ProcThread
PUBLIC	?setIdx@CComThread@@QEAAXH@Z			; CComThread::setIdx
PUBLIC	?bActive@CComThread@@QEAA_NXZ			; CComThread::bActive
PUBLIC	?sendSignal@CComThread@@QEAAXXZ			; CComThread::sendSignal
PUBLIC	??_GCComThread@@QEAAPEAXI@Z			; CComThread::`scalar deleting destructor'
PUBLIC	??_ECComThread@@QEAAPEAXI@Z			; CComThread::`vector deleting destructor'
PUBLIC	?loggerLoop@@YAXPEAUSTThreadInfo@@@Z		; loggerLoop
PUBLIC	??0CSTLogger@@QEAA@XZ				; CSTLogger::CSTLogger
PUBLIC	??1CSTLogger@@QEAA@XZ				; CSTLogger::~CSTLogger
PUBLIC	?initConfig@CSTLogger@@QEAA_NPEADH0@Z		; CSTLogger::initConfig
PUBLIC	?init@CSTLogger@@QEAA_NHH@Z			; CSTLogger::init
PUBLIC	?start@CSTLogger@@QEAA_NXZ			; CSTLogger::start
PUBLIC	?quit@CSTLogger@@QEAA_NXZ			; CSTLogger::quit
PUBLIC	?IsCommand@CSTLogger@@QEAA_NXZ			; CSTLogger::IsCommand
PUBLIC	?GetQueue@CSTLogger@@QEAAXXZ			; CSTLogger::GetQueue
PUBLIC	?TimeProc@CSTLogger@@QEAAXXZ			; CSTLogger::TimeProc
PUBLIC	?procLoggerEnable@CSTLogger@@QEAAXPEAVCLogger@@@Z ; CSTLogger::procLoggerEnable
PUBLIC	?porcLoggerDisable@CSTLogger@@QEAAXPEAVCLogger@@@Z ; CSTLogger::porcLoggerDisable
PUBLIC	?pushCommand@CSTLogger@@QEAA_NPEAUSTLCommand@@@Z ; CSTLogger::pushCommand
PUBLIC	?_init@CSTLogger@@AEAA_NH@Z			; CSTLogger::_init
PUBLIC	??_GCSTLogger@@QEAAPEAXI@Z			; CSTLogger::`scalar deleting destructor'
PUBLIC	??_ECSTLogger@@QEAAPEAXI@Z			; CSTLogger::`vector deleting destructor'
PUBLIC	?schedulerLoop@@YAXPEAUSTThreadInfo@@@Z		; schedulerLoop
PUBLIC	??0CScheduler@@QEAA@XZ				; CScheduler::CScheduler
PUBLIC	??1CScheduler@@QEAA@XZ				; CScheduler::~CScheduler
PUBLIC	?initConfig@CScheduler@@QEAA_NPEADH0@Z		; CScheduler::initConfig
PUBLIC	?init@CScheduler@@QEAA_NHHH@Z			; CScheduler::init
PUBLIC	?start@CScheduler@@QEAA_NXZ			; CScheduler::start
PUBLIC	?quit@CScheduler@@QEAA_NXZ			; CScheduler::quit
PUBLIC	?timeNext@CScheduler@@QEAAPEAUSTIntervalInfo@@PEAH@Z ; CScheduler::timeNext
PUBLIC	?deleteTime@CScheduler@@QEAA_NPEAUSTIntervalInfo@@@Z ; CScheduler::deleteTime
PUBLIC	?addTime@CScheduler@@QEAAHPEAUSTIntervalInfo@@@Z ; CScheduler::addTime
PUBLIC	?getMilliSecHalf@CScheduler@@QEAAHXZ		; CScheduler::getMilliSecHalf
PUBLIC	?setGoal@CScheduler@@QEAAXXZ			; CScheduler::setGoal
PUBLIC	?getGoal@CScheduler@@QEAAIXZ			; CScheduler::getGoal
PUBLIC	??_GCScheduler@@QEAAPEAXI@Z			; CScheduler::`scalar deleting destructor'
PUBLIC	??_ECScheduler@@QEAAPEAXI@Z			; CScheduler::`vector deleting destructor'
PUBLIC	??0?$CMemList@USTIntervalInfo@@@@QEAA@XZ	; CMemList<STIntervalInfo>::CMemList<STIntervalInfo>
PUBLIC	??1?$CMemList@USTIntervalInfo@@@@QEAA@XZ	; CMemList<STIntervalInfo>::~CMemList<STIntervalInfo>
PUBLIC	?alloc@?$CMemList@USTIntervalInfo@@@@QEAAHHW4E_ALLOC_TYPE@@@Z ; CMemList<STIntervalInfo>::alloc
PUBLIC	?getNext@?$CMemList@USTIntervalInfo@@@@QEAAPEAUSTIntervalInfo@@PEAH@Z ; CMemList<STIntervalInfo>::getNext
PUBLIC	?add@?$CMemList@USTIntervalInfo@@@@QEAAHPEAUSTIntervalInfo@@@Z ; CMemList<STIntervalInfo>::add
PUBLIC	?del@?$CMemList@USTIntervalInfo@@@@QEAA_NPEAUSTIntervalInfo@@@Z ; CMemList<STIntervalInfo>::del
PUBLIC	?_del@?$CMemList@USTIntervalInfo@@@@AEAAXH@Z	; CMemList<STIntervalInfo>::_del
PUBLIC	?__autoclassinit2@?$CMemList@USTIntervalInfo@@@@QEAAX_K@Z ; CMemList<STIntervalInfo>::__autoclassinit2
PUBLIC	??_G?$CMemList@USTIntervalInfo@@@@QEAAPEAXI@Z	; CMemList<STIntervalInfo>::`scalar deleting destructor'
PUBLIC	?eventThreadLoop@@YAXPEAUSTThreadInfo@@@Z	; eventThreadLoop
PUBLIC	??0CComQueueThread@@QEAA@XZ			; CComQueueThread::CComQueueThread
PUBLIC	??1CComQueueThread@@QEAA@XZ			; CComQueueThread::~CComQueueThread
PUBLIC	?initConfig@CComQueueThread@@QEAA_NPEADH0@Z	; CComQueueThread::initConfig
PUBLIC	?init@CComQueueThread@@QEAA_NHH@Z		; CComQueueThread::init
PUBLIC	?start@CComQueueThread@@QEAA_NXZ		; CComQueueThread::start
PUBLIC	?quit@CComQueueThread@@QEAA_NXZ			; CComQueueThread::quit
PUBLIC	?putQueue@CComQueueThread@@QEAA_NPEAUSTEvent@@@Z ; CComQueueThread::putQueue
PUBLIC	?getEvent@CComQueueThread@@QEAAPEAUSTEvent@@XZ	; CComQueueThread::getEvent
PUBLIC	??_GCComQueueThread@@QEAAPEAXI@Z		; CComQueueThread::`scalar deleting destructor'
PUBLIC	??_ECComQueueThread@@QEAAPEAXI@Z		; CComQueueThread::`vector deleting destructor'
PUBLIC	??0CCoreList@@QEAA@XZ				; CCoreList::CCoreList
PUBLIC	??1CCoreList@@QEAA@XZ				; CCoreList::~CCoreList
PUBLIC	?initSystemFile@CCoreList@@QEAA_NXZ		; CCoreList::initSystemFile
PUBLIC	?initDefaultPool@CCoreList@@QEAA_NHHH@Z		; CCoreList::initDefaultPool
PUBLIC	?initLogger@CCoreList@@QEAA_NPEAVCLogger@@PEAD1@Z ; CCoreList::initLogger
PUBLIC	?initLogger@CCoreList@@QEAA_NPEAVCLogger@@@Z	; CCoreList::initLogger
PUBLIC	?setLoggerEnable@CCoreList@@QEAA_NPEAVCLogger@@@Z ; CCoreList::setLoggerEnable
PUBLIC	?setLoggerDisable@CCoreList@@QEAA_NPEAVCLogger@@@Z ; CCoreList::setLoggerDisable
PUBLIC	?start@CCoreList@@QEAA_NXZ			; CCoreList::start
PUBLIC	?destroy@CCoreList@@QEAAXXZ			; CCoreList::destroy
PUBLIC	?delEvent@CCoreList@@QEAA_NPEAUSTEvent@@@Z	; CCoreList::delEvent
PUBLIC	?putEvent@CCoreList@@QEAA_NPEAUSTEvent@@@Z	; CCoreList::putEvent
PUBLIC	?putTimer@CCoreList@@QEAA_NPEAUSTIntervalInfo@@@Z ; CCoreList::putTimer
PUBLIC	?addComThread@CCoreList@@QEAAHP6AXPEAUSTThreadInfo@@@ZPEAXH2@Z ; CCoreList::addComThread
PUBLIC	?delComThread@CCoreList@@QEAA_NH@Z		; CCoreList::delComThread
PUBLIC	?addLogWriter@CCoreList@@QEAAHH@Z		; CCoreList::addLogWriter
PUBLIC	?addScheduler@CCoreList@@QEAAHHH@Z		; CCoreList::addScheduler
PUBLIC	?addQueueThread@CCoreList@@QEAAHH@Z		; CCoreList::addQueueThread
PUBLIC	?initComThread@CCoreList@@QEAA_NPEAD0@Z		; CCoreList::initComThread
PUBLIC	?initLogWriter@CCoreList@@QEAA_NPEAD0_N@Z	; CCoreList::initLogWriter
PUBLIC	?initScheduler@CCoreList@@QEAA_NPEAD0@Z		; CCoreList::initScheduler
PUBLIC	?initQueueThread@CCoreList@@QEAA_NPEAD0@Z	; CCoreList::initQueueThread
PUBLIC	?initComThread@CCoreList@@QEAA_NH@Z		; CCoreList::initComThread
PUBLIC	?initLogWriter@CCoreList@@QEAA_NH@Z		; CCoreList::initLogWriter
PUBLIC	?initScheduler@CCoreList@@QEAA_NHH@Z		; CCoreList::initScheduler
PUBLIC	?initQueueThread@CCoreList@@QEAA_NHH@Z		; CCoreList::initQueueThread
PUBLIC	?setListAllocType@CCoreList@@QEAAXW4E_ALLOC_TYPE@@W4E_SYS_LIST_TYPE@@@Z ; CCoreList::setListAllocType
PUBLIC	??0?$CMemPool@USTIntervalInfo@@@@QEAA@XZ	; CMemPool<STIntervalInfo>::CMemPool<STIntervalInfo>
PUBLIC	??1?$CMemPool@USTIntervalInfo@@@@QEAA@XZ	; CMemPool<STIntervalInfo>::~CMemPool<STIntervalInfo>
PUBLIC	?clear@?$CMemPool@USTIntervalInfo@@@@QEAAXXZ	; CMemPool<STIntervalInfo>::clear
PUBLIC	?alloc@?$CMemPool@USTIntervalInfo@@@@QEAAHHW4E_ALLOC_TYPE@@@Z ; CMemPool<STIntervalInfo>::alloc
PUBLIC	?__autoclassinit2@?$CMemPool@USTIntervalInfo@@@@QEAAX_K@Z ; CMemPool<STIntervalInfo>::__autoclassinit2
PUBLIC	??_G?$CMemPool@USTIntervalInfo@@@@QEAAPEAXI@Z	; CMemPool<STIntervalInfo>::`scalar deleting destructor'
PUBLIC	??0?$CMemPool@USTEvent@@@@QEAA@XZ		; CMemPool<STEvent>::CMemPool<STEvent>
PUBLIC	??1?$CMemPool@USTEvent@@@@QEAA@XZ		; CMemPool<STEvent>::~CMemPool<STEvent>
PUBLIC	?clear@?$CMemPool@USTEvent@@@@QEAAXXZ		; CMemPool<STEvent>::clear
PUBLIC	?alloc@?$CMemPool@USTEvent@@@@QEAAHHW4E_ALLOC_TYPE@@@Z ; CMemPool<STEvent>::alloc
PUBLIC	?delMem@?$CMemPool@USTEvent@@@@QEAA_NPEAUSTEvent@@@Z ; CMemPool<STEvent>::delMem
PUBLIC	?__autoclassinit2@?$CMemPool@USTEvent@@@@QEAAX_K@Z ; CMemPool<STEvent>::__autoclassinit2
PUBLIC	??_G?$CMemPool@USTEvent@@@@QEAAPEAXI@Z		; CMemPool<STEvent>::`scalar deleting destructor'
PUBLIC	??0?$CTList@VCLogger@@@@QEAA@XZ			; CTList<CLogger>::CTList<CLogger>
PUBLIC	??1?$CTList@VCLogger@@@@QEAA@XZ			; CTList<CLogger>::~CTList<CLogger>
PUBLIC	?alloc@?$CTList@VCLogger@@@@QEAAHHW4E_ALLOC_TYPE@@@Z ; CTList<CLogger>::alloc
PUBLIC	?push_back@?$CTList@VCLogger@@@@QEAA_NPEAVCLogger@@PEAH@Z ; CTList<CLogger>::push_back
PUBLIC	?IsExist@?$CTList@VCLogger@@@@QEAA_NPEAVCLogger@@@Z ; CTList<CLogger>::IsExist
PUBLIC	?del@?$CTList@VCLogger@@@@QEAA_NPEAVCLogger@@@Z	; CTList<CLogger>::del
PUBLIC	?getNext@?$CTList@VCLogger@@@@QEAAPEAVCLogger@@PEAH@Z ; CTList<CLogger>::getNext
PUBLIC	?__alloc@?$CTList@VCLogger@@@@AEAAHH@Z		; CTList<CLogger>::__alloc
PUBLIC	?_DEL@?$CTList@VCLogger@@@@AEAAXH@Z		; CTList<CLogger>::_DEL
PUBLIC	?__autoclassinit2@?$CTList@VCLogger@@@@QEAAX_K@Z ; CTList<CLogger>::__autoclassinit2
PUBLIC	??_G?$CTList@VCLogger@@@@QEAAPEAXI@Z		; CTList<CLogger>::`scalar deleting destructor'
PUBLIC	??0?$CTList@VCSTLogger@@@@QEAA@XZ		; CTList<CSTLogger>::CTList<CSTLogger>
PUBLIC	??1?$CTList@VCSTLogger@@@@QEAA@XZ		; CTList<CSTLogger>::~CTList<CSTLogger>
PUBLIC	?alloc@?$CTList@VCSTLogger@@@@QEAAHHW4E_ALLOC_TYPE@@@Z ; CTList<CSTLogger>::alloc
PUBLIC	?push_back@?$CTList@VCSTLogger@@@@QEAA_NPEAVCSTLogger@@PEAH@Z ; CTList<CSTLogger>::push_back
PUBLIC	?del@?$CTList@VCSTLogger@@@@QEAA_NH@Z		; CTList<CSTLogger>::del
PUBLIC	?getObj@?$CTList@VCSTLogger@@@@QEAAPEAVCSTLogger@@H@Z ; CTList<CSTLogger>::getObj
PUBLIC	?getNext@?$CTList@VCSTLogger@@@@QEAAPEAVCSTLogger@@PEAH@Z ; CTList<CSTLogger>::getNext
PUBLIC	?size@?$CTList@VCSTLogger@@@@QEAAHXZ		; CTList<CSTLogger>::size
PUBLIC	?setObjAllocType@?$CTList@VCSTLogger@@@@QEAAXW4E_ALLOC_TYPE@@@Z ; CTList<CSTLogger>::setObjAllocType
PUBLIC	?__alloc@?$CTList@VCSTLogger@@@@AEAAHH@Z	; CTList<CSTLogger>::__alloc
PUBLIC	?_DEL@?$CTList@VCSTLogger@@@@AEAAXH@Z		; CTList<CSTLogger>::_DEL
PUBLIC	?__autoclassinit2@?$CTList@VCSTLogger@@@@QEAAX_K@Z ; CTList<CSTLogger>::__autoclassinit2
PUBLIC	??_G?$CTList@VCSTLogger@@@@QEAAPEAXI@Z		; CTList<CSTLogger>::`scalar deleting destructor'
PUBLIC	??0?$CTList@VCScheduler@@@@QEAA@XZ		; CTList<CScheduler>::CTList<CScheduler>
PUBLIC	??1?$CTList@VCScheduler@@@@QEAA@XZ		; CTList<CScheduler>::~CTList<CScheduler>
PUBLIC	?alloc@?$CTList@VCScheduler@@@@QEAAHHW4E_ALLOC_TYPE@@@Z ; CTList<CScheduler>::alloc
PUBLIC	?push_back@?$CTList@VCScheduler@@@@QEAA_NPEAVCScheduler@@PEAH@Z ; CTList<CScheduler>::push_back
PUBLIC	?del@?$CTList@VCScheduler@@@@QEAA_NH@Z		; CTList<CScheduler>::del
PUBLIC	?getObj@?$CTList@VCScheduler@@@@QEAAPEAVCScheduler@@H@Z ; CTList<CScheduler>::getObj
PUBLIC	?getNext@?$CTList@VCScheduler@@@@QEAAPEAVCScheduler@@PEAH@Z ; CTList<CScheduler>::getNext
PUBLIC	?size@?$CTList@VCScheduler@@@@QEAAHXZ		; CTList<CScheduler>::size
PUBLIC	?setObjAllocType@?$CTList@VCScheduler@@@@QEAAXW4E_ALLOC_TYPE@@@Z ; CTList<CScheduler>::setObjAllocType
PUBLIC	?__alloc@?$CTList@VCScheduler@@@@AEAAHH@Z	; CTList<CScheduler>::__alloc
PUBLIC	?_DEL@?$CTList@VCScheduler@@@@AEAAXH@Z		; CTList<CScheduler>::_DEL
PUBLIC	?__autoclassinit2@?$CTList@VCScheduler@@@@QEAAX_K@Z ; CTList<CScheduler>::__autoclassinit2
PUBLIC	??_G?$CTList@VCScheduler@@@@QEAAPEAXI@Z		; CTList<CScheduler>::`scalar deleting destructor'
PUBLIC	??0?$CTList@VCComThread@@@@QEAA@XZ		; CTList<CComThread>::CTList<CComThread>
PUBLIC	??1?$CTList@VCComThread@@@@QEAA@XZ		; CTList<CComThread>::~CTList<CComThread>
PUBLIC	?alloc@?$CTList@VCComThread@@@@QEAAHHW4E_ALLOC_TYPE@@@Z ; CTList<CComThread>::alloc
PUBLIC	?push_back@?$CTList@VCComThread@@@@QEAA_NPEAVCComThread@@PEAH@Z ; CTList<CComThread>::push_back
PUBLIC	?del@?$CTList@VCComThread@@@@QEAA_NH@Z		; CTList<CComThread>::del
PUBLIC	?getObj@?$CTList@VCComThread@@@@QEAAPEAVCComThread@@H@Z ; CTList<CComThread>::getObj
PUBLIC	?getNext@?$CTList@VCComThread@@@@QEAAPEAVCComThread@@PEAH@Z ; CTList<CComThread>::getNext
PUBLIC	?size@?$CTList@VCComThread@@@@QEAAHXZ		; CTList<CComThread>::size
PUBLIC	?lastIdx@?$CTList@VCComThread@@@@QEAAHXZ	; CTList<CComThread>::lastIdx
PUBLIC	?setObjAllocType@?$CTList@VCComThread@@@@QEAAXW4E_ALLOC_TYPE@@@Z ; CTList<CComThread>::setObjAllocType
PUBLIC	?__alloc@?$CTList@VCComThread@@@@AEAAHH@Z	; CTList<CComThread>::__alloc
PUBLIC	?_DEL@?$CTList@VCComThread@@@@AEAAXH@Z		; CTList<CComThread>::_DEL
PUBLIC	?__autoclassinit2@?$CTList@VCComThread@@@@QEAAX_K@Z ; CTList<CComThread>::__autoclassinit2
PUBLIC	??_G?$CTList@VCComThread@@@@QEAAPEAXI@Z		; CTList<CComThread>::`scalar deleting destructor'
PUBLIC	??0?$CTList@VCComQueueThread@@@@QEAA@XZ		; CTList<CComQueueThread>::CTList<CComQueueThread>
PUBLIC	??1?$CTList@VCComQueueThread@@@@QEAA@XZ		; CTList<CComQueueThread>::~CTList<CComQueueThread>
PUBLIC	?alloc@?$CTList@VCComQueueThread@@@@QEAAHHW4E_ALLOC_TYPE@@@Z ; CTList<CComQueueThread>::alloc
PUBLIC	?push_back@?$CTList@VCComQueueThread@@@@QEAA_NPEAVCComQueueThread@@PEAH@Z ; CTList<CComQueueThread>::push_back
PUBLIC	?del@?$CTList@VCComQueueThread@@@@QEAA_NH@Z	; CTList<CComQueueThread>::del
PUBLIC	?getObj@?$CTList@VCComQueueThread@@@@QEAAPEAVCComQueueThread@@H@Z ; CTList<CComQueueThread>::getObj
PUBLIC	?getNext@?$CTList@VCComQueueThread@@@@QEAAPEAVCComQueueThread@@PEAH@Z ; CTList<CComQueueThread>::getNext
PUBLIC	?size@?$CTList@VCComQueueThread@@@@QEAAHXZ	; CTList<CComQueueThread>::size
PUBLIC	?setObjAllocType@?$CTList@VCComQueueThread@@@@QEAAXW4E_ALLOC_TYPE@@@Z ; CTList<CComQueueThread>::setObjAllocType
PUBLIC	?__alloc@?$CTList@VCComQueueThread@@@@AEAAHH@Z	; CTList<CComQueueThread>::__alloc
PUBLIC	?_DEL@?$CTList@VCComQueueThread@@@@AEAAXH@Z	; CTList<CComQueueThread>::_DEL
PUBLIC	?__autoclassinit2@?$CTList@VCComQueueThread@@@@QEAAX_K@Z ; CTList<CComQueueThread>::__autoclassinit2
PUBLIC	??_G?$CTList@VCComQueueThread@@@@QEAAPEAXI@Z	; CTList<CComQueueThread>::`scalar deleting destructor'
PUBLIC	?_OptionsStorage@?1??__local_stdio_printf_options@@9@4_KA ; `__local_stdio_printf_options'::`2'::_OptionsStorage
PUBLIC	??_7abstract_condition@common@@6B@		; common::abstract_condition::`vftable'
PUBLIC	??_7condition@win32@common@@6B@			; common::win32::condition::`vftable'
PUBLIC	??_C@_0BD@KEHDJCKJ@ERROR?$CB?5?$FL?$CFs?3?$CFd?$FN?5?$CFs?6?$AA@ ; `string'
PUBLIC	??_R4abstract_condition@common@@6B@		; common::abstract_condition::`RTTI Complete Object Locator'
PUBLIC	??_R0?AVabstract_condition@common@@@8		; common::abstract_condition `RTTI Type Descriptor'
PUBLIC	??_R3abstract_condition@common@@8		; common::abstract_condition::`RTTI Class Hierarchy Descriptor'
PUBLIC	??_R2abstract_condition@common@@8		; common::abstract_condition::`RTTI Base Class Array'
PUBLIC	??_R1A@?0A@EA@abstract_condition@common@@8	; common::abstract_condition::`RTTI Base Class Descriptor at (0,-1,0,64)'
PUBLIC	??_R4condition@win32@common@@6B@		; common::win32::condition::`RTTI Complete Object Locator'
PUBLIC	??_R0?AVcondition@win32@common@@@8		; common::win32::condition `RTTI Type Descriptor'
PUBLIC	??_R3condition@win32@common@@8			; common::win32::condition::`RTTI Class Hierarchy Descriptor'
PUBLIC	??_R2condition@win32@common@@8			; common::win32::condition::`RTTI Base Class Array'
PUBLIC	??_R1A@?0A@EA@condition@win32@common@@8		; common::win32::condition::`RTTI Base Class Descriptor at (0,-1,0,64)'
EXTRN	??_L@YAXPEAX_K1P6AX0@Z2@Z:PROC			; `eh vector constructor iterator'
EXTRN	??_M@YAXPEAX_K1P6AX0@Z@Z:PROC			; `eh vector destructor iterator'
EXTRN	_purecall:PROC
EXTRN	??2@YAPEAX_K@Z:PROC				; operator new
EXTRN	??3@YAXPEAX_K@Z:PROC				; operator delete
EXTRN	??_V@YAXPEAX@Z:PROC				; operator delete[]
EXTRN	??_V@YAXPEAX_K@Z:PROC				; operator delete[]
EXTRN	memcpy:PROC
EXTRN	memset:PROC
EXTRN	strlen:PROC
EXTRN	?initSystem@CEnv@@SAHPEAD@Z:PROC		; CEnv::initSystem
EXTRN	__imp___acrt_iob_func:PROC
EXTRN	__imp___stdio_common_vfprintf:PROC
EXTRN	__imp___stdio_common_vsprintf:PROC
EXTRN	__imp_calloc:PROC
EXTRN	__imp_free:PROC
EXTRN	__imp_exit:PROC
EXTRN	__imp_abort:PROC
EXTRN	__imp_atoi:PROC
EXTRN	??2@YAPEAX_KAEBUnothrow_t@std@@@Z:PROC		; operator new
EXTRN	??_U@YAPEAX_KAEBUnothrow_t@std@@@Z:PROC		; operator new[]
EXTRN	??3@YAXPEAXAEBUnothrow_t@std@@@Z:PROC		; operator delete
EXTRN	??_V@YAXPEAXAEBUnothrow_t@std@@@Z:PROC		; operator delete[]
EXTRN	__imp_CreateThread:PROC
EXTRN	__imp_SetEvent:PROC
EXTRN	__imp_ResetEvent:PROC
EXTRN	__imp_WaitForSingleObject:PROC
EXTRN	__imp_CloseHandle:PROC
EXTRN	__imp_GetTickCount:PROC
EXTRN	__imp_CreateEventA:PROC
EXTRN	__imp_GetPrivateProfileIntA:PROC
EXTRN	??_Eabstract_condition@common@@UEAAPEAXI@Z:PROC	; common::abstract_condition::`vector deleting destructor'
EXTRN	??_Econdition@win32@common@@UEAAPEAXI@Z:PROC	; common::win32::condition::`vector deleting destructor'
EXTRN	??0CQueueS@@QEAA@XZ:PROC			; CQueueS::CQueueS
EXTRN	??1CQueueS@@QEAA@XZ:PROC			; CQueueS::~CQueueS
EXTRN	?alloc@CQueueS@@QEAA_NHW4E_ALLOC_TYPE@@@Z:PROC	; CQueueS::alloc
EXTRN	?push@CQueueS@@QEAA_NPEAX@Z:PROC		; CQueueS::push
EXTRN	?pop@CQueueS@@QEAAPEAXXZ:PROC			; CQueueS::pop
EXTRN	??0CDateTime@@QEAA@W4DT_TYPE@@W4TZ_TYPE@@@Z:PROC ; CDateTime::CDateTime
EXTRN	??1CDateTime@@QEAA@XZ:PROC			; CDateTime::~CDateTime
EXTRN	?DateString@CDateTime@@QEAAPEBDD@Z:PROC		; CDateTime::DateString
EXTRN	??0CMemManager@@QEAA@XZ:PROC			; CMemManager::CMemManager
EXTRN	?init@CMemManager@@QEAAXPEAUSTBufConf@@@Z:PROC	; CMemManager::init
EXTRN	?alloc@CMemManager@@QEAA_NXZ:PROC		; CMemManager::alloc
EXTRN	?delBufByIndex@CMemManager@@QEAAXPEADH@Z:PROC	; CMemManager::delBufByIndex
EXTRN	?__newBuf@CMemManager@@AEAAPEADH_K@Z:PROC	; CMemManager::__newBuf
EXTRN	?initConfig@CTimeExpManager@@QEAA_NPEAD@Z:PROC	; CTimeExpManager::initConfig
EXTRN	??1CLogger@@QEAA@XZ:PROC			; CLogger::~CLogger
EXTRN	?initConfig@CLogger@@QEAA?AW4E_LOG_INIT_RES@@PEAD0@Z:PROC ; CLogger::initConfig
EXTRN	?OpenLogger@CLogger@@QEAAXXZ:PROC		; CLogger::OpenLogger
EXTRN	?LogPrint@CLogger@@QEAAXPEAD@Z:PROC		; CLogger::LogPrint
EXTRN	?disable@CLogger@@QEAAXXZ:PROC			; CLogger::disable
EXTRN	?checkChangeProc@CLogger@@QEAAXH@Z:PROC		; CLogger::checkChangeProc
EXTRN	_RTC_CheckStackVars:PROC
EXTRN	_RTC_InitBase:PROC
EXTRN	_RTC_Shutdown:PROC
EXTRN	__CxxFrameHandler3:PROC
EXTRN	__GSHandlerCheck:PROC
EXTRN	__GSHandlerCheck_EH:PROC
EXTRN	__security_check_cookie:PROC
EXTRN	?nothrow@std@@3Unothrow_t@1@B:BYTE		; std::nothrow
EXTRN	?g_pSystem@@3PEADEA:QWORD			; g_pSystem
EXTRN	?g_szSystemError@@3PADA:BYTE			; g_szSystemError
EXTRN	?g_szMessage@@3PADA:BYTE			; g_szMessage
EXTRN	?gs_pMMgr@@3PEAVCMemManager@@EA:QWORD		; gs_pMMgr
EXTRN	?gs_cLogger@@3VCLogger@@A:BYTE			; gs_cLogger
EXTRN	?gs_DTEManager@@3VCTimeExpManager@@A:QWORD	; gs_DTEManager
EXTRN	??_7type_info@@6B@:BYTE				; type_info::`vftable'
EXTRN	__security_cookie:QWORD
EXTRN	_fltused:DWORD
;	COMDAT ?_OptionsStorage@?1??__local_stdio_printf_options@@9@4_KA
_BSS	SEGMENT
?_OptionsStorage@?1??__local_stdio_printf_options@@9@4_KA DQ 01H DUP (?) ; `__local_stdio_printf_options'::`2'::_OptionsStorage
_BSS	ENDS
;	COMDAT pdata
pdata	SEGMENT
$pdata$__local_stdio_printf_options DD imagerel $LN3
	DD	imagerel $LN3+11
	DD	imagerel $unwind$__local_stdio_printf_options
pdata	ENDS
;	COMDAT pdata
pdata	SEGMENT
$pdata$_vfprintf_l DD imagerel $LN3
	DD	imagerel $LN3+90
	DD	imagerel $unwind$_vfprintf_l
pdata	ENDS
;	COMDAT pdata
pdata	SEGMENT
$pdata$??$__vcrt_va_start_verify_argument_type@QEBD@@YAXXZ DD imagerel $LN3
	DD	imagerel $LN3+4
	DD	imagerel $unwind$??$__vcrt_va_start_verify_argument_type@QEBD@@YAXXZ
pdata	ENDS
;	COMDAT pdata
pdata	SEGMENT
$pdata$printf DD imagerel $LN3
	DD	imagerel $LN3+162
	DD	imagerel $unwind$printf
pdata	ENDS
;	COMDAT pdata
pdata	SEGMENT
$pdata$_vsnprintf_l DD imagerel $LN5
	DD	imagerel $LN5+140
	DD	imagerel $unwind$_vsnprintf_l
pdata	ENDS
;	COMDAT pdata
pdata	SEGMENT
$pdata$_vsprintf_l DD imagerel $LN3
	DD	imagerel $LN3+88
	DD	imagerel $unwind$_vsprintf_l
pdata	ENDS
;	COMDAT pdata
pdata	SEGMENT
$pdata$sprintf DD imagerel $LN3
	DD	imagerel $LN3+156
	DD	imagerel $unwind$sprintf
pdata	ENDS
;	COMDAT pdata
pdata	SEGMENT
$pdata$??1abstract_condition@common@@UEAA@XZ DD imagerel $LN3
	DD	imagerel $LN3+23
	DD	imagerel $unwind$??1abstract_condition@common@@UEAA@XZ
pdata	ENDS
;	COMDAT pdata
pdata	SEGMENT
$pdata$??0abstract_condition@common@@QEAA@XZ DD imagerel $LN3
	DD	imagerel $LN3+28
	DD	imagerel $unwind$??0abstract_condition@common@@QEAA@XZ
pdata	ENDS
;	COMDAT pdata
pdata	SEGMENT
$pdata$??_Gabstract_condition@common@@UEAAPEAXI@Z DD imagerel $LN4
	DD	imagerel $LN4+81
	DD	imagerel $unwind$??_Gabstract_condition@common@@UEAAPEAXI@Z
pdata	ENDS
;	COMDAT pdata
pdata	SEGMENT
$pdata$??0condition@win32@common@@QEAA@XZ DD imagerel $LN4
	DD	imagerel $LN4+94
	DD	imagerel $unwind$??0condition@win32@common@@QEAA@XZ
pdata	ENDS
;	COMDAT pdata
pdata	SEGMENT
$pdata$??1condition@win32@common@@UEAA@XZ DD imagerel $LN3
	DD	imagerel $LN3+76
	DD	imagerel $unwind$??1condition@win32@common@@UEAA@XZ
pdata	ENDS
;	COMDAT pdata
pdata	SEGMENT
$pdata$?signal@condition@win32@common@@UEAAXXZ DD imagerel $LN3
	DD	imagerel $LN3+51
	DD	imagerel $unwind$?signal@condition@win32@common@@UEAAXXZ
pdata	ENDS
;	COMDAT pdata
pdata	SEGMENT
$pdata$?signal_all@condition@win32@common@@UEAAXXZ DD imagerel $LN3
	DD	imagerel $LN3+42
	DD	imagerel $unwind$?signal_all@condition@win32@common@@UEAAXXZ
pdata	ENDS
;	COMDAT pdata
pdata	SEGMENT
$pdata$?wait@condition@win32@common@@QEAA_NHPEAVcritical_section@23@@Z DD imagerel $LN9
	DD	imagerel $LN9+198
	DD	imagerel $unwind$?wait@condition@win32@common@@QEAA_NHPEAVcritical_section@23@@Z
pdata	ENDS
;	COMDAT pdata
pdata	SEGMENT
$pdata$??_Gcondition@win32@common@@UEAAPEAXI@Z DD imagerel $LN4
	DD	imagerel $LN4+81
	DD	imagerel $unwind$??_Gcondition@win32@common@@UEAAPEAXI@Z
pdata	ENDS
;	COMDAT pdata
pdata	SEGMENT
$pdata$??0win64_atomic@win32@common@@QEAA@XZ DD imagerel $LN3
	DD	imagerel $LN3+25
	DD	imagerel $unwind$??0win64_atomic@win32@common@@QEAA@XZ
pdata	ENDS
;	COMDAT pdata
pdata	SEGMENT
$pdata$??1win64_atomic@win32@common@@QEAA@XZ DD imagerel $LN3
	DD	imagerel $LN3+8
	DD	imagerel $unwind$??1win64_atomic@win32@common@@QEAA@XZ
pdata	ENDS
;	COMDAT pdata
pdata	SEGMENT
$pdata$?getCount@win64_atomic@win32@common@@QEAAHXZ DD imagerel $LN3
	DD	imagerel $LN3+16
	DD	imagerel $unwind$?getCount@win64_atomic@win32@common@@QEAAHXZ
pdata	ENDS
;	COMDAT pdata
pdata	SEGMENT
$pdata$?setCount@win64_atomic@win32@common@@QEAAXH@Z DD imagerel $LN3
	DD	imagerel $LN3+25
	DD	imagerel $unwind$?setCount@win64_atomic@win32@common@@QEAAXH@Z
pdata	ENDS
;	COMDAT pdata
pdata	SEGMENT
$pdata$?init@win64_atomic@win32@common@@QEAAXXZ DD imagerel $LN3
	DD	imagerel $LN3+20
	DD	imagerel $unwind$?init@win64_atomic@win32@common@@QEAAXXZ
pdata	ENDS
;	COMDAT pdata
pdata	SEGMENT
$pdata$?atomic_increment@win64_atomic@win32@common@@QEAA_JXZ DD imagerel $LN3
	DD	imagerel $LN3+29
	DD	imagerel $unwind$?atomic_increment@win64_atomic@win32@common@@QEAA_JXZ
pdata	ENDS
;	COMDAT pdata
pdata	SEGMENT
$pdata$?atomic_decrement@win64_atomic@win32@common@@QEAA_JXZ DD imagerel $LN3
	DD	imagerel $LN3+31
	DD	imagerel $unwind$?atomic_decrement@win64_atomic@win32@common@@QEAA_JXZ
pdata	ENDS
;	COMDAT pdata
pdata	SEGMENT
$pdata$?atomic_compare_exchange@win64_atomic@win32@common@@QEAA_J_J0@Z DD imagerel $LN3
	DD	imagerel $LN3+78
	DD	imagerel $unwind$?atomic_compare_exchange@win64_atomic@win32@common@@QEAA_J_J0@Z
pdata	ENDS
;	COMDAT pdata
pdata	SEGMENT
$pdata$??_Ewin64_atomic@win32@common@@QEAAPEAXI@Z DD imagerel $LN6
	DD	imagerel $LN6+192
	DD	imagerel $unwind$??_Ewin64_atomic@win32@common@@QEAAPEAXI@Z
pdata	ENDS
;	COMDAT pdata
pdata	SEGMENT
$pdata$?ISABLETODELETE@@YA_NW4E_ALLOC_TYPE@@@Z DD imagerel $LN4
	DD	imagerel $LN4+20
	DD	imagerel $unwind$?ISABLETODELETE@@YA_NW4E_ALLOC_TYPE@@@Z
pdata	ENDS
;	COMDAT pdata
pdata	SEGMENT
$pdata$?ISINCLUDE@@YA_NHH@Z DD imagerel $LN4
	DD	imagerel $LN4+34
	DD	imagerel $unwind$?ISINCLUDE@@YA_NHH@Z
pdata	ENDS
;	COMDAT pdata
pdata	SEGMENT
$pdata$?comGlobalErrorProc@@YAXPEADPEBDH@Z DD imagerel $LN3
	DD	imagerel $LN3+97
	DD	imagerel $unwind$?comGlobalErrorProc@@YAXPEADPEBDH@Z
pdata	ENDS
;	COMDAT pdata
pdata	SEGMENT
$pdata$?__autoclassinit2@CQueueS@@QEAAX_K@Z DD imagerel $LN3
	DD	imagerel $LN3+27
	DD	imagerel $unwind$?__autoclassinit2@CQueueS@@QEAAX_K@Z
pdata	ENDS
;	COMDAT pdata
pdata	SEGMENT
$pdata$??_GCQueueS@@QEAAPEAXI@Z DD imagerel $LN4
	DD	imagerel $LN4+81
	DD	imagerel $unwind$??_GCQueueS@@QEAAPEAXI@Z
pdata	ENDS
;	COMDAT pdata
pdata	SEGMENT
$pdata$?Year@CDateTime@@QEAAHXZ DD imagerel $LN3
	DD	imagerel $LN3+16
	DD	imagerel $unwind$?Year@CDateTime@@QEAAHXZ
pdata	ENDS
;	COMDAT pdata
pdata	SEGMENT
$pdata$?Month@CDateTime@@QEAAHXZ DD imagerel $LN3
	DD	imagerel $LN3+16
	DD	imagerel $unwind$?Month@CDateTime@@QEAAHXZ
pdata	ENDS
;	COMDAT pdata
pdata	SEGMENT
$pdata$?Mday@CDateTime@@QEAAHXZ DD imagerel $LN3
	DD	imagerel $LN3+16
	DD	imagerel $unwind$?Mday@CDateTime@@QEAAHXZ
pdata	ENDS
;	COMDAT pdata
pdata	SEGMENT
$pdata$?Hour@CDateTime@@QEAAHXZ DD imagerel $LN3
	DD	imagerel $LN3+16
	DD	imagerel $unwind$?Hour@CDateTime@@QEAAHXZ
pdata	ENDS
;	COMDAT pdata
pdata	SEGMENT
$pdata$?Minute@CDateTime@@QEAAHXZ DD imagerel $LN3
	DD	imagerel $LN3+16
	DD	imagerel $unwind$?Minute@CDateTime@@QEAAHXZ
pdata	ENDS
;	COMDAT pdata
pdata	SEGMENT
$pdata$?Sec@CDateTime@@QEAAHXZ DD imagerel $LN3
	DD	imagerel $LN3+15
	DD	imagerel $unwind$?Sec@CDateTime@@QEAAHXZ
pdata	ENDS
;	COMDAT pdata
pdata	SEGMENT
$pdata$?getIndex@@YAHH@Z DD imagerel $LN5
	DD	imagerel $LN5+162
	DD	imagerel $unwind$?getIndex@@YAHH@Z
pdata	ENDS
;	COMDAT pdata
pdata	SEGMENT
$pdata$?newBuf@CMemManager@@QEAAPEADH@Z DD imagerel $LN3
	DD	imagerel $LN3+75
	DD	imagerel $unwind$?newBuf@CMemManager@@QEAAPEADH@Z
pdata	ENDS
;	COMDAT pdata
pdata	SEGMENT
$pdata$?delBuf@CMemManager@@QEAAXPEADH@Z DD imagerel $LN3
	DD	imagerel $LN3+79
	DD	imagerel $unwind$?delBuf@CMemManager@@QEAAXPEADH@Z
pdata	ENDS
;	COMDAT pdata
pdata	SEGMENT
$pdata$?addLogSize@CLogger@@QEAAXH@Z DD imagerel $LN3
	DD	imagerel $LN3+38
	DD	imagerel $unwind$?addLogSize@CLogger@@QEAAXH@Z
pdata	ENDS
;	COMDAT pdata
pdata	SEGMENT
$pdata$?getSTLNo@CLogger@@QEAAHXZ DD imagerel $LN3
	DD	imagerel $LN3+19
	DD	imagerel $unwind$?getSTLNo@CLogger@@QEAAHXZ
pdata	ENDS
;	COMDAT pdata
pdata	SEGMENT
$pdata$?setLogFlag@CLogger@@QEAAXW4E_LOG_FLAG@@@Z DD imagerel $LN3
	DD	imagerel $LN3+40
	DD	imagerel $unwind$?setLogFlag@CLogger@@QEAAXW4E_LOG_FLAG@@@Z
pdata	ENDS
;	COMDAT pdata
pdata	SEGMENT
$pdata$?clearLogFlag@CLogger@@QEAAXW4E_LOG_FLAG@@@Z DD imagerel $LN3
	DD	imagerel $LN3+44
	DD	imagerel $unwind$?clearLogFlag@CLogger@@QEAAXW4E_LOG_FLAG@@@Z
pdata	ENDS
;	COMDAT pdata
pdata	SEGMENT
$pdata$?isLogFlag@CLogger@@QEAA_NW4E_LOG_FLAG@@@Z DD imagerel $LN5
	DD	imagerel $LN5+75
	DD	imagerel $unwind$?isLogFlag@CLogger@@QEAA_NW4E_LOG_FLAG@@@Z
pdata	ENDS
;	COMDAT pdata
pdata	SEGMENT
$pdata$?pop@CLogger@@QEAAPEADXZ DD imagerel $LN3
	DD	imagerel $LN3+49
	DD	imagerel $unwind$?pop@CLogger@@QEAAPEADXZ
pdata	ENDS
;	COMDAT pdata
pdata	SEGMENT
$pdata$?getLogName@CLogger@@QEAAPEADXZ DD imagerel $LN3
	DD	imagerel $LN3+20
	DD	imagerel $unwind$?getLogName@CLogger@@QEAAPEADXZ
pdata	ENDS
;	COMDAT pdata
pdata	SEGMENT
$pdata$?setCondition@CLogger@@QEAAXPEAVcondition@win32@common@@@Z DD imagerel $LN3
	DD	imagerel $LN3+27
	DD	imagerel $unwind$?setCondition@CLogger@@QEAAXPEAVcondition@win32@common@@@Z
pdata	ENDS
;	COMDAT pdata
pdata	SEGMENT
$pdata$??_GCLogger@@QEAAPEAXI@Z DD imagerel $LN4
	DD	imagerel $LN4+81
	DD	imagerel $unwind$??_GCLogger@@QEAAPEAXI@Z
pdata	ENDS
;	COMDAT pdata
pdata	SEGMENT
$pdata$??_ECLogger@@QEAAPEAXI@Z DD imagerel $LN6
	DD	imagerel $LN6+192
	DD	imagerel $unwind$??_ECLogger@@QEAAPEAXI@Z
pdata	ENDS
;	COMDAT pdata
pdata	SEGMENT
$pdata$??0STThreadInfo@@QEAA@XZ DD imagerel $LN4
	DD	imagerel $LN4+58
	DD	imagerel $unwind$??0STThreadInfo@@QEAA@XZ
pdata	ENDS
;	COMDAT pdata
pdata	SEGMENT
$pdata$??1STThreadInfo@@QEAA@XZ DD imagerel $LN3
	DD	imagerel $LN3+53
	DD	imagerel $unwind$??1STThreadInfo@@QEAA@XZ
pdata	ENDS
pdata	SEGMENT
$pdata$??0CComThread@@QEAA@XZ DD imagerel $LN4
	DD	imagerel $LN4+154
	DD	imagerel $unwind$??0CComThread@@QEAA@XZ
$pdata$??1CComThread@@QEAA@XZ DD imagerel $LN3
	DD	imagerel $LN3+74
	DD	imagerel $unwind$??1CComThread@@QEAA@XZ
$pdata$?init@CComThread@@QEAA_NP6AXPEAUSTThreadInfo@@@ZPEAXH2@Z DD imagerel $LN3
	DD	imagerel $LN3+90
	DD	imagerel $unwind$?init@CComThread@@QEAA_NP6AXPEAUSTThreadInfo@@@ZPEAXH2@Z
$pdata$?start@CComThread@@QEAA_NXZ DD imagerel $LN7
	DD	imagerel $LN7+242
	DD	imagerel $unwind$?start@CComThread@@QEAA_NXZ
$pdata$?quit@CComThread@@QEAA_NXZ DD imagerel $LN4
	DD	imagerel $LN4+86
	DD	imagerel $unwind$?quit@CComThread@@QEAA_NXZ
$pdata$?ProcThread@CComThread@@SAKPEAX@Z DD imagerel $LN5
	DD	imagerel $LN5+127
	DD	imagerel $unwind$?ProcThread@CComThread@@SAKPEAX@Z
pdata	ENDS
;	COMDAT pdata
pdata	SEGMENT
$pdata$?setIdx@CComThread@@QEAAXH@Z DD imagerel $LN3
	DD	imagerel $LN3+24
	DD	imagerel $unwind$?setIdx@CComThread@@QEAAXH@Z
pdata	ENDS
;	COMDAT pdata
pdata	SEGMENT
$pdata$?bActive@CComThread@@QEAA_NXZ DD imagerel $LN3
	DD	imagerel $LN3+17
	DD	imagerel $unwind$?bActive@CComThread@@QEAA_NXZ
pdata	ENDS
;	COMDAT pdata
pdata	SEGMENT
$pdata$?sendSignal@CComThread@@QEAAXXZ DD imagerel $LN3
	DD	imagerel $LN3+70
	DD	imagerel $unwind$?sendSignal@CComThread@@QEAAXXZ
pdata	ENDS
;	COMDAT pdata
pdata	SEGMENT
$pdata$??_GCComThread@@QEAAPEAXI@Z DD imagerel $LN4
	DD	imagerel $LN4+81
	DD	imagerel $unwind$??_GCComThread@@QEAAPEAXI@Z
pdata	ENDS
;	COMDAT pdata
pdata	SEGMENT
$pdata$??_ECComThread@@QEAAPEAXI@Z DD imagerel $LN6
	DD	imagerel $LN6+189
	DD	imagerel $unwind$??_ECComThread@@QEAAPEAXI@Z
pdata	ENDS
pdata	SEGMENT
$pdata$?loggerLoop@@YAXPEAUSTThreadInfo@@@Z DD imagerel $LN4
	DD	imagerel $LN4+89
	DD	imagerel $unwind$?loggerLoop@@YAXPEAUSTThreadInfo@@@Z
$pdata$??0CSTLogger@@QEAA@XZ DD imagerel $LN4
	DD	imagerel $LN4+80
	DD	imagerel $unwind$??0CSTLogger@@QEAA@XZ
$pdata$??1CSTLogger@@QEAA@XZ DD imagerel $LN9
	DD	imagerel $LN9+248
	DD	imagerel $unwind$??1CSTLogger@@QEAA@XZ
$pdata$?initConfig@CSTLogger@@QEAA_NPEADH0@Z DD imagerel $LN5
	DD	imagerel $LN5+201
	DD	imagerel $unwind$?initConfig@CSTLogger@@QEAA_NPEADH0@Z
$pdata$?init@CSTLogger@@QEAA_NHH@Z DD imagerel $LN5
	DD	imagerel $LN5+100
	DD	imagerel $unwind$?init@CSTLogger@@QEAA_NHH@Z
$pdata$?start@CSTLogger@@QEAA_NXZ DD imagerel $LN6
	DD	imagerel $LN6+202
	DD	imagerel $unwind$?start@CSTLogger@@QEAA_NXZ
$pdata$?quit@CSTLogger@@QEAA_NXZ DD imagerel $LN6
	DD	imagerel $LN6+139
	DD	imagerel $unwind$?quit@CSTLogger@@QEAA_NXZ
$pdata$?IsCommand@CSTLogger@@QEAA_NXZ DD imagerel $LN8
	DD	imagerel $LN8+186
	DD	imagerel $unwind$?IsCommand@CSTLogger@@QEAA_NXZ
$pdata$?GetQueue@CSTLogger@@QEAAXXZ DD imagerel $LN7
	DD	imagerel $LN7+269
	DD	imagerel $unwind$?GetQueue@CSTLogger@@QEAAXXZ
$pdata$?TimeProc@CSTLogger@@QEAAXXZ DD imagerel $LN10
	DD	imagerel $LN10+510
	DD	imagerel $unwind$?TimeProc@CSTLogger@@QEAAXXZ
pdata	ENDS
pdata	SEGMENT
$pdata$?dtor$0@?0??TimeProc@CSTLogger@@QEAAXXZ@4HA DD imagerel ?dtor$0@?0??TimeProc@CSTLogger@@QEAAXXZ@4HA
	DD	imagerel ?dtor$0@?0??TimeProc@CSTLogger@@QEAAXXZ@4HA+35
	DD	imagerel $unwind$?dtor$0@?0??TimeProc@CSTLogger@@QEAAXXZ@4HA
pdata	ENDS
pdata	SEGMENT
$pdata$?procLoggerEnable@CSTLogger@@QEAAXPEAVCLogger@@@Z DD imagerel $LN12
	DD	imagerel $LN12+317
	DD	imagerel $unwind$?procLoggerEnable@CSTLogger@@QEAAXPEAVCLogger@@@Z
$pdata$?porcLoggerDisable@CSTLogger@@QEAAXPEAVCLogger@@@Z DD imagerel $LN5
	DD	imagerel $LN5+239
	DD	imagerel $unwind$?porcLoggerDisable@CSTLogger@@QEAAXPEAVCLogger@@@Z
pdata	ENDS
;	COMDAT pdata
pdata	SEGMENT
$pdata$?pushCommand@CSTLogger@@QEAA_NPEAUSTLCommand@@@Z DD imagerel $LN4
	DD	imagerel $LN4+86
	DD	imagerel $unwind$?pushCommand@CSTLogger@@QEAA_NPEAUSTLCommand@@@Z
pdata	ENDS
pdata	SEGMENT
$pdata$?_init@CSTLogger@@AEAA_NH@Z DD imagerel $LN11
	DD	imagerel $LN11+289
	DD	imagerel $unwind$?_init@CSTLogger@@AEAA_NH@Z
pdata	ENDS
pdata	SEGMENT
$pdata$?dtor$0@?0??_init@CSTLogger@@AEAA_NH@Z@4HA DD imagerel ?dtor$0@?0??_init@CSTLogger@@AEAA_NH@Z@4HA
	DD	imagerel ?dtor$0@?0??_init@CSTLogger@@AEAA_NH@Z@4HA+40
	DD	imagerel $unwind$?dtor$0@?0??_init@CSTLogger@@AEAA_NH@Z@4HA
$pdata$?dtor$1@?0??_init@CSTLogger@@AEAA_NH@Z@4HA DD imagerel ?dtor$1@?0??_init@CSTLogger@@AEAA_NH@Z@4HA
	DD	imagerel ?dtor$1@?0??_init@CSTLogger@@AEAA_NH@Z@4HA+40
	DD	imagerel $unwind$?dtor$1@?0??_init@CSTLogger@@AEAA_NH@Z@4HA
pdata	ENDS
;	COMDAT pdata
pdata	SEGMENT
$pdata$??_GCSTLogger@@QEAAPEAXI@Z DD imagerel $LN4
	DD	imagerel $LN4+81
	DD	imagerel $unwind$??_GCSTLogger@@QEAAPEAXI@Z
pdata	ENDS
;	COMDAT pdata
pdata	SEGMENT
$pdata$??_ECSTLogger@@QEAAPEAXI@Z DD imagerel $LN6
	DD	imagerel $LN6+189
	DD	imagerel $unwind$??_ECSTLogger@@QEAAPEAXI@Z
pdata	ENDS
pdata	SEGMENT
$pdata$?schedulerLoop@@YAXPEAUSTThreadInfo@@@Z DD imagerel $LN8
	DD	imagerel $LN8+294
	DD	imagerel $unwind$?schedulerLoop@@YAXPEAUSTThreadInfo@@@Z
$pdata$??0CScheduler@@QEAA@XZ DD imagerel $LN4
	DD	imagerel $LN4+91
	DD	imagerel $unwind$??0CScheduler@@QEAA@XZ
$pdata$??1CScheduler@@QEAA@XZ DD imagerel $LN3
	DD	imagerel $LN3+70
	DD	imagerel $unwind$??1CScheduler@@QEAA@XZ
$pdata$?initConfig@CScheduler@@QEAA_NPEADH0@Z DD imagerel $LN10
	DD	imagerel $LN10+515
	DD	imagerel $unwind$?initConfig@CScheduler@@QEAA_NPEADH0@Z
pdata	ENDS
pdata	SEGMENT
$pdata$?dtor$0@?0??initConfig@CScheduler@@QEAA_NPEADH0@Z@4HA DD imagerel ?dtor$0@?0??initConfig@CScheduler@@QEAA_NPEADH0@Z@4HA
	DD	imagerel ?dtor$0@?0??initConfig@CScheduler@@QEAA_NPEADH0@Z@4HA+40
	DD	imagerel $unwind$?dtor$0@?0??initConfig@CScheduler@@QEAA_NPEADH0@Z@4HA
pdata	ENDS
pdata	SEGMENT
$pdata$?init@CScheduler@@QEAA_NHHH@Z DD imagerel $LN9
	DD	imagerel $LN9+335
	DD	imagerel $unwind$?init@CScheduler@@QEAA_NHHH@Z
pdata	ENDS
pdata	SEGMENT
$pdata$?dtor$0@?0??init@CScheduler@@QEAA_NHHH@Z@4HA DD imagerel ?dtor$0@?0??init@CScheduler@@QEAA_NHHH@Z@4HA
	DD	imagerel ?dtor$0@?0??init@CScheduler@@QEAA_NHHH@Z@4HA+40
	DD	imagerel $unwind$?dtor$0@?0??init@CScheduler@@QEAA_NHHH@Z@4HA
pdata	ENDS
pdata	SEGMENT
$pdata$?start@CScheduler@@QEAA_NXZ DD imagerel $LN6
	DD	imagerel $LN6+193
	DD	imagerel $unwind$?start@CScheduler@@QEAA_NXZ
$pdata$?quit@CScheduler@@QEAA_NXZ DD imagerel $LN6
	DD	imagerel $LN6+139
	DD	imagerel $unwind$?quit@CScheduler@@QEAA_NXZ
pdata	ENDS
;	COMDAT pdata
pdata	SEGMENT
$pdata$?timeNext@CScheduler@@QEAAPEAUSTIntervalInfo@@PEAH@Z DD imagerel $LN3
	DD	imagerel $LN3+60
	DD	imagerel $unwind$?timeNext@CScheduler@@QEAAPEAUSTIntervalInfo@@PEAH@Z
pdata	ENDS
;	COMDAT pdata
pdata	SEGMENT
$pdata$?deleteTime@CScheduler@@QEAA_NPEAUSTIntervalInfo@@@Z DD imagerel $LN3
	DD	imagerel $LN3+60
	DD	imagerel $unwind$?deleteTime@CScheduler@@QEAA_NPEAUSTIntervalInfo@@@Z
pdata	ENDS
;	COMDAT pdata
pdata	SEGMENT
$pdata$?addTime@CScheduler@@QEAAHPEAUSTIntervalInfo@@@Z DD imagerel $LN3
	DD	imagerel $LN3+60
	DD	imagerel $unwind$?addTime@CScheduler@@QEAAHPEAUSTIntervalInfo@@@Z
pdata	ENDS
;	COMDAT pdata
pdata	SEGMENT
$pdata$?getMilliSecHalf@CScheduler@@QEAAHXZ DD imagerel $LN3
	DD	imagerel $LN3+16
	DD	imagerel $unwind$?getMilliSecHalf@CScheduler@@QEAAHXZ
pdata	ENDS
;	COMDAT pdata
pdata	SEGMENT
$pdata$?setGoal@CScheduler@@QEAAXXZ DD imagerel $LN3
	DD	imagerel $LN3+32
	DD	imagerel $unwind$?setGoal@CScheduler@@QEAAXXZ
pdata	ENDS
;	COMDAT pdata
pdata	SEGMENT
$pdata$?getGoal@CScheduler@@QEAAIXZ DD imagerel $LN3
	DD	imagerel $LN3+16
	DD	imagerel $unwind$?getGoal@CScheduler@@QEAAIXZ
pdata	ENDS
;	COMDAT pdata
pdata	SEGMENT
$pdata$??_GCScheduler@@QEAAPEAXI@Z DD imagerel $LN4
	DD	imagerel $LN4+81
	DD	imagerel $unwind$??_GCScheduler@@QEAAPEAXI@Z
pdata	ENDS
;	COMDAT pdata
pdata	SEGMENT
$pdata$??_ECScheduler@@QEAAPEAXI@Z DD imagerel $LN6
	DD	imagerel $LN6+189
	DD	imagerel $unwind$??_ECScheduler@@QEAAPEAXI@Z
pdata	ENDS
;	COMDAT pdata
pdata	SEGMENT
$pdata$??0?$CMemList@USTIntervalInfo@@@@QEAA@XZ DD imagerel $LN4
	DD	imagerel $LN4+123
	DD	imagerel $unwind$??0?$CMemList@USTIntervalInfo@@@@QEAA@XZ
pdata	ENDS
;	COMDAT pdata
pdata	SEGMENT
$pdata$?dtor$0@?0???0?$CMemList@USTIntervalInfo@@@@QEAA@XZ@4HA DD imagerel ?dtor$0@?0???0?$CMemList@USTIntervalInfo@@@@QEAA@XZ@4HA
	DD	imagerel ?dtor$0@?0???0?$CMemList@USTIntervalInfo@@@@QEAA@XZ@4HA+39
	DD	imagerel $unwind$?dtor$0@?0???0?$CMemList@USTIntervalInfo@@@@QEAA@XZ@4HA
pdata	ENDS
;	COMDAT pdata
pdata	SEGMENT
$pdata$??1?$CMemList@USTIntervalInfo@@@@QEAA@XZ DD imagerel $LN23
	DD	imagerel $LN23+637
	DD	imagerel $unwind$??1?$CMemList@USTIntervalInfo@@@@QEAA@XZ
pdata	ENDS
;	COMDAT pdata
pdata	SEGMENT
$pdata$?alloc@?$CMemList@USTIntervalInfo@@@@QEAAHHW4E_ALLOC_TYPE@@@Z DD imagerel $LN11
	DD	imagerel $LN11+430
	DD	imagerel $unwind$?alloc@?$CMemList@USTIntervalInfo@@@@QEAAHHW4E_ALLOC_TYPE@@@Z
pdata	ENDS
;	COMDAT pdata
pdata	SEGMENT
$pdata$?dtor$0@?0??alloc@?$CMemList@USTIntervalInfo@@@@QEAAHHW4E_ALLOC_TYPE@@@Z@4HA DD imagerel ?dtor$0@?0??alloc@?$CMemList@USTIntervalInfo@@@@QEAAHHW4E_ALLOC_TYPE@@@Z@4HA
	DD	imagerel ?dtor$0@?0??alloc@?$CMemList@USTIntervalInfo@@@@QEAAHHW4E_ALLOC_TYPE@@@Z@4HA+42
	DD	imagerel $unwind$?dtor$0@?0??alloc@?$CMemList@USTIntervalInfo@@@@QEAAHHW4E_ALLOC_TYPE@@@Z@4HA
pdata	ENDS
;	COMDAT pdata
pdata	SEGMENT
$pdata$?getNext@?$CMemList@USTIntervalInfo@@@@QEAAPEAUSTIntervalInfo@@PEAH@Z DD imagerel $LN10
	DD	imagerel $LN10+234
	DD	imagerel $unwind$?getNext@?$CMemList@USTIntervalInfo@@@@QEAAPEAUSTIntervalInfo@@PEAH@Z
pdata	ENDS
;	COMDAT pdata
pdata	SEGMENT
$pdata$?add@?$CMemList@USTIntervalInfo@@@@QEAAHPEAUSTIntervalInfo@@@Z DD imagerel $LN16
	DD	imagerel $LN16+496
	DD	imagerel $unwind$?add@?$CMemList@USTIntervalInfo@@@@QEAAHPEAUSTIntervalInfo@@@Z
pdata	ENDS
;	COMDAT pdata
pdata	SEGMENT
$pdata$?del@?$CMemList@USTIntervalInfo@@@@QEAA_NPEAUSTIntervalInfo@@@Z DD imagerel $LN7
	DD	imagerel $LN7+146
	DD	imagerel $unwind$?del@?$CMemList@USTIntervalInfo@@@@QEAA_NPEAUSTIntervalInfo@@@Z
pdata	ENDS
;	COMDAT pdata
pdata	SEGMENT
$pdata$?_del@?$CMemList@USTIntervalInfo@@@@AEAAXH@Z DD imagerel $LN6
	DD	imagerel $LN6+136
	DD	imagerel $unwind$?_del@?$CMemList@USTIntervalInfo@@@@AEAAXH@Z
pdata	ENDS
;	COMDAT pdata
pdata	SEGMENT
$pdata$?__autoclassinit2@?$CMemList@USTIntervalInfo@@@@QEAAX_K@Z DD imagerel $LN3
	DD	imagerel $LN3+27
	DD	imagerel $unwind$?__autoclassinit2@?$CMemList@USTIntervalInfo@@@@QEAAX_K@Z
pdata	ENDS
;	COMDAT pdata
pdata	SEGMENT
$pdata$??_G?$CMemList@USTIntervalInfo@@@@QEAAPEAXI@Z DD imagerel $LN4
	DD	imagerel $LN4+81
	DD	imagerel $unwind$??_G?$CMemList@USTIntervalInfo@@@@QEAAPEAXI@Z
pdata	ENDS
pdata	SEGMENT
$pdata$?eventThreadLoop@@YAXPEAUSTThreadInfo@@@Z DD imagerel $LN5
	DD	imagerel $LN5+142
	DD	imagerel $unwind$?eventThreadLoop@@YAXPEAUSTThreadInfo@@@Z
$pdata$??0CComQueueThread@@QEAA@XZ DD imagerel $LN5
	DD	imagerel $LN5+82
	DD	imagerel $unwind$??0CComQueueThread@@QEAA@XZ
pdata	ENDS
pdata	SEGMENT
$pdata$?dtor$0@?0???0CComQueueThread@@QEAA@XZ@4HA DD imagerel ?dtor$0@?0???0CComQueueThread@@QEAA@XZ@4HA
	DD	imagerel ?dtor$0@?0???0CComQueueThread@@QEAA@XZ@4HA+35
	DD	imagerel $unwind$?dtor$0@?0???0CComQueueThread@@QEAA@XZ@4HA
pdata	ENDS
pdata	SEGMENT
$pdata$??1CComQueueThread@@QEAA@XZ DD imagerel $LN3
	DD	imagerel $LN3+88
	DD	imagerel $unwind$??1CComQueueThread@@QEAA@XZ
$pdata$?initConfig@CComQueueThread@@QEAA_NPEADH0@Z DD imagerel $LN4
	DD	imagerel $LN4+222
	DD	imagerel $unwind$?initConfig@CComQueueThread@@QEAA_NPEADH0@Z
$pdata$?init@CComQueueThread@@QEAA_NHH@Z DD imagerel $LN4
	DD	imagerel $LN4+115
	DD	imagerel $unwind$?init@CComQueueThread@@QEAA_NHH@Z
$pdata$?start@CComQueueThread@@QEAA_NXZ DD imagerel $LN6
	DD	imagerel $LN6+187
	DD	imagerel $unwind$?start@CComQueueThread@@QEAA_NXZ
$pdata$?quit@CComQueueThread@@QEAA_NXZ DD imagerel $LN3
	DD	imagerel $LN3+51
	DD	imagerel $unwind$?quit@CComQueueThread@@QEAA_NXZ
pdata	ENDS
;	COMDAT pdata
pdata	SEGMENT
$pdata$?putQueue@CComQueueThread@@QEAA_NPEAUSTEvent@@@Z DD imagerel $LN4
	DD	imagerel $LN4+102
	DD	imagerel $unwind$?putQueue@CComQueueThread@@QEAA_NPEAUSTEvent@@@Z
pdata	ENDS
;	COMDAT pdata
pdata	SEGMENT
$pdata$?getEvent@CComQueueThread@@QEAAPEAUSTEvent@@XZ DD imagerel $LN3
	DD	imagerel $LN3+53
	DD	imagerel $unwind$?getEvent@CComQueueThread@@QEAAPEAUSTEvent@@XZ
pdata	ENDS
;	COMDAT pdata
pdata	SEGMENT
$pdata$??_GCComQueueThread@@QEAAPEAXI@Z DD imagerel $LN4
	DD	imagerel $LN4+81
	DD	imagerel $unwind$??_GCComQueueThread@@QEAAPEAXI@Z
pdata	ENDS
;	COMDAT pdata
pdata	SEGMENT
$pdata$??_ECComQueueThread@@QEAAPEAXI@Z DD imagerel $LN6
	DD	imagerel $LN6+192
	DD	imagerel $unwind$??_ECComQueueThread@@QEAAPEAXI@Z
pdata	ENDS
pdata	SEGMENT
$pdata$??0CCoreList@@QEAA@XZ DD imagerel $LN10
	DD	imagerel $LN10+348
	DD	imagerel $unwind$??0CCoreList@@QEAA@XZ
pdata	ENDS
pdata	SEGMENT
$pdata$?dtor$0@?0???0CCoreList@@QEAA@XZ@4HA DD imagerel ?dtor$0@?0???0CCoreList@@QEAA@XZ@4HA
	DD	imagerel ?dtor$0@?0???0CCoreList@@QEAA@XZ@4HA+42
	DD	imagerel $unwind$?dtor$0@?0???0CCoreList@@QEAA@XZ@4HA
pdata	ENDS
pdata	SEGMENT
$pdata$??1CCoreList@@QEAA@XZ DD imagerel $LN3
	DD	imagerel $LN3+56
	DD	imagerel $unwind$??1CCoreList@@QEAA@XZ
$pdata$?initSystemFile@CCoreList@@QEAA_NXZ DD imagerel $LN25
	DD	imagerel $LN25+1268
	DD	imagerel $unwind$?initSystemFile@CCoreList@@QEAA_NXZ
$pdata$?initDefaultPool@CCoreList@@QEAA_NHHH@Z DD imagerel $LN16
	DD	imagerel $LN16+503
	DD	imagerel $unwind$?initDefaultPool@CCoreList@@QEAA_NHHH@Z
$pdata$?initLogger@CCoreList@@QEAA_NPEAVCLogger@@PEAD1@Z DD imagerel $LN10
	DD	imagerel $LN10+377
	DD	imagerel $unwind$?initLogger@CCoreList@@QEAA_NPEAVCLogger@@PEAD1@Z
$pdata$?initLogger@CCoreList@@QEAA_NPEAVCLogger@@@Z DD imagerel $LN5
	DD	imagerel $LN5+194
	DD	imagerel $unwind$?initLogger@CCoreList@@QEAA_NPEAVCLogger@@@Z
$pdata$?setLoggerEnable@CCoreList@@QEAA_NPEAVCLogger@@@Z DD imagerel $LN4
	DD	imagerel $LN4+219
	DD	imagerel $unwind$?setLoggerEnable@CCoreList@@QEAA_NPEAVCLogger@@@Z
$pdata$?setLoggerDisable@CCoreList@@QEAA_NPEAVCLogger@@@Z DD imagerel $LN4
	DD	imagerel $LN4+219
	DD	imagerel $unwind$?setLoggerDisable@CCoreList@@QEAA_NPEAVCLogger@@@Z
$pdata$?start@CCoreList@@QEAA_NXZ DD imagerel $LN32
	DD	imagerel $LN32+795
	DD	imagerel $unwind$?start@CCoreList@@QEAA_NXZ
pdata	ENDS
pdata	SEGMENT
$pdata$?dtor$0@?0??start@CCoreList@@QEAA_NXZ@4HA DD imagerel ?dtor$0@?0??start@CCoreList@@QEAA_NXZ@4HA
	DD	imagerel ?dtor$0@?0??start@CCoreList@@QEAA_NXZ@4HA+35
	DD	imagerel $unwind$?dtor$0@?0??start@CCoreList@@QEAA_NXZ@4HA
pdata	ENDS
pdata	SEGMENT
$pdata$?destroy@CCoreList@@QEAAXXZ DD imagerel $LN21
	DD	imagerel $LN21+660
	DD	imagerel $unwind$?destroy@CCoreList@@QEAAXXZ
pdata	ENDS
;	COMDAT pdata
pdata	SEGMENT
$pdata$?delEvent@CCoreList@@QEAA_NPEAUSTEvent@@@Z DD imagerel $LN3
	DD	imagerel $LN3+60
	DD	imagerel $unwind$?delEvent@CCoreList@@QEAA_NPEAUSTEvent@@@Z
pdata	ENDS
pdata	SEGMENT
$pdata$?putEvent@CCoreList@@QEAA_NPEAUSTEvent@@@Z DD imagerel $LN5
	DD	imagerel $LN5+107
	DD	imagerel $unwind$?putEvent@CCoreList@@QEAA_NPEAUSTEvent@@@Z
$pdata$?putTimer@CCoreList@@QEAA_NPEAUSTIntervalInfo@@@Z DD imagerel $LN5
	DD	imagerel $LN5+104
	DD	imagerel $unwind$?putTimer@CCoreList@@QEAA_NPEAUSTIntervalInfo@@@Z
$pdata$?addComThread@CCoreList@@QEAAHP6AXPEAUSTThreadInfo@@@ZPEAXH2@Z DD imagerel $LN18
	DD	imagerel $LN18+726
	DD	imagerel $unwind$?addComThread@CCoreList@@QEAAHP6AXPEAUSTThreadInfo@@@ZPEAXH2@Z
pdata	ENDS
pdata	SEGMENT
$pdata$?dtor$0@?0??addComThread@CCoreList@@QEAAHP6AXPEAUSTThreadInfo@@@ZPEAXH2@Z@4HA DD imagerel ?dtor$0@?0??addComThread@CCoreList@@QEAAHP6AXPEAUSTThreadInfo@@@ZPEAXH2@Z@4HA
	DD	imagerel ?dtor$0@?0??addComThread@CCoreList@@QEAAHP6AXPEAUSTThreadInfo@@@ZPEAXH2@Z@4HA+42
	DD	imagerel $unwind$?dtor$0@?0??addComThread@CCoreList@@QEAAHP6AXPEAUSTThreadInfo@@@ZPEAXH2@Z@4HA
pdata	ENDS
pdata	SEGMENT
$pdata$?delComThread@CCoreList@@QEAA_NH@Z DD imagerel $LN6
	DD	imagerel $LN6+154
	DD	imagerel $unwind$?delComThread@CCoreList@@QEAA_NH@Z
$pdata$?addLogWriter@CCoreList@@QEAAHH@Z DD imagerel $LN17
	DD	imagerel $LN17+634
	DD	imagerel $unwind$?addLogWriter@CCoreList@@QEAAHH@Z
pdata	ENDS
pdata	SEGMENT
$pdata$?dtor$0@?0??addLogWriter@CCoreList@@QEAAHH@Z@4HA DD imagerel ?dtor$0@?0??addLogWriter@CCoreList@@QEAAHH@Z@4HA
	DD	imagerel ?dtor$0@?0??addLogWriter@CCoreList@@QEAAHH@Z@4HA+42
	DD	imagerel $unwind$?dtor$0@?0??addLogWriter@CCoreList@@QEAAHH@Z@4HA
pdata	ENDS
pdata	SEGMENT
$pdata$?addScheduler@CCoreList@@QEAAHHH@Z DD imagerel $LN17
	DD	imagerel $LN17+680
	DD	imagerel $unwind$?addScheduler@CCoreList@@QEAAHHH@Z
pdata	ENDS
pdata	SEGMENT
$pdata$?dtor$0@?0??addScheduler@CCoreList@@QEAAHHH@Z@4HA DD imagerel ?dtor$0@?0??addScheduler@CCoreList@@QEAAHHH@Z@4HA
	DD	imagerel ?dtor$0@?0??addScheduler@CCoreList@@QEAAHHH@Z@4HA+42
	DD	imagerel $unwind$?dtor$0@?0??addScheduler@CCoreList@@QEAAHHH@Z@4HA
pdata	ENDS
pdata	SEGMENT
$pdata$?addQueueThread@CCoreList@@QEAAHH@Z DD imagerel $LN17
	DD	imagerel $LN17+641
	DD	imagerel $unwind$?addQueueThread@CCoreList@@QEAAHH@Z
pdata	ENDS
pdata	SEGMENT
$pdata$?dtor$0@?0??addQueueThread@CCoreList@@QEAAHH@Z@4HA DD imagerel ?dtor$0@?0??addQueueThread@CCoreList@@QEAAHH@Z@4HA
	DD	imagerel ?dtor$0@?0??addQueueThread@CCoreList@@QEAAHH@Z@4HA+42
	DD	imagerel $unwind$?dtor$0@?0??addQueueThread@CCoreList@@QEAAHH@Z@4HA
pdata	ENDS
pdata	SEGMENT
$pdata$?initComThread@CCoreList@@QEAA_NPEAD0@Z DD imagerel $LN17
	DD	imagerel $LN17+590
	DD	imagerel $unwind$?initComThread@CCoreList@@QEAA_NPEAD0@Z
pdata	ENDS
pdata	SEGMENT
$pdata$?dtor$0@?0??initComThread@CCoreList@@QEAA_NPEAD0@Z@4HA DD imagerel ?dtor$0@?0??initComThread@CCoreList@@QEAA_NPEAD0@Z@4HA
	DD	imagerel ?dtor$0@?0??initComThread@CCoreList@@QEAA_NPEAD0@Z@4HA+40
	DD	imagerel $unwind$?dtor$0@?0??initComThread@CCoreList@@QEAA_NPEAD0@Z@4HA
$pdata$?dtor$1@?0??initComThread@CCoreList@@QEAA_NPEAD0@Z@4HA DD imagerel ?dtor$1@?0??initComThread@CCoreList@@QEAA_NPEAD0@Z@4HA
	DD	imagerel ?dtor$1@?0??initComThread@CCoreList@@QEAA_NPEAD0@Z@4HA+42
	DD	imagerel $unwind$?dtor$1@?0??initComThread@CCoreList@@QEAA_NPEAD0@Z@4HA
pdata	ENDS
pdata	SEGMENT
$pdata$?initLogWriter@CCoreList@@QEAA_NPEAD0_N@Z DD imagerel $LN20
	DD	imagerel $LN20+837
	DD	imagerel $unwind$?initLogWriter@CCoreList@@QEAA_NPEAD0_N@Z
pdata	ENDS
pdata	SEGMENT
$pdata$?dtor$0@?0??initLogWriter@CCoreList@@QEAA_NPEAD0_N@Z@4HA DD imagerel ?dtor$0@?0??initLogWriter@CCoreList@@QEAA_NPEAD0_N@Z@4HA
	DD	imagerel ?dtor$0@?0??initLogWriter@CCoreList@@QEAA_NPEAD0_N@Z@4HA+43
	DD	imagerel $unwind$?dtor$0@?0??initLogWriter@CCoreList@@QEAA_NPEAD0_N@Z@4HA
$pdata$?dtor$1@?0??initLogWriter@CCoreList@@QEAA_NPEAD0_N@Z@4HA DD imagerel ?dtor$1@?0??initLogWriter@CCoreList@@QEAA_NPEAD0_N@Z@4HA
	DD	imagerel ?dtor$1@?0??initLogWriter@CCoreList@@QEAA_NPEAD0_N@Z@4HA+45
	DD	imagerel $unwind$?dtor$1@?0??initLogWriter@CCoreList@@QEAA_NPEAD0_N@Z@4HA
pdata	ENDS
pdata	SEGMENT
$pdata$?initScheduler@CCoreList@@QEAA_NPEAD0@Z DD imagerel $LN23
	DD	imagerel $LN23+1035
	DD	imagerel $unwind$?initScheduler@CCoreList@@QEAA_NPEAD0@Z
pdata	ENDS
pdata	SEGMENT
$pdata$?dtor$0@?0??initScheduler@CCoreList@@QEAA_NPEAD0@Z@4HA DD imagerel ?dtor$0@?0??initScheduler@CCoreList@@QEAA_NPEAD0@Z@4HA
	DD	imagerel ?dtor$0@?0??initScheduler@CCoreList@@QEAA_NPEAD0@Z@4HA+45
	DD	imagerel $unwind$?dtor$0@?0??initScheduler@CCoreList@@QEAA_NPEAD0@Z@4HA
$pdata$?dtor$1@?0??initScheduler@CCoreList@@QEAA_NPEAD0@Z@4HA DD imagerel ?dtor$1@?0??initScheduler@CCoreList@@QEAA_NPEAD0@Z@4HA
	DD	imagerel ?dtor$1@?0??initScheduler@CCoreList@@QEAA_NPEAD0@Z@4HA+45
	DD	imagerel $unwind$?dtor$1@?0??initScheduler@CCoreList@@QEAA_NPEAD0@Z@4HA
$pdata$?dtor$2@?0??initScheduler@CCoreList@@QEAA_NPEAD0@Z@4HA DD imagerel ?dtor$2@?0??initScheduler@CCoreList@@QEAA_NPEAD0@Z@4HA
	DD	imagerel ?dtor$2@?0??initScheduler@CCoreList@@QEAA_NPEAD0@Z@4HA+45
	DD	imagerel $unwind$?dtor$2@?0??initScheduler@CCoreList@@QEAA_NPEAD0@Z@4HA
pdata	ENDS
pdata	SEGMENT
$pdata$?initQueueThread@CCoreList@@QEAA_NPEAD0@Z DD imagerel $LN21
	DD	imagerel $LN21+820
	DD	imagerel $unwind$?initQueueThread@CCoreList@@QEAA_NPEAD0@Z
pdata	ENDS
pdata	SEGMENT
$pdata$?dtor$0@?0??initQueueThread@CCoreList@@QEAA_NPEAD0@Z@4HA DD imagerel ?dtor$0@?0??initQueueThread@CCoreList@@QEAA_NPEAD0@Z@4HA
	DD	imagerel ?dtor$0@?0??initQueueThread@CCoreList@@QEAA_NPEAD0@Z@4HA+40
	DD	imagerel $unwind$?dtor$0@?0??initQueueThread@CCoreList@@QEAA_NPEAD0@Z@4HA
$pdata$?dtor$1@?0??initQueueThread@CCoreList@@QEAA_NPEAD0@Z@4HA DD imagerel ?dtor$1@?0??initQueueThread@CCoreList@@QEAA_NPEAD0@Z@4HA
	DD	imagerel ?dtor$1@?0??initQueueThread@CCoreList@@QEAA_NPEAD0@Z@4HA+40
	DD	imagerel $unwind$?dtor$1@?0??initQueueThread@CCoreList@@QEAA_NPEAD0@Z@4HA
$pdata$?dtor$2@?0??initQueueThread@CCoreList@@QEAA_NPEAD0@Z@4HA DD imagerel ?dtor$2@?0??initQueueThread@CCoreList@@QEAA_NPEAD0@Z@4HA
	DD	imagerel ?dtor$2@?0??initQueueThread@CCoreList@@QEAA_NPEAD0@Z@4HA+45
	DD	imagerel $unwind$?dtor$2@?0??initQueueThread@CCoreList@@QEAA_NPEAD0@Z@4HA
pdata	ENDS
pdata	SEGMENT
$pdata$?initComThread@CCoreList@@QEAA_NH@Z DD imagerel $LN8
	DD	imagerel $LN8+337
	DD	imagerel $unwind$?initComThread@CCoreList@@QEAA_NH@Z
pdata	ENDS
pdata	SEGMENT
$pdata$?dtor$0@?0??initComThread@CCoreList@@QEAA_NH@Z@4HA DD imagerel ?dtor$0@?0??initComThread@CCoreList@@QEAA_NH@Z@4HA
	DD	imagerel ?dtor$0@?0??initComThread@CCoreList@@QEAA_NH@Z@4HA+45
	DD	imagerel $unwind$?dtor$0@?0??initComThread@CCoreList@@QEAA_NH@Z@4HA
pdata	ENDS
pdata	SEGMENT
$pdata$?initLogWriter@CCoreList@@QEAA_NH@Z DD imagerel $LN8
	DD	imagerel $LN8+334
	DD	imagerel $unwind$?initLogWriter@CCoreList@@QEAA_NH@Z
pdata	ENDS
pdata	SEGMENT
$pdata$?dtor$0@?0??initLogWriter@CCoreList@@QEAA_NH@Z@4HA DD imagerel ?dtor$0@?0??initLogWriter@CCoreList@@QEAA_NH@Z@4HA
	DD	imagerel ?dtor$0@?0??initLogWriter@CCoreList@@QEAA_NH@Z@4HA+45
	DD	imagerel $unwind$?dtor$0@?0??initLogWriter@CCoreList@@QEAA_NH@Z@4HA
pdata	ENDS
pdata	SEGMENT
$pdata$?initScheduler@CCoreList@@QEAA_NHH@Z DD imagerel $LN14
	DD	imagerel $LN14+593
	DD	imagerel $unwind$?initScheduler@CCoreList@@QEAA_NHH@Z
pdata	ENDS
pdata	SEGMENT
$pdata$?dtor$0@?0??initScheduler@CCoreList@@QEAA_NHH@Z@4HA DD imagerel ?dtor$0@?0??initScheduler@CCoreList@@QEAA_NHH@Z@4HA
	DD	imagerel ?dtor$0@?0??initScheduler@CCoreList@@QEAA_NHH@Z@4HA+43
	DD	imagerel $unwind$?dtor$0@?0??initScheduler@CCoreList@@QEAA_NHH@Z@4HA
$pdata$?dtor$1@?0??initScheduler@CCoreList@@QEAA_NHH@Z@4HA DD imagerel ?dtor$1@?0??initScheduler@CCoreList@@QEAA_NHH@Z@4HA
	DD	imagerel ?dtor$1@?0??initScheduler@CCoreList@@QEAA_NHH@Z@4HA+43
	DD	imagerel $unwind$?dtor$1@?0??initScheduler@CCoreList@@QEAA_NHH@Z@4HA
pdata	ENDS
pdata	SEGMENT
$pdata$?initQueueThread@CCoreList@@QEAA_NHH@Z DD imagerel $LN14
	DD	imagerel $LN14+593
	DD	imagerel $unwind$?initQueueThread@CCoreList@@QEAA_NHH@Z
pdata	ENDS
pdata	SEGMENT
$pdata$?dtor$0@?0??initQueueThread@CCoreList@@QEAA_NHH@Z@4HA DD imagerel ?dtor$0@?0??initQueueThread@CCoreList@@QEAA_NHH@Z@4HA
	DD	imagerel ?dtor$0@?0??initQueueThread@CCoreList@@QEAA_NHH@Z@4HA+43
	DD	imagerel $unwind$?dtor$0@?0??initQueueThread@CCoreList@@QEAA_NHH@Z@4HA
$pdata$?dtor$1@?0??initQueueThread@CCoreList@@QEAA_NHH@Z@4HA DD imagerel ?dtor$1@?0??initQueueThread@CCoreList@@QEAA_NHH@Z@4HA
	DD	imagerel ?dtor$1@?0??initQueueThread@CCoreList@@QEAA_NHH@Z@4HA+43
	DD	imagerel $unwind$?dtor$1@?0??initQueueThread@CCoreList@@QEAA_NHH@Z@4HA
pdata	ENDS
pdata	SEGMENT
$pdata$?setListAllocType@CCoreList@@QEAAXW4E_ALLOC_TYPE@@W4E_SYS_LIST_TYPE@@@Z DD imagerel $LN9
	DD	imagerel $LN9+160
	DD	imagerel $unwind$?setListAllocType@CCoreList@@QEAAXW4E_ALLOC_TYPE@@W4E_SYS_LIST_TYPE@@@Z
pdata	ENDS
;	COMDAT pdata
pdata	SEGMENT
$pdata$??0?$CMemPool@USTIntervalInfo@@@@QEAA@XZ DD imagerel $LN4
	DD	imagerel $LN4+119
	DD	imagerel $unwind$??0?$CMemPool@USTIntervalInfo@@@@QEAA@XZ
pdata	ENDS
;	COMDAT pdata
pdata	SEGMENT
$pdata$??1?$CMemPool@USTIntervalInfo@@@@QEAA@XZ DD imagerel $LN11
	DD	imagerel $LN11+239
	DD	imagerel $unwind$??1?$CMemPool@USTIntervalInfo@@@@QEAA@XZ
pdata	ENDS
;	COMDAT pdata
pdata	SEGMENT
$pdata$?clear@?$CMemPool@USTIntervalInfo@@@@QEAAXXZ DD imagerel $LN6
	DD	imagerel $LN6+126
	DD	imagerel $unwind$?clear@?$CMemPool@USTIntervalInfo@@@@QEAAXXZ
pdata	ENDS
;	COMDAT pdata
pdata	SEGMENT
$pdata$?alloc@?$CMemPool@USTIntervalInfo@@@@QEAAHHW4E_ALLOC_TYPE@@@Z DD imagerel $LN15
	DD	imagerel $LN15+632
	DD	imagerel $unwind$?alloc@?$CMemPool@USTIntervalInfo@@@@QEAAHHW4E_ALLOC_TYPE@@@Z
pdata	ENDS
;	COMDAT pdata
pdata	SEGMENT
$pdata$?dtor$0@?0??alloc@?$CMemPool@USTIntervalInfo@@@@QEAAHHW4E_ALLOC_TYPE@@@Z@4HA DD imagerel ?dtor$0@?0??alloc@?$CMemPool@USTIntervalInfo@@@@QEAAHHW4E_ALLOC_TYPE@@@Z@4HA
	DD	imagerel ?dtor$0@?0??alloc@?$CMemPool@USTIntervalInfo@@@@QEAAHHW4E_ALLOC_TYPE@@@Z@4HA+42
	DD	imagerel $unwind$?dtor$0@?0??alloc@?$CMemPool@USTIntervalInfo@@@@QEAAHHW4E_ALLOC_TYPE@@@Z@4HA
pdata	ENDS
;	COMDAT pdata
pdata	SEGMENT
$pdata$?__autoclassinit2@?$CMemPool@USTIntervalInfo@@@@QEAAX_K@Z DD imagerel $LN3
	DD	imagerel $LN3+27
	DD	imagerel $unwind$?__autoclassinit2@?$CMemPool@USTIntervalInfo@@@@QEAAX_K@Z
pdata	ENDS
;	COMDAT pdata
pdata	SEGMENT
$pdata$??_G?$CMemPool@USTIntervalInfo@@@@QEAAPEAXI@Z DD imagerel $LN4
	DD	imagerel $LN4+81
	DD	imagerel $unwind$??_G?$CMemPool@USTIntervalInfo@@@@QEAAPEAXI@Z
pdata	ENDS
;	COMDAT pdata
pdata	SEGMENT
$pdata$??0?$CMemPool@USTEvent@@@@QEAA@XZ DD imagerel $LN4
	DD	imagerel $LN4+119
	DD	imagerel $unwind$??0?$CMemPool@USTEvent@@@@QEAA@XZ
pdata	ENDS
;	COMDAT pdata
pdata	SEGMENT
$pdata$??1?$CMemPool@USTEvent@@@@QEAA@XZ DD imagerel $LN11
	DD	imagerel $LN11+239
	DD	imagerel $unwind$??1?$CMemPool@USTEvent@@@@QEAA@XZ
pdata	ENDS
;	COMDAT pdata
pdata	SEGMENT
$pdata$?clear@?$CMemPool@USTEvent@@@@QEAAXXZ DD imagerel $LN6
	DD	imagerel $LN6+126
	DD	imagerel $unwind$?clear@?$CMemPool@USTEvent@@@@QEAAXXZ
pdata	ENDS
;	COMDAT pdata
pdata	SEGMENT
$pdata$?alloc@?$CMemPool@USTEvent@@@@QEAAHHW4E_ALLOC_TYPE@@@Z DD imagerel $LN15
	DD	imagerel $LN15+632
	DD	imagerel $unwind$?alloc@?$CMemPool@USTEvent@@@@QEAAHHW4E_ALLOC_TYPE@@@Z
pdata	ENDS
;	COMDAT pdata
pdata	SEGMENT
$pdata$?dtor$0@?0??alloc@?$CMemPool@USTEvent@@@@QEAAHHW4E_ALLOC_TYPE@@@Z@4HA DD imagerel ?dtor$0@?0??alloc@?$CMemPool@USTEvent@@@@QEAAHHW4E_ALLOC_TYPE@@@Z@4HA
	DD	imagerel ?dtor$0@?0??alloc@?$CMemPool@USTEvent@@@@QEAAHHW4E_ALLOC_TYPE@@@Z@4HA+42
	DD	imagerel $unwind$?dtor$0@?0??alloc@?$CMemPool@USTEvent@@@@QEAAHHW4E_ALLOC_TYPE@@@Z@4HA
pdata	ENDS
;	COMDAT pdata
pdata	SEGMENT
$pdata$?delMem@?$CMemPool@USTEvent@@@@QEAA_NPEAUSTEvent@@@Z DD imagerel $LN10
	DD	imagerel $LN10+252
	DD	imagerel $unwind$?delMem@?$CMemPool@USTEvent@@@@QEAA_NPEAUSTEvent@@@Z
pdata	ENDS
;	COMDAT pdata
pdata	SEGMENT
$pdata$?__autoclassinit2@?$CMemPool@USTEvent@@@@QEAAX_K@Z DD imagerel $LN3
	DD	imagerel $LN3+27
	DD	imagerel $unwind$?__autoclassinit2@?$CMemPool@USTEvent@@@@QEAAX_K@Z
pdata	ENDS
;	COMDAT pdata
pdata	SEGMENT
$pdata$??_G?$CMemPool@USTEvent@@@@QEAAPEAXI@Z DD imagerel $LN4
	DD	imagerel $LN4+81
	DD	imagerel $unwind$??_G?$CMemPool@USTEvent@@@@QEAAPEAXI@Z
pdata	ENDS
;	COMDAT pdata
pdata	SEGMENT
$pdata$??0?$CTList@VCLogger@@@@QEAA@XZ DD imagerel $LN3
	DD	imagerel $LN3+85
	DD	imagerel $unwind$??0?$CTList@VCLogger@@@@QEAA@XZ
pdata	ENDS
;	COMDAT pdata
pdata	SEGMENT
$pdata$??1?$CTList@VCLogger@@@@QEAA@XZ DD imagerel $LN20
	DD	imagerel $LN20+509
	DD	imagerel $unwind$??1?$CTList@VCLogger@@@@QEAA@XZ
pdata	ENDS
;	COMDAT pdata
pdata	SEGMENT
$pdata$?alloc@?$CTList@VCLogger@@@@QEAAHHW4E_ALLOC_TYPE@@@Z DD imagerel $LN3
	DD	imagerel $LN3+87
	DD	imagerel $unwind$?alloc@?$CTList@VCLogger@@@@QEAAHHW4E_ALLOC_TYPE@@@Z
pdata	ENDS
;	COMDAT pdata
pdata	SEGMENT
$pdata$?push_back@?$CTList@VCLogger@@@@QEAA_NPEAVCLogger@@PEAH@Z DD imagerel $LN15
	DD	imagerel $LN15+366
	DD	imagerel $unwind$?push_back@?$CTList@VCLogger@@@@QEAA_NPEAVCLogger@@PEAH@Z
pdata	ENDS
;	COMDAT pdata
pdata	SEGMENT
$pdata$?IsExist@?$CTList@VCLogger@@@@QEAA_NPEAVCLogger@@@Z DD imagerel $LN8
	DD	imagerel $LN8+121
	DD	imagerel $unwind$?IsExist@?$CTList@VCLogger@@@@QEAA_NPEAVCLogger@@@Z
pdata	ENDS
;	COMDAT pdata
pdata	SEGMENT
$pdata$?del@?$CTList@VCLogger@@@@QEAA_NPEAVCLogger@@@Z DD imagerel $LN7
	DD	imagerel $LN7+154
	DD	imagerel $unwind$?del@?$CTList@VCLogger@@@@QEAA_NPEAVCLogger@@@Z
pdata	ENDS
;	COMDAT pdata
pdata	SEGMENT
$pdata$?getNext@?$CTList@VCLogger@@@@QEAAPEAVCLogger@@PEAH@Z DD imagerel $LN7
	DD	imagerel $LN7+97
	DD	imagerel $unwind$?getNext@?$CTList@VCLogger@@@@QEAAPEAVCLogger@@PEAH@Z
pdata	ENDS
;	COMDAT pdata
pdata	SEGMENT
$pdata$?__alloc@?$CTList@VCLogger@@@@AEAAHH@Z DD imagerel $LN5
	DD	imagerel $LN5+171
	DD	imagerel $unwind$?__alloc@?$CTList@VCLogger@@@@AEAAHH@Z
pdata	ENDS
;	COMDAT pdata
pdata	SEGMENT
$pdata$?_DEL@?$CTList@VCLogger@@@@AEAAXH@Z DD imagerel $LN3
	DD	imagerel $LN3+63
	DD	imagerel $unwind$?_DEL@?$CTList@VCLogger@@@@AEAAXH@Z
pdata	ENDS
;	COMDAT pdata
pdata	SEGMENT
$pdata$?__autoclassinit2@?$CTList@VCLogger@@@@QEAAX_K@Z DD imagerel $LN3
	DD	imagerel $LN3+27
	DD	imagerel $unwind$?__autoclassinit2@?$CTList@VCLogger@@@@QEAAX_K@Z
pdata	ENDS
;	COMDAT pdata
pdata	SEGMENT
$pdata$??_G?$CTList@VCLogger@@@@QEAAPEAXI@Z DD imagerel $LN4
	DD	imagerel $LN4+81
	DD	imagerel $unwind$??_G?$CTList@VCLogger@@@@QEAAPEAXI@Z
pdata	ENDS
;	COMDAT pdata
pdata	SEGMENT
$pdata$??0?$CTList@VCSTLogger@@@@QEAA@XZ DD imagerel $LN3
	DD	imagerel $LN3+85
	DD	imagerel $unwind$??0?$CTList@VCSTLogger@@@@QEAA@XZ
pdata	ENDS
;	COMDAT pdata
pdata	SEGMENT
$pdata$??1?$CTList@VCSTLogger@@@@QEAA@XZ DD imagerel $LN20
	DD	imagerel $LN20+509
	DD	imagerel $unwind$??1?$CTList@VCSTLogger@@@@QEAA@XZ
pdata	ENDS
;	COMDAT pdata
pdata	SEGMENT
$pdata$?alloc@?$CTList@VCSTLogger@@@@QEAAHHW4E_ALLOC_TYPE@@@Z DD imagerel $LN3
	DD	imagerel $LN3+87
	DD	imagerel $unwind$?alloc@?$CTList@VCSTLogger@@@@QEAAHHW4E_ALLOC_TYPE@@@Z
pdata	ENDS
;	COMDAT pdata
pdata	SEGMENT
$pdata$?push_back@?$CTList@VCSTLogger@@@@QEAA_NPEAVCSTLogger@@PEAH@Z DD imagerel $LN15
	DD	imagerel $LN15+366
	DD	imagerel $unwind$?push_back@?$CTList@VCSTLogger@@@@QEAA_NPEAVCSTLogger@@PEAH@Z
pdata	ENDS
;	COMDAT pdata
pdata	SEGMENT
$pdata$?del@?$CTList@VCSTLogger@@@@QEAA_NH@Z DD imagerel $LN4
	DD	imagerel $LN4+117
	DD	imagerel $unwind$?del@?$CTList@VCSTLogger@@@@QEAA_NH@Z
pdata	ENDS
;	COMDAT pdata
pdata	SEGMENT
$pdata$?getObj@?$CTList@VCSTLogger@@@@QEAAPEAVCSTLogger@@H@Z DD imagerel $LN4
	DD	imagerel $LN4+85
	DD	imagerel $unwind$?getObj@?$CTList@VCSTLogger@@@@QEAAPEAVCSTLogger@@H@Z
pdata	ENDS
;	COMDAT pdata
pdata	SEGMENT
$pdata$?getNext@?$CTList@VCSTLogger@@@@QEAAPEAVCSTLogger@@PEAH@Z DD imagerel $LN7
	DD	imagerel $LN7+97
	DD	imagerel $unwind$?getNext@?$CTList@VCSTLogger@@@@QEAAPEAVCSTLogger@@PEAH@Z
pdata	ENDS
;	COMDAT pdata
pdata	SEGMENT
$pdata$?size@?$CTList@VCSTLogger@@@@QEAAHXZ DD imagerel $LN3
	DD	imagerel $LN3+16
	DD	imagerel $unwind$?size@?$CTList@VCSTLogger@@@@QEAAHXZ
pdata	ENDS
;	COMDAT pdata
pdata	SEGMENT
$pdata$?setObjAllocType@?$CTList@VCSTLogger@@@@QEAAXW4E_ALLOC_TYPE@@@Z DD imagerel $LN3
	DD	imagerel $LN3+24
	DD	imagerel $unwind$?setObjAllocType@?$CTList@VCSTLogger@@@@QEAAXW4E_ALLOC_TYPE@@@Z
pdata	ENDS
;	COMDAT pdata
pdata	SEGMENT
$pdata$?__alloc@?$CTList@VCSTLogger@@@@AEAAHH@Z DD imagerel $LN5
	DD	imagerel $LN5+171
	DD	imagerel $unwind$?__alloc@?$CTList@VCSTLogger@@@@AEAAHH@Z
pdata	ENDS
;	COMDAT pdata
pdata	SEGMENT
$pdata$?_DEL@?$CTList@VCSTLogger@@@@AEAAXH@Z DD imagerel $LN3
	DD	imagerel $LN3+63
	DD	imagerel $unwind$?_DEL@?$CTList@VCSTLogger@@@@AEAAXH@Z
pdata	ENDS
;	COMDAT pdata
pdata	SEGMENT
$pdata$?__autoclassinit2@?$CTList@VCSTLogger@@@@QEAAX_K@Z DD imagerel $LN3
	DD	imagerel $LN3+27
	DD	imagerel $unwind$?__autoclassinit2@?$CTList@VCSTLogger@@@@QEAAX_K@Z
pdata	ENDS
;	COMDAT pdata
pdata	SEGMENT
$pdata$??_G?$CTList@VCSTLogger@@@@QEAAPEAXI@Z DD imagerel $LN4
	DD	imagerel $LN4+81
	DD	imagerel $unwind$??_G?$CTList@VCSTLogger@@@@QEAAPEAXI@Z
pdata	ENDS
;	COMDAT pdata
pdata	SEGMENT
$pdata$??0?$CTList@VCScheduler@@@@QEAA@XZ DD imagerel $LN3
	DD	imagerel $LN3+85
	DD	imagerel $unwind$??0?$CTList@VCScheduler@@@@QEAA@XZ
pdata	ENDS
;	COMDAT pdata
pdata	SEGMENT
$pdata$??1?$CTList@VCScheduler@@@@QEAA@XZ DD imagerel $LN20
	DD	imagerel $LN20+509
	DD	imagerel $unwind$??1?$CTList@VCScheduler@@@@QEAA@XZ
pdata	ENDS
;	COMDAT pdata
pdata	SEGMENT
$pdata$?alloc@?$CTList@VCScheduler@@@@QEAAHHW4E_ALLOC_TYPE@@@Z DD imagerel $LN3
	DD	imagerel $LN3+87
	DD	imagerel $unwind$?alloc@?$CTList@VCScheduler@@@@QEAAHHW4E_ALLOC_TYPE@@@Z
pdata	ENDS
;	COMDAT pdata
pdata	SEGMENT
$pdata$?push_back@?$CTList@VCScheduler@@@@QEAA_NPEAVCScheduler@@PEAH@Z DD imagerel $LN15
	DD	imagerel $LN15+366
	DD	imagerel $unwind$?push_back@?$CTList@VCScheduler@@@@QEAA_NPEAVCScheduler@@PEAH@Z
pdata	ENDS
;	COMDAT pdata
pdata	SEGMENT
$pdata$?del@?$CTList@VCScheduler@@@@QEAA_NH@Z DD imagerel $LN4
	DD	imagerel $LN4+117
	DD	imagerel $unwind$?del@?$CTList@VCScheduler@@@@QEAA_NH@Z
pdata	ENDS
;	COMDAT pdata
pdata	SEGMENT
$pdata$?getObj@?$CTList@VCScheduler@@@@QEAAPEAVCScheduler@@H@Z DD imagerel $LN4
	DD	imagerel $LN4+85
	DD	imagerel $unwind$?getObj@?$CTList@VCScheduler@@@@QEAAPEAVCScheduler@@H@Z
pdata	ENDS
;	COMDAT pdata
pdata	SEGMENT
$pdata$?getNext@?$CTList@VCScheduler@@@@QEAAPEAVCScheduler@@PEAH@Z DD imagerel $LN7
	DD	imagerel $LN7+97
	DD	imagerel $unwind$?getNext@?$CTList@VCScheduler@@@@QEAAPEAVCScheduler@@PEAH@Z
pdata	ENDS
;	COMDAT pdata
pdata	SEGMENT
$pdata$?size@?$CTList@VCScheduler@@@@QEAAHXZ DD imagerel $LN3
	DD	imagerel $LN3+16
	DD	imagerel $unwind$?size@?$CTList@VCScheduler@@@@QEAAHXZ
pdata	ENDS
;	COMDAT pdata
pdata	SEGMENT
$pdata$?setObjAllocType@?$CTList@VCScheduler@@@@QEAAXW4E_ALLOC_TYPE@@@Z DD imagerel $LN3
	DD	imagerel $LN3+24
	DD	imagerel $unwind$?setObjAllocType@?$CTList@VCScheduler@@@@QEAAXW4E_ALLOC_TYPE@@@Z
pdata	ENDS
;	COMDAT pdata
pdata	SEGMENT
$pdata$?__alloc@?$CTList@VCScheduler@@@@AEAAHH@Z DD imagerel $LN5
	DD	imagerel $LN5+171
	DD	imagerel $unwind$?__alloc@?$CTList@VCScheduler@@@@AEAAHH@Z
pdata	ENDS
;	COMDAT pdata
pdata	SEGMENT
$pdata$?_DEL@?$CTList@VCScheduler@@@@AEAAXH@Z DD imagerel $LN3
	DD	imagerel $LN3+63
	DD	imagerel $unwind$?_DEL@?$CTList@VCScheduler@@@@AEAAXH@Z
pdata	ENDS
;	COMDAT pdata
pdata	SEGMENT
$pdata$?__autoclassinit2@?$CTList@VCScheduler@@@@QEAAX_K@Z DD imagerel $LN3
	DD	imagerel $LN3+27
	DD	imagerel $unwind$?__autoclassinit2@?$CTList@VCScheduler@@@@QEAAX_K@Z
pdata	ENDS
;	COMDAT pdata
pdata	SEGMENT
$pdata$??_G?$CTList@VCScheduler@@@@QEAAPEAXI@Z DD imagerel $LN4
	DD	imagerel $LN4+81
	DD	imagerel $unwind$??_G?$CTList@VCScheduler@@@@QEAAPEAXI@Z
pdata	ENDS
;	COMDAT pdata
pdata	SEGMENT
$pdata$??0?$CTList@VCComThread@@@@QEAA@XZ DD imagerel $LN3
	DD	imagerel $LN3+85
	DD	imagerel $unwind$??0?$CTList@VCComThread@@@@QEAA@XZ
pdata	ENDS
;	COMDAT pdata
pdata	SEGMENT
$pdata$??1?$CTList@VCComThread@@@@QEAA@XZ DD imagerel $LN20
	DD	imagerel $LN20+509
	DD	imagerel $unwind$??1?$CTList@VCComThread@@@@QEAA@XZ
pdata	ENDS
;	COMDAT pdata
pdata	SEGMENT
$pdata$?alloc@?$CTList@VCComThread@@@@QEAAHHW4E_ALLOC_TYPE@@@Z DD imagerel $LN3
	DD	imagerel $LN3+87
	DD	imagerel $unwind$?alloc@?$CTList@VCComThread@@@@QEAAHHW4E_ALLOC_TYPE@@@Z
pdata	ENDS
;	COMDAT pdata
pdata	SEGMENT
$pdata$?push_back@?$CTList@VCComThread@@@@QEAA_NPEAVCComThread@@PEAH@Z DD imagerel $LN15
	DD	imagerel $LN15+366
	DD	imagerel $unwind$?push_back@?$CTList@VCComThread@@@@QEAA_NPEAVCComThread@@PEAH@Z
pdata	ENDS
;	COMDAT pdata
pdata	SEGMENT
$pdata$?del@?$CTList@VCComThread@@@@QEAA_NH@Z DD imagerel $LN4
	DD	imagerel $LN4+117
	DD	imagerel $unwind$?del@?$CTList@VCComThread@@@@QEAA_NH@Z
pdata	ENDS
;	COMDAT pdata
pdata	SEGMENT
$pdata$?getObj@?$CTList@VCComThread@@@@QEAAPEAVCComThread@@H@Z DD imagerel $LN4
	DD	imagerel $LN4+85
	DD	imagerel $unwind$?getObj@?$CTList@VCComThread@@@@QEAAPEAVCComThread@@H@Z
pdata	ENDS
;	COMDAT pdata
pdata	SEGMENT
$pdata$?getNext@?$CTList@VCComThread@@@@QEAAPEAVCComThread@@PEAH@Z DD imagerel $LN7
	DD	imagerel $LN7+97
	DD	imagerel $unwind$?getNext@?$CTList@VCComThread@@@@QEAAPEAVCComThread@@PEAH@Z
pdata	ENDS
;	COMDAT pdata
pdata	SEGMENT
$pdata$?size@?$CTList@VCComThread@@@@QEAAHXZ DD imagerel $LN3
	DD	imagerel $LN3+16
	DD	imagerel $unwind$?size@?$CTList@VCComThread@@@@QEAAHXZ
pdata	ENDS
;	COMDAT pdata
pdata	SEGMENT
$pdata$?lastIdx@?$CTList@VCComThread@@@@QEAAHXZ DD imagerel $LN3
	DD	imagerel $LN3+16
	DD	imagerel $unwind$?lastIdx@?$CTList@VCComThread@@@@QEAAHXZ
pdata	ENDS
;	COMDAT pdata
pdata	SEGMENT
$pdata$?setObjAllocType@?$CTList@VCComThread@@@@QEAAXW4E_ALLOC_TYPE@@@Z DD imagerel $LN3
	DD	imagerel $LN3+24
	DD	imagerel $unwind$?setObjAllocType@?$CTList@VCComThread@@@@QEAAXW4E_ALLOC_TYPE@@@Z
pdata	ENDS
;	COMDAT pdata
pdata	SEGMENT
$pdata$?__alloc@?$CTList@VCComThread@@@@AEAAHH@Z DD imagerel $LN5
	DD	imagerel $LN5+171
	DD	imagerel $unwind$?__alloc@?$CTList@VCComThread@@@@AEAAHH@Z
pdata	ENDS
;	COMDAT pdata
pdata	SEGMENT
$pdata$?_DEL@?$CTList@VCComThread@@@@AEAAXH@Z DD imagerel $LN3
	DD	imagerel $LN3+63
	DD	imagerel $unwind$?_DEL@?$CTList@VCComThread@@@@AEAAXH@Z
pdata	ENDS
;	COMDAT pdata
pdata	SEGMENT
$pdata$?__autoclassinit2@?$CTList@VCComThread@@@@QEAAX_K@Z DD imagerel $LN3
	DD	imagerel $LN3+27
	DD	imagerel $unwind$?__autoclassinit2@?$CTList@VCComThread@@@@QEAAX_K@Z
pdata	ENDS
;	COMDAT pdata
pdata	SEGMENT
$pdata$??_G?$CTList@VCComThread@@@@QEAAPEAXI@Z DD imagerel $LN4
	DD	imagerel $LN4+81
	DD	imagerel $unwind$??_G?$CTList@VCComThread@@@@QEAAPEAXI@Z
pdata	ENDS
;	COMDAT pdata
pdata	SEGMENT
$pdata$??0?$CTList@VCComQueueThread@@@@QEAA@XZ DD imagerel $LN3
	DD	imagerel $LN3+85
	DD	imagerel $unwind$??0?$CTList@VCComQueueThread@@@@QEAA@XZ
pdata	ENDS
;	COMDAT pdata
pdata	SEGMENT
$pdata$??1?$CTList@VCComQueueThread@@@@QEAA@XZ DD imagerel $LN20
	DD	imagerel $LN20+509
	DD	imagerel $unwind$??1?$CTList@VCComQueueThread@@@@QEAA@XZ
pdata	ENDS
;	COMDAT pdata
pdata	SEGMENT
$pdata$?alloc@?$CTList@VCComQueueThread@@@@QEAAHHW4E_ALLOC_TYPE@@@Z DD imagerel $LN3
	DD	imagerel $LN3+87
	DD	imagerel $unwind$?alloc@?$CTList@VCComQueueThread@@@@QEAAHHW4E_ALLOC_TYPE@@@Z
pdata	ENDS
;	COMDAT pdata
pdata	SEGMENT
$pdata$?push_back@?$CTList@VCComQueueThread@@@@QEAA_NPEAVCComQueueThread@@PEAH@Z DD imagerel $LN15
	DD	imagerel $LN15+366
	DD	imagerel $unwind$?push_back@?$CTList@VCComQueueThread@@@@QEAA_NPEAVCComQueueThread@@PEAH@Z
pdata	ENDS
;	COMDAT pdata
pdata	SEGMENT
$pdata$?del@?$CTList@VCComQueueThread@@@@QEAA_NH@Z DD imagerel $LN4
	DD	imagerel $LN4+117
	DD	imagerel $unwind$?del@?$CTList@VCComQueueThread@@@@QEAA_NH@Z
pdata	ENDS
;	COMDAT pdata
pdata	SEGMENT
$pdata$?getObj@?$CTList@VCComQueueThread@@@@QEAAPEAVCComQueueThread@@H@Z DD imagerel $LN4
	DD	imagerel $LN4+85
	DD	imagerel $unwind$?getObj@?$CTList@VCComQueueThread@@@@QEAAPEAVCComQueueThread@@H@Z
pdata	ENDS
;	COMDAT pdata
pdata	SEGMENT
$pdata$?getNext@?$CTList@VCComQueueThread@@@@QEAAPEAVCComQueueThread@@PEAH@Z DD imagerel $LN7
	DD	imagerel $LN7+97
	DD	imagerel $unwind$?getNext@?$CTList@VCComQueueThread@@@@QEAAPEAVCComQueueThread@@PEAH@Z
pdata	ENDS
;	COMDAT pdata
pdata	SEGMENT
$pdata$?size@?$CTList@VCComQueueThread@@@@QEAAHXZ DD imagerel $LN3
	DD	imagerel $LN3+16
	DD	imagerel $unwind$?size@?$CTList@VCComQueueThread@@@@QEAAHXZ
pdata	ENDS
;	COMDAT pdata
pdata	SEGMENT
$pdata$?setObjAllocType@?$CTList@VCComQueueThread@@@@QEAAXW4E_ALLOC_TYPE@@@Z DD imagerel $LN3
	DD	imagerel $LN3+24
	DD	imagerel $unwind$?setObjAllocType@?$CTList@VCComQueueThread@@@@QEAAXW4E_ALLOC_TYPE@@@Z
pdata	ENDS
;	COMDAT pdata
pdata	SEGMENT
$pdata$?__alloc@?$CTList@VCComQueueThread@@@@AEAAHH@Z DD imagerel $LN5
	DD	imagerel $LN5+171
	DD	imagerel $unwind$?__alloc@?$CTList@VCComQueueThread@@@@AEAAHH@Z
pdata	ENDS
;	COMDAT pdata
pdata	SEGMENT
$pdata$?_DEL@?$CTList@VCComQueueThread@@@@AEAAXH@Z DD imagerel $LN3
	DD	imagerel $LN3+63
	DD	imagerel $unwind$?_DEL@?$CTList@VCComQueueThread@@@@AEAAXH@Z
pdata	ENDS
;	COMDAT pdata
pdata	SEGMENT
$pdata$?__autoclassinit2@?$CTList@VCComQueueThread@@@@QEAAX_K@Z DD imagerel $LN3
	DD	imagerel $LN3+27
	DD	imagerel $unwind$?__autoclassinit2@?$CTList@VCComQueueThread@@@@QEAAX_K@Z
pdata	ENDS
;	COMDAT pdata
pdata	SEGMENT
$pdata$??_G?$CTList@VCComQueueThread@@@@QEAAPEAXI@Z DD imagerel $LN4
	DD	imagerel $LN4+81
	DD	imagerel $unwind$??_G?$CTList@VCComQueueThread@@@@QEAAPEAXI@Z
pdata	ENDS
;	COMDAT rtc$TMZ
rtc$TMZ	SEGMENT
_RTC_Shutdown.rtc$TMZ DQ FLAT:_RTC_Shutdown
rtc$TMZ	ENDS
;	COMDAT rtc$IMZ
rtc$IMZ	SEGMENT
_RTC_InitBase.rtc$IMZ DQ FLAT:_RTC_InitBase
rtc$IMZ	ENDS
;	COMDAT ??_R1A@?0A@EA@condition@win32@common@@8
rdata$r	SEGMENT
??_R1A@?0A@EA@condition@win32@common@@8 DD imagerel ??_R0?AVcondition@win32@common@@@8 ; common::win32::condition::`RTTI Base Class Descriptor at (0,-1,0,64)'
	DD	01H
	DD	00H
	DD	0ffffffffH
	DD	00H
	DD	040H
	DD	imagerel ??_R3condition@win32@common@@8
rdata$r	ENDS
;	COMDAT ??_R2condition@win32@common@@8
rdata$r	SEGMENT
??_R2condition@win32@common@@8 DD imagerel ??_R1A@?0A@EA@condition@win32@common@@8 ; common::win32::condition::`RTTI Base Class Array'
	DD	imagerel ??_R1A@?0A@EA@abstract_condition@common@@8
	ORG $+3
rdata$r	ENDS
;	COMDAT ??_R3condition@win32@common@@8
rdata$r	SEGMENT
??_R3condition@win32@common@@8 DD 00H			; common::win32::condition::`RTTI Class Hierarchy Descriptor'
	DD	00H
	DD	02H
	DD	imagerel ??_R2condition@win32@common@@8
rdata$r	ENDS
;	COMDAT ??_R0?AVcondition@win32@common@@@8
data$r	SEGMENT
??_R0?AVcondition@win32@common@@@8 DQ FLAT:??_7type_info@@6B@ ; common::win32::condition `RTTI Type Descriptor'
	DQ	0000000000000000H
	DB	'.?AVcondition@win32@common@@', 00H
data$r	ENDS
;	COMDAT ??_R4condition@win32@common@@6B@
rdata$r	SEGMENT
??_R4condition@win32@common@@6B@ DD 01H			; common::win32::condition::`RTTI Complete Object Locator'
	DD	00H
	DD	00H
	DD	imagerel ??_R0?AVcondition@win32@common@@@8
	DD	imagerel ??_R3condition@win32@common@@8
	DD	imagerel ??_R4condition@win32@common@@6B@
rdata$r	ENDS
;	COMDAT ??_R1A@?0A@EA@abstract_condition@common@@8
rdata$r	SEGMENT
??_R1A@?0A@EA@abstract_condition@common@@8 DD imagerel ??_R0?AVabstract_condition@common@@@8 ; common::abstract_condition::`RTTI Base Class Descriptor at (0,-1,0,64)'
	DD	00H
	DD	00H
	DD	0ffffffffH
	DD	00H
	DD	040H
	DD	imagerel ??_R3abstract_condition@common@@8
rdata$r	ENDS
;	COMDAT ??_R2abstract_condition@common@@8
rdata$r	SEGMENT
??_R2abstract_condition@common@@8 DD imagerel ??_R1A@?0A@EA@abstract_condition@common@@8 ; common::abstract_condition::`RTTI Base Class Array'
	ORG $+3
rdata$r	ENDS
;	COMDAT ??_R3abstract_condition@common@@8
rdata$r	SEGMENT
??_R3abstract_condition@common@@8 DD 00H		; common::abstract_condition::`RTTI Class Hierarchy Descriptor'
	DD	00H
	DD	01H
	DD	imagerel ??_R2abstract_condition@common@@8
rdata$r	ENDS
;	COMDAT ??_R0?AVabstract_condition@common@@@8
data$r	SEGMENT
??_R0?AVabstract_condition@common@@@8 DQ FLAT:??_7type_info@@6B@ ; common::abstract_condition `RTTI Type Descriptor'
	DQ	0000000000000000H
	DB	'.?AVabstract_condition@common@@', 00H
data$r	ENDS
;	COMDAT ??_R4abstract_condition@common@@6B@
rdata$r	SEGMENT
??_R4abstract_condition@common@@6B@ DD 01H		; common::abstract_condition::`RTTI Complete Object Locator'
	DD	00H
	DD	00H
	DD	imagerel ??_R0?AVabstract_condition@common@@@8
	DD	imagerel ??_R3abstract_condition@common@@8
	DD	imagerel ??_R4abstract_condition@common@@6B@
rdata$r	ENDS
;	COMDAT ??_C@_0BD@KEHDJCKJ@ERROR?$CB?5?$FL?$CFs?3?$CFd?$FN?5?$CFs?6?$AA@
CONST	SEGMENT
??_C@_0BD@KEHDJCKJ@ERROR?$CB?5?$FL?$CFs?3?$CFd?$FN?5?$CFs?6?$AA@ DB 'ERRO'
	DB	'R! [%s:%d] %s', 0aH, 00H			; `string'
CONST	ENDS
;	COMDAT ??_7condition@win32@common@@6B@
CONST	SEGMENT
??_7condition@win32@common@@6B@ DQ FLAT:??_R4condition@win32@common@@6B@ ; common::win32::condition::`vftable'
	DQ	FLAT:??_Econdition@win32@common@@UEAAPEAXI@Z
	DQ	FLAT:?signal@condition@win32@common@@UEAAXXZ
	DQ	FLAT:?signal_all@condition@win32@common@@UEAAXXZ
CONST	ENDS
;	COMDAT ??_7abstract_condition@common@@6B@
CONST	SEGMENT
??_7abstract_condition@common@@6B@ DQ FLAT:??_R4abstract_condition@common@@6B@ ; common::abstract_condition::`vftable'
	DQ	FLAT:??_Eabstract_condition@common@@UEAAPEAXI@Z
	DQ	FLAT:_purecall
	DQ	FLAT:_purecall
CONST	ENDS
;	COMDAT xdata
xdata	SEGMENT
$unwind$??_G?$CTList@VCComQueueThread@@@@QEAAPEAXI@Z DD 022201H
	DD	0700a320eH
xdata	ENDS
;	COMDAT xdata
xdata	SEGMENT
$unwind$?__autoclassinit2@?$CTList@VCComQueueThread@@@@QEAAX_K@Z DD 010b01H
	DD	0700bH
xdata	ENDS
;	COMDAT xdata
xdata	SEGMENT
$unwind$?_DEL@?$CTList@VCComQueueThread@@@@AEAAXH@Z DD 010a01H
	DD	0700aH
xdata	ENDS
;	COMDAT xdata
xdata	SEGMENT
$unwind$?__alloc@?$CTList@VCComQueueThread@@@@AEAAHH@Z DD 022201H
	DD	0700a520eH
xdata	ENDS
;	COMDAT xdata
xdata	SEGMENT
$unwind$?setObjAllocType@?$CTList@VCComQueueThread@@@@QEAAXW4E_ALLOC_TYPE@@@Z DD 010a01H
	DD	0700aH
xdata	ENDS
;	COMDAT xdata
xdata	SEGMENT
$unwind$?size@?$CTList@VCComQueueThread@@@@QEAAHXZ DD 010601H
	DD	07006H
xdata	ENDS
;	COMDAT xdata
xdata	SEGMENT
$unwind$?getNext@?$CTList@VCComQueueThread@@@@QEAAPEAVCComQueueThread@@PEAH@Z DD 010b01H
	DD	0700bH
xdata	ENDS
;	COMDAT xdata
xdata	SEGMENT
$unwind$?getObj@?$CTList@VCComQueueThread@@@@QEAAPEAVCComQueueThread@@H@Z DD 022201H
	DD	0700a320eH
xdata	ENDS
;	COMDAT xdata
xdata	SEGMENT
$unwind$?del@?$CTList@VCComQueueThread@@@@QEAA_NH@Z DD 022201H
	DD	0700a320eH
xdata	ENDS
;	COMDAT xdata
xdata	SEGMENT
$unwind$?push_back@?$CTList@VCComQueueThread@@@@QEAA_NPEAVCComQueueThread@@PEAH@Z DD 022801H
	DD	070105214H
xdata	ENDS
;	COMDAT xdata
xdata	SEGMENT
$unwind$?alloc@?$CTList@VCComQueueThread@@@@QEAAHHW4E_ALLOC_TYPE@@@Z DD 022701H
	DD	0700f3213H
xdata	ENDS
;	COMDAT xdata
xdata	SEGMENT
$ip2state$??1?$CTList@VCComQueueThread@@@@QEAA@XZ DD imagerel ??1?$CTList@VCComQueueThread@@@@QEAA@XZ
	DD	0ffffffffH
xdata	ENDS
;	COMDAT xdata
xdata	SEGMENT
$unwind$??1?$CTList@VCComQueueThread@@@@QEAA@XZ DD 033f19H
	DD	012010dH
	DD	07006H
	DD	imagerel __GSHandlerCheck_EH
	DD	imagerel $cppxdata$??1?$CTList@VCComQueueThread@@@@QEAA@XZ
	DD	08bH
xdata	ENDS
;	COMDAT CONST
CONST	SEGMENT
??1?$CTList@VCComQueueThread@@@@QEAA@XZ$rtcName$0 DB 069H ; CTList<CComQueueThread>::~CTList<CComQueueThread>
	DB	064H
	DB	078H
	DB	00H
	ORG $+12
??1?$CTList@VCComQueueThread@@@@QEAA@XZ$rtcVarDesc DD 024H ; CTList<CComQueueThread>::~CTList<CComQueueThread>
	DD	04H
	DQ	FLAT:??1?$CTList@VCComQueueThread@@@@QEAA@XZ$rtcName$0
	ORG $+48
??1?$CTList@VCComQueueThread@@@@QEAA@XZ$rtcFrameData DD 01H ; CTList<CComQueueThread>::~CTList<CComQueueThread>
	DD	00H
	DQ	FLAT:??1?$CTList@VCComQueueThread@@@@QEAA@XZ$rtcVarDesc
$cppxdata$??1?$CTList@VCComQueueThread@@@@QEAA@XZ DD 019930522H
	DD	00H
	DD	00H
	DD	00H
	DD	00H
	DD	01H
	DD	imagerel $ip2state$??1?$CTList@VCComQueueThread@@@@QEAA@XZ
	DD	068H
	DD	00H
	DD	05H
CONST	ENDS
;	COMDAT xdata
xdata	SEGMENT
$unwind$??0?$CTList@VCComQueueThread@@@@QEAA@XZ DD 010601H
	DD	07006H
xdata	ENDS
;	COMDAT xdata
xdata	SEGMENT
$unwind$??_G?$CTList@VCComThread@@@@QEAAPEAXI@Z DD 022201H
	DD	0700a320eH
xdata	ENDS
;	COMDAT xdata
xdata	SEGMENT
$unwind$?__autoclassinit2@?$CTList@VCComThread@@@@QEAAX_K@Z DD 010b01H
	DD	0700bH
xdata	ENDS
;	COMDAT xdata
xdata	SEGMENT
$unwind$?_DEL@?$CTList@VCComThread@@@@AEAAXH@Z DD 010a01H
	DD	0700aH
xdata	ENDS
;	COMDAT xdata
xdata	SEGMENT
$unwind$?__alloc@?$CTList@VCComThread@@@@AEAAHH@Z DD 022201H
	DD	0700a520eH
xdata	ENDS
;	COMDAT xdata
xdata	SEGMENT
$unwind$?setObjAllocType@?$CTList@VCComThread@@@@QEAAXW4E_ALLOC_TYPE@@@Z DD 010a01H
	DD	0700aH
xdata	ENDS
;	COMDAT xdata
xdata	SEGMENT
$unwind$?lastIdx@?$CTList@VCComThread@@@@QEAAHXZ DD 010601H
	DD	07006H
xdata	ENDS
;	COMDAT xdata
xdata	SEGMENT
$unwind$?size@?$CTList@VCComThread@@@@QEAAHXZ DD 010601H
	DD	07006H
xdata	ENDS
;	COMDAT xdata
xdata	SEGMENT
$unwind$?getNext@?$CTList@VCComThread@@@@QEAAPEAVCComThread@@PEAH@Z DD 010b01H
	DD	0700bH
xdata	ENDS
;	COMDAT xdata
xdata	SEGMENT
$unwind$?getObj@?$CTList@VCComThread@@@@QEAAPEAVCComThread@@H@Z DD 022201H
	DD	0700a320eH
xdata	ENDS
;	COMDAT xdata
xdata	SEGMENT
$unwind$?del@?$CTList@VCComThread@@@@QEAA_NH@Z DD 022201H
	DD	0700a320eH
xdata	ENDS
;	COMDAT xdata
xdata	SEGMENT
$unwind$?push_back@?$CTList@VCComThread@@@@QEAA_NPEAVCComThread@@PEAH@Z DD 022801H
	DD	070105214H
xdata	ENDS
;	COMDAT xdata
xdata	SEGMENT
$unwind$?alloc@?$CTList@VCComThread@@@@QEAAHHW4E_ALLOC_TYPE@@@Z DD 022701H
	DD	0700f3213H
xdata	ENDS
;	COMDAT xdata
xdata	SEGMENT
$ip2state$??1?$CTList@VCComThread@@@@QEAA@XZ DD imagerel ??1?$CTList@VCComThread@@@@QEAA@XZ
	DD	0ffffffffH
xdata	ENDS
;	COMDAT xdata
xdata	SEGMENT
$unwind$??1?$CTList@VCComThread@@@@QEAA@XZ DD 033f19H
	DD	012010dH
	DD	07006H
	DD	imagerel __GSHandlerCheck_EH
	DD	imagerel $cppxdata$??1?$CTList@VCComThread@@@@QEAA@XZ
	DD	08bH
xdata	ENDS
;	COMDAT CONST
CONST	SEGMENT
??1?$CTList@VCComThread@@@@QEAA@XZ$rtcName$0 DB 069H	; CTList<CComThread>::~CTList<CComThread>
	DB	064H
	DB	078H
	DB	00H
	ORG $+12
??1?$CTList@VCComThread@@@@QEAA@XZ$rtcVarDesc DD 024H	; CTList<CComThread>::~CTList<CComThread>
	DD	04H
	DQ	FLAT:??1?$CTList@VCComThread@@@@QEAA@XZ$rtcName$0
	ORG $+48
??1?$CTList@VCComThread@@@@QEAA@XZ$rtcFrameData DD 01H	; CTList<CComThread>::~CTList<CComThread>
	DD	00H
	DQ	FLAT:??1?$CTList@VCComThread@@@@QEAA@XZ$rtcVarDesc
$cppxdata$??1?$CTList@VCComThread@@@@QEAA@XZ DD 019930522H
	DD	00H
	DD	00H
	DD	00H
	DD	00H
	DD	01H
	DD	imagerel $ip2state$??1?$CTList@VCComThread@@@@QEAA@XZ
	DD	068H
	DD	00H
	DD	05H
CONST	ENDS
;	COMDAT xdata
xdata	SEGMENT
$unwind$??0?$CTList@VCComThread@@@@QEAA@XZ DD 010601H
	DD	07006H
xdata	ENDS
;	COMDAT xdata
xdata	SEGMENT
$unwind$??_G?$CTList@VCScheduler@@@@QEAAPEAXI@Z DD 022201H
	DD	0700a320eH
xdata	ENDS
;	COMDAT xdata
xdata	SEGMENT
$unwind$?__autoclassinit2@?$CTList@VCScheduler@@@@QEAAX_K@Z DD 010b01H
	DD	0700bH
xdata	ENDS
;	COMDAT xdata
xdata	SEGMENT
$unwind$?_DEL@?$CTList@VCScheduler@@@@AEAAXH@Z DD 010a01H
	DD	0700aH
xdata	ENDS
;	COMDAT xdata
xdata	SEGMENT
$unwind$?__alloc@?$CTList@VCScheduler@@@@AEAAHH@Z DD 022201H
	DD	0700a520eH
xdata	ENDS
;	COMDAT xdata
xdata	SEGMENT
$unwind$?setObjAllocType@?$CTList@VCScheduler@@@@QEAAXW4E_ALLOC_TYPE@@@Z DD 010a01H
	DD	0700aH
xdata	ENDS
;	COMDAT xdata
xdata	SEGMENT
$unwind$?size@?$CTList@VCScheduler@@@@QEAAHXZ DD 010601H
	DD	07006H
xdata	ENDS
;	COMDAT xdata
xdata	SEGMENT
$unwind$?getNext@?$CTList@VCScheduler@@@@QEAAPEAVCScheduler@@PEAH@Z DD 010b01H
	DD	0700bH
xdata	ENDS
;	COMDAT xdata
xdata	SEGMENT
$unwind$?getObj@?$CTList@VCScheduler@@@@QEAAPEAVCScheduler@@H@Z DD 022201H
	DD	0700a320eH
xdata	ENDS
;	COMDAT xdata
xdata	SEGMENT
$unwind$?del@?$CTList@VCScheduler@@@@QEAA_NH@Z DD 022201H
	DD	0700a320eH
xdata	ENDS
;	COMDAT xdata
xdata	SEGMENT
$unwind$?push_back@?$CTList@VCScheduler@@@@QEAA_NPEAVCScheduler@@PEAH@Z DD 022801H
	DD	070105214H
xdata	ENDS
;	COMDAT xdata
xdata	SEGMENT
$unwind$?alloc@?$CTList@VCScheduler@@@@QEAAHHW4E_ALLOC_TYPE@@@Z DD 022701H
	DD	0700f3213H
xdata	ENDS
;	COMDAT xdata
xdata	SEGMENT
$ip2state$??1?$CTList@VCScheduler@@@@QEAA@XZ DD imagerel ??1?$CTList@VCScheduler@@@@QEAA@XZ
	DD	0ffffffffH
xdata	ENDS
;	COMDAT xdata
xdata	SEGMENT
$unwind$??1?$CTList@VCScheduler@@@@QEAA@XZ DD 033f19H
	DD	012010dH
	DD	07006H
	DD	imagerel __GSHandlerCheck_EH
	DD	imagerel $cppxdata$??1?$CTList@VCScheduler@@@@QEAA@XZ
	DD	08bH
xdata	ENDS
;	COMDAT CONST
CONST	SEGMENT
??1?$CTList@VCScheduler@@@@QEAA@XZ$rtcName$0 DB 069H	; CTList<CScheduler>::~CTList<CScheduler>
	DB	064H
	DB	078H
	DB	00H
	ORG $+12
??1?$CTList@VCScheduler@@@@QEAA@XZ$rtcVarDesc DD 024H	; CTList<CScheduler>::~CTList<CScheduler>
	DD	04H
	DQ	FLAT:??1?$CTList@VCScheduler@@@@QEAA@XZ$rtcName$0
	ORG $+48
??1?$CTList@VCScheduler@@@@QEAA@XZ$rtcFrameData DD 01H	; CTList<CScheduler>::~CTList<CScheduler>
	DD	00H
	DQ	FLAT:??1?$CTList@VCScheduler@@@@QEAA@XZ$rtcVarDesc
$cppxdata$??1?$CTList@VCScheduler@@@@QEAA@XZ DD 019930522H
	DD	00H
	DD	00H
	DD	00H
	DD	00H
	DD	01H
	DD	imagerel $ip2state$??1?$CTList@VCScheduler@@@@QEAA@XZ
	DD	068H
	DD	00H
	DD	05H
CONST	ENDS
;	COMDAT xdata
xdata	SEGMENT
$unwind$??0?$CTList@VCScheduler@@@@QEAA@XZ DD 010601H
	DD	07006H
xdata	ENDS
;	COMDAT xdata
xdata	SEGMENT
$unwind$??_G?$CTList@VCSTLogger@@@@QEAAPEAXI@Z DD 022201H
	DD	0700a320eH
xdata	ENDS
;	COMDAT xdata
xdata	SEGMENT
$unwind$?__autoclassinit2@?$CTList@VCSTLogger@@@@QEAAX_K@Z DD 010b01H
	DD	0700bH
xdata	ENDS
;	COMDAT xdata
xdata	SEGMENT
$unwind$?_DEL@?$CTList@VCSTLogger@@@@AEAAXH@Z DD 010a01H
	DD	0700aH
xdata	ENDS
;	COMDAT xdata
xdata	SEGMENT
$unwind$?__alloc@?$CTList@VCSTLogger@@@@AEAAHH@Z DD 022201H
	DD	0700a520eH
xdata	ENDS
;	COMDAT xdata
xdata	SEGMENT
$unwind$?setObjAllocType@?$CTList@VCSTLogger@@@@QEAAXW4E_ALLOC_TYPE@@@Z DD 010a01H
	DD	0700aH
xdata	ENDS
;	COMDAT xdata
xdata	SEGMENT
$unwind$?size@?$CTList@VCSTLogger@@@@QEAAHXZ DD 010601H
	DD	07006H
xdata	ENDS
;	COMDAT xdata
xdata	SEGMENT
$unwind$?getNext@?$CTList@VCSTLogger@@@@QEAAPEAVCSTLogger@@PEAH@Z DD 010b01H
	DD	0700bH
xdata	ENDS
;	COMDAT xdata
xdata	SEGMENT
$unwind$?getObj@?$CTList@VCSTLogger@@@@QEAAPEAVCSTLogger@@H@Z DD 022201H
	DD	0700a320eH
xdata	ENDS
;	COMDAT xdata
xdata	SEGMENT
$unwind$?del@?$CTList@VCSTLogger@@@@QEAA_NH@Z DD 022201H
	DD	0700a320eH
xdata	ENDS
;	COMDAT xdata
xdata	SEGMENT
$unwind$?push_back@?$CTList@VCSTLogger@@@@QEAA_NPEAVCSTLogger@@PEAH@Z DD 022801H
	DD	070105214H
xdata	ENDS
;	COMDAT xdata
xdata	SEGMENT
$unwind$?alloc@?$CTList@VCSTLogger@@@@QEAAHHW4E_ALLOC_TYPE@@@Z DD 022701H
	DD	0700f3213H
xdata	ENDS
;	COMDAT xdata
xdata	SEGMENT
$ip2state$??1?$CTList@VCSTLogger@@@@QEAA@XZ DD imagerel ??1?$CTList@VCSTLogger@@@@QEAA@XZ
	DD	0ffffffffH
xdata	ENDS
;	COMDAT xdata
xdata	SEGMENT
$unwind$??1?$CTList@VCSTLogger@@@@QEAA@XZ DD 033f19H
	DD	012010dH
	DD	07006H
	DD	imagerel __GSHandlerCheck_EH
	DD	imagerel $cppxdata$??1?$CTList@VCSTLogger@@@@QEAA@XZ
	DD	08bH
xdata	ENDS
;	COMDAT CONST
CONST	SEGMENT
??1?$CTList@VCSTLogger@@@@QEAA@XZ$rtcName$0 DB 069H	; CTList<CSTLogger>::~CTList<CSTLogger>
	DB	064H
	DB	078H
	DB	00H
	ORG $+12
??1?$CTList@VCSTLogger@@@@QEAA@XZ$rtcVarDesc DD 024H	; CTList<CSTLogger>::~CTList<CSTLogger>
	DD	04H
	DQ	FLAT:??1?$CTList@VCSTLogger@@@@QEAA@XZ$rtcName$0
	ORG $+48
??1?$CTList@VCSTLogger@@@@QEAA@XZ$rtcFrameData DD 01H	; CTList<CSTLogger>::~CTList<CSTLogger>
	DD	00H
	DQ	FLAT:??1?$CTList@VCSTLogger@@@@QEAA@XZ$rtcVarDesc
$cppxdata$??1?$CTList@VCSTLogger@@@@QEAA@XZ DD 019930522H
	DD	00H
	DD	00H
	DD	00H
	DD	00H
	DD	01H
	DD	imagerel $ip2state$??1?$CTList@VCSTLogger@@@@QEAA@XZ
	DD	068H
	DD	00H
	DD	05H
CONST	ENDS
;	COMDAT xdata
xdata	SEGMENT
$unwind$??0?$CTList@VCSTLogger@@@@QEAA@XZ DD 010601H
	DD	07006H
xdata	ENDS
;	COMDAT xdata
xdata	SEGMENT
$unwind$??_G?$CTList@VCLogger@@@@QEAAPEAXI@Z DD 022201H
	DD	0700a320eH
xdata	ENDS
;	COMDAT xdata
xdata	SEGMENT
$unwind$?__autoclassinit2@?$CTList@VCLogger@@@@QEAAX_K@Z DD 010b01H
	DD	0700bH
xdata	ENDS
;	COMDAT xdata
xdata	SEGMENT
$unwind$?_DEL@?$CTList@VCLogger@@@@AEAAXH@Z DD 010a01H
	DD	0700aH
xdata	ENDS
;	COMDAT xdata
xdata	SEGMENT
$unwind$?__alloc@?$CTList@VCLogger@@@@AEAAHH@Z DD 022201H
	DD	0700a520eH
xdata	ENDS
;	COMDAT xdata
xdata	SEGMENT
$unwind$?getNext@?$CTList@VCLogger@@@@QEAAPEAVCLogger@@PEAH@Z DD 010b01H
	DD	0700bH
xdata	ENDS
;	COMDAT xdata
xdata	SEGMENT
$unwind$?del@?$CTList@VCLogger@@@@QEAA_NPEAVCLogger@@@Z DD 022301H
	DD	0700b520fH
xdata	ENDS
;	COMDAT xdata
xdata	SEGMENT
$unwind$?IsExist@?$CTList@VCLogger@@@@QEAA_NPEAVCLogger@@@Z DD 022301H
	DD	0700b120fH
xdata	ENDS
;	COMDAT xdata
xdata	SEGMENT
$unwind$?push_back@?$CTList@VCLogger@@@@QEAA_NPEAVCLogger@@PEAH@Z DD 022801H
	DD	070105214H
xdata	ENDS
;	COMDAT xdata
xdata	SEGMENT
$unwind$?alloc@?$CTList@VCLogger@@@@QEAAHHW4E_ALLOC_TYPE@@@Z DD 022701H
	DD	0700f3213H
xdata	ENDS
;	COMDAT xdata
xdata	SEGMENT
$ip2state$??1?$CTList@VCLogger@@@@QEAA@XZ DD imagerel ??1?$CTList@VCLogger@@@@QEAA@XZ
	DD	0ffffffffH
xdata	ENDS
;	COMDAT xdata
xdata	SEGMENT
$unwind$??1?$CTList@VCLogger@@@@QEAA@XZ DD 033f19H
	DD	012010dH
	DD	07006H
	DD	imagerel __GSHandlerCheck_EH
	DD	imagerel $cppxdata$??1?$CTList@VCLogger@@@@QEAA@XZ
	DD	08bH
xdata	ENDS
;	COMDAT CONST
CONST	SEGMENT
??1?$CTList@VCLogger@@@@QEAA@XZ$rtcName$0 DB 069H	; CTList<CLogger>::~CTList<CLogger>
	DB	064H
	DB	078H
	DB	00H
	ORG $+12
??1?$CTList@VCLogger@@@@QEAA@XZ$rtcVarDesc DD 024H	; CTList<CLogger>::~CTList<CLogger>
	DD	04H
	DQ	FLAT:??1?$CTList@VCLogger@@@@QEAA@XZ$rtcName$0
	ORG $+48
??1?$CTList@VCLogger@@@@QEAA@XZ$rtcFrameData DD 01H	; CTList<CLogger>::~CTList<CLogger>
	DD	00H
	DQ	FLAT:??1?$CTList@VCLogger@@@@QEAA@XZ$rtcVarDesc
$cppxdata$??1?$CTList@VCLogger@@@@QEAA@XZ DD 019930522H
	DD	00H
	DD	00H
	DD	00H
	DD	00H
	DD	01H
	DD	imagerel $ip2state$??1?$CTList@VCLogger@@@@QEAA@XZ
	DD	068H
	DD	00H
	DD	05H
CONST	ENDS
;	COMDAT xdata
xdata	SEGMENT
$unwind$??0?$CTList@VCLogger@@@@QEAA@XZ DD 010601H
	DD	07006H
xdata	ENDS
;	COMDAT xdata
xdata	SEGMENT
$unwind$??_G?$CMemPool@USTEvent@@@@QEAAPEAXI@Z DD 022201H
	DD	0700a320eH
xdata	ENDS
;	COMDAT xdata
xdata	SEGMENT
$unwind$?__autoclassinit2@?$CMemPool@USTEvent@@@@QEAAX_K@Z DD 010b01H
	DD	0700bH
xdata	ENDS
;	COMDAT xdata
xdata	SEGMENT
$unwind$?delMem@?$CMemPool@USTEvent@@@@QEAA_NPEAUSTEvent@@@Z DD 022301H
	DD	0700b720fH
xdata	ENDS
;	COMDAT xdata
xdata	SEGMENT
$unwind$?dtor$0@?0??alloc@?$CMemPool@USTEvent@@@@QEAAHHW4E_ALLOC_TYPE@@@Z@4HA DD 031001H
	DD	0700c4210H
	DD	0500bH
xdata	ENDS
;	COMDAT xdata
xdata	SEGMENT
$ip2state$?alloc@?$CMemPool@USTEvent@@@@QEAAHHW4E_ALLOC_TYPE@@@Z DD imagerel ?alloc@?$CMemPool@USTEvent@@@@QEAAHHW4E_ALLOC_TYPE@@@Z
	DD	0ffffffffH
	DD	imagerel ?alloc@?$CMemPool@USTEvent@@@@QEAAHHW4E_ALLOC_TYPE@@@Z+123
	DD	00H
	DD	imagerel ?alloc@?$CMemPool@USTEvent@@@@QEAAHHW4E_ALLOC_TYPE@@@Z+225
	DD	0ffffffffH
xdata	ENDS
;	COMDAT xdata
xdata	SEGMENT
$stateUnwindMap$?alloc@?$CMemPool@USTEvent@@@@QEAAHHW4E_ALLOC_TYPE@@@Z DD 0ffffffffH
	DD	imagerel ?dtor$0@?0??alloc@?$CMemPool@USTEvent@@@@QEAAHHW4E_ALLOC_TYPE@@@Z@4HA
xdata	ENDS
;	COMDAT CONST
CONST	SEGMENT
$cppxdata$?alloc@?$CMemPool@USTEvent@@@@QEAAHHW4E_ALLOC_TYPE@@@Z DD 019930522H
	DD	01H
	DD	imagerel $stateUnwindMap$?alloc@?$CMemPool@USTEvent@@@@QEAAHHW4E_ALLOC_TYPE@@@Z
	DD	00H
	DD	00H
	DD	03H
	DD	imagerel $ip2state$?alloc@?$CMemPool@USTEvent@@@@QEAAHHW4E_ALLOC_TYPE@@@Z
	DD	060H
	DD	00H
	DD	01H
CONST	ENDS
;	COMDAT xdata
xdata	SEGMENT
$unwind$?alloc@?$CMemPool@USTEvent@@@@QEAAHHW4E_ALLOC_TYPE@@@Z DD 033611H
	DD	0120116H
	DD	0700fH
	DD	imagerel __CxxFrameHandler3
	DD	imagerel $cppxdata$?alloc@?$CMemPool@USTEvent@@@@QEAAHHW4E_ALLOC_TYPE@@@Z
xdata	ENDS
;	COMDAT xdata
xdata	SEGMENT
$unwind$?clear@?$CMemPool@USTEvent@@@@QEAAXXZ DD 021e01H
	DD	07006520aH
xdata	ENDS
;	COMDAT xdata
xdata	SEGMENT
$unwind$??1?$CMemPool@USTEvent@@@@QEAA@XZ DD 021e01H
	DD	07006920aH
xdata	ENDS
;	COMDAT xdata
xdata	SEGMENT
$unwind$??0?$CMemPool@USTEvent@@@@QEAA@XZ DD 021e01H
	DD	07006320aH
xdata	ENDS
;	COMDAT xdata
xdata	SEGMENT
$unwind$??_G?$CMemPool@USTIntervalInfo@@@@QEAAPEAXI@Z DD 022201H
	DD	0700a320eH
xdata	ENDS
;	COMDAT xdata
xdata	SEGMENT
$unwind$?__autoclassinit2@?$CMemPool@USTIntervalInfo@@@@QEAAX_K@Z DD 010b01H
	DD	0700bH
xdata	ENDS
;	COMDAT xdata
xdata	SEGMENT
$unwind$?dtor$0@?0??alloc@?$CMemPool@USTIntervalInfo@@@@QEAAHHW4E_ALLOC_TYPE@@@Z@4HA DD 031001H
	DD	0700c4210H
	DD	0500bH
xdata	ENDS
;	COMDAT xdata
xdata	SEGMENT
$ip2state$?alloc@?$CMemPool@USTIntervalInfo@@@@QEAAHHW4E_ALLOC_TYPE@@@Z DD imagerel ?alloc@?$CMemPool@USTIntervalInfo@@@@QEAAHHW4E_ALLOC_TYPE@@@Z
	DD	0ffffffffH
	DD	imagerel ?alloc@?$CMemPool@USTIntervalInfo@@@@QEAAHHW4E_ALLOC_TYPE@@@Z+123
	DD	00H
	DD	imagerel ?alloc@?$CMemPool@USTIntervalInfo@@@@QEAAHHW4E_ALLOC_TYPE@@@Z+225
	DD	0ffffffffH
xdata	ENDS
;	COMDAT xdata
xdata	SEGMENT
$stateUnwindMap$?alloc@?$CMemPool@USTIntervalInfo@@@@QEAAHHW4E_ALLOC_TYPE@@@Z DD 0ffffffffH
	DD	imagerel ?dtor$0@?0??alloc@?$CMemPool@USTIntervalInfo@@@@QEAAHHW4E_ALLOC_TYPE@@@Z@4HA
xdata	ENDS
;	COMDAT CONST
CONST	SEGMENT
$cppxdata$?alloc@?$CMemPool@USTIntervalInfo@@@@QEAAHHW4E_ALLOC_TYPE@@@Z DD 019930522H
	DD	01H
	DD	imagerel $stateUnwindMap$?alloc@?$CMemPool@USTIntervalInfo@@@@QEAAHHW4E_ALLOC_TYPE@@@Z
	DD	00H
	DD	00H
	DD	03H
	DD	imagerel $ip2state$?alloc@?$CMemPool@USTIntervalInfo@@@@QEAAHHW4E_ALLOC_TYPE@@@Z
	DD	060H
	DD	00H
	DD	01H
CONST	ENDS
;	COMDAT xdata
xdata	SEGMENT
$unwind$?alloc@?$CMemPool@USTIntervalInfo@@@@QEAAHHW4E_ALLOC_TYPE@@@Z DD 033611H
	DD	0120116H
	DD	0700fH
	DD	imagerel __CxxFrameHandler3
	DD	imagerel $cppxdata$?alloc@?$CMemPool@USTIntervalInfo@@@@QEAAHHW4E_ALLOC_TYPE@@@Z
xdata	ENDS
;	COMDAT xdata
xdata	SEGMENT
$unwind$?clear@?$CMemPool@USTIntervalInfo@@@@QEAAXXZ DD 021e01H
	DD	07006520aH
xdata	ENDS
;	COMDAT xdata
xdata	SEGMENT
$unwind$??1?$CMemPool@USTIntervalInfo@@@@QEAA@XZ DD 021e01H
	DD	07006920aH
xdata	ENDS
;	COMDAT xdata
xdata	SEGMENT
$unwind$??0?$CMemPool@USTIntervalInfo@@@@QEAA@XZ DD 021e01H
	DD	07006320aH
xdata	ENDS
;	COMDAT xdata
xdata	SEGMENT
$unwind$?delEvent@CCoreList@@QEAA_NPEAUSTEvent@@@Z DD 022301H
	DD	0700b320fH
xdata	ENDS
;	COMDAT xdata
xdata	SEGMENT
$ip2state$??_ECComQueueThread@@QEAAPEAXI@Z DD imagerel ??_ECComQueueThread@@QEAAPEAXI@Z
	DD	0ffffffffH
xdata	ENDS
;	COMDAT CONST
CONST	SEGMENT
$cppxdata$??_ECComQueueThread@@QEAAPEAXI@Z DD 019930522H
	DD	00H
	DD	00H
	DD	00H
	DD	00H
	DD	01H
	DD	imagerel $ip2state$??_ECComQueueThread@@QEAAPEAXI@Z
	DD	020H
	DD	00H
	DD	05H
CONST	ENDS
;	COMDAT xdata
xdata	SEGMENT
$unwind$??_ECComQueueThread@@QEAAPEAXI@Z DD 022b19H
	DD	0700a520eH
	DD	imagerel __CxxFrameHandler3
	DD	imagerel $cppxdata$??_ECComQueueThread@@QEAAPEAXI@Z
xdata	ENDS
;	COMDAT xdata
xdata	SEGMENT
$unwind$??_GCComQueueThread@@QEAAPEAXI@Z DD 022201H
	DD	0700a320eH
xdata	ENDS
;	COMDAT xdata
xdata	SEGMENT
$unwind$?getEvent@CComQueueThread@@QEAAPEAUSTEvent@@XZ DD 021e01H
	DD	07006320aH
xdata	ENDS
;	COMDAT xdata
xdata	SEGMENT
$unwind$?putQueue@CComQueueThread@@QEAA_NPEAUSTEvent@@@Z DD 022301H
	DD	0700b320fH
xdata	ENDS
;	COMDAT xdata
xdata	SEGMENT
$unwind$??_G?$CMemList@USTIntervalInfo@@@@QEAAPEAXI@Z DD 022201H
	DD	0700a320eH
xdata	ENDS
;	COMDAT xdata
xdata	SEGMENT
$unwind$?__autoclassinit2@?$CMemList@USTIntervalInfo@@@@QEAAX_K@Z DD 010b01H
	DD	0700bH
xdata	ENDS
;	COMDAT xdata
xdata	SEGMENT
$unwind$?_del@?$CMemList@USTIntervalInfo@@@@AEAAXH@Z DD 022201H
	DD	0700a320eH
xdata	ENDS
;	COMDAT xdata
xdata	SEGMENT
$unwind$?del@?$CMemList@USTIntervalInfo@@@@QEAA_NPEAUSTIntervalInfo@@@Z DD 022301H
	DD	0700b520fH
xdata	ENDS
;	COMDAT xdata
xdata	SEGMENT
$unwind$?add@?$CMemList@USTIntervalInfo@@@@QEAAHPEAUSTIntervalInfo@@@Z DD 022301H
	DD	0700b520fH
xdata	ENDS
;	COMDAT xdata
xdata	SEGMENT
$unwind$?getNext@?$CMemList@USTIntervalInfo@@@@QEAAPEAUSTIntervalInfo@@PEAH@Z DD 022301H
	DD	0700b520fH
xdata	ENDS
;	COMDAT xdata
xdata	SEGMENT
$unwind$?dtor$0@?0??alloc@?$CMemList@USTIntervalInfo@@@@QEAAHHW4E_ALLOC_TYPE@@@Z@4HA DD 031001H
	DD	0700c4210H
	DD	0500bH
xdata	ENDS
;	COMDAT xdata
xdata	SEGMENT
$ip2state$?alloc@?$CMemList@USTIntervalInfo@@@@QEAAHHW4E_ALLOC_TYPE@@@Z DD imagerel ?alloc@?$CMemList@USTIntervalInfo@@@@QEAAHHW4E_ALLOC_TYPE@@@Z
	DD	0ffffffffH
	DD	imagerel ?alloc@?$CMemList@USTIntervalInfo@@@@QEAAHHW4E_ALLOC_TYPE@@@Z+159
	DD	00H
	DD	imagerel ?alloc@?$CMemList@USTIntervalInfo@@@@QEAAHHW4E_ALLOC_TYPE@@@Z+261
	DD	0ffffffffH
xdata	ENDS
;	COMDAT xdata
xdata	SEGMENT
$stateUnwindMap$?alloc@?$CMemList@USTIntervalInfo@@@@QEAAHHW4E_ALLOC_TYPE@@@Z DD 0ffffffffH
	DD	imagerel ?dtor$0@?0??alloc@?$CMemList@USTIntervalInfo@@@@QEAAHHW4E_ALLOC_TYPE@@@Z@4HA
xdata	ENDS
;	COMDAT CONST
CONST	SEGMENT
$cppxdata$?alloc@?$CMemList@USTIntervalInfo@@@@QEAAHHW4E_ALLOC_TYPE@@@Z DD 019930522H
	DD	01H
	DD	imagerel $stateUnwindMap$?alloc@?$CMemList@USTIntervalInfo@@@@QEAAHHW4E_ALLOC_TYPE@@@Z
	DD	00H
	DD	00H
	DD	03H
	DD	imagerel $ip2state$?alloc@?$CMemList@USTIntervalInfo@@@@QEAAHHW4E_ALLOC_TYPE@@@Z
	DD	050H
	DD	00H
	DD	01H
CONST	ENDS
;	COMDAT xdata
xdata	SEGMENT
$unwind$?alloc@?$CMemList@USTIntervalInfo@@@@QEAAHHW4E_ALLOC_TYPE@@@Z DD 023011H
	DD	0700fb213H
	DD	imagerel __CxxFrameHandler3
	DD	imagerel $cppxdata$?alloc@?$CMemList@USTIntervalInfo@@@@QEAAHHW4E_ALLOC_TYPE@@@Z
xdata	ENDS
;	COMDAT xdata
xdata	SEGMENT
$ip2state$??1?$CMemList@USTIntervalInfo@@@@QEAA@XZ DD imagerel ??1?$CMemList@USTIntervalInfo@@@@QEAA@XZ
	DD	0ffffffffH
xdata	ENDS
;	COMDAT xdata
xdata	SEGMENT
$unwind$??1?$CMemList@USTIntervalInfo@@@@QEAA@XZ DD 033f19H
	DD	014010dH
	DD	07006H
	DD	imagerel __GSHandlerCheck_EH
	DD	imagerel $cppxdata$??1?$CMemList@USTIntervalInfo@@@@QEAA@XZ
	DD	093H
xdata	ENDS
;	COMDAT CONST
CONST	SEGMENT
??1?$CMemList@USTIntervalInfo@@@@QEAA@XZ$rtcName$0 DB 069H ; CMemList<STIntervalInfo>::~CMemList<STIntervalInfo>
	DB	064H
	DB	078H
	DB	00H
	ORG $+12
??1?$CMemList@USTIntervalInfo@@@@QEAA@XZ$rtcVarDesc DD 024H ; CMemList<STIntervalInfo>::~CMemList<STIntervalInfo>
	DD	04H
	DQ	FLAT:??1?$CMemList@USTIntervalInfo@@@@QEAA@XZ$rtcName$0
	ORG $+48
??1?$CMemList@USTIntervalInfo@@@@QEAA@XZ$rtcFrameData DD 01H ; CMemList<STIntervalInfo>::~CMemList<STIntervalInfo>
	DD	00H
	DQ	FLAT:??1?$CMemList@USTIntervalInfo@@@@QEAA@XZ$rtcVarDesc
$cppxdata$??1?$CMemList@USTIntervalInfo@@@@QEAA@XZ DD 019930522H
	DD	00H
	DD	00H
	DD	00H
	DD	00H
	DD	01H
	DD	imagerel $ip2state$??1?$CMemList@USTIntervalInfo@@@@QEAA@XZ
	DD	068H
	DD	00H
	DD	05H
CONST	ENDS
;	COMDAT xdata
xdata	SEGMENT
$unwind$?dtor$0@?0???0?$CMemList@USTIntervalInfo@@@@QEAA@XZ@4HA DD 031001H
	DD	0700c4210H
	DD	0500bH
xdata	ENDS
;	COMDAT xdata
xdata	SEGMENT
$ip2state$??0?$CMemList@USTIntervalInfo@@@@QEAA@XZ DD imagerel ??0?$CMemList@USTIntervalInfo@@@@QEAA@XZ
	DD	0ffffffffH
	DD	imagerel ??0?$CMemList@USTIntervalInfo@@@@QEAA@XZ+57
	DD	00H
	DD	imagerel ??0?$CMemList@USTIntervalInfo@@@@QEAA@XZ+112
	DD	0ffffffffH
xdata	ENDS
;	COMDAT xdata
xdata	SEGMENT
$stateUnwindMap$??0?$CMemList@USTIntervalInfo@@@@QEAA@XZ DD 0ffffffffH
	DD	imagerel ?dtor$0@?0???0?$CMemList@USTIntervalInfo@@@@QEAA@XZ@4HA
xdata	ENDS
;	COMDAT CONST
CONST	SEGMENT
$cppxdata$??0?$CMemList@USTIntervalInfo@@@@QEAA@XZ DD 019930522H
	DD	01H
	DD	imagerel $stateUnwindMap$??0?$CMemList@USTIntervalInfo@@@@QEAA@XZ
	DD	00H
	DD	00H
	DD	03H
	DD	imagerel $ip2state$??0?$CMemList@USTIntervalInfo@@@@QEAA@XZ
	DD	020H
	DD	00H
	DD	01H
CONST	ENDS
;	COMDAT xdata
xdata	SEGMENT
$unwind$??0?$CMemList@USTIntervalInfo@@@@QEAA@XZ DD 022711H
	DD	07006520aH
	DD	imagerel __CxxFrameHandler3
	DD	imagerel $cppxdata$??0?$CMemList@USTIntervalInfo@@@@QEAA@XZ
xdata	ENDS
;	COMDAT xdata
xdata	SEGMENT
$ip2state$??_ECScheduler@@QEAAPEAXI@Z DD imagerel ??_ECScheduler@@QEAAPEAXI@Z
	DD	0ffffffffH
xdata	ENDS
;	COMDAT CONST
CONST	SEGMENT
$cppxdata$??_ECScheduler@@QEAAPEAXI@Z DD 019930522H
	DD	00H
	DD	00H
	DD	00H
	DD	00H
	DD	01H
	DD	imagerel $ip2state$??_ECScheduler@@QEAAPEAXI@Z
	DD	020H
	DD	00H
	DD	05H
CONST	ENDS
;	COMDAT xdata
xdata	SEGMENT
$unwind$??_ECScheduler@@QEAAPEAXI@Z DD 022b19H
	DD	0700a520eH
	DD	imagerel __CxxFrameHandler3
	DD	imagerel $cppxdata$??_ECScheduler@@QEAAPEAXI@Z
xdata	ENDS
;	COMDAT xdata
xdata	SEGMENT
$unwind$??_GCScheduler@@QEAAPEAXI@Z DD 022201H
	DD	0700a320eH
xdata	ENDS
;	COMDAT xdata
xdata	SEGMENT
$unwind$?getGoal@CScheduler@@QEAAIXZ DD 010601H
	DD	07006H
xdata	ENDS
;	COMDAT xdata
xdata	SEGMENT
$unwind$?setGoal@CScheduler@@QEAAXXZ DD 010601H
	DD	07006H
xdata	ENDS
;	COMDAT xdata
xdata	SEGMENT
$unwind$?getMilliSecHalf@CScheduler@@QEAAHXZ DD 010601H
	DD	07006H
xdata	ENDS
;	COMDAT xdata
xdata	SEGMENT
$unwind$?addTime@CScheduler@@QEAAHPEAUSTIntervalInfo@@@Z DD 022301H
	DD	0700b320fH
xdata	ENDS
;	COMDAT xdata
xdata	SEGMENT
$unwind$?deleteTime@CScheduler@@QEAA_NPEAUSTIntervalInfo@@@Z DD 022301H
	DD	0700b320fH
xdata	ENDS
;	COMDAT xdata
xdata	SEGMENT
$unwind$?timeNext@CScheduler@@QEAAPEAUSTIntervalInfo@@PEAH@Z DD 022301H
	DD	0700b320fH
xdata	ENDS
;	COMDAT xdata
xdata	SEGMENT
$ip2state$??_ECSTLogger@@QEAAPEAXI@Z DD imagerel ??_ECSTLogger@@QEAAPEAXI@Z
	DD	0ffffffffH
xdata	ENDS
;	COMDAT CONST
CONST	SEGMENT
$cppxdata$??_ECSTLogger@@QEAAPEAXI@Z DD 019930522H
	DD	00H
	DD	00H
	DD	00H
	DD	00H
	DD	01H
	DD	imagerel $ip2state$??_ECSTLogger@@QEAAPEAXI@Z
	DD	020H
	DD	00H
	DD	05H
CONST	ENDS
;	COMDAT xdata
xdata	SEGMENT
$unwind$??_ECSTLogger@@QEAAPEAXI@Z DD 022b19H
	DD	0700a520eH
	DD	imagerel __CxxFrameHandler3
	DD	imagerel $cppxdata$??_ECSTLogger@@QEAAPEAXI@Z
xdata	ENDS
;	COMDAT xdata
xdata	SEGMENT
$unwind$??_GCSTLogger@@QEAAPEAXI@Z DD 022201H
	DD	0700a320eH
xdata	ENDS
;	COMDAT xdata
xdata	SEGMENT
$unwind$?pushCommand@CSTLogger@@QEAA_NPEAUSTLCommand@@@Z DD 022301H
	DD	0700b320fH
xdata	ENDS
;	COMDAT xdata
xdata	SEGMENT
$ip2state$??_ECComThread@@QEAAPEAXI@Z DD imagerel ??_ECComThread@@QEAAPEAXI@Z
	DD	0ffffffffH
xdata	ENDS
;	COMDAT CONST
CONST	SEGMENT
$cppxdata$??_ECComThread@@QEAAPEAXI@Z DD 019930522H
	DD	00H
	DD	00H
	DD	00H
	DD	00H
	DD	01H
	DD	imagerel $ip2state$??_ECComThread@@QEAAPEAXI@Z
	DD	020H
	DD	00H
	DD	05H
CONST	ENDS
;	COMDAT xdata
xdata	SEGMENT
$unwind$??_ECComThread@@QEAAPEAXI@Z DD 022b19H
	DD	0700a520eH
	DD	imagerel __CxxFrameHandler3
	DD	imagerel $cppxdata$??_ECComThread@@QEAAPEAXI@Z
xdata	ENDS
;	COMDAT xdata
xdata	SEGMENT
$unwind$??_GCComThread@@QEAAPEAXI@Z DD 022201H
	DD	0700a320eH
xdata	ENDS
;	COMDAT xdata
xdata	SEGMENT
$unwind$?sendSignal@CComThread@@QEAAXXZ DD 021e01H
	DD	07006520aH
xdata	ENDS
;	COMDAT xdata
xdata	SEGMENT
$unwind$?bActive@CComThread@@QEAA_NXZ DD 010601H
	DD	07006H
xdata	ENDS
;	COMDAT xdata
xdata	SEGMENT
$unwind$?setIdx@CComThread@@QEAAXH@Z DD 010a01H
	DD	0700aH
xdata	ENDS
CONST	SEGMENT
	ORG $+7
$cppxdata$??1CComThread@@QEAA@XZ DD 019930522H
	DD	00H
	DD	00H
	DD	00H
	DD	00H
	DD	01H
	DD	imagerel $ip2state$??1CComThread@@QEAA@XZ
	DD	020H
	DD	00H
	DD	05H
$cppxdata$??1CSTLogger@@QEAA@XZ DD 019930522H
	DD	00H
	DD	00H
	DD	00H
	DD	00H
	DD	01H
	DD	imagerel $ip2state$??1CSTLogger@@QEAA@XZ
	DD	040H
	DD	00H
	DD	05H
?initConfig@CSTLogger@@QEAA_NPEADH0@Z$rtcName$0 DB 073H	; CSTLogger::initConfig
	DB	07aH
	DB	053H
	DB	065H
	DB	063H
	DB	074H
	DB	00H
	ORG $+1
?initConfig@CSTLogger@@QEAA_NPEADH0@Z$rtcVarDesc DD 028H ; CSTLogger::initConfig
	DD	018H
	DQ	FLAT:?initConfig@CSTLogger@@QEAA_NPEADH0@Z$rtcName$0
	ORG $+48
?initConfig@CSTLogger@@QEAA_NPEADH0@Z$rtcFrameData DD 01H ; CSTLogger::initConfig
	DD	00H
	DQ	FLAT:?initConfig@CSTLogger@@QEAA_NPEADH0@Z$rtcVarDesc
?GetQueue@CSTLogger@@QEAAXXZ$rtcName$0 DB 069H		; CSTLogger::GetQueue
	DB	064H
	DB	078H
	DB	00H
?TimeProc@CSTLogger@@QEAAXXZ$rtcName$0 DB 06cH		; CSTLogger::TimeProc
	DB	074H
	DB	06dH
	DB	00H
?TimeProc@CSTLogger@@QEAAXXZ$rtcName$1 DB 069H		; CSTLogger::TimeProc
	DB	064H
	DB	078H
	DB	00H
	ORG $+4
?GetQueue@CSTLogger@@QEAAXXZ$rtcVarDesc DD 024H		; CSTLogger::GetQueue
	DD	04H
	DQ	FLAT:?GetQueue@CSTLogger@@QEAAXXZ$rtcName$0
	ORG $+48
?GetQueue@CSTLogger@@QEAAXXZ$rtcFrameData DD 01H	; CSTLogger::GetQueue
	DD	00H
	DQ	FLAT:?GetQueue@CSTLogger@@QEAAXXZ$rtcVarDesc
?TimeProc@CSTLogger@@QEAAXXZ$rtcVarDesc DD 0b4H		; CSTLogger::TimeProc
	DD	04H
	DQ	FLAT:?TimeProc@CSTLogger@@QEAAXXZ$rtcName$1
	DD	030H
	DD	068H
	DQ	FLAT:?TimeProc@CSTLogger@@QEAAXXZ$rtcName$0
	ORG $+96
?TimeProc@CSTLogger@@QEAAXXZ$rtcFrameData DD 02H	; CSTLogger::TimeProc
	DD	00H
	DQ	FLAT:?TimeProc@CSTLogger@@QEAAXXZ$rtcVarDesc
$cppxdata$?TimeProc@CSTLogger@@QEAAXXZ DD 019930522H
	DD	01H
	DD	imagerel $stateUnwindMap$?TimeProc@CSTLogger@@QEAAXXZ
	DD	00H
	DD	00H
	DD	03H
	DD	imagerel $ip2state$?TimeProc@CSTLogger@@QEAAXXZ
	DD	0d8H
	DD	00H
	DD	01H
$cppxdata$?_init@CSTLogger@@AEAA_NH@Z DD 019930522H
	DD	02H
	DD	imagerel $stateUnwindMap$?_init@CSTLogger@@AEAA_NH@Z
	DD	00H
	DD	00H
	DD	05H
	DD	imagerel $ip2state$?_init@CSTLogger@@AEAA_NH@Z
	DD	040H
	DD	00H
	DD	01H
?schedulerLoop@@YAXPEAUSTThreadInfo@@@Z$rtcName$0 DB 069H ; schedulerLoop
	DB	064H
	DB	078H
	DB	00H
?initConfig@CScheduler@@QEAA_NPEADH0@Z$rtcName$0 DB 073H ; CScheduler::initConfig
	DB	07aH
	DB	053H
	DB	065H
	DB	063H
	DB	074H
	DB	00H
	ORG $+5
?schedulerLoop@@YAXPEAUSTThreadInfo@@@Z$rtcVarDesc DD 044H ; schedulerLoop
	DD	04H
	DQ	FLAT:?schedulerLoop@@YAXPEAUSTThreadInfo@@@Z$rtcName$0
	ORG $+48
?schedulerLoop@@YAXPEAUSTThreadInfo@@@Z$rtcFrameData DD 01H ; schedulerLoop
	DD	00H
	DQ	FLAT:?schedulerLoop@@YAXPEAUSTThreadInfo@@@Z$rtcVarDesc
$cppxdata$??1CScheduler@@QEAA@XZ DD 019930522H
	DD	00H
	DD	00H
	DD	00H
	DD	00H
	DD	01H
	DD	imagerel $ip2state$??1CScheduler@@QEAA@XZ
	DD	020H
	DD	00H
	DD	05H
$cppxdata$?initConfig@CScheduler@@QEAA_NPEADH0@Z DD 019930522H
	DD	01H
	DD	imagerel $stateUnwindMap$?initConfig@CScheduler@@QEAA_NPEADH0@Z
	DD	00H
	DD	00H
	DD	03H
	DD	imagerel $ip2state$?initConfig@CScheduler@@QEAA_NPEADH0@Z
	DD	070H
	DD	00H
	DD	01H
?initConfig@CScheduler@@QEAA_NPEADH0@Z$rtcVarDesc DD 028H ; CScheduler::initConfig
	DD	018H
	DQ	FLAT:?initConfig@CScheduler@@QEAA_NPEADH0@Z$rtcName$0
	ORG $+48
?initConfig@CScheduler@@QEAA_NPEADH0@Z$rtcFrameData DD 01H ; CScheduler::initConfig
	DD	00H
	DQ	FLAT:?initConfig@CScheduler@@QEAA_NPEADH0@Z$rtcVarDesc
$cppxdata$?init@CScheduler@@QEAA_NHHH@Z DD 019930522H
	DD	01H
	DD	imagerel $stateUnwindMap$?init@CScheduler@@QEAA_NHHH@Z
	DD	00H
	DD	00H
	DD	03H
	DD	imagerel $ip2state$?init@CScheduler@@QEAA_NHHH@Z
	DD	040H
	DD	00H
	DD	01H
$cppxdata$??0CComQueueThread@@QEAA@XZ DD 019930522H
	DD	01H
	DD	imagerel $stateUnwindMap$??0CComQueueThread@@QEAA@XZ
	DD	00H
	DD	00H
	DD	03H
	DD	imagerel $ip2state$??0CComQueueThread@@QEAA@XZ
	DD	020H
	DD	00H
	DD	01H
$cppxdata$??1CComQueueThread@@QEAA@XZ DD 019930522H
	DD	00H
	DD	00H
	DD	00H
	DD	00H
	DD	01H
	DD	imagerel $ip2state$??1CComQueueThread@@QEAA@XZ
	DD	020H
	DD	00H
	DD	05H
?initConfig@CComQueueThread@@QEAA_NPEADH0@Z$rtcName$0 DB 073H ; CComQueueThread::initConfig
	DB	07aH
	DB	053H
	DB	065H
	DB	063H
	DB	074H
	DB	00H
	ORG $+1
?initConfig@CComQueueThread@@QEAA_NPEADH0@Z$rtcVarDesc DD 028H ; CComQueueThread::initConfig
	DD	018H
	DQ	FLAT:?initConfig@CComQueueThread@@QEAA_NPEADH0@Z$rtcName$0
	ORG $+48
?initConfig@CComQueueThread@@QEAA_NPEADH0@Z$rtcFrameData DD 01H ; CComQueueThread::initConfig
	DD	00H
	DQ	FLAT:?initConfig@CComQueueThread@@QEAA_NPEADH0@Z$rtcVarDesc
$cppxdata$??0CCoreList@@QEAA@XZ DD 019930522H
	DD	01H
	DD	imagerel $stateUnwindMap$??0CCoreList@@QEAA@XZ
	DD	00H
	DD	00H
	DD	03H
	DD	imagerel $ip2state$??0CCoreList@@QEAA@XZ
	DD	030H
	DD	00H
	DD	01H
$cppxdata$??1CCoreList@@QEAA@XZ DD 019930522H
	DD	00H
	DD	00H
	DD	00H
	DD	00H
	DD	01H
	DD	imagerel $ip2state$??1CCoreList@@QEAA@XZ
	DD	020H
	DD	00H
	DD	05H
?initSystemFile@CCoreList@@QEAA_NXZ$rtcName$0 DB 073H	; CCoreList::initSystemFile
	DB	07aH
	DB	043H
	DB	06fH
	DB	06eH
	DB	066H
	DB	00H
	ORG $+1
?initSystemFile@CCoreList@@QEAA_NXZ$rtcName$1 DB 073H	; CCoreList::initSystemFile
	DB	07aH
	DB	04bH
	DB	065H
	DB	079H
	DB	00H
	ORG $+2
?initSystemFile@CCoreList@@QEAA_NXZ$rtcVarDesc DD 0b8H	; CCoreList::initSystemFile
	DD	024H
	DQ	FLAT:?initSystemFile@CCoreList@@QEAA_NXZ$rtcName$1
	DD	040H
	DD	058H
	DQ	FLAT:?initSystemFile@CCoreList@@QEAA_NXZ$rtcName$0
	ORG $+96
?initSystemFile@CCoreList@@QEAA_NXZ$rtcFrameData DD 02H	; CCoreList::initSystemFile
	DD	00H
	DQ	FLAT:?initSystemFile@CCoreList@@QEAA_NXZ$rtcVarDesc
?initDefaultPool@CCoreList@@QEAA_NHHH@Z$rtcName$0 DB 073H ; CCoreList::initDefaultPool
	DB	07aH
	DB	043H
	DB	06fH
	DB	06eH
	DB	066H
	DB	00H
	ORG $+1
?initDefaultPool@CCoreList@@QEAA_NHHH@Z$rtcFrameData DD 01H ; CCoreList::initDefaultPool
	DD	00H
	DQ	FLAT:?initDefaultPool@CCoreList@@QEAA_NHHH@Z$rtcVarDesc
?start@CCoreList@@QEAA_NXZ$rtcName$0 DB 063H		; CCoreList::start
	DB	075H
	DB	072H
	DB	054H
	DB	06dH
	DB	00H
	ORG $+2
?initDefaultPool@CCoreList@@QEAA_NHHH@Z$rtcVarDesc DD 040H ; CCoreList::initDefaultPool
	DD	058H
	DQ	FLAT:?initDefaultPool@CCoreList@@QEAA_NHHH@Z$rtcName$0
	ORG $+48
?start@CCoreList@@QEAA_NXZ$rtcVarDesc DD 060H		; CCoreList::start
	DD	068H
	DQ	FLAT:?start@CCoreList@@QEAA_NXZ$rtcName$0
	ORG $+48
?start@CCoreList@@QEAA_NXZ$rtcFrameData DD 01H		; CCoreList::start
	DD	00H
	DQ	FLAT:?start@CCoreList@@QEAA_NXZ$rtcVarDesc
$cppxdata$?start@CCoreList@@QEAA_NXZ DD 019930522H
	DD	01H
	DD	imagerel $stateUnwindMap$?start@CCoreList@@QEAA_NXZ
	DD	00H
	DD	00H
	DD	05H
	DD	imagerel $ip2state$?start@CCoreList@@QEAA_NXZ
	DD	0e8H
	DD	00H
	DD	01H
?addComThread@CCoreList@@QEAAHP6AXPEAUSTThreadInfo@@@ZPEAXH2@Z$rtcName$0 DB 069H ; CCoreList::addComThread
	DB	064H
	DB	078H
	DB	00H
	ORG $+4
?addComThread@CCoreList@@QEAAHP6AXPEAUSTThreadInfo@@@ZPEAXH2@Z$rtcVarDesc DD 044H ; CCoreList::addComThread
	DD	04H
	DQ	FLAT:?addComThread@CCoreList@@QEAAHP6AXPEAUSTThreadInfo@@@ZPEAXH2@Z$rtcName$0
	ORG $+48
?addComThread@CCoreList@@QEAAHP6AXPEAUSTThreadInfo@@@ZPEAXH2@Z$rtcFrameData DD 01H ; CCoreList::addComThread
	DD	00H
	DQ	FLAT:?addComThread@CCoreList@@QEAAHP6AXPEAUSTThreadInfo@@@ZPEAXH2@Z$rtcVarDesc
$cppxdata$?addComThread@CCoreList@@QEAAHP6AXPEAUSTThreadInfo@@@ZPEAXH2@Z DD 019930522H
	DD	01H
	DD	imagerel $stateUnwindMap$?addComThread@CCoreList@@QEAAHP6AXPEAUSTThreadInfo@@@ZPEAXH2@Z
	DD	00H
	DD	00H
	DD	03H
	DD	imagerel $ip2state$?addComThread@CCoreList@@QEAAHP6AXPEAUSTThreadInfo@@@ZPEAXH2@Z
	DD	080H
	DD	00H
	DD	01H
?addLogWriter@CCoreList@@QEAAHH@Z$rtcName$0 DB 069H	; CCoreList::addLogWriter
	DB	064H
	DB	078H
	DB	00H
	ORG $+4
?addLogWriter@CCoreList@@QEAAHH@Z$rtcVarDesc DD 024H	; CCoreList::addLogWriter
	DD	04H
	DQ	FLAT:?addLogWriter@CCoreList@@QEAAHH@Z$rtcName$0
	ORG $+48
?addLogWriter@CCoreList@@QEAAHH@Z$rtcFrameData DD 01H	; CCoreList::addLogWriter
	DD	00H
	DQ	FLAT:?addLogWriter@CCoreList@@QEAAHH@Z$rtcVarDesc
$cppxdata$?addLogWriter@CCoreList@@QEAAHH@Z DD 019930522H
	DD	01H
	DD	imagerel $stateUnwindMap$?addLogWriter@CCoreList@@QEAAHH@Z
	DD	00H
	DD	00H
	DD	03H
	DD	imagerel $ip2state$?addLogWriter@CCoreList@@QEAAHH@Z
	DD	068H
	DD	00H
	DD	01H
?addScheduler@CCoreList@@QEAAHHH@Z$rtcName$0 DB 069H	; CCoreList::addScheduler
	DB	064H
	DB	078H
	DB	00H
	ORG $+4
?addScheduler@CCoreList@@QEAAHHH@Z$rtcVarDesc DD 034H	; CCoreList::addScheduler
	DD	04H
	DQ	FLAT:?addScheduler@CCoreList@@QEAAHHH@Z$rtcName$0
	ORG $+48
?addScheduler@CCoreList@@QEAAHHH@Z$rtcFrameData DD 01H	; CCoreList::addScheduler
	DD	00H
	DQ	FLAT:?addScheduler@CCoreList@@QEAAHHH@Z$rtcVarDesc
$cppxdata$?addScheduler@CCoreList@@QEAAHHH@Z DD 019930522H
	DD	01H
	DD	imagerel $stateUnwindMap$?addScheduler@CCoreList@@QEAAHHH@Z
	DD	00H
	DD	00H
	DD	03H
	DD	imagerel $ip2state$?addScheduler@CCoreList@@QEAAHHH@Z
	DD	078H
	DD	00H
	DD	01H
?addQueueThread@CCoreList@@QEAAHH@Z$rtcName$0 DB 069H	; CCoreList::addQueueThread
	DB	064H
	DB	078H
	DB	00H
	ORG $+4
?addQueueThread@CCoreList@@QEAAHH@Z$rtcVarDesc DD 024H	; CCoreList::addQueueThread
	DD	04H
	DQ	FLAT:?addQueueThread@CCoreList@@QEAAHH@Z$rtcName$0
	ORG $+48
?addQueueThread@CCoreList@@QEAAHH@Z$rtcFrameData DD 01H	; CCoreList::addQueueThread
	DD	00H
	DQ	FLAT:?addQueueThread@CCoreList@@QEAAHH@Z$rtcVarDesc
$cppxdata$?addQueueThread@CCoreList@@QEAAHH@Z DD 019930522H
	DD	01H
	DD	imagerel $stateUnwindMap$?addQueueThread@CCoreList@@QEAAHH@Z
	DD	00H
	DD	00H
	DD	03H
	DD	imagerel $ip2state$?addQueueThread@CCoreList@@QEAAHH@Z
	DD	068H
	DD	00H
	DD	01H
?initComThread@CCoreList@@QEAA_NPEAD0@Z$rtcName$0 DB 069H ; CCoreList::initComThread
	DB	064H
	DB	078H
	DB	00H
	ORG $+4
?initComThread@CCoreList@@QEAA_NPEAD0@Z$rtcVarDesc DD 034H ; CCoreList::initComThread
	DD	04H
	DQ	FLAT:?initComThread@CCoreList@@QEAA_NPEAD0@Z$rtcName$0
	ORG $+48
?initComThread@CCoreList@@QEAA_NPEAD0@Z$rtcFrameData DD 01H ; CCoreList::initComThread
	DD	00H
	DQ	FLAT:?initComThread@CCoreList@@QEAA_NPEAD0@Z$rtcVarDesc
$cppxdata$?initComThread@CCoreList@@QEAA_NPEAD0@Z DD 019930522H
	DD	02H
	DD	imagerel $stateUnwindMap$?initComThread@CCoreList@@QEAA_NPEAD0@Z
	DD	00H
	DD	00H
	DD	05H
	DD	imagerel $ip2state$?initComThread@CCoreList@@QEAA_NPEAD0@Z
	DD	078H
	DD	00H
	DD	01H
?initLogWriter@CCoreList@@QEAA_NPEAD0_N@Z$rtcName$0 DB 069H ; CCoreList::initLogWriter
	DB	064H
	DB	078H
	DB	00H
?initScheduler@CCoreList@@QEAA_NPEAD0@Z$rtcName$0 DB 069H ; CCoreList::initScheduler
	DB	064H
	DB	078H
	DB	00H
?initLogWriter@CCoreList@@QEAA_NPEAD0_N@Z$rtcName$1 DB 073H ; CCoreList::initLogWriter
	DB	07aH
	DB	045H
	DB	072H
	DB	072H
	DB	06fH
	DB	072H
	DB	04dH
	DB	073H
	DB	067H
	DB	00H
	ORG $+5
?initLogWriter@CCoreList@@QEAA_NPEAD0_N@Z$rtcVarDesc DD 060H ; CCoreList::initLogWriter
	DD	080H
	DQ	FLAT:?initLogWriter@CCoreList@@QEAA_NPEAD0_N@Z$rtcName$1
	DD	034H
	DD	04H
	DQ	FLAT:?initLogWriter@CCoreList@@QEAA_NPEAD0_N@Z$rtcName$0
	ORG $+96
?initLogWriter@CCoreList@@QEAA_NPEAD0_N@Z$rtcFrameData DD 02H ; CCoreList::initLogWriter
	DD	00H
	DQ	FLAT:?initLogWriter@CCoreList@@QEAA_NPEAD0_N@Z$rtcVarDesc
$cppxdata$?initLogWriter@CCoreList@@QEAA_NPEAD0_N@Z DD 019930522H
	DD	02H
	DD	imagerel $stateUnwindMap$?initLogWriter@CCoreList@@QEAA_NPEAD0_N@Z
	DD	00H
	DD	00H
	DD	05H
	DD	imagerel $ip2state$?initLogWriter@CCoreList@@QEAA_NPEAD0_N@Z
	DD	0110H
	DD	00H
	DD	01H
?initScheduler@CCoreList@@QEAA_NPEAD0@Z$rtcName$1 DB 073H ; CCoreList::initScheduler
	DB	07aH
	DB	045H
	DB	072H
	DB	072H
	DB	06fH
	DB	072H
	DB	04dH
	DB	073H
	DB	067H
	DB	00H
	ORG $+5
?initScheduler@CCoreList@@QEAA_NPEAD0@Z$rtcFrameData DD 02H ; CCoreList::initScheduler
	DD	00H
	DQ	FLAT:?initScheduler@CCoreList@@QEAA_NPEAD0@Z$rtcVarDesc
$cppxdata$?initScheduler@CCoreList@@QEAA_NPEAD0@Z DD 019930522H
	DD	03H
	DD	imagerel $stateUnwindMap$?initScheduler@CCoreList@@QEAA_NPEAD0@Z
	DD	00H
	DD	00H
	DD	07H
	DD	imagerel $ip2state$?initScheduler@CCoreList@@QEAA_NPEAD0@Z
	DD	0120H
	DD	00H
	DD	01H
?initScheduler@CCoreList@@QEAA_NPEAD0@Z$rtcVarDesc DD 060H ; CCoreList::initScheduler
	DD	080H
	DQ	FLAT:?initScheduler@CCoreList@@QEAA_NPEAD0@Z$rtcName$1
	DD	034H
	DD	04H
	DQ	FLAT:?initScheduler@CCoreList@@QEAA_NPEAD0@Z$rtcName$0
	ORG $+96
?initQueueThread@CCoreList@@QEAA_NPEAD0@Z$rtcName$0 DB 069H ; CCoreList::initQueueThread
	DB	064H
	DB	078H
	DB	00H
	ORG $+12
?initQueueThread@CCoreList@@QEAA_NPEAD0@Z$rtcVarDesc DD 034H ; CCoreList::initQueueThread
	DD	04H
	DQ	FLAT:?initQueueThread@CCoreList@@QEAA_NPEAD0@Z$rtcName$0
	ORG $+48
?initQueueThread@CCoreList@@QEAA_NPEAD0@Z$rtcFrameData DD 01H ; CCoreList::initQueueThread
	DD	00H
	DQ	FLAT:?initQueueThread@CCoreList@@QEAA_NPEAD0@Z$rtcVarDesc
$cppxdata$?initQueueThread@CCoreList@@QEAA_NPEAD0@Z DD 019930522H
	DD	03H
	DD	imagerel $stateUnwindMap$?initQueueThread@CCoreList@@QEAA_NPEAD0@Z
	DD	00H
	DD	00H
	DD	07H
	DD	imagerel $ip2state$?initQueueThread@CCoreList@@QEAA_NPEAD0@Z
	DD	088H
	DD	00H
	DD	01H
?initComThread@CCoreList@@QEAA_NH@Z$rtcName$0 DB 073H	; CCoreList::initComThread
	DB	07aH
	DB	045H
	DB	072H
	DB	072H
	DB	06fH
	DB	072H
	DB	04dH
	DB	073H
	DB	067H
	DB	00H
	ORG $+13
?initComThread@CCoreList@@QEAA_NH@Z$rtcVarDesc DD 030H	; CCoreList::initComThread
	DD	080H
	DQ	FLAT:?initComThread@CCoreList@@QEAA_NH@Z$rtcName$0
	ORG $+48
?initComThread@CCoreList@@QEAA_NH@Z$rtcFrameData DD 01H	; CCoreList::initComThread
	DD	00H
	DQ	FLAT:?initComThread@CCoreList@@QEAA_NH@Z$rtcVarDesc
$cppxdata$?initComThread@CCoreList@@QEAA_NH@Z DD 019930522H
	DD	01H
	DD	imagerel $stateUnwindMap$?initComThread@CCoreList@@QEAA_NH@Z
	DD	00H
	DD	00H
	DD	03H
	DD	imagerel $ip2state$?initComThread@CCoreList@@QEAA_NH@Z
	DD	0d0H
	DD	00H
	DD	01H
?initLogWriter@CCoreList@@QEAA_NH@Z$rtcName$0 DB 073H	; CCoreList::initLogWriter
	DB	07aH
	DB	045H
	DB	072H
	DB	072H
	DB	06fH
	DB	072H
	DB	04dH
	DB	073H
	DB	067H
	DB	00H
	ORG $+13
?initLogWriter@CCoreList@@QEAA_NH@Z$rtcVarDesc DD 030H	; CCoreList::initLogWriter
	DD	080H
	DQ	FLAT:?initLogWriter@CCoreList@@QEAA_NH@Z$rtcName$0
	ORG $+48
?initLogWriter@CCoreList@@QEAA_NH@Z$rtcFrameData DD 01H	; CCoreList::initLogWriter
	DD	00H
	DQ	FLAT:?initLogWriter@CCoreList@@QEAA_NH@Z$rtcVarDesc
$cppxdata$?initLogWriter@CCoreList@@QEAA_NH@Z DD 019930522H
	DD	01H
	DD	imagerel $stateUnwindMap$?initLogWriter@CCoreList@@QEAA_NH@Z
	DD	00H
	DD	00H
	DD	03H
	DD	imagerel $ip2state$?initLogWriter@CCoreList@@QEAA_NH@Z
	DD	0d0H
	DD	00H
	DD	01H
?initScheduler@CCoreList@@QEAA_NHH@Z$rtcName$0 DB 073H	; CCoreList::initScheduler
	DB	07aH
	DB	045H
	DB	072H
	DB	072H
	DB	06fH
	DB	072H
	DB	04dH
	DB	073H
	DB	067H
	DB	00H
	ORG $+13
?initScheduler@CCoreList@@QEAA_NHH@Z$rtcVarDesc DD 030H	; CCoreList::initScheduler
	DD	080H
	DQ	FLAT:?initScheduler@CCoreList@@QEAA_NHH@Z$rtcName$0
	ORG $+48
?initScheduler@CCoreList@@QEAA_NHH@Z$rtcFrameData DD 01H ; CCoreList::initScheduler
	DD	00H
	DQ	FLAT:?initScheduler@CCoreList@@QEAA_NHH@Z$rtcVarDesc
$cppxdata$?initScheduler@CCoreList@@QEAA_NHH@Z DD 019930522H
	DD	02H
	DD	imagerel $stateUnwindMap$?initScheduler@CCoreList@@QEAA_NHH@Z
	DD	00H
	DD	00H
	DD	05H
	DD	imagerel $ip2state$?initScheduler@CCoreList@@QEAA_NHH@Z
	DD	0e0H
	DD	00H
	DD	01H
?initQueueThread@CCoreList@@QEAA_NHH@Z$rtcName$0 DB 073H ; CCoreList::initQueueThread
	DB	07aH
	DB	045H
	DB	072H
	DB	072H
	DB	06fH
	DB	072H
	DB	04dH
	DB	073H
	DB	067H
	DB	00H
	ORG $+13
?initQueueThread@CCoreList@@QEAA_NHH@Z$rtcVarDesc DD 030H ; CCoreList::initQueueThread
	DD	080H
	DQ	FLAT:?initQueueThread@CCoreList@@QEAA_NHH@Z$rtcName$0
	ORG $+48
?initQueueThread@CCoreList@@QEAA_NHH@Z$rtcFrameData DD 01H ; CCoreList::initQueueThread
	DD	00H
	DQ	FLAT:?initQueueThread@CCoreList@@QEAA_NHH@Z$rtcVarDesc
$cppxdata$?initQueueThread@CCoreList@@QEAA_NHH@Z DD 019930522H
	DD	02H
	DD	imagerel $stateUnwindMap$?initQueueThread@CCoreList@@QEAA_NHH@Z
	DD	00H
	DD	00H
	DD	05H
	DD	imagerel $ip2state$?initQueueThread@CCoreList@@QEAA_NHH@Z
	DD	0e0H
	DD	00H
	DD	01H
CONST	ENDS
xdata	SEGMENT
$unwind$??0CComThread@@QEAA@XZ DD 021e01H
	DD	07006320aH
$unwind$??1CComThread@@QEAA@XZ DD 022719H
	DD	07006520aH
	DD	imagerel __CxxFrameHandler3
	DD	imagerel $cppxdata$??1CComThread@@QEAA@XZ
$ip2state$??1CComThread@@QEAA@XZ DD imagerel ??1CComThread@@QEAA@XZ
	DD	0ffffffffH
$unwind$?init@CComThread@@QEAA_NP6AXPEAUSTThreadInfo@@@ZPEAXH2@Z DD 011501H
	DD	07015H
$unwind$?start@CComThread@@QEAA_NXZ DD 021e01H
	DD	07006720aH
$unwind$?quit@CComThread@@QEAA_NXZ DD 021e01H
	DD	07006520aH
$unwind$?ProcThread@CComThread@@SAKPEAX@Z DD 021e01H
	DD	07006520aH
$unwind$?loggerLoop@@YAXPEAUSTThreadInfo@@@Z DD 021e01H
	DD	07006520aH
$unwind$??0CSTLogger@@QEAA@XZ DD 021e01H
	DD	07006320aH
$unwind$??1CSTLogger@@QEAA@XZ DD 022719H
	DD	07006b20aH
	DD	imagerel __CxxFrameHandler3
	DD	imagerel $cppxdata$??1CSTLogger@@QEAA@XZ
$ip2state$??1CSTLogger@@QEAA@XZ DD imagerel ??1CSTLogger@@QEAA@XZ
	DD	0ffffffffH
$unwind$?initConfig@CSTLogger@@QEAA_NPEADH0@Z DD 023c19H
	DD	07015b219H
	DD	imagerel __GSHandlerCheck
	DD	050H
$unwind$?init@CSTLogger@@QEAA_NHH@Z DD 022701H
	DD	0700f3213H
$unwind$?start@CSTLogger@@QEAA_NXZ DD 021e01H
	DD	07006520aH
$unwind$?quit@CSTLogger@@QEAA_NXZ DD 021e01H
	DD	07006720aH
$unwind$?IsCommand@CSTLogger@@QEAA_NXZ DD 021e01H
	DD	07006720aH
$unwind$?GetQueue@CSTLogger@@QEAAXXZ DD 022d19H
	DD	07006b20aH
	DD	imagerel __GSHandlerCheck
	DD	058H
$unwind$?TimeProc@CSTLogger@@QEAAXXZ DD 034219H
	DD	01e010dH
	DD	07006H
	DD	imagerel __GSHandlerCheck_EH
	DD	imagerel $cppxdata$?TimeProc@CSTLogger@@QEAAXXZ
	DD	0e2H
$stateUnwindMap$?TimeProc@CSTLogger@@QEAAXXZ DD 0ffffffffH
	DD	imagerel ?dtor$0@?0??TimeProc@CSTLogger@@QEAAXXZ@4HA
$ip2state$?TimeProc@CSTLogger@@QEAAXXZ DD imagerel ?TimeProc@CSTLogger@@QEAAXXZ
	DD	0ffffffffH
	DD	imagerel ?TimeProc@CSTLogger@@QEAAXXZ+85
	DD	00H
	DD	imagerel ?TimeProc@CSTLogger@@QEAAXXZ+460
	DD	0ffffffffH
$unwind$?dtor$0@?0??TimeProc@CSTLogger@@QEAAXXZ@4HA DD 031001H
	DD	0700c4210H
	DD	0500bH
$unwind$?procLoggerEnable@CSTLogger@@QEAAXPEAVCLogger@@@Z DD 022301H
	DD	0700b320fH
$unwind$?porcLoggerDisable@CSTLogger@@QEAAXPEAVCLogger@@@Z DD 022301H
	DD	0700b720fH
$unwind$?_init@CSTLogger@@AEAA_NH@Z DD 022b11H
	DD	0700ab20eH
	DD	imagerel __CxxFrameHandler3
	DD	imagerel $cppxdata$?_init@CSTLogger@@AEAA_NH@Z
$stateUnwindMap$?_init@CSTLogger@@AEAA_NH@Z DD 0ffffffffH
	DD	imagerel ?dtor$0@?0??_init@CSTLogger@@AEAA_NH@Z@4HA
	DD	0ffffffffH
	DD	imagerel ?dtor$1@?0??_init@CSTLogger@@AEAA_NH@Z@4HA
$ip2state$?_init@CSTLogger@@AEAA_NH@Z DD imagerel ?_init@CSTLogger@@AEAA_NH@Z
	DD	0ffffffffH
	DD	imagerel ?_init@CSTLogger@@AEAA_NH@Z+58
	DD	00H
	DD	imagerel ?_init@CSTLogger@@AEAA_NH@Z+117
	DD	0ffffffffH
	DD	imagerel ?_init@CSTLogger@@AEAA_NH@Z+175
	DD	01H
	DD	imagerel ?_init@CSTLogger@@AEAA_NH@Z+234
	DD	0ffffffffH
$unwind$?dtor$0@?0??_init@CSTLogger@@AEAA_NH@Z@4HA DD 031001H
	DD	0700c4210H
	DD	0500bH
$unwind$?dtor$1@?0??_init@CSTLogger@@AEAA_NH@Z@4HA DD 031001H
	DD	0700c4210H
	DD	0500bH
$unwind$?schedulerLoop@@YAXPEAUSTThreadInfo@@@Z DD 023019H
	DD	07006d20aH
	DD	imagerel __GSHandlerCheck
	DD	060H
$unwind$??0CScheduler@@QEAA@XZ DD 021e01H
	DD	07006320aH
$unwind$??1CScheduler@@QEAA@XZ DD 022719H
	DD	07006520aH
	DD	imagerel __CxxFrameHandler3
	DD	imagerel $cppxdata$??1CScheduler@@QEAA@XZ
$ip2state$??1CScheduler@@QEAA@XZ DD imagerel ??1CScheduler@@QEAA@XZ
	DD	0ffffffffH
$unwind$?initConfig@CScheduler@@QEAA_NPEADH0@Z DD 034e19H
	DD	012011cH
	DD	07015H
	DD	imagerel __GSHandlerCheck_EH
	DD	imagerel $cppxdata$?initConfig@CScheduler@@QEAA_NPEADH0@Z
	DD	08aH
$stateUnwindMap$?initConfig@CScheduler@@QEAA_NPEADH0@Z DD 0ffffffffH
	DD	imagerel ?dtor$0@?0??initConfig@CScheduler@@QEAA_NPEADH0@Z@4HA
$ip2state$?initConfig@CScheduler@@QEAA_NPEADH0@Z DD imagerel ?initConfig@CScheduler@@QEAA_NPEADH0@Z
	DD	0ffffffffH
	DD	imagerel ?initConfig@CScheduler@@QEAA_NPEADH0@Z+271
	DD	00H
	DD	imagerel ?initConfig@CScheduler@@QEAA_NPEADH0@Z+330
	DD	0ffffffffH
$unwind$?dtor$0@?0??initConfig@CScheduler@@QEAA_NPEADH0@Z@4HA DD 031001H
	DD	0700c4210H
	DD	0500bH
$unwind$?init@CScheduler@@QEAA_NHHH@Z DD 023511H
	DD	07014b218H
	DD	imagerel __CxxFrameHandler3
	DD	imagerel $cppxdata$?init@CScheduler@@QEAA_NHHH@Z
$stateUnwindMap$?init@CScheduler@@QEAA_NHHH@Z DD 0ffffffffH
	DD	imagerel ?dtor$0@?0??init@CScheduler@@QEAA_NHHH@Z@4HA
$ip2state$?init@CScheduler@@QEAA_NHHH@Z DD imagerel ?init@CScheduler@@QEAA_NHHH@Z
	DD	0ffffffffH
	DD	imagerel ?init@CScheduler@@QEAA_NHHH@Z+126
	DD	00H
	DD	imagerel ?init@CScheduler@@QEAA_NHHH@Z+185
	DD	0ffffffffH
$unwind$?dtor$0@?0??init@CScheduler@@QEAA_NHHH@Z@4HA DD 031001H
	DD	0700c4210H
	DD	0500bH
$unwind$?start@CScheduler@@QEAA_NXZ DD 021e01H
	DD	07006520aH
$unwind$?quit@CScheduler@@QEAA_NXZ DD 021e01H
	DD	07006720aH
$unwind$?eventThreadLoop@@YAXPEAUSTThreadInfo@@@Z DD 021e01H
	DD	07006520aH
$unwind$??0CComQueueThread@@QEAA@XZ DD 022711H
	DD	07006520aH
	DD	imagerel __CxxFrameHandler3
	DD	imagerel $cppxdata$??0CComQueueThread@@QEAA@XZ
$stateUnwindMap$??0CComQueueThread@@QEAA@XZ DD 0ffffffffH
	DD	imagerel ?dtor$0@?0???0CComQueueThread@@QEAA@XZ@4HA
$ip2state$??0CComQueueThread@@QEAA@XZ DD imagerel ??0CComQueueThread@@QEAA@XZ
	DD	0ffffffffH
	DD	imagerel ??0CComQueueThread@@QEAA@XZ+53
	DD	00H
	DD	imagerel ??0CComQueueThread@@QEAA@XZ+71
	DD	0ffffffffH
$unwind$?dtor$0@?0???0CComQueueThread@@QEAA@XZ@4HA DD 031001H
	DD	0700c4210H
	DD	0500bH
$unwind$??1CComQueueThread@@QEAA@XZ DD 022719H
	DD	07006520aH
	DD	imagerel __CxxFrameHandler3
	DD	imagerel $cppxdata$??1CComQueueThread@@QEAA@XZ
$ip2state$??1CComQueueThread@@QEAA@XZ DD imagerel ??1CComQueueThread@@QEAA@XZ
	DD	0ffffffffH
$unwind$?initConfig@CComQueueThread@@QEAA_NPEADH0@Z DD 023c19H
	DD	07015b219H
	DD	imagerel __GSHandlerCheck
	DD	050H
$unwind$?init@CComQueueThread@@QEAA_NHH@Z DD 022701H
	DD	0700f3213H
$unwind$?start@CComQueueThread@@QEAA_NXZ DD 021e01H
	DD	07006520aH
$unwind$?quit@CComQueueThread@@QEAA_NXZ DD 021e01H
	DD	07006320aH
$unwind$??0CCoreList@@QEAA@XZ DD 022711H
	DD	07006720aH
	DD	imagerel __CxxFrameHandler3
	DD	imagerel $cppxdata$??0CCoreList@@QEAA@XZ
$stateUnwindMap$??0CCoreList@@QEAA@XZ DD 0ffffffffH
	DD	imagerel ?dtor$0@?0???0CCoreList@@QEAA@XZ@4HA
$ip2state$??0CCoreList@@QEAA@XZ DD imagerel ??0CCoreList@@QEAA@XZ
	DD	0ffffffffH
	DD	imagerel ??0CCoreList@@QEAA@XZ+138
	DD	00H
	DD	imagerel ??0CCoreList@@QEAA@XZ+182
	DD	0ffffffffH
$unwind$?dtor$0@?0???0CCoreList@@QEAA@XZ@4HA DD 031001H
	DD	0700c4210H
	DD	0500bH
$unwind$??1CCoreList@@QEAA@XZ DD 022719H
	DD	07006520aH
	DD	imagerel __CxxFrameHandler3
	DD	imagerel $cppxdata$??1CCoreList@@QEAA@XZ
$ip2state$??1CCoreList@@QEAA@XZ DD imagerel ??1CCoreList@@QEAA@XZ
	DD	0ffffffffH
$unwind$?initSystemFile@CCoreList@@QEAA_NXZ DD 033619H
	DD	022010dH
	DD	07006H
	DD	imagerel __GSHandlerCheck
	DD	0100H
$unwind$?initDefaultPool@CCoreList@@QEAA_NHHH@Z DD 034419H
	DD	018011bH
	DD	07014H
	DD	imagerel __GSHandlerCheck
	DD	0b0H
$unwind$?initLogger@CCoreList@@QEAA_NPEAVCLogger@@PEAD1@Z DD 022d01H
	DD	070159219H
$unwind$?initLogger@CCoreList@@QEAA_NPEAVCLogger@@@Z DD 022301H
	DD	0700b520fH
$unwind$?setLoggerEnable@CCoreList@@QEAA_NPEAVCLogger@@@Z DD 022301H
	DD	0700b520fH
$unwind$?setLoggerDisable@CCoreList@@QEAA_NPEAVCLogger@@@Z DD 022301H
	DD	0700b520fH
$unwind$?start@CCoreList@@QEAA_NXZ DD 034219H
	DD	020010dH
	DD	07006H
	DD	imagerel __GSHandlerCheck_EH
	DD	imagerel $cppxdata$?start@CCoreList@@QEAA_NXZ
	DD	0f2H
$stateUnwindMap$?start@CCoreList@@QEAA_NXZ DD 0ffffffffH
	DD	imagerel ?dtor$0@?0??start@CCoreList@@QEAA_NXZ@4HA
$ip2state$?start@CCoreList@@QEAA_NXZ DD imagerel ?start@CCoreList@@QEAA_NXZ
	DD	0ffffffffH
	DD	imagerel ?start@CCoreList@@QEAA_NXZ+85
	DD	00H
	DD	imagerel ?start@CCoreList@@QEAA_NXZ+690
	DD	0ffffffffH
	DD	imagerel ?start@CCoreList@@QEAA_NXZ+710
	DD	00H
	DD	imagerel ?start@CCoreList@@QEAA_NXZ+731
	DD	0ffffffffH
$unwind$?dtor$0@?0??start@CCoreList@@QEAA_NXZ@4HA DD 031001H
	DD	0700c4210H
	DD	0500bH
$unwind$?destroy@CCoreList@@QEAAXXZ DD 032401H
	DD	016010dH
	DD	07006H
$unwind$?putEvent@CCoreList@@QEAA_NPEAUSTEvent@@@Z DD 022301H
	DD	0700b520fH
$unwind$?putTimer@CCoreList@@QEAA_NPEAUSTIntervalInfo@@@Z DD 022301H
	DD	0700b520fH
$unwind$?addComThread@CCoreList@@QEAAHP6AXPEAUSTThreadInfo@@@ZPEAXH2@Z DD 035119H
	DD	014011cH
	DD	07015H
	DD	imagerel __GSHandlerCheck_EH
	DD	imagerel $cppxdata$?addComThread@CCoreList@@QEAAHP6AXPEAUSTThreadInfo@@@ZPEAXH2@Z
	DD	09aH
$stateUnwindMap$?addComThread@CCoreList@@QEAAHP6AXPEAUSTThreadInfo@@@ZPEAXH2@Z DD 0ffffffffH
	DD	imagerel ?dtor$0@?0??addComThread@CCoreList@@QEAAHP6AXPEAUSTThreadInfo@@@ZPEAXH2@Z@4HA
$ip2state$?addComThread@CCoreList@@QEAAHP6AXPEAUSTThreadInfo@@@ZPEAXH2@Z DD imagerel ?addComThread@CCoreList@@QEAAHP6AXPEAUSTThreadInfo@@@ZPEAXH2@Z
	DD	0ffffffffH
	DD	imagerel ?addComThread@CCoreList@@QEAAHP6AXPEAUSTThreadInfo@@@ZPEAXH2@Z+153
	DD	00H
	DD	imagerel ?addComThread@CCoreList@@QEAAHP6AXPEAUSTThreadInfo@@@ZPEAXH2@Z+206
	DD	0ffffffffH
$unwind$?dtor$0@?0??addComThread@CCoreList@@QEAAHP6AXPEAUSTThreadInfo@@@ZPEAXH2@Z@4HA DD 031001H
	DD	0700c4210H
	DD	0500bH
$unwind$?delComThread@CCoreList@@QEAA_NH@Z DD 022201H
	DD	0700a720eH
$unwind$?addLogWriter@CCoreList@@QEAAHH@Z DD 034319H
	DD	0120111H
	DD	0700aH
	DD	imagerel __GSHandlerCheck_EH
	DD	imagerel $cppxdata$?addLogWriter@CCoreList@@QEAAHH@Z
	DD	082H
$stateUnwindMap$?addLogWriter@CCoreList@@QEAAHH@Z DD 0ffffffffH
	DD	imagerel ?dtor$0@?0??addLogWriter@CCoreList@@QEAAHH@Z@4HA
$ip2state$?addLogWriter@CCoreList@@QEAAHH@Z DD imagerel ?addLogWriter@CCoreList@@QEAAHH@Z
	DD	0ffffffffH
	DD	imagerel ?addLogWriter@CCoreList@@QEAAHH@Z+138
	DD	00H
	DD	imagerel ?addLogWriter@CCoreList@@QEAAHH@Z+182
	DD	0ffffffffH
$unwind$?dtor$0@?0??addLogWriter@CCoreList@@QEAAHH@Z@4HA DD 031001H
	DD	0700c4210H
	DD	0500bH
$unwind$?addScheduler@CCoreList@@QEAAHHH@Z DD 034819H
	DD	0140116H
	DD	0700fH
	DD	imagerel __GSHandlerCheck_EH
	DD	imagerel $cppxdata$?addScheduler@CCoreList@@QEAAHHH@Z
	DD	092H
$stateUnwindMap$?addScheduler@CCoreList@@QEAAHHH@Z DD 0ffffffffH
	DD	imagerel ?dtor$0@?0??addScheduler@CCoreList@@QEAAHHH@Z@4HA
$ip2state$?addScheduler@CCoreList@@QEAAHHH@Z DD imagerel ?addScheduler@CCoreList@@QEAAHHH@Z
	DD	0ffffffffH
	DD	imagerel ?addScheduler@CCoreList@@QEAAHHH@Z+147
	DD	00H
	DD	imagerel ?addScheduler@CCoreList@@QEAAHHH@Z+200
	DD	0ffffffffH
$unwind$?dtor$0@?0??addScheduler@CCoreList@@QEAAHHH@Z@4HA DD 031001H
	DD	0700c4210H
	DD	0500bH
$unwind$?addQueueThread@CCoreList@@QEAAHH@Z DD 034319H
	DD	0120111H
	DD	0700aH
	DD	imagerel __GSHandlerCheck_EH
	DD	imagerel $cppxdata$?addQueueThread@CCoreList@@QEAAHH@Z
	DD	082H
$stateUnwindMap$?addQueueThread@CCoreList@@QEAAHH@Z DD 0ffffffffH
	DD	imagerel ?dtor$0@?0??addQueueThread@CCoreList@@QEAAHH@Z@4HA
$ip2state$?addQueueThread@CCoreList@@QEAAHH@Z DD imagerel ?addQueueThread@CCoreList@@QEAAHH@Z
	DD	0ffffffffH
	DD	imagerel ?addQueueThread@CCoreList@@QEAAHH@Z+142
	DD	00H
	DD	imagerel ?addQueueThread@CCoreList@@QEAAHH@Z+186
	DD	0ffffffffH
$unwind$?dtor$0@?0??addQueueThread@CCoreList@@QEAAHH@Z@4HA DD 031001H
	DD	0700c4210H
	DD	0500bH
$unwind$?initComThread@CCoreList@@QEAA_NPEAD0@Z DD 034919H
	DD	0140117H
	DD	07010H
	DD	imagerel __GSHandlerCheck_EH
	DD	imagerel $cppxdata$?initComThread@CCoreList@@QEAA_NPEAD0@Z
	DD	092H
$stateUnwindMap$?initComThread@CCoreList@@QEAA_NPEAD0@Z DD 0ffffffffH
	DD	imagerel ?dtor$0@?0??initComThread@CCoreList@@QEAA_NPEAD0@Z@4HA
	DD	0ffffffffH
	DD	imagerel ?dtor$1@?0??initComThread@CCoreList@@QEAA_NPEAD0@Z@4HA
$ip2state$?initComThread@CCoreList@@QEAA_NPEAD0@Z DD imagerel ?initComThread@CCoreList@@QEAA_NPEAD0@Z
	DD	0ffffffffH
	DD	imagerel ?initComThread@CCoreList@@QEAA_NPEAD0@Z+154
	DD	00H
	DD	imagerel ?initComThread@CCoreList@@QEAA_NPEAD0@Z+222
	DD	0ffffffffH
	DD	imagerel ?initComThread@CCoreList@@QEAA_NPEAD0@Z+360
	DD	01H
	DD	imagerel ?initComThread@CCoreList@@QEAA_NPEAD0@Z+413
	DD	0ffffffffH
$unwind$?dtor$0@?0??initComThread@CCoreList@@QEAA_NPEAD0@Z@4HA DD 031001H
	DD	0700c4210H
	DD	0500bH
$unwind$?dtor$1@?0??initComThread@CCoreList@@QEAA_NPEAD0@Z@4HA DD 031001H
	DD	0700c4210H
	DD	0500bH
$unwind$?initLogWriter@CCoreList@@QEAA_NPEAD0_N@Z DD 035119H
	DD	026011cH
	DD	07015H
	DD	imagerel __GSHandlerCheck_EH
	DD	imagerel $cppxdata$?initLogWriter@CCoreList@@QEAA_NPEAD0_N@Z
	DD	012aH
$stateUnwindMap$?initLogWriter@CCoreList@@QEAA_NPEAD0_N@Z DD 0ffffffffH
	DD	imagerel ?dtor$0@?0??initLogWriter@CCoreList@@QEAA_NPEAD0_N@Z@4HA
	DD	0ffffffffH
	DD	imagerel ?dtor$1@?0??initLogWriter@CCoreList@@QEAA_NPEAD0_N@Z@4HA
$ip2state$?initLogWriter@CCoreList@@QEAA_NPEAD0_N@Z DD imagerel ?initLogWriter@CCoreList@@QEAA_NPEAD0_N@Z
	DD	0ffffffffH
	DD	imagerel ?initLogWriter@CCoreList@@QEAA_NPEAD0_N@Z+167
	DD	00H
	DD	imagerel ?initLogWriter@CCoreList@@QEAA_NPEAD0_N@Z+247
	DD	0ffffffffH
	DD	imagerel ?initLogWriter@CCoreList@@QEAA_NPEAD0_N@Z+414
	DD	01H
	DD	imagerel ?initLogWriter@CCoreList@@QEAA_NPEAD0_N@Z+476
	DD	0ffffffffH
$unwind$?dtor$0@?0??initLogWriter@CCoreList@@QEAA_NPEAD0_N@Z@4HA DD 031001H
	DD	0700c4210H
	DD	0500bH
$unwind$?dtor$1@?0??initLogWriter@CCoreList@@QEAA_NPEAD0_N@Z@4HA DD 031001H
	DD	0700c4210H
	DD	0500bH
$unwind$?initScheduler@CCoreList@@QEAA_NPEAD0@Z DD 034c19H
	DD	02a0117H
	DD	07010H
	DD	imagerel __GSHandlerCheck_EH
	DD	imagerel $cppxdata$?initScheduler@CCoreList@@QEAA_NPEAD0@Z
	DD	0142H
$stateUnwindMap$?initScheduler@CCoreList@@QEAA_NPEAD0@Z DD 0ffffffffH
	DD	imagerel ?dtor$0@?0??initScheduler@CCoreList@@QEAA_NPEAD0@Z@4HA
	DD	0ffffffffH
	DD	imagerel ?dtor$1@?0??initScheduler@CCoreList@@QEAA_NPEAD0@Z@4HA
	DD	0ffffffffH
	DD	imagerel ?dtor$2@?0??initScheduler@CCoreList@@QEAA_NPEAD0@Z@4HA
$ip2state$?initScheduler@CCoreList@@QEAA_NPEAD0@Z DD imagerel ?initScheduler@CCoreList@@QEAA_NPEAD0@Z
	DD	0ffffffffH
	DD	imagerel ?initScheduler@CCoreList@@QEAA_NPEAD0@Z+167
	DD	00H
	DD	imagerel ?initScheduler@CCoreList@@QEAA_NPEAD0@Z+229
	DD	0ffffffffH
	DD	imagerel ?initScheduler@CCoreList@@QEAA_NPEAD0@Z+465
	DD	01H
	DD	imagerel ?initScheduler@CCoreList@@QEAA_NPEAD0@Z+527
	DD	0ffffffffH
	DD	imagerel ?initScheduler@CCoreList@@QEAA_NPEAD0@Z+660
	DD	02H
	DD	imagerel ?initScheduler@CCoreList@@QEAA_NPEAD0@Z+722
	DD	0ffffffffH
$unwind$?dtor$0@?0??initScheduler@CCoreList@@QEAA_NPEAD0@Z@4HA DD 031001H
	DD	0700c4210H
	DD	0500bH
$unwind$?dtor$1@?0??initScheduler@CCoreList@@QEAA_NPEAD0@Z@4HA DD 031001H
	DD	0700c4210H
	DD	0500bH
$unwind$?dtor$2@?0??initScheduler@CCoreList@@QEAA_NPEAD0@Z@4HA DD 031001H
	DD	0700c4210H
	DD	0500bH
$unwind$?initQueueThread@CCoreList@@QEAA_NPEAD0@Z DD 034c19H
	DD	0160117H
	DD	07010H
	DD	imagerel __GSHandlerCheck_EH
	DD	imagerel $cppxdata$?initQueueThread@CCoreList@@QEAA_NPEAD0@Z
	DD	0aaH
$stateUnwindMap$?initQueueThread@CCoreList@@QEAA_NPEAD0@Z DD 0ffffffffH
	DD	imagerel ?dtor$0@?0??initQueueThread@CCoreList@@QEAA_NPEAD0@Z@4HA
	DD	0ffffffffH
	DD	imagerel ?dtor$1@?0??initQueueThread@CCoreList@@QEAA_NPEAD0@Z@4HA
	DD	0ffffffffH
	DD	imagerel ?dtor$2@?0??initQueueThread@CCoreList@@QEAA_NPEAD0@Z@4HA
$ip2state$?initQueueThread@CCoreList@@QEAA_NPEAD0@Z DD imagerel ?initQueueThread@CCoreList@@QEAA_NPEAD0@Z
	DD	0ffffffffH
	DD	imagerel ?initQueueThread@CCoreList@@QEAA_NPEAD0@Z+138
	DD	00H
	DD	imagerel ?initQueueThread@CCoreList@@QEAA_NPEAD0@Z+206
	DD	0ffffffffH
	DD	imagerel ?initQueueThread@CCoreList@@QEAA_NPEAD0@Z+340
	DD	01H
	DD	imagerel ?initQueueThread@CCoreList@@QEAA_NPEAD0@Z+408
	DD	0ffffffffH
	DD	imagerel ?initQueueThread@CCoreList@@QEAA_NPEAD0@Z+538
	DD	02H
	DD	imagerel ?initQueueThread@CCoreList@@QEAA_NPEAD0@Z+597
	DD	0ffffffffH
$unwind$?dtor$0@?0??initQueueThread@CCoreList@@QEAA_NPEAD0@Z@4HA DD 031001H
	DD	0700c4210H
	DD	0500bH
$unwind$?dtor$1@?0??initQueueThread@CCoreList@@QEAA_NPEAD0@Z@4HA DD 031001H
	DD	0700c4210H
	DD	0500bH
$unwind$?dtor$2@?0??initQueueThread@CCoreList@@QEAA_NPEAD0@Z@4HA DD 031001H
	DD	0700c4210H
	DD	0500bH
$unwind$?initComThread@CCoreList@@QEAA_NH@Z DD 034619H
	DD	01e0111H
	DD	0700aH
	DD	imagerel __GSHandlerCheck_EH
	DD	imagerel $cppxdata$?initComThread@CCoreList@@QEAA_NH@Z
	DD	0e2H
$stateUnwindMap$?initComThread@CCoreList@@QEAA_NH@Z DD 0ffffffffH
	DD	imagerel ?dtor$0@?0??initComThread@CCoreList@@QEAA_NH@Z@4HA
$ip2state$?initComThread@CCoreList@@QEAA_NH@Z DD imagerel ?initComThread@CCoreList@@QEAA_NH@Z
	DD	0ffffffffH
	DD	imagerel ?initComThread@CCoreList@@QEAA_NH@Z+114
	DD	00H
	DD	imagerel ?initComThread@CCoreList@@QEAA_NH@Z+176
	DD	0ffffffffH
$unwind$?dtor$0@?0??initComThread@CCoreList@@QEAA_NH@Z@4HA DD 031001H
	DD	0700c4210H
	DD	0500bH
$unwind$?initLogWriter@CCoreList@@QEAA_NH@Z DD 034619H
	DD	01e0111H
	DD	0700aH
	DD	imagerel __GSHandlerCheck_EH
	DD	imagerel $cppxdata$?initLogWriter@CCoreList@@QEAA_NH@Z
	DD	0e2H
$stateUnwindMap$?initLogWriter@CCoreList@@QEAA_NH@Z DD 0ffffffffH
	DD	imagerel ?dtor$0@?0??initLogWriter@CCoreList@@QEAA_NH@Z@4HA
$ip2state$?initLogWriter@CCoreList@@QEAA_NH@Z DD imagerel ?initLogWriter@CCoreList@@QEAA_NH@Z
	DD	0ffffffffH
	DD	imagerel ?initLogWriter@CCoreList@@QEAA_NH@Z+113
	DD	00H
	DD	imagerel ?initLogWriter@CCoreList@@QEAA_NH@Z+175
	DD	0ffffffffH
$unwind$?dtor$0@?0??initLogWriter@CCoreList@@QEAA_NH@Z@4HA DD 031001H
	DD	0700c4210H
	DD	0500bH
$unwind$?initScheduler@CCoreList@@QEAA_NHH@Z DD 034b19H
	DD	0200116H
	DD	0700fH
	DD	imagerel __GSHandlerCheck_EH
	DD	imagerel $cppxdata$?initScheduler@CCoreList@@QEAA_NHH@Z
	DD	0faH
$stateUnwindMap$?initScheduler@CCoreList@@QEAA_NHH@Z DD 0ffffffffH
	DD	imagerel ?dtor$0@?0??initScheduler@CCoreList@@QEAA_NHH@Z@4HA
	DD	0ffffffffH
	DD	imagerel ?dtor$1@?0??initScheduler@CCoreList@@QEAA_NHH@Z@4HA
$ip2state$?initScheduler@CCoreList@@QEAA_NHH@Z DD imagerel ?initScheduler@CCoreList@@QEAA_NHH@Z
	DD	0ffffffffH
	DD	imagerel ?initScheduler@CCoreList@@QEAA_NHH@Z+112
	DD	00H
	DD	imagerel ?initScheduler@CCoreList@@QEAA_NHH@Z+192
	DD	0ffffffffH
	DD	imagerel ?initScheduler@CCoreList@@QEAA_NHH@Z+359
	DD	01H
	DD	imagerel ?initScheduler@CCoreList@@QEAA_NHH@Z+439
	DD	0ffffffffH
$unwind$?dtor$0@?0??initScheduler@CCoreList@@QEAA_NHH@Z@4HA DD 031001H
	DD	0700c4210H
	DD	0500bH
$unwind$?dtor$1@?0??initScheduler@CCoreList@@QEAA_NHH@Z@4HA DD 031001H
	DD	0700c4210H
	DD	0500bH
$unwind$?initQueueThread@CCoreList@@QEAA_NHH@Z DD 034b19H
	DD	0200116H
	DD	0700fH
	DD	imagerel __GSHandlerCheck_EH
	DD	imagerel $cppxdata$?initQueueThread@CCoreList@@QEAA_NHH@Z
	DD	0faH
$stateUnwindMap$?initQueueThread@CCoreList@@QEAA_NHH@Z DD 0ffffffffH
	DD	imagerel ?dtor$0@?0??initQueueThread@CCoreList@@QEAA_NHH@Z@4HA
	DD	0ffffffffH
	DD	imagerel ?dtor$1@?0??initQueueThread@CCoreList@@QEAA_NHH@Z@4HA
$ip2state$?initQueueThread@CCoreList@@QEAA_NHH@Z DD imagerel ?initQueueThread@CCoreList@@QEAA_NHH@Z
	DD	0ffffffffH
	DD	imagerel ?initQueueThread@CCoreList@@QEAA_NHH@Z+112
	DD	00H
	DD	imagerel ?initQueueThread@CCoreList@@QEAA_NHH@Z+192
	DD	0ffffffffH
	DD	imagerel ?initQueueThread@CCoreList@@QEAA_NHH@Z+359
	DD	01H
	DD	imagerel ?initQueueThread@CCoreList@@QEAA_NHH@Z+439
	DD	0ffffffffH
$unwind$?dtor$0@?0??initQueueThread@CCoreList@@QEAA_NHH@Z@4HA DD 031001H
	DD	0700c4210H
	DD	0500bH
$unwind$?dtor$1@?0??initQueueThread@CCoreList@@QEAA_NHH@Z@4HA DD 031001H
	DD	0700c4210H
	DD	0500bH
$unwind$?setListAllocType@CCoreList@@QEAAXW4E_ALLOC_TYPE@@W4E_SYS_LIST_TYPE@@@Z DD 022701H
	DD	0700f5213H
xdata	ENDS
;	COMDAT xdata
xdata	SEGMENT
$unwind$??1STThreadInfo@@QEAA@XZ DD 021e01H
	DD	07006320aH
xdata	ENDS
;	COMDAT xdata
xdata	SEGMENT
$unwind$??0STThreadInfo@@QEAA@XZ DD 021e01H
	DD	07006320aH
xdata	ENDS
;	COMDAT xdata
xdata	SEGMENT
$ip2state$??_ECLogger@@QEAAPEAXI@Z DD imagerel ??_ECLogger@@QEAAPEAXI@Z
	DD	0ffffffffH
xdata	ENDS
;	COMDAT CONST
CONST	SEGMENT
$cppxdata$??_ECLogger@@QEAAPEAXI@Z DD 019930522H
	DD	00H
	DD	00H
	DD	00H
	DD	00H
	DD	01H
	DD	imagerel $ip2state$??_ECLogger@@QEAAPEAXI@Z
	DD	020H
	DD	00H
	DD	05H
CONST	ENDS
;	COMDAT xdata
xdata	SEGMENT
$unwind$??_ECLogger@@QEAAPEAXI@Z DD 022b19H
	DD	0700a520eH
	DD	imagerel __CxxFrameHandler3
	DD	imagerel $cppxdata$??_ECLogger@@QEAAPEAXI@Z
xdata	ENDS
;	COMDAT xdata
xdata	SEGMENT
$unwind$??_GCLogger@@QEAAPEAXI@Z DD 022201H
	DD	0700a320eH
xdata	ENDS
;	COMDAT xdata
xdata	SEGMENT
$unwind$?setCondition@CLogger@@QEAAXPEAVcondition@win32@common@@@Z DD 010b01H
	DD	0700bH
xdata	ENDS
;	COMDAT xdata
xdata	SEGMENT
$unwind$?getLogName@CLogger@@QEAAPEADXZ DD 010601H
	DD	07006H
xdata	ENDS
;	COMDAT xdata
xdata	SEGMENT
$unwind$?pop@CLogger@@QEAAPEADXZ DD 021e01H
	DD	07006320aH
xdata	ENDS
;	COMDAT xdata
xdata	SEGMENT
$unwind$?isLogFlag@CLogger@@QEAA_NW4E_LOG_FLAG@@@Z DD 022201H
	DD	0700a120eH
xdata	ENDS
;	COMDAT xdata
xdata	SEGMENT
$unwind$?clearLogFlag@CLogger@@QEAAXW4E_LOG_FLAG@@@Z DD 010a01H
	DD	0700aH
xdata	ENDS
;	COMDAT xdata
xdata	SEGMENT
$unwind$?setLogFlag@CLogger@@QEAAXW4E_LOG_FLAG@@@Z DD 010a01H
	DD	0700aH
xdata	ENDS
;	COMDAT xdata
xdata	SEGMENT
$unwind$?getSTLNo@CLogger@@QEAAHXZ DD 010601H
	DD	07006H
xdata	ENDS
;	COMDAT xdata
xdata	SEGMENT
$unwind$?addLogSize@CLogger@@QEAAXH@Z DD 010a01H
	DD	0700aH
xdata	ENDS
;	COMDAT xdata
xdata	SEGMENT
$unwind$?delBuf@CMemManager@@QEAAXPEADH@Z DD 022801H
	DD	070105214H
xdata	ENDS
;	COMDAT xdata
xdata	SEGMENT
$unwind$?newBuf@CMemManager@@QEAAPEADH@Z DD 022201H
	DD	0700a520eH
xdata	ENDS
;	COMDAT xdata
xdata	SEGMENT
$unwind$?getIndex@@YAHH@Z DD 021c01H
	DD	070059209H
xdata	ENDS
;	COMDAT CONST
CONST	SEGMENT
?getIndex@@YAHH@Z$rtcName$0 DB 024H			; getIndex
	DB	053H
	DB	031H
	DB	00H
	ORG $+12
?getIndex@@YAHH@Z$rtcVarDesc DD 038H			; getIndex
	DD	08H
	DQ	FLAT:?getIndex@@YAHH@Z$rtcName$0
	ORG $+48
?getIndex@@YAHH@Z$rtcFrameData DD 01H			; getIndex
	DD	00H
	DQ	FLAT:?getIndex@@YAHH@Z$rtcVarDesc
CONST	ENDS
;	COMDAT xdata
xdata	SEGMENT
$unwind$?Sec@CDateTime@@QEAAHXZ DD 010601H
	DD	07006H
xdata	ENDS
;	COMDAT xdata
xdata	SEGMENT
$unwind$?Minute@CDateTime@@QEAAHXZ DD 010601H
	DD	07006H
xdata	ENDS
;	COMDAT xdata
xdata	SEGMENT
$unwind$?Hour@CDateTime@@QEAAHXZ DD 010601H
	DD	07006H
xdata	ENDS
;	COMDAT xdata
xdata	SEGMENT
$unwind$?Mday@CDateTime@@QEAAHXZ DD 010601H
	DD	07006H
xdata	ENDS
;	COMDAT xdata
xdata	SEGMENT
$unwind$?Month@CDateTime@@QEAAHXZ DD 010601H
	DD	07006H
xdata	ENDS
;	COMDAT xdata
xdata	SEGMENT
$unwind$?Year@CDateTime@@QEAAHXZ DD 010601H
	DD	07006H
xdata	ENDS
;	COMDAT xdata
xdata	SEGMENT
$unwind$??_GCQueueS@@QEAAPEAXI@Z DD 022201H
	DD	0700a320eH
xdata	ENDS
;	COMDAT xdata
xdata	SEGMENT
$unwind$?__autoclassinit2@CQueueS@@QEAAX_K@Z DD 010b01H
	DD	0700bH
xdata	ENDS
;	COMDAT xdata
xdata	SEGMENT
$unwind$?comGlobalErrorProc@@YAXPEADPEBDH@Z DD 022801H
	DD	070105214H
xdata	ENDS
;	COMDAT xdata
xdata	SEGMENT
$unwind$?ISINCLUDE@@YA_NHH@Z DD 010901H
	DD	07009H
xdata	ENDS
;	COMDAT xdata
xdata	SEGMENT
$unwind$?ISABLETODELETE@@YA_NW4E_ALLOC_TYPE@@@Z DD 010501H
	DD	07005H
xdata	ENDS
;	COMDAT xdata
xdata	SEGMENT
$ip2state$??_Ewin64_atomic@win32@common@@QEAAPEAXI@Z DD imagerel ??_Ewin64_atomic@win32@common@@QEAAPEAXI@Z
	DD	0ffffffffH
xdata	ENDS
;	COMDAT CONST
CONST	SEGMENT
$cppxdata$??_Ewin64_atomic@win32@common@@QEAAPEAXI@Z DD 019930522H
	DD	00H
	DD	00H
	DD	00H
	DD	00H
	DD	01H
	DD	imagerel $ip2state$??_Ewin64_atomic@win32@common@@QEAAPEAXI@Z
	DD	020H
	DD	00H
	DD	05H
CONST	ENDS
;	COMDAT xdata
xdata	SEGMENT
$unwind$??_Ewin64_atomic@win32@common@@QEAAPEAXI@Z DD 022b19H
	DD	0700a520eH
	DD	imagerel __CxxFrameHandler3
	DD	imagerel $cppxdata$??_Ewin64_atomic@win32@common@@QEAAPEAXI@Z
xdata	ENDS
;	COMDAT xdata
xdata	SEGMENT
$unwind$?atomic_compare_exchange@win64_atomic@win32@common@@QEAA_J_J0@Z DD 022801H
	DD	070101214H
xdata	ENDS
;	COMDAT xdata
xdata	SEGMENT
$unwind$?atomic_decrement@win64_atomic@win32@common@@QEAA_JXZ DD 010601H
	DD	07006H
xdata	ENDS
;	COMDAT xdata
xdata	SEGMENT
$unwind$?atomic_increment@win64_atomic@win32@common@@QEAA_JXZ DD 010601H
	DD	07006H
xdata	ENDS
;	COMDAT xdata
xdata	SEGMENT
$unwind$?init@win64_atomic@win32@common@@QEAAXXZ DD 010601H
	DD	07006H
xdata	ENDS
;	COMDAT xdata
xdata	SEGMENT
$unwind$?setCount@win64_atomic@win32@common@@QEAAXH@Z DD 010a01H
	DD	0700aH
xdata	ENDS
;	COMDAT xdata
xdata	SEGMENT
$unwind$?getCount@win64_atomic@win32@common@@QEAAHXZ DD 010601H
	DD	07006H
xdata	ENDS
;	COMDAT xdata
xdata	SEGMENT
$unwind$??1win64_atomic@win32@common@@QEAA@XZ DD 010601H
	DD	07006H
xdata	ENDS
;	COMDAT xdata
xdata	SEGMENT
$unwind$??0win64_atomic@win32@common@@QEAA@XZ DD 010601H
	DD	07006H
xdata	ENDS
;	COMDAT xdata
xdata	SEGMENT
$unwind$??_Gcondition@win32@common@@UEAAPEAXI@Z DD 022201H
	DD	0700a320eH
xdata	ENDS
;	COMDAT xdata
xdata	SEGMENT
$unwind$?wait@condition@win32@common@@QEAA_NHPEAVcritical_section@23@@Z DD 022701H
	DD	0700f5213H
xdata	ENDS
;	COMDAT xdata
xdata	SEGMENT
$unwind$?signal_all@condition@win32@common@@UEAAXXZ DD 021e01H
	DD	07006320aH
xdata	ENDS
;	COMDAT xdata
xdata	SEGMENT
$unwind$?signal@condition@win32@common@@UEAAXXZ DD 021e01H
	DD	07006320aH
xdata	ENDS
;	COMDAT xdata
xdata	SEGMENT
$unwind$??1condition@win32@common@@UEAA@XZ DD 021e01H
	DD	07006320aH
xdata	ENDS
;	COMDAT xdata
xdata	SEGMENT
$unwind$??0condition@win32@common@@QEAA@XZ DD 021e01H
	DD	07006320aH
xdata	ENDS
;	COMDAT xdata
xdata	SEGMENT
$unwind$??_Gabstract_condition@common@@UEAAPEAXI@Z DD 022201H
	DD	0700a320eH
xdata	ENDS
;	COMDAT xdata
xdata	SEGMENT
$unwind$??0abstract_condition@common@@QEAA@XZ DD 010601H
	DD	07006H
xdata	ENDS
;	COMDAT xdata
xdata	SEGMENT
$unwind$??1abstract_condition@common@@UEAA@XZ DD 010601H
	DD	07006H
xdata	ENDS
;	COMDAT xdata
xdata	SEGMENT
$unwind$sprintf DD 023c19H
	DD	07015b219H
	DD	imagerel __GSHandlerCheck
	DD	050H
xdata	ENDS
;	COMDAT CONST
CONST	SEGMENT
sprintf$rtcName$0 DB 05fH
	DB	041H
	DB	072H
	DB	067H
	DB	04cH
	DB	069H
	DB	073H
	DB	074H
	DB	00H
	ORG $+7
sprintf$rtcVarDesc DD 038H
	DD	08H
	DQ	FLAT:sprintf$rtcName$0
	ORG $+48
sprintf$rtcFrameData DD 01H
	DD	00H
	DQ	FLAT:sprintf$rtcVarDesc
CONST	ENDS
;	COMDAT xdata
xdata	SEGMENT
$unwind$_vsprintf_l DD 022d01H
	DD	070155219H
xdata	ENDS
;	COMDAT xdata
xdata	SEGMENT
$unwind$_vsnprintf_l DD 022d01H
	DD	070157219H
xdata	ENDS
;	COMDAT xdata
xdata	SEGMENT
$unwind$printf DD 023c19H
	DD	07015b219H
	DD	imagerel __GSHandlerCheck
	DD	050H
xdata	ENDS
;	COMDAT CONST
CONST	SEGMENT
printf$rtcName$0 DB 05fH
	DB	041H
	DB	072H
	DB	067H
	DB	04cH
	DB	069H
	DB	073H
	DB	074H
	DB	00H
	ORG $+7
printf$rtcVarDesc DD 038H
	DD	08H
	DQ	FLAT:printf$rtcName$0
	ORG $+48
printf$rtcFrameData DD 01H
	DD	00H
	DQ	FLAT:printf$rtcVarDesc
CONST	ENDS
;	COMDAT xdata
xdata	SEGMENT
$unwind$??$__vcrt_va_start_verify_argument_type@QEBD@@YAXXZ DD 010201H
	DD	07002H
xdata	ENDS
;	COMDAT xdata
xdata	SEGMENT
$unwind$_vfprintf_l DD 022d01H
	DD	070155219H
xdata	ENDS
;	COMDAT xdata
xdata	SEGMENT
$unwind$__local_stdio_printf_options DD 010201H
	DD	07002H
xdata	ENDS
; Function compile flags: /Odtp /RTCsu
;	COMDAT ??_G?$CTList@VCComQueueThread@@@@QEAAPEAXI@Z
_TEXT	SEGMENT
this$ = 48
__flags$ = 56
??_G?$CTList@VCComQueueThread@@@@QEAAPEAXI@Z PROC	; CTList<CComQueueThread>::`scalar deleting destructor', COMDAT
$LN4:
  00000	89 54 24 10	 mov	 DWORD PTR [rsp+16], edx
  00004	48 89 4c 24 08	 mov	 QWORD PTR [rsp+8], rcx
  00009	57		 push	 rdi
  0000a	48 83 ec 20	 sub	 rsp, 32			; 00000020H
  0000e	48 8b fc	 mov	 rdi, rsp
  00011	b9 08 00 00 00	 mov	 ecx, 8
  00016	b8 cc cc cc cc	 mov	 eax, -858993460		; ccccccccH
  0001b	f3 ab		 rep stosd
  0001d	48 8b 4c 24 30	 mov	 rcx, QWORD PTR [rsp+48]
  00022	48 8b 4c 24 30	 mov	 rcx, QWORD PTR this$[rsp]
  00027	e8 00 00 00 00	 call	 ??1?$CTList@VCComQueueThread@@@@QEAA@XZ ; CTList<CComQueueThread>::~CTList<CComQueueThread>
  0002c	8b 44 24 38	 mov	 eax, DWORD PTR __flags$[rsp]
  00030	83 e0 01	 and	 eax, 1
  00033	85 c0		 test	 eax, eax
  00035	74 0f		 je	 SHORT $LN2@scalar
  00037	ba 20 00 00 00	 mov	 edx, 32			; 00000020H
  0003c	48 8b 4c 24 30	 mov	 rcx, QWORD PTR this$[rsp]
  00041	e8 00 00 00 00	 call	 ??3@YAXPEAX_K@Z		; operator delete
$LN2@scalar:
  00046	48 8b 44 24 30	 mov	 rax, QWORD PTR this$[rsp]
  0004b	48 83 c4 20	 add	 rsp, 32			; 00000020H
  0004f	5f		 pop	 rdi
  00050	c3		 ret	 0
??_G?$CTList@VCComQueueThread@@@@QEAAPEAXI@Z ENDP	; CTList<CComQueueThread>::`scalar deleting destructor'
_TEXT	ENDS
; Function compile flags: /Odtp /RTCsu
;	COMDAT ?__autoclassinit2@?$CTList@VCComQueueThread@@@@QEAAX_K@Z
_TEXT	SEGMENT
this$ = 16
classSize$ = 24
?__autoclassinit2@?$CTList@VCComQueueThread@@@@QEAAX_K@Z PROC ; CTList<CComQueueThread>::__autoclassinit2, COMDAT
$LN3:
  00000	48 89 54 24 10	 mov	 QWORD PTR [rsp+16], rdx
  00005	48 89 4c 24 08	 mov	 QWORD PTR [rsp+8], rcx
  0000a	57		 push	 rdi
  0000b	48 8b 7c 24 10	 mov	 rdi, QWORD PTR this$[rsp]
  00010	33 c0		 xor	 eax, eax
  00012	48 8b 4c 24 18	 mov	 rcx, QWORD PTR classSize$[rsp]
  00017	f3 aa		 rep stosb
  00019	5f		 pop	 rdi
  0001a	c3		 ret	 0
?__autoclassinit2@?$CTList@VCComQueueThread@@@@QEAAX_K@Z ENDP ; CTList<CComQueueThread>::__autoclassinit2
_TEXT	ENDS
; Function compile flags: /Odtp /RTCsu
; File e:\infinia-library-3.0\com\include\comtlist.h
;	COMDAT ?_DEL@?$CTList@VCComQueueThread@@@@AEAAXH@Z
_TEXT	SEGMENT
this$ = 16
i$ = 24
?_DEL@?$CTList@VCComQueueThread@@@@AEAAXH@Z PROC	; CTList<CComQueueThread>::_DEL, COMDAT

; 360  : 	inline void _DEL(int i) { m_pArray[i] = 0; m_nUse--; m_nDelIdx = i; }

$LN3:
  00000	89 54 24 10	 mov	 DWORD PTR [rsp+16], edx
  00004	48 89 4c 24 08	 mov	 QWORD PTR [rsp+8], rcx
  00009	57		 push	 rdi
  0000a	48 63 44 24 18	 movsxd	 rax, DWORD PTR i$[rsp]
  0000f	48 8b 4c 24 10	 mov	 rcx, QWORD PTR this$[rsp]
  00014	48 8b 09	 mov	 rcx, QWORD PTR [rcx]
  00017	48 c7 04 c1 00
	00 00 00	 mov	 QWORD PTR [rcx+rax*8], 0
  0001f	48 8b 44 24 10	 mov	 rax, QWORD PTR this$[rsp]
  00024	8b 40 08	 mov	 eax, DWORD PTR [rax+8]
  00027	ff c8		 dec	 eax
  00029	48 8b 4c 24 10	 mov	 rcx, QWORD PTR this$[rsp]
  0002e	89 41 08	 mov	 DWORD PTR [rcx+8], eax
  00031	48 8b 44 24 10	 mov	 rax, QWORD PTR this$[rsp]
  00036	8b 4c 24 18	 mov	 ecx, DWORD PTR i$[rsp]
  0003a	89 48 10	 mov	 DWORD PTR [rax+16], ecx
  0003d	5f		 pop	 rdi
  0003e	c3		 ret	 0
?_DEL@?$CTList@VCComQueueThread@@@@AEAAXH@Z ENDP	; CTList<CComQueueThread>::_DEL
_TEXT	ENDS
; Function compile flags: /Odtp /RTCsu
; File e:\infinia-library-3.0\com\include\comtlist.h
;	COMDAT ?__alloc@?$CTList@VCComQueueThread@@@@AEAAHH@Z
_TEXT	SEGMENT
pList$ = 32
this$ = 64
nMaxCount$ = 72
?__alloc@?$CTList@VCComQueueThread@@@@AEAAHH@Z PROC	; CTList<CComQueueThread>::__alloc, COMDAT

; 402  : {

$LN5:
  00000	89 54 24 10	 mov	 DWORD PTR [rsp+16], edx
  00004	48 89 4c 24 08	 mov	 QWORD PTR [rsp+8], rcx
  00009	57		 push	 rdi
  0000a	48 83 ec 30	 sub	 rsp, 48			; 00000030H
  0000e	48 8b fc	 mov	 rdi, rsp
  00011	b9 0c 00 00 00	 mov	 ecx, 12
  00016	b8 cc cc cc cc	 mov	 eax, -858993460		; ccccccccH
  0001b	f3 ab		 rep stosd
  0001d	48 8b 4c 24 40	 mov	 rcx, QWORD PTR [rsp+64]

; 403  : 	T** pList = (T**)calloc(nMaxCount, sizeof(T*));

  00022	48 63 44 24 48	 movsxd	 rax, DWORD PTR nMaxCount$[rsp]
  00027	ba 08 00 00 00	 mov	 edx, 8
  0002c	48 8b c8	 mov	 rcx, rax
  0002f	ff 15 00 00 00
	00		 call	 QWORD PTR __imp_calloc
  00035	48 89 44 24 20	 mov	 QWORD PTR pList$[rsp], rax

; 404  : 	if (!pList) {

  0003a	48 83 7c 24 20
	00		 cmp	 QWORD PTR pList$[rsp], 0
  00040	75 17		 jne	 SHORT $LN2@alloc

; 405  : 		_stprintf(g_szMessage, "pList calloc is NULL");

  00042	48 8d 15 00 00
	00 00		 lea	 rdx, OFFSET FLAT:$SG47152
  00049	48 8d 0d 00 00
	00 00		 lea	 rcx, OFFSET FLAT:?g_szMessage@@3PADA ; g_szMessage
  00050	e8 00 00 00 00	 call	 sprintf

; 406  : 		return 0;

  00055	33 c0		 xor	 eax, eax
  00057	eb 4c		 jmp	 SHORT $LN1@alloc
$LN2@alloc:

; 407  : 	}
; 408  : 	//_stprintf(g_szMessage, _T("CTList::__alloc list m_nMaxCount[%d]"), nMaxCount);
; 409  : 	if (m_pArray) {

  00059	48 8b 44 24 40	 mov	 rax, QWORD PTR this$[rsp]
  0005e	48 83 38 00	 cmp	 QWORD PTR [rax], 0
  00062	74 30		 je	 SHORT $LN3@alloc

; 410  : 		memcpy(pList, m_pArray, m_nMax * sizeof(T*));

  00064	48 8b 44 24 40	 mov	 rax, QWORD PTR this$[rsp]
  00069	48 63 40 14	 movsxd	 rax, DWORD PTR [rax+20]
  0006d	48 c1 e0 03	 shl	 rax, 3
  00071	4c 8b c0	 mov	 r8, rax
  00074	48 8b 44 24 40	 mov	 rax, QWORD PTR this$[rsp]
  00079	48 8b 10	 mov	 rdx, QWORD PTR [rax]
  0007c	48 8b 4c 24 20	 mov	 rcx, QWORD PTR pList$[rsp]
  00081	e8 00 00 00 00	 call	 memcpy

; 411  : 		free(m_pArray);

  00086	48 8b 44 24 40	 mov	 rax, QWORD PTR this$[rsp]
  0008b	48 8b 08	 mov	 rcx, QWORD PTR [rax]
  0008e	ff 15 00 00 00
	00		 call	 QWORD PTR __imp_free
$LN3@alloc:

; 412  : 	}
; 413  : 	m_pArray = pList;

  00094	48 8b 44 24 40	 mov	 rax, QWORD PTR this$[rsp]
  00099	48 8b 4c 24 20	 mov	 rcx, QWORD PTR pList$[rsp]
  0009e	48 89 08	 mov	 QWORD PTR [rax], rcx

; 414  : 	return nMaxCount;

  000a1	8b 44 24 48	 mov	 eax, DWORD PTR nMaxCount$[rsp]
$LN1@alloc:

; 415  : }

  000a5	48 83 c4 30	 add	 rsp, 48			; 00000030H
  000a9	5f		 pop	 rdi
  000aa	c3		 ret	 0
?__alloc@?$CTList@VCComQueueThread@@@@AEAAHH@Z ENDP	; CTList<CComQueueThread>::__alloc
_TEXT	ENDS
; Function compile flags: /Odtp /RTCsu
; File e:\infinia-library-3.0\com\include\comtlist.h
;	COMDAT ?setObjAllocType@?$CTList@VCComQueueThread@@@@QEAAXW4E_ALLOC_TYPE@@@Z
_TEXT	SEGMENT
this$ = 16
type$ = 24
?setObjAllocType@?$CTList@VCComQueueThread@@@@QEAAXW4E_ALLOC_TYPE@@@Z PROC ; CTList<CComQueueThread>::setObjAllocType, COMDAT

; 350  : 	inline void setObjAllocType(E_ALLOC_TYPE type) { m_nObjAllocType = type; }

$LN3:
  00000	89 54 24 10	 mov	 DWORD PTR [rsp+16], edx
  00004	48 89 4c 24 08	 mov	 QWORD PTR [rsp+8], rcx
  00009	57		 push	 rdi
  0000a	48 8b 44 24 10	 mov	 rax, QWORD PTR this$[rsp]
  0000f	8b 4c 24 18	 mov	 ecx, DWORD PTR type$[rsp]
  00013	89 48 18	 mov	 DWORD PTR [rax+24], ecx
  00016	5f		 pop	 rdi
  00017	c3		 ret	 0
?setObjAllocType@?$CTList@VCComQueueThread@@@@QEAAXW4E_ALLOC_TYPE@@@Z ENDP ; CTList<CComQueueThread>::setObjAllocType
_TEXT	ENDS
; Function compile flags: /Odtp /RTCsu
; File e:\infinia-library-3.0\com\include\comtlist.h
;	COMDAT ?size@?$CTList@VCComQueueThread@@@@QEAAHXZ
_TEXT	SEGMENT
this$ = 16
?size@?$CTList@VCComQueueThread@@@@QEAAHXZ PROC		; CTList<CComQueueThread>::size, COMDAT

; 347  : 	inline int  size() { return m_nUse; }

$LN3:
  00000	48 89 4c 24 08	 mov	 QWORD PTR [rsp+8], rcx
  00005	57		 push	 rdi
  00006	48 8b 44 24 10	 mov	 rax, QWORD PTR this$[rsp]
  0000b	8b 40 08	 mov	 eax, DWORD PTR [rax+8]
  0000e	5f		 pop	 rdi
  0000f	c3		 ret	 0
?size@?$CTList@VCComQueueThread@@@@QEAAHXZ ENDP		; CTList<CComQueueThread>::size
_TEXT	ENDS
; Function compile flags: /Odtp /RTCsu
; File e:\infinia-library-3.0\com\include\comtlist.h
;	COMDAT ?getNext@?$CTList@VCComQueueThread@@@@QEAAPEAVCComQueueThread@@PEAH@Z
_TEXT	SEGMENT
this$ = 16
pIdx$ = 24
?getNext@?$CTList@VCComQueueThread@@@@QEAAPEAVCComQueueThread@@PEAH@Z PROC ; CTList<CComQueueThread>::getNext, COMDAT

; 334  : 	inline T* getNext(int *pIdx) {

$LN7:
  00000	48 89 54 24 10	 mov	 QWORD PTR [rsp+16], rdx
  00005	48 89 4c 24 08	 mov	 QWORD PTR [rsp+8], rcx
  0000a	57		 push	 rdi

; 335  : 		for (*pIdx; *pIdx < m_nMax; (*pIdx)++) {

  0000b	eb 10		 jmp	 SHORT $LN4@getNext
$LN2@getNext:
  0000d	48 8b 44 24 18	 mov	 rax, QWORD PTR pIdx$[rsp]
  00012	8b 00		 mov	 eax, DWORD PTR [rax]
  00014	ff c0		 inc	 eax
  00016	48 8b 4c 24 18	 mov	 rcx, QWORD PTR pIdx$[rsp]
  0001b	89 01		 mov	 DWORD PTR [rcx], eax
$LN4@getNext:
  0001d	48 8b 44 24 18	 mov	 rax, QWORD PTR pIdx$[rsp]
  00022	48 8b 4c 24 10	 mov	 rcx, QWORD PTR this$[rsp]
  00027	8b 49 14	 mov	 ecx, DWORD PTR [rcx+20]
  0002a	39 08		 cmp	 DWORD PTR [rax], ecx
  0002c	7d 2f		 jge	 SHORT $LN3@getNext

; 336  : 			if (m_pArray[*pIdx]) { return m_pArray[*pIdx]; }

  0002e	48 8b 44 24 18	 mov	 rax, QWORD PTR pIdx$[rsp]
  00033	48 63 00	 movsxd	 rax, DWORD PTR [rax]
  00036	48 8b 4c 24 10	 mov	 rcx, QWORD PTR this$[rsp]
  0003b	48 8b 09	 mov	 rcx, QWORD PTR [rcx]
  0003e	48 83 3c c1 00	 cmp	 QWORD PTR [rcx+rax*8], 0
  00043	74 16		 je	 SHORT $LN5@getNext
  00045	48 8b 44 24 18	 mov	 rax, QWORD PTR pIdx$[rsp]
  0004a	48 63 00	 movsxd	 rax, DWORD PTR [rax]
  0004d	48 8b 4c 24 10	 mov	 rcx, QWORD PTR this$[rsp]
  00052	48 8b 09	 mov	 rcx, QWORD PTR [rcx]
  00055	48 8b 04 c1	 mov	 rax, QWORD PTR [rcx+rax*8]
  00059	eb 04		 jmp	 SHORT $LN1@getNext
$LN5@getNext:

; 337  : 		}

  0005b	eb b0		 jmp	 SHORT $LN2@getNext
$LN3@getNext:

; 338  : 		return NULL;

  0005d	33 c0		 xor	 eax, eax
$LN1@getNext:

; 339  : 	}

  0005f	5f		 pop	 rdi
  00060	c3		 ret	 0
?getNext@?$CTList@VCComQueueThread@@@@QEAAPEAVCComQueueThread@@PEAH@Z ENDP ; CTList<CComQueueThread>::getNext
_TEXT	ENDS
; Function compile flags: /Odtp /RTCsu
; File e:\infinia-library-3.0\com\include\comtlist.h
;	COMDAT ?getObj@?$CTList@VCComQueueThread@@@@QEAAPEAVCComQueueThread@@H@Z
_TEXT	SEGMENT
this$ = 48
i$ = 56
?getObj@?$CTList@VCComQueueThread@@@@QEAAPEAVCComQueueThread@@H@Z PROC ; CTList<CComQueueThread>::getObj, COMDAT

; 332  : 	inline T* getObj(int i) { if (ISINCLUDE(i, m_nMax)) return m_pArray[i]; return NULL; }

$LN4:
  00000	89 54 24 10	 mov	 DWORD PTR [rsp+16], edx
  00004	48 89 4c 24 08	 mov	 QWORD PTR [rsp+8], rcx
  00009	57		 push	 rdi
  0000a	48 83 ec 20	 sub	 rsp, 32			; 00000020H
  0000e	48 8b fc	 mov	 rdi, rsp
  00011	b9 08 00 00 00	 mov	 ecx, 8
  00016	b8 cc cc cc cc	 mov	 eax, -858993460		; ccccccccH
  0001b	f3 ab		 rep stosd
  0001d	48 8b 4c 24 30	 mov	 rcx, QWORD PTR [rsp+48]
  00022	48 8b 44 24 30	 mov	 rax, QWORD PTR this$[rsp]
  00027	8b 50 14	 mov	 edx, DWORD PTR [rax+20]
  0002a	8b 4c 24 38	 mov	 ecx, DWORD PTR i$[rsp]
  0002e	e8 00 00 00 00	 call	 ?ISINCLUDE@@YA_NHH@Z	; ISINCLUDE
  00033	0f b6 c0	 movzx	 eax, al
  00036	85 c0		 test	 eax, eax
  00038	74 13		 je	 SHORT $LN2@getObj
  0003a	48 63 44 24 38	 movsxd	 rax, DWORD PTR i$[rsp]
  0003f	48 8b 4c 24 30	 mov	 rcx, QWORD PTR this$[rsp]
  00044	48 8b 09	 mov	 rcx, QWORD PTR [rcx]
  00047	48 8b 04 c1	 mov	 rax, QWORD PTR [rcx+rax*8]
  0004b	eb 02		 jmp	 SHORT $LN1@getObj
$LN2@getObj:
  0004d	33 c0		 xor	 eax, eax
$LN1@getObj:
  0004f	48 83 c4 20	 add	 rsp, 32			; 00000020H
  00053	5f		 pop	 rdi
  00054	c3		 ret	 0
?getObj@?$CTList@VCComQueueThread@@@@QEAAPEAVCComQueueThread@@H@Z ENDP ; CTList<CComQueueThread>::getObj
_TEXT	ENDS
; Function compile flags: /Odtp /RTCsu
; File e:\infinia-library-3.0\com\include\comtlist.h
;	COMDAT ?del@?$CTList@VCComQueueThread@@@@QEAA_NH@Z
_TEXT	SEGMENT
this$ = 48
i$ = 56
?del@?$CTList@VCComQueueThread@@@@QEAA_NH@Z PROC	; CTList<CComQueueThread>::del, COMDAT

; 523  : {

$LN4:
  00000	89 54 24 10	 mov	 DWORD PTR [rsp+16], edx
  00004	48 89 4c 24 08	 mov	 QWORD PTR [rsp+8], rcx
  00009	57		 push	 rdi
  0000a	48 83 ec 20	 sub	 rsp, 32			; 00000020H
  0000e	48 8b fc	 mov	 rdi, rsp
  00011	b9 08 00 00 00	 mov	 ecx, 8
  00016	b8 cc cc cc cc	 mov	 eax, -858993460		; ccccccccH
  0001b	f3 ab		 rep stosd
  0001d	48 8b 4c 24 30	 mov	 rcx, QWORD PTR [rsp+48]

; 524  : 	if (!ISINCLUDE(i, m_nMax)) {

  00022	48 8b 44 24 30	 mov	 rax, QWORD PTR this$[rsp]
  00027	8b 50 14	 mov	 edx, DWORD PTR [rax+20]
  0002a	8b 4c 24 38	 mov	 ecx, DWORD PTR i$[rsp]
  0002e	e8 00 00 00 00	 call	 ?ISINCLUDE@@YA_NHH@Z	; ISINCLUDE
  00033	0f b6 c0	 movzx	 eax, al
  00036	85 c0		 test	 eax, eax
  00038	75 25		 jne	 SHORT $LN2@del

; 525  : 		_stprintf(g_szMessage, "i[%d] m_nMax[%d]", i, m_nMax);

  0003a	48 8b 44 24 30	 mov	 rax, QWORD PTR this$[rsp]
  0003f	44 8b 48 14	 mov	 r9d, DWORD PTR [rax+20]
  00043	44 8b 44 24 38	 mov	 r8d, DWORD PTR i$[rsp]
  00048	48 8d 15 00 00
	00 00		 lea	 rdx, OFFSET FLAT:$SG47141
  0004f	48 8d 0d 00 00
	00 00		 lea	 rcx, OFFSET FLAT:?g_szMessage@@3PADA ; g_szMessage
  00056	e8 00 00 00 00	 call	 sprintf

; 526  : 		return false;

  0005b	32 c0		 xor	 al, al
  0005d	eb 10		 jmp	 SHORT $LN1@del
$LN2@del:

; 527  : 	}
; 528  : 	_DEL(i);

  0005f	8b 54 24 38	 mov	 edx, DWORD PTR i$[rsp]
  00063	48 8b 4c 24 30	 mov	 rcx, QWORD PTR this$[rsp]
  00068	e8 00 00 00 00	 call	 ?_DEL@?$CTList@VCComQueueThread@@@@AEAAXH@Z ; CTList<CComQueueThread>::_DEL

; 529  : 	//_stprintf(g_szMessage, _T("CMemList::del i[%d] m_nLast[%d] m_nCurCount[%d]"), i, m_nLast, m_nUse);
; 530  : 	return true;

  0006d	b0 01		 mov	 al, 1
$LN1@del:

; 531  : }

  0006f	48 83 c4 20	 add	 rsp, 32			; 00000020H
  00073	5f		 pop	 rdi
  00074	c3		 ret	 0
?del@?$CTList@VCComQueueThread@@@@QEAA_NH@Z ENDP	; CTList<CComQueueThread>::del
_TEXT	ENDS
; Function compile flags: /Odtp /RTCsu
; File e:\infinia-library-3.0\com\include\comtlist.h
;	COMDAT ?push_back@?$CTList@VCComQueueThread@@@@QEAA_NPEAVCComQueueThread@@PEAH@Z
_TEXT	SEGMENT
nIdx$ = 32
i$ = 36
this$ = 64
Obj$ = 72
pIdx$ = 80
?push_back@?$CTList@VCComQueueThread@@@@QEAA_NPEAVCComQueueThread@@PEAH@Z PROC ; CTList<CComQueueThread>::push_back, COMDAT

; 472  : {

$LN15:
  00000	4c 89 44 24 18	 mov	 QWORD PTR [rsp+24], r8
  00005	48 89 54 24 10	 mov	 QWORD PTR [rsp+16], rdx
  0000a	48 89 4c 24 08	 mov	 QWORD PTR [rsp+8], rcx
  0000f	57		 push	 rdi
  00010	48 83 ec 30	 sub	 rsp, 48			; 00000030H
  00014	48 8b fc	 mov	 rdi, rsp
  00017	b9 0c 00 00 00	 mov	 ecx, 12
  0001c	b8 cc cc cc cc	 mov	 eax, -858993460		; ccccccccH
  00021	f3 ab		 rep stosd
  00023	48 8b 4c 24 40	 mov	 rcx, QWORD PTR [rsp+64]

; 473  : 	int nIdx, i;
; 474  : 
; 475  : 	if (m_nUse >= m_nMax) {

  00028	48 8b 44 24 40	 mov	 rax, QWORD PTR this$[rsp]
  0002d	48 8b 4c 24 40	 mov	 rcx, QWORD PTR this$[rsp]
  00032	8b 49 14	 mov	 ecx, DWORD PTR [rcx+20]
  00035	39 48 08	 cmp	 DWORD PTR [rax+8], ecx
  00038	7c 4b		 jl	 SHORT $LN5@push_back

; 476  : 		if (!__alloc(m_nMax + TLIST_ADD_SIZE)) return false;

  0003a	48 8b 44 24 40	 mov	 rax, QWORD PTR this$[rsp]
  0003f	8b 40 14	 mov	 eax, DWORD PTR [rax+20]
  00042	83 c0 40	 add	 eax, 64			; 00000040H
  00045	8b d0		 mov	 edx, eax
  00047	48 8b 4c 24 40	 mov	 rcx, QWORD PTR this$[rsp]
  0004c	e8 00 00 00 00	 call	 ?__alloc@?$CTList@VCComQueueThread@@@@AEAAHH@Z ; CTList<CComQueueThread>::__alloc
  00051	85 c0		 test	 eax, eax
  00053	75 07		 jne	 SHORT $LN6@push_back
  00055	32 c0		 xor	 al, al
  00057	e9 0c 01 00 00	 jmp	 $LN1@push_back
$LN6@push_back:

; 477  : 		nIdx = m_nMax;

  0005c	48 8b 44 24 40	 mov	 rax, QWORD PTR this$[rsp]
  00061	8b 40 14	 mov	 eax, DWORD PTR [rax+20]
  00064	89 44 24 20	 mov	 DWORD PTR nIdx$[rsp], eax

; 478  : 		m_nMax += TLIST_ADD_SIZE;

  00068	48 8b 44 24 40	 mov	 rax, QWORD PTR this$[rsp]
  0006d	8b 40 14	 mov	 eax, DWORD PTR [rax+20]
  00070	83 c0 40	 add	 eax, 64			; 00000040H
  00073	48 8b 4c 24 40	 mov	 rcx, QWORD PTR this$[rsp]
  00078	89 41 14	 mov	 DWORD PTR [rcx+20], eax

; 479  : 		goto ADD_SUCCESS;

  0007b	e9 99 00 00 00	 jmp	 $LN7@push_back
  00080	e9 94 00 00 00	 jmp	 $ADD_SUCCESS$16
$LN5@push_back:

; 480  : 	}
; 481  : 
; 482  : 	if (!m_pArray[m_nLast]) { nIdx = m_nLast;  goto ADD_SUCCESS; }

  00085	48 8b 44 24 40	 mov	 rax, QWORD PTR this$[rsp]
  0008a	48 63 40 0c	 movsxd	 rax, DWORD PTR [rax+12]
  0008e	48 8b 4c 24 40	 mov	 rcx, QWORD PTR this$[rsp]
  00093	48 8b 09	 mov	 rcx, QWORD PTR [rcx]
  00096	48 83 3c c1 00	 cmp	 QWORD PTR [rcx+rax*8], 0
  0009b	75 10		 jne	 SHORT $LN8@push_back
  0009d	48 8b 44 24 40	 mov	 rax, QWORD PTR this$[rsp]
  000a2	8b 40 0c	 mov	 eax, DWORD PTR [rax+12]
  000a5	89 44 24 20	 mov	 DWORD PTR nIdx$[rsp], eax
  000a9	eb 6e		 jmp	 SHORT $LN9@push_back
  000ab	eb 6c		 jmp	 SHORT $ADD_SUCCESS$16
$LN8@push_back:

; 483  : 
; 484  : 	nIdx = m_nLast;

  000ad	48 8b 44 24 40	 mov	 rax, QWORD PTR this$[rsp]
  000b2	8b 40 0c	 mov	 eax, DWORD PTR [rax+12]
  000b5	89 44 24 20	 mov	 DWORD PTR nIdx$[rsp], eax

; 485  : 	for (i = 0; i < m_nMax; i++)

  000b9	c7 44 24 24 00
	00 00 00	 mov	 DWORD PTR i$[rsp], 0
  000c1	eb 0a		 jmp	 SHORT $LN4@push_back
$LN2@push_back:
  000c3	8b 44 24 24	 mov	 eax, DWORD PTR i$[rsp]
  000c7	ff c0		 inc	 eax
  000c9	89 44 24 24	 mov	 DWORD PTR i$[rsp], eax
$LN4@push_back:
  000cd	48 8b 44 24 40	 mov	 rax, QWORD PTR this$[rsp]
  000d2	8b 40 14	 mov	 eax, DWORD PTR [rax+20]
  000d5	39 44 24 24	 cmp	 DWORD PTR i$[rsp], eax
  000d9	7d 3a		 jge	 SHORT $LN3@push_back

; 486  : 	{
; 487  : 		if (nIdx >= m_nMax) nIdx = 0;

  000db	48 8b 44 24 40	 mov	 rax, QWORD PTR this$[rsp]
  000e0	8b 40 14	 mov	 eax, DWORD PTR [rax+20]
  000e3	39 44 24 20	 cmp	 DWORD PTR nIdx$[rsp], eax
  000e7	7c 08		 jl	 SHORT $LN10@push_back
  000e9	c7 44 24 20 00
	00 00 00	 mov	 DWORD PTR nIdx$[rsp], 0
$LN10@push_back:

; 488  : 		if (!m_pArray[nIdx]) {

  000f1	48 63 44 24 20	 movsxd	 rax, DWORD PTR nIdx$[rsp]
  000f6	48 8b 4c 24 40	 mov	 rcx, QWORD PTR this$[rsp]
  000fb	48 8b 09	 mov	 rcx, QWORD PTR [rcx]
  000fe	48 83 3c c1 00	 cmp	 QWORD PTR [rcx+rax*8], 0
  00103	75 04		 jne	 SHORT $LN11@push_back

; 489  : 			goto ADD_SUCCESS;

  00105	eb 12		 jmp	 SHORT $LN12@push_back
  00107	eb 10		 jmp	 SHORT $ADD_SUCCESS$16
$LN11@push_back:

; 490  : 		}
; 491  : 		nIdx++;

  00109	8b 44 24 20	 mov	 eax, DWORD PTR nIdx$[rsp]
  0010d	ff c0		 inc	 eax
  0010f	89 44 24 20	 mov	 DWORD PTR nIdx$[rsp], eax

; 492  : 	}

  00113	eb ae		 jmp	 SHORT $LN2@push_back
$LN3@push_back:

; 493  : 	//_stprintf(m_szMessage, _T("add FAIL! m_nLast[%d] m_nCurCount[%d] m_nMax[%d]"), m_nLast, m_nUse, m_nMax);
; 494  : 	return false;

  00115	32 c0		 xor	 al, al
  00117	eb 4f		 jmp	 SHORT $LN1@push_back
$LN7@push_back:
$LN9@push_back:
$LN12@push_back:
$ADD_SUCCESS$16:

; 495  : 
; 496  : ADD_SUCCESS:
; 497  : 	m_nUse++;

  00119	48 8b 44 24 40	 mov	 rax, QWORD PTR this$[rsp]
  0011e	8b 40 08	 mov	 eax, DWORD PTR [rax+8]
  00121	ff c0		 inc	 eax
  00123	48 8b 4c 24 40	 mov	 rcx, QWORD PTR this$[rsp]
  00128	89 41 08	 mov	 DWORD PTR [rcx+8], eax

; 498  : 	m_pArray[nIdx] = Obj;

  0012b	48 63 44 24 20	 movsxd	 rax, DWORD PTR nIdx$[rsp]
  00130	48 8b 4c 24 40	 mov	 rcx, QWORD PTR this$[rsp]
  00135	48 8b 09	 mov	 rcx, QWORD PTR [rcx]
  00138	48 8b 54 24 48	 mov	 rdx, QWORD PTR Obj$[rsp]
  0013d	48 89 14 c1	 mov	 QWORD PTR [rcx+rax*8], rdx

; 499  : 	m_nLast++;

  00141	48 8b 44 24 40	 mov	 rax, QWORD PTR this$[rsp]
  00146	8b 40 0c	 mov	 eax, DWORD PTR [rax+12]
  00149	ff c0		 inc	 eax
  0014b	48 8b 4c 24 40	 mov	 rcx, QWORD PTR this$[rsp]
  00150	89 41 0c	 mov	 DWORD PTR [rcx+12], eax

; 500  : 	//_stprintf(g_szMessage, _T("CMemList::add i[%d] m_nLast[%d] m_nCurCount[%d]"), nIdx, m_nLast, m_nUse);
; 501  : 	if (pIdx) *pIdx = nIdx;

  00153	48 83 7c 24 50
	00		 cmp	 QWORD PTR pIdx$[rsp], 0
  00159	74 0b		 je	 SHORT $LN13@push_back
  0015b	48 8b 44 24 50	 mov	 rax, QWORD PTR pIdx$[rsp]
  00160	8b 4c 24 20	 mov	 ecx, DWORD PTR nIdx$[rsp]
  00164	89 08		 mov	 DWORD PTR [rax], ecx
$LN13@push_back:

; 502  : 	return true;

  00166	b0 01		 mov	 al, 1
$LN1@push_back:

; 503  : }

  00168	48 83 c4 30	 add	 rsp, 48			; 00000030H
  0016c	5f		 pop	 rdi
  0016d	c3		 ret	 0
?push_back@?$CTList@VCComQueueThread@@@@QEAA_NPEAVCComQueueThread@@PEAH@Z ENDP ; CTList<CComQueueThread>::push_back
_TEXT	ENDS
; Function compile flags: /Odtp /RTCsu
; File e:\infinia-library-3.0\com\include\comtlist.h
;	COMDAT ?alloc@?$CTList@VCComQueueThread@@@@QEAAHHW4E_ALLOC_TYPE@@@Z
_TEXT	SEGMENT
this$ = 48
nMaxCount$ = 56
type$ = 64
?alloc@?$CTList@VCComQueueThread@@@@QEAAHHW4E_ALLOC_TYPE@@@Z PROC ; CTList<CComQueueThread>::alloc, COMDAT

; 326  : 	int alloc(int nMaxCount, E_ALLOC_TYPE type = eAlloc_Type_new) { m_nObjAllocType = type;  m_nMax = __alloc(nMaxCount); return m_nMax; }

$LN3:
  00000	44 89 44 24 18	 mov	 DWORD PTR [rsp+24], r8d
  00005	89 54 24 10	 mov	 DWORD PTR [rsp+16], edx
  00009	48 89 4c 24 08	 mov	 QWORD PTR [rsp+8], rcx
  0000e	57		 push	 rdi
  0000f	48 83 ec 20	 sub	 rsp, 32			; 00000020H
  00013	48 8b fc	 mov	 rdi, rsp
  00016	b9 08 00 00 00	 mov	 ecx, 8
  0001b	b8 cc cc cc cc	 mov	 eax, -858993460		; ccccccccH
  00020	f3 ab		 rep stosd
  00022	48 8b 4c 24 30	 mov	 rcx, QWORD PTR [rsp+48]
  00027	48 8b 44 24 30	 mov	 rax, QWORD PTR this$[rsp]
  0002c	8b 4c 24 40	 mov	 ecx, DWORD PTR type$[rsp]
  00030	89 48 18	 mov	 DWORD PTR [rax+24], ecx
  00033	8b 54 24 38	 mov	 edx, DWORD PTR nMaxCount$[rsp]
  00037	48 8b 4c 24 30	 mov	 rcx, QWORD PTR this$[rsp]
  0003c	e8 00 00 00 00	 call	 ?__alloc@?$CTList@VCComQueueThread@@@@AEAAHH@Z ; CTList<CComQueueThread>::__alloc
  00041	48 8b 4c 24 30	 mov	 rcx, QWORD PTR this$[rsp]
  00046	89 41 14	 mov	 DWORD PTR [rcx+20], eax
  00049	48 8b 44 24 30	 mov	 rax, QWORD PTR this$[rsp]
  0004e	8b 40 14	 mov	 eax, DWORD PTR [rax+20]
  00051	48 83 c4 20	 add	 rsp, 32			; 00000020H
  00055	5f		 pop	 rdi
  00056	c3		 ret	 0
?alloc@?$CTList@VCComQueueThread@@@@QEAAHHW4E_ALLOC_TYPE@@@Z ENDP ; CTList<CComQueueThread>::alloc
_TEXT	ENDS
; Function compile flags: /Odtp /RTCsu
; File e:\infinia-library-3.0\com\include\comtlist.h
;	COMDAT ??1?$CTList@VCComQueueThread@@@@QEAA@XZ
_TEXT	SEGMENT
idx$4 = 36
p$5 = 56
$T6 = 72
$T7 = 80
$T8 = 88
$T9 = 96
$T10 = 104
tv77 = 112
tv82 = 120
tv95 = 128
__$ArrayPad$ = 136
this$ = 160
??1?$CTList@VCComQueueThread@@@@QEAA@XZ PROC		; CTList<CComQueueThread>::~CTList<CComQueueThread>, COMDAT

; 376  : {

$LN20:
  00000	48 89 4c 24 08	 mov	 QWORD PTR [rsp+8], rcx
  00005	57		 push	 rdi
  00006	48 81 ec 90 00
	00 00		 sub	 rsp, 144		; 00000090H
  0000d	48 8b fc	 mov	 rdi, rsp
  00010	b9 24 00 00 00	 mov	 ecx, 36			; 00000024H
  00015	b8 cc cc cc cc	 mov	 eax, -858993460		; ccccccccH
  0001a	f3 ab		 rep stosd
  0001c	48 8b 8c 24 a0
	00 00 00	 mov	 rcx, QWORD PTR [rsp+160]
  00024	48 c7 44 24 68
	fe ff ff ff	 mov	 QWORD PTR $T10[rsp], -2
  0002d	48 8b 05 00 00
	00 00		 mov	 rax, QWORD PTR __security_cookie
  00034	48 33 c4	 xor	 rax, rsp
  00037	48 89 84 24 88
	00 00 00	 mov	 QWORD PTR __$ArrayPad$[rsp], rax

; 377  : 	if (!m_pArray) return;

  0003f	48 8b 84 24 a0
	00 00 00	 mov	 rax, QWORD PTR this$[rsp]
  00047	48 83 38 00	 cmp	 QWORD PTR [rax], 0
  0004b	75 05		 jne	 SHORT $LN6@CTList
  0004d	e9 81 01 00 00	 jmp	 $LN1@CTList
$LN6@CTList:

; 378  : 
; 379  : 	if (ISABLETODELETE(m_nObjAllocType)) {

  00052	48 8b 84 24 a0
	00 00 00	 mov	 rax, QWORD PTR this$[rsp]
  0005a	8b 48 18	 mov	 ecx, DWORD PTR [rax+24]
  0005d	e8 00 00 00 00	 call	 ?ISABLETODELETE@@YA_NW4E_ALLOC_TYPE@@@Z ; ISABLETODELETE
  00062	90		 npad	 1
  00063	0f b6 c0	 movzx	 eax, al
  00066	85 c0		 test	 eax, eax
  00068	0f 84 36 01 00
	00		 je	 $LN7@CTList

; 380  : 		int idx = 0;

  0006e	c7 44 24 24 00
	00 00 00	 mov	 DWORD PTR idx$4[rsp], 0

; 381  : 		T *p = getNext(&idx);

  00076	48 8d 54 24 24	 lea	 rdx, QWORD PTR idx$4[rsp]
  0007b	48 8b 8c 24 a0
	00 00 00	 mov	 rcx, QWORD PTR this$[rsp]
  00083	e8 00 00 00 00	 call	 ?getNext@?$CTList@VCComQueueThread@@@@QEAAPEAVCComQueueThread@@PEAH@Z ; CTList<CComQueueThread>::getNext
  00088	90		 npad	 1
  00089	48 89 44 24 38	 mov	 QWORD PTR p$5[rsp], rax
$LN2@CTList:

; 382  : 		while (p) {

  0008e	48 83 7c 24 38
	00		 cmp	 QWORD PTR p$5[rsp], 0
  00094	0f 84 0a 01 00
	00		 je	 $LN7@CTList

; 383  : 			idx++;

  0009a	8b 44 24 24	 mov	 eax, DWORD PTR idx$4[rsp]
  0009e	ff c0		 inc	 eax
  000a0	89 44 24 24	 mov	 DWORD PTR idx$4[rsp], eax

; 384  : 			switch (m_nObjAllocType) {

  000a4	48 8b 84 24 a0
	00 00 00	 mov	 rax, QWORD PTR this$[rsp]
  000ac	8b 40 18	 mov	 eax, DWORD PTR [rax+24]
  000af	89 44 24 70	 mov	 DWORD PTR tv77[rsp], eax
  000b3	83 7c 24 70 02	 cmp	 DWORD PTR tv77[rsp], 2
  000b8	74 1a		 je	 SHORT $LN8@CTList
  000ba	83 7c 24 70 03	 cmp	 DWORD PTR tv77[rsp], 3
  000bf	74 51		 je	 SHORT $LN9@CTList
  000c1	83 7c 24 70 04	 cmp	 DWORD PTR tv77[rsp], 4
  000c6	74 58		 je	 SHORT $LN10@CTList
  000c8	83 7c 24 70 05	 cmp	 DWORD PTR tv77[rsp], 5
  000cd	74 76		 je	 SHORT $LN11@CTList
  000cf	e9 b3 00 00 00	 jmp	 $LN4@CTList
$LN8@CTList:

; 385  : 				case eAlloc_Type_new		:	delete p; break;

  000d4	48 8b 44 24 38	 mov	 rax, QWORD PTR p$5[rsp]
  000d9	48 89 44 24 50	 mov	 QWORD PTR $T7[rsp], rax
  000de	48 8b 44 24 50	 mov	 rax, QWORD PTR $T7[rsp]
  000e3	48 89 44 24 48	 mov	 QWORD PTR $T6[rsp], rax
  000e8	48 83 7c 24 48
	00		 cmp	 QWORD PTR $T6[rsp], 0
  000ee	74 17		 je	 SHORT $LN16@CTList
  000f0	ba 01 00 00 00	 mov	 edx, 1
  000f5	48 8b 4c 24 48	 mov	 rcx, QWORD PTR $T6[rsp]
  000fa	e8 00 00 00 00	 call	 ??_GCComQueueThread@@QEAAPEAXI@Z
  000ff	90		 npad	 1
  00100	48 89 44 24 78	 mov	 QWORD PTR tv82[rsp], rax
  00105	eb 09		 jmp	 SHORT $LN17@CTList
$LN16@CTList:
  00107	48 c7 44 24 78
	00 00 00 00	 mov	 QWORD PTR tv82[rsp], 0
$LN17@CTList:
  00110	eb 75		 jmp	 SHORT $LN4@CTList
$LN9@CTList:

; 386  : 				case eAlloc_Type_alloc		:	free(p); break;

  00112	48 8b 4c 24 38	 mov	 rcx, QWORD PTR p$5[rsp]
  00117	ff 15 00 00 00
	00		 call	 QWORD PTR __imp_free
  0011d	90		 npad	 1
  0011e	eb 67		 jmp	 SHORT $LN4@CTList
$LN10@CTList:

; 387  : 				case eAlloc_Type_BufPool	:	gs_pMMgr->delBuf((char *)p, STRING_SIZE((TCHAR *)p)); break;

  00120	48 8b 4c 24 38	 mov	 rcx, QWORD PTR p$5[rsp]
  00125	e8 00 00 00 00	 call	 strlen
  0012a	90		 npad	 1
  0012b	48 ff c0	 inc	 rax
  0012e	44 8b c0	 mov	 r8d, eax
  00131	48 8b 54 24 38	 mov	 rdx, QWORD PTR p$5[rsp]
  00136	48 8b 0d 00 00
	00 00		 mov	 rcx, QWORD PTR ?gs_pMMgr@@3PEAVCMemManager@@EA ; gs_pMMgr
  0013d	e8 00 00 00 00	 call	 ?delBuf@CMemManager@@QEAAXPEADH@Z ; CMemManager::delBuf
  00142	90		 npad	 1
  00143	eb 42		 jmp	 SHORT $LN4@CTList
$LN11@CTList:

; 388  : 				case eAlloc_Type_newArray	:	delete[] p; break;

  00145	48 8b 44 24 38	 mov	 rax, QWORD PTR p$5[rsp]
  0014a	48 89 44 24 60	 mov	 QWORD PTR $T9[rsp], rax
  0014f	48 8b 44 24 60	 mov	 rax, QWORD PTR $T9[rsp]
  00154	48 89 44 24 58	 mov	 QWORD PTR $T8[rsp], rax
  00159	48 83 7c 24 58
	00		 cmp	 QWORD PTR $T8[rsp], 0
  0015f	74 1a		 je	 SHORT $LN18@CTList
  00161	ba 03 00 00 00	 mov	 edx, 3
  00166	48 8b 4c 24 58	 mov	 rcx, QWORD PTR $T8[rsp]
  0016b	e8 00 00 00 00	 call	 ??_ECComQueueThread@@QEAAPEAXI@Z
  00170	90		 npad	 1
  00171	48 89 84 24 80
	00 00 00	 mov	 QWORD PTR tv95[rsp], rax
  00179	eb 0c		 jmp	 SHORT $LN4@CTList
$LN18@CTList:
  0017b	48 c7 84 24 80
	00 00 00 00 00
	00 00		 mov	 QWORD PTR tv95[rsp], 0
$LN4@CTList:

; 389  : 				case eAlloc_Type_none		:	break;
; 390  : 				case eAlloc_Type_MemPool	:	break;
; 391  : 			}
; 392  : 			p = getNext(&idx);

  00187	48 8d 54 24 24	 lea	 rdx, QWORD PTR idx$4[rsp]
  0018c	48 8b 8c 24 a0
	00 00 00	 mov	 rcx, QWORD PTR this$[rsp]
  00194	e8 00 00 00 00	 call	 ?getNext@?$CTList@VCComQueueThread@@@@QEAAPEAVCComQueueThread@@PEAH@Z ; CTList<CComQueueThread>::getNext
  00199	90		 npad	 1
  0019a	48 89 44 24 38	 mov	 QWORD PTR p$5[rsp], rax

; 393  : 		}

  0019f	e9 ea fe ff ff	 jmp	 $LN2@CTList
$LN7@CTList:

; 394  : 	}
; 395  : 
; 396  : 	if (m_pArray)	free(m_pArray);

  001a4	48 8b 84 24 a0
	00 00 00	 mov	 rax, QWORD PTR this$[rsp]
  001ac	48 83 38 00	 cmp	 QWORD PTR [rax], 0
  001b0	74 12		 je	 SHORT $LN14@CTList
  001b2	48 8b 84 24 a0
	00 00 00	 mov	 rax, QWORD PTR this$[rsp]
  001ba	48 8b 08	 mov	 rcx, QWORD PTR [rax]
  001bd	ff 15 00 00 00
	00		 call	 QWORD PTR __imp_free
  001c3	90		 npad	 1
$LN14@CTList:

; 397  : 	m_pArray = 0;

  001c4	48 8b 84 24 a0
	00 00 00	 mov	 rax, QWORD PTR this$[rsp]
  001cc	48 c7 00 00 00
	00 00		 mov	 QWORD PTR [rax], 0
$LN1@CTList:

; 398  : }

  001d3	48 8b cc	 mov	 rcx, rsp
  001d6	48 8d 15 00 00
	00 00		 lea	 rdx, OFFSET FLAT:??1?$CTList@VCComQueueThread@@@@QEAA@XZ$rtcFrameData
  001dd	e8 00 00 00 00	 call	 _RTC_CheckStackVars
  001e2	90		 npad	 1
  001e3	48 8b 8c 24 88
	00 00 00	 mov	 rcx, QWORD PTR __$ArrayPad$[rsp]
  001eb	48 33 cc	 xor	 rcx, rsp
  001ee	e8 00 00 00 00	 call	 __security_check_cookie
  001f3	90		 npad	 1
  001f4	48 81 c4 90 00
	00 00		 add	 rsp, 144		; 00000090H
  001fb	5f		 pop	 rdi
  001fc	c3		 ret	 0
??1?$CTList@VCComQueueThread@@@@QEAA@XZ ENDP		; CTList<CComQueueThread>::~CTList<CComQueueThread>
_TEXT	ENDS
; Function compile flags: /Odtp /RTCsu
; File e:\infinia-library-3.0\com\include\comtlist.h
;	COMDAT ??0?$CTList@VCComQueueThread@@@@QEAA@XZ
_TEXT	SEGMENT
this$ = 16
??0?$CTList@VCComQueueThread@@@@QEAA@XZ PROC		; CTList<CComQueueThread>::CTList<CComQueueThread>, COMDAT

; 365  : {

$LN3:
  00000	48 89 4c 24 08	 mov	 QWORD PTR [rsp+8], rcx
  00005	57		 push	 rdi

; 366  : 	m_pArray = NULL;

  00006	48 8b 44 24 10	 mov	 rax, QWORD PTR this$[rsp]
  0000b	48 c7 00 00 00
	00 00		 mov	 QWORD PTR [rax], 0

; 367  : 	m_nUse = 0;

  00012	48 8b 44 24 10	 mov	 rax, QWORD PTR this$[rsp]
  00017	c7 40 08 00 00
	00 00		 mov	 DWORD PTR [rax+8], 0

; 368  : 	m_nLast = 0;

  0001e	48 8b 44 24 10	 mov	 rax, QWORD PTR this$[rsp]
  00023	c7 40 0c 00 00
	00 00		 mov	 DWORD PTR [rax+12], 0

; 369  : 	m_nDelIdx = 0;

  0002a	48 8b 44 24 10	 mov	 rax, QWORD PTR this$[rsp]
  0002f	c7 40 10 00 00
	00 00		 mov	 DWORD PTR [rax+16], 0

; 370  : 	m_nMax = 0;

  00036	48 8b 44 24 10	 mov	 rax, QWORD PTR this$[rsp]
  0003b	c7 40 14 00 00
	00 00		 mov	 DWORD PTR [rax+20], 0

; 371  : 	m_nObjAllocType = eAlloc_Type_none;

  00042	48 8b 44 24 10	 mov	 rax, QWORD PTR this$[rsp]
  00047	c7 40 18 00 00
	00 00		 mov	 DWORD PTR [rax+24], 0

; 372  : }

  0004e	48 8b 44 24 10	 mov	 rax, QWORD PTR this$[rsp]
  00053	5f		 pop	 rdi
  00054	c3		 ret	 0
??0?$CTList@VCComQueueThread@@@@QEAA@XZ ENDP		; CTList<CComQueueThread>::CTList<CComQueueThread>
_TEXT	ENDS
; Function compile flags: /Odtp /RTCsu
;	COMDAT ??_G?$CTList@VCComThread@@@@QEAAPEAXI@Z
_TEXT	SEGMENT
this$ = 48
__flags$ = 56
??_G?$CTList@VCComThread@@@@QEAAPEAXI@Z PROC		; CTList<CComThread>::`scalar deleting destructor', COMDAT
$LN4:
  00000	89 54 24 10	 mov	 DWORD PTR [rsp+16], edx
  00004	48 89 4c 24 08	 mov	 QWORD PTR [rsp+8], rcx
  00009	57		 push	 rdi
  0000a	48 83 ec 20	 sub	 rsp, 32			; 00000020H
  0000e	48 8b fc	 mov	 rdi, rsp
  00011	b9 08 00 00 00	 mov	 ecx, 8
  00016	b8 cc cc cc cc	 mov	 eax, -858993460		; ccccccccH
  0001b	f3 ab		 rep stosd
  0001d	48 8b 4c 24 30	 mov	 rcx, QWORD PTR [rsp+48]
  00022	48 8b 4c 24 30	 mov	 rcx, QWORD PTR this$[rsp]
  00027	e8 00 00 00 00	 call	 ??1?$CTList@VCComThread@@@@QEAA@XZ ; CTList<CComThread>::~CTList<CComThread>
  0002c	8b 44 24 38	 mov	 eax, DWORD PTR __flags$[rsp]
  00030	83 e0 01	 and	 eax, 1
  00033	85 c0		 test	 eax, eax
  00035	74 0f		 je	 SHORT $LN2@scalar
  00037	ba 20 00 00 00	 mov	 edx, 32			; 00000020H
  0003c	48 8b 4c 24 30	 mov	 rcx, QWORD PTR this$[rsp]
  00041	e8 00 00 00 00	 call	 ??3@YAXPEAX_K@Z		; operator delete
$LN2@scalar:
  00046	48 8b 44 24 30	 mov	 rax, QWORD PTR this$[rsp]
  0004b	48 83 c4 20	 add	 rsp, 32			; 00000020H
  0004f	5f		 pop	 rdi
  00050	c3		 ret	 0
??_G?$CTList@VCComThread@@@@QEAAPEAXI@Z ENDP		; CTList<CComThread>::`scalar deleting destructor'
_TEXT	ENDS
; Function compile flags: /Odtp /RTCsu
;	COMDAT ?__autoclassinit2@?$CTList@VCComThread@@@@QEAAX_K@Z
_TEXT	SEGMENT
this$ = 16
classSize$ = 24
?__autoclassinit2@?$CTList@VCComThread@@@@QEAAX_K@Z PROC ; CTList<CComThread>::__autoclassinit2, COMDAT
$LN3:
  00000	48 89 54 24 10	 mov	 QWORD PTR [rsp+16], rdx
  00005	48 89 4c 24 08	 mov	 QWORD PTR [rsp+8], rcx
  0000a	57		 push	 rdi
  0000b	48 8b 7c 24 10	 mov	 rdi, QWORD PTR this$[rsp]
  00010	33 c0		 xor	 eax, eax
  00012	48 8b 4c 24 18	 mov	 rcx, QWORD PTR classSize$[rsp]
  00017	f3 aa		 rep stosb
  00019	5f		 pop	 rdi
  0001a	c3		 ret	 0
?__autoclassinit2@?$CTList@VCComThread@@@@QEAAX_K@Z ENDP ; CTList<CComThread>::__autoclassinit2
_TEXT	ENDS
; Function compile flags: /Odtp /RTCsu
; File e:\infinia-library-3.0\com\include\comtlist.h
;	COMDAT ?_DEL@?$CTList@VCComThread@@@@AEAAXH@Z
_TEXT	SEGMENT
this$ = 16
i$ = 24
?_DEL@?$CTList@VCComThread@@@@AEAAXH@Z PROC		; CTList<CComThread>::_DEL, COMDAT

; 360  : 	inline void _DEL(int i) { m_pArray[i] = 0; m_nUse--; m_nDelIdx = i; }

$LN3:
  00000	89 54 24 10	 mov	 DWORD PTR [rsp+16], edx
  00004	48 89 4c 24 08	 mov	 QWORD PTR [rsp+8], rcx
  00009	57		 push	 rdi
  0000a	48 63 44 24 18	 movsxd	 rax, DWORD PTR i$[rsp]
  0000f	48 8b 4c 24 10	 mov	 rcx, QWORD PTR this$[rsp]
  00014	48 8b 09	 mov	 rcx, QWORD PTR [rcx]
  00017	48 c7 04 c1 00
	00 00 00	 mov	 QWORD PTR [rcx+rax*8], 0
  0001f	48 8b 44 24 10	 mov	 rax, QWORD PTR this$[rsp]
  00024	8b 40 08	 mov	 eax, DWORD PTR [rax+8]
  00027	ff c8		 dec	 eax
  00029	48 8b 4c 24 10	 mov	 rcx, QWORD PTR this$[rsp]
  0002e	89 41 08	 mov	 DWORD PTR [rcx+8], eax
  00031	48 8b 44 24 10	 mov	 rax, QWORD PTR this$[rsp]
  00036	8b 4c 24 18	 mov	 ecx, DWORD PTR i$[rsp]
  0003a	89 48 10	 mov	 DWORD PTR [rax+16], ecx
  0003d	5f		 pop	 rdi
  0003e	c3		 ret	 0
?_DEL@?$CTList@VCComThread@@@@AEAAXH@Z ENDP		; CTList<CComThread>::_DEL
_TEXT	ENDS
; Function compile flags: /Odtp /RTCsu
; File e:\infinia-library-3.0\com\include\comtlist.h
;	COMDAT ?__alloc@?$CTList@VCComThread@@@@AEAAHH@Z
_TEXT	SEGMENT
pList$ = 32
this$ = 64
nMaxCount$ = 72
?__alloc@?$CTList@VCComThread@@@@AEAAHH@Z PROC		; CTList<CComThread>::__alloc, COMDAT

; 402  : {

$LN5:
  00000	89 54 24 10	 mov	 DWORD PTR [rsp+16], edx
  00004	48 89 4c 24 08	 mov	 QWORD PTR [rsp+8], rcx
  00009	57		 push	 rdi
  0000a	48 83 ec 30	 sub	 rsp, 48			; 00000030H
  0000e	48 8b fc	 mov	 rdi, rsp
  00011	b9 0c 00 00 00	 mov	 ecx, 12
  00016	b8 cc cc cc cc	 mov	 eax, -858993460		; ccccccccH
  0001b	f3 ab		 rep stosd
  0001d	48 8b 4c 24 40	 mov	 rcx, QWORD PTR [rsp+64]

; 403  : 	T** pList = (T**)calloc(nMaxCount, sizeof(T*));

  00022	48 63 44 24 48	 movsxd	 rax, DWORD PTR nMaxCount$[rsp]
  00027	ba 08 00 00 00	 mov	 edx, 8
  0002c	48 8b c8	 mov	 rcx, rax
  0002f	ff 15 00 00 00
	00		 call	 QWORD PTR __imp_calloc
  00035	48 89 44 24 20	 mov	 QWORD PTR pList$[rsp], rax

; 404  : 	if (!pList) {

  0003a	48 83 7c 24 20
	00		 cmp	 QWORD PTR pList$[rsp], 0
  00040	75 17		 jne	 SHORT $LN2@alloc

; 405  : 		_stprintf(g_szMessage, "pList calloc is NULL");

  00042	48 8d 15 00 00
	00 00		 lea	 rdx, OFFSET FLAT:$SG47081
  00049	48 8d 0d 00 00
	00 00		 lea	 rcx, OFFSET FLAT:?g_szMessage@@3PADA ; g_szMessage
  00050	e8 00 00 00 00	 call	 sprintf

; 406  : 		return 0;

  00055	33 c0		 xor	 eax, eax
  00057	eb 4c		 jmp	 SHORT $LN1@alloc
$LN2@alloc:

; 407  : 	}
; 408  : 	//_stprintf(g_szMessage, _T("CTList::__alloc list m_nMaxCount[%d]"), nMaxCount);
; 409  : 	if (m_pArray) {

  00059	48 8b 44 24 40	 mov	 rax, QWORD PTR this$[rsp]
  0005e	48 83 38 00	 cmp	 QWORD PTR [rax], 0
  00062	74 30		 je	 SHORT $LN3@alloc

; 410  : 		memcpy(pList, m_pArray, m_nMax * sizeof(T*));

  00064	48 8b 44 24 40	 mov	 rax, QWORD PTR this$[rsp]
  00069	48 63 40 14	 movsxd	 rax, DWORD PTR [rax+20]
  0006d	48 c1 e0 03	 shl	 rax, 3
  00071	4c 8b c0	 mov	 r8, rax
  00074	48 8b 44 24 40	 mov	 rax, QWORD PTR this$[rsp]
  00079	48 8b 10	 mov	 rdx, QWORD PTR [rax]
  0007c	48 8b 4c 24 20	 mov	 rcx, QWORD PTR pList$[rsp]
  00081	e8 00 00 00 00	 call	 memcpy

; 411  : 		free(m_pArray);

  00086	48 8b 44 24 40	 mov	 rax, QWORD PTR this$[rsp]
  0008b	48 8b 08	 mov	 rcx, QWORD PTR [rax]
  0008e	ff 15 00 00 00
	00		 call	 QWORD PTR __imp_free
$LN3@alloc:

; 412  : 	}
; 413  : 	m_pArray = pList;

  00094	48 8b 44 24 40	 mov	 rax, QWORD PTR this$[rsp]
  00099	48 8b 4c 24 20	 mov	 rcx, QWORD PTR pList$[rsp]
  0009e	48 89 08	 mov	 QWORD PTR [rax], rcx

; 414  : 	return nMaxCount;

  000a1	8b 44 24 48	 mov	 eax, DWORD PTR nMaxCount$[rsp]
$LN1@alloc:

; 415  : }

  000a5	48 83 c4 30	 add	 rsp, 48			; 00000030H
  000a9	5f		 pop	 rdi
  000aa	c3		 ret	 0
?__alloc@?$CTList@VCComThread@@@@AEAAHH@Z ENDP		; CTList<CComThread>::__alloc
_TEXT	ENDS
; Function compile flags: /Odtp /RTCsu
; File e:\infinia-library-3.0\com\include\comtlist.h
;	COMDAT ?setObjAllocType@?$CTList@VCComThread@@@@QEAAXW4E_ALLOC_TYPE@@@Z
_TEXT	SEGMENT
this$ = 16
type$ = 24
?setObjAllocType@?$CTList@VCComThread@@@@QEAAXW4E_ALLOC_TYPE@@@Z PROC ; CTList<CComThread>::setObjAllocType, COMDAT

; 350  : 	inline void setObjAllocType(E_ALLOC_TYPE type) { m_nObjAllocType = type; }

$LN3:
  00000	89 54 24 10	 mov	 DWORD PTR [rsp+16], edx
  00004	48 89 4c 24 08	 mov	 QWORD PTR [rsp+8], rcx
  00009	57		 push	 rdi
  0000a	48 8b 44 24 10	 mov	 rax, QWORD PTR this$[rsp]
  0000f	8b 4c 24 18	 mov	 ecx, DWORD PTR type$[rsp]
  00013	89 48 18	 mov	 DWORD PTR [rax+24], ecx
  00016	5f		 pop	 rdi
  00017	c3		 ret	 0
?setObjAllocType@?$CTList@VCComThread@@@@QEAAXW4E_ALLOC_TYPE@@@Z ENDP ; CTList<CComThread>::setObjAllocType
_TEXT	ENDS
; Function compile flags: /Odtp /RTCsu
; File e:\infinia-library-3.0\com\include\comtlist.h
;	COMDAT ?lastIdx@?$CTList@VCComThread@@@@QEAAHXZ
_TEXT	SEGMENT
this$ = 16
?lastIdx@?$CTList@VCComThread@@@@QEAAHXZ PROC		; CTList<CComThread>::lastIdx, COMDAT

; 348  : 	inline int  lastIdx() { return m_nLast; }

$LN3:
  00000	48 89 4c 24 08	 mov	 QWORD PTR [rsp+8], rcx
  00005	57		 push	 rdi
  00006	48 8b 44 24 10	 mov	 rax, QWORD PTR this$[rsp]
  0000b	8b 40 0c	 mov	 eax, DWORD PTR [rax+12]
  0000e	5f		 pop	 rdi
  0000f	c3		 ret	 0
?lastIdx@?$CTList@VCComThread@@@@QEAAHXZ ENDP		; CTList<CComThread>::lastIdx
_TEXT	ENDS
; Function compile flags: /Odtp /RTCsu
; File e:\infinia-library-3.0\com\include\comtlist.h
;	COMDAT ?size@?$CTList@VCComThread@@@@QEAAHXZ
_TEXT	SEGMENT
this$ = 16
?size@?$CTList@VCComThread@@@@QEAAHXZ PROC		; CTList<CComThread>::size, COMDAT

; 347  : 	inline int  size() { return m_nUse; }

$LN3:
  00000	48 89 4c 24 08	 mov	 QWORD PTR [rsp+8], rcx
  00005	57		 push	 rdi
  00006	48 8b 44 24 10	 mov	 rax, QWORD PTR this$[rsp]
  0000b	8b 40 08	 mov	 eax, DWORD PTR [rax+8]
  0000e	5f		 pop	 rdi
  0000f	c3		 ret	 0
?size@?$CTList@VCComThread@@@@QEAAHXZ ENDP		; CTList<CComThread>::size
_TEXT	ENDS
; Function compile flags: /Odtp /RTCsu
; File e:\infinia-library-3.0\com\include\comtlist.h
;	COMDAT ?getNext@?$CTList@VCComThread@@@@QEAAPEAVCComThread@@PEAH@Z
_TEXT	SEGMENT
this$ = 16
pIdx$ = 24
?getNext@?$CTList@VCComThread@@@@QEAAPEAVCComThread@@PEAH@Z PROC ; CTList<CComThread>::getNext, COMDAT

; 334  : 	inline T* getNext(int *pIdx) {

$LN7:
  00000	48 89 54 24 10	 mov	 QWORD PTR [rsp+16], rdx
  00005	48 89 4c 24 08	 mov	 QWORD PTR [rsp+8], rcx
  0000a	57		 push	 rdi

; 335  : 		for (*pIdx; *pIdx < m_nMax; (*pIdx)++) {

  0000b	eb 10		 jmp	 SHORT $LN4@getNext
$LN2@getNext:
  0000d	48 8b 44 24 18	 mov	 rax, QWORD PTR pIdx$[rsp]
  00012	8b 00		 mov	 eax, DWORD PTR [rax]
  00014	ff c0		 inc	 eax
  00016	48 8b 4c 24 18	 mov	 rcx, QWORD PTR pIdx$[rsp]
  0001b	89 01		 mov	 DWORD PTR [rcx], eax
$LN4@getNext:
  0001d	48 8b 44 24 18	 mov	 rax, QWORD PTR pIdx$[rsp]
  00022	48 8b 4c 24 10	 mov	 rcx, QWORD PTR this$[rsp]
  00027	8b 49 14	 mov	 ecx, DWORD PTR [rcx+20]
  0002a	39 08		 cmp	 DWORD PTR [rax], ecx
  0002c	7d 2f		 jge	 SHORT $LN3@getNext

; 336  : 			if (m_pArray[*pIdx]) { return m_pArray[*pIdx]; }

  0002e	48 8b 44 24 18	 mov	 rax, QWORD PTR pIdx$[rsp]
  00033	48 63 00	 movsxd	 rax, DWORD PTR [rax]
  00036	48 8b 4c 24 10	 mov	 rcx, QWORD PTR this$[rsp]
  0003b	48 8b 09	 mov	 rcx, QWORD PTR [rcx]
  0003e	48 83 3c c1 00	 cmp	 QWORD PTR [rcx+rax*8], 0
  00043	74 16		 je	 SHORT $LN5@getNext
  00045	48 8b 44 24 18	 mov	 rax, QWORD PTR pIdx$[rsp]
  0004a	48 63 00	 movsxd	 rax, DWORD PTR [rax]
  0004d	48 8b 4c 24 10	 mov	 rcx, QWORD PTR this$[rsp]
  00052	48 8b 09	 mov	 rcx, QWORD PTR [rcx]
  00055	48 8b 04 c1	 mov	 rax, QWORD PTR [rcx+rax*8]
  00059	eb 04		 jmp	 SHORT $LN1@getNext
$LN5@getNext:

; 337  : 		}

  0005b	eb b0		 jmp	 SHORT $LN2@getNext
$LN3@getNext:

; 338  : 		return NULL;

  0005d	33 c0		 xor	 eax, eax
$LN1@getNext:

; 339  : 	}

  0005f	5f		 pop	 rdi
  00060	c3		 ret	 0
?getNext@?$CTList@VCComThread@@@@QEAAPEAVCComThread@@PEAH@Z ENDP ; CTList<CComThread>::getNext
_TEXT	ENDS
; Function compile flags: /Odtp /RTCsu
; File e:\infinia-library-3.0\com\include\comtlist.h
;	COMDAT ?getObj@?$CTList@VCComThread@@@@QEAAPEAVCComThread@@H@Z
_TEXT	SEGMENT
this$ = 48
i$ = 56
?getObj@?$CTList@VCComThread@@@@QEAAPEAVCComThread@@H@Z PROC ; CTList<CComThread>::getObj, COMDAT

; 332  : 	inline T* getObj(int i) { if (ISINCLUDE(i, m_nMax)) return m_pArray[i]; return NULL; }

$LN4:
  00000	89 54 24 10	 mov	 DWORD PTR [rsp+16], edx
  00004	48 89 4c 24 08	 mov	 QWORD PTR [rsp+8], rcx
  00009	57		 push	 rdi
  0000a	48 83 ec 20	 sub	 rsp, 32			; 00000020H
  0000e	48 8b fc	 mov	 rdi, rsp
  00011	b9 08 00 00 00	 mov	 ecx, 8
  00016	b8 cc cc cc cc	 mov	 eax, -858993460		; ccccccccH
  0001b	f3 ab		 rep stosd
  0001d	48 8b 4c 24 30	 mov	 rcx, QWORD PTR [rsp+48]
  00022	48 8b 44 24 30	 mov	 rax, QWORD PTR this$[rsp]
  00027	8b 50 14	 mov	 edx, DWORD PTR [rax+20]
  0002a	8b 4c 24 38	 mov	 ecx, DWORD PTR i$[rsp]
  0002e	e8 00 00 00 00	 call	 ?ISINCLUDE@@YA_NHH@Z	; ISINCLUDE
  00033	0f b6 c0	 movzx	 eax, al
  00036	85 c0		 test	 eax, eax
  00038	74 13		 je	 SHORT $LN2@getObj
  0003a	48 63 44 24 38	 movsxd	 rax, DWORD PTR i$[rsp]
  0003f	48 8b 4c 24 30	 mov	 rcx, QWORD PTR this$[rsp]
  00044	48 8b 09	 mov	 rcx, QWORD PTR [rcx]
  00047	48 8b 04 c1	 mov	 rax, QWORD PTR [rcx+rax*8]
  0004b	eb 02		 jmp	 SHORT $LN1@getObj
$LN2@getObj:
  0004d	33 c0		 xor	 eax, eax
$LN1@getObj:
  0004f	48 83 c4 20	 add	 rsp, 32			; 00000020H
  00053	5f		 pop	 rdi
  00054	c3		 ret	 0
?getObj@?$CTList@VCComThread@@@@QEAAPEAVCComThread@@H@Z ENDP ; CTList<CComThread>::getObj
_TEXT	ENDS
; Function compile flags: /Odtp /RTCsu
; File e:\infinia-library-3.0\com\include\comtlist.h
;	COMDAT ?del@?$CTList@VCComThread@@@@QEAA_NH@Z
_TEXT	SEGMENT
this$ = 48
i$ = 56
?del@?$CTList@VCComThread@@@@QEAA_NH@Z PROC		; CTList<CComThread>::del, COMDAT

; 523  : {

$LN4:
  00000	89 54 24 10	 mov	 DWORD PTR [rsp+16], edx
  00004	48 89 4c 24 08	 mov	 QWORD PTR [rsp+8], rcx
  00009	57		 push	 rdi
  0000a	48 83 ec 20	 sub	 rsp, 32			; 00000020H
  0000e	48 8b fc	 mov	 rdi, rsp
  00011	b9 08 00 00 00	 mov	 ecx, 8
  00016	b8 cc cc cc cc	 mov	 eax, -858993460		; ccccccccH
  0001b	f3 ab		 rep stosd
  0001d	48 8b 4c 24 30	 mov	 rcx, QWORD PTR [rsp+48]

; 524  : 	if (!ISINCLUDE(i, m_nMax)) {

  00022	48 8b 44 24 30	 mov	 rax, QWORD PTR this$[rsp]
  00027	8b 50 14	 mov	 edx, DWORD PTR [rax+20]
  0002a	8b 4c 24 38	 mov	 ecx, DWORD PTR i$[rsp]
  0002e	e8 00 00 00 00	 call	 ?ISINCLUDE@@YA_NHH@Z	; ISINCLUDE
  00033	0f b6 c0	 movzx	 eax, al
  00036	85 c0		 test	 eax, eax
  00038	75 25		 jne	 SHORT $LN2@del

; 525  : 		_stprintf(g_szMessage, "i[%d] m_nMax[%d]", i, m_nMax);

  0003a	48 8b 44 24 30	 mov	 rax, QWORD PTR this$[rsp]
  0003f	44 8b 48 14	 mov	 r9d, DWORD PTR [rax+20]
  00043	44 8b 44 24 38	 mov	 r8d, DWORD PTR i$[rsp]
  00048	48 8d 15 00 00
	00 00		 lea	 rdx, OFFSET FLAT:$SG47070
  0004f	48 8d 0d 00 00
	00 00		 lea	 rcx, OFFSET FLAT:?g_szMessage@@3PADA ; g_szMessage
  00056	e8 00 00 00 00	 call	 sprintf

; 526  : 		return false;

  0005b	32 c0		 xor	 al, al
  0005d	eb 10		 jmp	 SHORT $LN1@del
$LN2@del:

; 527  : 	}
; 528  : 	_DEL(i);

  0005f	8b 54 24 38	 mov	 edx, DWORD PTR i$[rsp]
  00063	48 8b 4c 24 30	 mov	 rcx, QWORD PTR this$[rsp]
  00068	e8 00 00 00 00	 call	 ?_DEL@?$CTList@VCComThread@@@@AEAAXH@Z ; CTList<CComThread>::_DEL

; 529  : 	//_stprintf(g_szMessage, _T("CMemList::del i[%d] m_nLast[%d] m_nCurCount[%d]"), i, m_nLast, m_nUse);
; 530  : 	return true;

  0006d	b0 01		 mov	 al, 1
$LN1@del:

; 531  : }

  0006f	48 83 c4 20	 add	 rsp, 32			; 00000020H
  00073	5f		 pop	 rdi
  00074	c3		 ret	 0
?del@?$CTList@VCComThread@@@@QEAA_NH@Z ENDP		; CTList<CComThread>::del
_TEXT	ENDS
; Function compile flags: /Odtp /RTCsu
; File e:\infinia-library-3.0\com\include\comtlist.h
;	COMDAT ?push_back@?$CTList@VCComThread@@@@QEAA_NPEAVCComThread@@PEAH@Z
_TEXT	SEGMENT
nIdx$ = 32
i$ = 36
this$ = 64
Obj$ = 72
pIdx$ = 80
?push_back@?$CTList@VCComThread@@@@QEAA_NPEAVCComThread@@PEAH@Z PROC ; CTList<CComThread>::push_back, COMDAT

; 472  : {

$LN15:
  00000	4c 89 44 24 18	 mov	 QWORD PTR [rsp+24], r8
  00005	48 89 54 24 10	 mov	 QWORD PTR [rsp+16], rdx
  0000a	48 89 4c 24 08	 mov	 QWORD PTR [rsp+8], rcx
  0000f	57		 push	 rdi
  00010	48 83 ec 30	 sub	 rsp, 48			; 00000030H
  00014	48 8b fc	 mov	 rdi, rsp
  00017	b9 0c 00 00 00	 mov	 ecx, 12
  0001c	b8 cc cc cc cc	 mov	 eax, -858993460		; ccccccccH
  00021	f3 ab		 rep stosd
  00023	48 8b 4c 24 40	 mov	 rcx, QWORD PTR [rsp+64]

; 473  : 	int nIdx, i;
; 474  : 
; 475  : 	if (m_nUse >= m_nMax) {

  00028	48 8b 44 24 40	 mov	 rax, QWORD PTR this$[rsp]
  0002d	48 8b 4c 24 40	 mov	 rcx, QWORD PTR this$[rsp]
  00032	8b 49 14	 mov	 ecx, DWORD PTR [rcx+20]
  00035	39 48 08	 cmp	 DWORD PTR [rax+8], ecx
  00038	7c 4b		 jl	 SHORT $LN5@push_back

; 476  : 		if (!__alloc(m_nMax + TLIST_ADD_SIZE)) return false;

  0003a	48 8b 44 24 40	 mov	 rax, QWORD PTR this$[rsp]
  0003f	8b 40 14	 mov	 eax, DWORD PTR [rax+20]
  00042	83 c0 40	 add	 eax, 64			; 00000040H
  00045	8b d0		 mov	 edx, eax
  00047	48 8b 4c 24 40	 mov	 rcx, QWORD PTR this$[rsp]
  0004c	e8 00 00 00 00	 call	 ?__alloc@?$CTList@VCComThread@@@@AEAAHH@Z ; CTList<CComThread>::__alloc
  00051	85 c0		 test	 eax, eax
  00053	75 07		 jne	 SHORT $LN6@push_back
  00055	32 c0		 xor	 al, al
  00057	e9 0c 01 00 00	 jmp	 $LN1@push_back
$LN6@push_back:

; 477  : 		nIdx = m_nMax;

  0005c	48 8b 44 24 40	 mov	 rax, QWORD PTR this$[rsp]
  00061	8b 40 14	 mov	 eax, DWORD PTR [rax+20]
  00064	89 44 24 20	 mov	 DWORD PTR nIdx$[rsp], eax

; 478  : 		m_nMax += TLIST_ADD_SIZE;

  00068	48 8b 44 24 40	 mov	 rax, QWORD PTR this$[rsp]
  0006d	8b 40 14	 mov	 eax, DWORD PTR [rax+20]
  00070	83 c0 40	 add	 eax, 64			; 00000040H
  00073	48 8b 4c 24 40	 mov	 rcx, QWORD PTR this$[rsp]
  00078	89 41 14	 mov	 DWORD PTR [rcx+20], eax

; 479  : 		goto ADD_SUCCESS;

  0007b	e9 99 00 00 00	 jmp	 $LN7@push_back
  00080	e9 94 00 00 00	 jmp	 $ADD_SUCCESS$16
$LN5@push_back:

; 480  : 	}
; 481  : 
; 482  : 	if (!m_pArray[m_nLast]) { nIdx = m_nLast;  goto ADD_SUCCESS; }

  00085	48 8b 44 24 40	 mov	 rax, QWORD PTR this$[rsp]
  0008a	48 63 40 0c	 movsxd	 rax, DWORD PTR [rax+12]
  0008e	48 8b 4c 24 40	 mov	 rcx, QWORD PTR this$[rsp]
  00093	48 8b 09	 mov	 rcx, QWORD PTR [rcx]
  00096	48 83 3c c1 00	 cmp	 QWORD PTR [rcx+rax*8], 0
  0009b	75 10		 jne	 SHORT $LN8@push_back
  0009d	48 8b 44 24 40	 mov	 rax, QWORD PTR this$[rsp]
  000a2	8b 40 0c	 mov	 eax, DWORD PTR [rax+12]
  000a5	89 44 24 20	 mov	 DWORD PTR nIdx$[rsp], eax
  000a9	eb 6e		 jmp	 SHORT $LN9@push_back
  000ab	eb 6c		 jmp	 SHORT $ADD_SUCCESS$16
$LN8@push_back:

; 483  : 
; 484  : 	nIdx = m_nLast;

  000ad	48 8b 44 24 40	 mov	 rax, QWORD PTR this$[rsp]
  000b2	8b 40 0c	 mov	 eax, DWORD PTR [rax+12]
  000b5	89 44 24 20	 mov	 DWORD PTR nIdx$[rsp], eax

; 485  : 	for (i = 0; i < m_nMax; i++)

  000b9	c7 44 24 24 00
	00 00 00	 mov	 DWORD PTR i$[rsp], 0
  000c1	eb 0a		 jmp	 SHORT $LN4@push_back
$LN2@push_back:
  000c3	8b 44 24 24	 mov	 eax, DWORD PTR i$[rsp]
  000c7	ff c0		 inc	 eax
  000c9	89 44 24 24	 mov	 DWORD PTR i$[rsp], eax
$LN4@push_back:
  000cd	48 8b 44 24 40	 mov	 rax, QWORD PTR this$[rsp]
  000d2	8b 40 14	 mov	 eax, DWORD PTR [rax+20]
  000d5	39 44 24 24	 cmp	 DWORD PTR i$[rsp], eax
  000d9	7d 3a		 jge	 SHORT $LN3@push_back

; 486  : 	{
; 487  : 		if (nIdx >= m_nMax) nIdx = 0;

  000db	48 8b 44 24 40	 mov	 rax, QWORD PTR this$[rsp]
  000e0	8b 40 14	 mov	 eax, DWORD PTR [rax+20]
  000e3	39 44 24 20	 cmp	 DWORD PTR nIdx$[rsp], eax
  000e7	7c 08		 jl	 SHORT $LN10@push_back
  000e9	c7 44 24 20 00
	00 00 00	 mov	 DWORD PTR nIdx$[rsp], 0
$LN10@push_back:

; 488  : 		if (!m_pArray[nIdx]) {

  000f1	48 63 44 24 20	 movsxd	 rax, DWORD PTR nIdx$[rsp]
  000f6	48 8b 4c 24 40	 mov	 rcx, QWORD PTR this$[rsp]
  000fb	48 8b 09	 mov	 rcx, QWORD PTR [rcx]
  000fe	48 83 3c c1 00	 cmp	 QWORD PTR [rcx+rax*8], 0
  00103	75 04		 jne	 SHORT $LN11@push_back

; 489  : 			goto ADD_SUCCESS;

  00105	eb 12		 jmp	 SHORT $LN12@push_back
  00107	eb 10		 jmp	 SHORT $ADD_SUCCESS$16
$LN11@push_back:

; 490  : 		}
; 491  : 		nIdx++;

  00109	8b 44 24 20	 mov	 eax, DWORD PTR nIdx$[rsp]
  0010d	ff c0		 inc	 eax
  0010f	89 44 24 20	 mov	 DWORD PTR nIdx$[rsp], eax

; 492  : 	}

  00113	eb ae		 jmp	 SHORT $LN2@push_back
$LN3@push_back:

; 493  : 	//_stprintf(m_szMessage, _T("add FAIL! m_nLast[%d] m_nCurCount[%d] m_nMax[%d]"), m_nLast, m_nUse, m_nMax);
; 494  : 	return false;

  00115	32 c0		 xor	 al, al
  00117	eb 4f		 jmp	 SHORT $LN1@push_back
$LN7@push_back:
$LN9@push_back:
$LN12@push_back:
$ADD_SUCCESS$16:

; 495  : 
; 496  : ADD_SUCCESS:
; 497  : 	m_nUse++;

  00119	48 8b 44 24 40	 mov	 rax, QWORD PTR this$[rsp]
  0011e	8b 40 08	 mov	 eax, DWORD PTR [rax+8]
  00121	ff c0		 inc	 eax
  00123	48 8b 4c 24 40	 mov	 rcx, QWORD PTR this$[rsp]
  00128	89 41 08	 mov	 DWORD PTR [rcx+8], eax

; 498  : 	m_pArray[nIdx] = Obj;

  0012b	48 63 44 24 20	 movsxd	 rax, DWORD PTR nIdx$[rsp]
  00130	48 8b 4c 24 40	 mov	 rcx, QWORD PTR this$[rsp]
  00135	48 8b 09	 mov	 rcx, QWORD PTR [rcx]
  00138	48 8b 54 24 48	 mov	 rdx, QWORD PTR Obj$[rsp]
  0013d	48 89 14 c1	 mov	 QWORD PTR [rcx+rax*8], rdx

; 499  : 	m_nLast++;

  00141	48 8b 44 24 40	 mov	 rax, QWORD PTR this$[rsp]
  00146	8b 40 0c	 mov	 eax, DWORD PTR [rax+12]
  00149	ff c0		 inc	 eax
  0014b	48 8b 4c 24 40	 mov	 rcx, QWORD PTR this$[rsp]
  00150	89 41 0c	 mov	 DWORD PTR [rcx+12], eax

; 500  : 	//_stprintf(g_szMessage, _T("CMemList::add i[%d] m_nLast[%d] m_nCurCount[%d]"), nIdx, m_nLast, m_nUse);
; 501  : 	if (pIdx) *pIdx = nIdx;

  00153	48 83 7c 24 50
	00		 cmp	 QWORD PTR pIdx$[rsp], 0
  00159	74 0b		 je	 SHORT $LN13@push_back
  0015b	48 8b 44 24 50	 mov	 rax, QWORD PTR pIdx$[rsp]
  00160	8b 4c 24 20	 mov	 ecx, DWORD PTR nIdx$[rsp]
  00164	89 08		 mov	 DWORD PTR [rax], ecx
$LN13@push_back:

; 502  : 	return true;

  00166	b0 01		 mov	 al, 1
$LN1@push_back:

; 503  : }

  00168	48 83 c4 30	 add	 rsp, 48			; 00000030H
  0016c	5f		 pop	 rdi
  0016d	c3		 ret	 0
?push_back@?$CTList@VCComThread@@@@QEAA_NPEAVCComThread@@PEAH@Z ENDP ; CTList<CComThread>::push_back
_TEXT	ENDS
; Function compile flags: /Odtp /RTCsu
; File e:\infinia-library-3.0\com\include\comtlist.h
;	COMDAT ?alloc@?$CTList@VCComThread@@@@QEAAHHW4E_ALLOC_TYPE@@@Z
_TEXT	SEGMENT
this$ = 48
nMaxCount$ = 56
type$ = 64
?alloc@?$CTList@VCComThread@@@@QEAAHHW4E_ALLOC_TYPE@@@Z PROC ; CTList<CComThread>::alloc, COMDAT

; 326  : 	int alloc(int nMaxCount, E_ALLOC_TYPE type = eAlloc_Type_new) { m_nObjAllocType = type;  m_nMax = __alloc(nMaxCount); return m_nMax; }

$LN3:
  00000	44 89 44 24 18	 mov	 DWORD PTR [rsp+24], r8d
  00005	89 54 24 10	 mov	 DWORD PTR [rsp+16], edx
  00009	48 89 4c 24 08	 mov	 QWORD PTR [rsp+8], rcx
  0000e	57		 push	 rdi
  0000f	48 83 ec 20	 sub	 rsp, 32			; 00000020H
  00013	48 8b fc	 mov	 rdi, rsp
  00016	b9 08 00 00 00	 mov	 ecx, 8
  0001b	b8 cc cc cc cc	 mov	 eax, -858993460		; ccccccccH
  00020	f3 ab		 rep stosd
  00022	48 8b 4c 24 30	 mov	 rcx, QWORD PTR [rsp+48]
  00027	48 8b 44 24 30	 mov	 rax, QWORD PTR this$[rsp]
  0002c	8b 4c 24 40	 mov	 ecx, DWORD PTR type$[rsp]
  00030	89 48 18	 mov	 DWORD PTR [rax+24], ecx
  00033	8b 54 24 38	 mov	 edx, DWORD PTR nMaxCount$[rsp]
  00037	48 8b 4c 24 30	 mov	 rcx, QWORD PTR this$[rsp]
  0003c	e8 00 00 00 00	 call	 ?__alloc@?$CTList@VCComThread@@@@AEAAHH@Z ; CTList<CComThread>::__alloc
  00041	48 8b 4c 24 30	 mov	 rcx, QWORD PTR this$[rsp]
  00046	89 41 14	 mov	 DWORD PTR [rcx+20], eax
  00049	48 8b 44 24 30	 mov	 rax, QWORD PTR this$[rsp]
  0004e	8b 40 14	 mov	 eax, DWORD PTR [rax+20]
  00051	48 83 c4 20	 add	 rsp, 32			; 00000020H
  00055	5f		 pop	 rdi
  00056	c3		 ret	 0
?alloc@?$CTList@VCComThread@@@@QEAAHHW4E_ALLOC_TYPE@@@Z ENDP ; CTList<CComThread>::alloc
_TEXT	ENDS
; Function compile flags: /Odtp /RTCsu
; File e:\infinia-library-3.0\com\include\comtlist.h
;	COMDAT ??1?$CTList@VCComThread@@@@QEAA@XZ
_TEXT	SEGMENT
idx$4 = 36
p$5 = 56
$T6 = 72
$T7 = 80
$T8 = 88
$T9 = 96
$T10 = 104
tv77 = 112
tv82 = 120
tv95 = 128
__$ArrayPad$ = 136
this$ = 160
??1?$CTList@VCComThread@@@@QEAA@XZ PROC			; CTList<CComThread>::~CTList<CComThread>, COMDAT

; 376  : {

$LN20:
  00000	48 89 4c 24 08	 mov	 QWORD PTR [rsp+8], rcx
  00005	57		 push	 rdi
  00006	48 81 ec 90 00
	00 00		 sub	 rsp, 144		; 00000090H
  0000d	48 8b fc	 mov	 rdi, rsp
  00010	b9 24 00 00 00	 mov	 ecx, 36			; 00000024H
  00015	b8 cc cc cc cc	 mov	 eax, -858993460		; ccccccccH
  0001a	f3 ab		 rep stosd
  0001c	48 8b 8c 24 a0
	00 00 00	 mov	 rcx, QWORD PTR [rsp+160]
  00024	48 c7 44 24 68
	fe ff ff ff	 mov	 QWORD PTR $T10[rsp], -2
  0002d	48 8b 05 00 00
	00 00		 mov	 rax, QWORD PTR __security_cookie
  00034	48 33 c4	 xor	 rax, rsp
  00037	48 89 84 24 88
	00 00 00	 mov	 QWORD PTR __$ArrayPad$[rsp], rax

; 377  : 	if (!m_pArray) return;

  0003f	48 8b 84 24 a0
	00 00 00	 mov	 rax, QWORD PTR this$[rsp]
  00047	48 83 38 00	 cmp	 QWORD PTR [rax], 0
  0004b	75 05		 jne	 SHORT $LN6@CTList
  0004d	e9 81 01 00 00	 jmp	 $LN1@CTList
$LN6@CTList:

; 378  : 
; 379  : 	if (ISABLETODELETE(m_nObjAllocType)) {

  00052	48 8b 84 24 a0
	00 00 00	 mov	 rax, QWORD PTR this$[rsp]
  0005a	8b 48 18	 mov	 ecx, DWORD PTR [rax+24]
  0005d	e8 00 00 00 00	 call	 ?ISABLETODELETE@@YA_NW4E_ALLOC_TYPE@@@Z ; ISABLETODELETE
  00062	90		 npad	 1
  00063	0f b6 c0	 movzx	 eax, al
  00066	85 c0		 test	 eax, eax
  00068	0f 84 36 01 00
	00		 je	 $LN7@CTList

; 380  : 		int idx = 0;

  0006e	c7 44 24 24 00
	00 00 00	 mov	 DWORD PTR idx$4[rsp], 0

; 381  : 		T *p = getNext(&idx);

  00076	48 8d 54 24 24	 lea	 rdx, QWORD PTR idx$4[rsp]
  0007b	48 8b 8c 24 a0
	00 00 00	 mov	 rcx, QWORD PTR this$[rsp]
  00083	e8 00 00 00 00	 call	 ?getNext@?$CTList@VCComThread@@@@QEAAPEAVCComThread@@PEAH@Z ; CTList<CComThread>::getNext
  00088	90		 npad	 1
  00089	48 89 44 24 38	 mov	 QWORD PTR p$5[rsp], rax
$LN2@CTList:

; 382  : 		while (p) {

  0008e	48 83 7c 24 38
	00		 cmp	 QWORD PTR p$5[rsp], 0
  00094	0f 84 0a 01 00
	00		 je	 $LN7@CTList

; 383  : 			idx++;

  0009a	8b 44 24 24	 mov	 eax, DWORD PTR idx$4[rsp]
  0009e	ff c0		 inc	 eax
  000a0	89 44 24 24	 mov	 DWORD PTR idx$4[rsp], eax

; 384  : 			switch (m_nObjAllocType) {

  000a4	48 8b 84 24 a0
	00 00 00	 mov	 rax, QWORD PTR this$[rsp]
  000ac	8b 40 18	 mov	 eax, DWORD PTR [rax+24]
  000af	89 44 24 70	 mov	 DWORD PTR tv77[rsp], eax
  000b3	83 7c 24 70 02	 cmp	 DWORD PTR tv77[rsp], 2
  000b8	74 1a		 je	 SHORT $LN8@CTList
  000ba	83 7c 24 70 03	 cmp	 DWORD PTR tv77[rsp], 3
  000bf	74 51		 je	 SHORT $LN9@CTList
  000c1	83 7c 24 70 04	 cmp	 DWORD PTR tv77[rsp], 4
  000c6	74 58		 je	 SHORT $LN10@CTList
  000c8	83 7c 24 70 05	 cmp	 DWORD PTR tv77[rsp], 5
  000cd	74 76		 je	 SHORT $LN11@CTList
  000cf	e9 b3 00 00 00	 jmp	 $LN4@CTList
$LN8@CTList:

; 385  : 				case eAlloc_Type_new		:	delete p; break;

  000d4	48 8b 44 24 38	 mov	 rax, QWORD PTR p$5[rsp]
  000d9	48 89 44 24 50	 mov	 QWORD PTR $T7[rsp], rax
  000de	48 8b 44 24 50	 mov	 rax, QWORD PTR $T7[rsp]
  000e3	48 89 44 24 48	 mov	 QWORD PTR $T6[rsp], rax
  000e8	48 83 7c 24 48
	00		 cmp	 QWORD PTR $T6[rsp], 0
  000ee	74 17		 je	 SHORT $LN16@CTList
  000f0	ba 01 00 00 00	 mov	 edx, 1
  000f5	48 8b 4c 24 48	 mov	 rcx, QWORD PTR $T6[rsp]
  000fa	e8 00 00 00 00	 call	 ??_GCComThread@@QEAAPEAXI@Z
  000ff	90		 npad	 1
  00100	48 89 44 24 78	 mov	 QWORD PTR tv82[rsp], rax
  00105	eb 09		 jmp	 SHORT $LN17@CTList
$LN16@CTList:
  00107	48 c7 44 24 78
	00 00 00 00	 mov	 QWORD PTR tv82[rsp], 0
$LN17@CTList:
  00110	eb 75		 jmp	 SHORT $LN4@CTList
$LN9@CTList:

; 386  : 				case eAlloc_Type_alloc		:	free(p); break;

  00112	48 8b 4c 24 38	 mov	 rcx, QWORD PTR p$5[rsp]
  00117	ff 15 00 00 00
	00		 call	 QWORD PTR __imp_free
  0011d	90		 npad	 1
  0011e	eb 67		 jmp	 SHORT $LN4@CTList
$LN10@CTList:

; 387  : 				case eAlloc_Type_BufPool	:	gs_pMMgr->delBuf((char *)p, STRING_SIZE((TCHAR *)p)); break;

  00120	48 8b 4c 24 38	 mov	 rcx, QWORD PTR p$5[rsp]
  00125	e8 00 00 00 00	 call	 strlen
  0012a	90		 npad	 1
  0012b	48 ff c0	 inc	 rax
  0012e	44 8b c0	 mov	 r8d, eax
  00131	48 8b 54 24 38	 mov	 rdx, QWORD PTR p$5[rsp]
  00136	48 8b 0d 00 00
	00 00		 mov	 rcx, QWORD PTR ?gs_pMMgr@@3PEAVCMemManager@@EA ; gs_pMMgr
  0013d	e8 00 00 00 00	 call	 ?delBuf@CMemManager@@QEAAXPEADH@Z ; CMemManager::delBuf
  00142	90		 npad	 1
  00143	eb 42		 jmp	 SHORT $LN4@CTList
$LN11@CTList:

; 388  : 				case eAlloc_Type_newArray	:	delete[] p; break;

  00145	48 8b 44 24 38	 mov	 rax, QWORD PTR p$5[rsp]
  0014a	48 89 44 24 60	 mov	 QWORD PTR $T9[rsp], rax
  0014f	48 8b 44 24 60	 mov	 rax, QWORD PTR $T9[rsp]
  00154	48 89 44 24 58	 mov	 QWORD PTR $T8[rsp], rax
  00159	48 83 7c 24 58
	00		 cmp	 QWORD PTR $T8[rsp], 0
  0015f	74 1a		 je	 SHORT $LN18@CTList
  00161	ba 03 00 00 00	 mov	 edx, 3
  00166	48 8b 4c 24 58	 mov	 rcx, QWORD PTR $T8[rsp]
  0016b	e8 00 00 00 00	 call	 ??_ECComThread@@QEAAPEAXI@Z
  00170	90		 npad	 1
  00171	48 89 84 24 80
	00 00 00	 mov	 QWORD PTR tv95[rsp], rax
  00179	eb 0c		 jmp	 SHORT $LN4@CTList
$LN18@CTList:
  0017b	48 c7 84 24 80
	00 00 00 00 00
	00 00		 mov	 QWORD PTR tv95[rsp], 0
$LN4@CTList:

; 389  : 				case eAlloc_Type_none		:	break;
; 390  : 				case eAlloc_Type_MemPool	:	break;
; 391  : 			}
; 392  : 			p = getNext(&idx);

  00187	48 8d 54 24 24	 lea	 rdx, QWORD PTR idx$4[rsp]
  0018c	48 8b 8c 24 a0
	00 00 00	 mov	 rcx, QWORD PTR this$[rsp]
  00194	e8 00 00 00 00	 call	 ?getNext@?$CTList@VCComThread@@@@QEAAPEAVCComThread@@PEAH@Z ; CTList<CComThread>::getNext
  00199	90		 npad	 1
  0019a	48 89 44 24 38	 mov	 QWORD PTR p$5[rsp], rax

; 393  : 		}

  0019f	e9 ea fe ff ff	 jmp	 $LN2@CTList
$LN7@CTList:

; 394  : 	}
; 395  : 
; 396  : 	if (m_pArray)	free(m_pArray);

  001a4	48 8b 84 24 a0
	00 00 00	 mov	 rax, QWORD PTR this$[rsp]
  001ac	48 83 38 00	 cmp	 QWORD PTR [rax], 0
  001b0	74 12		 je	 SHORT $LN14@CTList
  001b2	48 8b 84 24 a0
	00 00 00	 mov	 rax, QWORD PTR this$[rsp]
  001ba	48 8b 08	 mov	 rcx, QWORD PTR [rax]
  001bd	ff 15 00 00 00
	00		 call	 QWORD PTR __imp_free
  001c3	90		 npad	 1
$LN14@CTList:

; 397  : 	m_pArray = 0;

  001c4	48 8b 84 24 a0
	00 00 00	 mov	 rax, QWORD PTR this$[rsp]
  001cc	48 c7 00 00 00
	00 00		 mov	 QWORD PTR [rax], 0
$LN1@CTList:

; 398  : }

  001d3	48 8b cc	 mov	 rcx, rsp
  001d6	48 8d 15 00 00
	00 00		 lea	 rdx, OFFSET FLAT:??1?$CTList@VCComThread@@@@QEAA@XZ$rtcFrameData
  001dd	e8 00 00 00 00	 call	 _RTC_CheckStackVars
  001e2	90		 npad	 1
  001e3	48 8b 8c 24 88
	00 00 00	 mov	 rcx, QWORD PTR __$ArrayPad$[rsp]
  001eb	48 33 cc	 xor	 rcx, rsp
  001ee	e8 00 00 00 00	 call	 __security_check_cookie
  001f3	90		 npad	 1
  001f4	48 81 c4 90 00
	00 00		 add	 rsp, 144		; 00000090H
  001fb	5f		 pop	 rdi
  001fc	c3		 ret	 0
??1?$CTList@VCComThread@@@@QEAA@XZ ENDP			; CTList<CComThread>::~CTList<CComThread>
_TEXT	ENDS
; Function compile flags: /Odtp /RTCsu
; File e:\infinia-library-3.0\com\include\comtlist.h
;	COMDAT ??0?$CTList@VCComThread@@@@QEAA@XZ
_TEXT	SEGMENT
this$ = 16
??0?$CTList@VCComThread@@@@QEAA@XZ PROC			; CTList<CComThread>::CTList<CComThread>, COMDAT

; 365  : {

$LN3:
  00000	48 89 4c 24 08	 mov	 QWORD PTR [rsp+8], rcx
  00005	57		 push	 rdi

; 366  : 	m_pArray = NULL;

  00006	48 8b 44 24 10	 mov	 rax, QWORD PTR this$[rsp]
  0000b	48 c7 00 00 00
	00 00		 mov	 QWORD PTR [rax], 0

; 367  : 	m_nUse = 0;

  00012	48 8b 44 24 10	 mov	 rax, QWORD PTR this$[rsp]
  00017	c7 40 08 00 00
	00 00		 mov	 DWORD PTR [rax+8], 0

; 368  : 	m_nLast = 0;

  0001e	48 8b 44 24 10	 mov	 rax, QWORD PTR this$[rsp]
  00023	c7 40 0c 00 00
	00 00		 mov	 DWORD PTR [rax+12], 0

; 369  : 	m_nDelIdx = 0;

  0002a	48 8b 44 24 10	 mov	 rax, QWORD PTR this$[rsp]
  0002f	c7 40 10 00 00
	00 00		 mov	 DWORD PTR [rax+16], 0

; 370  : 	m_nMax = 0;

  00036	48 8b 44 24 10	 mov	 rax, QWORD PTR this$[rsp]
  0003b	c7 40 14 00 00
	00 00		 mov	 DWORD PTR [rax+20], 0

; 371  : 	m_nObjAllocType = eAlloc_Type_none;

  00042	48 8b 44 24 10	 mov	 rax, QWORD PTR this$[rsp]
  00047	c7 40 18 00 00
	00 00		 mov	 DWORD PTR [rax+24], 0

; 372  : }

  0004e	48 8b 44 24 10	 mov	 rax, QWORD PTR this$[rsp]
  00053	5f		 pop	 rdi
  00054	c3		 ret	 0
??0?$CTList@VCComThread@@@@QEAA@XZ ENDP			; CTList<CComThread>::CTList<CComThread>
_TEXT	ENDS
; Function compile flags: /Odtp /RTCsu
;	COMDAT ??_G?$CTList@VCScheduler@@@@QEAAPEAXI@Z
_TEXT	SEGMENT
this$ = 48
__flags$ = 56
??_G?$CTList@VCScheduler@@@@QEAAPEAXI@Z PROC		; CTList<CScheduler>::`scalar deleting destructor', COMDAT
$LN4:
  00000	89 54 24 10	 mov	 DWORD PTR [rsp+16], edx
  00004	48 89 4c 24 08	 mov	 QWORD PTR [rsp+8], rcx
  00009	57		 push	 rdi
  0000a	48 83 ec 20	 sub	 rsp, 32			; 00000020H
  0000e	48 8b fc	 mov	 rdi, rsp
  00011	b9 08 00 00 00	 mov	 ecx, 8
  00016	b8 cc cc cc cc	 mov	 eax, -858993460		; ccccccccH
  0001b	f3 ab		 rep stosd
  0001d	48 8b 4c 24 30	 mov	 rcx, QWORD PTR [rsp+48]
  00022	48 8b 4c 24 30	 mov	 rcx, QWORD PTR this$[rsp]
  00027	e8 00 00 00 00	 call	 ??1?$CTList@VCScheduler@@@@QEAA@XZ ; CTList<CScheduler>::~CTList<CScheduler>
  0002c	8b 44 24 38	 mov	 eax, DWORD PTR __flags$[rsp]
  00030	83 e0 01	 and	 eax, 1
  00033	85 c0		 test	 eax, eax
  00035	74 0f		 je	 SHORT $LN2@scalar
  00037	ba 20 00 00 00	 mov	 edx, 32			; 00000020H
  0003c	48 8b 4c 24 30	 mov	 rcx, QWORD PTR this$[rsp]
  00041	e8 00 00 00 00	 call	 ??3@YAXPEAX_K@Z		; operator delete
$LN2@scalar:
  00046	48 8b 44 24 30	 mov	 rax, QWORD PTR this$[rsp]
  0004b	48 83 c4 20	 add	 rsp, 32			; 00000020H
  0004f	5f		 pop	 rdi
  00050	c3		 ret	 0
??_G?$CTList@VCScheduler@@@@QEAAPEAXI@Z ENDP		; CTList<CScheduler>::`scalar deleting destructor'
_TEXT	ENDS
; Function compile flags: /Odtp /RTCsu
;	COMDAT ?__autoclassinit2@?$CTList@VCScheduler@@@@QEAAX_K@Z
_TEXT	SEGMENT
this$ = 16
classSize$ = 24
?__autoclassinit2@?$CTList@VCScheduler@@@@QEAAX_K@Z PROC ; CTList<CScheduler>::__autoclassinit2, COMDAT
$LN3:
  00000	48 89 54 24 10	 mov	 QWORD PTR [rsp+16], rdx
  00005	48 89 4c 24 08	 mov	 QWORD PTR [rsp+8], rcx
  0000a	57		 push	 rdi
  0000b	48 8b 7c 24 10	 mov	 rdi, QWORD PTR this$[rsp]
  00010	33 c0		 xor	 eax, eax
  00012	48 8b 4c 24 18	 mov	 rcx, QWORD PTR classSize$[rsp]
  00017	f3 aa		 rep stosb
  00019	5f		 pop	 rdi
  0001a	c3		 ret	 0
?__autoclassinit2@?$CTList@VCScheduler@@@@QEAAX_K@Z ENDP ; CTList<CScheduler>::__autoclassinit2
_TEXT	ENDS
; Function compile flags: /Odtp /RTCsu
; File e:\infinia-library-3.0\com\include\comtlist.h
;	COMDAT ?_DEL@?$CTList@VCScheduler@@@@AEAAXH@Z
_TEXT	SEGMENT
this$ = 16
i$ = 24
?_DEL@?$CTList@VCScheduler@@@@AEAAXH@Z PROC		; CTList<CScheduler>::_DEL, COMDAT

; 360  : 	inline void _DEL(int i) { m_pArray[i] = 0; m_nUse--; m_nDelIdx = i; }

$LN3:
  00000	89 54 24 10	 mov	 DWORD PTR [rsp+16], edx
  00004	48 89 4c 24 08	 mov	 QWORD PTR [rsp+8], rcx
  00009	57		 push	 rdi
  0000a	48 63 44 24 18	 movsxd	 rax, DWORD PTR i$[rsp]
  0000f	48 8b 4c 24 10	 mov	 rcx, QWORD PTR this$[rsp]
  00014	48 8b 09	 mov	 rcx, QWORD PTR [rcx]
  00017	48 c7 04 c1 00
	00 00 00	 mov	 QWORD PTR [rcx+rax*8], 0
  0001f	48 8b 44 24 10	 mov	 rax, QWORD PTR this$[rsp]
  00024	8b 40 08	 mov	 eax, DWORD PTR [rax+8]
  00027	ff c8		 dec	 eax
  00029	48 8b 4c 24 10	 mov	 rcx, QWORD PTR this$[rsp]
  0002e	89 41 08	 mov	 DWORD PTR [rcx+8], eax
  00031	48 8b 44 24 10	 mov	 rax, QWORD PTR this$[rsp]
  00036	8b 4c 24 18	 mov	 ecx, DWORD PTR i$[rsp]
  0003a	89 48 10	 mov	 DWORD PTR [rax+16], ecx
  0003d	5f		 pop	 rdi
  0003e	c3		 ret	 0
?_DEL@?$CTList@VCScheduler@@@@AEAAXH@Z ENDP		; CTList<CScheduler>::_DEL
_TEXT	ENDS
; Function compile flags: /Odtp /RTCsu
; File e:\infinia-library-3.0\com\include\comtlist.h
;	COMDAT ?__alloc@?$CTList@VCScheduler@@@@AEAAHH@Z
_TEXT	SEGMENT
pList$ = 32
this$ = 64
nMaxCount$ = 72
?__alloc@?$CTList@VCScheduler@@@@AEAAHH@Z PROC		; CTList<CScheduler>::__alloc, COMDAT

; 402  : {

$LN5:
  00000	89 54 24 10	 mov	 DWORD PTR [rsp+16], edx
  00004	48 89 4c 24 08	 mov	 QWORD PTR [rsp+8], rcx
  00009	57		 push	 rdi
  0000a	48 83 ec 30	 sub	 rsp, 48			; 00000030H
  0000e	48 8b fc	 mov	 rdi, rsp
  00011	b9 0c 00 00 00	 mov	 ecx, 12
  00016	b8 cc cc cc cc	 mov	 eax, -858993460		; ccccccccH
  0001b	f3 ab		 rep stosd
  0001d	48 8b 4c 24 40	 mov	 rcx, QWORD PTR [rsp+64]

; 403  : 	T** pList = (T**)calloc(nMaxCount, sizeof(T*));

  00022	48 63 44 24 48	 movsxd	 rax, DWORD PTR nMaxCount$[rsp]
  00027	ba 08 00 00 00	 mov	 edx, 8
  0002c	48 8b c8	 mov	 rcx, rax
  0002f	ff 15 00 00 00
	00		 call	 QWORD PTR __imp_calloc
  00035	48 89 44 24 20	 mov	 QWORD PTR pList$[rsp], rax

; 404  : 	if (!pList) {

  0003a	48 83 7c 24 20
	00		 cmp	 QWORD PTR pList$[rsp], 0
  00040	75 17		 jne	 SHORT $LN2@alloc

; 405  : 		_stprintf(g_szMessage, "pList calloc is NULL");

  00042	48 8d 15 00 00
	00 00		 lea	 rdx, OFFSET FLAT:$SG47010
  00049	48 8d 0d 00 00
	00 00		 lea	 rcx, OFFSET FLAT:?g_szMessage@@3PADA ; g_szMessage
  00050	e8 00 00 00 00	 call	 sprintf

; 406  : 		return 0;

  00055	33 c0		 xor	 eax, eax
  00057	eb 4c		 jmp	 SHORT $LN1@alloc
$LN2@alloc:

; 407  : 	}
; 408  : 	//_stprintf(g_szMessage, _T("CTList::__alloc list m_nMaxCount[%d]"), nMaxCount);
; 409  : 	if (m_pArray) {

  00059	48 8b 44 24 40	 mov	 rax, QWORD PTR this$[rsp]
  0005e	48 83 38 00	 cmp	 QWORD PTR [rax], 0
  00062	74 30		 je	 SHORT $LN3@alloc

; 410  : 		memcpy(pList, m_pArray, m_nMax * sizeof(T*));

  00064	48 8b 44 24 40	 mov	 rax, QWORD PTR this$[rsp]
  00069	48 63 40 14	 movsxd	 rax, DWORD PTR [rax+20]
  0006d	48 c1 e0 03	 shl	 rax, 3
  00071	4c 8b c0	 mov	 r8, rax
  00074	48 8b 44 24 40	 mov	 rax, QWORD PTR this$[rsp]
  00079	48 8b 10	 mov	 rdx, QWORD PTR [rax]
  0007c	48 8b 4c 24 20	 mov	 rcx, QWORD PTR pList$[rsp]
  00081	e8 00 00 00 00	 call	 memcpy

; 411  : 		free(m_pArray);

  00086	48 8b 44 24 40	 mov	 rax, QWORD PTR this$[rsp]
  0008b	48 8b 08	 mov	 rcx, QWORD PTR [rax]
  0008e	ff 15 00 00 00
	00		 call	 QWORD PTR __imp_free
$LN3@alloc:

; 412  : 	}
; 413  : 	m_pArray = pList;

  00094	48 8b 44 24 40	 mov	 rax, QWORD PTR this$[rsp]
  00099	48 8b 4c 24 20	 mov	 rcx, QWORD PTR pList$[rsp]
  0009e	48 89 08	 mov	 QWORD PTR [rax], rcx

; 414  : 	return nMaxCount;

  000a1	8b 44 24 48	 mov	 eax, DWORD PTR nMaxCount$[rsp]
$LN1@alloc:

; 415  : }

  000a5	48 83 c4 30	 add	 rsp, 48			; 00000030H
  000a9	5f		 pop	 rdi
  000aa	c3		 ret	 0
?__alloc@?$CTList@VCScheduler@@@@AEAAHH@Z ENDP		; CTList<CScheduler>::__alloc
_TEXT	ENDS
; Function compile flags: /Odtp /RTCsu
; File e:\infinia-library-3.0\com\include\comtlist.h
;	COMDAT ?setObjAllocType@?$CTList@VCScheduler@@@@QEAAXW4E_ALLOC_TYPE@@@Z
_TEXT	SEGMENT
this$ = 16
type$ = 24
?setObjAllocType@?$CTList@VCScheduler@@@@QEAAXW4E_ALLOC_TYPE@@@Z PROC ; CTList<CScheduler>::setObjAllocType, COMDAT

; 350  : 	inline void setObjAllocType(E_ALLOC_TYPE type) { m_nObjAllocType = type; }

$LN3:
  00000	89 54 24 10	 mov	 DWORD PTR [rsp+16], edx
  00004	48 89 4c 24 08	 mov	 QWORD PTR [rsp+8], rcx
  00009	57		 push	 rdi
  0000a	48 8b 44 24 10	 mov	 rax, QWORD PTR this$[rsp]
  0000f	8b 4c 24 18	 mov	 ecx, DWORD PTR type$[rsp]
  00013	89 48 18	 mov	 DWORD PTR [rax+24], ecx
  00016	5f		 pop	 rdi
  00017	c3		 ret	 0
?setObjAllocType@?$CTList@VCScheduler@@@@QEAAXW4E_ALLOC_TYPE@@@Z ENDP ; CTList<CScheduler>::setObjAllocType
_TEXT	ENDS
; Function compile flags: /Odtp /RTCsu
; File e:\infinia-library-3.0\com\include\comtlist.h
;	COMDAT ?size@?$CTList@VCScheduler@@@@QEAAHXZ
_TEXT	SEGMENT
this$ = 16
?size@?$CTList@VCScheduler@@@@QEAAHXZ PROC		; CTList<CScheduler>::size, COMDAT

; 347  : 	inline int  size() { return m_nUse; }

$LN3:
  00000	48 89 4c 24 08	 mov	 QWORD PTR [rsp+8], rcx
  00005	57		 push	 rdi
  00006	48 8b 44 24 10	 mov	 rax, QWORD PTR this$[rsp]
  0000b	8b 40 08	 mov	 eax, DWORD PTR [rax+8]
  0000e	5f		 pop	 rdi
  0000f	c3		 ret	 0
?size@?$CTList@VCScheduler@@@@QEAAHXZ ENDP		; CTList<CScheduler>::size
_TEXT	ENDS
; Function compile flags: /Odtp /RTCsu
; File e:\infinia-library-3.0\com\include\comtlist.h
;	COMDAT ?getNext@?$CTList@VCScheduler@@@@QEAAPEAVCScheduler@@PEAH@Z
_TEXT	SEGMENT
this$ = 16
pIdx$ = 24
?getNext@?$CTList@VCScheduler@@@@QEAAPEAVCScheduler@@PEAH@Z PROC ; CTList<CScheduler>::getNext, COMDAT

; 334  : 	inline T* getNext(int *pIdx) {

$LN7:
  00000	48 89 54 24 10	 mov	 QWORD PTR [rsp+16], rdx
  00005	48 89 4c 24 08	 mov	 QWORD PTR [rsp+8], rcx
  0000a	57		 push	 rdi

; 335  : 		for (*pIdx; *pIdx < m_nMax; (*pIdx)++) {

  0000b	eb 10		 jmp	 SHORT $LN4@getNext
$LN2@getNext:
  0000d	48 8b 44 24 18	 mov	 rax, QWORD PTR pIdx$[rsp]
  00012	8b 00		 mov	 eax, DWORD PTR [rax]
  00014	ff c0		 inc	 eax
  00016	48 8b 4c 24 18	 mov	 rcx, QWORD PTR pIdx$[rsp]
  0001b	89 01		 mov	 DWORD PTR [rcx], eax
$LN4@getNext:
  0001d	48 8b 44 24 18	 mov	 rax, QWORD PTR pIdx$[rsp]
  00022	48 8b 4c 24 10	 mov	 rcx, QWORD PTR this$[rsp]
  00027	8b 49 14	 mov	 ecx, DWORD PTR [rcx+20]
  0002a	39 08		 cmp	 DWORD PTR [rax], ecx
  0002c	7d 2f		 jge	 SHORT $LN3@getNext

; 336  : 			if (m_pArray[*pIdx]) { return m_pArray[*pIdx]; }

  0002e	48 8b 44 24 18	 mov	 rax, QWORD PTR pIdx$[rsp]
  00033	48 63 00	 movsxd	 rax, DWORD PTR [rax]
  00036	48 8b 4c 24 10	 mov	 rcx, QWORD PTR this$[rsp]
  0003b	48 8b 09	 mov	 rcx, QWORD PTR [rcx]
  0003e	48 83 3c c1 00	 cmp	 QWORD PTR [rcx+rax*8], 0
  00043	74 16		 je	 SHORT $LN5@getNext
  00045	48 8b 44 24 18	 mov	 rax, QWORD PTR pIdx$[rsp]
  0004a	48 63 00	 movsxd	 rax, DWORD PTR [rax]
  0004d	48 8b 4c 24 10	 mov	 rcx, QWORD PTR this$[rsp]
  00052	48 8b 09	 mov	 rcx, QWORD PTR [rcx]
  00055	48 8b 04 c1	 mov	 rax, QWORD PTR [rcx+rax*8]
  00059	eb 04		 jmp	 SHORT $LN1@getNext
$LN5@getNext:

; 337  : 		}

  0005b	eb b0		 jmp	 SHORT $LN2@getNext
$LN3@getNext:

; 338  : 		return NULL;

  0005d	33 c0		 xor	 eax, eax
$LN1@getNext:

; 339  : 	}

  0005f	5f		 pop	 rdi
  00060	c3		 ret	 0
?getNext@?$CTList@VCScheduler@@@@QEAAPEAVCScheduler@@PEAH@Z ENDP ; CTList<CScheduler>::getNext
_TEXT	ENDS
; Function compile flags: /Odtp /RTCsu
; File e:\infinia-library-3.0\com\include\comtlist.h
;	COMDAT ?getObj@?$CTList@VCScheduler@@@@QEAAPEAVCScheduler@@H@Z
_TEXT	SEGMENT
this$ = 48
i$ = 56
?getObj@?$CTList@VCScheduler@@@@QEAAPEAVCScheduler@@H@Z PROC ; CTList<CScheduler>::getObj, COMDAT

; 332  : 	inline T* getObj(int i) { if (ISINCLUDE(i, m_nMax)) return m_pArray[i]; return NULL; }

$LN4:
  00000	89 54 24 10	 mov	 DWORD PTR [rsp+16], edx
  00004	48 89 4c 24 08	 mov	 QWORD PTR [rsp+8], rcx
  00009	57		 push	 rdi
  0000a	48 83 ec 20	 sub	 rsp, 32			; 00000020H
  0000e	48 8b fc	 mov	 rdi, rsp
  00011	b9 08 00 00 00	 mov	 ecx, 8
  00016	b8 cc cc cc cc	 mov	 eax, -858993460		; ccccccccH
  0001b	f3 ab		 rep stosd
  0001d	48 8b 4c 24 30	 mov	 rcx, QWORD PTR [rsp+48]
  00022	48 8b 44 24 30	 mov	 rax, QWORD PTR this$[rsp]
  00027	8b 50 14	 mov	 edx, DWORD PTR [rax+20]
  0002a	8b 4c 24 38	 mov	 ecx, DWORD PTR i$[rsp]
  0002e	e8 00 00 00 00	 call	 ?ISINCLUDE@@YA_NHH@Z	; ISINCLUDE
  00033	0f b6 c0	 movzx	 eax, al
  00036	85 c0		 test	 eax, eax
  00038	74 13		 je	 SHORT $LN2@getObj
  0003a	48 63 44 24 38	 movsxd	 rax, DWORD PTR i$[rsp]
  0003f	48 8b 4c 24 30	 mov	 rcx, QWORD PTR this$[rsp]
  00044	48 8b 09	 mov	 rcx, QWORD PTR [rcx]
  00047	48 8b 04 c1	 mov	 rax, QWORD PTR [rcx+rax*8]
  0004b	eb 02		 jmp	 SHORT $LN1@getObj
$LN2@getObj:
  0004d	33 c0		 xor	 eax, eax
$LN1@getObj:
  0004f	48 83 c4 20	 add	 rsp, 32			; 00000020H
  00053	5f		 pop	 rdi
  00054	c3		 ret	 0
?getObj@?$CTList@VCScheduler@@@@QEAAPEAVCScheduler@@H@Z ENDP ; CTList<CScheduler>::getObj
_TEXT	ENDS
; Function compile flags: /Odtp /RTCsu
; File e:\infinia-library-3.0\com\include\comtlist.h
;	COMDAT ?del@?$CTList@VCScheduler@@@@QEAA_NH@Z
_TEXT	SEGMENT
this$ = 48
i$ = 56
?del@?$CTList@VCScheduler@@@@QEAA_NH@Z PROC		; CTList<CScheduler>::del, COMDAT

; 523  : {

$LN4:
  00000	89 54 24 10	 mov	 DWORD PTR [rsp+16], edx
  00004	48 89 4c 24 08	 mov	 QWORD PTR [rsp+8], rcx
  00009	57		 push	 rdi
  0000a	48 83 ec 20	 sub	 rsp, 32			; 00000020H
  0000e	48 8b fc	 mov	 rdi, rsp
  00011	b9 08 00 00 00	 mov	 ecx, 8
  00016	b8 cc cc cc cc	 mov	 eax, -858993460		; ccccccccH
  0001b	f3 ab		 rep stosd
  0001d	48 8b 4c 24 30	 mov	 rcx, QWORD PTR [rsp+48]

; 524  : 	if (!ISINCLUDE(i, m_nMax)) {

  00022	48 8b 44 24 30	 mov	 rax, QWORD PTR this$[rsp]
  00027	8b 50 14	 mov	 edx, DWORD PTR [rax+20]
  0002a	8b 4c 24 38	 mov	 ecx, DWORD PTR i$[rsp]
  0002e	e8 00 00 00 00	 call	 ?ISINCLUDE@@YA_NHH@Z	; ISINCLUDE
  00033	0f b6 c0	 movzx	 eax, al
  00036	85 c0		 test	 eax, eax
  00038	75 25		 jne	 SHORT $LN2@del

; 525  : 		_stprintf(g_szMessage, "i[%d] m_nMax[%d]", i, m_nMax);

  0003a	48 8b 44 24 30	 mov	 rax, QWORD PTR this$[rsp]
  0003f	44 8b 48 14	 mov	 r9d, DWORD PTR [rax+20]
  00043	44 8b 44 24 38	 mov	 r8d, DWORD PTR i$[rsp]
  00048	48 8d 15 00 00
	00 00		 lea	 rdx, OFFSET FLAT:$SG46999
  0004f	48 8d 0d 00 00
	00 00		 lea	 rcx, OFFSET FLAT:?g_szMessage@@3PADA ; g_szMessage
  00056	e8 00 00 00 00	 call	 sprintf

; 526  : 		return false;

  0005b	32 c0		 xor	 al, al
  0005d	eb 10		 jmp	 SHORT $LN1@del
$LN2@del:

; 527  : 	}
; 528  : 	_DEL(i);

  0005f	8b 54 24 38	 mov	 edx, DWORD PTR i$[rsp]
  00063	48 8b 4c 24 30	 mov	 rcx, QWORD PTR this$[rsp]
  00068	e8 00 00 00 00	 call	 ?_DEL@?$CTList@VCScheduler@@@@AEAAXH@Z ; CTList<CScheduler>::_DEL

; 529  : 	//_stprintf(g_szMessage, _T("CMemList::del i[%d] m_nLast[%d] m_nCurCount[%d]"), i, m_nLast, m_nUse);
; 530  : 	return true;

  0006d	b0 01		 mov	 al, 1
$LN1@del:

; 531  : }

  0006f	48 83 c4 20	 add	 rsp, 32			; 00000020H
  00073	5f		 pop	 rdi
  00074	c3		 ret	 0
?del@?$CTList@VCScheduler@@@@QEAA_NH@Z ENDP		; CTList<CScheduler>::del
_TEXT	ENDS
; Function compile flags: /Odtp /RTCsu
; File e:\infinia-library-3.0\com\include\comtlist.h
;	COMDAT ?push_back@?$CTList@VCScheduler@@@@QEAA_NPEAVCScheduler@@PEAH@Z
_TEXT	SEGMENT
nIdx$ = 32
i$ = 36
this$ = 64
Obj$ = 72
pIdx$ = 80
?push_back@?$CTList@VCScheduler@@@@QEAA_NPEAVCScheduler@@PEAH@Z PROC ; CTList<CScheduler>::push_back, COMDAT

; 472  : {

$LN15:
  00000	4c 89 44 24 18	 mov	 QWORD PTR [rsp+24], r8
  00005	48 89 54 24 10	 mov	 QWORD PTR [rsp+16], rdx
  0000a	48 89 4c 24 08	 mov	 QWORD PTR [rsp+8], rcx
  0000f	57		 push	 rdi
  00010	48 83 ec 30	 sub	 rsp, 48			; 00000030H
  00014	48 8b fc	 mov	 rdi, rsp
  00017	b9 0c 00 00 00	 mov	 ecx, 12
  0001c	b8 cc cc cc cc	 mov	 eax, -858993460		; ccccccccH
  00021	f3 ab		 rep stosd
  00023	48 8b 4c 24 40	 mov	 rcx, QWORD PTR [rsp+64]

; 473  : 	int nIdx, i;
; 474  : 
; 475  : 	if (m_nUse >= m_nMax) {

  00028	48 8b 44 24 40	 mov	 rax, QWORD PTR this$[rsp]
  0002d	48 8b 4c 24 40	 mov	 rcx, QWORD PTR this$[rsp]
  00032	8b 49 14	 mov	 ecx, DWORD PTR [rcx+20]
  00035	39 48 08	 cmp	 DWORD PTR [rax+8], ecx
  00038	7c 4b		 jl	 SHORT $LN5@push_back

; 476  : 		if (!__alloc(m_nMax + TLIST_ADD_SIZE)) return false;

  0003a	48 8b 44 24 40	 mov	 rax, QWORD PTR this$[rsp]
  0003f	8b 40 14	 mov	 eax, DWORD PTR [rax+20]
  00042	83 c0 40	 add	 eax, 64			; 00000040H
  00045	8b d0		 mov	 edx, eax
  00047	48 8b 4c 24 40	 mov	 rcx, QWORD PTR this$[rsp]
  0004c	e8 00 00 00 00	 call	 ?__alloc@?$CTList@VCScheduler@@@@AEAAHH@Z ; CTList<CScheduler>::__alloc
  00051	85 c0		 test	 eax, eax
  00053	75 07		 jne	 SHORT $LN6@push_back
  00055	32 c0		 xor	 al, al
  00057	e9 0c 01 00 00	 jmp	 $LN1@push_back
$LN6@push_back:

; 477  : 		nIdx = m_nMax;

  0005c	48 8b 44 24 40	 mov	 rax, QWORD PTR this$[rsp]
  00061	8b 40 14	 mov	 eax, DWORD PTR [rax+20]
  00064	89 44 24 20	 mov	 DWORD PTR nIdx$[rsp], eax

; 478  : 		m_nMax += TLIST_ADD_SIZE;

  00068	48 8b 44 24 40	 mov	 rax, QWORD PTR this$[rsp]
  0006d	8b 40 14	 mov	 eax, DWORD PTR [rax+20]
  00070	83 c0 40	 add	 eax, 64			; 00000040H
  00073	48 8b 4c 24 40	 mov	 rcx, QWORD PTR this$[rsp]
  00078	89 41 14	 mov	 DWORD PTR [rcx+20], eax

; 479  : 		goto ADD_SUCCESS;

  0007b	e9 99 00 00 00	 jmp	 $LN7@push_back
  00080	e9 94 00 00 00	 jmp	 $ADD_SUCCESS$16
$LN5@push_back:

; 480  : 	}
; 481  : 
; 482  : 	if (!m_pArray[m_nLast]) { nIdx = m_nLast;  goto ADD_SUCCESS; }

  00085	48 8b 44 24 40	 mov	 rax, QWORD PTR this$[rsp]
  0008a	48 63 40 0c	 movsxd	 rax, DWORD PTR [rax+12]
  0008e	48 8b 4c 24 40	 mov	 rcx, QWORD PTR this$[rsp]
  00093	48 8b 09	 mov	 rcx, QWORD PTR [rcx]
  00096	48 83 3c c1 00	 cmp	 QWORD PTR [rcx+rax*8], 0
  0009b	75 10		 jne	 SHORT $LN8@push_back
  0009d	48 8b 44 24 40	 mov	 rax, QWORD PTR this$[rsp]
  000a2	8b 40 0c	 mov	 eax, DWORD PTR [rax+12]
  000a5	89 44 24 20	 mov	 DWORD PTR nIdx$[rsp], eax
  000a9	eb 6e		 jmp	 SHORT $LN9@push_back
  000ab	eb 6c		 jmp	 SHORT $ADD_SUCCESS$16
$LN8@push_back:

; 483  : 
; 484  : 	nIdx = m_nLast;

  000ad	48 8b 44 24 40	 mov	 rax, QWORD PTR this$[rsp]
  000b2	8b 40 0c	 mov	 eax, DWORD PTR [rax+12]
  000b5	89 44 24 20	 mov	 DWORD PTR nIdx$[rsp], eax

; 485  : 	for (i = 0; i < m_nMax; i++)

  000b9	c7 44 24 24 00
	00 00 00	 mov	 DWORD PTR i$[rsp], 0
  000c1	eb 0a		 jmp	 SHORT $LN4@push_back
$LN2@push_back:
  000c3	8b 44 24 24	 mov	 eax, DWORD PTR i$[rsp]
  000c7	ff c0		 inc	 eax
  000c9	89 44 24 24	 mov	 DWORD PTR i$[rsp], eax
$LN4@push_back:
  000cd	48 8b 44 24 40	 mov	 rax, QWORD PTR this$[rsp]
  000d2	8b 40 14	 mov	 eax, DWORD PTR [rax+20]
  000d5	39 44 24 24	 cmp	 DWORD PTR i$[rsp], eax
  000d9	7d 3a		 jge	 SHORT $LN3@push_back

; 486  : 	{
; 487  : 		if (nIdx >= m_nMax) nIdx = 0;

  000db	48 8b 44 24 40	 mov	 rax, QWORD PTR this$[rsp]
  000e0	8b 40 14	 mov	 eax, DWORD PTR [rax+20]
  000e3	39 44 24 20	 cmp	 DWORD PTR nIdx$[rsp], eax
  000e7	7c 08		 jl	 SHORT $LN10@push_back
  000e9	c7 44 24 20 00
	00 00 00	 mov	 DWORD PTR nIdx$[rsp], 0
$LN10@push_back:

; 488  : 		if (!m_pArray[nIdx]) {

  000f1	48 63 44 24 20	 movsxd	 rax, DWORD PTR nIdx$[rsp]
  000f6	48 8b 4c 24 40	 mov	 rcx, QWORD PTR this$[rsp]
  000fb	48 8b 09	 mov	 rcx, QWORD PTR [rcx]
  000fe	48 83 3c c1 00	 cmp	 QWORD PTR [rcx+rax*8], 0
  00103	75 04		 jne	 SHORT $LN11@push_back

; 489  : 			goto ADD_SUCCESS;

  00105	eb 12		 jmp	 SHORT $LN12@push_back
  00107	eb 10		 jmp	 SHORT $ADD_SUCCESS$16
$LN11@push_back:

; 490  : 		}
; 491  : 		nIdx++;

  00109	8b 44 24 20	 mov	 eax, DWORD PTR nIdx$[rsp]
  0010d	ff c0		 inc	 eax
  0010f	89 44 24 20	 mov	 DWORD PTR nIdx$[rsp], eax

; 492  : 	}

  00113	eb ae		 jmp	 SHORT $LN2@push_back
$LN3@push_back:

; 493  : 	//_stprintf(m_szMessage, _T("add FAIL! m_nLast[%d] m_nCurCount[%d] m_nMax[%d]"), m_nLast, m_nUse, m_nMax);
; 494  : 	return false;

  00115	32 c0		 xor	 al, al
  00117	eb 4f		 jmp	 SHORT $LN1@push_back
$LN7@push_back:
$LN9@push_back:
$LN12@push_back:
$ADD_SUCCESS$16:

; 495  : 
; 496  : ADD_SUCCESS:
; 497  : 	m_nUse++;

  00119	48 8b 44 24 40	 mov	 rax, QWORD PTR this$[rsp]
  0011e	8b 40 08	 mov	 eax, DWORD PTR [rax+8]
  00121	ff c0		 inc	 eax
  00123	48 8b 4c 24 40	 mov	 rcx, QWORD PTR this$[rsp]
  00128	89 41 08	 mov	 DWORD PTR [rcx+8], eax

; 498  : 	m_pArray[nIdx] = Obj;

  0012b	48 63 44 24 20	 movsxd	 rax, DWORD PTR nIdx$[rsp]
  00130	48 8b 4c 24 40	 mov	 rcx, QWORD PTR this$[rsp]
  00135	48 8b 09	 mov	 rcx, QWORD PTR [rcx]
  00138	48 8b 54 24 48	 mov	 rdx, QWORD PTR Obj$[rsp]
  0013d	48 89 14 c1	 mov	 QWORD PTR [rcx+rax*8], rdx

; 499  : 	m_nLast++;

  00141	48 8b 44 24 40	 mov	 rax, QWORD PTR this$[rsp]
  00146	8b 40 0c	 mov	 eax, DWORD PTR [rax+12]
  00149	ff c0		 inc	 eax
  0014b	48 8b 4c 24 40	 mov	 rcx, QWORD PTR this$[rsp]
  00150	89 41 0c	 mov	 DWORD PTR [rcx+12], eax

; 500  : 	//_stprintf(g_szMessage, _T("CMemList::add i[%d] m_nLast[%d] m_nCurCount[%d]"), nIdx, m_nLast, m_nUse);
; 501  : 	if (pIdx) *pIdx = nIdx;

  00153	48 83 7c 24 50
	00		 cmp	 QWORD PTR pIdx$[rsp], 0
  00159	74 0b		 je	 SHORT $LN13@push_back
  0015b	48 8b 44 24 50	 mov	 rax, QWORD PTR pIdx$[rsp]
  00160	8b 4c 24 20	 mov	 ecx, DWORD PTR nIdx$[rsp]
  00164	89 08		 mov	 DWORD PTR [rax], ecx
$LN13@push_back:

; 502  : 	return true;

  00166	b0 01		 mov	 al, 1
$LN1@push_back:

; 503  : }

  00168	48 83 c4 30	 add	 rsp, 48			; 00000030H
  0016c	5f		 pop	 rdi
  0016d	c3		 ret	 0
?push_back@?$CTList@VCScheduler@@@@QEAA_NPEAVCScheduler@@PEAH@Z ENDP ; CTList<CScheduler>::push_back
_TEXT	ENDS
; Function compile flags: /Odtp /RTCsu
; File e:\infinia-library-3.0\com\include\comtlist.h
;	COMDAT ?alloc@?$CTList@VCScheduler@@@@QEAAHHW4E_ALLOC_TYPE@@@Z
_TEXT	SEGMENT
this$ = 48
nMaxCount$ = 56
type$ = 64
?alloc@?$CTList@VCScheduler@@@@QEAAHHW4E_ALLOC_TYPE@@@Z PROC ; CTList<CScheduler>::alloc, COMDAT

; 326  : 	int alloc(int nMaxCount, E_ALLOC_TYPE type = eAlloc_Type_new) { m_nObjAllocType = type;  m_nMax = __alloc(nMaxCount); return m_nMax; }

$LN3:
  00000	44 89 44 24 18	 mov	 DWORD PTR [rsp+24], r8d
  00005	89 54 24 10	 mov	 DWORD PTR [rsp+16], edx
  00009	48 89 4c 24 08	 mov	 QWORD PTR [rsp+8], rcx
  0000e	57		 push	 rdi
  0000f	48 83 ec 20	 sub	 rsp, 32			; 00000020H
  00013	48 8b fc	 mov	 rdi, rsp
  00016	b9 08 00 00 00	 mov	 ecx, 8
  0001b	b8 cc cc cc cc	 mov	 eax, -858993460		; ccccccccH
  00020	f3 ab		 rep stosd
  00022	48 8b 4c 24 30	 mov	 rcx, QWORD PTR [rsp+48]
  00027	48 8b 44 24 30	 mov	 rax, QWORD PTR this$[rsp]
  0002c	8b 4c 24 40	 mov	 ecx, DWORD PTR type$[rsp]
  00030	89 48 18	 mov	 DWORD PTR [rax+24], ecx
  00033	8b 54 24 38	 mov	 edx, DWORD PTR nMaxCount$[rsp]
  00037	48 8b 4c 24 30	 mov	 rcx, QWORD PTR this$[rsp]
  0003c	e8 00 00 00 00	 call	 ?__alloc@?$CTList@VCScheduler@@@@AEAAHH@Z ; CTList<CScheduler>::__alloc
  00041	48 8b 4c 24 30	 mov	 rcx, QWORD PTR this$[rsp]
  00046	89 41 14	 mov	 DWORD PTR [rcx+20], eax
  00049	48 8b 44 24 30	 mov	 rax, QWORD PTR this$[rsp]
  0004e	8b 40 14	 mov	 eax, DWORD PTR [rax+20]
  00051	48 83 c4 20	 add	 rsp, 32			; 00000020H
  00055	5f		 pop	 rdi
  00056	c3		 ret	 0
?alloc@?$CTList@VCScheduler@@@@QEAAHHW4E_ALLOC_TYPE@@@Z ENDP ; CTList<CScheduler>::alloc
_TEXT	ENDS
; Function compile flags: /Odtp /RTCsu
; File e:\infinia-library-3.0\com\include\comtlist.h
;	COMDAT ??1?$CTList@VCScheduler@@@@QEAA@XZ
_TEXT	SEGMENT
idx$4 = 36
p$5 = 56
$T6 = 72
$T7 = 80
$T8 = 88
$T9 = 96
$T10 = 104
tv77 = 112
tv82 = 120
tv95 = 128
__$ArrayPad$ = 136
this$ = 160
??1?$CTList@VCScheduler@@@@QEAA@XZ PROC			; CTList<CScheduler>::~CTList<CScheduler>, COMDAT

; 376  : {

$LN20:
  00000	48 89 4c 24 08	 mov	 QWORD PTR [rsp+8], rcx
  00005	57		 push	 rdi
  00006	48 81 ec 90 00
	00 00		 sub	 rsp, 144		; 00000090H
  0000d	48 8b fc	 mov	 rdi, rsp
  00010	b9 24 00 00 00	 mov	 ecx, 36			; 00000024H
  00015	b8 cc cc cc cc	 mov	 eax, -858993460		; ccccccccH
  0001a	f3 ab		 rep stosd
  0001c	48 8b 8c 24 a0
	00 00 00	 mov	 rcx, QWORD PTR [rsp+160]
  00024	48 c7 44 24 68
	fe ff ff ff	 mov	 QWORD PTR $T10[rsp], -2
  0002d	48 8b 05 00 00
	00 00		 mov	 rax, QWORD PTR __security_cookie
  00034	48 33 c4	 xor	 rax, rsp
  00037	48 89 84 24 88
	00 00 00	 mov	 QWORD PTR __$ArrayPad$[rsp], rax

; 377  : 	if (!m_pArray) return;

  0003f	48 8b 84 24 a0
	00 00 00	 mov	 rax, QWORD PTR this$[rsp]
  00047	48 83 38 00	 cmp	 QWORD PTR [rax], 0
  0004b	75 05		 jne	 SHORT $LN6@CTList
  0004d	e9 81 01 00 00	 jmp	 $LN1@CTList
$LN6@CTList:

; 378  : 
; 379  : 	if (ISABLETODELETE(m_nObjAllocType)) {

  00052	48 8b 84 24 a0
	00 00 00	 mov	 rax, QWORD PTR this$[rsp]
  0005a	8b 48 18	 mov	 ecx, DWORD PTR [rax+24]
  0005d	e8 00 00 00 00	 call	 ?ISABLETODELETE@@YA_NW4E_ALLOC_TYPE@@@Z ; ISABLETODELETE
  00062	90		 npad	 1
  00063	0f b6 c0	 movzx	 eax, al
  00066	85 c0		 test	 eax, eax
  00068	0f 84 36 01 00
	00		 je	 $LN7@CTList

; 380  : 		int idx = 0;

  0006e	c7 44 24 24 00
	00 00 00	 mov	 DWORD PTR idx$4[rsp], 0

; 381  : 		T *p = getNext(&idx);

  00076	48 8d 54 24 24	 lea	 rdx, QWORD PTR idx$4[rsp]
  0007b	48 8b 8c 24 a0
	00 00 00	 mov	 rcx, QWORD PTR this$[rsp]
  00083	e8 00 00 00 00	 call	 ?getNext@?$CTList@VCScheduler@@@@QEAAPEAVCScheduler@@PEAH@Z ; CTList<CScheduler>::getNext
  00088	90		 npad	 1
  00089	48 89 44 24 38	 mov	 QWORD PTR p$5[rsp], rax
$LN2@CTList:

; 382  : 		while (p) {

  0008e	48 83 7c 24 38
	00		 cmp	 QWORD PTR p$5[rsp], 0
  00094	0f 84 0a 01 00
	00		 je	 $LN7@CTList

; 383  : 			idx++;

  0009a	8b 44 24 24	 mov	 eax, DWORD PTR idx$4[rsp]
  0009e	ff c0		 inc	 eax
  000a0	89 44 24 24	 mov	 DWORD PTR idx$4[rsp], eax

; 384  : 			switch (m_nObjAllocType) {

  000a4	48 8b 84 24 a0
	00 00 00	 mov	 rax, QWORD PTR this$[rsp]
  000ac	8b 40 18	 mov	 eax, DWORD PTR [rax+24]
  000af	89 44 24 70	 mov	 DWORD PTR tv77[rsp], eax
  000b3	83 7c 24 70 02	 cmp	 DWORD PTR tv77[rsp], 2
  000b8	74 1a		 je	 SHORT $LN8@CTList
  000ba	83 7c 24 70 03	 cmp	 DWORD PTR tv77[rsp], 3
  000bf	74 51		 je	 SHORT $LN9@CTList
  000c1	83 7c 24 70 04	 cmp	 DWORD PTR tv77[rsp], 4
  000c6	74 58		 je	 SHORT $LN10@CTList
  000c8	83 7c 24 70 05	 cmp	 DWORD PTR tv77[rsp], 5
  000cd	74 76		 je	 SHORT $LN11@CTList
  000cf	e9 b3 00 00 00	 jmp	 $LN4@CTList
$LN8@CTList:

; 385  : 				case eAlloc_Type_new		:	delete p; break;

  000d4	48 8b 44 24 38	 mov	 rax, QWORD PTR p$5[rsp]
  000d9	48 89 44 24 50	 mov	 QWORD PTR $T7[rsp], rax
  000de	48 8b 44 24 50	 mov	 rax, QWORD PTR $T7[rsp]
  000e3	48 89 44 24 48	 mov	 QWORD PTR $T6[rsp], rax
  000e8	48 83 7c 24 48
	00		 cmp	 QWORD PTR $T6[rsp], 0
  000ee	74 17		 je	 SHORT $LN16@CTList
  000f0	ba 01 00 00 00	 mov	 edx, 1
  000f5	48 8b 4c 24 48	 mov	 rcx, QWORD PTR $T6[rsp]
  000fa	e8 00 00 00 00	 call	 ??_GCScheduler@@QEAAPEAXI@Z
  000ff	90		 npad	 1
  00100	48 89 44 24 78	 mov	 QWORD PTR tv82[rsp], rax
  00105	eb 09		 jmp	 SHORT $LN17@CTList
$LN16@CTList:
  00107	48 c7 44 24 78
	00 00 00 00	 mov	 QWORD PTR tv82[rsp], 0
$LN17@CTList:
  00110	eb 75		 jmp	 SHORT $LN4@CTList
$LN9@CTList:

; 386  : 				case eAlloc_Type_alloc		:	free(p); break;

  00112	48 8b 4c 24 38	 mov	 rcx, QWORD PTR p$5[rsp]
  00117	ff 15 00 00 00
	00		 call	 QWORD PTR __imp_free
  0011d	90		 npad	 1
  0011e	eb 67		 jmp	 SHORT $LN4@CTList
$LN10@CTList:

; 387  : 				case eAlloc_Type_BufPool	:	gs_pMMgr->delBuf((char *)p, STRING_SIZE((TCHAR *)p)); break;

  00120	48 8b 4c 24 38	 mov	 rcx, QWORD PTR p$5[rsp]
  00125	e8 00 00 00 00	 call	 strlen
  0012a	90		 npad	 1
  0012b	48 ff c0	 inc	 rax
  0012e	44 8b c0	 mov	 r8d, eax
  00131	48 8b 54 24 38	 mov	 rdx, QWORD PTR p$5[rsp]
  00136	48 8b 0d 00 00
	00 00		 mov	 rcx, QWORD PTR ?gs_pMMgr@@3PEAVCMemManager@@EA ; gs_pMMgr
  0013d	e8 00 00 00 00	 call	 ?delBuf@CMemManager@@QEAAXPEADH@Z ; CMemManager::delBuf
  00142	90		 npad	 1
  00143	eb 42		 jmp	 SHORT $LN4@CTList
$LN11@CTList:

; 388  : 				case eAlloc_Type_newArray	:	delete[] p; break;

  00145	48 8b 44 24 38	 mov	 rax, QWORD PTR p$5[rsp]
  0014a	48 89 44 24 60	 mov	 QWORD PTR $T9[rsp], rax
  0014f	48 8b 44 24 60	 mov	 rax, QWORD PTR $T9[rsp]
  00154	48 89 44 24 58	 mov	 QWORD PTR $T8[rsp], rax
  00159	48 83 7c 24 58
	00		 cmp	 QWORD PTR $T8[rsp], 0
  0015f	74 1a		 je	 SHORT $LN18@CTList
  00161	ba 03 00 00 00	 mov	 edx, 3
  00166	48 8b 4c 24 58	 mov	 rcx, QWORD PTR $T8[rsp]
  0016b	e8 00 00 00 00	 call	 ??_ECScheduler@@QEAAPEAXI@Z
  00170	90		 npad	 1
  00171	48 89 84 24 80
	00 00 00	 mov	 QWORD PTR tv95[rsp], rax
  00179	eb 0c		 jmp	 SHORT $LN4@CTList
$LN18@CTList:
  0017b	48 c7 84 24 80
	00 00 00 00 00
	00 00		 mov	 QWORD PTR tv95[rsp], 0
$LN4@CTList:

; 389  : 				case eAlloc_Type_none		:	break;
; 390  : 				case eAlloc_Type_MemPool	:	break;
; 391  : 			}
; 392  : 			p = getNext(&idx);

  00187	48 8d 54 24 24	 lea	 rdx, QWORD PTR idx$4[rsp]
  0018c	48 8b 8c 24 a0
	00 00 00	 mov	 rcx, QWORD PTR this$[rsp]
  00194	e8 00 00 00 00	 call	 ?getNext@?$CTList@VCScheduler@@@@QEAAPEAVCScheduler@@PEAH@Z ; CTList<CScheduler>::getNext
  00199	90		 npad	 1
  0019a	48 89 44 24 38	 mov	 QWORD PTR p$5[rsp], rax

; 393  : 		}

  0019f	e9 ea fe ff ff	 jmp	 $LN2@CTList
$LN7@CTList:

; 394  : 	}
; 395  : 
; 396  : 	if (m_pArray)	free(m_pArray);

  001a4	48 8b 84 24 a0
	00 00 00	 mov	 rax, QWORD PTR this$[rsp]
  001ac	48 83 38 00	 cmp	 QWORD PTR [rax], 0
  001b0	74 12		 je	 SHORT $LN14@CTList
  001b2	48 8b 84 24 a0
	00 00 00	 mov	 rax, QWORD PTR this$[rsp]
  001ba	48 8b 08	 mov	 rcx, QWORD PTR [rax]
  001bd	ff 15 00 00 00
	00		 call	 QWORD PTR __imp_free
  001c3	90		 npad	 1
$LN14@CTList:

; 397  : 	m_pArray = 0;

  001c4	48 8b 84 24 a0
	00 00 00	 mov	 rax, QWORD PTR this$[rsp]
  001cc	48 c7 00 00 00
	00 00		 mov	 QWORD PTR [rax], 0
$LN1@CTList:

; 398  : }

  001d3	48 8b cc	 mov	 rcx, rsp
  001d6	48 8d 15 00 00
	00 00		 lea	 rdx, OFFSET FLAT:??1?$CTList@VCScheduler@@@@QEAA@XZ$rtcFrameData
  001dd	e8 00 00 00 00	 call	 _RTC_CheckStackVars
  001e2	90		 npad	 1
  001e3	48 8b 8c 24 88
	00 00 00	 mov	 rcx, QWORD PTR __$ArrayPad$[rsp]
  001eb	48 33 cc	 xor	 rcx, rsp
  001ee	e8 00 00 00 00	 call	 __security_check_cookie
  001f3	90		 npad	 1
  001f4	48 81 c4 90 00
	00 00		 add	 rsp, 144		; 00000090H
  001fb	5f		 pop	 rdi
  001fc	c3		 ret	 0
??1?$CTList@VCScheduler@@@@QEAA@XZ ENDP			; CTList<CScheduler>::~CTList<CScheduler>
_TEXT	ENDS
; Function compile flags: /Odtp /RTCsu
; File e:\infinia-library-3.0\com\include\comtlist.h
;	COMDAT ??0?$CTList@VCScheduler@@@@QEAA@XZ
_TEXT	SEGMENT
this$ = 16
??0?$CTList@VCScheduler@@@@QEAA@XZ PROC			; CTList<CScheduler>::CTList<CScheduler>, COMDAT

; 365  : {

$LN3:
  00000	48 89 4c 24 08	 mov	 QWORD PTR [rsp+8], rcx
  00005	57		 push	 rdi

; 366  : 	m_pArray = NULL;

  00006	48 8b 44 24 10	 mov	 rax, QWORD PTR this$[rsp]
  0000b	48 c7 00 00 00
	00 00		 mov	 QWORD PTR [rax], 0

; 367  : 	m_nUse = 0;

  00012	48 8b 44 24 10	 mov	 rax, QWORD PTR this$[rsp]
  00017	c7 40 08 00 00
	00 00		 mov	 DWORD PTR [rax+8], 0

; 368  : 	m_nLast = 0;

  0001e	48 8b 44 24 10	 mov	 rax, QWORD PTR this$[rsp]
  00023	c7 40 0c 00 00
	00 00		 mov	 DWORD PTR [rax+12], 0

; 369  : 	m_nDelIdx = 0;

  0002a	48 8b 44 24 10	 mov	 rax, QWORD PTR this$[rsp]
  0002f	c7 40 10 00 00
	00 00		 mov	 DWORD PTR [rax+16], 0

; 370  : 	m_nMax = 0;

  00036	48 8b 44 24 10	 mov	 rax, QWORD PTR this$[rsp]
  0003b	c7 40 14 00 00
	00 00		 mov	 DWORD PTR [rax+20], 0

; 371  : 	m_nObjAllocType = eAlloc_Type_none;

  00042	48 8b 44 24 10	 mov	 rax, QWORD PTR this$[rsp]
  00047	c7 40 18 00 00
	00 00		 mov	 DWORD PTR [rax+24], 0

; 372  : }

  0004e	48 8b 44 24 10	 mov	 rax, QWORD PTR this$[rsp]
  00053	5f		 pop	 rdi
  00054	c3		 ret	 0
??0?$CTList@VCScheduler@@@@QEAA@XZ ENDP			; CTList<CScheduler>::CTList<CScheduler>
_TEXT	ENDS
; Function compile flags: /Odtp /RTCsu
;	COMDAT ??_G?$CTList@VCSTLogger@@@@QEAAPEAXI@Z
_TEXT	SEGMENT
this$ = 48
__flags$ = 56
??_G?$CTList@VCSTLogger@@@@QEAAPEAXI@Z PROC		; CTList<CSTLogger>::`scalar deleting destructor', COMDAT
$LN4:
  00000	89 54 24 10	 mov	 DWORD PTR [rsp+16], edx
  00004	48 89 4c 24 08	 mov	 QWORD PTR [rsp+8], rcx
  00009	57		 push	 rdi
  0000a	48 83 ec 20	 sub	 rsp, 32			; 00000020H
  0000e	48 8b fc	 mov	 rdi, rsp
  00011	b9 08 00 00 00	 mov	 ecx, 8
  00016	b8 cc cc cc cc	 mov	 eax, -858993460		; ccccccccH
  0001b	f3 ab		 rep stosd
  0001d	48 8b 4c 24 30	 mov	 rcx, QWORD PTR [rsp+48]
  00022	48 8b 4c 24 30	 mov	 rcx, QWORD PTR this$[rsp]
  00027	e8 00 00 00 00	 call	 ??1?$CTList@VCSTLogger@@@@QEAA@XZ ; CTList<CSTLogger>::~CTList<CSTLogger>
  0002c	8b 44 24 38	 mov	 eax, DWORD PTR __flags$[rsp]
  00030	83 e0 01	 and	 eax, 1
  00033	85 c0		 test	 eax, eax
  00035	74 0f		 je	 SHORT $LN2@scalar
  00037	ba 20 00 00 00	 mov	 edx, 32			; 00000020H
  0003c	48 8b 4c 24 30	 mov	 rcx, QWORD PTR this$[rsp]
  00041	e8 00 00 00 00	 call	 ??3@YAXPEAX_K@Z		; operator delete
$LN2@scalar:
  00046	48 8b 44 24 30	 mov	 rax, QWORD PTR this$[rsp]
  0004b	48 83 c4 20	 add	 rsp, 32			; 00000020H
  0004f	5f		 pop	 rdi
  00050	c3		 ret	 0
??_G?$CTList@VCSTLogger@@@@QEAAPEAXI@Z ENDP		; CTList<CSTLogger>::`scalar deleting destructor'
_TEXT	ENDS
; Function compile flags: /Odtp /RTCsu
;	COMDAT ?__autoclassinit2@?$CTList@VCSTLogger@@@@QEAAX_K@Z
_TEXT	SEGMENT
this$ = 16
classSize$ = 24
?__autoclassinit2@?$CTList@VCSTLogger@@@@QEAAX_K@Z PROC	; CTList<CSTLogger>::__autoclassinit2, COMDAT
$LN3:
  00000	48 89 54 24 10	 mov	 QWORD PTR [rsp+16], rdx
  00005	48 89 4c 24 08	 mov	 QWORD PTR [rsp+8], rcx
  0000a	57		 push	 rdi
  0000b	48 8b 7c 24 10	 mov	 rdi, QWORD PTR this$[rsp]
  00010	33 c0		 xor	 eax, eax
  00012	48 8b 4c 24 18	 mov	 rcx, QWORD PTR classSize$[rsp]
  00017	f3 aa		 rep stosb
  00019	5f		 pop	 rdi
  0001a	c3		 ret	 0
?__autoclassinit2@?$CTList@VCSTLogger@@@@QEAAX_K@Z ENDP	; CTList<CSTLogger>::__autoclassinit2
_TEXT	ENDS
; Function compile flags: /Odtp /RTCsu
; File e:\infinia-library-3.0\com\include\comtlist.h
;	COMDAT ?_DEL@?$CTList@VCSTLogger@@@@AEAAXH@Z
_TEXT	SEGMENT
this$ = 16
i$ = 24
?_DEL@?$CTList@VCSTLogger@@@@AEAAXH@Z PROC		; CTList<CSTLogger>::_DEL, COMDAT

; 360  : 	inline void _DEL(int i) { m_pArray[i] = 0; m_nUse--; m_nDelIdx = i; }

$LN3:
  00000	89 54 24 10	 mov	 DWORD PTR [rsp+16], edx
  00004	48 89 4c 24 08	 mov	 QWORD PTR [rsp+8], rcx
  00009	57		 push	 rdi
  0000a	48 63 44 24 18	 movsxd	 rax, DWORD PTR i$[rsp]
  0000f	48 8b 4c 24 10	 mov	 rcx, QWORD PTR this$[rsp]
  00014	48 8b 09	 mov	 rcx, QWORD PTR [rcx]
  00017	48 c7 04 c1 00
	00 00 00	 mov	 QWORD PTR [rcx+rax*8], 0
  0001f	48 8b 44 24 10	 mov	 rax, QWORD PTR this$[rsp]
  00024	8b 40 08	 mov	 eax, DWORD PTR [rax+8]
  00027	ff c8		 dec	 eax
  00029	48 8b 4c 24 10	 mov	 rcx, QWORD PTR this$[rsp]
  0002e	89 41 08	 mov	 DWORD PTR [rcx+8], eax
  00031	48 8b 44 24 10	 mov	 rax, QWORD PTR this$[rsp]
  00036	8b 4c 24 18	 mov	 ecx, DWORD PTR i$[rsp]
  0003a	89 48 10	 mov	 DWORD PTR [rax+16], ecx
  0003d	5f		 pop	 rdi
  0003e	c3		 ret	 0
?_DEL@?$CTList@VCSTLogger@@@@AEAAXH@Z ENDP		; CTList<CSTLogger>::_DEL
_TEXT	ENDS
; Function compile flags: /Odtp /RTCsu
; File e:\infinia-library-3.0\com\include\comtlist.h
;	COMDAT ?__alloc@?$CTList@VCSTLogger@@@@AEAAHH@Z
_TEXT	SEGMENT
pList$ = 32
this$ = 64
nMaxCount$ = 72
?__alloc@?$CTList@VCSTLogger@@@@AEAAHH@Z PROC		; CTList<CSTLogger>::__alloc, COMDAT

; 402  : {

$LN5:
  00000	89 54 24 10	 mov	 DWORD PTR [rsp+16], edx
  00004	48 89 4c 24 08	 mov	 QWORD PTR [rsp+8], rcx
  00009	57		 push	 rdi
  0000a	48 83 ec 30	 sub	 rsp, 48			; 00000030H
  0000e	48 8b fc	 mov	 rdi, rsp
  00011	b9 0c 00 00 00	 mov	 ecx, 12
  00016	b8 cc cc cc cc	 mov	 eax, -858993460		; ccccccccH
  0001b	f3 ab		 rep stosd
  0001d	48 8b 4c 24 40	 mov	 rcx, QWORD PTR [rsp+64]

; 403  : 	T** pList = (T**)calloc(nMaxCount, sizeof(T*));

  00022	48 63 44 24 48	 movsxd	 rax, DWORD PTR nMaxCount$[rsp]
  00027	ba 08 00 00 00	 mov	 edx, 8
  0002c	48 8b c8	 mov	 rcx, rax
  0002f	ff 15 00 00 00
	00		 call	 QWORD PTR __imp_calloc
  00035	48 89 44 24 20	 mov	 QWORD PTR pList$[rsp], rax

; 404  : 	if (!pList) {

  0003a	48 83 7c 24 20
	00		 cmp	 QWORD PTR pList$[rsp], 0
  00040	75 17		 jne	 SHORT $LN2@alloc

; 405  : 		_stprintf(g_szMessage, "pList calloc is NULL");

  00042	48 8d 15 00 00
	00 00		 lea	 rdx, OFFSET FLAT:$SG46939
  00049	48 8d 0d 00 00
	00 00		 lea	 rcx, OFFSET FLAT:?g_szMessage@@3PADA ; g_szMessage
  00050	e8 00 00 00 00	 call	 sprintf

; 406  : 		return 0;

  00055	33 c0		 xor	 eax, eax
  00057	eb 4c		 jmp	 SHORT $LN1@alloc
$LN2@alloc:

; 407  : 	}
; 408  : 	//_stprintf(g_szMessage, _T("CTList::__alloc list m_nMaxCount[%d]"), nMaxCount);
; 409  : 	if (m_pArray) {

  00059	48 8b 44 24 40	 mov	 rax, QWORD PTR this$[rsp]
  0005e	48 83 38 00	 cmp	 QWORD PTR [rax], 0
  00062	74 30		 je	 SHORT $LN3@alloc

; 410  : 		memcpy(pList, m_pArray, m_nMax * sizeof(T*));

  00064	48 8b 44 24 40	 mov	 rax, QWORD PTR this$[rsp]
  00069	48 63 40 14	 movsxd	 rax, DWORD PTR [rax+20]
  0006d	48 c1 e0 03	 shl	 rax, 3
  00071	4c 8b c0	 mov	 r8, rax
  00074	48 8b 44 24 40	 mov	 rax, QWORD PTR this$[rsp]
  00079	48 8b 10	 mov	 rdx, QWORD PTR [rax]
  0007c	48 8b 4c 24 20	 mov	 rcx, QWORD PTR pList$[rsp]
  00081	e8 00 00 00 00	 call	 memcpy

; 411  : 		free(m_pArray);

  00086	48 8b 44 24 40	 mov	 rax, QWORD PTR this$[rsp]
  0008b	48 8b 08	 mov	 rcx, QWORD PTR [rax]
  0008e	ff 15 00 00 00
	00		 call	 QWORD PTR __imp_free
$LN3@alloc:

; 412  : 	}
; 413  : 	m_pArray = pList;

  00094	48 8b 44 24 40	 mov	 rax, QWORD PTR this$[rsp]
  00099	48 8b 4c 24 20	 mov	 rcx, QWORD PTR pList$[rsp]
  0009e	48 89 08	 mov	 QWORD PTR [rax], rcx

; 414  : 	return nMaxCount;

  000a1	8b 44 24 48	 mov	 eax, DWORD PTR nMaxCount$[rsp]
$LN1@alloc:

; 415  : }

  000a5	48 83 c4 30	 add	 rsp, 48			; 00000030H
  000a9	5f		 pop	 rdi
  000aa	c3		 ret	 0
?__alloc@?$CTList@VCSTLogger@@@@AEAAHH@Z ENDP		; CTList<CSTLogger>::__alloc
_TEXT	ENDS
; Function compile flags: /Odtp /RTCsu
; File e:\infinia-library-3.0\com\include\comtlist.h
;	COMDAT ?setObjAllocType@?$CTList@VCSTLogger@@@@QEAAXW4E_ALLOC_TYPE@@@Z
_TEXT	SEGMENT
this$ = 16
type$ = 24
?setObjAllocType@?$CTList@VCSTLogger@@@@QEAAXW4E_ALLOC_TYPE@@@Z PROC ; CTList<CSTLogger>::setObjAllocType, COMDAT

; 350  : 	inline void setObjAllocType(E_ALLOC_TYPE type) { m_nObjAllocType = type; }

$LN3:
  00000	89 54 24 10	 mov	 DWORD PTR [rsp+16], edx
  00004	48 89 4c 24 08	 mov	 QWORD PTR [rsp+8], rcx
  00009	57		 push	 rdi
  0000a	48 8b 44 24 10	 mov	 rax, QWORD PTR this$[rsp]
  0000f	8b 4c 24 18	 mov	 ecx, DWORD PTR type$[rsp]
  00013	89 48 18	 mov	 DWORD PTR [rax+24], ecx
  00016	5f		 pop	 rdi
  00017	c3		 ret	 0
?setObjAllocType@?$CTList@VCSTLogger@@@@QEAAXW4E_ALLOC_TYPE@@@Z ENDP ; CTList<CSTLogger>::setObjAllocType
_TEXT	ENDS
; Function compile flags: /Odtp /RTCsu
; File e:\infinia-library-3.0\com\include\comtlist.h
;	COMDAT ?size@?$CTList@VCSTLogger@@@@QEAAHXZ
_TEXT	SEGMENT
this$ = 16
?size@?$CTList@VCSTLogger@@@@QEAAHXZ PROC		; CTList<CSTLogger>::size, COMDAT

; 347  : 	inline int  size() { return m_nUse; }

$LN3:
  00000	48 89 4c 24 08	 mov	 QWORD PTR [rsp+8], rcx
  00005	57		 push	 rdi
  00006	48 8b 44 24 10	 mov	 rax, QWORD PTR this$[rsp]
  0000b	8b 40 08	 mov	 eax, DWORD PTR [rax+8]
  0000e	5f		 pop	 rdi
  0000f	c3		 ret	 0
?size@?$CTList@VCSTLogger@@@@QEAAHXZ ENDP		; CTList<CSTLogger>::size
_TEXT	ENDS
; Function compile flags: /Odtp /RTCsu
; File e:\infinia-library-3.0\com\include\comtlist.h
;	COMDAT ?getNext@?$CTList@VCSTLogger@@@@QEAAPEAVCSTLogger@@PEAH@Z
_TEXT	SEGMENT
this$ = 16
pIdx$ = 24
?getNext@?$CTList@VCSTLogger@@@@QEAAPEAVCSTLogger@@PEAH@Z PROC ; CTList<CSTLogger>::getNext, COMDAT

; 334  : 	inline T* getNext(int *pIdx) {

$LN7:
  00000	48 89 54 24 10	 mov	 QWORD PTR [rsp+16], rdx
  00005	48 89 4c 24 08	 mov	 QWORD PTR [rsp+8], rcx
  0000a	57		 push	 rdi

; 335  : 		for (*pIdx; *pIdx < m_nMax; (*pIdx)++) {

  0000b	eb 10		 jmp	 SHORT $LN4@getNext
$LN2@getNext:
  0000d	48 8b 44 24 18	 mov	 rax, QWORD PTR pIdx$[rsp]
  00012	8b 00		 mov	 eax, DWORD PTR [rax]
  00014	ff c0		 inc	 eax
  00016	48 8b 4c 24 18	 mov	 rcx, QWORD PTR pIdx$[rsp]
  0001b	89 01		 mov	 DWORD PTR [rcx], eax
$LN4@getNext:
  0001d	48 8b 44 24 18	 mov	 rax, QWORD PTR pIdx$[rsp]
  00022	48 8b 4c 24 10	 mov	 rcx, QWORD PTR this$[rsp]
  00027	8b 49 14	 mov	 ecx, DWORD PTR [rcx+20]
  0002a	39 08		 cmp	 DWORD PTR [rax], ecx
  0002c	7d 2f		 jge	 SHORT $LN3@getNext

; 336  : 			if (m_pArray[*pIdx]) { return m_pArray[*pIdx]; }

  0002e	48 8b 44 24 18	 mov	 rax, QWORD PTR pIdx$[rsp]
  00033	48 63 00	 movsxd	 rax, DWORD PTR [rax]
  00036	48 8b 4c 24 10	 mov	 rcx, QWORD PTR this$[rsp]
  0003b	48 8b 09	 mov	 rcx, QWORD PTR [rcx]
  0003e	48 83 3c c1 00	 cmp	 QWORD PTR [rcx+rax*8], 0
  00043	74 16		 je	 SHORT $LN5@getNext
  00045	48 8b 44 24 18	 mov	 rax, QWORD PTR pIdx$[rsp]
  0004a	48 63 00	 movsxd	 rax, DWORD PTR [rax]
  0004d	48 8b 4c 24 10	 mov	 rcx, QWORD PTR this$[rsp]
  00052	48 8b 09	 mov	 rcx, QWORD PTR [rcx]
  00055	48 8b 04 c1	 mov	 rax, QWORD PTR [rcx+rax*8]
  00059	eb 04		 jmp	 SHORT $LN1@getNext
$LN5@getNext:

; 337  : 		}

  0005b	eb b0		 jmp	 SHORT $LN2@getNext
$LN3@getNext:

; 338  : 		return NULL;

  0005d	33 c0		 xor	 eax, eax
$LN1@getNext:

; 339  : 	}

  0005f	5f		 pop	 rdi
  00060	c3		 ret	 0
?getNext@?$CTList@VCSTLogger@@@@QEAAPEAVCSTLogger@@PEAH@Z ENDP ; CTList<CSTLogger>::getNext
_TEXT	ENDS
; Function compile flags: /Odtp /RTCsu
; File e:\infinia-library-3.0\com\include\comtlist.h
;	COMDAT ?getObj@?$CTList@VCSTLogger@@@@QEAAPEAVCSTLogger@@H@Z
_TEXT	SEGMENT
this$ = 48
i$ = 56
?getObj@?$CTList@VCSTLogger@@@@QEAAPEAVCSTLogger@@H@Z PROC ; CTList<CSTLogger>::getObj, COMDAT

; 332  : 	inline T* getObj(int i) { if (ISINCLUDE(i, m_nMax)) return m_pArray[i]; return NULL; }

$LN4:
  00000	89 54 24 10	 mov	 DWORD PTR [rsp+16], edx
  00004	48 89 4c 24 08	 mov	 QWORD PTR [rsp+8], rcx
  00009	57		 push	 rdi
  0000a	48 83 ec 20	 sub	 rsp, 32			; 00000020H
  0000e	48 8b fc	 mov	 rdi, rsp
  00011	b9 08 00 00 00	 mov	 ecx, 8
  00016	b8 cc cc cc cc	 mov	 eax, -858993460		; ccccccccH
  0001b	f3 ab		 rep stosd
  0001d	48 8b 4c 24 30	 mov	 rcx, QWORD PTR [rsp+48]
  00022	48 8b 44 24 30	 mov	 rax, QWORD PTR this$[rsp]
  00027	8b 50 14	 mov	 edx, DWORD PTR [rax+20]
  0002a	8b 4c 24 38	 mov	 ecx, DWORD PTR i$[rsp]
  0002e	e8 00 00 00 00	 call	 ?ISINCLUDE@@YA_NHH@Z	; ISINCLUDE
  00033	0f b6 c0	 movzx	 eax, al
  00036	85 c0		 test	 eax, eax
  00038	74 13		 je	 SHORT $LN2@getObj
  0003a	48 63 44 24 38	 movsxd	 rax, DWORD PTR i$[rsp]
  0003f	48 8b 4c 24 30	 mov	 rcx, QWORD PTR this$[rsp]
  00044	48 8b 09	 mov	 rcx, QWORD PTR [rcx]
  00047	48 8b 04 c1	 mov	 rax, QWORD PTR [rcx+rax*8]
  0004b	eb 02		 jmp	 SHORT $LN1@getObj
$LN2@getObj:
  0004d	33 c0		 xor	 eax, eax
$LN1@getObj:
  0004f	48 83 c4 20	 add	 rsp, 32			; 00000020H
  00053	5f		 pop	 rdi
  00054	c3		 ret	 0
?getObj@?$CTList@VCSTLogger@@@@QEAAPEAVCSTLogger@@H@Z ENDP ; CTList<CSTLogger>::getObj
_TEXT	ENDS
; Function compile flags: /Odtp /RTCsu
; File e:\infinia-library-3.0\com\include\comtlist.h
;	COMDAT ?del@?$CTList@VCSTLogger@@@@QEAA_NH@Z
_TEXT	SEGMENT
this$ = 48
i$ = 56
?del@?$CTList@VCSTLogger@@@@QEAA_NH@Z PROC		; CTList<CSTLogger>::del, COMDAT

; 523  : {

$LN4:
  00000	89 54 24 10	 mov	 DWORD PTR [rsp+16], edx
  00004	48 89 4c 24 08	 mov	 QWORD PTR [rsp+8], rcx
  00009	57		 push	 rdi
  0000a	48 83 ec 20	 sub	 rsp, 32			; 00000020H
  0000e	48 8b fc	 mov	 rdi, rsp
  00011	b9 08 00 00 00	 mov	 ecx, 8
  00016	b8 cc cc cc cc	 mov	 eax, -858993460		; ccccccccH
  0001b	f3 ab		 rep stosd
  0001d	48 8b 4c 24 30	 mov	 rcx, QWORD PTR [rsp+48]

; 524  : 	if (!ISINCLUDE(i, m_nMax)) {

  00022	48 8b 44 24 30	 mov	 rax, QWORD PTR this$[rsp]
  00027	8b 50 14	 mov	 edx, DWORD PTR [rax+20]
  0002a	8b 4c 24 38	 mov	 ecx, DWORD PTR i$[rsp]
  0002e	e8 00 00 00 00	 call	 ?ISINCLUDE@@YA_NHH@Z	; ISINCLUDE
  00033	0f b6 c0	 movzx	 eax, al
  00036	85 c0		 test	 eax, eax
  00038	75 25		 jne	 SHORT $LN2@del

; 525  : 		_stprintf(g_szMessage, "i[%d] m_nMax[%d]", i, m_nMax);

  0003a	48 8b 44 24 30	 mov	 rax, QWORD PTR this$[rsp]
  0003f	44 8b 48 14	 mov	 r9d, DWORD PTR [rax+20]
  00043	44 8b 44 24 38	 mov	 r8d, DWORD PTR i$[rsp]
  00048	48 8d 15 00 00
	00 00		 lea	 rdx, OFFSET FLAT:$SG46928
  0004f	48 8d 0d 00 00
	00 00		 lea	 rcx, OFFSET FLAT:?g_szMessage@@3PADA ; g_szMessage
  00056	e8 00 00 00 00	 call	 sprintf

; 526  : 		return false;

  0005b	32 c0		 xor	 al, al
  0005d	eb 10		 jmp	 SHORT $LN1@del
$LN2@del:

; 527  : 	}
; 528  : 	_DEL(i);

  0005f	8b 54 24 38	 mov	 edx, DWORD PTR i$[rsp]
  00063	48 8b 4c 24 30	 mov	 rcx, QWORD PTR this$[rsp]
  00068	e8 00 00 00 00	 call	 ?_DEL@?$CTList@VCSTLogger@@@@AEAAXH@Z ; CTList<CSTLogger>::_DEL

; 529  : 	//_stprintf(g_szMessage, _T("CMemList::del i[%d] m_nLast[%d] m_nCurCount[%d]"), i, m_nLast, m_nUse);
; 530  : 	return true;

  0006d	b0 01		 mov	 al, 1
$LN1@del:

; 531  : }

  0006f	48 83 c4 20	 add	 rsp, 32			; 00000020H
  00073	5f		 pop	 rdi
  00074	c3		 ret	 0
?del@?$CTList@VCSTLogger@@@@QEAA_NH@Z ENDP		; CTList<CSTLogger>::del
_TEXT	ENDS
; Function compile flags: /Odtp /RTCsu
; File e:\infinia-library-3.0\com\include\comtlist.h
;	COMDAT ?push_back@?$CTList@VCSTLogger@@@@QEAA_NPEAVCSTLogger@@PEAH@Z
_TEXT	SEGMENT
nIdx$ = 32
i$ = 36
this$ = 64
Obj$ = 72
pIdx$ = 80
?push_back@?$CTList@VCSTLogger@@@@QEAA_NPEAVCSTLogger@@PEAH@Z PROC ; CTList<CSTLogger>::push_back, COMDAT

; 472  : {

$LN15:
  00000	4c 89 44 24 18	 mov	 QWORD PTR [rsp+24], r8
  00005	48 89 54 24 10	 mov	 QWORD PTR [rsp+16], rdx
  0000a	48 89 4c 24 08	 mov	 QWORD PTR [rsp+8], rcx
  0000f	57		 push	 rdi
  00010	48 83 ec 30	 sub	 rsp, 48			; 00000030H
  00014	48 8b fc	 mov	 rdi, rsp
  00017	b9 0c 00 00 00	 mov	 ecx, 12
  0001c	b8 cc cc cc cc	 mov	 eax, -858993460		; ccccccccH
  00021	f3 ab		 rep stosd
  00023	48 8b 4c 24 40	 mov	 rcx, QWORD PTR [rsp+64]

; 473  : 	int nIdx, i;
; 474  : 
; 475  : 	if (m_nUse >= m_nMax) {

  00028	48 8b 44 24 40	 mov	 rax, QWORD PTR this$[rsp]
  0002d	48 8b 4c 24 40	 mov	 rcx, QWORD PTR this$[rsp]
  00032	8b 49 14	 mov	 ecx, DWORD PTR [rcx+20]
  00035	39 48 08	 cmp	 DWORD PTR [rax+8], ecx
  00038	7c 4b		 jl	 SHORT $LN5@push_back

; 476  : 		if (!__alloc(m_nMax + TLIST_ADD_SIZE)) return false;

  0003a	48 8b 44 24 40	 mov	 rax, QWORD PTR this$[rsp]
  0003f	8b 40 14	 mov	 eax, DWORD PTR [rax+20]
  00042	83 c0 40	 add	 eax, 64			; 00000040H
  00045	8b d0		 mov	 edx, eax
  00047	48 8b 4c 24 40	 mov	 rcx, QWORD PTR this$[rsp]
  0004c	e8 00 00 00 00	 call	 ?__alloc@?$CTList@VCSTLogger@@@@AEAAHH@Z ; CTList<CSTLogger>::__alloc
  00051	85 c0		 test	 eax, eax
  00053	75 07		 jne	 SHORT $LN6@push_back
  00055	32 c0		 xor	 al, al
  00057	e9 0c 01 00 00	 jmp	 $LN1@push_back
$LN6@push_back:

; 477  : 		nIdx = m_nMax;

  0005c	48 8b 44 24 40	 mov	 rax, QWORD PTR this$[rsp]
  00061	8b 40 14	 mov	 eax, DWORD PTR [rax+20]
  00064	89 44 24 20	 mov	 DWORD PTR nIdx$[rsp], eax

; 478  : 		m_nMax += TLIST_ADD_SIZE;

  00068	48 8b 44 24 40	 mov	 rax, QWORD PTR this$[rsp]
  0006d	8b 40 14	 mov	 eax, DWORD PTR [rax+20]
  00070	83 c0 40	 add	 eax, 64			; 00000040H
  00073	48 8b 4c 24 40	 mov	 rcx, QWORD PTR this$[rsp]
  00078	89 41 14	 mov	 DWORD PTR [rcx+20], eax

; 479  : 		goto ADD_SUCCESS;

  0007b	e9 99 00 00 00	 jmp	 $LN7@push_back
  00080	e9 94 00 00 00	 jmp	 $ADD_SUCCESS$16
$LN5@push_back:

; 480  : 	}
; 481  : 
; 482  : 	if (!m_pArray[m_nLast]) { nIdx = m_nLast;  goto ADD_SUCCESS; }

  00085	48 8b 44 24 40	 mov	 rax, QWORD PTR this$[rsp]
  0008a	48 63 40 0c	 movsxd	 rax, DWORD PTR [rax+12]
  0008e	48 8b 4c 24 40	 mov	 rcx, QWORD PTR this$[rsp]
  00093	48 8b 09	 mov	 rcx, QWORD PTR [rcx]
  00096	48 83 3c c1 00	 cmp	 QWORD PTR [rcx+rax*8], 0
  0009b	75 10		 jne	 SHORT $LN8@push_back
  0009d	48 8b 44 24 40	 mov	 rax, QWORD PTR this$[rsp]
  000a2	8b 40 0c	 mov	 eax, DWORD PTR [rax+12]
  000a5	89 44 24 20	 mov	 DWORD PTR nIdx$[rsp], eax
  000a9	eb 6e		 jmp	 SHORT $LN9@push_back
  000ab	eb 6c		 jmp	 SHORT $ADD_SUCCESS$16
$LN8@push_back:

; 483  : 
; 484  : 	nIdx = m_nLast;

  000ad	48 8b 44 24 40	 mov	 rax, QWORD PTR this$[rsp]
  000b2	8b 40 0c	 mov	 eax, DWORD PTR [rax+12]
  000b5	89 44 24 20	 mov	 DWORD PTR nIdx$[rsp], eax

; 485  : 	for (i = 0; i < m_nMax; i++)

  000b9	c7 44 24 24 00
	00 00 00	 mov	 DWORD PTR i$[rsp], 0
  000c1	eb 0a		 jmp	 SHORT $LN4@push_back
$LN2@push_back:
  000c3	8b 44 24 24	 mov	 eax, DWORD PTR i$[rsp]
  000c7	ff c0		 inc	 eax
  000c9	89 44 24 24	 mov	 DWORD PTR i$[rsp], eax
$LN4@push_back:
  000cd	48 8b 44 24 40	 mov	 rax, QWORD PTR this$[rsp]
  000d2	8b 40 14	 mov	 eax, DWORD PTR [rax+20]
  000d5	39 44 24 24	 cmp	 DWORD PTR i$[rsp], eax
  000d9	7d 3a		 jge	 SHORT $LN3@push_back

; 486  : 	{
; 487  : 		if (nIdx >= m_nMax) nIdx = 0;

  000db	48 8b 44 24 40	 mov	 rax, QWORD PTR this$[rsp]
  000e0	8b 40 14	 mov	 eax, DWORD PTR [rax+20]
  000e3	39 44 24 20	 cmp	 DWORD PTR nIdx$[rsp], eax
  000e7	7c 08		 jl	 SHORT $LN10@push_back
  000e9	c7 44 24 20 00
	00 00 00	 mov	 DWORD PTR nIdx$[rsp], 0
$LN10@push_back:

; 488  : 		if (!m_pArray[nIdx]) {

  000f1	48 63 44 24 20	 movsxd	 rax, DWORD PTR nIdx$[rsp]
  000f6	48 8b 4c 24 40	 mov	 rcx, QWORD PTR this$[rsp]
  000fb	48 8b 09	 mov	 rcx, QWORD PTR [rcx]
  000fe	48 83 3c c1 00	 cmp	 QWORD PTR [rcx+rax*8], 0
  00103	75 04		 jne	 SHORT $LN11@push_back

; 489  : 			goto ADD_SUCCESS;

  00105	eb 12		 jmp	 SHORT $LN12@push_back
  00107	eb 10		 jmp	 SHORT $ADD_SUCCESS$16
$LN11@push_back:

; 490  : 		}
; 491  : 		nIdx++;

  00109	8b 44 24 20	 mov	 eax, DWORD PTR nIdx$[rsp]
  0010d	ff c0		 inc	 eax
  0010f	89 44 24 20	 mov	 DWORD PTR nIdx$[rsp], eax

; 492  : 	}

  00113	eb ae		 jmp	 SHORT $LN2@push_back
$LN3@push_back:

; 493  : 	//_stprintf(m_szMessage, _T("add FAIL! m_nLast[%d] m_nCurCount[%d] m_nMax[%d]"), m_nLast, m_nUse, m_nMax);
; 494  : 	return false;

  00115	32 c0		 xor	 al, al
  00117	eb 4f		 jmp	 SHORT $LN1@push_back
$LN7@push_back:
$LN9@push_back:
$LN12@push_back:
$ADD_SUCCESS$16:

; 495  : 
; 496  : ADD_SUCCESS:
; 497  : 	m_nUse++;

  00119	48 8b 44 24 40	 mov	 rax, QWORD PTR this$[rsp]
  0011e	8b 40 08	 mov	 eax, DWORD PTR [rax+8]
  00121	ff c0		 inc	 eax
  00123	48 8b 4c 24 40	 mov	 rcx, QWORD PTR this$[rsp]
  00128	89 41 08	 mov	 DWORD PTR [rcx+8], eax

; 498  : 	m_pArray[nIdx] = Obj;

  0012b	48 63 44 24 20	 movsxd	 rax, DWORD PTR nIdx$[rsp]
  00130	48 8b 4c 24 40	 mov	 rcx, QWORD PTR this$[rsp]
  00135	48 8b 09	 mov	 rcx, QWORD PTR [rcx]
  00138	48 8b 54 24 48	 mov	 rdx, QWORD PTR Obj$[rsp]
  0013d	48 89 14 c1	 mov	 QWORD PTR [rcx+rax*8], rdx

; 499  : 	m_nLast++;

  00141	48 8b 44 24 40	 mov	 rax, QWORD PTR this$[rsp]
  00146	8b 40 0c	 mov	 eax, DWORD PTR [rax+12]
  00149	ff c0		 inc	 eax
  0014b	48 8b 4c 24 40	 mov	 rcx, QWORD PTR this$[rsp]
  00150	89 41 0c	 mov	 DWORD PTR [rcx+12], eax

; 500  : 	//_stprintf(g_szMessage, _T("CMemList::add i[%d] m_nLast[%d] m_nCurCount[%d]"), nIdx, m_nLast, m_nUse);
; 501  : 	if (pIdx) *pIdx = nIdx;

  00153	48 83 7c 24 50
	00		 cmp	 QWORD PTR pIdx$[rsp], 0
  00159	74 0b		 je	 SHORT $LN13@push_back
  0015b	48 8b 44 24 50	 mov	 rax, QWORD PTR pIdx$[rsp]
  00160	8b 4c 24 20	 mov	 ecx, DWORD PTR nIdx$[rsp]
  00164	89 08		 mov	 DWORD PTR [rax], ecx
$LN13@push_back:

; 502  : 	return true;

  00166	b0 01		 mov	 al, 1
$LN1@push_back:

; 503  : }

  00168	48 83 c4 30	 add	 rsp, 48			; 00000030H
  0016c	5f		 pop	 rdi
  0016d	c3		 ret	 0
?push_back@?$CTList@VCSTLogger@@@@QEAA_NPEAVCSTLogger@@PEAH@Z ENDP ; CTList<CSTLogger>::push_back
_TEXT	ENDS
; Function compile flags: /Odtp /RTCsu
; File e:\infinia-library-3.0\com\include\comtlist.h
;	COMDAT ?alloc@?$CTList@VCSTLogger@@@@QEAAHHW4E_ALLOC_TYPE@@@Z
_TEXT	SEGMENT
this$ = 48
nMaxCount$ = 56
type$ = 64
?alloc@?$CTList@VCSTLogger@@@@QEAAHHW4E_ALLOC_TYPE@@@Z PROC ; CTList<CSTLogger>::alloc, COMDAT

; 326  : 	int alloc(int nMaxCount, E_ALLOC_TYPE type = eAlloc_Type_new) { m_nObjAllocType = type;  m_nMax = __alloc(nMaxCount); return m_nMax; }

$LN3:
  00000	44 89 44 24 18	 mov	 DWORD PTR [rsp+24], r8d
  00005	89 54 24 10	 mov	 DWORD PTR [rsp+16], edx
  00009	48 89 4c 24 08	 mov	 QWORD PTR [rsp+8], rcx
  0000e	57		 push	 rdi
  0000f	48 83 ec 20	 sub	 rsp, 32			; 00000020H
  00013	48 8b fc	 mov	 rdi, rsp
  00016	b9 08 00 00 00	 mov	 ecx, 8
  0001b	b8 cc cc cc cc	 mov	 eax, -858993460		; ccccccccH
  00020	f3 ab		 rep stosd
  00022	48 8b 4c 24 30	 mov	 rcx, QWORD PTR [rsp+48]
  00027	48 8b 44 24 30	 mov	 rax, QWORD PTR this$[rsp]
  0002c	8b 4c 24 40	 mov	 ecx, DWORD PTR type$[rsp]
  00030	89 48 18	 mov	 DWORD PTR [rax+24], ecx
  00033	8b 54 24 38	 mov	 edx, DWORD PTR nMaxCount$[rsp]
  00037	48 8b 4c 24 30	 mov	 rcx, QWORD PTR this$[rsp]
  0003c	e8 00 00 00 00	 call	 ?__alloc@?$CTList@VCSTLogger@@@@AEAAHH@Z ; CTList<CSTLogger>::__alloc
  00041	48 8b 4c 24 30	 mov	 rcx, QWORD PTR this$[rsp]
  00046	89 41 14	 mov	 DWORD PTR [rcx+20], eax
  00049	48 8b 44 24 30	 mov	 rax, QWORD PTR this$[rsp]
  0004e	8b 40 14	 mov	 eax, DWORD PTR [rax+20]
  00051	48 83 c4 20	 add	 rsp, 32			; 00000020H
  00055	5f		 pop	 rdi
  00056	c3		 ret	 0
?alloc@?$CTList@VCSTLogger@@@@QEAAHHW4E_ALLOC_TYPE@@@Z ENDP ; CTList<CSTLogger>::alloc
_TEXT	ENDS
; Function compile flags: /Odtp /RTCsu
; File e:\infinia-library-3.0\com\include\comtlist.h
;	COMDAT ??1?$CTList@VCSTLogger@@@@QEAA@XZ
_TEXT	SEGMENT
idx$4 = 36
p$5 = 56
$T6 = 72
$T7 = 80
$T8 = 88
$T9 = 96
$T10 = 104
tv77 = 112
tv82 = 120
tv95 = 128
__$ArrayPad$ = 136
this$ = 160
??1?$CTList@VCSTLogger@@@@QEAA@XZ PROC			; CTList<CSTLogger>::~CTList<CSTLogger>, COMDAT

; 376  : {

$LN20:
  00000	48 89 4c 24 08	 mov	 QWORD PTR [rsp+8], rcx
  00005	57		 push	 rdi
  00006	48 81 ec 90 00
	00 00		 sub	 rsp, 144		; 00000090H
  0000d	48 8b fc	 mov	 rdi, rsp
  00010	b9 24 00 00 00	 mov	 ecx, 36			; 00000024H
  00015	b8 cc cc cc cc	 mov	 eax, -858993460		; ccccccccH
  0001a	f3 ab		 rep stosd
  0001c	48 8b 8c 24 a0
	00 00 00	 mov	 rcx, QWORD PTR [rsp+160]
  00024	48 c7 44 24 68
	fe ff ff ff	 mov	 QWORD PTR $T10[rsp], -2
  0002d	48 8b 05 00 00
	00 00		 mov	 rax, QWORD PTR __security_cookie
  00034	48 33 c4	 xor	 rax, rsp
  00037	48 89 84 24 88
	00 00 00	 mov	 QWORD PTR __$ArrayPad$[rsp], rax

; 377  : 	if (!m_pArray) return;

  0003f	48 8b 84 24 a0
	00 00 00	 mov	 rax, QWORD PTR this$[rsp]
  00047	48 83 38 00	 cmp	 QWORD PTR [rax], 0
  0004b	75 05		 jne	 SHORT $LN6@CTList
  0004d	e9 81 01 00 00	 jmp	 $LN1@CTList
$LN6@CTList:

; 378  : 
; 379  : 	if (ISABLETODELETE(m_nObjAllocType)) {

  00052	48 8b 84 24 a0
	00 00 00	 mov	 rax, QWORD PTR this$[rsp]
  0005a	8b 48 18	 mov	 ecx, DWORD PTR [rax+24]
  0005d	e8 00 00 00 00	 call	 ?ISABLETODELETE@@YA_NW4E_ALLOC_TYPE@@@Z ; ISABLETODELETE
  00062	90		 npad	 1
  00063	0f b6 c0	 movzx	 eax, al
  00066	85 c0		 test	 eax, eax
  00068	0f 84 36 01 00
	00		 je	 $LN7@CTList

; 380  : 		int idx = 0;

  0006e	c7 44 24 24 00
	00 00 00	 mov	 DWORD PTR idx$4[rsp], 0

; 381  : 		T *p = getNext(&idx);

  00076	48 8d 54 24 24	 lea	 rdx, QWORD PTR idx$4[rsp]
  0007b	48 8b 8c 24 a0
	00 00 00	 mov	 rcx, QWORD PTR this$[rsp]
  00083	e8 00 00 00 00	 call	 ?getNext@?$CTList@VCSTLogger@@@@QEAAPEAVCSTLogger@@PEAH@Z ; CTList<CSTLogger>::getNext
  00088	90		 npad	 1
  00089	48 89 44 24 38	 mov	 QWORD PTR p$5[rsp], rax
$LN2@CTList:

; 382  : 		while (p) {

  0008e	48 83 7c 24 38
	00		 cmp	 QWORD PTR p$5[rsp], 0
  00094	0f 84 0a 01 00
	00		 je	 $LN7@CTList

; 383  : 			idx++;

  0009a	8b 44 24 24	 mov	 eax, DWORD PTR idx$4[rsp]
  0009e	ff c0		 inc	 eax
  000a0	89 44 24 24	 mov	 DWORD PTR idx$4[rsp], eax

; 384  : 			switch (m_nObjAllocType) {

  000a4	48 8b 84 24 a0
	00 00 00	 mov	 rax, QWORD PTR this$[rsp]
  000ac	8b 40 18	 mov	 eax, DWORD PTR [rax+24]
  000af	89 44 24 70	 mov	 DWORD PTR tv77[rsp], eax
  000b3	83 7c 24 70 02	 cmp	 DWORD PTR tv77[rsp], 2
  000b8	74 1a		 je	 SHORT $LN8@CTList
  000ba	83 7c 24 70 03	 cmp	 DWORD PTR tv77[rsp], 3
  000bf	74 51		 je	 SHORT $LN9@CTList
  000c1	83 7c 24 70 04	 cmp	 DWORD PTR tv77[rsp], 4
  000c6	74 58		 je	 SHORT $LN10@CTList
  000c8	83 7c 24 70 05	 cmp	 DWORD PTR tv77[rsp], 5
  000cd	74 76		 je	 SHORT $LN11@CTList
  000cf	e9 b3 00 00 00	 jmp	 $LN4@CTList
$LN8@CTList:

; 385  : 				case eAlloc_Type_new		:	delete p; break;

  000d4	48 8b 44 24 38	 mov	 rax, QWORD PTR p$5[rsp]
  000d9	48 89 44 24 50	 mov	 QWORD PTR $T7[rsp], rax
  000de	48 8b 44 24 50	 mov	 rax, QWORD PTR $T7[rsp]
  000e3	48 89 44 24 48	 mov	 QWORD PTR $T6[rsp], rax
  000e8	48 83 7c 24 48
	00		 cmp	 QWORD PTR $T6[rsp], 0
  000ee	74 17		 je	 SHORT $LN16@CTList
  000f0	ba 01 00 00 00	 mov	 edx, 1
  000f5	48 8b 4c 24 48	 mov	 rcx, QWORD PTR $T6[rsp]
  000fa	e8 00 00 00 00	 call	 ??_GCSTLogger@@QEAAPEAXI@Z
  000ff	90		 npad	 1
  00100	48 89 44 24 78	 mov	 QWORD PTR tv82[rsp], rax
  00105	eb 09		 jmp	 SHORT $LN17@CTList
$LN16@CTList:
  00107	48 c7 44 24 78
	00 00 00 00	 mov	 QWORD PTR tv82[rsp], 0
$LN17@CTList:
  00110	eb 75		 jmp	 SHORT $LN4@CTList
$LN9@CTList:

; 386  : 				case eAlloc_Type_alloc		:	free(p); break;

  00112	48 8b 4c 24 38	 mov	 rcx, QWORD PTR p$5[rsp]
  00117	ff 15 00 00 00
	00		 call	 QWORD PTR __imp_free
  0011d	90		 npad	 1
  0011e	eb 67		 jmp	 SHORT $LN4@CTList
$LN10@CTList:

; 387  : 				case eAlloc_Type_BufPool	:	gs_pMMgr->delBuf((char *)p, STRING_SIZE((TCHAR *)p)); break;

  00120	48 8b 4c 24 38	 mov	 rcx, QWORD PTR p$5[rsp]
  00125	e8 00 00 00 00	 call	 strlen
  0012a	90		 npad	 1
  0012b	48 ff c0	 inc	 rax
  0012e	44 8b c0	 mov	 r8d, eax
  00131	48 8b 54 24 38	 mov	 rdx, QWORD PTR p$5[rsp]
  00136	48 8b 0d 00 00
	00 00		 mov	 rcx, QWORD PTR ?gs_pMMgr@@3PEAVCMemManager@@EA ; gs_pMMgr
  0013d	e8 00 00 00 00	 call	 ?delBuf@CMemManager@@QEAAXPEADH@Z ; CMemManager::delBuf
  00142	90		 npad	 1
  00143	eb 42		 jmp	 SHORT $LN4@CTList
$LN11@CTList:

; 388  : 				case eAlloc_Type_newArray	:	delete[] p; break;

  00145	48 8b 44 24 38	 mov	 rax, QWORD PTR p$5[rsp]
  0014a	48 89 44 24 60	 mov	 QWORD PTR $T9[rsp], rax
  0014f	48 8b 44 24 60	 mov	 rax, QWORD PTR $T9[rsp]
  00154	48 89 44 24 58	 mov	 QWORD PTR $T8[rsp], rax
  00159	48 83 7c 24 58
	00		 cmp	 QWORD PTR $T8[rsp], 0
  0015f	74 1a		 je	 SHORT $LN18@CTList
  00161	ba 03 00 00 00	 mov	 edx, 3
  00166	48 8b 4c 24 58	 mov	 rcx, QWORD PTR $T8[rsp]
  0016b	e8 00 00 00 00	 call	 ??_ECSTLogger@@QEAAPEAXI@Z
  00170	90		 npad	 1
  00171	48 89 84 24 80
	00 00 00	 mov	 QWORD PTR tv95[rsp], rax
  00179	eb 0c		 jmp	 SHORT $LN4@CTList
$LN18@CTList:
  0017b	48 c7 84 24 80
	00 00 00 00 00
	00 00		 mov	 QWORD PTR tv95[rsp], 0
$LN4@CTList:

; 389  : 				case eAlloc_Type_none		:	break;
; 390  : 				case eAlloc_Type_MemPool	:	break;
; 391  : 			}
; 392  : 			p = getNext(&idx);

  00187	48 8d 54 24 24	 lea	 rdx, QWORD PTR idx$4[rsp]
  0018c	48 8b 8c 24 a0
	00 00 00	 mov	 rcx, QWORD PTR this$[rsp]
  00194	e8 00 00 00 00	 call	 ?getNext@?$CTList@VCSTLogger@@@@QEAAPEAVCSTLogger@@PEAH@Z ; CTList<CSTLogger>::getNext
  00199	90		 npad	 1
  0019a	48 89 44 24 38	 mov	 QWORD PTR p$5[rsp], rax

; 393  : 		}

  0019f	e9 ea fe ff ff	 jmp	 $LN2@CTList
$LN7@CTList:

; 394  : 	}
; 395  : 
; 396  : 	if (m_pArray)	free(m_pArray);

  001a4	48 8b 84 24 a0
	00 00 00	 mov	 rax, QWORD PTR this$[rsp]
  001ac	48 83 38 00	 cmp	 QWORD PTR [rax], 0
  001b0	74 12		 je	 SHORT $LN14@CTList
  001b2	48 8b 84 24 a0
	00 00 00	 mov	 rax, QWORD PTR this$[rsp]
  001ba	48 8b 08	 mov	 rcx, QWORD PTR [rax]
  001bd	ff 15 00 00 00
	00		 call	 QWORD PTR __imp_free
  001c3	90		 npad	 1
$LN14@CTList:

; 397  : 	m_pArray = 0;

  001c4	48 8b 84 24 a0
	00 00 00	 mov	 rax, QWORD PTR this$[rsp]
  001cc	48 c7 00 00 00
	00 00		 mov	 QWORD PTR [rax], 0
$LN1@CTList:

; 398  : }

  001d3	48 8b cc	 mov	 rcx, rsp
  001d6	48 8d 15 00 00
	00 00		 lea	 rdx, OFFSET FLAT:??1?$CTList@VCSTLogger@@@@QEAA@XZ$rtcFrameData
  001dd	e8 00 00 00 00	 call	 _RTC_CheckStackVars
  001e2	90		 npad	 1
  001e3	48 8b 8c 24 88
	00 00 00	 mov	 rcx, QWORD PTR __$ArrayPad$[rsp]
  001eb	48 33 cc	 xor	 rcx, rsp
  001ee	e8 00 00 00 00	 call	 __security_check_cookie
  001f3	90		 npad	 1
  001f4	48 81 c4 90 00
	00 00		 add	 rsp, 144		; 00000090H
  001fb	5f		 pop	 rdi
  001fc	c3		 ret	 0
??1?$CTList@VCSTLogger@@@@QEAA@XZ ENDP			; CTList<CSTLogger>::~CTList<CSTLogger>
_TEXT	ENDS
; Function compile flags: /Odtp /RTCsu
; File e:\infinia-library-3.0\com\include\comtlist.h
;	COMDAT ??0?$CTList@VCSTLogger@@@@QEAA@XZ
_TEXT	SEGMENT
this$ = 16
??0?$CTList@VCSTLogger@@@@QEAA@XZ PROC			; CTList<CSTLogger>::CTList<CSTLogger>, COMDAT

; 365  : {

$LN3:
  00000	48 89 4c 24 08	 mov	 QWORD PTR [rsp+8], rcx
  00005	57		 push	 rdi

; 366  : 	m_pArray = NULL;

  00006	48 8b 44 24 10	 mov	 rax, QWORD PTR this$[rsp]
  0000b	48 c7 00 00 00
	00 00		 mov	 QWORD PTR [rax], 0

; 367  : 	m_nUse = 0;

  00012	48 8b 44 24 10	 mov	 rax, QWORD PTR this$[rsp]
  00017	c7 40 08 00 00
	00 00		 mov	 DWORD PTR [rax+8], 0

; 368  : 	m_nLast = 0;

  0001e	48 8b 44 24 10	 mov	 rax, QWORD PTR this$[rsp]
  00023	c7 40 0c 00 00
	00 00		 mov	 DWORD PTR [rax+12], 0

; 369  : 	m_nDelIdx = 0;

  0002a	48 8b 44 24 10	 mov	 rax, QWORD PTR this$[rsp]
  0002f	c7 40 10 00 00
	00 00		 mov	 DWORD PTR [rax+16], 0

; 370  : 	m_nMax = 0;

  00036	48 8b 44 24 10	 mov	 rax, QWORD PTR this$[rsp]
  0003b	c7 40 14 00 00
	00 00		 mov	 DWORD PTR [rax+20], 0

; 371  : 	m_nObjAllocType = eAlloc_Type_none;

  00042	48 8b 44 24 10	 mov	 rax, QWORD PTR this$[rsp]
  00047	c7 40 18 00 00
	00 00		 mov	 DWORD PTR [rax+24], 0

; 372  : }

  0004e	48 8b 44 24 10	 mov	 rax, QWORD PTR this$[rsp]
  00053	5f		 pop	 rdi
  00054	c3		 ret	 0
??0?$CTList@VCSTLogger@@@@QEAA@XZ ENDP			; CTList<CSTLogger>::CTList<CSTLogger>
_TEXT	ENDS
; Function compile flags: /Odtp /RTCsu
;	COMDAT ??_G?$CTList@VCLogger@@@@QEAAPEAXI@Z
_TEXT	SEGMENT
this$ = 48
__flags$ = 56
??_G?$CTList@VCLogger@@@@QEAAPEAXI@Z PROC		; CTList<CLogger>::`scalar deleting destructor', COMDAT
$LN4:
  00000	89 54 24 10	 mov	 DWORD PTR [rsp+16], edx
  00004	48 89 4c 24 08	 mov	 QWORD PTR [rsp+8], rcx
  00009	57		 push	 rdi
  0000a	48 83 ec 20	 sub	 rsp, 32			; 00000020H
  0000e	48 8b fc	 mov	 rdi, rsp
  00011	b9 08 00 00 00	 mov	 ecx, 8
  00016	b8 cc cc cc cc	 mov	 eax, -858993460		; ccccccccH
  0001b	f3 ab		 rep stosd
  0001d	48 8b 4c 24 30	 mov	 rcx, QWORD PTR [rsp+48]
  00022	48 8b 4c 24 30	 mov	 rcx, QWORD PTR this$[rsp]
  00027	e8 00 00 00 00	 call	 ??1?$CTList@VCLogger@@@@QEAA@XZ ; CTList<CLogger>::~CTList<CLogger>
  0002c	8b 44 24 38	 mov	 eax, DWORD PTR __flags$[rsp]
  00030	83 e0 01	 and	 eax, 1
  00033	85 c0		 test	 eax, eax
  00035	74 0f		 je	 SHORT $LN2@scalar
  00037	ba 20 00 00 00	 mov	 edx, 32			; 00000020H
  0003c	48 8b 4c 24 30	 mov	 rcx, QWORD PTR this$[rsp]
  00041	e8 00 00 00 00	 call	 ??3@YAXPEAX_K@Z		; operator delete
$LN2@scalar:
  00046	48 8b 44 24 30	 mov	 rax, QWORD PTR this$[rsp]
  0004b	48 83 c4 20	 add	 rsp, 32			; 00000020H
  0004f	5f		 pop	 rdi
  00050	c3		 ret	 0
??_G?$CTList@VCLogger@@@@QEAAPEAXI@Z ENDP		; CTList<CLogger>::`scalar deleting destructor'
_TEXT	ENDS
; Function compile flags: /Odtp /RTCsu
;	COMDAT ?__autoclassinit2@?$CTList@VCLogger@@@@QEAAX_K@Z
_TEXT	SEGMENT
this$ = 16
classSize$ = 24
?__autoclassinit2@?$CTList@VCLogger@@@@QEAAX_K@Z PROC	; CTList<CLogger>::__autoclassinit2, COMDAT
$LN3:
  00000	48 89 54 24 10	 mov	 QWORD PTR [rsp+16], rdx
  00005	48 89 4c 24 08	 mov	 QWORD PTR [rsp+8], rcx
  0000a	57		 push	 rdi
  0000b	48 8b 7c 24 10	 mov	 rdi, QWORD PTR this$[rsp]
  00010	33 c0		 xor	 eax, eax
  00012	48 8b 4c 24 18	 mov	 rcx, QWORD PTR classSize$[rsp]
  00017	f3 aa		 rep stosb
  00019	5f		 pop	 rdi
  0001a	c3		 ret	 0
?__autoclassinit2@?$CTList@VCLogger@@@@QEAAX_K@Z ENDP	; CTList<CLogger>::__autoclassinit2
_TEXT	ENDS
; Function compile flags: /Odtp /RTCsu
; File e:\infinia-library-3.0\com\include\comtlist.h
;	COMDAT ?_DEL@?$CTList@VCLogger@@@@AEAAXH@Z
_TEXT	SEGMENT
this$ = 16
i$ = 24
?_DEL@?$CTList@VCLogger@@@@AEAAXH@Z PROC		; CTList<CLogger>::_DEL, COMDAT

; 360  : 	inline void _DEL(int i) { m_pArray[i] = 0; m_nUse--; m_nDelIdx = i; }

$LN3:
  00000	89 54 24 10	 mov	 DWORD PTR [rsp+16], edx
  00004	48 89 4c 24 08	 mov	 QWORD PTR [rsp+8], rcx
  00009	57		 push	 rdi
  0000a	48 63 44 24 18	 movsxd	 rax, DWORD PTR i$[rsp]
  0000f	48 8b 4c 24 10	 mov	 rcx, QWORD PTR this$[rsp]
  00014	48 8b 09	 mov	 rcx, QWORD PTR [rcx]
  00017	48 c7 04 c1 00
	00 00 00	 mov	 QWORD PTR [rcx+rax*8], 0
  0001f	48 8b 44 24 10	 mov	 rax, QWORD PTR this$[rsp]
  00024	8b 40 08	 mov	 eax, DWORD PTR [rax+8]
  00027	ff c8		 dec	 eax
  00029	48 8b 4c 24 10	 mov	 rcx, QWORD PTR this$[rsp]
  0002e	89 41 08	 mov	 DWORD PTR [rcx+8], eax
  00031	48 8b 44 24 10	 mov	 rax, QWORD PTR this$[rsp]
  00036	8b 4c 24 18	 mov	 ecx, DWORD PTR i$[rsp]
  0003a	89 48 10	 mov	 DWORD PTR [rax+16], ecx
  0003d	5f		 pop	 rdi
  0003e	c3		 ret	 0
?_DEL@?$CTList@VCLogger@@@@AEAAXH@Z ENDP		; CTList<CLogger>::_DEL
_TEXT	ENDS
; Function compile flags: /Odtp /RTCsu
; File e:\infinia-library-3.0\com\include\comtlist.h
;	COMDAT ?__alloc@?$CTList@VCLogger@@@@AEAAHH@Z
_TEXT	SEGMENT
pList$ = 32
this$ = 64
nMaxCount$ = 72
?__alloc@?$CTList@VCLogger@@@@AEAAHH@Z PROC		; CTList<CLogger>::__alloc, COMDAT

; 402  : {

$LN5:
  00000	89 54 24 10	 mov	 DWORD PTR [rsp+16], edx
  00004	48 89 4c 24 08	 mov	 QWORD PTR [rsp+8], rcx
  00009	57		 push	 rdi
  0000a	48 83 ec 30	 sub	 rsp, 48			; 00000030H
  0000e	48 8b fc	 mov	 rdi, rsp
  00011	b9 0c 00 00 00	 mov	 ecx, 12
  00016	b8 cc cc cc cc	 mov	 eax, -858993460		; ccccccccH
  0001b	f3 ab		 rep stosd
  0001d	48 8b 4c 24 40	 mov	 rcx, QWORD PTR [rsp+64]

; 403  : 	T** pList = (T**)calloc(nMaxCount, sizeof(T*));

  00022	48 63 44 24 48	 movsxd	 rax, DWORD PTR nMaxCount$[rsp]
  00027	ba 08 00 00 00	 mov	 edx, 8
  0002c	48 8b c8	 mov	 rcx, rax
  0002f	ff 15 00 00 00
	00		 call	 QWORD PTR __imp_calloc
  00035	48 89 44 24 20	 mov	 QWORD PTR pList$[rsp], rax

; 404  : 	if (!pList) {

  0003a	48 83 7c 24 20
	00		 cmp	 QWORD PTR pList$[rsp], 0
  00040	75 17		 jne	 SHORT $LN2@alloc

; 405  : 		_stprintf(g_szMessage, "pList calloc is NULL");

  00042	48 8d 15 00 00
	00 00		 lea	 rdx, OFFSET FLAT:$SG46761
  00049	48 8d 0d 00 00
	00 00		 lea	 rcx, OFFSET FLAT:?g_szMessage@@3PADA ; g_szMessage
  00050	e8 00 00 00 00	 call	 sprintf

; 406  : 		return 0;

  00055	33 c0		 xor	 eax, eax
  00057	eb 4c		 jmp	 SHORT $LN1@alloc
$LN2@alloc:

; 407  : 	}
; 408  : 	//_stprintf(g_szMessage, _T("CTList::__alloc list m_nMaxCount[%d]"), nMaxCount);
; 409  : 	if (m_pArray) {

  00059	48 8b 44 24 40	 mov	 rax, QWORD PTR this$[rsp]
  0005e	48 83 38 00	 cmp	 QWORD PTR [rax], 0
  00062	74 30		 je	 SHORT $LN3@alloc

; 410  : 		memcpy(pList, m_pArray, m_nMax * sizeof(T*));

  00064	48 8b 44 24 40	 mov	 rax, QWORD PTR this$[rsp]
  00069	48 63 40 14	 movsxd	 rax, DWORD PTR [rax+20]
  0006d	48 c1 e0 03	 shl	 rax, 3
  00071	4c 8b c0	 mov	 r8, rax
  00074	48 8b 44 24 40	 mov	 rax, QWORD PTR this$[rsp]
  00079	48 8b 10	 mov	 rdx, QWORD PTR [rax]
  0007c	48 8b 4c 24 20	 mov	 rcx, QWORD PTR pList$[rsp]
  00081	e8 00 00 00 00	 call	 memcpy

; 411  : 		free(m_pArray);

  00086	48 8b 44 24 40	 mov	 rax, QWORD PTR this$[rsp]
  0008b	48 8b 08	 mov	 rcx, QWORD PTR [rax]
  0008e	ff 15 00 00 00
	00		 call	 QWORD PTR __imp_free
$LN3@alloc:

; 412  : 	}
; 413  : 	m_pArray = pList;

  00094	48 8b 44 24 40	 mov	 rax, QWORD PTR this$[rsp]
  00099	48 8b 4c 24 20	 mov	 rcx, QWORD PTR pList$[rsp]
  0009e	48 89 08	 mov	 QWORD PTR [rax], rcx

; 414  : 	return nMaxCount;

  000a1	8b 44 24 48	 mov	 eax, DWORD PTR nMaxCount$[rsp]
$LN1@alloc:

; 415  : }

  000a5	48 83 c4 30	 add	 rsp, 48			; 00000030H
  000a9	5f		 pop	 rdi
  000aa	c3		 ret	 0
?__alloc@?$CTList@VCLogger@@@@AEAAHH@Z ENDP		; CTList<CLogger>::__alloc
_TEXT	ENDS
; Function compile flags: /Odtp /RTCsu
; File e:\infinia-library-3.0\com\include\comtlist.h
;	COMDAT ?getNext@?$CTList@VCLogger@@@@QEAAPEAVCLogger@@PEAH@Z
_TEXT	SEGMENT
this$ = 16
pIdx$ = 24
?getNext@?$CTList@VCLogger@@@@QEAAPEAVCLogger@@PEAH@Z PROC ; CTList<CLogger>::getNext, COMDAT

; 334  : 	inline T* getNext(int *pIdx) {

$LN7:
  00000	48 89 54 24 10	 mov	 QWORD PTR [rsp+16], rdx
  00005	48 89 4c 24 08	 mov	 QWORD PTR [rsp+8], rcx
  0000a	57		 push	 rdi

; 335  : 		for (*pIdx; *pIdx < m_nMax; (*pIdx)++) {

  0000b	eb 10		 jmp	 SHORT $LN4@getNext
$LN2@getNext:
  0000d	48 8b 44 24 18	 mov	 rax, QWORD PTR pIdx$[rsp]
  00012	8b 00		 mov	 eax, DWORD PTR [rax]
  00014	ff c0		 inc	 eax
  00016	48 8b 4c 24 18	 mov	 rcx, QWORD PTR pIdx$[rsp]
  0001b	89 01		 mov	 DWORD PTR [rcx], eax
$LN4@getNext:
  0001d	48 8b 44 24 18	 mov	 rax, QWORD PTR pIdx$[rsp]
  00022	48 8b 4c 24 10	 mov	 rcx, QWORD PTR this$[rsp]
  00027	8b 49 14	 mov	 ecx, DWORD PTR [rcx+20]
  0002a	39 08		 cmp	 DWORD PTR [rax], ecx
  0002c	7d 2f		 jge	 SHORT $LN3@getNext

; 336  : 			if (m_pArray[*pIdx]) { return m_pArray[*pIdx]; }

  0002e	48 8b 44 24 18	 mov	 rax, QWORD PTR pIdx$[rsp]
  00033	48 63 00	 movsxd	 rax, DWORD PTR [rax]
  00036	48 8b 4c 24 10	 mov	 rcx, QWORD PTR this$[rsp]
  0003b	48 8b 09	 mov	 rcx, QWORD PTR [rcx]
  0003e	48 83 3c c1 00	 cmp	 QWORD PTR [rcx+rax*8], 0
  00043	74 16		 je	 SHORT $LN5@getNext
  00045	48 8b 44 24 18	 mov	 rax, QWORD PTR pIdx$[rsp]
  0004a	48 63 00	 movsxd	 rax, DWORD PTR [rax]
  0004d	48 8b 4c 24 10	 mov	 rcx, QWORD PTR this$[rsp]
  00052	48 8b 09	 mov	 rcx, QWORD PTR [rcx]
  00055	48 8b 04 c1	 mov	 rax, QWORD PTR [rcx+rax*8]
  00059	eb 04		 jmp	 SHORT $LN1@getNext
$LN5@getNext:

; 337  : 		}

  0005b	eb b0		 jmp	 SHORT $LN2@getNext
$LN3@getNext:

; 338  : 		return NULL;

  0005d	33 c0		 xor	 eax, eax
$LN1@getNext:

; 339  : 	}

  0005f	5f		 pop	 rdi
  00060	c3		 ret	 0
?getNext@?$CTList@VCLogger@@@@QEAAPEAVCLogger@@PEAH@Z ENDP ; CTList<CLogger>::getNext
_TEXT	ENDS
; Function compile flags: /Odtp /RTCsu
; File e:\infinia-library-3.0\com\include\comtlist.h
;	COMDAT ?del@?$CTList@VCLogger@@@@QEAA_NPEAVCLogger@@@Z
_TEXT	SEGMENT
i$ = 32
this$ = 64
p$ = 72
?del@?$CTList@VCLogger@@@@QEAA_NPEAVCLogger@@@Z PROC	; CTList<CLogger>::del, COMDAT

; 508  : {

$LN7:
  00000	48 89 54 24 10	 mov	 QWORD PTR [rsp+16], rdx
  00005	48 89 4c 24 08	 mov	 QWORD PTR [rsp+8], rcx
  0000a	57		 push	 rdi
  0000b	48 83 ec 30	 sub	 rsp, 48			; 00000030H
  0000f	48 8b fc	 mov	 rdi, rsp
  00012	b9 0c 00 00 00	 mov	 ecx, 12
  00017	b8 cc cc cc cc	 mov	 eax, -858993460		; ccccccccH
  0001c	f3 ab		 rep stosd
  0001e	48 8b 4c 24 40	 mov	 rcx, QWORD PTR [rsp+64]

; 509  : 	int i;
; 510  : 	for (i = 0; i < m_nMax; i++) {

  00023	c7 44 24 20 00
	00 00 00	 mov	 DWORD PTR i$[rsp], 0
  0002b	eb 0a		 jmp	 SHORT $LN4@del
$LN2@del:
  0002d	8b 44 24 20	 mov	 eax, DWORD PTR i$[rsp]
  00031	ff c0		 inc	 eax
  00033	89 44 24 20	 mov	 DWORD PTR i$[rsp], eax
$LN4@del:
  00037	48 8b 44 24 40	 mov	 rax, QWORD PTR this$[rsp]
  0003c	8b 40 14	 mov	 eax, DWORD PTR [rax+20]
  0003f	39 44 24 20	 cmp	 DWORD PTR i$[rsp], eax
  00043	7d 2c		 jge	 SHORT $LN3@del

; 511  : 		if (m_pArray[i] == p) {

  00045	48 63 44 24 20	 movsxd	 rax, DWORD PTR i$[rsp]
  0004a	48 8b 4c 24 40	 mov	 rcx, QWORD PTR this$[rsp]
  0004f	48 8b 09	 mov	 rcx, QWORD PTR [rcx]
  00052	48 8b 54 24 48	 mov	 rdx, QWORD PTR p$[rsp]
  00057	48 39 14 c1	 cmp	 QWORD PTR [rcx+rax*8], rdx
  0005b	75 12		 jne	 SHORT $LN5@del

; 512  : 			_DEL(i);

  0005d	8b 54 24 20	 mov	 edx, DWORD PTR i$[rsp]
  00061	48 8b 4c 24 40	 mov	 rcx, QWORD PTR this$[rsp]
  00066	e8 00 00 00 00	 call	 ?_DEL@?$CTList@VCLogger@@@@AEAAXH@Z ; CTList<CLogger>::_DEL

; 513  : 			//_stprintf(g_szMessage, _T("CMemList::del i[%d] m_nLast[%d] m_nCurCount[%d]"), i, m_nLast, m_nUse);
; 514  : 			return true;

  0006b	b0 01		 mov	 al, 1
  0006d	eb 25		 jmp	 SHORT $LN1@del
$LN5@del:

; 515  : 		}
; 516  : 	}

  0006f	eb bc		 jmp	 SHORT $LN2@del
$LN3@del:

; 517  : 	_stprintf(g_szMessage, " del FAIL! i[%d] m_nMax[%d]", i, m_nMax);

  00071	48 8b 44 24 40	 mov	 rax, QWORD PTR this$[rsp]
  00076	44 8b 48 14	 mov	 r9d, DWORD PTR [rax+20]
  0007a	44 8b 44 24 20	 mov	 r8d, DWORD PTR i$[rsp]
  0007f	48 8d 15 00 00
	00 00		 lea	 rdx, OFFSET FLAT:$SG46750
  00086	48 8d 0d 00 00
	00 00		 lea	 rcx, OFFSET FLAT:?g_szMessage@@3PADA ; g_szMessage
  0008d	e8 00 00 00 00	 call	 sprintf

; 518  : 	return false;

  00092	32 c0		 xor	 al, al
$LN1@del:

; 519  : }

  00094	48 83 c4 30	 add	 rsp, 48			; 00000030H
  00098	5f		 pop	 rdi
  00099	c3		 ret	 0
?del@?$CTList@VCLogger@@@@QEAA_NPEAVCLogger@@@Z ENDP	; CTList<CLogger>::del
_TEXT	ENDS
; Function compile flags: /Odtp /RTCsu
; File e:\infinia-library-3.0\com\include\comtlist.h
;	COMDAT ?IsExist@?$CTList@VCLogger@@@@QEAA_NPEAVCLogger@@@Z
_TEXT	SEGMENT
i$ = 0
this$ = 32
p$ = 40
?IsExist@?$CTList@VCLogger@@@@QEAA_NPEAVCLogger@@@Z PROC ; CTList<CLogger>::IsExist, COMDAT

; 457  : {

$LN8:
  00000	48 89 54 24 10	 mov	 QWORD PTR [rsp+16], rdx
  00005	48 89 4c 24 08	 mov	 QWORD PTR [rsp+8], rcx
  0000a	57		 push	 rdi
  0000b	48 83 ec 10	 sub	 rsp, 16
  0000f	48 8b fc	 mov	 rdi, rsp
  00012	b9 04 00 00 00	 mov	 ecx, 4
  00017	b8 cc cc cc cc	 mov	 eax, -858993460		; ccccccccH
  0001c	f3 ab		 rep stosd
  0001e	48 8b 4c 24 20	 mov	 rcx, QWORD PTR [rsp+32]

; 458  : 	int i;
; 459  : 	for (i = 0; i < m_nMax; i++)

  00023	c7 04 24 00 00
	00 00		 mov	 DWORD PTR i$[rsp], 0
  0002a	eb 08		 jmp	 SHORT $LN4@IsExist
$LN2@IsExist:
  0002c	8b 04 24	 mov	 eax, DWORD PTR i$[rsp]
  0002f	ff c0		 inc	 eax
  00031	89 04 24	 mov	 DWORD PTR i$[rsp], eax
$LN4@IsExist:
  00034	48 8b 44 24 20	 mov	 rax, QWORD PTR this$[rsp]
  00039	8b 40 14	 mov	 eax, DWORD PTR [rax+20]
  0003c	39 04 24	 cmp	 DWORD PTR i$[rsp], eax
  0003f	7d 30		 jge	 SHORT $LN3@IsExist

; 460  : 	{
; 461  : 		if (m_pArray[i]) {

  00041	48 63 04 24	 movsxd	 rax, DWORD PTR i$[rsp]
  00045	48 8b 4c 24 20	 mov	 rcx, QWORD PTR this$[rsp]
  0004a	48 8b 09	 mov	 rcx, QWORD PTR [rcx]
  0004d	48 83 3c c1 00	 cmp	 QWORD PTR [rcx+rax*8], 0
  00052	74 1b		 je	 SHORT $LN5@IsExist

; 462  : 			if (m_pArray[i] == p) {

  00054	48 63 04 24	 movsxd	 rax, DWORD PTR i$[rsp]
  00058	48 8b 4c 24 20	 mov	 rcx, QWORD PTR this$[rsp]
  0005d	48 8b 09	 mov	 rcx, QWORD PTR [rcx]
  00060	48 8b 54 24 28	 mov	 rdx, QWORD PTR p$[rsp]
  00065	48 39 14 c1	 cmp	 QWORD PTR [rcx+rax*8], rdx
  00069	75 04		 jne	 SHORT $LN6@IsExist

; 463  : 				return true;

  0006b	b0 01		 mov	 al, 1
  0006d	eb 04		 jmp	 SHORT $LN1@IsExist
$LN6@IsExist:
$LN5@IsExist:

; 464  : 			}
; 465  : 		}
; 466  : 	}

  0006f	eb bb		 jmp	 SHORT $LN2@IsExist
$LN3@IsExist:

; 467  : 	return false;

  00071	32 c0		 xor	 al, al
$LN1@IsExist:

; 468  : }

  00073	48 83 c4 10	 add	 rsp, 16
  00077	5f		 pop	 rdi
  00078	c3		 ret	 0
?IsExist@?$CTList@VCLogger@@@@QEAA_NPEAVCLogger@@@Z ENDP ; CTList<CLogger>::IsExist
_TEXT	ENDS
; Function compile flags: /Odtp /RTCsu
; File e:\infinia-library-3.0\com\include\comtlist.h
;	COMDAT ?push_back@?$CTList@VCLogger@@@@QEAA_NPEAVCLogger@@PEAH@Z
_TEXT	SEGMENT
nIdx$ = 32
i$ = 36
this$ = 64
Obj$ = 72
pIdx$ = 80
?push_back@?$CTList@VCLogger@@@@QEAA_NPEAVCLogger@@PEAH@Z PROC ; CTList<CLogger>::push_back, COMDAT

; 472  : {

$LN15:
  00000	4c 89 44 24 18	 mov	 QWORD PTR [rsp+24], r8
  00005	48 89 54 24 10	 mov	 QWORD PTR [rsp+16], rdx
  0000a	48 89 4c 24 08	 mov	 QWORD PTR [rsp+8], rcx
  0000f	57		 push	 rdi
  00010	48 83 ec 30	 sub	 rsp, 48			; 00000030H
  00014	48 8b fc	 mov	 rdi, rsp
  00017	b9 0c 00 00 00	 mov	 ecx, 12
  0001c	b8 cc cc cc cc	 mov	 eax, -858993460		; ccccccccH
  00021	f3 ab		 rep stosd
  00023	48 8b 4c 24 40	 mov	 rcx, QWORD PTR [rsp+64]

; 473  : 	int nIdx, i;
; 474  : 
; 475  : 	if (m_nUse >= m_nMax) {

  00028	48 8b 44 24 40	 mov	 rax, QWORD PTR this$[rsp]
  0002d	48 8b 4c 24 40	 mov	 rcx, QWORD PTR this$[rsp]
  00032	8b 49 14	 mov	 ecx, DWORD PTR [rcx+20]
  00035	39 48 08	 cmp	 DWORD PTR [rax+8], ecx
  00038	7c 4b		 jl	 SHORT $LN5@push_back

; 476  : 		if (!__alloc(m_nMax + TLIST_ADD_SIZE)) return false;

  0003a	48 8b 44 24 40	 mov	 rax, QWORD PTR this$[rsp]
  0003f	8b 40 14	 mov	 eax, DWORD PTR [rax+20]
  00042	83 c0 40	 add	 eax, 64			; 00000040H
  00045	8b d0		 mov	 edx, eax
  00047	48 8b 4c 24 40	 mov	 rcx, QWORD PTR this$[rsp]
  0004c	e8 00 00 00 00	 call	 ?__alloc@?$CTList@VCLogger@@@@AEAAHH@Z ; CTList<CLogger>::__alloc
  00051	85 c0		 test	 eax, eax
  00053	75 07		 jne	 SHORT $LN6@push_back
  00055	32 c0		 xor	 al, al
  00057	e9 0c 01 00 00	 jmp	 $LN1@push_back
$LN6@push_back:

; 477  : 		nIdx = m_nMax;

  0005c	48 8b 44 24 40	 mov	 rax, QWORD PTR this$[rsp]
  00061	8b 40 14	 mov	 eax, DWORD PTR [rax+20]
  00064	89 44 24 20	 mov	 DWORD PTR nIdx$[rsp], eax

; 478  : 		m_nMax += TLIST_ADD_SIZE;

  00068	48 8b 44 24 40	 mov	 rax, QWORD PTR this$[rsp]
  0006d	8b 40 14	 mov	 eax, DWORD PTR [rax+20]
  00070	83 c0 40	 add	 eax, 64			; 00000040H
  00073	48 8b 4c 24 40	 mov	 rcx, QWORD PTR this$[rsp]
  00078	89 41 14	 mov	 DWORD PTR [rcx+20], eax

; 479  : 		goto ADD_SUCCESS;

  0007b	e9 99 00 00 00	 jmp	 $LN7@push_back
  00080	e9 94 00 00 00	 jmp	 $ADD_SUCCESS$16
$LN5@push_back:

; 480  : 	}
; 481  : 
; 482  : 	if (!m_pArray[m_nLast]) { nIdx = m_nLast;  goto ADD_SUCCESS; }

  00085	48 8b 44 24 40	 mov	 rax, QWORD PTR this$[rsp]
  0008a	48 63 40 0c	 movsxd	 rax, DWORD PTR [rax+12]
  0008e	48 8b 4c 24 40	 mov	 rcx, QWORD PTR this$[rsp]
  00093	48 8b 09	 mov	 rcx, QWORD PTR [rcx]
  00096	48 83 3c c1 00	 cmp	 QWORD PTR [rcx+rax*8], 0
  0009b	75 10		 jne	 SHORT $LN8@push_back
  0009d	48 8b 44 24 40	 mov	 rax, QWORD PTR this$[rsp]
  000a2	8b 40 0c	 mov	 eax, DWORD PTR [rax+12]
  000a5	89 44 24 20	 mov	 DWORD PTR nIdx$[rsp], eax
  000a9	eb 6e		 jmp	 SHORT $LN9@push_back
  000ab	eb 6c		 jmp	 SHORT $ADD_SUCCESS$16
$LN8@push_back:

; 483  : 
; 484  : 	nIdx = m_nLast;

  000ad	48 8b 44 24 40	 mov	 rax, QWORD PTR this$[rsp]
  000b2	8b 40 0c	 mov	 eax, DWORD PTR [rax+12]
  000b5	89 44 24 20	 mov	 DWORD PTR nIdx$[rsp], eax

; 485  : 	for (i = 0; i < m_nMax; i++)

  000b9	c7 44 24 24 00
	00 00 00	 mov	 DWORD PTR i$[rsp], 0
  000c1	eb 0a		 jmp	 SHORT $LN4@push_back
$LN2@push_back:
  000c3	8b 44 24 24	 mov	 eax, DWORD PTR i$[rsp]
  000c7	ff c0		 inc	 eax
  000c9	89 44 24 24	 mov	 DWORD PTR i$[rsp], eax
$LN4@push_back:
  000cd	48 8b 44 24 40	 mov	 rax, QWORD PTR this$[rsp]
  000d2	8b 40 14	 mov	 eax, DWORD PTR [rax+20]
  000d5	39 44 24 24	 cmp	 DWORD PTR i$[rsp], eax
  000d9	7d 3a		 jge	 SHORT $LN3@push_back

; 486  : 	{
; 487  : 		if (nIdx >= m_nMax) nIdx = 0;

  000db	48 8b 44 24 40	 mov	 rax, QWORD PTR this$[rsp]
  000e0	8b 40 14	 mov	 eax, DWORD PTR [rax+20]
  000e3	39 44 24 20	 cmp	 DWORD PTR nIdx$[rsp], eax
  000e7	7c 08		 jl	 SHORT $LN10@push_back
  000e9	c7 44 24 20 00
	00 00 00	 mov	 DWORD PTR nIdx$[rsp], 0
$LN10@push_back:

; 488  : 		if (!m_pArray[nIdx]) {

  000f1	48 63 44 24 20	 movsxd	 rax, DWORD PTR nIdx$[rsp]
  000f6	48 8b 4c 24 40	 mov	 rcx, QWORD PTR this$[rsp]
  000fb	48 8b 09	 mov	 rcx, QWORD PTR [rcx]
  000fe	48 83 3c c1 00	 cmp	 QWORD PTR [rcx+rax*8], 0
  00103	75 04		 jne	 SHORT $LN11@push_back

; 489  : 			goto ADD_SUCCESS;

  00105	eb 12		 jmp	 SHORT $LN12@push_back
  00107	eb 10		 jmp	 SHORT $ADD_SUCCESS$16
$LN11@push_back:

; 490  : 		}
; 491  : 		nIdx++;

  00109	8b 44 24 20	 mov	 eax, DWORD PTR nIdx$[rsp]
  0010d	ff c0		 inc	 eax
  0010f	89 44 24 20	 mov	 DWORD PTR nIdx$[rsp], eax

; 492  : 	}

  00113	eb ae		 jmp	 SHORT $LN2@push_back
$LN3@push_back:

; 493  : 	//_stprintf(m_szMessage, _T("add FAIL! m_nLast[%d] m_nCurCount[%d] m_nMax[%d]"), m_nLast, m_nUse, m_nMax);
; 494  : 	return false;

  00115	32 c0		 xor	 al, al
  00117	eb 4f		 jmp	 SHORT $LN1@push_back
$LN7@push_back:
$LN9@push_back:
$LN12@push_back:
$ADD_SUCCESS$16:

; 495  : 
; 496  : ADD_SUCCESS:
; 497  : 	m_nUse++;

  00119	48 8b 44 24 40	 mov	 rax, QWORD PTR this$[rsp]
  0011e	8b 40 08	 mov	 eax, DWORD PTR [rax+8]
  00121	ff c0		 inc	 eax
  00123	48 8b 4c 24 40	 mov	 rcx, QWORD PTR this$[rsp]
  00128	89 41 08	 mov	 DWORD PTR [rcx+8], eax

; 498  : 	m_pArray[nIdx] = Obj;

  0012b	48 63 44 24 20	 movsxd	 rax, DWORD PTR nIdx$[rsp]
  00130	48 8b 4c 24 40	 mov	 rcx, QWORD PTR this$[rsp]
  00135	48 8b 09	 mov	 rcx, QWORD PTR [rcx]
  00138	48 8b 54 24 48	 mov	 rdx, QWORD PTR Obj$[rsp]
  0013d	48 89 14 c1	 mov	 QWORD PTR [rcx+rax*8], rdx

; 499  : 	m_nLast++;

  00141	48 8b 44 24 40	 mov	 rax, QWORD PTR this$[rsp]
  00146	8b 40 0c	 mov	 eax, DWORD PTR [rax+12]
  00149	ff c0		 inc	 eax
  0014b	48 8b 4c 24 40	 mov	 rcx, QWORD PTR this$[rsp]
  00150	89 41 0c	 mov	 DWORD PTR [rcx+12], eax

; 500  : 	//_stprintf(g_szMessage, _T("CMemList::add i[%d] m_nLast[%d] m_nCurCount[%d]"), nIdx, m_nLast, m_nUse);
; 501  : 	if (pIdx) *pIdx = nIdx;

  00153	48 83 7c 24 50
	00		 cmp	 QWORD PTR pIdx$[rsp], 0
  00159	74 0b		 je	 SHORT $LN13@push_back
  0015b	48 8b 44 24 50	 mov	 rax, QWORD PTR pIdx$[rsp]
  00160	8b 4c 24 20	 mov	 ecx, DWORD PTR nIdx$[rsp]
  00164	89 08		 mov	 DWORD PTR [rax], ecx
$LN13@push_back:

; 502  : 	return true;

  00166	b0 01		 mov	 al, 1
$LN1@push_back:

; 503  : }

  00168	48 83 c4 30	 add	 rsp, 48			; 00000030H
  0016c	5f		 pop	 rdi
  0016d	c3		 ret	 0
?push_back@?$CTList@VCLogger@@@@QEAA_NPEAVCLogger@@PEAH@Z ENDP ; CTList<CLogger>::push_back
_TEXT	ENDS
; Function compile flags: /Odtp /RTCsu
; File e:\infinia-library-3.0\com\include\comtlist.h
;	COMDAT ?alloc@?$CTList@VCLogger@@@@QEAAHHW4E_ALLOC_TYPE@@@Z
_TEXT	SEGMENT
this$ = 48
nMaxCount$ = 56
type$ = 64
?alloc@?$CTList@VCLogger@@@@QEAAHHW4E_ALLOC_TYPE@@@Z PROC ; CTList<CLogger>::alloc, COMDAT

; 326  : 	int alloc(int nMaxCount, E_ALLOC_TYPE type = eAlloc_Type_new) { m_nObjAllocType = type;  m_nMax = __alloc(nMaxCount); return m_nMax; }

$LN3:
  00000	44 89 44 24 18	 mov	 DWORD PTR [rsp+24], r8d
  00005	89 54 24 10	 mov	 DWORD PTR [rsp+16], edx
  00009	48 89 4c 24 08	 mov	 QWORD PTR [rsp+8], rcx
  0000e	57		 push	 rdi
  0000f	48 83 ec 20	 sub	 rsp, 32			; 00000020H
  00013	48 8b fc	 mov	 rdi, rsp
  00016	b9 08 00 00 00	 mov	 ecx, 8
  0001b	b8 cc cc cc cc	 mov	 eax, -858993460		; ccccccccH
  00020	f3 ab		 rep stosd
  00022	48 8b 4c 24 30	 mov	 rcx, QWORD PTR [rsp+48]
  00027	48 8b 44 24 30	 mov	 rax, QWORD PTR this$[rsp]
  0002c	8b 4c 24 40	 mov	 ecx, DWORD PTR type$[rsp]
  00030	89 48 18	 mov	 DWORD PTR [rax+24], ecx
  00033	8b 54 24 38	 mov	 edx, DWORD PTR nMaxCount$[rsp]
  00037	48 8b 4c 24 30	 mov	 rcx, QWORD PTR this$[rsp]
  0003c	e8 00 00 00 00	 call	 ?__alloc@?$CTList@VCLogger@@@@AEAAHH@Z ; CTList<CLogger>::__alloc
  00041	48 8b 4c 24 30	 mov	 rcx, QWORD PTR this$[rsp]
  00046	89 41 14	 mov	 DWORD PTR [rcx+20], eax
  00049	48 8b 44 24 30	 mov	 rax, QWORD PTR this$[rsp]
  0004e	8b 40 14	 mov	 eax, DWORD PTR [rax+20]
  00051	48 83 c4 20	 add	 rsp, 32			; 00000020H
  00055	5f		 pop	 rdi
  00056	c3		 ret	 0
?alloc@?$CTList@VCLogger@@@@QEAAHHW4E_ALLOC_TYPE@@@Z ENDP ; CTList<CLogger>::alloc
_TEXT	ENDS
; Function compile flags: /Odtp /RTCsu
; File e:\infinia-library-3.0\com\include\comtlist.h
;	COMDAT ??1?$CTList@VCLogger@@@@QEAA@XZ
_TEXT	SEGMENT
idx$4 = 36
p$5 = 56
$T6 = 72
$T7 = 80
$T8 = 88
$T9 = 96
$T10 = 104
tv77 = 112
tv82 = 120
tv95 = 128
__$ArrayPad$ = 136
this$ = 160
??1?$CTList@VCLogger@@@@QEAA@XZ PROC			; CTList<CLogger>::~CTList<CLogger>, COMDAT

; 376  : {

$LN20:
  00000	48 89 4c 24 08	 mov	 QWORD PTR [rsp+8], rcx
  00005	57		 push	 rdi
  00006	48 81 ec 90 00
	00 00		 sub	 rsp, 144		; 00000090H
  0000d	48 8b fc	 mov	 rdi, rsp
  00010	b9 24 00 00 00	 mov	 ecx, 36			; 00000024H
  00015	b8 cc cc cc cc	 mov	 eax, -858993460		; ccccccccH
  0001a	f3 ab		 rep stosd
  0001c	48 8b 8c 24 a0
	00 00 00	 mov	 rcx, QWORD PTR [rsp+160]
  00024	48 c7 44 24 68
	fe ff ff ff	 mov	 QWORD PTR $T10[rsp], -2
  0002d	48 8b 05 00 00
	00 00		 mov	 rax, QWORD PTR __security_cookie
  00034	48 33 c4	 xor	 rax, rsp
  00037	48 89 84 24 88
	00 00 00	 mov	 QWORD PTR __$ArrayPad$[rsp], rax

; 377  : 	if (!m_pArray) return;

  0003f	48 8b 84 24 a0
	00 00 00	 mov	 rax, QWORD PTR this$[rsp]
  00047	48 83 38 00	 cmp	 QWORD PTR [rax], 0
  0004b	75 05		 jne	 SHORT $LN6@CTList
  0004d	e9 81 01 00 00	 jmp	 $LN1@CTList
$LN6@CTList:

; 378  : 
; 379  : 	if (ISABLETODELETE(m_nObjAllocType)) {

  00052	48 8b 84 24 a0
	00 00 00	 mov	 rax, QWORD PTR this$[rsp]
  0005a	8b 48 18	 mov	 ecx, DWORD PTR [rax+24]
  0005d	e8 00 00 00 00	 call	 ?ISABLETODELETE@@YA_NW4E_ALLOC_TYPE@@@Z ; ISABLETODELETE
  00062	90		 npad	 1
  00063	0f b6 c0	 movzx	 eax, al
  00066	85 c0		 test	 eax, eax
  00068	0f 84 36 01 00
	00		 je	 $LN7@CTList

; 380  : 		int idx = 0;

  0006e	c7 44 24 24 00
	00 00 00	 mov	 DWORD PTR idx$4[rsp], 0

; 381  : 		T *p = getNext(&idx);

  00076	48 8d 54 24 24	 lea	 rdx, QWORD PTR idx$4[rsp]
  0007b	48 8b 8c 24 a0
	00 00 00	 mov	 rcx, QWORD PTR this$[rsp]
  00083	e8 00 00 00 00	 call	 ?getNext@?$CTList@VCLogger@@@@QEAAPEAVCLogger@@PEAH@Z ; CTList<CLogger>::getNext
  00088	90		 npad	 1
  00089	48 89 44 24 38	 mov	 QWORD PTR p$5[rsp], rax
$LN2@CTList:

; 382  : 		while (p) {

  0008e	48 83 7c 24 38
	00		 cmp	 QWORD PTR p$5[rsp], 0
  00094	0f 84 0a 01 00
	00		 je	 $LN7@CTList

; 383  : 			idx++;

  0009a	8b 44 24 24	 mov	 eax, DWORD PTR idx$4[rsp]
  0009e	ff c0		 inc	 eax
  000a0	89 44 24 24	 mov	 DWORD PTR idx$4[rsp], eax

; 384  : 			switch (m_nObjAllocType) {

  000a4	48 8b 84 24 a0
	00 00 00	 mov	 rax, QWORD PTR this$[rsp]
  000ac	8b 40 18	 mov	 eax, DWORD PTR [rax+24]
  000af	89 44 24 70	 mov	 DWORD PTR tv77[rsp], eax
  000b3	83 7c 24 70 02	 cmp	 DWORD PTR tv77[rsp], 2
  000b8	74 1a		 je	 SHORT $LN8@CTList
  000ba	83 7c 24 70 03	 cmp	 DWORD PTR tv77[rsp], 3
  000bf	74 51		 je	 SHORT $LN9@CTList
  000c1	83 7c 24 70 04	 cmp	 DWORD PTR tv77[rsp], 4
  000c6	74 58		 je	 SHORT $LN10@CTList
  000c8	83 7c 24 70 05	 cmp	 DWORD PTR tv77[rsp], 5
  000cd	74 76		 je	 SHORT $LN11@CTList
  000cf	e9 b3 00 00 00	 jmp	 $LN4@CTList
$LN8@CTList:

; 385  : 				case eAlloc_Type_new		:	delete p; break;

  000d4	48 8b 44 24 38	 mov	 rax, QWORD PTR p$5[rsp]
  000d9	48 89 44 24 50	 mov	 QWORD PTR $T7[rsp], rax
  000de	48 8b 44 24 50	 mov	 rax, QWORD PTR $T7[rsp]
  000e3	48 89 44 24 48	 mov	 QWORD PTR $T6[rsp], rax
  000e8	48 83 7c 24 48
	00		 cmp	 QWORD PTR $T6[rsp], 0
  000ee	74 17		 je	 SHORT $LN16@CTList
  000f0	ba 01 00 00 00	 mov	 edx, 1
  000f5	48 8b 4c 24 48	 mov	 rcx, QWORD PTR $T6[rsp]
  000fa	e8 00 00 00 00	 call	 ??_GCLogger@@QEAAPEAXI@Z
  000ff	90		 npad	 1
  00100	48 89 44 24 78	 mov	 QWORD PTR tv82[rsp], rax
  00105	eb 09		 jmp	 SHORT $LN17@CTList
$LN16@CTList:
  00107	48 c7 44 24 78
	00 00 00 00	 mov	 QWORD PTR tv82[rsp], 0
$LN17@CTList:
  00110	eb 75		 jmp	 SHORT $LN4@CTList
$LN9@CTList:

; 386  : 				case eAlloc_Type_alloc		:	free(p); break;

  00112	48 8b 4c 24 38	 mov	 rcx, QWORD PTR p$5[rsp]
  00117	ff 15 00 00 00
	00		 call	 QWORD PTR __imp_free
  0011d	90		 npad	 1
  0011e	eb 67		 jmp	 SHORT $LN4@CTList
$LN10@CTList:

; 387  : 				case eAlloc_Type_BufPool	:	gs_pMMgr->delBuf((char *)p, STRING_SIZE((TCHAR *)p)); break;

  00120	48 8b 4c 24 38	 mov	 rcx, QWORD PTR p$5[rsp]
  00125	e8 00 00 00 00	 call	 strlen
  0012a	90		 npad	 1
  0012b	48 ff c0	 inc	 rax
  0012e	44 8b c0	 mov	 r8d, eax
  00131	48 8b 54 24 38	 mov	 rdx, QWORD PTR p$5[rsp]
  00136	48 8b 0d 00 00
	00 00		 mov	 rcx, QWORD PTR ?gs_pMMgr@@3PEAVCMemManager@@EA ; gs_pMMgr
  0013d	e8 00 00 00 00	 call	 ?delBuf@CMemManager@@QEAAXPEADH@Z ; CMemManager::delBuf
  00142	90		 npad	 1
  00143	eb 42		 jmp	 SHORT $LN4@CTList
$LN11@CTList:

; 388  : 				case eAlloc_Type_newArray	:	delete[] p; break;

  00145	48 8b 44 24 38	 mov	 rax, QWORD PTR p$5[rsp]
  0014a	48 89 44 24 60	 mov	 QWORD PTR $T9[rsp], rax
  0014f	48 8b 44 24 60	 mov	 rax, QWORD PTR $T9[rsp]
  00154	48 89 44 24 58	 mov	 QWORD PTR $T8[rsp], rax
  00159	48 83 7c 24 58
	00		 cmp	 QWORD PTR $T8[rsp], 0
  0015f	74 1a		 je	 SHORT $LN18@CTList
  00161	ba 03 00 00 00	 mov	 edx, 3
  00166	48 8b 4c 24 58	 mov	 rcx, QWORD PTR $T8[rsp]
  0016b	e8 00 00 00 00	 call	 ??_ECLogger@@QEAAPEAXI@Z
  00170	90		 npad	 1
  00171	48 89 84 24 80
	00 00 00	 mov	 QWORD PTR tv95[rsp], rax
  00179	eb 0c		 jmp	 SHORT $LN4@CTList
$LN18@CTList:
  0017b	48 c7 84 24 80
	00 00 00 00 00
	00 00		 mov	 QWORD PTR tv95[rsp], 0
$LN4@CTList:

; 389  : 				case eAlloc_Type_none		:	break;
; 390  : 				case eAlloc_Type_MemPool	:	break;
; 391  : 			}
; 392  : 			p = getNext(&idx);

  00187	48 8d 54 24 24	 lea	 rdx, QWORD PTR idx$4[rsp]
  0018c	48 8b 8c 24 a0
	00 00 00	 mov	 rcx, QWORD PTR this$[rsp]
  00194	e8 00 00 00 00	 call	 ?getNext@?$CTList@VCLogger@@@@QEAAPEAVCLogger@@PEAH@Z ; CTList<CLogger>::getNext
  00199	90		 npad	 1
  0019a	48 89 44 24 38	 mov	 QWORD PTR p$5[rsp], rax

; 393  : 		}

  0019f	e9 ea fe ff ff	 jmp	 $LN2@CTList
$LN7@CTList:

; 394  : 	}
; 395  : 
; 396  : 	if (m_pArray)	free(m_pArray);

  001a4	48 8b 84 24 a0
	00 00 00	 mov	 rax, QWORD PTR this$[rsp]
  001ac	48 83 38 00	 cmp	 QWORD PTR [rax], 0
  001b0	74 12		 je	 SHORT $LN14@CTList
  001b2	48 8b 84 24 a0
	00 00 00	 mov	 rax, QWORD PTR this$[rsp]
  001ba	48 8b 08	 mov	 rcx, QWORD PTR [rax]
  001bd	ff 15 00 00 00
	00		 call	 QWORD PTR __imp_free
  001c3	90		 npad	 1
$LN14@CTList:

; 397  : 	m_pArray = 0;

  001c4	48 8b 84 24 a0
	00 00 00	 mov	 rax, QWORD PTR this$[rsp]
  001cc	48 c7 00 00 00
	00 00		 mov	 QWORD PTR [rax], 0
$LN1@CTList:

; 398  : }

  001d3	48 8b cc	 mov	 rcx, rsp
  001d6	48 8d 15 00 00
	00 00		 lea	 rdx, OFFSET FLAT:??1?$CTList@VCLogger@@@@QEAA@XZ$rtcFrameData
  001dd	e8 00 00 00 00	 call	 _RTC_CheckStackVars
  001e2	90		 npad	 1
  001e3	48 8b 8c 24 88
	00 00 00	 mov	 rcx, QWORD PTR __$ArrayPad$[rsp]
  001eb	48 33 cc	 xor	 rcx, rsp
  001ee	e8 00 00 00 00	 call	 __security_check_cookie
  001f3	90		 npad	 1
  001f4	48 81 c4 90 00
	00 00		 add	 rsp, 144		; 00000090H
  001fb	5f		 pop	 rdi
  001fc	c3		 ret	 0
??1?$CTList@VCLogger@@@@QEAA@XZ ENDP			; CTList<CLogger>::~CTList<CLogger>
_TEXT	ENDS
; Function compile flags: /Odtp /RTCsu
; File e:\infinia-library-3.0\com\include\comtlist.h
;	COMDAT ??0?$CTList@VCLogger@@@@QEAA@XZ
_TEXT	SEGMENT
this$ = 16
??0?$CTList@VCLogger@@@@QEAA@XZ PROC			; CTList<CLogger>::CTList<CLogger>, COMDAT

; 365  : {

$LN3:
  00000	48 89 4c 24 08	 mov	 QWORD PTR [rsp+8], rcx
  00005	57		 push	 rdi

; 366  : 	m_pArray = NULL;

  00006	48 8b 44 24 10	 mov	 rax, QWORD PTR this$[rsp]
  0000b	48 c7 00 00 00
	00 00		 mov	 QWORD PTR [rax], 0

; 367  : 	m_nUse = 0;

  00012	48 8b 44 24 10	 mov	 rax, QWORD PTR this$[rsp]
  00017	c7 40 08 00 00
	00 00		 mov	 DWORD PTR [rax+8], 0

; 368  : 	m_nLast = 0;

  0001e	48 8b 44 24 10	 mov	 rax, QWORD PTR this$[rsp]
  00023	c7 40 0c 00 00
	00 00		 mov	 DWORD PTR [rax+12], 0

; 369  : 	m_nDelIdx = 0;

  0002a	48 8b 44 24 10	 mov	 rax, QWORD PTR this$[rsp]
  0002f	c7 40 10 00 00
	00 00		 mov	 DWORD PTR [rax+16], 0

; 370  : 	m_nMax = 0;

  00036	48 8b 44 24 10	 mov	 rax, QWORD PTR this$[rsp]
  0003b	c7 40 14 00 00
	00 00		 mov	 DWORD PTR [rax+20], 0

; 371  : 	m_nObjAllocType = eAlloc_Type_none;

  00042	48 8b 44 24 10	 mov	 rax, QWORD PTR this$[rsp]
  00047	c7 40 18 00 00
	00 00		 mov	 DWORD PTR [rax+24], 0

; 372  : }

  0004e	48 8b 44 24 10	 mov	 rax, QWORD PTR this$[rsp]
  00053	5f		 pop	 rdi
  00054	c3		 ret	 0
??0?$CTList@VCLogger@@@@QEAA@XZ ENDP			; CTList<CLogger>::CTList<CLogger>
_TEXT	ENDS
; Function compile flags: /Odtp /RTCsu
;	COMDAT ??_G?$CMemPool@USTEvent@@@@QEAAPEAXI@Z
_TEXT	SEGMENT
this$ = 48
__flags$ = 56
??_G?$CMemPool@USTEvent@@@@QEAAPEAXI@Z PROC		; CMemPool<STEvent>::`scalar deleting destructor', COMDAT
$LN4:
  00000	89 54 24 10	 mov	 DWORD PTR [rsp+16], edx
  00004	48 89 4c 24 08	 mov	 QWORD PTR [rsp+8], rcx
  00009	57		 push	 rdi
  0000a	48 83 ec 20	 sub	 rsp, 32			; 00000020H
  0000e	48 8b fc	 mov	 rdi, rsp
  00011	b9 08 00 00 00	 mov	 ecx, 8
  00016	b8 cc cc cc cc	 mov	 eax, -858993460		; ccccccccH
  0001b	f3 ab		 rep stosd
  0001d	48 8b 4c 24 30	 mov	 rcx, QWORD PTR [rsp+48]
  00022	48 8b 4c 24 30	 mov	 rcx, QWORD PTR this$[rsp]
  00027	e8 00 00 00 00	 call	 ??1?$CMemPool@USTEvent@@@@QEAA@XZ ; CMemPool<STEvent>::~CMemPool<STEvent>
  0002c	8b 44 24 38	 mov	 eax, DWORD PTR __flags$[rsp]
  00030	83 e0 01	 and	 eax, 1
  00033	85 c0		 test	 eax, eax
  00035	74 0f		 je	 SHORT $LN2@scalar
  00037	ba 28 00 00 00	 mov	 edx, 40			; 00000028H
  0003c	48 8b 4c 24 30	 mov	 rcx, QWORD PTR this$[rsp]
  00041	e8 00 00 00 00	 call	 ??3@YAXPEAX_K@Z		; operator delete
$LN2@scalar:
  00046	48 8b 44 24 30	 mov	 rax, QWORD PTR this$[rsp]
  0004b	48 83 c4 20	 add	 rsp, 32			; 00000020H
  0004f	5f		 pop	 rdi
  00050	c3		 ret	 0
??_G?$CMemPool@USTEvent@@@@QEAAPEAXI@Z ENDP		; CMemPool<STEvent>::`scalar deleting destructor'
_TEXT	ENDS
; Function compile flags: /Odtp /RTCsu
;	COMDAT ?__autoclassinit2@?$CMemPool@USTEvent@@@@QEAAX_K@Z
_TEXT	SEGMENT
this$ = 16
classSize$ = 24
?__autoclassinit2@?$CMemPool@USTEvent@@@@QEAAX_K@Z PROC	; CMemPool<STEvent>::__autoclassinit2, COMDAT
$LN3:
  00000	48 89 54 24 10	 mov	 QWORD PTR [rsp+16], rdx
  00005	48 89 4c 24 08	 mov	 QWORD PTR [rsp+8], rcx
  0000a	57		 push	 rdi
  0000b	48 8b 7c 24 10	 mov	 rdi, QWORD PTR this$[rsp]
  00010	33 c0		 xor	 eax, eax
  00012	48 8b 4c 24 18	 mov	 rcx, QWORD PTR classSize$[rsp]
  00017	f3 aa		 rep stosb
  00019	5f		 pop	 rdi
  0001a	c3		 ret	 0
?__autoclassinit2@?$CMemPool@USTEvent@@@@QEAAX_K@Z ENDP	; CMemPool<STEvent>::__autoclassinit2
_TEXT	ENDS
; Function compile flags: /Odtp /RTCsu
; File e:\infinia-library-3.0\com\include\commempool.h
;	COMDAT ?delMem@?$CMemPool@USTEvent@@@@QEAA_NPEAUSTEvent@@@Z
_TEXT	SEGMENT
nIdx$ = 32
$T1 = 40
tv82 = 48
tv86 = 56
this$ = 80
pUsedMem$ = 88
?delMem@?$CMemPool@USTEvent@@@@QEAA_NPEAUSTEvent@@@Z PROC ; CMemPool<STEvent>::delMem, COMDAT

; 207  : {

$LN10:
  00000	48 89 54 24 10	 mov	 QWORD PTR [rsp+16], rdx
  00005	48 89 4c 24 08	 mov	 QWORD PTR [rsp+8], rcx
  0000a	57		 push	 rdi
  0000b	48 83 ec 40	 sub	 rsp, 64			; 00000040H
  0000f	48 8b fc	 mov	 rdi, rsp
  00012	b9 10 00 00 00	 mov	 ecx, 16
  00017	b8 cc cc cc cc	 mov	 eax, -858993460		; ccccccccH
  0001c	f3 ab		 rep stosd
  0001e	48 8b 4c 24 50	 mov	 rcx, QWORD PTR [rsp+80]

; 208  : 	int nIdx = int(pUsedMem - m_pChunk);

  00023	48 8b 44 24 50	 mov	 rax, QWORD PTR this$[rsp]
  00028	48 8b 40 20	 mov	 rax, QWORD PTR [rax+32]
  0002c	48 8b 4c 24 58	 mov	 rcx, QWORD PTR pUsedMem$[rsp]
  00031	48 2b c8	 sub	 rcx, rax
  00034	48 8b c1	 mov	 rax, rcx
  00037	48 c1 f8 05	 sar	 rax, 5
  0003b	89 44 24 20	 mov	 DWORD PTR nIdx$[rsp], eax

; 209  : 
; 210  : 	if (ISINCLUDE(nIdx, m_nAllocCount)) {

  0003f	48 8b 44 24 50	 mov	 rax, QWORD PTR this$[rsp]
  00044	8b 50 14	 mov	 edx, DWORD PTR [rax+20]
  00047	8b 4c 24 20	 mov	 ecx, DWORD PTR nIdx$[rsp]
  0004b	e8 00 00 00 00	 call	 ?ISINCLUDE@@YA_NHH@Z	; ISINCLUDE
  00050	0f b6 c0	 movzx	 eax, al
  00053	85 c0		 test	 eax, eax
  00055	74 2e		 je	 SHORT $LN4@delMem

; 211  : 		m_nFlagArray[nIdx].init();

  00057	48 63 44 24 20	 movsxd	 rax, DWORD PTR nIdx$[rsp]
  0005c	48 8b 4c 24 50	 mov	 rcx, QWORD PTR this$[rsp]
  00061	48 8b 09	 mov	 rcx, QWORD PTR [rcx]
  00064	48 8d 04 c1	 lea	 rax, QWORD PTR [rcx+rax*8]
  00068	48 8b c8	 mov	 rcx, rax
  0006b	e8 00 00 00 00	 call	 ?init@win64_atomic@win32@common@@QEAAXXZ ; common::win32::win64_atomic::init

; 212  : 		m_nUseCnt.atomic_decrement();

  00070	48 8b 44 24 50	 mov	 rax, QWORD PTR this$[rsp]
  00075	48 83 c0 08	 add	 rax, 8
  00079	48 8b c8	 mov	 rcx, rax
  0007c	e8 00 00 00 00	 call	 ?atomic_decrement@win64_atomic@win32@common@@QEAA_JXZ ; common::win32::win64_atomic::atomic_decrement

; 213  : 		return true;

  00081	b0 01		 mov	 al, 1
  00083	eb 71		 jmp	 SHORT $LN1@delMem
$LN4@delMem:

; 214  : 	}
; 215  : 	switch (m_nObjAllocType) {

  00085	48 8b 44 24 50	 mov	 rax, QWORD PTR this$[rsp]
  0008a	8b 40 18	 mov	 eax, DWORD PTR [rax+24]
  0008d	89 44 24 30	 mov	 DWORD PTR tv82[rsp], eax
  00091	83 7c 24 30 02	 cmp	 DWORD PTR tv82[rsp], 2
  00096	74 10		 je	 SHORT $LN5@delMem
  00098	83 7c 24 30 03	 cmp	 DWORD PTR tv82[rsp], 3
  0009d	74 4a		 je	 SHORT $LN6@delMem
  0009f	83 7c 24 30 05	 cmp	 DWORD PTR tv82[rsp], 5
  000a4	74 02		 je	 SHORT $LN5@delMem
  000a6	eb 4c		 jmp	 SHORT $LN2@delMem
$LN5@delMem:

; 216  : 	case eAlloc_Type_new:
; 217  : 	case eAlloc_Type_newArray:	delete pUsedMem; break;

  000a8	48 8b 44 24 58	 mov	 rax, QWORD PTR pUsedMem$[rsp]
  000ad	48 89 44 24 28	 mov	 QWORD PTR $T1[rsp], rax
  000b2	ba 20 00 00 00	 mov	 edx, 32			; 00000020H
  000b7	48 8b 4c 24 28	 mov	 rcx, QWORD PTR $T1[rsp]
  000bc	e8 00 00 00 00	 call	 ??3@YAXPEAX_K@Z		; operator delete
  000c1	48 83 7c 24 28
	00		 cmp	 QWORD PTR $T1[rsp], 0
  000c7	75 0b		 jne	 SHORT $LN8@delMem
  000c9	48 c7 44 24 38
	00 00 00 00	 mov	 QWORD PTR tv86[rsp], 0
  000d2	eb 13		 jmp	 SHORT $LN9@delMem
$LN8@delMem:
  000d4	48 c7 44 24 58
	23 81 00 00	 mov	 QWORD PTR pUsedMem$[rsp], 33059 ; 00008123H
  000dd	48 8b 44 24 58	 mov	 rax, QWORD PTR pUsedMem$[rsp]
  000e2	48 89 44 24 38	 mov	 QWORD PTR tv86[rsp], rax
$LN9@delMem:
  000e7	eb 0b		 jmp	 SHORT $LN2@delMem
$LN6@delMem:

; 218  : 	case eAlloc_Type_alloc:	free(pUsedMem); break;

  000e9	48 8b 4c 24 58	 mov	 rcx, QWORD PTR pUsedMem$[rsp]
  000ee	ff 15 00 00 00
	00		 call	 QWORD PTR __imp_free
$LN2@delMem:

; 219  : 	}
; 220  : 	return false;

  000f4	32 c0		 xor	 al, al
$LN1@delMem:

; 221  : }

  000f6	48 83 c4 40	 add	 rsp, 64			; 00000040H
  000fa	5f		 pop	 rdi
  000fb	c3		 ret	 0
?delMem@?$CMemPool@USTEvent@@@@QEAA_NPEAUSTEvent@@@Z ENDP ; CMemPool<STEvent>::delMem
_TEXT	ENDS
; Function compile flags: /Odtp /RTCsu
; File e:\infinia-library-3.0\com\include\commempool.h
;	COMDAT ?alloc@?$CMemPool@USTEvent@@@@QEAAHHW4E_ALLOC_TYPE@@@Z
_TEXT	SEGMENT
$T1 = 48
$T2 = 56
$T3 = 64
$T4 = 72
$T5 = 80
$T6 = 88
$T7 = 96
tv93 = 104
tv132 = 112
tv138 = 120
tv167 = 128
this$ = 160
nMaxCount$ = 168
Alloc_Type$ = 176
?alloc@?$CMemPool@USTEvent@@@@QEAAHHW4E_ALLOC_TYPE@@@Z PROC ; CMemPool<STEvent>::alloc, COMDAT

; 95   : {

$LN15:
  00000	44 89 44 24 18	 mov	 DWORD PTR [rsp+24], r8d
  00005	89 54 24 10	 mov	 DWORD PTR [rsp+16], edx
  00009	48 89 4c 24 08	 mov	 QWORD PTR [rsp+8], rcx
  0000e	57		 push	 rdi
  0000f	48 81 ec 90 00
	00 00		 sub	 rsp, 144		; 00000090H
  00016	48 8b fc	 mov	 rdi, rsp
  00019	b9 24 00 00 00	 mov	 ecx, 36			; 00000024H
  0001e	b8 cc cc cc cc	 mov	 eax, -858993460		; ccccccccH
  00023	f3 ab		 rep stosd
  00025	48 8b 8c 24 a0
	00 00 00	 mov	 rcx, QWORD PTR [rsp+160]
  0002d	48 c7 44 24 60
	fe ff ff ff	 mov	 QWORD PTR $T7[rsp], -2

; 96   : 	m_nFlagArray = new (std::nothrow) atomic_nr[nMaxCount];

  00036	48 63 84 24 a8
	00 00 00	 movsxd	 rax, DWORD PTR nMaxCount$[rsp]
  0003e	48 89 44 24 30	 mov	 QWORD PTR $T1[rsp], rax
  00043	b8 08 00 00 00	 mov	 eax, 8
  00048	48 f7 64 24 30	 mul	 QWORD PTR $T1[rsp]
  0004d	48 c7 c1 ff ff
	ff ff		 mov	 rcx, -1
  00054	48 0f 40 c1	 cmovo	 rax, rcx
  00058	48 83 c0 08	 add	 rax, 8
  0005c	48 c7 c1 ff ff
	ff ff		 mov	 rcx, -1
  00063	48 0f 42 c1	 cmovb	 rax, rcx
  00067	48 8d 15 00 00
	00 00		 lea	 rdx, OFFSET FLAT:?nothrow@std@@3Unothrow_t@1@B ; std::nothrow
  0006e	48 8b c8	 mov	 rcx, rax
  00071	e8 00 00 00 00	 call	 ??_U@YAPEAX_KAEBUnothrow_t@std@@@Z ; operator new[]
  00076	48 89 44 24 40	 mov	 QWORD PTR $T3[rsp], rax
  0007b	48 83 7c 24 40
	00		 cmp	 QWORD PTR $T3[rsp], 0
  00081	74 4b		 je	 SHORT $LN10@alloc
  00083	48 8b 44 24 40	 mov	 rax, QWORD PTR $T3[rsp]
  00088	48 8b 4c 24 30	 mov	 rcx, QWORD PTR $T1[rsp]
  0008d	48 89 08	 mov	 QWORD PTR [rax], rcx
  00090	48 8b 44 24 40	 mov	 rax, QWORD PTR $T3[rsp]
  00095	48 83 c0 08	 add	 rax, 8
  00099	48 8d 0d 00 00
	00 00		 lea	 rcx, OFFSET FLAT:??1win64_atomic@win32@common@@QEAA@XZ ; common::win32::win64_atomic::~win64_atomic
  000a0	48 89 4c 24 20	 mov	 QWORD PTR [rsp+32], rcx
  000a5	4c 8d 0d 00 00
	00 00		 lea	 r9, OFFSET FLAT:??0win64_atomic@win32@common@@QEAA@XZ ; common::win32::win64_atomic::win64_atomic
  000ac	4c 8b 44 24 30	 mov	 r8, QWORD PTR $T1[rsp]
  000b1	ba 08 00 00 00	 mov	 edx, 8
  000b6	48 8b c8	 mov	 rcx, rax
  000b9	e8 00 00 00 00	 call	 ??_L@YAXPEAX_K1P6AX0@Z2@Z
  000be	48 8b 44 24 40	 mov	 rax, QWORD PTR $T3[rsp]
  000c3	48 83 c0 08	 add	 rax, 8
  000c7	48 89 44 24 68	 mov	 QWORD PTR tv93[rsp], rax
  000cc	eb 09		 jmp	 SHORT $LN11@alloc
$LN10@alloc:
  000ce	48 c7 44 24 68
	00 00 00 00	 mov	 QWORD PTR tv93[rsp], 0
$LN11@alloc:
  000d7	48 8b 44 24 68	 mov	 rax, QWORD PTR tv93[rsp]
  000dc	48 89 44 24 38	 mov	 QWORD PTR $T2[rsp], rax
  000e1	48 8b 84 24 a0
	00 00 00	 mov	 rax, QWORD PTR this$[rsp]
  000e9	48 8b 4c 24 38	 mov	 rcx, QWORD PTR $T2[rsp]
  000ee	48 89 08	 mov	 QWORD PTR [rax], rcx

; 97   : 	
; 98   : 	if(!m_nFlagArray) {

  000f1	48 8b 84 24 a0
	00 00 00	 mov	 rax, QWORD PTR this$[rsp]
  000f9	48 83 38 00	 cmp	 QWORD PTR [rax], 0
  000fd	75 22		 jne	 SHORT $LN4@alloc

; 99   : 		_stprintf(g_szMessage, _T("atomic_nr[%d] is NULL"), nMaxCount);

  000ff	44 8b 84 24 a8
	00 00 00	 mov	 r8d, DWORD PTR nMaxCount$[rsp]
  00107	48 8d 15 00 00
	00 00		 lea	 rdx, OFFSET FLAT:$SG47275
  0010e	48 8d 0d 00 00
	00 00		 lea	 rcx, OFFSET FLAT:?g_szMessage@@3PADA ; g_szMessage
  00115	e8 00 00 00 00	 call	 sprintf

; 100  : 		return 0;

  0011a	33 c0		 xor	 eax, eax
  0011c	e9 4e 01 00 00	 jmp	 $LN1@alloc
$LN4@alloc:

; 101  : 	}
; 102  : 
; 103  : 	m_nObjAllocType = Alloc_Type;

  00121	48 8b 84 24 a0
	00 00 00	 mov	 rax, QWORD PTR this$[rsp]
  00129	8b 8c 24 b0 00
	00 00		 mov	 ecx, DWORD PTR Alloc_Type$[rsp]
  00130	89 48 18	 mov	 DWORD PTR [rax+24], ecx

; 104  : 
; 105  : 	switch (m_nObjAllocType) {

  00133	48 8b 84 24 a0
	00 00 00	 mov	 rax, QWORD PTR this$[rsp]
  0013b	8b 40 18	 mov	 eax, DWORD PTR [rax+24]
  0013e	89 44 24 70	 mov	 DWORD PTR tv132[rsp], eax
  00142	83 7c 24 70 02	 cmp	 DWORD PTR tv132[rsp], 2
  00147	74 10		 je	 SHORT $LN5@alloc
  00149	83 7c 24 70 03	 cmp	 DWORD PTR tv132[rsp], 3
  0014e	74 55		 je	 SHORT $LN6@alloc
  00150	83 7c 24 70 05	 cmp	 DWORD PTR tv132[rsp], 5
  00155	74 02		 je	 SHORT $LN5@alloc
  00157	eb 6e		 jmp	 SHORT $LN2@alloc
$LN5@alloc:

; 106  : 	case eAlloc_Type_new		:
; 107  : 	case eAlloc_Type_newArray	:	m_pChunk = new (std::nothrow) MEMTYPE[nMaxCount]; break;

  00159	48 63 84 24 a8
	00 00 00	 movsxd	 rax, DWORD PTR nMaxCount$[rsp]
  00161	48 89 44 24 78	 mov	 QWORD PTR tv138[rsp], rax
  00166	b8 20 00 00 00	 mov	 eax, 32			; 00000020H
  0016b	48 8b 4c 24 78	 mov	 rcx, QWORD PTR tv138[rsp]
  00170	48 f7 e1	 mul	 rcx
  00173	48 c7 c1 ff ff
	ff ff		 mov	 rcx, -1
  0017a	48 0f 40 c1	 cmovo	 rax, rcx
  0017e	48 8d 15 00 00
	00 00		 lea	 rdx, OFFSET FLAT:?nothrow@std@@3Unothrow_t@1@B ; std::nothrow
  00185	48 8b c8	 mov	 rcx, rax
  00188	e8 00 00 00 00	 call	 ??_U@YAPEAX_KAEBUnothrow_t@std@@@Z ; operator new[]
  0018d	48 89 44 24 48	 mov	 QWORD PTR $T4[rsp], rax
  00192	48 8b 84 24 a0
	00 00 00	 mov	 rax, QWORD PTR this$[rsp]
  0019a	48 8b 4c 24 48	 mov	 rcx, QWORD PTR $T4[rsp]
  0019f	48 89 48 20	 mov	 QWORD PTR [rax+32], rcx
  001a3	eb 22		 jmp	 SHORT $LN2@alloc
$LN6@alloc:

; 108  : 	case eAlloc_Type_alloc		:	m_pChunk = (MEMTYPE *)calloc(nMaxCount, sizeof(MEMTYPE)); break;

  001a5	48 63 84 24 a8
	00 00 00	 movsxd	 rax, DWORD PTR nMaxCount$[rsp]
  001ad	ba 20 00 00 00	 mov	 edx, 32			; 00000020H
  001b2	48 8b c8	 mov	 rcx, rax
  001b5	ff 15 00 00 00
	00		 call	 QWORD PTR __imp_calloc
  001bb	48 8b 8c 24 a0
	00 00 00	 mov	 rcx, QWORD PTR this$[rsp]
  001c3	48 89 41 20	 mov	 QWORD PTR [rcx+32], rax
$LN2@alloc:

; 109  : 	default: break;
; 110  : 	}
; 111  : 
; 112  : 
; 113  :     if(!m_pChunk) {

  001c7	48 8b 84 24 a0
	00 00 00	 mov	 rax, QWORD PTR this$[rsp]
  001cf	48 83 78 20 00	 cmp	 QWORD PTR [rax+32], 0
  001d4	75 75		 jne	 SHORT $LN8@alloc

; 114  : 		_stprintf(g_szMessage, _T("m_pChunk is NULL [%d]"), nMaxCount);

  001d6	44 8b 84 24 a8
	00 00 00	 mov	 r8d, DWORD PTR nMaxCount$[rsp]
  001de	48 8d 15 00 00
	00 00		 lea	 rdx, OFFSET FLAT:$SG47280
  001e5	48 8d 0d 00 00
	00 00		 lea	 rcx, OFFSET FLAT:?g_szMessage@@3PADA ; g_szMessage
  001ec	e8 00 00 00 00	 call	 sprintf

; 115  : 		delete[] m_nFlagArray;

  001f1	48 8b 84 24 a0
	00 00 00	 mov	 rax, QWORD PTR this$[rsp]
  001f9	48 8b 00	 mov	 rax, QWORD PTR [rax]
  001fc	48 89 44 24 58	 mov	 QWORD PTR $T6[rsp], rax
  00201	48 8b 44 24 58	 mov	 rax, QWORD PTR $T6[rsp]
  00206	48 89 44 24 50	 mov	 QWORD PTR $T5[rsp], rax
  0020b	48 83 7c 24 50
	00		 cmp	 QWORD PTR $T5[rsp], 0
  00211	74 19		 je	 SHORT $LN12@alloc
  00213	ba 03 00 00 00	 mov	 edx, 3
  00218	48 8b 4c 24 50	 mov	 rcx, QWORD PTR $T5[rsp]
  0021d	e8 00 00 00 00	 call	 ??_Ewin64_atomic@win32@common@@QEAAPEAXI@Z
  00222	48 89 84 24 80
	00 00 00	 mov	 QWORD PTR tv167[rsp], rax
  0022a	eb 0c		 jmp	 SHORT $LN13@alloc
$LN12@alloc:
  0022c	48 c7 84 24 80
	00 00 00 00 00
	00 00		 mov	 QWORD PTR tv167[rsp], 0
$LN13@alloc:

; 116  : 		m_nFlagArray = NULL;

  00238	48 8b 84 24 a0
	00 00 00	 mov	 rax, QWORD PTR this$[rsp]
  00240	48 c7 00 00 00
	00 00		 mov	 QWORD PTR [rax], 0

; 117  : 		return 0;

  00247	33 c0		 xor	 eax, eax
  00249	eb 24		 jmp	 SHORT $LN1@alloc
$LN8@alloc:

; 118  :     }
; 119  : 
; 120  :     m_nAllocCount   = nMaxCount;

  0024b	48 8b 84 24 a0
	00 00 00	 mov	 rax, QWORD PTR this$[rsp]
  00253	8b 8c 24 a8 00
	00 00		 mov	 ecx, DWORD PTR nMaxCount$[rsp]
  0025a	89 48 14	 mov	 DWORD PTR [rax+20], ecx

; 121  : 	clear();

  0025d	48 8b 8c 24 a0
	00 00 00	 mov	 rcx, QWORD PTR this$[rsp]
  00265	e8 00 00 00 00	 call	 ?clear@?$CMemPool@USTEvent@@@@QEAAXXZ ; CMemPool<STEvent>::clear

; 122  : 	//_stprintf(m_szMessage, _T("mem allock list m_nAllocCount[%d]"), m_nAllocCount);
; 123  : 	return 1;

  0026a	b8 01 00 00 00	 mov	 eax, 1
$LN1@alloc:

; 124  : }

  0026f	48 81 c4 90 00
	00 00		 add	 rsp, 144		; 00000090H
  00276	5f		 pop	 rdi
  00277	c3		 ret	 0
?alloc@?$CMemPool@USTEvent@@@@QEAAHHW4E_ALLOC_TYPE@@@Z ENDP ; CMemPool<STEvent>::alloc
_TEXT	ENDS
;	COMDAT text$x
text$x	SEGMENT
$T1 = 48
$T2 = 56
$T3 = 64
$T4 = 72
$T5 = 80
$T6 = 88
$T7 = 96
tv93 = 104
tv132 = 112
tv138 = 120
tv167 = 128
this$ = 160
nMaxCount$ = 168
Alloc_Type$ = 176
?dtor$0@?0??alloc@?$CMemPool@USTEvent@@@@QEAAHHW4E_ALLOC_TYPE@@@Z@4HA PROC ; `CMemPool<STEvent>::alloc'::`1'::dtor$0
  00000	48 89 4c 24 08	 mov	 QWORD PTR [rsp+8], rcx
  00005	48 89 54 24 10	 mov	 QWORD PTR [rsp+16], rdx
  0000a	55		 push	 rbp
  0000b	57		 push	 rdi
  0000c	48 83 ec 28	 sub	 rsp, 40			; 00000028H
  00010	48 8b ea	 mov	 rbp, rdx
  00013	48 8d 15 00 00
	00 00		 lea	 rdx, OFFSET FLAT:?nothrow@std@@3Unothrow_t@1@B ; std::nothrow
  0001a	48 8b 4d 40	 mov	 rcx, QWORD PTR $T3[rbp]
  0001e	e8 00 00 00 00	 call	 ??_V@YAXPEAXAEBUnothrow_t@std@@@Z ; operator delete[]
  00023	48 83 c4 28	 add	 rsp, 40			; 00000028H
  00027	5f		 pop	 rdi
  00028	5d		 pop	 rbp
  00029	c3		 ret	 0
?dtor$0@?0??alloc@?$CMemPool@USTEvent@@@@QEAAHHW4E_ALLOC_TYPE@@@Z@4HA ENDP ; `CMemPool<STEvent>::alloc'::`1'::dtor$0
text$x	ENDS
; Function compile flags: /Odtp /RTCsu
;	COMDAT text$x
text$x	SEGMENT
$T1 = 48
$T2 = 56
$T3 = 64
$T4 = 72
$T5 = 80
$T6 = 88
$T7 = 96
tv93 = 104
tv132 = 112
tv138 = 120
tv167 = 128
this$ = 160
nMaxCount$ = 168
Alloc_Type$ = 176
?dtor$0@?0??alloc@?$CMemPool@USTEvent@@@@QEAAHHW4E_ALLOC_TYPE@@@Z@4HA PROC ; `CMemPool<STEvent>::alloc'::`1'::dtor$0
  00000	48 89 4c 24 08	 mov	 QWORD PTR [rsp+8], rcx
  00005	48 89 54 24 10	 mov	 QWORD PTR [rsp+16], rdx
  0000a	55		 push	 rbp
  0000b	57		 push	 rdi
  0000c	48 83 ec 28	 sub	 rsp, 40			; 00000028H
  00010	48 8b ea	 mov	 rbp, rdx
  00013	48 8d 15 00 00
	00 00		 lea	 rdx, OFFSET FLAT:?nothrow@std@@3Unothrow_t@1@B ; std::nothrow
  0001a	48 8b 4d 40	 mov	 rcx, QWORD PTR $T3[rbp]
  0001e	e8 00 00 00 00	 call	 ??_V@YAXPEAXAEBUnothrow_t@std@@@Z ; operator delete[]
  00023	48 83 c4 28	 add	 rsp, 40			; 00000028H
  00027	5f		 pop	 rdi
  00028	5d		 pop	 rbp
  00029	c3		 ret	 0
?dtor$0@?0??alloc@?$CMemPool@USTEvent@@@@QEAAHHW4E_ALLOC_TYPE@@@Z@4HA ENDP ; `CMemPool<STEvent>::alloc'::`1'::dtor$0
text$x	ENDS
; Function compile flags: /Odtp /RTCsu
; File e:\infinia-library-3.0\com\include\commempool.h
;	COMDAT ?clear@?$CMemPool@USTEvent@@@@QEAAXXZ
_TEXT	SEGMENT
i$ = 32
this$ = 64
?clear@?$CMemPool@USTEvent@@@@QEAAXXZ PROC		; CMemPool<STEvent>::clear, COMDAT

; 130  : {

$LN6:
  00000	48 89 4c 24 08	 mov	 QWORD PTR [rsp+8], rcx
  00005	57		 push	 rdi
  00006	48 83 ec 30	 sub	 rsp, 48			; 00000030H
  0000a	48 8b fc	 mov	 rdi, rsp
  0000d	b9 0c 00 00 00	 mov	 ecx, 12
  00012	b8 cc cc cc cc	 mov	 eax, -858993460		; ccccccccH
  00017	f3 ab		 rep stosd
  00019	48 8b 4c 24 40	 mov	 rcx, QWORD PTR [rsp+64]

; 131  : 	int i;
; 132  : 	m_nUseCnt.init();

  0001e	48 8b 44 24 40	 mov	 rax, QWORD PTR this$[rsp]
  00023	48 83 c0 08	 add	 rax, 8
  00027	48 8b c8	 mov	 rcx, rax
  0002a	e8 00 00 00 00	 call	 ?init@win64_atomic@win32@common@@QEAAXXZ ; common::win32::win64_atomic::init

; 133  : 	m_nLastCount = 0;

  0002f	48 8b 44 24 40	 mov	 rax, QWORD PTR this$[rsp]
  00034	c7 40 10 00 00
	00 00		 mov	 DWORD PTR [rax+16], 0

; 134  : 	for(i = 0; i < m_nAllocCount; i++)

  0003b	c7 44 24 20 00
	00 00 00	 mov	 DWORD PTR i$[rsp], 0
  00043	eb 0a		 jmp	 SHORT $LN4@clear
$LN2@clear:
  00045	8b 44 24 20	 mov	 eax, DWORD PTR i$[rsp]
  00049	ff c0		 inc	 eax
  0004b	89 44 24 20	 mov	 DWORD PTR i$[rsp], eax
$LN4@clear:
  0004f	48 8b 44 24 40	 mov	 rax, QWORD PTR this$[rsp]
  00054	8b 40 14	 mov	 eax, DWORD PTR [rax+20]
  00057	39 44 24 20	 cmp	 DWORD PTR i$[rsp], eax
  0005b	7d 1b		 jge	 SHORT $LN3@clear

; 135  : 	{
; 136  : 		m_nFlagArray[i].init();

  0005d	48 63 44 24 20	 movsxd	 rax, DWORD PTR i$[rsp]
  00062	48 8b 4c 24 40	 mov	 rcx, QWORD PTR this$[rsp]
  00067	48 8b 09	 mov	 rcx, QWORD PTR [rcx]
  0006a	48 8d 04 c1	 lea	 rax, QWORD PTR [rcx+rax*8]
  0006e	48 8b c8	 mov	 rcx, rax
  00071	e8 00 00 00 00	 call	 ?init@win64_atomic@win32@common@@QEAAXXZ ; common::win32::win64_atomic::init

; 137  : 	}

  00076	eb cd		 jmp	 SHORT $LN2@clear
$LN3@clear:

; 138  : }

  00078	48 83 c4 30	 add	 rsp, 48			; 00000030H
  0007c	5f		 pop	 rdi
  0007d	c3		 ret	 0
?clear@?$CMemPool@USTEvent@@@@QEAAXXZ ENDP		; CMemPool<STEvent>::clear
_TEXT	ENDS
; Function compile flags: /Odtp /RTCsu
; File e:\infinia-library-3.0\com\include\commempool.h
;	COMDAT ??1?$CMemPool@USTEvent@@@@QEAA@XZ
_TEXT	SEGMENT
$T1 = 32
$T2 = 40
$T3 = 48
tv73 = 56
tv78 = 64
this$ = 96
??1?$CMemPool@USTEvent@@@@QEAA@XZ PROC			; CMemPool<STEvent>::~CMemPool<STEvent>, COMDAT

; 75   : {

$LN11:
  00000	48 89 4c 24 08	 mov	 QWORD PTR [rsp+8], rcx
  00005	57		 push	 rdi
  00006	48 83 ec 50	 sub	 rsp, 80			; 00000050H
  0000a	48 8b fc	 mov	 rdi, rsp
  0000d	b9 14 00 00 00	 mov	 ecx, 20
  00012	b8 cc cc cc cc	 mov	 eax, -858993460		; ccccccccH
  00017	f3 ab		 rep stosd
  00019	48 8b 4c 24 60	 mov	 rcx, QWORD PTR [rsp+96]

; 76   : 	if (m_nFlagArray) {

  0001e	48 8b 44 24 60	 mov	 rax, QWORD PTR this$[rsp]
  00023	48 83 38 00	 cmp	 QWORD PTR [rax], 0
  00027	74 4a		 je	 SHORT $LN4@CMemPool

; 77   : 		delete[] m_nFlagArray;

  00029	48 8b 44 24 60	 mov	 rax, QWORD PTR this$[rsp]
  0002e	48 8b 00	 mov	 rax, QWORD PTR [rax]
  00031	48 89 44 24 28	 mov	 QWORD PTR $T2[rsp], rax
  00036	48 8b 44 24 28	 mov	 rax, QWORD PTR $T2[rsp]
  0003b	48 89 44 24 20	 mov	 QWORD PTR $T1[rsp], rax
  00040	48 83 7c 24 20
	00		 cmp	 QWORD PTR $T1[rsp], 0
  00046	74 16		 je	 SHORT $LN9@CMemPool
  00048	ba 03 00 00 00	 mov	 edx, 3
  0004d	48 8b 4c 24 20	 mov	 rcx, QWORD PTR $T1[rsp]
  00052	e8 00 00 00 00	 call	 ??_Ewin64_atomic@win32@common@@QEAAPEAXI@Z
  00057	48 89 44 24 38	 mov	 QWORD PTR tv73[rsp], rax
  0005c	eb 09		 jmp	 SHORT $LN10@CMemPool
$LN9@CMemPool:
  0005e	48 c7 44 24 38
	00 00 00 00	 mov	 QWORD PTR tv73[rsp], 0
$LN10@CMemPool:

; 78   : 		m_nFlagArray = NULL;

  00067	48 8b 44 24 60	 mov	 rax, QWORD PTR this$[rsp]
  0006c	48 c7 00 00 00
	00 00		 mov	 QWORD PTR [rax], 0
$LN4@CMemPool:

; 79   : 	}
; 80   : 	
; 81   : 	if(m_pChunk) {

  00073	48 8b 44 24 60	 mov	 rax, QWORD PTR this$[rsp]
  00078	48 83 78 20 00	 cmp	 QWORD PTR [rax+32], 0
  0007d	74 59		 je	 SHORT $LN5@CMemPool

; 82   : 		switch (m_nObjAllocType) {

  0007f	48 8b 44 24 60	 mov	 rax, QWORD PTR this$[rsp]
  00084	8b 40 18	 mov	 eax, DWORD PTR [rax+24]
  00087	89 44 24 40	 mov	 DWORD PTR tv78[rsp], eax
  0008b	83 7c 24 40 02	 cmp	 DWORD PTR tv78[rsp], 2
  00090	74 10		 je	 SHORT $LN6@CMemPool
  00092	83 7c 24 40 03	 cmp	 DWORD PTR tv78[rsp], 3
  00097	74 23		 je	 SHORT $LN7@CMemPool
  00099	83 7c 24 40 05	 cmp	 DWORD PTR tv78[rsp], 5
  0009e	74 02		 je	 SHORT $LN6@CMemPool
  000a0	eb 29		 jmp	 SHORT $LN2@CMemPool
$LN6@CMemPool:

; 83   : 		case eAlloc_Type_new:		
; 84   : 		case eAlloc_Type_newArray:	delete[] m_pChunk; break;

  000a2	48 8b 44 24 60	 mov	 rax, QWORD PTR this$[rsp]
  000a7	48 8b 40 20	 mov	 rax, QWORD PTR [rax+32]
  000ab	48 89 44 24 30	 mov	 QWORD PTR $T3[rsp], rax
  000b0	48 8b 4c 24 30	 mov	 rcx, QWORD PTR $T3[rsp]
  000b5	e8 00 00 00 00	 call	 ??_V@YAXPEAX@Z		; operator delete[]
  000ba	eb 0f		 jmp	 SHORT $LN2@CMemPool
$LN7@CMemPool:

; 85   : 		case eAlloc_Type_alloc:		free(m_pChunk); break;

  000bc	48 8b 44 24 60	 mov	 rax, QWORD PTR this$[rsp]
  000c1	48 8b 48 20	 mov	 rcx, QWORD PTR [rax+32]
  000c5	ff 15 00 00 00
	00		 call	 QWORD PTR __imp_free
$LN2@CMemPool:

; 86   : 		}
; 87   : 		
; 88   : 		m_pChunk = NULL;

  000cb	48 8b 44 24 60	 mov	 rax, QWORD PTR this$[rsp]
  000d0	48 c7 40 20 00
	00 00 00	 mov	 QWORD PTR [rax+32], 0
$LN5@CMemPool:

; 89   : 	}
; 90   : 
; 91   : }

  000d8	48 8b 44 24 60	 mov	 rax, QWORD PTR this$[rsp]
  000dd	48 83 c0 08	 add	 rax, 8
  000e1	48 8b c8	 mov	 rcx, rax
  000e4	e8 00 00 00 00	 call	 ??1win64_atomic@win32@common@@QEAA@XZ ; common::win32::win64_atomic::~win64_atomic
  000e9	48 83 c4 50	 add	 rsp, 80			; 00000050H
  000ed	5f		 pop	 rdi
  000ee	c3		 ret	 0
??1?$CMemPool@USTEvent@@@@QEAA@XZ ENDP			; CMemPool<STEvent>::~CMemPool<STEvent>
_TEXT	ENDS
; Function compile flags: /Odtp /RTCsu
; File e:\infinia-library-3.0\com\include\commempool.h
;	COMDAT ??0?$CMemPool@USTEvent@@@@QEAA@XZ
_TEXT	SEGMENT
this$ = 48
??0?$CMemPool@USTEvent@@@@QEAA@XZ PROC			; CMemPool<STEvent>::CMemPool<STEvent>, COMDAT

; 64   : {

$LN4:
  00000	48 89 4c 24 08	 mov	 QWORD PTR [rsp+8], rcx
  00005	57		 push	 rdi
  00006	48 83 ec 20	 sub	 rsp, 32			; 00000020H
  0000a	48 8b fc	 mov	 rdi, rsp
  0000d	b9 08 00 00 00	 mov	 ecx, 8
  00012	b8 cc cc cc cc	 mov	 eax, -858993460		; ccccccccH
  00017	f3 ab		 rep stosd
  00019	48 8b 4c 24 30	 mov	 rcx, QWORD PTR [rsp+48]
  0001e	48 8b 44 24 30	 mov	 rax, QWORD PTR this$[rsp]
  00023	48 83 c0 08	 add	 rax, 8
  00027	48 8b c8	 mov	 rcx, rax
  0002a	e8 00 00 00 00	 call	 ??0win64_atomic@win32@common@@QEAA@XZ ; common::win32::win64_atomic::win64_atomic

; 65   : 	m_nAllocCount = 0;

  0002f	48 8b 44 24 30	 mov	 rax, QWORD PTR this$[rsp]
  00034	c7 40 14 00 00
	00 00		 mov	 DWORD PTR [rax+20], 0

; 66   : 	m_nLastCount = 0;

  0003b	48 8b 44 24 30	 mov	 rax, QWORD PTR this$[rsp]
  00040	c7 40 10 00 00
	00 00		 mov	 DWORD PTR [rax+16], 0

; 67   : 	//memset(m_szMessage, 0 ,LEN_MEM_MESSAGE);
; 68   : 	m_pChunk = NULL;

  00047	48 8b 44 24 30	 mov	 rax, QWORD PTR this$[rsp]
  0004c	48 c7 40 20 00
	00 00 00	 mov	 QWORD PTR [rax+32], 0

; 69   : 	m_nFlagArray = NULL;

  00054	48 8b 44 24 30	 mov	 rax, QWORD PTR this$[rsp]
  00059	48 c7 00 00 00
	00 00		 mov	 QWORD PTR [rax], 0

; 70   : 	m_nObjAllocType = eAlloc_Type_none;

  00060	48 8b 44 24 30	 mov	 rax, QWORD PTR this$[rsp]
  00065	c7 40 18 00 00
	00 00		 mov	 DWORD PTR [rax+24], 0

; 71   : }

  0006c	48 8b 44 24 30	 mov	 rax, QWORD PTR this$[rsp]
  00071	48 83 c4 20	 add	 rsp, 32			; 00000020H
  00075	5f		 pop	 rdi
  00076	c3		 ret	 0
??0?$CMemPool@USTEvent@@@@QEAA@XZ ENDP			; CMemPool<STEvent>::CMemPool<STEvent>
_TEXT	ENDS
; Function compile flags: /Odtp /RTCsu
;	COMDAT ??_G?$CMemPool@USTIntervalInfo@@@@QEAAPEAXI@Z
_TEXT	SEGMENT
this$ = 48
__flags$ = 56
??_G?$CMemPool@USTIntervalInfo@@@@QEAAPEAXI@Z PROC	; CMemPool<STIntervalInfo>::`scalar deleting destructor', COMDAT
$LN4:
  00000	89 54 24 10	 mov	 DWORD PTR [rsp+16], edx
  00004	48 89 4c 24 08	 mov	 QWORD PTR [rsp+8], rcx
  00009	57		 push	 rdi
  0000a	48 83 ec 20	 sub	 rsp, 32			; 00000020H
  0000e	48 8b fc	 mov	 rdi, rsp
  00011	b9 08 00 00 00	 mov	 ecx, 8
  00016	b8 cc cc cc cc	 mov	 eax, -858993460		; ccccccccH
  0001b	f3 ab		 rep stosd
  0001d	48 8b 4c 24 30	 mov	 rcx, QWORD PTR [rsp+48]
  00022	48 8b 4c 24 30	 mov	 rcx, QWORD PTR this$[rsp]
  00027	e8 00 00 00 00	 call	 ??1?$CMemPool@USTIntervalInfo@@@@QEAA@XZ ; CMemPool<STIntervalInfo>::~CMemPool<STIntervalInfo>
  0002c	8b 44 24 38	 mov	 eax, DWORD PTR __flags$[rsp]
  00030	83 e0 01	 and	 eax, 1
  00033	85 c0		 test	 eax, eax
  00035	74 0f		 je	 SHORT $LN2@scalar
  00037	ba 28 00 00 00	 mov	 edx, 40			; 00000028H
  0003c	48 8b 4c 24 30	 mov	 rcx, QWORD PTR this$[rsp]
  00041	e8 00 00 00 00	 call	 ??3@YAXPEAX_K@Z		; operator delete
$LN2@scalar:
  00046	48 8b 44 24 30	 mov	 rax, QWORD PTR this$[rsp]
  0004b	48 83 c4 20	 add	 rsp, 32			; 00000020H
  0004f	5f		 pop	 rdi
  00050	c3		 ret	 0
??_G?$CMemPool@USTIntervalInfo@@@@QEAAPEAXI@Z ENDP	; CMemPool<STIntervalInfo>::`scalar deleting destructor'
_TEXT	ENDS
; Function compile flags: /Odtp /RTCsu
;	COMDAT ?__autoclassinit2@?$CMemPool@USTIntervalInfo@@@@QEAAX_K@Z
_TEXT	SEGMENT
this$ = 16
classSize$ = 24
?__autoclassinit2@?$CMemPool@USTIntervalInfo@@@@QEAAX_K@Z PROC ; CMemPool<STIntervalInfo>::__autoclassinit2, COMDAT
$LN3:
  00000	48 89 54 24 10	 mov	 QWORD PTR [rsp+16], rdx
  00005	48 89 4c 24 08	 mov	 QWORD PTR [rsp+8], rcx
  0000a	57		 push	 rdi
  0000b	48 8b 7c 24 10	 mov	 rdi, QWORD PTR this$[rsp]
  00010	33 c0		 xor	 eax, eax
  00012	48 8b 4c 24 18	 mov	 rcx, QWORD PTR classSize$[rsp]
  00017	f3 aa		 rep stosb
  00019	5f		 pop	 rdi
  0001a	c3		 ret	 0
?__autoclassinit2@?$CMemPool@USTIntervalInfo@@@@QEAAX_K@Z ENDP ; CMemPool<STIntervalInfo>::__autoclassinit2
_TEXT	ENDS
; Function compile flags: /Odtp /RTCsu
; File e:\infinia-library-3.0\com\include\commempool.h
;	COMDAT ?alloc@?$CMemPool@USTIntervalInfo@@@@QEAAHHW4E_ALLOC_TYPE@@@Z
_TEXT	SEGMENT
$T1 = 48
$T2 = 56
$T3 = 64
$T4 = 72
$T5 = 80
$T6 = 88
$T7 = 96
tv93 = 104
tv132 = 112
tv138 = 120
tv167 = 128
this$ = 160
nMaxCount$ = 168
Alloc_Type$ = 176
?alloc@?$CMemPool@USTIntervalInfo@@@@QEAAHHW4E_ALLOC_TYPE@@@Z PROC ; CMemPool<STIntervalInfo>::alloc, COMDAT

; 95   : {

$LN15:
  00000	44 89 44 24 18	 mov	 DWORD PTR [rsp+24], r8d
  00005	89 54 24 10	 mov	 DWORD PTR [rsp+16], edx
  00009	48 89 4c 24 08	 mov	 QWORD PTR [rsp+8], rcx
  0000e	57		 push	 rdi
  0000f	48 81 ec 90 00
	00 00		 sub	 rsp, 144		; 00000090H
  00016	48 8b fc	 mov	 rdi, rsp
  00019	b9 24 00 00 00	 mov	 ecx, 36			; 00000024H
  0001e	b8 cc cc cc cc	 mov	 eax, -858993460		; ccccccccH
  00023	f3 ab		 rep stosd
  00025	48 8b 8c 24 a0
	00 00 00	 mov	 rcx, QWORD PTR [rsp+160]
  0002d	48 c7 44 24 60
	fe ff ff ff	 mov	 QWORD PTR $T7[rsp], -2

; 96   : 	m_nFlagArray = new (std::nothrow) atomic_nr[nMaxCount];

  00036	48 63 84 24 a8
	00 00 00	 movsxd	 rax, DWORD PTR nMaxCount$[rsp]
  0003e	48 89 44 24 30	 mov	 QWORD PTR $T1[rsp], rax
  00043	b8 08 00 00 00	 mov	 eax, 8
  00048	48 f7 64 24 30	 mul	 QWORD PTR $T1[rsp]
  0004d	48 c7 c1 ff ff
	ff ff		 mov	 rcx, -1
  00054	48 0f 40 c1	 cmovo	 rax, rcx
  00058	48 83 c0 08	 add	 rax, 8
  0005c	48 c7 c1 ff ff
	ff ff		 mov	 rcx, -1
  00063	48 0f 42 c1	 cmovb	 rax, rcx
  00067	48 8d 15 00 00
	00 00		 lea	 rdx, OFFSET FLAT:?nothrow@std@@3Unothrow_t@1@B ; std::nothrow
  0006e	48 8b c8	 mov	 rcx, rax
  00071	e8 00 00 00 00	 call	 ??_U@YAPEAX_KAEBUnothrow_t@std@@@Z ; operator new[]
  00076	48 89 44 24 40	 mov	 QWORD PTR $T3[rsp], rax
  0007b	48 83 7c 24 40
	00		 cmp	 QWORD PTR $T3[rsp], 0
  00081	74 4b		 je	 SHORT $LN10@alloc
  00083	48 8b 44 24 40	 mov	 rax, QWORD PTR $T3[rsp]
  00088	48 8b 4c 24 30	 mov	 rcx, QWORD PTR $T1[rsp]
  0008d	48 89 08	 mov	 QWORD PTR [rax], rcx
  00090	48 8b 44 24 40	 mov	 rax, QWORD PTR $T3[rsp]
  00095	48 83 c0 08	 add	 rax, 8
  00099	48 8d 0d 00 00
	00 00		 lea	 rcx, OFFSET FLAT:??1win64_atomic@win32@common@@QEAA@XZ ; common::win32::win64_atomic::~win64_atomic
  000a0	48 89 4c 24 20	 mov	 QWORD PTR [rsp+32], rcx
  000a5	4c 8d 0d 00 00
	00 00		 lea	 r9, OFFSET FLAT:??0win64_atomic@win32@common@@QEAA@XZ ; common::win32::win64_atomic::win64_atomic
  000ac	4c 8b 44 24 30	 mov	 r8, QWORD PTR $T1[rsp]
  000b1	ba 08 00 00 00	 mov	 edx, 8
  000b6	48 8b c8	 mov	 rcx, rax
  000b9	e8 00 00 00 00	 call	 ??_L@YAXPEAX_K1P6AX0@Z2@Z
  000be	48 8b 44 24 40	 mov	 rax, QWORD PTR $T3[rsp]
  000c3	48 83 c0 08	 add	 rax, 8
  000c7	48 89 44 24 68	 mov	 QWORD PTR tv93[rsp], rax
  000cc	eb 09		 jmp	 SHORT $LN11@alloc
$LN10@alloc:
  000ce	48 c7 44 24 68
	00 00 00 00	 mov	 QWORD PTR tv93[rsp], 0
$LN11@alloc:
  000d7	48 8b 44 24 68	 mov	 rax, QWORD PTR tv93[rsp]
  000dc	48 89 44 24 38	 mov	 QWORD PTR $T2[rsp], rax
  000e1	48 8b 84 24 a0
	00 00 00	 mov	 rax, QWORD PTR this$[rsp]
  000e9	48 8b 4c 24 38	 mov	 rcx, QWORD PTR $T2[rsp]
  000ee	48 89 08	 mov	 QWORD PTR [rax], rcx

; 97   : 	
; 98   : 	if(!m_nFlagArray) {

  000f1	48 8b 84 24 a0
	00 00 00	 mov	 rax, QWORD PTR this$[rsp]
  000f9	48 83 38 00	 cmp	 QWORD PTR [rax], 0
  000fd	75 22		 jne	 SHORT $LN4@alloc

; 99   : 		_stprintf(g_szMessage, _T("atomic_nr[%d] is NULL"), nMaxCount);

  000ff	44 8b 84 24 a8
	00 00 00	 mov	 r8d, DWORD PTR nMaxCount$[rsp]
  00107	48 8d 15 00 00
	00 00		 lea	 rdx, OFFSET FLAT:$SG47199
  0010e	48 8d 0d 00 00
	00 00		 lea	 rcx, OFFSET FLAT:?g_szMessage@@3PADA ; g_szMessage
  00115	e8 00 00 00 00	 call	 sprintf

; 100  : 		return 0;

  0011a	33 c0		 xor	 eax, eax
  0011c	e9 4e 01 00 00	 jmp	 $LN1@alloc
$LN4@alloc:

; 101  : 	}
; 102  : 
; 103  : 	m_nObjAllocType = Alloc_Type;

  00121	48 8b 84 24 a0
	00 00 00	 mov	 rax, QWORD PTR this$[rsp]
  00129	8b 8c 24 b0 00
	00 00		 mov	 ecx, DWORD PTR Alloc_Type$[rsp]
  00130	89 48 18	 mov	 DWORD PTR [rax+24], ecx

; 104  : 
; 105  : 	switch (m_nObjAllocType) {

  00133	48 8b 84 24 a0
	00 00 00	 mov	 rax, QWORD PTR this$[rsp]
  0013b	8b 40 18	 mov	 eax, DWORD PTR [rax+24]
  0013e	89 44 24 70	 mov	 DWORD PTR tv132[rsp], eax
  00142	83 7c 24 70 02	 cmp	 DWORD PTR tv132[rsp], 2
  00147	74 10		 je	 SHORT $LN5@alloc
  00149	83 7c 24 70 03	 cmp	 DWORD PTR tv132[rsp], 3
  0014e	74 55		 je	 SHORT $LN6@alloc
  00150	83 7c 24 70 05	 cmp	 DWORD PTR tv132[rsp], 5
  00155	74 02		 je	 SHORT $LN5@alloc
  00157	eb 6e		 jmp	 SHORT $LN2@alloc
$LN5@alloc:

; 106  : 	case eAlloc_Type_new		:
; 107  : 	case eAlloc_Type_newArray	:	m_pChunk = new (std::nothrow) MEMTYPE[nMaxCount]; break;

  00159	48 63 84 24 a8
	00 00 00	 movsxd	 rax, DWORD PTR nMaxCount$[rsp]
  00161	48 89 44 24 78	 mov	 QWORD PTR tv138[rsp], rax
  00166	b8 28 00 00 00	 mov	 eax, 40			; 00000028H
  0016b	48 8b 4c 24 78	 mov	 rcx, QWORD PTR tv138[rsp]
  00170	48 f7 e1	 mul	 rcx
  00173	48 c7 c1 ff ff
	ff ff		 mov	 rcx, -1
  0017a	48 0f 40 c1	 cmovo	 rax, rcx
  0017e	48 8d 15 00 00
	00 00		 lea	 rdx, OFFSET FLAT:?nothrow@std@@3Unothrow_t@1@B ; std::nothrow
  00185	48 8b c8	 mov	 rcx, rax
  00188	e8 00 00 00 00	 call	 ??_U@YAPEAX_KAEBUnothrow_t@std@@@Z ; operator new[]
  0018d	48 89 44 24 48	 mov	 QWORD PTR $T4[rsp], rax
  00192	48 8b 84 24 a0
	00 00 00	 mov	 rax, QWORD PTR this$[rsp]
  0019a	48 8b 4c 24 48	 mov	 rcx, QWORD PTR $T4[rsp]
  0019f	48 89 48 20	 mov	 QWORD PTR [rax+32], rcx
  001a3	eb 22		 jmp	 SHORT $LN2@alloc
$LN6@alloc:

; 108  : 	case eAlloc_Type_alloc		:	m_pChunk = (MEMTYPE *)calloc(nMaxCount, sizeof(MEMTYPE)); break;

  001a5	48 63 84 24 a8
	00 00 00	 movsxd	 rax, DWORD PTR nMaxCount$[rsp]
  001ad	ba 28 00 00 00	 mov	 edx, 40			; 00000028H
  001b2	48 8b c8	 mov	 rcx, rax
  001b5	ff 15 00 00 00
	00		 call	 QWORD PTR __imp_calloc
  001bb	48 8b 8c 24 a0
	00 00 00	 mov	 rcx, QWORD PTR this$[rsp]
  001c3	48 89 41 20	 mov	 QWORD PTR [rcx+32], rax
$LN2@alloc:

; 109  : 	default: break;
; 110  : 	}
; 111  : 
; 112  : 
; 113  :     if(!m_pChunk) {

  001c7	48 8b 84 24 a0
	00 00 00	 mov	 rax, QWORD PTR this$[rsp]
  001cf	48 83 78 20 00	 cmp	 QWORD PTR [rax+32], 0
  001d4	75 75		 jne	 SHORT $LN8@alloc

; 114  : 		_stprintf(g_szMessage, _T("m_pChunk is NULL [%d]"), nMaxCount);

  001d6	44 8b 84 24 a8
	00 00 00	 mov	 r8d, DWORD PTR nMaxCount$[rsp]
  001de	48 8d 15 00 00
	00 00		 lea	 rdx, OFFSET FLAT:$SG47204
  001e5	48 8d 0d 00 00
	00 00		 lea	 rcx, OFFSET FLAT:?g_szMessage@@3PADA ; g_szMessage
  001ec	e8 00 00 00 00	 call	 sprintf

; 115  : 		delete[] m_nFlagArray;

  001f1	48 8b 84 24 a0
	00 00 00	 mov	 rax, QWORD PTR this$[rsp]
  001f9	48 8b 00	 mov	 rax, QWORD PTR [rax]
  001fc	48 89 44 24 58	 mov	 QWORD PTR $T6[rsp], rax
  00201	48 8b 44 24 58	 mov	 rax, QWORD PTR $T6[rsp]
  00206	48 89 44 24 50	 mov	 QWORD PTR $T5[rsp], rax
  0020b	48 83 7c 24 50
	00		 cmp	 QWORD PTR $T5[rsp], 0
  00211	74 19		 je	 SHORT $LN12@alloc
  00213	ba 03 00 00 00	 mov	 edx, 3
  00218	48 8b 4c 24 50	 mov	 rcx, QWORD PTR $T5[rsp]
  0021d	e8 00 00 00 00	 call	 ??_Ewin64_atomic@win32@common@@QEAAPEAXI@Z
  00222	48 89 84 24 80
	00 00 00	 mov	 QWORD PTR tv167[rsp], rax
  0022a	eb 0c		 jmp	 SHORT $LN13@alloc
$LN12@alloc:
  0022c	48 c7 84 24 80
	00 00 00 00 00
	00 00		 mov	 QWORD PTR tv167[rsp], 0
$LN13@alloc:

; 116  : 		m_nFlagArray = NULL;

  00238	48 8b 84 24 a0
	00 00 00	 mov	 rax, QWORD PTR this$[rsp]
  00240	48 c7 00 00 00
	00 00		 mov	 QWORD PTR [rax], 0

; 117  : 		return 0;

  00247	33 c0		 xor	 eax, eax
  00249	eb 24		 jmp	 SHORT $LN1@alloc
$LN8@alloc:

; 118  :     }
; 119  : 
; 120  :     m_nAllocCount   = nMaxCount;

  0024b	48 8b 84 24 a0
	00 00 00	 mov	 rax, QWORD PTR this$[rsp]
  00253	8b 8c 24 a8 00
	00 00		 mov	 ecx, DWORD PTR nMaxCount$[rsp]
  0025a	89 48 14	 mov	 DWORD PTR [rax+20], ecx

; 121  : 	clear();

  0025d	48 8b 8c 24 a0
	00 00 00	 mov	 rcx, QWORD PTR this$[rsp]
  00265	e8 00 00 00 00	 call	 ?clear@?$CMemPool@USTIntervalInfo@@@@QEAAXXZ ; CMemPool<STIntervalInfo>::clear

; 122  : 	//_stprintf(m_szMessage, _T("mem allock list m_nAllocCount[%d]"), m_nAllocCount);
; 123  : 	return 1;

  0026a	b8 01 00 00 00	 mov	 eax, 1
$LN1@alloc:

; 124  : }

  0026f	48 81 c4 90 00
	00 00		 add	 rsp, 144		; 00000090H
  00276	5f		 pop	 rdi
  00277	c3		 ret	 0
?alloc@?$CMemPool@USTIntervalInfo@@@@QEAAHHW4E_ALLOC_TYPE@@@Z ENDP ; CMemPool<STIntervalInfo>::alloc
_TEXT	ENDS
;	COMDAT text$x
text$x	SEGMENT
$T1 = 48
$T2 = 56
$T3 = 64
$T4 = 72
$T5 = 80
$T6 = 88
$T7 = 96
tv93 = 104
tv132 = 112
tv138 = 120
tv167 = 128
this$ = 160
nMaxCount$ = 168
Alloc_Type$ = 176
?dtor$0@?0??alloc@?$CMemPool@USTIntervalInfo@@@@QEAAHHW4E_ALLOC_TYPE@@@Z@4HA PROC ; `CMemPool<STIntervalInfo>::alloc'::`1'::dtor$0
  00000	48 89 4c 24 08	 mov	 QWORD PTR [rsp+8], rcx
  00005	48 89 54 24 10	 mov	 QWORD PTR [rsp+16], rdx
  0000a	55		 push	 rbp
  0000b	57		 push	 rdi
  0000c	48 83 ec 28	 sub	 rsp, 40			; 00000028H
  00010	48 8b ea	 mov	 rbp, rdx
  00013	48 8d 15 00 00
	00 00		 lea	 rdx, OFFSET FLAT:?nothrow@std@@3Unothrow_t@1@B ; std::nothrow
  0001a	48 8b 4d 40	 mov	 rcx, QWORD PTR $T3[rbp]
  0001e	e8 00 00 00 00	 call	 ??_V@YAXPEAXAEBUnothrow_t@std@@@Z ; operator delete[]
  00023	48 83 c4 28	 add	 rsp, 40			; 00000028H
  00027	5f		 pop	 rdi
  00028	5d		 pop	 rbp
  00029	c3		 ret	 0
?dtor$0@?0??alloc@?$CMemPool@USTIntervalInfo@@@@QEAAHHW4E_ALLOC_TYPE@@@Z@4HA ENDP ; `CMemPool<STIntervalInfo>::alloc'::`1'::dtor$0
text$x	ENDS
; Function compile flags: /Odtp /RTCsu
;	COMDAT text$x
text$x	SEGMENT
$T1 = 48
$T2 = 56
$T3 = 64
$T4 = 72
$T5 = 80
$T6 = 88
$T7 = 96
tv93 = 104
tv132 = 112
tv138 = 120
tv167 = 128
this$ = 160
nMaxCount$ = 168
Alloc_Type$ = 176
?dtor$0@?0??alloc@?$CMemPool@USTIntervalInfo@@@@QEAAHHW4E_ALLOC_TYPE@@@Z@4HA PROC ; `CMemPool<STIntervalInfo>::alloc'::`1'::dtor$0
  00000	48 89 4c 24 08	 mov	 QWORD PTR [rsp+8], rcx
  00005	48 89 54 24 10	 mov	 QWORD PTR [rsp+16], rdx
  0000a	55		 push	 rbp
  0000b	57		 push	 rdi
  0000c	48 83 ec 28	 sub	 rsp, 40			; 00000028H
  00010	48 8b ea	 mov	 rbp, rdx
  00013	48 8d 15 00 00
	00 00		 lea	 rdx, OFFSET FLAT:?nothrow@std@@3Unothrow_t@1@B ; std::nothrow
  0001a	48 8b 4d 40	 mov	 rcx, QWORD PTR $T3[rbp]
  0001e	e8 00 00 00 00	 call	 ??_V@YAXPEAXAEBUnothrow_t@std@@@Z ; operator delete[]
  00023	48 83 c4 28	 add	 rsp, 40			; 00000028H
  00027	5f		 pop	 rdi
  00028	5d		 pop	 rbp
  00029	c3		 ret	 0
?dtor$0@?0??alloc@?$CMemPool@USTIntervalInfo@@@@QEAAHHW4E_ALLOC_TYPE@@@Z@4HA ENDP ; `CMemPool<STIntervalInfo>::alloc'::`1'::dtor$0
text$x	ENDS
; Function compile flags: /Odtp /RTCsu
; File e:\infinia-library-3.0\com\include\commempool.h
;	COMDAT ?clear@?$CMemPool@USTIntervalInfo@@@@QEAAXXZ
_TEXT	SEGMENT
i$ = 32
this$ = 64
?clear@?$CMemPool@USTIntervalInfo@@@@QEAAXXZ PROC	; CMemPool<STIntervalInfo>::clear, COMDAT

; 130  : {

$LN6:
  00000	48 89 4c 24 08	 mov	 QWORD PTR [rsp+8], rcx
  00005	57		 push	 rdi
  00006	48 83 ec 30	 sub	 rsp, 48			; 00000030H
  0000a	48 8b fc	 mov	 rdi, rsp
  0000d	b9 0c 00 00 00	 mov	 ecx, 12
  00012	b8 cc cc cc cc	 mov	 eax, -858993460		; ccccccccH
  00017	f3 ab		 rep stosd
  00019	48 8b 4c 24 40	 mov	 rcx, QWORD PTR [rsp+64]

; 131  : 	int i;
; 132  : 	m_nUseCnt.init();

  0001e	48 8b 44 24 40	 mov	 rax, QWORD PTR this$[rsp]
  00023	48 83 c0 08	 add	 rax, 8
  00027	48 8b c8	 mov	 rcx, rax
  0002a	e8 00 00 00 00	 call	 ?init@win64_atomic@win32@common@@QEAAXXZ ; common::win32::win64_atomic::init

; 133  : 	m_nLastCount = 0;

  0002f	48 8b 44 24 40	 mov	 rax, QWORD PTR this$[rsp]
  00034	c7 40 10 00 00
	00 00		 mov	 DWORD PTR [rax+16], 0

; 134  : 	for(i = 0; i < m_nAllocCount; i++)

  0003b	c7 44 24 20 00
	00 00 00	 mov	 DWORD PTR i$[rsp], 0
  00043	eb 0a		 jmp	 SHORT $LN4@clear
$LN2@clear:
  00045	8b 44 24 20	 mov	 eax, DWORD PTR i$[rsp]
  00049	ff c0		 inc	 eax
  0004b	89 44 24 20	 mov	 DWORD PTR i$[rsp], eax
$LN4@clear:
  0004f	48 8b 44 24 40	 mov	 rax, QWORD PTR this$[rsp]
  00054	8b 40 14	 mov	 eax, DWORD PTR [rax+20]
  00057	39 44 24 20	 cmp	 DWORD PTR i$[rsp], eax
  0005b	7d 1b		 jge	 SHORT $LN3@clear

; 135  : 	{
; 136  : 		m_nFlagArray[i].init();

  0005d	48 63 44 24 20	 movsxd	 rax, DWORD PTR i$[rsp]
  00062	48 8b 4c 24 40	 mov	 rcx, QWORD PTR this$[rsp]
  00067	48 8b 09	 mov	 rcx, QWORD PTR [rcx]
  0006a	48 8d 04 c1	 lea	 rax, QWORD PTR [rcx+rax*8]
  0006e	48 8b c8	 mov	 rcx, rax
  00071	e8 00 00 00 00	 call	 ?init@win64_atomic@win32@common@@QEAAXXZ ; common::win32::win64_atomic::init

; 137  : 	}

  00076	eb cd		 jmp	 SHORT $LN2@clear
$LN3@clear:

; 138  : }

  00078	48 83 c4 30	 add	 rsp, 48			; 00000030H
  0007c	5f		 pop	 rdi
  0007d	c3		 ret	 0
?clear@?$CMemPool@USTIntervalInfo@@@@QEAAXXZ ENDP	; CMemPool<STIntervalInfo>::clear
_TEXT	ENDS
; Function compile flags: /Odtp /RTCsu
; File e:\infinia-library-3.0\com\include\commempool.h
;	COMDAT ??1?$CMemPool@USTIntervalInfo@@@@QEAA@XZ
_TEXT	SEGMENT
$T1 = 32
$T2 = 40
$T3 = 48
tv73 = 56
tv78 = 64
this$ = 96
??1?$CMemPool@USTIntervalInfo@@@@QEAA@XZ PROC		; CMemPool<STIntervalInfo>::~CMemPool<STIntervalInfo>, COMDAT

; 75   : {

$LN11:
  00000	48 89 4c 24 08	 mov	 QWORD PTR [rsp+8], rcx
  00005	57		 push	 rdi
  00006	48 83 ec 50	 sub	 rsp, 80			; 00000050H
  0000a	48 8b fc	 mov	 rdi, rsp
  0000d	b9 14 00 00 00	 mov	 ecx, 20
  00012	b8 cc cc cc cc	 mov	 eax, -858993460		; ccccccccH
  00017	f3 ab		 rep stosd
  00019	48 8b 4c 24 60	 mov	 rcx, QWORD PTR [rsp+96]

; 76   : 	if (m_nFlagArray) {

  0001e	48 8b 44 24 60	 mov	 rax, QWORD PTR this$[rsp]
  00023	48 83 38 00	 cmp	 QWORD PTR [rax], 0
  00027	74 4a		 je	 SHORT $LN4@CMemPool

; 77   : 		delete[] m_nFlagArray;

  00029	48 8b 44 24 60	 mov	 rax, QWORD PTR this$[rsp]
  0002e	48 8b 00	 mov	 rax, QWORD PTR [rax]
  00031	48 89 44 24 28	 mov	 QWORD PTR $T2[rsp], rax
  00036	48 8b 44 24 28	 mov	 rax, QWORD PTR $T2[rsp]
  0003b	48 89 44 24 20	 mov	 QWORD PTR $T1[rsp], rax
  00040	48 83 7c 24 20
	00		 cmp	 QWORD PTR $T1[rsp], 0
  00046	74 16		 je	 SHORT $LN9@CMemPool
  00048	ba 03 00 00 00	 mov	 edx, 3
  0004d	48 8b 4c 24 20	 mov	 rcx, QWORD PTR $T1[rsp]
  00052	e8 00 00 00 00	 call	 ??_Ewin64_atomic@win32@common@@QEAAPEAXI@Z
  00057	48 89 44 24 38	 mov	 QWORD PTR tv73[rsp], rax
  0005c	eb 09		 jmp	 SHORT $LN10@CMemPool
$LN9@CMemPool:
  0005e	48 c7 44 24 38
	00 00 00 00	 mov	 QWORD PTR tv73[rsp], 0
$LN10@CMemPool:

; 78   : 		m_nFlagArray = NULL;

  00067	48 8b 44 24 60	 mov	 rax, QWORD PTR this$[rsp]
  0006c	48 c7 00 00 00
	00 00		 mov	 QWORD PTR [rax], 0
$LN4@CMemPool:

; 79   : 	}
; 80   : 	
; 81   : 	if(m_pChunk) {

  00073	48 8b 44 24 60	 mov	 rax, QWORD PTR this$[rsp]
  00078	48 83 78 20 00	 cmp	 QWORD PTR [rax+32], 0
  0007d	74 59		 je	 SHORT $LN5@CMemPool

; 82   : 		switch (m_nObjAllocType) {

  0007f	48 8b 44 24 60	 mov	 rax, QWORD PTR this$[rsp]
  00084	8b 40 18	 mov	 eax, DWORD PTR [rax+24]
  00087	89 44 24 40	 mov	 DWORD PTR tv78[rsp], eax
  0008b	83 7c 24 40 02	 cmp	 DWORD PTR tv78[rsp], 2
  00090	74 10		 je	 SHORT $LN6@CMemPool
  00092	83 7c 24 40 03	 cmp	 DWORD PTR tv78[rsp], 3
  00097	74 23		 je	 SHORT $LN7@CMemPool
  00099	83 7c 24 40 05	 cmp	 DWORD PTR tv78[rsp], 5
  0009e	74 02		 je	 SHORT $LN6@CMemPool
  000a0	eb 29		 jmp	 SHORT $LN2@CMemPool
$LN6@CMemPool:

; 83   : 		case eAlloc_Type_new:		
; 84   : 		case eAlloc_Type_newArray:	delete[] m_pChunk; break;

  000a2	48 8b 44 24 60	 mov	 rax, QWORD PTR this$[rsp]
  000a7	48 8b 40 20	 mov	 rax, QWORD PTR [rax+32]
  000ab	48 89 44 24 30	 mov	 QWORD PTR $T3[rsp], rax
  000b0	48 8b 4c 24 30	 mov	 rcx, QWORD PTR $T3[rsp]
  000b5	e8 00 00 00 00	 call	 ??_V@YAXPEAX@Z		; operator delete[]
  000ba	eb 0f		 jmp	 SHORT $LN2@CMemPool
$LN7@CMemPool:

; 85   : 		case eAlloc_Type_alloc:		free(m_pChunk); break;

  000bc	48 8b 44 24 60	 mov	 rax, QWORD PTR this$[rsp]
  000c1	48 8b 48 20	 mov	 rcx, QWORD PTR [rax+32]
  000c5	ff 15 00 00 00
	00		 call	 QWORD PTR __imp_free
$LN2@CMemPool:

; 86   : 		}
; 87   : 		
; 88   : 		m_pChunk = NULL;

  000cb	48 8b 44 24 60	 mov	 rax, QWORD PTR this$[rsp]
  000d0	48 c7 40 20 00
	00 00 00	 mov	 QWORD PTR [rax+32], 0
$LN5@CMemPool:

; 89   : 	}
; 90   : 
; 91   : }

  000d8	48 8b 44 24 60	 mov	 rax, QWORD PTR this$[rsp]
  000dd	48 83 c0 08	 add	 rax, 8
  000e1	48 8b c8	 mov	 rcx, rax
  000e4	e8 00 00 00 00	 call	 ??1win64_atomic@win32@common@@QEAA@XZ ; common::win32::win64_atomic::~win64_atomic
  000e9	48 83 c4 50	 add	 rsp, 80			; 00000050H
  000ed	5f		 pop	 rdi
  000ee	c3		 ret	 0
??1?$CMemPool@USTIntervalInfo@@@@QEAA@XZ ENDP		; CMemPool<STIntervalInfo>::~CMemPool<STIntervalInfo>
_TEXT	ENDS
; Function compile flags: /Odtp /RTCsu
; File e:\infinia-library-3.0\com\include\commempool.h
;	COMDAT ??0?$CMemPool@USTIntervalInfo@@@@QEAA@XZ
_TEXT	SEGMENT
this$ = 48
??0?$CMemPool@USTIntervalInfo@@@@QEAA@XZ PROC		; CMemPool<STIntervalInfo>::CMemPool<STIntervalInfo>, COMDAT

; 64   : {

$LN4:
  00000	48 89 4c 24 08	 mov	 QWORD PTR [rsp+8], rcx
  00005	57		 push	 rdi
  00006	48 83 ec 20	 sub	 rsp, 32			; 00000020H
  0000a	48 8b fc	 mov	 rdi, rsp
  0000d	b9 08 00 00 00	 mov	 ecx, 8
  00012	b8 cc cc cc cc	 mov	 eax, -858993460		; ccccccccH
  00017	f3 ab		 rep stosd
  00019	48 8b 4c 24 30	 mov	 rcx, QWORD PTR [rsp+48]
  0001e	48 8b 44 24 30	 mov	 rax, QWORD PTR this$[rsp]
  00023	48 83 c0 08	 add	 rax, 8
  00027	48 8b c8	 mov	 rcx, rax
  0002a	e8 00 00 00 00	 call	 ??0win64_atomic@win32@common@@QEAA@XZ ; common::win32::win64_atomic::win64_atomic

; 65   : 	m_nAllocCount = 0;

  0002f	48 8b 44 24 30	 mov	 rax, QWORD PTR this$[rsp]
  00034	c7 40 14 00 00
	00 00		 mov	 DWORD PTR [rax+20], 0

; 66   : 	m_nLastCount = 0;

  0003b	48 8b 44 24 30	 mov	 rax, QWORD PTR this$[rsp]
  00040	c7 40 10 00 00
	00 00		 mov	 DWORD PTR [rax+16], 0

; 67   : 	//memset(m_szMessage, 0 ,LEN_MEM_MESSAGE);
; 68   : 	m_pChunk = NULL;

  00047	48 8b 44 24 30	 mov	 rax, QWORD PTR this$[rsp]
  0004c	48 c7 40 20 00
	00 00 00	 mov	 QWORD PTR [rax+32], 0

; 69   : 	m_nFlagArray = NULL;

  00054	48 8b 44 24 30	 mov	 rax, QWORD PTR this$[rsp]
  00059	48 c7 00 00 00
	00 00		 mov	 QWORD PTR [rax], 0

; 70   : 	m_nObjAllocType = eAlloc_Type_none;

  00060	48 8b 44 24 30	 mov	 rax, QWORD PTR this$[rsp]
  00065	c7 40 18 00 00
	00 00		 mov	 DWORD PTR [rax+24], 0

; 71   : }

  0006c	48 8b 44 24 30	 mov	 rax, QWORD PTR this$[rsp]
  00071	48 83 c4 20	 add	 rsp, 32			; 00000020H
  00075	5f		 pop	 rdi
  00076	c3		 ret	 0
??0?$CMemPool@USTIntervalInfo@@@@QEAA@XZ ENDP		; CMemPool<STIntervalInfo>::CMemPool<STIntervalInfo>
_TEXT	ENDS
; Function compile flags: /Odtp /RTCsu
; File e:\infinia-library-3.0\com\src\comcore.cpp
_TEXT	SEGMENT
tv64 = 32
this$ = 64
type$ = 72
eListType$ = 80
?setListAllocType@CCoreList@@QEAAXW4E_ALLOC_TYPE@@W4E_SYS_LIST_TYPE@@@Z PROC ; CCoreList::setListAllocType

; 640  : {

$LN9:
  00000	44 89 44 24 18	 mov	 DWORD PTR [rsp+24], r8d
  00005	89 54 24 10	 mov	 DWORD PTR [rsp+16], edx
  00009	48 89 4c 24 08	 mov	 QWORD PTR [rsp+8], rcx
  0000e	57		 push	 rdi
  0000f	48 83 ec 30	 sub	 rsp, 48			; 00000030H
  00013	48 8b fc	 mov	 rdi, rsp
  00016	b9 0c 00 00 00	 mov	 ecx, 12
  0001b	b8 cc cc cc cc	 mov	 eax, -858993460		; ccccccccH
  00020	f3 ab		 rep stosd
  00022	48 8b 4c 24 40	 mov	 rcx, QWORD PTR [rsp+64]

; 641  : 	switch (eListType)

  00027	8b 44 24 50	 mov	 eax, DWORD PTR eListType$[rsp]
  0002b	89 44 24 20	 mov	 DWORD PTR tv64[rsp], eax
  0002f	83 7c 24 20 01	 cmp	 DWORD PTR tv64[rsp], 1
  00034	74 17		 je	 SHORT $LN4@setListAll
  00036	83 7c 24 20 02	 cmp	 DWORD PTR tv64[rsp], 2
  0003b	74 24		 je	 SHORT $LN5@setListAll
  0003d	83 7c 24 20 03	 cmp	 DWORD PTR tv64[rsp], 3
  00042	74 31		 je	 SHORT $LN6@setListAll
  00044	83 7c 24 20 04	 cmp	 DWORD PTR tv64[rsp], 4
  00049	74 3e		 je	 SHORT $LN7@setListAll
  0004b	eb 4d		 jmp	 SHORT $LN2@setListAll
$LN4@setListAll:

; 642  : 	{
; 643  : 	case e_TYPE_THREAD: m_pThreadList->setObjAllocType(type);

  0004d	8b 54 24 48	 mov	 edx, DWORD PTR type$[rsp]
  00051	48 8b 44 24 40	 mov	 rax, QWORD PTR this$[rsp]
  00056	48 8b 48 10	 mov	 rcx, QWORD PTR [rax+16]
  0005a	e8 00 00 00 00	 call	 ?setObjAllocType@?$CTList@VCComThread@@@@QEAAXW4E_ALLOC_TYPE@@@Z ; CTList<CComThread>::setObjAllocType

; 644  : 		break;

  0005f	eb 39		 jmp	 SHORT $LN2@setListAll
$LN5@setListAll:

; 645  : 	case e_TYPE_THREADQUEUE: m_pEventThreadList->setObjAllocType(type);

  00061	8b 54 24 48	 mov	 edx, DWORD PTR type$[rsp]
  00065	48 8b 44 24 40	 mov	 rax, QWORD PTR this$[rsp]
  0006a	48 8b 48 18	 mov	 rcx, QWORD PTR [rax+24]
  0006e	e8 00 00 00 00	 call	 ?setObjAllocType@?$CTList@VCComQueueThread@@@@QEAAXW4E_ALLOC_TYPE@@@Z ; CTList<CComQueueThread>::setObjAllocType

; 646  : 		break;

  00073	eb 25		 jmp	 SHORT $LN2@setListAll
$LN6@setListAll:

; 647  : 	case e_TYPE_THREADSCHEDULER: m_pSchedulerList->setObjAllocType(type);

  00075	8b 54 24 48	 mov	 edx, DWORD PTR type$[rsp]
  00079	48 8b 44 24 40	 mov	 rax, QWORD PTR this$[rsp]
  0007e	48 8b 48 08	 mov	 rcx, QWORD PTR [rax+8]
  00082	e8 00 00 00 00	 call	 ?setObjAllocType@?$CTList@VCScheduler@@@@QEAAXW4E_ALLOC_TYPE@@@Z ; CTList<CScheduler>::setObjAllocType

; 648  : 		break;

  00087	eb 11		 jmp	 SHORT $LN2@setListAll
$LN7@setListAll:

; 649  : 	case e_TYPE_THREADWRITER: m_pWriterList->setObjAllocType(type);

  00089	8b 54 24 48	 mov	 edx, DWORD PTR type$[rsp]
  0008d	48 8b 44 24 40	 mov	 rax, QWORD PTR this$[rsp]
  00092	48 8b 08	 mov	 rcx, QWORD PTR [rax]
  00095	e8 00 00 00 00	 call	 ?setObjAllocType@?$CTList@VCSTLogger@@@@QEAAXW4E_ALLOC_TYPE@@@Z ; CTList<CSTLogger>::setObjAllocType
$LN2@setListAll:

; 650  : 		break;
; 651  : 	}
; 652  : }

  0009a	48 83 c4 30	 add	 rsp, 48			; 00000030H
  0009e	5f		 pop	 rdi
  0009f	c3		 ret	 0
?setListAllocType@CCoreList@@QEAAXW4E_ALLOC_TYPE@@W4E_SYS_LIST_TYPE@@@Z ENDP ; CCoreList::setListAllocType
_TEXT	ENDS
; Function compile flags: /Odtp /RTCsu
; File e:\infinia-library-3.0\com\src\comcore.cpp
_TEXT	SEGMENT
szErrorMsg$ = 48
$T4 = 192
$T5 = 200
$T6 = 208
$T7 = 216
$T8 = 224
tv80 = 232
tv143 = 240
__$ArrayPad$ = 248
this$ = 272
nThreadCount$ = 280
nQueuePoolCount$ = 288
?initQueueThread@CCoreList@@QEAA_NHH@Z PROC		; CCoreList::initQueueThread

; 1237 : {

$LN14:
  00000	44 89 44 24 18	 mov	 DWORD PTR [rsp+24], r8d
  00005	89 54 24 10	 mov	 DWORD PTR [rsp+16], edx
  00009	48 89 4c 24 08	 mov	 QWORD PTR [rsp+8], rcx
  0000e	57		 push	 rdi
  0000f	48 81 ec 00 01
	00 00		 sub	 rsp, 256		; 00000100H
  00016	48 8b fc	 mov	 rdi, rsp
  00019	b9 40 00 00 00	 mov	 ecx, 64			; 00000040H
  0001e	b8 cc cc cc cc	 mov	 eax, -858993460		; ccccccccH
  00023	f3 ab		 rep stosd
  00025	48 8b 8c 24 10
	01 00 00	 mov	 rcx, QWORD PTR [rsp+272]
  0002d	48 c7 84 24 e0
	00 00 00 fe ff
	ff ff		 mov	 QWORD PTR $T8[rsp], -2
  00039	48 8b 05 00 00
	00 00		 mov	 rax, QWORD PTR __security_cookie
  00040	48 33 c4	 xor	 rax, rsp
  00043	48 89 84 24 f8
	00 00 00	 mov	 QWORD PTR __$ArrayPad$[rsp], rax

; 1238 : 	char szErrorMsg[128];
; 1239 : 	if (!m_pEventThreadList) {

  0004b	48 8b 84 24 10
	01 00 00	 mov	 rax, QWORD PTR this$[rsp]
  00053	48 83 78 18 00	 cmp	 QWORD PTR [rax+24], 0
  00058	0f 85 d6 00 00
	00		 jne	 $LN2@initQueueT

; 1240 : 		m_pEventThreadList = new CTList<CComQueueThread>();

  0005e	b9 20 00 00 00	 mov	 ecx, 32			; 00000020H
  00063	e8 00 00 00 00	 call	 ??2@YAPEAX_K@Z		; operator new
  00068	48 89 84 24 c8
	00 00 00	 mov	 QWORD PTR $T5[rsp], rax
  00070	48 83 bc 24 c8
	00 00 00 00	 cmp	 QWORD PTR $T5[rsp], 0
  00079	74 29		 je	 SHORT $LN8@initQueueT
  0007b	ba 20 00 00 00	 mov	 edx, 32			; 00000020H
  00080	48 8b 8c 24 c8
	00 00 00	 mov	 rcx, QWORD PTR $T5[rsp]
  00088	e8 00 00 00 00	 call	 ?__autoclassinit2@?$CTList@VCComQueueThread@@@@QEAAX_K@Z
  0008d	48 8b 8c 24 c8
	00 00 00	 mov	 rcx, QWORD PTR $T5[rsp]
  00095	e8 00 00 00 00	 call	 ??0?$CTList@VCComQueueThread@@@@QEAA@XZ ; CTList<CComQueueThread>::CTList<CComQueueThread>
  0009a	48 89 84 24 e8
	00 00 00	 mov	 QWORD PTR tv80[rsp], rax
  000a2	eb 0c		 jmp	 SHORT $LN9@initQueueT
$LN8@initQueueT:
  000a4	48 c7 84 24 e8
	00 00 00 00 00
	00 00		 mov	 QWORD PTR tv80[rsp], 0
$LN9@initQueueT:
  000b0	48 8b 84 24 e8
	00 00 00	 mov	 rax, QWORD PTR tv80[rsp]
  000b8	48 89 84 24 c0
	00 00 00	 mov	 QWORD PTR $T4[rsp], rax
  000c0	48 8b 84 24 10
	01 00 00	 mov	 rax, QWORD PTR this$[rsp]
  000c8	48 8b 8c 24 c0
	00 00 00	 mov	 rcx, QWORD PTR $T4[rsp]
  000d0	48 89 48 18	 mov	 QWORD PTR [rax+24], rcx

; 1241 : 		if (!m_pEventThreadList->alloc(nThreadCount+LIST_ADD_COUNT, eAlloc_Type_none)) {

  000d4	8b 84 24 18 01
	00 00		 mov	 eax, DWORD PTR nThreadCount$[rsp]
  000db	83 c0 0a	 add	 eax, 10
  000de	45 33 c0	 xor	 r8d, r8d
  000e1	8b d0		 mov	 edx, eax
  000e3	48 8b 84 24 10
	01 00 00	 mov	 rax, QWORD PTR this$[rsp]
  000eb	48 8b 48 18	 mov	 rcx, QWORD PTR [rax+24]
  000ef	e8 00 00 00 00	 call	 ?alloc@?$CTList@VCComQueueThread@@@@QEAAHHW4E_ALLOC_TYPE@@@Z ; CTList<CComQueueThread>::alloc
  000f4	85 c0		 test	 eax, eax
  000f6	75 3c		 jne	 SHORT $LN2@initQueueT

; 1242 : 			sprintf(szErrorMsg, "m_pEventThreadList->alloc(%d)", nThreadCount + LIST_ADD_COUNT);

  000f8	8b 84 24 18 01
	00 00		 mov	 eax, DWORD PTR nThreadCount$[rsp]
  000ff	83 c0 0a	 add	 eax, 10
  00102	44 8b c0	 mov	 r8d, eax
  00105	48 8d 15 00 00
	00 00		 lea	 rdx, OFFSET FLAT:$SG46536
  0010c	48 8d 4c 24 30	 lea	 rcx, QWORD PTR szErrorMsg$[rsp]
  00111	e8 00 00 00 00	 call	 sprintf

; 1243 : 			comErrorPrint(szErrorMsg);

  00116	41 b8 db 04 00
	00		 mov	 r8d, 1243		; 000004dbH
  0011c	48 8d 15 00 00
	00 00		 lea	 rdx, OFFSET FLAT:$SG46537
  00123	48 8d 4c 24 30	 lea	 rcx, QWORD PTR szErrorMsg$[rsp]
  00128	e8 00 00 00 00	 call	 ?comGlobalErrorProc@@YAXPEADPEBDH@Z ; comGlobalErrorProc

; 1244 : 			return false;

  0012d	32 c0		 xor	 al, al
  0012f	e9 ef 00 00 00	 jmp	 $LN1@initQueueT
$LN2@initQueueT:

; 1245 : 		}
; 1246 : 	}
; 1247 : 	if (nQueuePoolCount)

  00134	83 bc 24 20 01
	00 00 00	 cmp	 DWORD PTR nQueuePoolCount$[rsp], 0
  0013c	0f 84 df 00 00
	00		 je	 $LN4@initQueueT

; 1248 : 	{
; 1249 : 		if (!m_pEventPool) {

  00142	48 8b 84 24 10
	01 00 00	 mov	 rax, QWORD PTR this$[rsp]
  0014a	48 83 78 28 00	 cmp	 QWORD PTR [rax+40], 0
  0014f	0f 85 cc 00 00
	00		 jne	 $LN4@initQueueT

; 1250 : 			m_pEventPool = new CMemPool<STEvent>();

  00155	b9 28 00 00 00	 mov	 ecx, 40			; 00000028H
  0015a	e8 00 00 00 00	 call	 ??2@YAPEAX_K@Z		; operator new
  0015f	48 89 84 24 d8
	00 00 00	 mov	 QWORD PTR $T7[rsp], rax
  00167	48 83 bc 24 d8
	00 00 00 00	 cmp	 QWORD PTR $T7[rsp], 0
  00170	74 29		 je	 SHORT $LN10@initQueueT
  00172	ba 28 00 00 00	 mov	 edx, 40			; 00000028H
  00177	48 8b 8c 24 d8
	00 00 00	 mov	 rcx, QWORD PTR $T7[rsp]
  0017f	e8 00 00 00 00	 call	 ?__autoclassinit2@?$CMemPool@USTEvent@@@@QEAAX_K@Z
  00184	48 8b 8c 24 d8
	00 00 00	 mov	 rcx, QWORD PTR $T7[rsp]
  0018c	e8 00 00 00 00	 call	 ??0?$CMemPool@USTEvent@@@@QEAA@XZ ; CMemPool<STEvent>::CMemPool<STEvent>
  00191	48 89 84 24 f0
	00 00 00	 mov	 QWORD PTR tv143[rsp], rax
  00199	eb 0c		 jmp	 SHORT $LN11@initQueueT
$LN10@initQueueT:
  0019b	48 c7 84 24 f0
	00 00 00 00 00
	00 00		 mov	 QWORD PTR tv143[rsp], 0
$LN11@initQueueT:
  001a7	48 8b 84 24 f0
	00 00 00	 mov	 rax, QWORD PTR tv143[rsp]
  001af	48 89 84 24 d0
	00 00 00	 mov	 QWORD PTR $T6[rsp], rax
  001b7	48 8b 84 24 10
	01 00 00	 mov	 rax, QWORD PTR this$[rsp]
  001bf	48 8b 8c 24 d0
	00 00 00	 mov	 rcx, QWORD PTR $T6[rsp]
  001c7	48 89 48 28	 mov	 QWORD PTR [rax+40], rcx

; 1251 : 			if (!m_pEventPool->alloc(nQueuePoolCount, eAlloc_Type_alloc)) {

  001cb	41 b8 03 00 00
	00		 mov	 r8d, 3
  001d1	8b 94 24 20 01
	00 00		 mov	 edx, DWORD PTR nQueuePoolCount$[rsp]
  001d8	48 8b 84 24 10
	01 00 00	 mov	 rax, QWORD PTR this$[rsp]
  001e0	48 8b 48 28	 mov	 rcx, QWORD PTR [rax+40]
  001e4	e8 00 00 00 00	 call	 ?alloc@?$CMemPool@USTEvent@@@@QEAAHHW4E_ALLOC_TYPE@@@Z ; CMemPool<STEvent>::alloc
  001e9	85 c0		 test	 eax, eax
  001eb	75 34		 jne	 SHORT $LN4@initQueueT

; 1252 : 				sprintf(szErrorMsg, "has Failed!! m_pEventPool->alloc(%d)\n", nQueuePoolCount);

  001ed	44 8b 84 24 20
	01 00 00	 mov	 r8d, DWORD PTR nQueuePoolCount$[rsp]
  001f5	48 8d 15 00 00
	00 00		 lea	 rdx, OFFSET FLAT:$SG46542
  001fc	48 8d 4c 24 30	 lea	 rcx, QWORD PTR szErrorMsg$[rsp]
  00201	e8 00 00 00 00	 call	 sprintf

; 1253 : 				comErrorPrint(szErrorMsg);

  00206	41 b8 e5 04 00
	00		 mov	 r8d, 1253		; 000004e5H
  0020c	48 8d 15 00 00
	00 00		 lea	 rdx, OFFSET FLAT:$SG46543
  00213	48 8d 4c 24 30	 lea	 rcx, QWORD PTR szErrorMsg$[rsp]
  00218	e8 00 00 00 00	 call	 ?comGlobalErrorProc@@YAXPEADPEBDH@Z ; comGlobalErrorProc

; 1254 : 				return false;

  0021d	32 c0		 xor	 al, al
  0021f	eb 02		 jmp	 SHORT $LN1@initQueueT
$LN4@initQueueT:

; 1255 : 			}
; 1256 : 		}
; 1257 : 
; 1258 : 	}
; 1259 : 	return true;

  00221	b0 01		 mov	 al, 1
$LN1@initQueueT:

; 1260 : }

  00223	48 8b f8	 mov	 rdi, rax
  00226	48 8b cc	 mov	 rcx, rsp
  00229	48 8d 15 00 00
	00 00		 lea	 rdx, OFFSET FLAT:?initQueueThread@CCoreList@@QEAA_NHH@Z$rtcFrameData
  00230	e8 00 00 00 00	 call	 _RTC_CheckStackVars
  00235	48 8b c7	 mov	 rax, rdi
  00238	48 8b 8c 24 f8
	00 00 00	 mov	 rcx, QWORD PTR __$ArrayPad$[rsp]
  00240	48 33 cc	 xor	 rcx, rsp
  00243	e8 00 00 00 00	 call	 __security_check_cookie
  00248	48 81 c4 00 01
	00 00		 add	 rsp, 256		; 00000100H
  0024f	5f		 pop	 rdi
  00250	c3		 ret	 0
?initQueueThread@CCoreList@@QEAA_NHH@Z ENDP		; CCoreList::initQueueThread
_TEXT	ENDS
text$x	SEGMENT
szErrorMsg$ = 48
$T4 = 192
$T5 = 200
$T6 = 208
$T7 = 216
$T8 = 224
tv80 = 232
tv143 = 240
__$ArrayPad$ = 248
this$ = 272
nThreadCount$ = 280
nQueuePoolCount$ = 288
?dtor$0@?0??initQueueThread@CCoreList@@QEAA_NHH@Z@4HA PROC ; `CCoreList::initQueueThread'::`1'::dtor$0
  00000	48 89 4c 24 08	 mov	 QWORD PTR [rsp+8], rcx
  00005	48 89 54 24 10	 mov	 QWORD PTR [rsp+16], rdx
  0000a	55		 push	 rbp
  0000b	57		 push	 rdi
  0000c	48 83 ec 28	 sub	 rsp, 40			; 00000028H
  00010	48 8b ea	 mov	 rbp, rdx
  00013	ba 20 00 00 00	 mov	 edx, 32			; 00000020H
  00018	48 8b 8d c8 00
	00 00		 mov	 rcx, QWORD PTR $T5[rbp]
  0001f	e8 00 00 00 00	 call	 ??3@YAXPEAX_K@Z		; operator delete
  00024	48 83 c4 28	 add	 rsp, 40			; 00000028H
  00028	5f		 pop	 rdi
  00029	5d		 pop	 rbp
  0002a	c3		 ret	 0
?dtor$0@?0??initQueueThread@CCoreList@@QEAA_NHH@Z@4HA ENDP ; `CCoreList::initQueueThread'::`1'::dtor$0
szErrorMsg$ = 48
$T4 = 192
$T5 = 200
$T6 = 208
$T7 = 216
$T8 = 224
tv80 = 232
tv143 = 240
__$ArrayPad$ = 248
this$ = 272
nThreadCount$ = 280
nQueuePoolCount$ = 288
?dtor$1@?0??initQueueThread@CCoreList@@QEAA_NHH@Z@4HA PROC ; `CCoreList::initQueueThread'::`1'::dtor$1
  0002b	48 89 4c 24 08	 mov	 QWORD PTR [rsp+8], rcx
  00030	48 89 54 24 10	 mov	 QWORD PTR [rsp+16], rdx
  00035	55		 push	 rbp
  00036	57		 push	 rdi
  00037	48 83 ec 28	 sub	 rsp, 40			; 00000028H
  0003b	48 8b ea	 mov	 rbp, rdx
  0003e	ba 28 00 00 00	 mov	 edx, 40			; 00000028H
  00043	48 8b 8d d8 00
	00 00		 mov	 rcx, QWORD PTR $T7[rbp]
  0004a	e8 00 00 00 00	 call	 ??3@YAXPEAX_K@Z		; operator delete
  0004f	48 83 c4 28	 add	 rsp, 40			; 00000028H
  00053	5f		 pop	 rdi
  00054	5d		 pop	 rbp
  00055	c3		 ret	 0
?dtor$1@?0??initQueueThread@CCoreList@@QEAA_NHH@Z@4HA ENDP ; `CCoreList::initQueueThread'::`1'::dtor$1
text$x	ENDS
; Function compile flags: /Odtp /RTCsu
text$x	SEGMENT
szErrorMsg$ = 48
$T4 = 192
$T5 = 200
$T6 = 208
$T7 = 216
$T8 = 224
tv80 = 232
tv143 = 240
__$ArrayPad$ = 248
this$ = 272
nThreadCount$ = 280
nQueuePoolCount$ = 288
?dtor$0@?0??initQueueThread@CCoreList@@QEAA_NHH@Z@4HA PROC ; `CCoreList::initQueueThread'::`1'::dtor$0
  00000	48 89 4c 24 08	 mov	 QWORD PTR [rsp+8], rcx
  00005	48 89 54 24 10	 mov	 QWORD PTR [rsp+16], rdx
  0000a	55		 push	 rbp
  0000b	57		 push	 rdi
  0000c	48 83 ec 28	 sub	 rsp, 40			; 00000028H
  00010	48 8b ea	 mov	 rbp, rdx
  00013	ba 20 00 00 00	 mov	 edx, 32			; 00000020H
  00018	48 8b 8d c8 00
	00 00		 mov	 rcx, QWORD PTR $T5[rbp]
  0001f	e8 00 00 00 00	 call	 ??3@YAXPEAX_K@Z		; operator delete
  00024	48 83 c4 28	 add	 rsp, 40			; 00000028H
  00028	5f		 pop	 rdi
  00029	5d		 pop	 rbp
  0002a	c3		 ret	 0
?dtor$0@?0??initQueueThread@CCoreList@@QEAA_NHH@Z@4HA ENDP ; `CCoreList::initQueueThread'::`1'::dtor$0
text$x	ENDS
; Function compile flags: /Odtp /RTCsu
text$x	SEGMENT
szErrorMsg$ = 48
$T4 = 192
$T5 = 200
$T6 = 208
$T7 = 216
$T8 = 224
tv80 = 232
tv143 = 240
__$ArrayPad$ = 248
this$ = 272
nThreadCount$ = 280
nQueuePoolCount$ = 288
?dtor$1@?0??initQueueThread@CCoreList@@QEAA_NHH@Z@4HA PROC ; `CCoreList::initQueueThread'::`1'::dtor$1
  0002b	48 89 4c 24 08	 mov	 QWORD PTR [rsp+8], rcx
  00030	48 89 54 24 10	 mov	 QWORD PTR [rsp+16], rdx
  00035	55		 push	 rbp
  00036	57		 push	 rdi
  00037	48 83 ec 28	 sub	 rsp, 40			; 00000028H
  0003b	48 8b ea	 mov	 rbp, rdx
  0003e	ba 28 00 00 00	 mov	 edx, 40			; 00000028H
  00043	48 8b 8d d8 00
	00 00		 mov	 rcx, QWORD PTR $T7[rbp]
  0004a	e8 00 00 00 00	 call	 ??3@YAXPEAX_K@Z		; operator delete
  0004f	48 83 c4 28	 add	 rsp, 40			; 00000028H
  00053	5f		 pop	 rdi
  00054	5d		 pop	 rbp
  00055	c3		 ret	 0
?dtor$1@?0??initQueueThread@CCoreList@@QEAA_NHH@Z@4HA ENDP ; `CCoreList::initQueueThread'::`1'::dtor$1
text$x	ENDS
; Function compile flags: /Odtp /RTCsu
; File e:\infinia-library-3.0\com\src\comcore.cpp
_TEXT	SEGMENT
szErrorMsg$ = 48
$T4 = 192
$T5 = 200
$T6 = 208
$T7 = 216
$T8 = 224
tv80 = 232
tv143 = 240
__$ArrayPad$ = 248
this$ = 272
nThreadCount$ = 280
nSchedulerPoolCount$ = 288
?initScheduler@CCoreList@@QEAA_NHH@Z PROC		; CCoreList::initScheduler

; 1213 : {

$LN14:
  00000	44 89 44 24 18	 mov	 DWORD PTR [rsp+24], r8d
  00005	89 54 24 10	 mov	 DWORD PTR [rsp+16], edx
  00009	48 89 4c 24 08	 mov	 QWORD PTR [rsp+8], rcx
  0000e	57		 push	 rdi
  0000f	48 81 ec 00 01
	00 00		 sub	 rsp, 256		; 00000100H
  00016	48 8b fc	 mov	 rdi, rsp
  00019	b9 40 00 00 00	 mov	 ecx, 64			; 00000040H
  0001e	b8 cc cc cc cc	 mov	 eax, -858993460		; ccccccccH
  00023	f3 ab		 rep stosd
  00025	48 8b 8c 24 10
	01 00 00	 mov	 rcx, QWORD PTR [rsp+272]
  0002d	48 c7 84 24 e0
	00 00 00 fe ff
	ff ff		 mov	 QWORD PTR $T8[rsp], -2
  00039	48 8b 05 00 00
	00 00		 mov	 rax, QWORD PTR __security_cookie
  00040	48 33 c4	 xor	 rax, rsp
  00043	48 89 84 24 f8
	00 00 00	 mov	 QWORD PTR __$ArrayPad$[rsp], rax

; 1214 : 	char szErrorMsg[128];
; 1215 : 	if (!m_pSchedulerList) {

  0004b	48 8b 84 24 10
	01 00 00	 mov	 rax, QWORD PTR this$[rsp]
  00053	48 83 78 08 00	 cmp	 QWORD PTR [rax+8], 0
  00058	0f 85 d6 00 00
	00		 jne	 $LN2@initSchedu

; 1216 : 		m_pSchedulerList = new CTList<CScheduler>();

  0005e	b9 20 00 00 00	 mov	 ecx, 32			; 00000020H
  00063	e8 00 00 00 00	 call	 ??2@YAPEAX_K@Z		; operator new
  00068	48 89 84 24 c8
	00 00 00	 mov	 QWORD PTR $T5[rsp], rax
  00070	48 83 bc 24 c8
	00 00 00 00	 cmp	 QWORD PTR $T5[rsp], 0
  00079	74 29		 je	 SHORT $LN8@initSchedu
  0007b	ba 20 00 00 00	 mov	 edx, 32			; 00000020H
  00080	48 8b 8c 24 c8
	00 00 00	 mov	 rcx, QWORD PTR $T5[rsp]
  00088	e8 00 00 00 00	 call	 ?__autoclassinit2@?$CTList@VCScheduler@@@@QEAAX_K@Z
  0008d	48 8b 8c 24 c8
	00 00 00	 mov	 rcx, QWORD PTR $T5[rsp]
  00095	e8 00 00 00 00	 call	 ??0?$CTList@VCScheduler@@@@QEAA@XZ ; CTList<CScheduler>::CTList<CScheduler>
  0009a	48 89 84 24 e8
	00 00 00	 mov	 QWORD PTR tv80[rsp], rax
  000a2	eb 0c		 jmp	 SHORT $LN9@initSchedu
$LN8@initSchedu:
  000a4	48 c7 84 24 e8
	00 00 00 00 00
	00 00		 mov	 QWORD PTR tv80[rsp], 0
$LN9@initSchedu:
  000b0	48 8b 84 24 e8
	00 00 00	 mov	 rax, QWORD PTR tv80[rsp]
  000b8	48 89 84 24 c0
	00 00 00	 mov	 QWORD PTR $T4[rsp], rax
  000c0	48 8b 84 24 10
	01 00 00	 mov	 rax, QWORD PTR this$[rsp]
  000c8	48 8b 8c 24 c0
	00 00 00	 mov	 rcx, QWORD PTR $T4[rsp]
  000d0	48 89 48 08	 mov	 QWORD PTR [rax+8], rcx

; 1217 : 		if (!m_pSchedulerList->alloc(nThreadCount + LIST_ADD_COUNT, eAlloc_Type_none)) {

  000d4	8b 84 24 18 01
	00 00		 mov	 eax, DWORD PTR nThreadCount$[rsp]
  000db	83 c0 0a	 add	 eax, 10
  000de	45 33 c0	 xor	 r8d, r8d
  000e1	8b d0		 mov	 edx, eax
  000e3	48 8b 84 24 10
	01 00 00	 mov	 rax, QWORD PTR this$[rsp]
  000eb	48 8b 48 08	 mov	 rcx, QWORD PTR [rax+8]
  000ef	e8 00 00 00 00	 call	 ?alloc@?$CTList@VCScheduler@@@@QEAAHHW4E_ALLOC_TYPE@@@Z ; CTList<CScheduler>::alloc
  000f4	85 c0		 test	 eax, eax
  000f6	75 3c		 jne	 SHORT $LN2@initSchedu

; 1218 : 			sprintf(szErrorMsg, "m_pSchedulerList->alloc(%d)", nThreadCount + LIST_ADD_COUNT);

  000f8	8b 84 24 18 01
	00 00		 mov	 eax, DWORD PTR nThreadCount$[rsp]
  000ff	83 c0 0a	 add	 eax, 10
  00102	44 8b c0	 mov	 r8d, eax
  00105	48 8d 15 00 00
	00 00		 lea	 rdx, OFFSET FLAT:$SG46505
  0010c	48 8d 4c 24 30	 lea	 rcx, QWORD PTR szErrorMsg$[rsp]
  00111	e8 00 00 00 00	 call	 sprintf

; 1219 : 			comErrorPrint(szErrorMsg);

  00116	41 b8 c3 04 00
	00		 mov	 r8d, 1219		; 000004c3H
  0011c	48 8d 15 00 00
	00 00		 lea	 rdx, OFFSET FLAT:$SG46506
  00123	48 8d 4c 24 30	 lea	 rcx, QWORD PTR szErrorMsg$[rsp]
  00128	e8 00 00 00 00	 call	 ?comGlobalErrorProc@@YAXPEADPEBDH@Z ; comGlobalErrorProc

; 1220 : 			return false;

  0012d	32 c0		 xor	 al, al
  0012f	e9 ef 00 00 00	 jmp	 $LN1@initSchedu
$LN2@initSchedu:

; 1221 : 		}
; 1222 : 	}
; 1223 : 	if (nSchedulerPoolCount) {

  00134	83 bc 24 20 01
	00 00 00	 cmp	 DWORD PTR nSchedulerPoolCount$[rsp], 0
  0013c	0f 84 df 00 00
	00		 je	 $LN4@initSchedu

; 1224 : 		if (!m_pIntervalPool) {

  00142	48 8b 84 24 10
	01 00 00	 mov	 rax, QWORD PTR this$[rsp]
  0014a	48 83 78 20 00	 cmp	 QWORD PTR [rax+32], 0
  0014f	0f 85 cc 00 00
	00		 jne	 $LN4@initSchedu

; 1225 : 			m_pIntervalPool = new CMemPool<STIntervalInfo>();

  00155	b9 28 00 00 00	 mov	 ecx, 40			; 00000028H
  0015a	e8 00 00 00 00	 call	 ??2@YAPEAX_K@Z		; operator new
  0015f	48 89 84 24 d8
	00 00 00	 mov	 QWORD PTR $T7[rsp], rax
  00167	48 83 bc 24 d8
	00 00 00 00	 cmp	 QWORD PTR $T7[rsp], 0
  00170	74 29		 je	 SHORT $LN10@initSchedu
  00172	ba 28 00 00 00	 mov	 edx, 40			; 00000028H
  00177	48 8b 8c 24 d8
	00 00 00	 mov	 rcx, QWORD PTR $T7[rsp]
  0017f	e8 00 00 00 00	 call	 ?__autoclassinit2@?$CMemPool@USTIntervalInfo@@@@QEAAX_K@Z
  00184	48 8b 8c 24 d8
	00 00 00	 mov	 rcx, QWORD PTR $T7[rsp]
  0018c	e8 00 00 00 00	 call	 ??0?$CMemPool@USTIntervalInfo@@@@QEAA@XZ ; CMemPool<STIntervalInfo>::CMemPool<STIntervalInfo>
  00191	48 89 84 24 f0
	00 00 00	 mov	 QWORD PTR tv143[rsp], rax
  00199	eb 0c		 jmp	 SHORT $LN11@initSchedu
$LN10@initSchedu:
  0019b	48 c7 84 24 f0
	00 00 00 00 00
	00 00		 mov	 QWORD PTR tv143[rsp], 0
$LN11@initSchedu:
  001a7	48 8b 84 24 f0
	00 00 00	 mov	 rax, QWORD PTR tv143[rsp]
  001af	48 89 84 24 d0
	00 00 00	 mov	 QWORD PTR $T6[rsp], rax
  001b7	48 8b 84 24 10
	01 00 00	 mov	 rax, QWORD PTR this$[rsp]
  001bf	48 8b 8c 24 d0
	00 00 00	 mov	 rcx, QWORD PTR $T6[rsp]
  001c7	48 89 48 20	 mov	 QWORD PTR [rax+32], rcx

; 1226 : 			if (!m_pIntervalPool->alloc(nSchedulerPoolCount, eAlloc_Type_alloc)) {

  001cb	41 b8 03 00 00
	00		 mov	 r8d, 3
  001d1	8b 94 24 20 01
	00 00		 mov	 edx, DWORD PTR nSchedulerPoolCount$[rsp]
  001d8	48 8b 84 24 10
	01 00 00	 mov	 rax, QWORD PTR this$[rsp]
  001e0	48 8b 48 20	 mov	 rcx, QWORD PTR [rax+32]
  001e4	e8 00 00 00 00	 call	 ?alloc@?$CMemPool@USTIntervalInfo@@@@QEAAHHW4E_ALLOC_TYPE@@@Z ; CMemPool<STIntervalInfo>::alloc
  001e9	85 c0		 test	 eax, eax
  001eb	75 34		 jne	 SHORT $LN4@initSchedu

; 1227 : 				sprintf(szErrorMsg, "has Failed!! m_pIntervalPool->alloc(%d)\n", nSchedulerPoolCount);

  001ed	44 8b 84 24 20
	01 00 00	 mov	 r8d, DWORD PTR nSchedulerPoolCount$[rsp]
  001f5	48 8d 15 00 00
	00 00		 lea	 rdx, OFFSET FLAT:$SG46511
  001fc	48 8d 4c 24 30	 lea	 rcx, QWORD PTR szErrorMsg$[rsp]
  00201	e8 00 00 00 00	 call	 sprintf

; 1228 : 				comErrorPrint(szErrorMsg);

  00206	41 b8 cc 04 00
	00		 mov	 r8d, 1228		; 000004ccH
  0020c	48 8d 15 00 00
	00 00		 lea	 rdx, OFFSET FLAT:$SG46512
  00213	48 8d 4c 24 30	 lea	 rcx, QWORD PTR szErrorMsg$[rsp]
  00218	e8 00 00 00 00	 call	 ?comGlobalErrorProc@@YAXPEADPEBDH@Z ; comGlobalErrorProc

; 1229 : 				return false;

  0021d	32 c0		 xor	 al, al
  0021f	eb 02		 jmp	 SHORT $LN1@initSchedu
$LN4@initSchedu:

; 1230 : 			}
; 1231 : 		}
; 1232 : 	}
; 1233 : 	return true;

  00221	b0 01		 mov	 al, 1
$LN1@initSchedu:

; 1234 : }

  00223	48 8b f8	 mov	 rdi, rax
  00226	48 8b cc	 mov	 rcx, rsp
  00229	48 8d 15 00 00
	00 00		 lea	 rdx, OFFSET FLAT:?initScheduler@CCoreList@@QEAA_NHH@Z$rtcFrameData
  00230	e8 00 00 00 00	 call	 _RTC_CheckStackVars
  00235	48 8b c7	 mov	 rax, rdi
  00238	48 8b 8c 24 f8
	00 00 00	 mov	 rcx, QWORD PTR __$ArrayPad$[rsp]
  00240	48 33 cc	 xor	 rcx, rsp
  00243	e8 00 00 00 00	 call	 __security_check_cookie
  00248	48 81 c4 00 01
	00 00		 add	 rsp, 256		; 00000100H
  0024f	5f		 pop	 rdi
  00250	c3		 ret	 0
?initScheduler@CCoreList@@QEAA_NHH@Z ENDP		; CCoreList::initScheduler
_TEXT	ENDS
text$x	SEGMENT
szErrorMsg$ = 48
$T4 = 192
$T5 = 200
$T6 = 208
$T7 = 216
$T8 = 224
tv80 = 232
tv143 = 240
__$ArrayPad$ = 248
this$ = 272
nThreadCount$ = 280
nSchedulerPoolCount$ = 288
?dtor$0@?0??initScheduler@CCoreList@@QEAA_NHH@Z@4HA PROC ; `CCoreList::initScheduler'::`1'::dtor$0
  00000	48 89 4c 24 08	 mov	 QWORD PTR [rsp+8], rcx
  00005	48 89 54 24 10	 mov	 QWORD PTR [rsp+16], rdx
  0000a	55		 push	 rbp
  0000b	57		 push	 rdi
  0000c	48 83 ec 28	 sub	 rsp, 40			; 00000028H
  00010	48 8b ea	 mov	 rbp, rdx
  00013	ba 20 00 00 00	 mov	 edx, 32			; 00000020H
  00018	48 8b 8d c8 00
	00 00		 mov	 rcx, QWORD PTR $T5[rbp]
  0001f	e8 00 00 00 00	 call	 ??3@YAXPEAX_K@Z		; operator delete
  00024	48 83 c4 28	 add	 rsp, 40			; 00000028H
  00028	5f		 pop	 rdi
  00029	5d		 pop	 rbp
  0002a	c3		 ret	 0
?dtor$0@?0??initScheduler@CCoreList@@QEAA_NHH@Z@4HA ENDP ; `CCoreList::initScheduler'::`1'::dtor$0
szErrorMsg$ = 48
$T4 = 192
$T5 = 200
$T6 = 208
$T7 = 216
$T8 = 224
tv80 = 232
tv143 = 240
__$ArrayPad$ = 248
this$ = 272
nThreadCount$ = 280
nSchedulerPoolCount$ = 288
?dtor$1@?0??initScheduler@CCoreList@@QEAA_NHH@Z@4HA PROC ; `CCoreList::initScheduler'::`1'::dtor$1
  0002b	48 89 4c 24 08	 mov	 QWORD PTR [rsp+8], rcx
  00030	48 89 54 24 10	 mov	 QWORD PTR [rsp+16], rdx
  00035	55		 push	 rbp
  00036	57		 push	 rdi
  00037	48 83 ec 28	 sub	 rsp, 40			; 00000028H
  0003b	48 8b ea	 mov	 rbp, rdx
  0003e	ba 28 00 00 00	 mov	 edx, 40			; 00000028H
  00043	48 8b 8d d8 00
	00 00		 mov	 rcx, QWORD PTR $T7[rbp]
  0004a	e8 00 00 00 00	 call	 ??3@YAXPEAX_K@Z		; operator delete
  0004f	48 83 c4 28	 add	 rsp, 40			; 00000028H
  00053	5f		 pop	 rdi
  00054	5d		 pop	 rbp
  00055	c3		 ret	 0
?dtor$1@?0??initScheduler@CCoreList@@QEAA_NHH@Z@4HA ENDP ; `CCoreList::initScheduler'::`1'::dtor$1
text$x	ENDS
; Function compile flags: /Odtp /RTCsu
text$x	SEGMENT
szErrorMsg$ = 48
$T4 = 192
$T5 = 200
$T6 = 208
$T7 = 216
$T8 = 224
tv80 = 232
tv143 = 240
__$ArrayPad$ = 248
this$ = 272
nThreadCount$ = 280
nSchedulerPoolCount$ = 288
?dtor$0@?0??initScheduler@CCoreList@@QEAA_NHH@Z@4HA PROC ; `CCoreList::initScheduler'::`1'::dtor$0
  00000	48 89 4c 24 08	 mov	 QWORD PTR [rsp+8], rcx
  00005	48 89 54 24 10	 mov	 QWORD PTR [rsp+16], rdx
  0000a	55		 push	 rbp
  0000b	57		 push	 rdi
  0000c	48 83 ec 28	 sub	 rsp, 40			; 00000028H
  00010	48 8b ea	 mov	 rbp, rdx
  00013	ba 20 00 00 00	 mov	 edx, 32			; 00000020H
  00018	48 8b 8d c8 00
	00 00		 mov	 rcx, QWORD PTR $T5[rbp]
  0001f	e8 00 00 00 00	 call	 ??3@YAXPEAX_K@Z		; operator delete
  00024	48 83 c4 28	 add	 rsp, 40			; 00000028H
  00028	5f		 pop	 rdi
  00029	5d		 pop	 rbp
  0002a	c3		 ret	 0
?dtor$0@?0??initScheduler@CCoreList@@QEAA_NHH@Z@4HA ENDP ; `CCoreList::initScheduler'::`1'::dtor$0
text$x	ENDS
; Function compile flags: /Odtp /RTCsu
text$x	SEGMENT
szErrorMsg$ = 48
$T4 = 192
$T5 = 200
$T6 = 208
$T7 = 216
$T8 = 224
tv80 = 232
tv143 = 240
__$ArrayPad$ = 248
this$ = 272
nThreadCount$ = 280
nSchedulerPoolCount$ = 288
?dtor$1@?0??initScheduler@CCoreList@@QEAA_NHH@Z@4HA PROC ; `CCoreList::initScheduler'::`1'::dtor$1
  0002b	48 89 4c 24 08	 mov	 QWORD PTR [rsp+8], rcx
  00030	48 89 54 24 10	 mov	 QWORD PTR [rsp+16], rdx
  00035	55		 push	 rbp
  00036	57		 push	 rdi
  00037	48 83 ec 28	 sub	 rsp, 40			; 00000028H
  0003b	48 8b ea	 mov	 rbp, rdx
  0003e	ba 28 00 00 00	 mov	 edx, 40			; 00000028H
  00043	48 8b 8d d8 00
	00 00		 mov	 rcx, QWORD PTR $T7[rbp]
  0004a	e8 00 00 00 00	 call	 ??3@YAXPEAX_K@Z		; operator delete
  0004f	48 83 c4 28	 add	 rsp, 40			; 00000028H
  00053	5f		 pop	 rdi
  00054	5d		 pop	 rbp
  00055	c3		 ret	 0
?dtor$1@?0??initScheduler@CCoreList@@QEAA_NHH@Z@4HA ENDP ; `CCoreList::initScheduler'::`1'::dtor$1
text$x	ENDS
; Function compile flags: /Odtp /RTCsu
; File e:\infinia-library-3.0\com\src\comcore.cpp
_TEXT	SEGMENT
szErrorMsg$ = 48
$T4 = 192
$T5 = 200
$T6 = 208
tv79 = 216
__$ArrayPad$ = 224
this$ = 256
nThreadCount$ = 264
?initLogWriter@CCoreList@@QEAA_NH@Z PROC		; CCoreList::initLogWriter

; 1200 : {

$LN8:
  00000	89 54 24 10	 mov	 DWORD PTR [rsp+16], edx
  00004	48 89 4c 24 08	 mov	 QWORD PTR [rsp+8], rcx
  00009	57		 push	 rdi
  0000a	48 81 ec f0 00
	00 00		 sub	 rsp, 240		; 000000f0H
  00011	48 8b fc	 mov	 rdi, rsp
  00014	b9 3c 00 00 00	 mov	 ecx, 60			; 0000003cH
  00019	b8 cc cc cc cc	 mov	 eax, -858993460		; ccccccccH
  0001e	f3 ab		 rep stosd
  00020	48 8b 8c 24 00
	01 00 00	 mov	 rcx, QWORD PTR [rsp+256]
  00028	48 c7 84 24 d0
	00 00 00 fe ff
	ff ff		 mov	 QWORD PTR $T6[rsp], -2
  00034	48 8b 05 00 00
	00 00		 mov	 rax, QWORD PTR __security_cookie
  0003b	48 33 c4	 xor	 rax, rsp
  0003e	48 89 84 24 e0
	00 00 00	 mov	 QWORD PTR __$ArrayPad$[rsp], rax

; 1201 : 	char szErrorMsg[128];
; 1202 : 	if (!m_pWriterList) {

  00046	48 8b 84 24 00
	01 00 00	 mov	 rax, QWORD PTR this$[rsp]
  0004e	48 83 38 00	 cmp	 QWORD PTR [rax], 0
  00052	0f 85 c6 00 00
	00		 jne	 $LN2@initLogWri

; 1203 : 		m_pWriterList = new (std::nothrow) CTList<CSTLogger>();

  00058	48 8d 15 00 00
	00 00		 lea	 rdx, OFFSET FLAT:?nothrow@std@@3Unothrow_t@1@B ; std::nothrow
  0005f	b9 20 00 00 00	 mov	 ecx, 32			; 00000020H
  00064	e8 00 00 00 00	 call	 ??2@YAPEAX_KAEBUnothrow_t@std@@@Z ; operator new
  00069	48 89 84 24 c8
	00 00 00	 mov	 QWORD PTR $T5[rsp], rax
  00071	48 83 bc 24 c8
	00 00 00 00	 cmp	 QWORD PTR $T5[rsp], 0
  0007a	74 17		 je	 SHORT $LN5@initLogWri
  0007c	48 8b 8c 24 c8
	00 00 00	 mov	 rcx, QWORD PTR $T5[rsp]
  00084	e8 00 00 00 00	 call	 ??0?$CTList@VCSTLogger@@@@QEAA@XZ ; CTList<CSTLogger>::CTList<CSTLogger>
  00089	48 89 84 24 d8
	00 00 00	 mov	 QWORD PTR tv79[rsp], rax
  00091	eb 0c		 jmp	 SHORT $LN6@initLogWri
$LN5@initLogWri:
  00093	48 c7 84 24 d8
	00 00 00 00 00
	00 00		 mov	 QWORD PTR tv79[rsp], 0
$LN6@initLogWri:
  0009f	48 8b 84 24 d8
	00 00 00	 mov	 rax, QWORD PTR tv79[rsp]
  000a7	48 89 84 24 c0
	00 00 00	 mov	 QWORD PTR $T4[rsp], rax
  000af	48 8b 84 24 00
	01 00 00	 mov	 rax, QWORD PTR this$[rsp]
  000b7	48 8b 8c 24 c0
	00 00 00	 mov	 rcx, QWORD PTR $T4[rsp]
  000bf	48 89 08	 mov	 QWORD PTR [rax], rcx

; 1204 : 		if (!m_pWriterList->alloc(nThreadCount + LIST_ADD_COUNT, eAlloc_Type_none)) {

  000c2	8b 84 24 08 01
	00 00		 mov	 eax, DWORD PTR nThreadCount$[rsp]
  000c9	83 c0 0a	 add	 eax, 10
  000cc	45 33 c0	 xor	 r8d, r8d
  000cf	8b d0		 mov	 edx, eax
  000d1	48 8b 84 24 00
	01 00 00	 mov	 rax, QWORD PTR this$[rsp]
  000d9	48 8b 08	 mov	 rcx, QWORD PTR [rax]
  000dc	e8 00 00 00 00	 call	 ?alloc@?$CTList@VCSTLogger@@@@QEAAHHW4E_ALLOC_TYPE@@@Z ; CTList<CSTLogger>::alloc
  000e1	85 c0		 test	 eax, eax
  000e3	75 39		 jne	 SHORT $LN2@initLogWri

; 1205 : 			sprintf(szErrorMsg, "m_pWriterList->alloc(%d)", nThreadCount + LIST_ADD_COUNT);

  000e5	8b 84 24 08 01
	00 00		 mov	 eax, DWORD PTR nThreadCount$[rsp]
  000ec	83 c0 0a	 add	 eax, 10
  000ef	44 8b c0	 mov	 r8d, eax
  000f2	48 8d 15 00 00
	00 00		 lea	 rdx, OFFSET FLAT:$SG46486
  000f9	48 8d 4c 24 30	 lea	 rcx, QWORD PTR szErrorMsg$[rsp]
  000fe	e8 00 00 00 00	 call	 sprintf

; 1206 : 			comErrorPrint(szErrorMsg);

  00103	41 b8 b6 04 00
	00		 mov	 r8d, 1206		; 000004b6H
  00109	48 8d 15 00 00
	00 00		 lea	 rdx, OFFSET FLAT:$SG46487
  00110	48 8d 4c 24 30	 lea	 rcx, QWORD PTR szErrorMsg$[rsp]
  00115	e8 00 00 00 00	 call	 ?comGlobalErrorProc@@YAXPEADPEBDH@Z ; comGlobalErrorProc

; 1207 : 			return false;

  0011a	32 c0		 xor	 al, al
  0011c	eb 02		 jmp	 SHORT $LN1@initLogWri
$LN2@initLogWri:

; 1208 : 		}
; 1209 : 	}
; 1210 : 	return true;

  0011e	b0 01		 mov	 al, 1
$LN1@initLogWri:

; 1211 : }

  00120	48 8b f8	 mov	 rdi, rax
  00123	48 8b cc	 mov	 rcx, rsp
  00126	48 8d 15 00 00
	00 00		 lea	 rdx, OFFSET FLAT:?initLogWriter@CCoreList@@QEAA_NH@Z$rtcFrameData
  0012d	e8 00 00 00 00	 call	 _RTC_CheckStackVars
  00132	48 8b c7	 mov	 rax, rdi
  00135	48 8b 8c 24 e0
	00 00 00	 mov	 rcx, QWORD PTR __$ArrayPad$[rsp]
  0013d	48 33 cc	 xor	 rcx, rsp
  00140	e8 00 00 00 00	 call	 __security_check_cookie
  00145	48 81 c4 f0 00
	00 00		 add	 rsp, 240		; 000000f0H
  0014c	5f		 pop	 rdi
  0014d	c3		 ret	 0
?initLogWriter@CCoreList@@QEAA_NH@Z ENDP		; CCoreList::initLogWriter
_TEXT	ENDS
text$x	SEGMENT
szErrorMsg$ = 48
$T4 = 192
$T5 = 200
$T6 = 208
tv79 = 216
__$ArrayPad$ = 224
this$ = 256
nThreadCount$ = 264
?dtor$0@?0??initLogWriter@CCoreList@@QEAA_NH@Z@4HA PROC	; `CCoreList::initLogWriter'::`1'::dtor$0
  00000	48 89 4c 24 08	 mov	 QWORD PTR [rsp+8], rcx
  00005	48 89 54 24 10	 mov	 QWORD PTR [rsp+16], rdx
  0000a	55		 push	 rbp
  0000b	57		 push	 rdi
  0000c	48 83 ec 28	 sub	 rsp, 40			; 00000028H
  00010	48 8b ea	 mov	 rbp, rdx
  00013	48 8d 15 00 00
	00 00		 lea	 rdx, OFFSET FLAT:?nothrow@std@@3Unothrow_t@1@B ; std::nothrow
  0001a	48 8b 8d c8 00
	00 00		 mov	 rcx, QWORD PTR $T5[rbp]
  00021	e8 00 00 00 00	 call	 ??3@YAXPEAXAEBUnothrow_t@std@@@Z ; operator delete
  00026	48 83 c4 28	 add	 rsp, 40			; 00000028H
  0002a	5f		 pop	 rdi
  0002b	5d		 pop	 rbp
  0002c	c3		 ret	 0
?dtor$0@?0??initLogWriter@CCoreList@@QEAA_NH@Z@4HA ENDP	; `CCoreList::initLogWriter'::`1'::dtor$0
text$x	ENDS
; Function compile flags: /Odtp /RTCsu
text$x	SEGMENT
szErrorMsg$ = 48
$T4 = 192
$T5 = 200
$T6 = 208
tv79 = 216
__$ArrayPad$ = 224
this$ = 256
nThreadCount$ = 264
?dtor$0@?0??initLogWriter@CCoreList@@QEAA_NH@Z@4HA PROC	; `CCoreList::initLogWriter'::`1'::dtor$0
  00000	48 89 4c 24 08	 mov	 QWORD PTR [rsp+8], rcx
  00005	48 89 54 24 10	 mov	 QWORD PTR [rsp+16], rdx
  0000a	55		 push	 rbp
  0000b	57		 push	 rdi
  0000c	48 83 ec 28	 sub	 rsp, 40			; 00000028H
  00010	48 8b ea	 mov	 rbp, rdx
  00013	48 8d 15 00 00
	00 00		 lea	 rdx, OFFSET FLAT:?nothrow@std@@3Unothrow_t@1@B ; std::nothrow
  0001a	48 8b 8d c8 00
	00 00		 mov	 rcx, QWORD PTR $T5[rbp]
  00021	e8 00 00 00 00	 call	 ??3@YAXPEAXAEBUnothrow_t@std@@@Z ; operator delete
  00026	48 83 c4 28	 add	 rsp, 40			; 00000028H
  0002a	5f		 pop	 rdi
  0002b	5d		 pop	 rbp
  0002c	c3		 ret	 0
?dtor$0@?0??initLogWriter@CCoreList@@QEAA_NH@Z@4HA ENDP	; `CCoreList::initLogWriter'::`1'::dtor$0
text$x	ENDS
; Function compile flags: /Odtp /RTCsu
; File e:\infinia-library-3.0\com\src\comcore.cpp
_TEXT	SEGMENT
szErrorMsg$ = 48
$T4 = 192
$T5 = 200
$T6 = 208
tv79 = 216
__$ArrayPad$ = 224
this$ = 256
nThreadCount$ = 264
?initComThread@CCoreList@@QEAA_NH@Z PROC		; CCoreList::initComThread

; 1186 : {

$LN8:
  00000	89 54 24 10	 mov	 DWORD PTR [rsp+16], edx
  00004	48 89 4c 24 08	 mov	 QWORD PTR [rsp+8], rcx
  00009	57		 push	 rdi
  0000a	48 81 ec f0 00
	00 00		 sub	 rsp, 240		; 000000f0H
  00011	48 8b fc	 mov	 rdi, rsp
  00014	b9 3c 00 00 00	 mov	 ecx, 60			; 0000003cH
  00019	b8 cc cc cc cc	 mov	 eax, -858993460		; ccccccccH
  0001e	f3 ab		 rep stosd
  00020	48 8b 8c 24 00
	01 00 00	 mov	 rcx, QWORD PTR [rsp+256]
  00028	48 c7 84 24 d0
	00 00 00 fe ff
	ff ff		 mov	 QWORD PTR $T6[rsp], -2
  00034	48 8b 05 00 00
	00 00		 mov	 rax, QWORD PTR __security_cookie
  0003b	48 33 c4	 xor	 rax, rsp
  0003e	48 89 84 24 e0
	00 00 00	 mov	 QWORD PTR __$ArrayPad$[rsp], rax

; 1187 : 	char szErrorMsg[128];
; 1188 : 
; 1189 : 	if (!m_pThreadList) {

  00046	48 8b 84 24 00
	01 00 00	 mov	 rax, QWORD PTR this$[rsp]
  0004e	48 83 78 10 00	 cmp	 QWORD PTR [rax+16], 0
  00053	0f 85 c8 00 00
	00		 jne	 $LN2@initComThr

; 1190 : 		m_pThreadList = new (std::nothrow) CTList<CComThread>();

  00059	48 8d 15 00 00
	00 00		 lea	 rdx, OFFSET FLAT:?nothrow@std@@3Unothrow_t@1@B ; std::nothrow
  00060	b9 20 00 00 00	 mov	 ecx, 32			; 00000020H
  00065	e8 00 00 00 00	 call	 ??2@YAPEAX_KAEBUnothrow_t@std@@@Z ; operator new
  0006a	48 89 84 24 c8
	00 00 00	 mov	 QWORD PTR $T5[rsp], rax
  00072	48 83 bc 24 c8
	00 00 00 00	 cmp	 QWORD PTR $T5[rsp], 0
  0007b	74 17		 je	 SHORT $LN5@initComThr
  0007d	48 8b 8c 24 c8
	00 00 00	 mov	 rcx, QWORD PTR $T5[rsp]
  00085	e8 00 00 00 00	 call	 ??0?$CTList@VCComThread@@@@QEAA@XZ ; CTList<CComThread>::CTList<CComThread>
  0008a	48 89 84 24 d8
	00 00 00	 mov	 QWORD PTR tv79[rsp], rax
  00092	eb 0c		 jmp	 SHORT $LN6@initComThr
$LN5@initComThr:
  00094	48 c7 84 24 d8
	00 00 00 00 00
	00 00		 mov	 QWORD PTR tv79[rsp], 0
$LN6@initComThr:
  000a0	48 8b 84 24 d8
	00 00 00	 mov	 rax, QWORD PTR tv79[rsp]
  000a8	48 89 84 24 c0
	00 00 00	 mov	 QWORD PTR $T4[rsp], rax
  000b0	48 8b 84 24 00
	01 00 00	 mov	 rax, QWORD PTR this$[rsp]
  000b8	48 8b 8c 24 c0
	00 00 00	 mov	 rcx, QWORD PTR $T4[rsp]
  000c0	48 89 48 10	 mov	 QWORD PTR [rax+16], rcx

; 1191 : 		if (!m_pThreadList->alloc(nThreadCount + LIST_ADD_COUNT, eAlloc_Type_none)) {

  000c4	8b 84 24 08 01
	00 00		 mov	 eax, DWORD PTR nThreadCount$[rsp]
  000cb	83 c0 0a	 add	 eax, 10
  000ce	45 33 c0	 xor	 r8d, r8d
  000d1	8b d0		 mov	 edx, eax
  000d3	48 8b 84 24 00
	01 00 00	 mov	 rax, QWORD PTR this$[rsp]
  000db	48 8b 48 10	 mov	 rcx, QWORD PTR [rax+16]
  000df	e8 00 00 00 00	 call	 ?alloc@?$CTList@VCComThread@@@@QEAAHHW4E_ALLOC_TYPE@@@Z ; CTList<CComThread>::alloc
  000e4	85 c0		 test	 eax, eax
  000e6	75 39		 jne	 SHORT $LN2@initComThr

; 1192 : 			sprintf(szErrorMsg, "m_pThreadList->alloc(%d)", nThreadCount + LIST_ADD_COUNT);

  000e8	8b 84 24 08 01
	00 00		 mov	 eax, DWORD PTR nThreadCount$[rsp]
  000ef	83 c0 0a	 add	 eax, 10
  000f2	44 8b c0	 mov	 r8d, eax
  000f5	48 8d 15 00 00
	00 00		 lea	 rdx, OFFSET FLAT:$SG46470
  000fc	48 8d 4c 24 30	 lea	 rcx, QWORD PTR szErrorMsg$[rsp]
  00101	e8 00 00 00 00	 call	 sprintf

; 1193 : 			comErrorPrint(szErrorMsg);

  00106	41 b8 a9 04 00
	00		 mov	 r8d, 1193		; 000004a9H
  0010c	48 8d 15 00 00
	00 00		 lea	 rdx, OFFSET FLAT:$SG46471
  00113	48 8d 4c 24 30	 lea	 rcx, QWORD PTR szErrorMsg$[rsp]
  00118	e8 00 00 00 00	 call	 ?comGlobalErrorProc@@YAXPEADPEBDH@Z ; comGlobalErrorProc

; 1194 : 			return false;

  0011d	32 c0		 xor	 al, al
  0011f	eb 02		 jmp	 SHORT $LN1@initComThr
$LN2@initComThr:

; 1195 : 		}
; 1196 : 	}
; 1197 : 	return true;

  00121	b0 01		 mov	 al, 1
$LN1@initComThr:

; 1198 : }

  00123	48 8b f8	 mov	 rdi, rax
  00126	48 8b cc	 mov	 rcx, rsp
  00129	48 8d 15 00 00
	00 00		 lea	 rdx, OFFSET FLAT:?initComThread@CCoreList@@QEAA_NH@Z$rtcFrameData
  00130	e8 00 00 00 00	 call	 _RTC_CheckStackVars
  00135	48 8b c7	 mov	 rax, rdi
  00138	48 8b 8c 24 e0
	00 00 00	 mov	 rcx, QWORD PTR __$ArrayPad$[rsp]
  00140	48 33 cc	 xor	 rcx, rsp
  00143	e8 00 00 00 00	 call	 __security_check_cookie
  00148	48 81 c4 f0 00
	00 00		 add	 rsp, 240		; 000000f0H
  0014f	5f		 pop	 rdi
  00150	c3		 ret	 0
?initComThread@CCoreList@@QEAA_NH@Z ENDP		; CCoreList::initComThread
_TEXT	ENDS
text$x	SEGMENT
szErrorMsg$ = 48
$T4 = 192
$T5 = 200
$T6 = 208
tv79 = 216
__$ArrayPad$ = 224
this$ = 256
nThreadCount$ = 264
?dtor$0@?0??initComThread@CCoreList@@QEAA_NH@Z@4HA PROC	; `CCoreList::initComThread'::`1'::dtor$0
  00000	48 89 4c 24 08	 mov	 QWORD PTR [rsp+8], rcx
  00005	48 89 54 24 10	 mov	 QWORD PTR [rsp+16], rdx
  0000a	55		 push	 rbp
  0000b	57		 push	 rdi
  0000c	48 83 ec 28	 sub	 rsp, 40			; 00000028H
  00010	48 8b ea	 mov	 rbp, rdx
  00013	48 8d 15 00 00
	00 00		 lea	 rdx, OFFSET FLAT:?nothrow@std@@3Unothrow_t@1@B ; std::nothrow
  0001a	48 8b 8d c8 00
	00 00		 mov	 rcx, QWORD PTR $T5[rbp]
  00021	e8 00 00 00 00	 call	 ??3@YAXPEAXAEBUnothrow_t@std@@@Z ; operator delete
  00026	48 83 c4 28	 add	 rsp, 40			; 00000028H
  0002a	5f		 pop	 rdi
  0002b	5d		 pop	 rbp
  0002c	c3		 ret	 0
?dtor$0@?0??initComThread@CCoreList@@QEAA_NH@Z@4HA ENDP	; `CCoreList::initComThread'::`1'::dtor$0
text$x	ENDS
; Function compile flags: /Odtp /RTCsu
text$x	SEGMENT
szErrorMsg$ = 48
$T4 = 192
$T5 = 200
$T6 = 208
tv79 = 216
__$ArrayPad$ = 224
this$ = 256
nThreadCount$ = 264
?dtor$0@?0??initComThread@CCoreList@@QEAA_NH@Z@4HA PROC	; `CCoreList::initComThread'::`1'::dtor$0
  00000	48 89 4c 24 08	 mov	 QWORD PTR [rsp+8], rcx
  00005	48 89 54 24 10	 mov	 QWORD PTR [rsp+16], rdx
  0000a	55		 push	 rbp
  0000b	57		 push	 rdi
  0000c	48 83 ec 28	 sub	 rsp, 40			; 00000028H
  00010	48 8b ea	 mov	 rbp, rdx
  00013	48 8d 15 00 00
	00 00		 lea	 rdx, OFFSET FLAT:?nothrow@std@@3Unothrow_t@1@B ; std::nothrow
  0001a	48 8b 8d c8 00
	00 00		 mov	 rcx, QWORD PTR $T5[rbp]
  00021	e8 00 00 00 00	 call	 ??3@YAXPEAXAEBUnothrow_t@std@@@Z ; operator delete
  00026	48 83 c4 28	 add	 rsp, 40			; 00000028H
  0002a	5f		 pop	 rdi
  0002b	5d		 pop	 rbp
  0002c	c3		 ret	 0
?dtor$0@?0??initComThread@CCoreList@@QEAA_NH@Z@4HA ENDP	; `CCoreList::initComThread'::`1'::dtor$0
text$x	ENDS
; Function compile flags: /Odtp /RTCsu
; File e:\infinia-library-3.0\com\src\comcore.cpp
_TEXT	SEGMENT
nCount$ = 32
i$ = 36
nMax$ = 40
idx$ = 52
nTmp$ = 68
pEventThread$ = 72
$T4 = 88
$T5 = 96
$T6 = 104
$T7 = 112
$T8 = 120
$T9 = 128
$T10 = 136
tv84 = 144
tv145 = 152
tv167 = 160
__$ArrayPad$ = 168
this$ = 192
pConfigFile$ = 200
pSection$ = 208
?initQueueThread@CCoreList@@QEAA_NPEAD0@Z PROC		; CCoreList::initQueueThread

; 787  : {

$LN21:
  00000	4c 89 44 24 18	 mov	 QWORD PTR [rsp+24], r8
  00005	48 89 54 24 10	 mov	 QWORD PTR [rsp+16], rdx
  0000a	48 89 4c 24 08	 mov	 QWORD PTR [rsp+8], rcx
  0000f	57		 push	 rdi
  00010	48 81 ec b0 00
	00 00		 sub	 rsp, 176		; 000000b0H
  00017	48 8b fc	 mov	 rdi, rsp
  0001a	b9 2c 00 00 00	 mov	 ecx, 44			; 0000002cH
  0001f	b8 cc cc cc cc	 mov	 eax, -858993460		; ccccccccH
  00024	f3 ab		 rep stosd
  00026	48 8b 8c 24 c0
	00 00 00	 mov	 rcx, QWORD PTR [rsp+192]
  0002e	48 c7 84 24 88
	00 00 00 fe ff
	ff ff		 mov	 QWORD PTR $T10[rsp], -2
  0003a	48 8b 05 00 00
	00 00		 mov	 rax, QWORD PTR __security_cookie
  00041	48 33 c4	 xor	 rax, rsp
  00044	48 89 84 24 a8
	00 00 00	 mov	 QWORD PTR __$ArrayPad$[rsp], rax

; 788  : 	int nCount, i, nMax, idx, nTmp;
; 789  : 	CComQueueThread *pEventThread;
; 790  : 	nCount = GetPrivateProfileInt(pSection, _T("LIST_COUNT"), 0, pConfigFile);

  0004c	4c 8b 8c 24 c8
	00 00 00	 mov	 r9, QWORD PTR pConfigFile$[rsp]
  00054	45 33 c0	 xor	 r8d, r8d
  00057	48 8d 15 00 00
	00 00		 lea	 rdx, OFFSET FLAT:$SG46165
  0005e	48 8b 8c 24 d0
	00 00 00	 mov	 rcx, QWORD PTR pSection$[rsp]
  00066	ff 15 00 00 00
	00		 call	 QWORD PTR __imp_GetPrivateProfileIntA
  0006c	89 44 24 20	 mov	 DWORD PTR nCount$[rsp], eax

; 791  : 	if (nCount)

  00070	83 7c 24 20 00	 cmp	 DWORD PTR nCount$[rsp], 0
  00075	0f 84 89 02 00
	00		 je	 $LN5@initQueueT

; 792  : 	{
; 793  : 		m_pEventThreadList = new CTList<CComQueueThread>();

  0007b	b9 20 00 00 00	 mov	 ecx, 32			; 00000020H
  00080	e8 00 00 00 00	 call	 ??2@YAPEAX_K@Z		; operator new
  00085	48 89 44 24 60	 mov	 QWORD PTR $T5[rsp], rax
  0008a	48 83 7c 24 60
	00		 cmp	 QWORD PTR $T5[rsp], 0
  00090	74 23		 je	 SHORT $LN12@initQueueT
  00092	ba 20 00 00 00	 mov	 edx, 32			; 00000020H
  00097	48 8b 4c 24 60	 mov	 rcx, QWORD PTR $T5[rsp]
  0009c	e8 00 00 00 00	 call	 ?__autoclassinit2@?$CTList@VCComQueueThread@@@@QEAAX_K@Z
  000a1	48 8b 4c 24 60	 mov	 rcx, QWORD PTR $T5[rsp]
  000a6	e8 00 00 00 00	 call	 ??0?$CTList@VCComQueueThread@@@@QEAA@XZ ; CTList<CComQueueThread>::CTList<CComQueueThread>
  000ab	48 89 84 24 90
	00 00 00	 mov	 QWORD PTR tv84[rsp], rax
  000b3	eb 0c		 jmp	 SHORT $LN13@initQueueT
$LN12@initQueueT:
  000b5	48 c7 84 24 90
	00 00 00 00 00
	00 00		 mov	 QWORD PTR tv84[rsp], 0
$LN13@initQueueT:
  000c1	48 8b 84 24 90
	00 00 00	 mov	 rax, QWORD PTR tv84[rsp]
  000c9	48 89 44 24 58	 mov	 QWORD PTR $T4[rsp], rax
  000ce	48 8b 84 24 c0
	00 00 00	 mov	 rax, QWORD PTR this$[rsp]
  000d6	48 8b 4c 24 58	 mov	 rcx, QWORD PTR $T4[rsp]
  000db	48 89 48 18	 mov	 QWORD PTR [rax+24], rcx

; 794  : 		if (!m_pEventThreadList->alloc(nCount + LIST_ADD_COUNT, eAlloc_Type_none)) {

  000df	8b 44 24 20	 mov	 eax, DWORD PTR nCount$[rsp]
  000e3	83 c0 0a	 add	 eax, 10
  000e6	45 33 c0	 xor	 r8d, r8d
  000e9	8b d0		 mov	 edx, eax
  000eb	48 8b 84 24 c0
	00 00 00	 mov	 rax, QWORD PTR this$[rsp]
  000f3	48 8b 48 18	 mov	 rcx, QWORD PTR [rax+24]
  000f7	e8 00 00 00 00	 call	 ?alloc@?$CTList@VCComQueueThread@@@@QEAAHHW4E_ALLOC_TYPE@@@Z ; CTList<CComQueueThread>::alloc
  000fc	85 c0		 test	 eax, eax
  000fe	75 13		 jne	 SHORT $LN6@initQueueT

; 795  : 			printf("has Failed!! m_pEventThreadList = new CTList<CComQueueThread>()\n");

  00100	48 8d 0d 00 00
	00 00		 lea	 rcx, OFFSET FLAT:$SG46169
  00107	e8 00 00 00 00	 call	 printf

; 796  : 			return false;

  0010c	32 c0		 xor	 al, al
  0010e	e9 f3 01 00 00	 jmp	 $LN1@initQueueT
$LN6@initQueueT:

; 797  : 		}
; 798  : 		nTmp = nCount * 20;

  00113	6b 44 24 20 14	 imul	 eax, DWORD PTR nCount$[rsp], 20
  00118	89 44 24 44	 mov	 DWORD PTR nTmp$[rsp], eax

; 799  : 		nMax = GetPrivateProfileInt(pSection, _T("EVENT_POOL_MAX"), nTmp, pConfigFile) + CORE_PLUS_POOL_COUNT;

  0011c	4c 8b 8c 24 c8
	00 00 00	 mov	 r9, QWORD PTR pConfigFile$[rsp]
  00124	44 8b 44 24 44	 mov	 r8d, DWORD PTR nTmp$[rsp]
  00129	48 8d 15 00 00
	00 00		 lea	 rdx, OFFSET FLAT:$SG46170
  00130	48 8b 8c 24 d0
	00 00 00	 mov	 rcx, QWORD PTR pSection$[rsp]
  00138	ff 15 00 00 00
	00		 call	 QWORD PTR __imp_GetPrivateProfileIntA
  0013e	83 c0 0a	 add	 eax, 10
  00141	89 44 24 28	 mov	 DWORD PTR nMax$[rsp], eax

; 800  : 		m_pEventPool = new CMemPool<STEvent>();

  00145	b9 28 00 00 00	 mov	 ecx, 40			; 00000028H
  0014a	e8 00 00 00 00	 call	 ??2@YAPEAX_K@Z		; operator new
  0014f	48 89 44 24 70	 mov	 QWORD PTR $T7[rsp], rax
  00154	48 83 7c 24 70
	00		 cmp	 QWORD PTR $T7[rsp], 0
  0015a	74 23		 je	 SHORT $LN14@initQueueT
  0015c	ba 28 00 00 00	 mov	 edx, 40			; 00000028H
  00161	48 8b 4c 24 70	 mov	 rcx, QWORD PTR $T7[rsp]
  00166	e8 00 00 00 00	 call	 ?__autoclassinit2@?$CMemPool@USTEvent@@@@QEAAX_K@Z
  0016b	48 8b 4c 24 70	 mov	 rcx, QWORD PTR $T7[rsp]
  00170	e8 00 00 00 00	 call	 ??0?$CMemPool@USTEvent@@@@QEAA@XZ ; CMemPool<STEvent>::CMemPool<STEvent>
  00175	48 89 84 24 98
	00 00 00	 mov	 QWORD PTR tv145[rsp], rax
  0017d	eb 0c		 jmp	 SHORT $LN15@initQueueT
$LN14@initQueueT:
  0017f	48 c7 84 24 98
	00 00 00 00 00
	00 00		 mov	 QWORD PTR tv145[rsp], 0
$LN15@initQueueT:
  0018b	48 8b 84 24 98
	00 00 00	 mov	 rax, QWORD PTR tv145[rsp]
  00193	48 89 44 24 68	 mov	 QWORD PTR $T6[rsp], rax
  00198	48 8b 84 24 c0
	00 00 00	 mov	 rax, QWORD PTR this$[rsp]
  001a0	48 8b 4c 24 68	 mov	 rcx, QWORD PTR $T6[rsp]
  001a5	48 89 48 28	 mov	 QWORD PTR [rax+40], rcx

; 801  : 		if (!m_pEventPool->alloc(nMax, eAlloc_Type_alloc)) {

  001a9	41 b8 03 00 00
	00		 mov	 r8d, 3
  001af	8b 54 24 28	 mov	 edx, DWORD PTR nMax$[rsp]
  001b3	48 8b 84 24 c0
	00 00 00	 mov	 rax, QWORD PTR this$[rsp]
  001bb	48 8b 48 28	 mov	 rcx, QWORD PTR [rax+40]
  001bf	e8 00 00 00 00	 call	 ?alloc@?$CMemPool@USTEvent@@@@QEAAHHW4E_ALLOC_TYPE@@@Z ; CMemPool<STEvent>::alloc
  001c4	85 c0		 test	 eax, eax
  001c6	75 17		 jne	 SHORT $LN7@initQueueT

; 802  : 			printf("has Failed!! m_pEventPool.alloc(%d)\n", nMax);

  001c8	8b 54 24 28	 mov	 edx, DWORD PTR nMax$[rsp]
  001cc	48 8d 0d 00 00
	00 00		 lea	 rcx, OFFSET FLAT:$SG46173
  001d3	e8 00 00 00 00	 call	 printf

; 803  : 			return false;

  001d8	32 c0		 xor	 al, al
  001da	e9 27 01 00 00	 jmp	 $LN1@initQueueT
$LN7@initQueueT:

; 804  : 		}
; 805  : 		for (i = 0; i < nCount; i++) {

  001df	c7 44 24 24 00
	00 00 00	 mov	 DWORD PTR i$[rsp], 0
  001e7	eb 0a		 jmp	 SHORT $LN4@initQueueT
$LN2@initQueueT:
  001e9	8b 44 24 24	 mov	 eax, DWORD PTR i$[rsp]
  001ed	ff c0		 inc	 eax
  001ef	89 44 24 24	 mov	 DWORD PTR i$[rsp], eax
$LN4@initQueueT:
  001f3	8b 44 24 20	 mov	 eax, DWORD PTR nCount$[rsp]
  001f7	39 44 24 24	 cmp	 DWORD PTR i$[rsp], eax
  001fb	0f 8d 03 01 00
	00		 jge	 $LN5@initQueueT

; 806  : 			pEventThread = new (std::nothrow) CComQueueThread();

  00201	48 8d 15 00 00
	00 00		 lea	 rdx, OFFSET FLAT:?nothrow@std@@3Unothrow_t@1@B ; std::nothrow
  00208	b9 a8 00 00 00	 mov	 ecx, 168		; 000000a8H
  0020d	e8 00 00 00 00	 call	 ??2@YAPEAX_KAEBUnothrow_t@std@@@Z ; operator new
  00212	48 89 84 24 80
	00 00 00	 mov	 QWORD PTR $T9[rsp], rax
  0021a	48 83 bc 24 80
	00 00 00 00	 cmp	 QWORD PTR $T9[rsp], 0
  00223	74 17		 je	 SHORT $LN16@initQueueT
  00225	48 8b 8c 24 80
	00 00 00	 mov	 rcx, QWORD PTR $T9[rsp]
  0022d	e8 00 00 00 00	 call	 ??0CComQueueThread@@QEAA@XZ ; CComQueueThread::CComQueueThread
  00232	48 89 84 24 a0
	00 00 00	 mov	 QWORD PTR tv167[rsp], rax
  0023a	eb 0c		 jmp	 SHORT $LN17@initQueueT
$LN16@initQueueT:
  0023c	48 c7 84 24 a0
	00 00 00 00 00
	00 00		 mov	 QWORD PTR tv167[rsp], 0
$LN17@initQueueT:
  00248	48 8b 84 24 a0
	00 00 00	 mov	 rax, QWORD PTR tv167[rsp]
  00250	48 89 44 24 78	 mov	 QWORD PTR $T8[rsp], rax
  00255	48 8b 44 24 78	 mov	 rax, QWORD PTR $T8[rsp]
  0025a	48 89 44 24 48	 mov	 QWORD PTR pEventThread$[rsp], rax

; 807  : 			if (!pEventThread) {

  0025f	48 83 7c 24 48
	00		 cmp	 QWORD PTR pEventThread$[rsp], 0
  00265	75 17		 jne	 SHORT $LN8@initQueueT

; 808  : 				printf("has Failed!! [seq:%d] pEventThread = new (std::nothrow) CComQueueThread()\n", i);

  00267	8b 54 24 24	 mov	 edx, DWORD PTR i$[rsp]
  0026b	48 8d 0d 00 00
	00 00		 lea	 rcx, OFFSET FLAT:$SG46176
  00272	e8 00 00 00 00	 call	 printf

; 809  : 				return false;

  00277	32 c0		 xor	 al, al
  00279	e9 88 00 00 00	 jmp	 $LN1@initQueueT
$LN8@initQueueT:

; 810  : 			}
; 811  : 			if (!pEventThread->initConfig(pConfigFile, i, pSection)) {

  0027e	4c 8b 8c 24 d0
	00 00 00	 mov	 r9, QWORD PTR pSection$[rsp]
  00286	44 8b 44 24 24	 mov	 r8d, DWORD PTR i$[rsp]
  0028b	48 8b 94 24 c8
	00 00 00	 mov	 rdx, QWORD PTR pConfigFile$[rsp]
  00293	48 8b 4c 24 48	 mov	 rcx, QWORD PTR pEventThread$[rsp]
  00298	e8 00 00 00 00	 call	 ?initConfig@CComQueueThread@@QEAA_NPEADH0@Z ; CComQueueThread::initConfig
  0029d	0f b6 c0	 movzx	 eax, al
  002a0	85 c0		 test	 eax, eax
  002a2	75 14		 jne	 SHORT $LN9@initQueueT

; 812  : 				printf("has Failed!! [seq:%d] pEventThread->init()\n", i);

  002a4	8b 54 24 24	 mov	 edx, DWORD PTR i$[rsp]
  002a8	48 8d 0d 00 00
	00 00		 lea	 rcx, OFFSET FLAT:$SG46178
  002af	e8 00 00 00 00	 call	 printf

; 813  : 				return false;

  002b4	32 c0		 xor	 al, al
  002b6	eb 4e		 jmp	 SHORT $LN1@initQueueT
$LN9@initQueueT:

; 814  : 			}
; 815  : 
; 816  : 			if (!m_pEventThreadList->push_back(pEventThread, &idx)) {

  002b8	4c 8d 44 24 34	 lea	 r8, QWORD PTR idx$[rsp]
  002bd	48 8b 54 24 48	 mov	 rdx, QWORD PTR pEventThread$[rsp]
  002c2	48 8b 84 24 c0
	00 00 00	 mov	 rax, QWORD PTR this$[rsp]
  002ca	48 8b 48 18	 mov	 rcx, QWORD PTR [rax+24]
  002ce	e8 00 00 00 00	 call	 ?push_back@?$CTList@VCComQueueThread@@@@QEAA_NPEAVCComQueueThread@@PEAH@Z ; CTList<CComQueueThread>::push_back
  002d3	0f b6 c0	 movzx	 eax, al
  002d6	85 c0		 test	 eax, eax
  002d8	75 14		 jne	 SHORT $LN10@initQueueT

; 817  : 				printf("has Failed!! [seq:%d] m_pEventThreadList->setNewObj(pScheduler)\n", i);

  002da	8b 54 24 24	 mov	 edx, DWORD PTR i$[rsp]
  002de	48 8d 0d 00 00
	00 00		 lea	 rcx, OFFSET FLAT:$SG46180
  002e5	e8 00 00 00 00	 call	 printf

; 818  : 				return false;

  002ea	32 c0		 xor	 al, al
  002ec	eb 18		 jmp	 SHORT $LN1@initQueueT
$LN10@initQueueT:

; 819  : 			}
; 820  : 			pEventThread->m_cThread.setIdx(idx);

  002ee	48 8b 44 24 48	 mov	 rax, QWORD PTR pEventThread$[rsp]
  002f3	8b 54 24 34	 mov	 edx, DWORD PTR idx$[rsp]
  002f7	48 8b c8	 mov	 rcx, rax
  002fa	e8 00 00 00 00	 call	 ?setIdx@CComThread@@QEAAXH@Z ; CComThread::setIdx

; 821  : 		}

  002ff	e9 e5 fe ff ff	 jmp	 $LN2@initQueueT
$LN5@initQueueT:

; 822  : 	}
; 823  : 	return true;

  00304	b0 01		 mov	 al, 1
$LN1@initQueueT:

; 824  : }

  00306	48 8b f8	 mov	 rdi, rax
  00309	48 8b cc	 mov	 rcx, rsp
  0030c	48 8d 15 00 00
	00 00		 lea	 rdx, OFFSET FLAT:?initQueueThread@CCoreList@@QEAA_NPEAD0@Z$rtcFrameData
  00313	e8 00 00 00 00	 call	 _RTC_CheckStackVars
  00318	48 8b c7	 mov	 rax, rdi
  0031b	48 8b 8c 24 a8
	00 00 00	 mov	 rcx, QWORD PTR __$ArrayPad$[rsp]
  00323	48 33 cc	 xor	 rcx, rsp
  00326	e8 00 00 00 00	 call	 __security_check_cookie
  0032b	48 81 c4 b0 00
	00 00		 add	 rsp, 176		; 000000b0H
  00332	5f		 pop	 rdi
  00333	c3		 ret	 0
?initQueueThread@CCoreList@@QEAA_NPEAD0@Z ENDP		; CCoreList::initQueueThread
_TEXT	ENDS
text$x	SEGMENT
nCount$ = 32
i$ = 36
nMax$ = 40
idx$ = 52
nTmp$ = 68
pEventThread$ = 72
$T4 = 88
$T5 = 96
$T6 = 104
$T7 = 112
$T8 = 120
$T9 = 128
$T10 = 136
tv84 = 144
tv145 = 152
tv167 = 160
__$ArrayPad$ = 168
this$ = 192
pConfigFile$ = 200
pSection$ = 208
?dtor$0@?0??initQueueThread@CCoreList@@QEAA_NPEAD0@Z@4HA PROC ; `CCoreList::initQueueThread'::`1'::dtor$0
  00000	48 89 4c 24 08	 mov	 QWORD PTR [rsp+8], rcx
  00005	48 89 54 24 10	 mov	 QWORD PTR [rsp+16], rdx
  0000a	55		 push	 rbp
  0000b	57		 push	 rdi
  0000c	48 83 ec 28	 sub	 rsp, 40			; 00000028H
  00010	48 8b ea	 mov	 rbp, rdx
  00013	ba 20 00 00 00	 mov	 edx, 32			; 00000020H
  00018	48 8b 4d 60	 mov	 rcx, QWORD PTR $T5[rbp]
  0001c	e8 00 00 00 00	 call	 ??3@YAXPEAX_K@Z		; operator delete
  00021	48 83 c4 28	 add	 rsp, 40			; 00000028H
  00025	5f		 pop	 rdi
  00026	5d		 pop	 rbp
  00027	c3		 ret	 0
?dtor$0@?0??initQueueThread@CCoreList@@QEAA_NPEAD0@Z@4HA ENDP ; `CCoreList::initQueueThread'::`1'::dtor$0
nCount$ = 32
i$ = 36
nMax$ = 40
idx$ = 52
nTmp$ = 68
pEventThread$ = 72
$T4 = 88
$T5 = 96
$T6 = 104
$T7 = 112
$T8 = 120
$T9 = 128
$T10 = 136
tv84 = 144
tv145 = 152
tv167 = 160
__$ArrayPad$ = 168
this$ = 192
pConfigFile$ = 200
pSection$ = 208
?dtor$1@?0??initQueueThread@CCoreList@@QEAA_NPEAD0@Z@4HA PROC ; `CCoreList::initQueueThread'::`1'::dtor$1
  00028	48 89 4c 24 08	 mov	 QWORD PTR [rsp+8], rcx
  0002d	48 89 54 24 10	 mov	 QWORD PTR [rsp+16], rdx
  00032	55		 push	 rbp
  00033	57		 push	 rdi
  00034	48 83 ec 28	 sub	 rsp, 40			; 00000028H
  00038	48 8b ea	 mov	 rbp, rdx
  0003b	ba 28 00 00 00	 mov	 edx, 40			; 00000028H
  00040	48 8b 4d 70	 mov	 rcx, QWORD PTR $T7[rbp]
  00044	e8 00 00 00 00	 call	 ??3@YAXPEAX_K@Z		; operator delete
  00049	48 83 c4 28	 add	 rsp, 40			; 00000028H
  0004d	5f		 pop	 rdi
  0004e	5d		 pop	 rbp
  0004f	c3		 ret	 0
?dtor$1@?0??initQueueThread@CCoreList@@QEAA_NPEAD0@Z@4HA ENDP ; `CCoreList::initQueueThread'::`1'::dtor$1
nCount$ = 32
i$ = 36
nMax$ = 40
idx$ = 52
nTmp$ = 68
pEventThread$ = 72
$T4 = 88
$T5 = 96
$T6 = 104
$T7 = 112
$T8 = 120
$T9 = 128
$T10 = 136
tv84 = 144
tv145 = 152
tv167 = 160
__$ArrayPad$ = 168
this$ = 192
pConfigFile$ = 200
pSection$ = 208
?dtor$2@?0??initQueueThread@CCoreList@@QEAA_NPEAD0@Z@4HA PROC ; `CCoreList::initQueueThread'::`1'::dtor$2
  00050	48 89 4c 24 08	 mov	 QWORD PTR [rsp+8], rcx
  00055	48 89 54 24 10	 mov	 QWORD PTR [rsp+16], rdx
  0005a	55		 push	 rbp
  0005b	57		 push	 rdi
  0005c	48 83 ec 28	 sub	 rsp, 40			; 00000028H
  00060	48 8b ea	 mov	 rbp, rdx
  00063	48 8d 15 00 00
	00 00		 lea	 rdx, OFFSET FLAT:?nothrow@std@@3Unothrow_t@1@B ; std::nothrow
  0006a	48 8b 8d 80 00
	00 00		 mov	 rcx, QWORD PTR $T9[rbp]
  00071	e8 00 00 00 00	 call	 ??3@YAXPEAXAEBUnothrow_t@std@@@Z ; operator delete
  00076	48 83 c4 28	 add	 rsp, 40			; 00000028H
  0007a	5f		 pop	 rdi
  0007b	5d		 pop	 rbp
  0007c	c3		 ret	 0
?dtor$2@?0??initQueueThread@CCoreList@@QEAA_NPEAD0@Z@4HA ENDP ; `CCoreList::initQueueThread'::`1'::dtor$2
text$x	ENDS
; Function compile flags: /Odtp /RTCsu
text$x	SEGMENT
nCount$ = 32
i$ = 36
nMax$ = 40
idx$ = 52
nTmp$ = 68
pEventThread$ = 72
$T4 = 88
$T5 = 96
$T6 = 104
$T7 = 112
$T8 = 120
$T9 = 128
$T10 = 136
tv84 = 144
tv145 = 152
tv167 = 160
__$ArrayPad$ = 168
this$ = 192
pConfigFile$ = 200
pSection$ = 208
?dtor$0@?0??initQueueThread@CCoreList@@QEAA_NPEAD0@Z@4HA PROC ; `CCoreList::initQueueThread'::`1'::dtor$0
  00000	48 89 4c 24 08	 mov	 QWORD PTR [rsp+8], rcx
  00005	48 89 54 24 10	 mov	 QWORD PTR [rsp+16], rdx
  0000a	55		 push	 rbp
  0000b	57		 push	 rdi
  0000c	48 83 ec 28	 sub	 rsp, 40			; 00000028H
  00010	48 8b ea	 mov	 rbp, rdx
  00013	ba 20 00 00 00	 mov	 edx, 32			; 00000020H
  00018	48 8b 4d 60	 mov	 rcx, QWORD PTR $T5[rbp]
  0001c	e8 00 00 00 00	 call	 ??3@YAXPEAX_K@Z		; operator delete
  00021	48 83 c4 28	 add	 rsp, 40			; 00000028H
  00025	5f		 pop	 rdi
  00026	5d		 pop	 rbp
  00027	c3		 ret	 0
?dtor$0@?0??initQueueThread@CCoreList@@QEAA_NPEAD0@Z@4HA ENDP ; `CCoreList::initQueueThread'::`1'::dtor$0
text$x	ENDS
; Function compile flags: /Odtp /RTCsu
text$x	SEGMENT
nCount$ = 32
i$ = 36
nMax$ = 40
idx$ = 52
nTmp$ = 68
pEventThread$ = 72
$T4 = 88
$T5 = 96
$T6 = 104
$T7 = 112
$T8 = 120
$T9 = 128
$T10 = 136
tv84 = 144
tv145 = 152
tv167 = 160
__$ArrayPad$ = 168
this$ = 192
pConfigFile$ = 200
pSection$ = 208
?dtor$1@?0??initQueueThread@CCoreList@@QEAA_NPEAD0@Z@4HA PROC ; `CCoreList::initQueueThread'::`1'::dtor$1
  00028	48 89 4c 24 08	 mov	 QWORD PTR [rsp+8], rcx
  0002d	48 89 54 24 10	 mov	 QWORD PTR [rsp+16], rdx
  00032	55		 push	 rbp
  00033	57		 push	 rdi
  00034	48 83 ec 28	 sub	 rsp, 40			; 00000028H
  00038	48 8b ea	 mov	 rbp, rdx
  0003b	ba 28 00 00 00	 mov	 edx, 40			; 00000028H
  00040	48 8b 4d 70	 mov	 rcx, QWORD PTR $T7[rbp]
  00044	e8 00 00 00 00	 call	 ??3@YAXPEAX_K@Z		; operator delete
  00049	48 83 c4 28	 add	 rsp, 40			; 00000028H
  0004d	5f		 pop	 rdi
  0004e	5d		 pop	 rbp
  0004f	c3		 ret	 0
?dtor$1@?0??initQueueThread@CCoreList@@QEAA_NPEAD0@Z@4HA ENDP ; `CCoreList::initQueueThread'::`1'::dtor$1
text$x	ENDS
; Function compile flags: /Odtp /RTCsu
text$x	SEGMENT
nCount$ = 32
i$ = 36
nMax$ = 40
idx$ = 52
nTmp$ = 68
pEventThread$ = 72
$T4 = 88
$T5 = 96
$T6 = 104
$T7 = 112
$T8 = 120
$T9 = 128
$T10 = 136
tv84 = 144
tv145 = 152
tv167 = 160
__$ArrayPad$ = 168
this$ = 192
pConfigFile$ = 200
pSection$ = 208
?dtor$2@?0??initQueueThread@CCoreList@@QEAA_NPEAD0@Z@4HA PROC ; `CCoreList::initQueueThread'::`1'::dtor$2
  00050	48 89 4c 24 08	 mov	 QWORD PTR [rsp+8], rcx
  00055	48 89 54 24 10	 mov	 QWORD PTR [rsp+16], rdx
  0005a	55		 push	 rbp
  0005b	57		 push	 rdi
  0005c	48 83 ec 28	 sub	 rsp, 40			; 00000028H
  00060	48 8b ea	 mov	 rbp, rdx
  00063	48 8d 15 00 00
	00 00		 lea	 rdx, OFFSET FLAT:?nothrow@std@@3Unothrow_t@1@B ; std::nothrow
  0006a	48 8b 8d 80 00
	00 00		 mov	 rcx, QWORD PTR $T9[rbp]
  00071	e8 00 00 00 00	 call	 ??3@YAXPEAXAEBUnothrow_t@std@@@Z ; operator delete
  00076	48 83 c4 28	 add	 rsp, 40			; 00000028H
  0007a	5f		 pop	 rdi
  0007b	5d		 pop	 rbp
  0007c	c3		 ret	 0
?dtor$2@?0??initQueueThread@CCoreList@@QEAA_NPEAD0@Z@4HA ENDP ; `CCoreList::initQueueThread'::`1'::dtor$2
text$x	ENDS
; Function compile flags: /Odtp /RTCsu
; File e:\infinia-library-3.0\com\src\comcore.cpp
_TEXT	SEGMENT
nCount$ = 32
i$ = 36
nMax$ = 40
idx$ = 52
pScheduler$ = 72
szErrorMsg$ = 96
$T5 = 240
$T6 = 248
$T7 = 256
$T8 = 264
$T9 = 272
$T10 = 280
$T11 = 288
tv85 = 296
tv157 = 304
tv179 = 312
__$ArrayPad$ = 320
this$ = 352
pConfigFile$ = 360
pSection$ = 368
?initScheduler@CCoreList@@QEAA_NPEAD0@Z PROC		; CCoreList::initScheduler

; 734  : {

$LN23:
  00000	4c 89 44 24 18	 mov	 QWORD PTR [rsp+24], r8
  00005	48 89 54 24 10	 mov	 QWORD PTR [rsp+16], rdx
  0000a	48 89 4c 24 08	 mov	 QWORD PTR [rsp+8], rcx
  0000f	57		 push	 rdi
  00010	48 81 ec 50 01
	00 00		 sub	 rsp, 336		; 00000150H
  00017	48 8b fc	 mov	 rdi, rsp
  0001a	b9 54 00 00 00	 mov	 ecx, 84			; 00000054H
  0001f	b8 cc cc cc cc	 mov	 eax, -858993460		; ccccccccH
  00024	f3 ab		 rep stosd
  00026	48 8b 8c 24 60
	01 00 00	 mov	 rcx, QWORD PTR [rsp+352]
  0002e	48 c7 84 24 20
	01 00 00 fe ff
	ff ff		 mov	 QWORD PTR $T11[rsp], -2
  0003a	48 8b 05 00 00
	00 00		 mov	 rax, QWORD PTR __security_cookie
  00041	48 33 c4	 xor	 rax, rsp
  00044	48 89 84 24 40
	01 00 00	 mov	 QWORD PTR __$ArrayPad$[rsp], rax

; 735  : 	int nCount, i, nMax, idx;
; 736  : 	CScheduler *pScheduler;
; 737  : 	char szErrorMsg[128];
; 738  : 	// scheduler
; 739  : 	nCount = GetPrivateProfileInt(pSection, _T("LIST_COUNT"), 0, pConfigFile);

  0004c	4c 8b 8c 24 68
	01 00 00	 mov	 r9, QWORD PTR pConfigFile$[rsp]
  00054	45 33 c0	 xor	 r8d, r8d
  00057	48 8d 15 00 00
	00 00		 lea	 rdx, OFFSET FLAT:$SG46113
  0005e	48 8b 8c 24 70
	01 00 00	 mov	 rcx, QWORD PTR pSection$[rsp]
  00066	ff 15 00 00 00
	00		 call	 QWORD PTR __imp_GetPrivateProfileIntA
  0006c	89 44 24 20	 mov	 DWORD PTR nCount$[rsp], eax

; 740  : 	if (nCount) {

  00070	83 7c 24 20 00	 cmp	 DWORD PTR nCount$[rsp], 0
  00075	0f 84 60 03 00
	00		 je	 $LN5@initSchedu

; 741  : 		if (!m_pSchedulerList) {

  0007b	48 8b 84 24 60
	01 00 00	 mov	 rax, QWORD PTR this$[rsp]
  00083	48 83 78 08 00	 cmp	 QWORD PTR [rax+8], 0
  00088	0f 85 03 01 00
	00		 jne	 $LN6@initSchedu

; 742  : 			m_pSchedulerList = new (std::nothrow) CTList<CScheduler>();

  0008e	48 8d 15 00 00
	00 00		 lea	 rdx, OFFSET FLAT:?nothrow@std@@3Unothrow_t@1@B ; std::nothrow
  00095	b9 20 00 00 00	 mov	 ecx, 32			; 00000020H
  0009a	e8 00 00 00 00	 call	 ??2@YAPEAX_KAEBUnothrow_t@std@@@Z ; operator new
  0009f	48 89 84 24 f8
	00 00 00	 mov	 QWORD PTR $T6[rsp], rax
  000a7	48 83 bc 24 f8
	00 00 00 00	 cmp	 QWORD PTR $T6[rsp], 0
  000b0	74 17		 je	 SHORT $LN14@initSchedu
  000b2	48 8b 8c 24 f8
	00 00 00	 mov	 rcx, QWORD PTR $T6[rsp]
  000ba	e8 00 00 00 00	 call	 ??0?$CTList@VCScheduler@@@@QEAA@XZ ; CTList<CScheduler>::CTList<CScheduler>
  000bf	48 89 84 24 28
	01 00 00	 mov	 QWORD PTR tv85[rsp], rax
  000c7	eb 0c		 jmp	 SHORT $LN15@initSchedu
$LN14@initSchedu:
  000c9	48 c7 84 24 28
	01 00 00 00 00
	00 00		 mov	 QWORD PTR tv85[rsp], 0
$LN15@initSchedu:
  000d5	48 8b 84 24 28
	01 00 00	 mov	 rax, QWORD PTR tv85[rsp]
  000dd	48 89 84 24 f0
	00 00 00	 mov	 QWORD PTR $T5[rsp], rax
  000e5	48 8b 84 24 60
	01 00 00	 mov	 rax, QWORD PTR this$[rsp]
  000ed	48 8b 8c 24 f0
	00 00 00	 mov	 rcx, QWORD PTR $T5[rsp]
  000f5	48 89 48 08	 mov	 QWORD PTR [rax+8], rcx

; 743  : 			if (!m_pSchedulerList) {

  000f9	48 8b 84 24 60
	01 00 00	 mov	 rax, QWORD PTR this$[rsp]
  00101	48 83 78 08 00	 cmp	 QWORD PTR [rax+8], 0
  00106	75 2f		 jne	 SHORT $LN7@initSchedu

; 744  : 				sprintf(szErrorMsg, "new (std::nothrow) CTList<CScheduler>() is NULL");

  00108	48 8d 15 00 00
	00 00		 lea	 rdx, OFFSET FLAT:$SG46118
  0010f	48 8d 4c 24 60	 lea	 rcx, QWORD PTR szErrorMsg$[rsp]
  00114	e8 00 00 00 00	 call	 sprintf

; 745  : 				comErrorPrint(szErrorMsg);

  00119	41 b8 e9 02 00
	00		 mov	 r8d, 745		; 000002e9H
  0011f	48 8d 15 00 00
	00 00		 lea	 rdx, OFFSET FLAT:$SG46119
  00126	48 8d 4c 24 60	 lea	 rcx, QWORD PTR szErrorMsg$[rsp]
  0012b	e8 00 00 00 00	 call	 ?comGlobalErrorProc@@YAXPEADPEBDH@Z ; comGlobalErrorProc

; 746  : 				return false;

  00130	32 c0		 xor	 al, al
  00132	e9 a6 02 00 00	 jmp	 $LN1@initSchedu
$LN7@initSchedu:

; 747  : 			}
; 748  : 			if (!m_pSchedulerList->alloc(nCount + LIST_ADD_COUNT, eAlloc_Type_none)) {

  00137	8b 44 24 20	 mov	 eax, DWORD PTR nCount$[rsp]
  0013b	83 c0 0a	 add	 eax, 10
  0013e	45 33 c0	 xor	 r8d, r8d
  00141	8b d0		 mov	 edx, eax
  00143	48 8b 84 24 60
	01 00 00	 mov	 rax, QWORD PTR this$[rsp]
  0014b	48 8b 48 08	 mov	 rcx, QWORD PTR [rax+8]
  0014f	e8 00 00 00 00	 call	 ?alloc@?$CTList@VCScheduler@@@@QEAAHHW4E_ALLOC_TYPE@@@Z ; CTList<CScheduler>::alloc
  00154	85 c0		 test	 eax, eax
  00156	75 39		 jne	 SHORT $LN6@initSchedu

; 749  : 				sprintf(szErrorMsg, "m_pSchedulerList->alloc nCnt[%d]", nCount + LIST_ADD_COUNT);

  00158	8b 44 24 20	 mov	 eax, DWORD PTR nCount$[rsp]
  0015c	83 c0 0a	 add	 eax, 10
  0015f	44 8b c0	 mov	 r8d, eax
  00162	48 8d 15 00 00
	00 00		 lea	 rdx, OFFSET FLAT:$SG46121
  00169	48 8d 4c 24 60	 lea	 rcx, QWORD PTR szErrorMsg$[rsp]
  0016e	e8 00 00 00 00	 call	 sprintf

; 750  : 				comErrorPrint(szErrorMsg);

  00173	41 b8 ee 02 00
	00		 mov	 r8d, 750		; 000002eeH
  00179	48 8d 15 00 00
	00 00		 lea	 rdx, OFFSET FLAT:$SG46122
  00180	48 8d 4c 24 60	 lea	 rcx, QWORD PTR szErrorMsg$[rsp]
  00185	e8 00 00 00 00	 call	 ?comGlobalErrorProc@@YAXPEADPEBDH@Z ; comGlobalErrorProc

; 751  : 				return false;

  0018a	32 c0		 xor	 al, al
  0018c	e9 4c 02 00 00	 jmp	 $LN1@initSchedu
$LN6@initSchedu:

; 752  : 			}
; 753  : 		}
; 754  : 
; 755  : 		nMax = GetPrivateProfileInt(pSection, _T("TIME_POOL_MAX"), 0, pConfigFile) + CORE_PLUS_POOL_COUNT;

  00191	4c 8b 8c 24 68
	01 00 00	 mov	 r9, QWORD PTR pConfigFile$[rsp]
  00199	45 33 c0	 xor	 r8d, r8d
  0019c	48 8d 15 00 00
	00 00		 lea	 rdx, OFFSET FLAT:$SG46123
  001a3	48 8b 8c 24 70
	01 00 00	 mov	 rcx, QWORD PTR pSection$[rsp]
  001ab	ff 15 00 00 00
	00		 call	 QWORD PTR __imp_GetPrivateProfileIntA
  001b1	83 c0 0a	 add	 eax, 10
  001b4	89 44 24 28	 mov	 DWORD PTR nMax$[rsp], eax

; 756  : 		m_pIntervalPool = new (std::nothrow) CMemPool<STIntervalInfo>();

  001b8	48 8d 15 00 00
	00 00		 lea	 rdx, OFFSET FLAT:?nothrow@std@@3Unothrow_t@1@B ; std::nothrow
  001bf	b9 28 00 00 00	 mov	 ecx, 40			; 00000028H
  001c4	e8 00 00 00 00	 call	 ??2@YAPEAX_KAEBUnothrow_t@std@@@Z ; operator new
  001c9	48 89 84 24 08
	01 00 00	 mov	 QWORD PTR $T8[rsp], rax
  001d1	48 83 bc 24 08
	01 00 00 00	 cmp	 QWORD PTR $T8[rsp], 0
  001da	74 17		 je	 SHORT $LN16@initSchedu
  001dc	48 8b 8c 24 08
	01 00 00	 mov	 rcx, QWORD PTR $T8[rsp]
  001e4	e8 00 00 00 00	 call	 ??0?$CMemPool@USTIntervalInfo@@@@QEAA@XZ ; CMemPool<STIntervalInfo>::CMemPool<STIntervalInfo>
  001e9	48 89 84 24 30
	01 00 00	 mov	 QWORD PTR tv157[rsp], rax
  001f1	eb 0c		 jmp	 SHORT $LN17@initSchedu
$LN16@initSchedu:
  001f3	48 c7 84 24 30
	01 00 00 00 00
	00 00		 mov	 QWORD PTR tv157[rsp], 0
$LN17@initSchedu:
  001ff	48 8b 84 24 30
	01 00 00	 mov	 rax, QWORD PTR tv157[rsp]
  00207	48 89 84 24 00
	01 00 00	 mov	 QWORD PTR $T7[rsp], rax
  0020f	48 8b 84 24 60
	01 00 00	 mov	 rax, QWORD PTR this$[rsp]
  00217	48 8b 8c 24 00
	01 00 00	 mov	 rcx, QWORD PTR $T7[rsp]
  0021f	48 89 48 20	 mov	 QWORD PTR [rax+32], rcx

; 757  : 		if (!m_pIntervalPool->alloc(nMax, eAlloc_Type_alloc)) {

  00223	41 b8 03 00 00
	00		 mov	 r8d, 3
  00229	8b 54 24 28	 mov	 edx, DWORD PTR nMax$[rsp]
  0022d	48 8b 84 24 60
	01 00 00	 mov	 rax, QWORD PTR this$[rsp]
  00235	48 8b 48 20	 mov	 rcx, QWORD PTR [rax+32]
  00239	e8 00 00 00 00	 call	 ?alloc@?$CMemPool@USTIntervalInfo@@@@QEAAHHW4E_ALLOC_TYPE@@@Z ; CMemPool<STIntervalInfo>::alloc
  0023e	85 c0		 test	 eax, eax
  00240	75 17		 jne	 SHORT $LN9@initSchedu

; 758  : 			printf("has Failed!! m_pIntervalPool.alloc(%d)\n", nMax);

  00242	8b 54 24 28	 mov	 edx, DWORD PTR nMax$[rsp]
  00246	48 8d 0d 00 00
	00 00		 lea	 rcx, OFFSET FLAT:$SG46126
  0024d	e8 00 00 00 00	 call	 printf

; 759  : 			return false;

  00252	32 c0		 xor	 al, al
  00254	e9 84 01 00 00	 jmp	 $LN1@initSchedu
$LN9@initSchedu:

; 760  : 		}
; 761  : 
; 762  : 		for (i = 0; i < nCount; i++) {

  00259	c7 44 24 24 00
	00 00 00	 mov	 DWORD PTR i$[rsp], 0
  00261	eb 0a		 jmp	 SHORT $LN4@initSchedu
$LN2@initSchedu:
  00263	8b 44 24 24	 mov	 eax, DWORD PTR i$[rsp]
  00267	ff c0		 inc	 eax
  00269	89 44 24 24	 mov	 DWORD PTR i$[rsp], eax
$LN4@initSchedu:
  0026d	8b 44 24 20	 mov	 eax, DWORD PTR nCount$[rsp]
  00271	39 44 24 24	 cmp	 DWORD PTR i$[rsp], eax
  00275	0f 8d 60 01 00
	00		 jge	 $LN5@initSchedu

; 763  : 			pScheduler = new (std::nothrow) CScheduler();

  0027b	48 8d 15 00 00
	00 00		 lea	 rdx, OFFSET FLAT:?nothrow@std@@3Unothrow_t@1@B ; std::nothrow
  00282	b9 60 00 00 00	 mov	 ecx, 96			; 00000060H
  00287	e8 00 00 00 00	 call	 ??2@YAPEAX_KAEBUnothrow_t@std@@@Z ; operator new
  0028c	48 89 84 24 18
	01 00 00	 mov	 QWORD PTR $T10[rsp], rax
  00294	48 83 bc 24 18
	01 00 00 00	 cmp	 QWORD PTR $T10[rsp], 0
  0029d	74 17		 je	 SHORT $LN18@initSchedu
  0029f	48 8b 8c 24 18
	01 00 00	 mov	 rcx, QWORD PTR $T10[rsp]
  002a7	e8 00 00 00 00	 call	 ??0CScheduler@@QEAA@XZ	; CScheduler::CScheduler
  002ac	48 89 84 24 38
	01 00 00	 mov	 QWORD PTR tv179[rsp], rax
  002b4	eb 0c		 jmp	 SHORT $LN19@initSchedu
$LN18@initSchedu:
  002b6	48 c7 84 24 38
	01 00 00 00 00
	00 00		 mov	 QWORD PTR tv179[rsp], 0
$LN19@initSchedu:
  002c2	48 8b 84 24 38
	01 00 00	 mov	 rax, QWORD PTR tv179[rsp]
  002ca	48 89 84 24 10
	01 00 00	 mov	 QWORD PTR $T9[rsp], rax
  002d2	48 8b 84 24 10
	01 00 00	 mov	 rax, QWORD PTR $T9[rsp]
  002da	48 89 44 24 48	 mov	 QWORD PTR pScheduler$[rsp], rax

; 764  : 			if (!pScheduler) {

  002df	48 83 7c 24 48
	00		 cmp	 QWORD PTR pScheduler$[rsp], 0
  002e5	75 34		 jne	 SHORT $LN10@initSchedu

; 765  : 				sprintf(szErrorMsg, "[seq:%d] new (std::nothrow) CScheduler() is NULL", i);

  002e7	44 8b 44 24 24	 mov	 r8d, DWORD PTR i$[rsp]
  002ec	48 8d 15 00 00
	00 00		 lea	 rdx, OFFSET FLAT:$SG46129
  002f3	48 8d 4c 24 60	 lea	 rcx, QWORD PTR szErrorMsg$[rsp]
  002f8	e8 00 00 00 00	 call	 sprintf

; 766  : 				comErrorPrint(szErrorMsg);

  002fd	41 b8 fe 02 00
	00		 mov	 r8d, 766		; 000002feH
  00303	48 8d 15 00 00
	00 00		 lea	 rdx, OFFSET FLAT:$SG46130
  0030a	48 8d 4c 24 60	 lea	 rcx, QWORD PTR szErrorMsg$[rsp]
  0030f	e8 00 00 00 00	 call	 ?comGlobalErrorProc@@YAXPEADPEBDH@Z ; comGlobalErrorProc

; 767  : 				return false;

  00314	32 c0		 xor	 al, al
  00316	e9 c2 00 00 00	 jmp	 $LN1@initSchedu
$LN10@initSchedu:

; 768  : 			}
; 769  : 			if (!pScheduler->initConfig(pConfigFile, i, pSection)) {

  0031b	4c 8b 8c 24 70
	01 00 00	 mov	 r9, QWORD PTR pSection$[rsp]
  00323	44 8b 44 24 24	 mov	 r8d, DWORD PTR i$[rsp]
  00328	48 8b 94 24 68
	01 00 00	 mov	 rdx, QWORD PTR pConfigFile$[rsp]
  00330	48 8b 4c 24 48	 mov	 rcx, QWORD PTR pScheduler$[rsp]
  00335	e8 00 00 00 00	 call	 ?initConfig@CScheduler@@QEAA_NPEADH0@Z ; CScheduler::initConfig
  0033a	0f b6 c0	 movzx	 eax, al
  0033d	85 c0		 test	 eax, eax
  0033f	75 31		 jne	 SHORT $LN11@initSchedu

; 770  : 				sprintf(szErrorMsg, "[seq:%d] pScheduler->init", i);

  00341	44 8b 44 24 24	 mov	 r8d, DWORD PTR i$[rsp]
  00346	48 8d 15 00 00
	00 00		 lea	 rdx, OFFSET FLAT:$SG46132
  0034d	48 8d 4c 24 60	 lea	 rcx, QWORD PTR szErrorMsg$[rsp]
  00352	e8 00 00 00 00	 call	 sprintf

; 771  : 				comErrorPrint(szErrorMsg);

  00357	41 b8 03 03 00
	00		 mov	 r8d, 771		; 00000303H
  0035d	48 8d 15 00 00
	00 00		 lea	 rdx, OFFSET FLAT:$SG46133
  00364	48 8d 4c 24 60	 lea	 rcx, QWORD PTR szErrorMsg$[rsp]
  00369	e8 00 00 00 00	 call	 ?comGlobalErrorProc@@YAXPEADPEBDH@Z ; comGlobalErrorProc

; 772  : 				return false;

  0036e	32 c0		 xor	 al, al
  00370	eb 6b		 jmp	 SHORT $LN1@initSchedu
$LN11@initSchedu:

; 773  : 			}
; 774  : 			if (!m_pSchedulerList->push_back(pScheduler, &idx)) {

  00372	4c 8d 44 24 34	 lea	 r8, QWORD PTR idx$[rsp]
  00377	48 8b 54 24 48	 mov	 rdx, QWORD PTR pScheduler$[rsp]
  0037c	48 8b 84 24 60
	01 00 00	 mov	 rax, QWORD PTR this$[rsp]
  00384	48 8b 48 08	 mov	 rcx, QWORD PTR [rax+8]
  00388	e8 00 00 00 00	 call	 ?push_back@?$CTList@VCScheduler@@@@QEAA_NPEAVCScheduler@@PEAH@Z ; CTList<CScheduler>::push_back
  0038d	0f b6 c0	 movzx	 eax, al
  00390	85 c0		 test	 eax, eax
  00392	75 31		 jne	 SHORT $LN12@initSchedu

; 775  : 				sprintf(szErrorMsg, "[seq:%d] pScheduler->push_back", idx);

  00394	44 8b 44 24 34	 mov	 r8d, DWORD PTR idx$[rsp]
  00399	48 8d 15 00 00
	00 00		 lea	 rdx, OFFSET FLAT:$SG46135
  003a0	48 8d 4c 24 60	 lea	 rcx, QWORD PTR szErrorMsg$[rsp]
  003a5	e8 00 00 00 00	 call	 sprintf

; 776  : 				comErrorPrint(szErrorMsg);

  003aa	41 b8 08 03 00
	00		 mov	 r8d, 776		; 00000308H
  003b0	48 8d 15 00 00
	00 00		 lea	 rdx, OFFSET FLAT:$SG46136
  003b7	48 8d 4c 24 60	 lea	 rcx, QWORD PTR szErrorMsg$[rsp]
  003bc	e8 00 00 00 00	 call	 ?comGlobalErrorProc@@YAXPEADPEBDH@Z ; comGlobalErrorProc

; 777  : 				return false;

  003c1	32 c0		 xor	 al, al
  003c3	eb 18		 jmp	 SHORT $LN1@initSchedu
$LN12@initSchedu:

; 778  : 			}
; 779  : 			pScheduler->m_cThread.setIdx(idx);

  003c5	48 8b 44 24 48	 mov	 rax, QWORD PTR pScheduler$[rsp]
  003ca	8b 54 24 34	 mov	 edx, DWORD PTR idx$[rsp]
  003ce	48 8b c8	 mov	 rcx, rax
  003d1	e8 00 00 00 00	 call	 ?setIdx@CComThread@@QEAAXH@Z ; CComThread::setIdx

; 780  : 		}

  003d6	e9 88 fe ff ff	 jmp	 $LN2@initSchedu
$LN5@initSchedu:

; 781  : 	}
; 782  : 	return true;

  003db	b0 01		 mov	 al, 1
$LN1@initSchedu:

; 783  : }

  003dd	48 8b f8	 mov	 rdi, rax
  003e0	48 8b cc	 mov	 rcx, rsp
  003e3	48 8d 15 00 00
	00 00		 lea	 rdx, OFFSET FLAT:?initScheduler@CCoreList@@QEAA_NPEAD0@Z$rtcFrameData
  003ea	e8 00 00 00 00	 call	 _RTC_CheckStackVars
  003ef	48 8b c7	 mov	 rax, rdi
  003f2	48 8b 8c 24 40
	01 00 00	 mov	 rcx, QWORD PTR __$ArrayPad$[rsp]
  003fa	48 33 cc	 xor	 rcx, rsp
  003fd	e8 00 00 00 00	 call	 __security_check_cookie
  00402	48 81 c4 50 01
	00 00		 add	 rsp, 336		; 00000150H
  00409	5f		 pop	 rdi
  0040a	c3		 ret	 0
?initScheduler@CCoreList@@QEAA_NPEAD0@Z ENDP		; CCoreList::initScheduler
_TEXT	ENDS
text$x	SEGMENT
nCount$ = 32
i$ = 36
nMax$ = 40
idx$ = 52
pScheduler$ = 72
szErrorMsg$ = 96
$T5 = 240
$T6 = 248
$T7 = 256
$T8 = 264
$T9 = 272
$T10 = 280
$T11 = 288
tv85 = 296
tv157 = 304
tv179 = 312
__$ArrayPad$ = 320
this$ = 352
pConfigFile$ = 360
pSection$ = 368
?dtor$0@?0??initScheduler@CCoreList@@QEAA_NPEAD0@Z@4HA PROC ; `CCoreList::initScheduler'::`1'::dtor$0
  00000	48 89 4c 24 08	 mov	 QWORD PTR [rsp+8], rcx
  00005	48 89 54 24 10	 mov	 QWORD PTR [rsp+16], rdx
  0000a	55		 push	 rbp
  0000b	57		 push	 rdi
  0000c	48 83 ec 28	 sub	 rsp, 40			; 00000028H
  00010	48 8b ea	 mov	 rbp, rdx
  00013	48 8d 15 00 00
	00 00		 lea	 rdx, OFFSET FLAT:?nothrow@std@@3Unothrow_t@1@B ; std::nothrow
  0001a	48 8b 8d f8 00
	00 00		 mov	 rcx, QWORD PTR $T6[rbp]
  00021	e8 00 00 00 00	 call	 ??3@YAXPEAXAEBUnothrow_t@std@@@Z ; operator delete
  00026	48 83 c4 28	 add	 rsp, 40			; 00000028H
  0002a	5f		 pop	 rdi
  0002b	5d		 pop	 rbp
  0002c	c3		 ret	 0
?dtor$0@?0??initScheduler@CCoreList@@QEAA_NPEAD0@Z@4HA ENDP ; `CCoreList::initScheduler'::`1'::dtor$0
nCount$ = 32
i$ = 36
nMax$ = 40
idx$ = 52
pScheduler$ = 72
szErrorMsg$ = 96
$T5 = 240
$T6 = 248
$T7 = 256
$T8 = 264
$T9 = 272
$T10 = 280
$T11 = 288
tv85 = 296
tv157 = 304
tv179 = 312
__$ArrayPad$ = 320
this$ = 352
pConfigFile$ = 360
pSection$ = 368
?dtor$1@?0??initScheduler@CCoreList@@QEAA_NPEAD0@Z@4HA PROC ; `CCoreList::initScheduler'::`1'::dtor$1
  0002d	48 89 4c 24 08	 mov	 QWORD PTR [rsp+8], rcx
  00032	48 89 54 24 10	 mov	 QWORD PTR [rsp+16], rdx
  00037	55		 push	 rbp
  00038	57		 push	 rdi
  00039	48 83 ec 28	 sub	 rsp, 40			; 00000028H
  0003d	48 8b ea	 mov	 rbp, rdx
  00040	48 8d 15 00 00
	00 00		 lea	 rdx, OFFSET FLAT:?nothrow@std@@3Unothrow_t@1@B ; std::nothrow
  00047	48 8b 8d 08 01
	00 00		 mov	 rcx, QWORD PTR $T8[rbp]
  0004e	e8 00 00 00 00	 call	 ??3@YAXPEAXAEBUnothrow_t@std@@@Z ; operator delete
  00053	48 83 c4 28	 add	 rsp, 40			; 00000028H
  00057	5f		 pop	 rdi
  00058	5d		 pop	 rbp
  00059	c3		 ret	 0
?dtor$1@?0??initScheduler@CCoreList@@QEAA_NPEAD0@Z@4HA ENDP ; `CCoreList::initScheduler'::`1'::dtor$1
nCount$ = 32
i$ = 36
nMax$ = 40
idx$ = 52
pScheduler$ = 72
szErrorMsg$ = 96
$T5 = 240
$T6 = 248
$T7 = 256
$T8 = 264
$T9 = 272
$T10 = 280
$T11 = 288
tv85 = 296
tv157 = 304
tv179 = 312
__$ArrayPad$ = 320
this$ = 352
pConfigFile$ = 360
pSection$ = 368
?dtor$2@?0??initScheduler@CCoreList@@QEAA_NPEAD0@Z@4HA PROC ; `CCoreList::initScheduler'::`1'::dtor$2
  0005a	48 89 4c 24 08	 mov	 QWORD PTR [rsp+8], rcx
  0005f	48 89 54 24 10	 mov	 QWORD PTR [rsp+16], rdx
  00064	55		 push	 rbp
  00065	57		 push	 rdi
  00066	48 83 ec 28	 sub	 rsp, 40			; 00000028H
  0006a	48 8b ea	 mov	 rbp, rdx
  0006d	48 8d 15 00 00
	00 00		 lea	 rdx, OFFSET FLAT:?nothrow@std@@3Unothrow_t@1@B ; std::nothrow
  00074	48 8b 8d 18 01
	00 00		 mov	 rcx, QWORD PTR $T10[rbp]
  0007b	e8 00 00 00 00	 call	 ??3@YAXPEAXAEBUnothrow_t@std@@@Z ; operator delete
  00080	48 83 c4 28	 add	 rsp, 40			; 00000028H
  00084	5f		 pop	 rdi
  00085	5d		 pop	 rbp
  00086	c3		 ret	 0
?dtor$2@?0??initScheduler@CCoreList@@QEAA_NPEAD0@Z@4HA ENDP ; `CCoreList::initScheduler'::`1'::dtor$2
text$x	ENDS
; Function compile flags: /Odtp /RTCsu
text$x	SEGMENT
nCount$ = 32
i$ = 36
nMax$ = 40
idx$ = 52
pScheduler$ = 72
szErrorMsg$ = 96
$T5 = 240
$T6 = 248
$T7 = 256
$T8 = 264
$T9 = 272
$T10 = 280
$T11 = 288
tv85 = 296
tv157 = 304
tv179 = 312
__$ArrayPad$ = 320
this$ = 352
pConfigFile$ = 360
pSection$ = 368
?dtor$0@?0??initScheduler@CCoreList@@QEAA_NPEAD0@Z@4HA PROC ; `CCoreList::initScheduler'::`1'::dtor$0
  00000	48 89 4c 24 08	 mov	 QWORD PTR [rsp+8], rcx
  00005	48 89 54 24 10	 mov	 QWORD PTR [rsp+16], rdx
  0000a	55		 push	 rbp
  0000b	57		 push	 rdi
  0000c	48 83 ec 28	 sub	 rsp, 40			; 00000028H
  00010	48 8b ea	 mov	 rbp, rdx
  00013	48 8d 15 00 00
	00 00		 lea	 rdx, OFFSET FLAT:?nothrow@std@@3Unothrow_t@1@B ; std::nothrow
  0001a	48 8b 8d f8 00
	00 00		 mov	 rcx, QWORD PTR $T6[rbp]
  00021	e8 00 00 00 00	 call	 ??3@YAXPEAXAEBUnothrow_t@std@@@Z ; operator delete
  00026	48 83 c4 28	 add	 rsp, 40			; 00000028H
  0002a	5f		 pop	 rdi
  0002b	5d		 pop	 rbp
  0002c	c3		 ret	 0
?dtor$0@?0??initScheduler@CCoreList@@QEAA_NPEAD0@Z@4HA ENDP ; `CCoreList::initScheduler'::`1'::dtor$0
text$x	ENDS
; Function compile flags: /Odtp /RTCsu
text$x	SEGMENT
nCount$ = 32
i$ = 36
nMax$ = 40
idx$ = 52
pScheduler$ = 72
szErrorMsg$ = 96
$T5 = 240
$T6 = 248
$T7 = 256
$T8 = 264
$T9 = 272
$T10 = 280
$T11 = 288
tv85 = 296
tv157 = 304
tv179 = 312
__$ArrayPad$ = 320
this$ = 352
pConfigFile$ = 360
pSection$ = 368
?dtor$1@?0??initScheduler@CCoreList@@QEAA_NPEAD0@Z@4HA PROC ; `CCoreList::initScheduler'::`1'::dtor$1
  0002d	48 89 4c 24 08	 mov	 QWORD PTR [rsp+8], rcx
  00032	48 89 54 24 10	 mov	 QWORD PTR [rsp+16], rdx
  00037	55		 push	 rbp
  00038	57		 push	 rdi
  00039	48 83 ec 28	 sub	 rsp, 40			; 00000028H
  0003d	48 8b ea	 mov	 rbp, rdx
  00040	48 8d 15 00 00
	00 00		 lea	 rdx, OFFSET FLAT:?nothrow@std@@3Unothrow_t@1@B ; std::nothrow
  00047	48 8b 8d 08 01
	00 00		 mov	 rcx, QWORD PTR $T8[rbp]
  0004e	e8 00 00 00 00	 call	 ??3@YAXPEAXAEBUnothrow_t@std@@@Z ; operator delete
  00053	48 83 c4 28	 add	 rsp, 40			; 00000028H
  00057	5f		 pop	 rdi
  00058	5d		 pop	 rbp
  00059	c3		 ret	 0
?dtor$1@?0??initScheduler@CCoreList@@QEAA_NPEAD0@Z@4HA ENDP ; `CCoreList::initScheduler'::`1'::dtor$1
text$x	ENDS
; Function compile flags: /Odtp /RTCsu
text$x	SEGMENT
nCount$ = 32
i$ = 36
nMax$ = 40
idx$ = 52
pScheduler$ = 72
szErrorMsg$ = 96
$T5 = 240
$T6 = 248
$T7 = 256
$T8 = 264
$T9 = 272
$T10 = 280
$T11 = 288
tv85 = 296
tv157 = 304
tv179 = 312
__$ArrayPad$ = 320
this$ = 352
pConfigFile$ = 360
pSection$ = 368
?dtor$2@?0??initScheduler@CCoreList@@QEAA_NPEAD0@Z@4HA PROC ; `CCoreList::initScheduler'::`1'::dtor$2
  0005a	48 89 4c 24 08	 mov	 QWORD PTR [rsp+8], rcx
  0005f	48 89 54 24 10	 mov	 QWORD PTR [rsp+16], rdx
  00064	55		 push	 rbp
  00065	57		 push	 rdi
  00066	48 83 ec 28	 sub	 rsp, 40			; 00000028H
  0006a	48 8b ea	 mov	 rbp, rdx
  0006d	48 8d 15 00 00
	00 00		 lea	 rdx, OFFSET FLAT:?nothrow@std@@3Unothrow_t@1@B ; std::nothrow
  00074	48 8b 8d 18 01
	00 00		 mov	 rcx, QWORD PTR $T10[rbp]
  0007b	e8 00 00 00 00	 call	 ??3@YAXPEAXAEBUnothrow_t@std@@@Z ; operator delete
  00080	48 83 c4 28	 add	 rsp, 40			; 00000028H
  00084	5f		 pop	 rdi
  00085	5d		 pop	 rbp
  00086	c3		 ret	 0
?dtor$2@?0??initScheduler@CCoreList@@QEAA_NPEAD0@Z@4HA ENDP ; `CCoreList::initScheduler'::`1'::dtor$2
text$x	ENDS
; Function compile flags: /Odtp /RTCsu
; File e:\infinia-library-3.0\com\src\comcore.cpp
_TEXT	SEGMENT
nCount$ = 32
i$ = 36
idx$ = 52
pWriter$ = 72
szErrorMsg$ = 96
bRes$ = 228
$T5 = 240
$T6 = 248
$T7 = 256
$T8 = 264
$T9 = 272
tv86 = 280
tv146 = 288
__$ArrayPad$ = 296
this$ = 320
pConfigFile$ = 328
pSection$ = 336
bSystem$ = 344
?initLogWriter@CCoreList@@QEAA_NPEAD0_N@Z PROC		; CCoreList::initLogWriter

; 687  : {

$LN20:
  00000	44 88 4c 24 20	 mov	 BYTE PTR [rsp+32], r9b
  00005	4c 89 44 24 18	 mov	 QWORD PTR [rsp+24], r8
  0000a	48 89 54 24 10	 mov	 QWORD PTR [rsp+16], rdx
  0000f	48 89 4c 24 08	 mov	 QWORD PTR [rsp+8], rcx
  00014	57		 push	 rdi
  00015	48 81 ec 30 01
	00 00		 sub	 rsp, 304		; 00000130H
  0001c	48 8b fc	 mov	 rdi, rsp
  0001f	b9 4c 00 00 00	 mov	 ecx, 76			; 0000004cH
  00024	b8 cc cc cc cc	 mov	 eax, -858993460		; ccccccccH
  00029	f3 ab		 rep stosd
  0002b	48 8b 8c 24 40
	01 00 00	 mov	 rcx, QWORD PTR [rsp+320]
  00033	48 c7 84 24 10
	01 00 00 fe ff
	ff ff		 mov	 QWORD PTR $T9[rsp], -2
  0003f	48 8b 05 00 00
	00 00		 mov	 rax, QWORD PTR __security_cookie
  00046	48 33 c4	 xor	 rax, rsp
  00049	48 89 84 24 28
	01 00 00	 mov	 QWORD PTR __$ArrayPad$[rsp], rax

; 688  : 	int nCount, i, idx;
; 689  : 	CSTLogger *pWriter;
; 690  : 	char szErrorMsg[128];
; 691  : 	bool bRes;
; 692  : 
; 693  : 	nCount = GetPrivateProfileInt(pSection, _T("LIST_COUNT"), 1, pConfigFile);

  00051	4c 8b 8c 24 48
	01 00 00	 mov	 r9, QWORD PTR pConfigFile$[rsp]
  00059	41 b8 01 00 00
	00		 mov	 r8d, 1
  0005f	48 8d 15 00 00
	00 00		 lea	 rdx, OFFSET FLAT:$SG46059
  00066	48 8b 8c 24 50
	01 00 00	 mov	 rcx, QWORD PTR pSection$[rsp]
  0006e	ff 15 00 00 00
	00		 call	 QWORD PTR __imp_GetPrivateProfileIntA
  00074	89 44 24 20	 mov	 DWORD PTR nCount$[rsp], eax

; 694  : 	if (nCount) {

  00078	83 7c 24 20 00	 cmp	 DWORD PTR nCount$[rsp], 0
  0007d	0f 84 92 02 00
	00		 je	 $LN5@initLogWri

; 695  : 		if (!m_pWriterList) {

  00083	48 8b 84 24 40
	01 00 00	 mov	 rax, QWORD PTR this$[rsp]
  0008b	48 83 38 00	 cmp	 QWORD PTR [rax], 0
  0008f	0f 85 ce 00 00
	00		 jne	 $LN6@initLogWri

; 696  : 			m_pWriterList = new CTList<CSTLogger>();

  00095	b9 20 00 00 00	 mov	 ecx, 32			; 00000020H
  0009a	e8 00 00 00 00	 call	 ??2@YAPEAX_K@Z		; operator new
  0009f	48 89 84 24 f8
	00 00 00	 mov	 QWORD PTR $T6[rsp], rax
  000a7	48 83 bc 24 f8
	00 00 00 00	 cmp	 QWORD PTR $T6[rsp], 0
  000b0	74 29		 je	 SHORT $LN14@initLogWri
  000b2	ba 20 00 00 00	 mov	 edx, 32			; 00000020H
  000b7	48 8b 8c 24 f8
	00 00 00	 mov	 rcx, QWORD PTR $T6[rsp]
  000bf	e8 00 00 00 00	 call	 ?__autoclassinit2@?$CTList@VCSTLogger@@@@QEAAX_K@Z
  000c4	48 8b 8c 24 f8
	00 00 00	 mov	 rcx, QWORD PTR $T6[rsp]
  000cc	e8 00 00 00 00	 call	 ??0?$CTList@VCSTLogger@@@@QEAA@XZ ; CTList<CSTLogger>::CTList<CSTLogger>
  000d1	48 89 84 24 18
	01 00 00	 mov	 QWORD PTR tv86[rsp], rax
  000d9	eb 0c		 jmp	 SHORT $LN15@initLogWri
$LN14@initLogWri:
  000db	48 c7 84 24 18
	01 00 00 00 00
	00 00		 mov	 QWORD PTR tv86[rsp], 0
$LN15@initLogWri:
  000e7	48 8b 84 24 18
	01 00 00	 mov	 rax, QWORD PTR tv86[rsp]
  000ef	48 89 84 24 f0
	00 00 00	 mov	 QWORD PTR $T5[rsp], rax
  000f7	48 8b 84 24 40
	01 00 00	 mov	 rax, QWORD PTR this$[rsp]
  000ff	48 8b 8c 24 f0
	00 00 00	 mov	 rcx, QWORD PTR $T5[rsp]
  00107	48 89 08	 mov	 QWORD PTR [rax], rcx

; 697  : 			if (!m_pWriterList->alloc(nCount + LIST_ADD_COUNT, eAlloc_Type_none)) {

  0010a	8b 44 24 20	 mov	 eax, DWORD PTR nCount$[rsp]
  0010e	83 c0 0a	 add	 eax, 10
  00111	45 33 c0	 xor	 r8d, r8d
  00114	8b d0		 mov	 edx, eax
  00116	48 8b 84 24 40
	01 00 00	 mov	 rax, QWORD PTR this$[rsp]
  0011e	48 8b 08	 mov	 rcx, QWORD PTR [rax]
  00121	e8 00 00 00 00	 call	 ?alloc@?$CTList@VCSTLogger@@@@QEAAHHW4E_ALLOC_TYPE@@@Z ; CTList<CSTLogger>::alloc
  00126	85 c0		 test	 eax, eax
  00128	75 39		 jne	 SHORT $LN6@initLogWri

; 698  : 				sprintf(szErrorMsg, "m_pWriterList->alloc nCnt[%d]", nCount + LIST_ADD_COUNT);

  0012a	8b 44 24 20	 mov	 eax, DWORD PTR nCount$[rsp]
  0012e	83 c0 0a	 add	 eax, 10
  00131	44 8b c0	 mov	 r8d, eax
  00134	48 8d 15 00 00
	00 00		 lea	 rdx, OFFSET FLAT:$SG46064
  0013b	48 8d 4c 24 60	 lea	 rcx, QWORD PTR szErrorMsg$[rsp]
  00140	e8 00 00 00 00	 call	 sprintf

; 699  : 				comErrorPrint(szErrorMsg);

  00145	41 b8 bb 02 00
	00		 mov	 r8d, 699		; 000002bbH
  0014b	48 8d 15 00 00
	00 00		 lea	 rdx, OFFSET FLAT:$SG46065
  00152	48 8d 4c 24 60	 lea	 rcx, QWORD PTR szErrorMsg$[rsp]
  00157	e8 00 00 00 00	 call	 ?comGlobalErrorProc@@YAXPEADPEBDH@Z ; comGlobalErrorProc

; 700  : 				return false;

  0015c	32 c0		 xor	 al, al
  0015e	e9 b4 01 00 00	 jmp	 $LN1@initLogWri
$LN6@initLogWri:

; 701  : 			}
; 702  : 		}
; 703  : 
; 704  : 		for (i = 0; i < nCount; i++) {

  00163	c7 44 24 24 00
	00 00 00	 mov	 DWORD PTR i$[rsp], 0
  0016b	eb 0a		 jmp	 SHORT $LN4@initLogWri
$LN2@initLogWri:
  0016d	8b 44 24 24	 mov	 eax, DWORD PTR i$[rsp]
  00171	ff c0		 inc	 eax
  00173	89 44 24 24	 mov	 DWORD PTR i$[rsp], eax
$LN4@initLogWri:
  00177	8b 44 24 20	 mov	 eax, DWORD PTR nCount$[rsp]
  0017b	39 44 24 24	 cmp	 DWORD PTR i$[rsp], eax
  0017f	0f 8d 90 01 00
	00		 jge	 $LN5@initLogWri

; 705  : 			pWriter = new (std::nothrow) CSTLogger();

  00185	48 8d 15 00 00
	00 00		 lea	 rdx, OFFSET FLAT:?nothrow@std@@3Unothrow_t@1@B ; std::nothrow
  0018c	b9 58 00 00 00	 mov	 ecx, 88			; 00000058H
  00191	e8 00 00 00 00	 call	 ??2@YAPEAX_KAEBUnothrow_t@std@@@Z ; operator new
  00196	48 89 84 24 08
	01 00 00	 mov	 QWORD PTR $T8[rsp], rax
  0019e	48 83 bc 24 08
	01 00 00 00	 cmp	 QWORD PTR $T8[rsp], 0
  001a7	74 17		 je	 SHORT $LN16@initLogWri
  001a9	48 8b 8c 24 08
	01 00 00	 mov	 rcx, QWORD PTR $T8[rsp]
  001b1	e8 00 00 00 00	 call	 ??0CSTLogger@@QEAA@XZ	; CSTLogger::CSTLogger
  001b6	48 89 84 24 20
	01 00 00	 mov	 QWORD PTR tv146[rsp], rax
  001be	eb 0c		 jmp	 SHORT $LN17@initLogWri
$LN16@initLogWri:
  001c0	48 c7 84 24 20
	01 00 00 00 00
	00 00		 mov	 QWORD PTR tv146[rsp], 0
$LN17@initLogWri:
  001cc	48 8b 84 24 20
	01 00 00	 mov	 rax, QWORD PTR tv146[rsp]
  001d4	48 89 84 24 00
	01 00 00	 mov	 QWORD PTR $T7[rsp], rax
  001dc	48 8b 84 24 00
	01 00 00	 mov	 rax, QWORD PTR $T7[rsp]
  001e4	48 89 44 24 48	 mov	 QWORD PTR pWriter$[rsp], rax

; 706  : 			if (!pWriter) {

  001e9	48 83 7c 24 48
	00		 cmp	 QWORD PTR pWriter$[rsp], 0
  001ef	75 34		 jne	 SHORT $LN8@initLogWri

; 707  : 				sprintf(szErrorMsg, "[seq:%d] new (std::nothrow) CSTLogger() is NULL", i);

  001f1	44 8b 44 24 24	 mov	 r8d, DWORD PTR i$[rsp]
  001f6	48 8d 15 00 00
	00 00		 lea	 rdx, OFFSET FLAT:$SG46068
  001fd	48 8d 4c 24 60	 lea	 rcx, QWORD PTR szErrorMsg$[rsp]
  00202	e8 00 00 00 00	 call	 sprintf

; 708  : 				comErrorPrint(szErrorMsg);

  00207	41 b8 c4 02 00
	00		 mov	 r8d, 708		; 000002c4H
  0020d	48 8d 15 00 00
	00 00		 lea	 rdx, OFFSET FLAT:$SG46069
  00214	48 8d 4c 24 60	 lea	 rcx, QWORD PTR szErrorMsg$[rsp]
  00219	e8 00 00 00 00	 call	 ?comGlobalErrorProc@@YAXPEADPEBDH@Z ; comGlobalErrorProc

; 709  : 				return false;

  0021e	32 c0		 xor	 al, al
  00220	e9 f2 00 00 00	 jmp	 $LN1@initLogWri
$LN8@initLogWri:

; 710  : 			}
; 711  : 			if (!pWriter->initConfig(pConfigFile, i, pSection)) {

  00225	4c 8b 8c 24 50
	01 00 00	 mov	 r9, QWORD PTR pSection$[rsp]
  0022d	44 8b 44 24 24	 mov	 r8d, DWORD PTR i$[rsp]
  00232	48 8b 94 24 48
	01 00 00	 mov	 rdx, QWORD PTR pConfigFile$[rsp]
  0023a	48 8b 4c 24 48	 mov	 rcx, QWORD PTR pWriter$[rsp]
  0023f	e8 00 00 00 00	 call	 ?initConfig@CSTLogger@@QEAA_NPEADH0@Z ; CSTLogger::initConfig
  00244	0f b6 c0	 movzx	 eax, al
  00247	85 c0		 test	 eax, eax
  00249	75 62		 jne	 SHORT $LN9@initLogWri

; 712  : 				if (bSystem) {

  0024b	0f b6 84 24 58
	01 00 00	 movzx	 eax, BYTE PTR bSystem$[rsp]
  00253	85 c0		 test	 eax, eax
  00255	74 19		 je	 SHORT $LN10@initLogWri

; 713  : 					bRes = pWriter->init(LIST_ADD_COUNT, 0);

  00257	45 33 c0	 xor	 r8d, r8d
  0025a	ba 0a 00 00 00	 mov	 edx, 10
  0025f	48 8b 4c 24 48	 mov	 rcx, QWORD PTR pWriter$[rsp]
  00264	e8 00 00 00 00	 call	 ?init@CSTLogger@@QEAA_NHH@Z ; CSTLogger::init
  00269	88 84 24 e4 00
	00 00		 mov	 BYTE PTR bRes$[rsp], al
$LN10@initLogWri:

; 714  : 				}
; 715  : 				if(!bRes) {

  00270	0f b6 84 24 e4
	00 00 00	 movzx	 eax, BYTE PTR bRes$[rsp]
  00278	85 c0		 test	 eax, eax
  0027a	75 31		 jne	 SHORT $LN9@initLogWri

; 716  : 					sprintf(szErrorMsg, "[seq:%d] pWriter->init", i);

  0027c	44 8b 44 24 24	 mov	 r8d, DWORD PTR i$[rsp]
  00281	48 8d 15 00 00
	00 00		 lea	 rdx, OFFSET FLAT:$SG46073
  00288	48 8d 4c 24 60	 lea	 rcx, QWORD PTR szErrorMsg$[rsp]
  0028d	e8 00 00 00 00	 call	 sprintf

; 717  : 					comErrorPrint(szErrorMsg);

  00292	41 b8 cd 02 00
	00		 mov	 r8d, 717		; 000002cdH
  00298	48 8d 15 00 00
	00 00		 lea	 rdx, OFFSET FLAT:$SG46074
  0029f	48 8d 4c 24 60	 lea	 rcx, QWORD PTR szErrorMsg$[rsp]
  002a4	e8 00 00 00 00	 call	 ?comGlobalErrorProc@@YAXPEADPEBDH@Z ; comGlobalErrorProc

; 718  : 					return false;

  002a9	32 c0		 xor	 al, al
  002ab	eb 6a		 jmp	 SHORT $LN1@initLogWri
$LN9@initLogWri:

; 719  : 				}
; 720  : 			}
; 721  : 			if (!m_pWriterList->push_back(pWriter, &idx)) {

  002ad	4c 8d 44 24 34	 lea	 r8, QWORD PTR idx$[rsp]
  002b2	48 8b 54 24 48	 mov	 rdx, QWORD PTR pWriter$[rsp]
  002b7	48 8b 84 24 40
	01 00 00	 mov	 rax, QWORD PTR this$[rsp]
  002bf	48 8b 08	 mov	 rcx, QWORD PTR [rax]
  002c2	e8 00 00 00 00	 call	 ?push_back@?$CTList@VCSTLogger@@@@QEAA_NPEAVCSTLogger@@PEAH@Z ; CTList<CSTLogger>::push_back
  002c7	0f b6 c0	 movzx	 eax, al
  002ca	85 c0		 test	 eax, eax
  002cc	75 31		 jne	 SHORT $LN12@initLogWri

; 722  : 				sprintf(szErrorMsg, "[seq:%d] pWriter->push_back", idx);

  002ce	44 8b 44 24 34	 mov	 r8d, DWORD PTR idx$[rsp]
  002d3	48 8d 15 00 00
	00 00		 lea	 rdx, OFFSET FLAT:$SG46076
  002da	48 8d 4c 24 60	 lea	 rcx, QWORD PTR szErrorMsg$[rsp]
  002df	e8 00 00 00 00	 call	 sprintf

; 723  : 				comErrorPrint(szErrorMsg);

  002e4	41 b8 d3 02 00
	00		 mov	 r8d, 723		; 000002d3H
  002ea	48 8d 15 00 00
	00 00		 lea	 rdx, OFFSET FLAT:$SG46077
  002f1	48 8d 4c 24 60	 lea	 rcx, QWORD PTR szErrorMsg$[rsp]
  002f6	e8 00 00 00 00	 call	 ?comGlobalErrorProc@@YAXPEADPEBDH@Z ; comGlobalErrorProc

; 724  : 				return false;

  002fb	32 c0		 xor	 al, al
  002fd	eb 18		 jmp	 SHORT $LN1@initLogWri
$LN12@initLogWri:

; 725  : 			}
; 726  : 			pWriter->m_cThread.setIdx(idx);

  002ff	48 8b 44 24 48	 mov	 rax, QWORD PTR pWriter$[rsp]
  00304	8b 54 24 34	 mov	 edx, DWORD PTR idx$[rsp]
  00308	48 8b c8	 mov	 rcx, rax
  0030b	e8 00 00 00 00	 call	 ?setIdx@CComThread@@QEAAXH@Z ; CComThread::setIdx

; 727  : 		}

  00310	e9 58 fe ff ff	 jmp	 $LN2@initLogWri
$LN5@initLogWri:

; 728  : 	}
; 729  : 	return true;

  00315	b0 01		 mov	 al, 1
$LN1@initLogWri:

; 730  : }

  00317	48 8b f8	 mov	 rdi, rax
  0031a	48 8b cc	 mov	 rcx, rsp
  0031d	48 8d 15 00 00
	00 00		 lea	 rdx, OFFSET FLAT:?initLogWriter@CCoreList@@QEAA_NPEAD0_N@Z$rtcFrameData
  00324	e8 00 00 00 00	 call	 _RTC_CheckStackVars
  00329	48 8b c7	 mov	 rax, rdi
  0032c	48 8b 8c 24 28
	01 00 00	 mov	 rcx, QWORD PTR __$ArrayPad$[rsp]
  00334	48 33 cc	 xor	 rcx, rsp
  00337	e8 00 00 00 00	 call	 __security_check_cookie
  0033c	48 81 c4 30 01
	00 00		 add	 rsp, 304		; 00000130H
  00343	5f		 pop	 rdi
  00344	c3		 ret	 0
?initLogWriter@CCoreList@@QEAA_NPEAD0_N@Z ENDP		; CCoreList::initLogWriter
_TEXT	ENDS
text$x	SEGMENT
nCount$ = 32
i$ = 36
idx$ = 52
pWriter$ = 72
szErrorMsg$ = 96
bRes$ = 228
$T5 = 240
$T6 = 248
$T7 = 256
$T8 = 264
$T9 = 272
tv86 = 280
tv146 = 288
__$ArrayPad$ = 296
this$ = 320
pConfigFile$ = 328
pSection$ = 336
bSystem$ = 344
?dtor$0@?0??initLogWriter@CCoreList@@QEAA_NPEAD0_N@Z@4HA PROC ; `CCoreList::initLogWriter'::`1'::dtor$0
  00000	48 89 4c 24 08	 mov	 QWORD PTR [rsp+8], rcx
  00005	48 89 54 24 10	 mov	 QWORD PTR [rsp+16], rdx
  0000a	55		 push	 rbp
  0000b	57		 push	 rdi
  0000c	48 83 ec 28	 sub	 rsp, 40			; 00000028H
  00010	48 8b ea	 mov	 rbp, rdx
  00013	ba 20 00 00 00	 mov	 edx, 32			; 00000020H
  00018	48 8b 8d f8 00
	00 00		 mov	 rcx, QWORD PTR $T6[rbp]
  0001f	e8 00 00 00 00	 call	 ??3@YAXPEAX_K@Z		; operator delete
  00024	48 83 c4 28	 add	 rsp, 40			; 00000028H
  00028	5f		 pop	 rdi
  00029	5d		 pop	 rbp
  0002a	c3		 ret	 0
?dtor$0@?0??initLogWriter@CCoreList@@QEAA_NPEAD0_N@Z@4HA ENDP ; `CCoreList::initLogWriter'::`1'::dtor$0
nCount$ = 32
i$ = 36
idx$ = 52
pWriter$ = 72
szErrorMsg$ = 96
bRes$ = 228
$T5 = 240
$T6 = 248
$T7 = 256
$T8 = 264
$T9 = 272
tv86 = 280
tv146 = 288
__$ArrayPad$ = 296
this$ = 320
pConfigFile$ = 328
pSection$ = 336
bSystem$ = 344
?dtor$1@?0??initLogWriter@CCoreList@@QEAA_NPEAD0_N@Z@4HA PROC ; `CCoreList::initLogWriter'::`1'::dtor$1
  0002b	48 89 4c 24 08	 mov	 QWORD PTR [rsp+8], rcx
  00030	48 89 54 24 10	 mov	 QWORD PTR [rsp+16], rdx
  00035	55		 push	 rbp
  00036	57		 push	 rdi
  00037	48 83 ec 28	 sub	 rsp, 40			; 00000028H
  0003b	48 8b ea	 mov	 rbp, rdx
  0003e	48 8d 15 00 00
	00 00		 lea	 rdx, OFFSET FLAT:?nothrow@std@@3Unothrow_t@1@B ; std::nothrow
  00045	48 8b 8d 08 01
	00 00		 mov	 rcx, QWORD PTR $T8[rbp]
  0004c	e8 00 00 00 00	 call	 ??3@YAXPEAXAEBUnothrow_t@std@@@Z ; operator delete
  00051	48 83 c4 28	 add	 rsp, 40			; 00000028H
  00055	5f		 pop	 rdi
  00056	5d		 pop	 rbp
  00057	c3		 ret	 0
?dtor$1@?0??initLogWriter@CCoreList@@QEAA_NPEAD0_N@Z@4HA ENDP ; `CCoreList::initLogWriter'::`1'::dtor$1
text$x	ENDS
; Function compile flags: /Odtp /RTCsu
text$x	SEGMENT
nCount$ = 32
i$ = 36
idx$ = 52
pWriter$ = 72
szErrorMsg$ = 96
bRes$ = 228
$T5 = 240
$T6 = 248
$T7 = 256
$T8 = 264
$T9 = 272
tv86 = 280
tv146 = 288
__$ArrayPad$ = 296
this$ = 320
pConfigFile$ = 328
pSection$ = 336
bSystem$ = 344
?dtor$0@?0??initLogWriter@CCoreList@@QEAA_NPEAD0_N@Z@4HA PROC ; `CCoreList::initLogWriter'::`1'::dtor$0
  00000	48 89 4c 24 08	 mov	 QWORD PTR [rsp+8], rcx
  00005	48 89 54 24 10	 mov	 QWORD PTR [rsp+16], rdx
  0000a	55		 push	 rbp
  0000b	57		 push	 rdi
  0000c	48 83 ec 28	 sub	 rsp, 40			; 00000028H
  00010	48 8b ea	 mov	 rbp, rdx
  00013	ba 20 00 00 00	 mov	 edx, 32			; 00000020H
  00018	48 8b 8d f8 00
	00 00		 mov	 rcx, QWORD PTR $T6[rbp]
  0001f	e8 00 00 00 00	 call	 ??3@YAXPEAX_K@Z		; operator delete
  00024	48 83 c4 28	 add	 rsp, 40			; 00000028H
  00028	5f		 pop	 rdi
  00029	5d		 pop	 rbp
  0002a	c3		 ret	 0
?dtor$0@?0??initLogWriter@CCoreList@@QEAA_NPEAD0_N@Z@4HA ENDP ; `CCoreList::initLogWriter'::`1'::dtor$0
text$x	ENDS
; Function compile flags: /Odtp /RTCsu
text$x	SEGMENT
nCount$ = 32
i$ = 36
idx$ = 52
pWriter$ = 72
szErrorMsg$ = 96
bRes$ = 228
$T5 = 240
$T6 = 248
$T7 = 256
$T8 = 264
$T9 = 272
tv86 = 280
tv146 = 288
__$ArrayPad$ = 296
this$ = 320
pConfigFile$ = 328
pSection$ = 336
bSystem$ = 344
?dtor$1@?0??initLogWriter@CCoreList@@QEAA_NPEAD0_N@Z@4HA PROC ; `CCoreList::initLogWriter'::`1'::dtor$1
  0002b	48 89 4c 24 08	 mov	 QWORD PTR [rsp+8], rcx
  00030	48 89 54 24 10	 mov	 QWORD PTR [rsp+16], rdx
  00035	55		 push	 rbp
  00036	57		 push	 rdi
  00037	48 83 ec 28	 sub	 rsp, 40			; 00000028H
  0003b	48 8b ea	 mov	 rbp, rdx
  0003e	48 8d 15 00 00
	00 00		 lea	 rdx, OFFSET FLAT:?nothrow@std@@3Unothrow_t@1@B ; std::nothrow
  00045	48 8b 8d 08 01
	00 00		 mov	 rcx, QWORD PTR $T8[rbp]
  0004c	e8 00 00 00 00	 call	 ??3@YAXPEAXAEBUnothrow_t@std@@@Z ; operator delete
  00051	48 83 c4 28	 add	 rsp, 40			; 00000028H
  00055	5f		 pop	 rdi
  00056	5d		 pop	 rbp
  00057	c3		 ret	 0
?dtor$1@?0??initLogWriter@CCoreList@@QEAA_NPEAD0_N@Z@4HA ENDP ; `CCoreList::initLogWriter'::`1'::dtor$1
text$x	ENDS
; Function compile flags: /Odtp /RTCsu
; File e:\infinia-library-3.0\com\src\comcore.cpp
_TEXT	SEGMENT
nCount$ = 32
i$ = 36
idx$ = 52
pComThread$ = 72
$T4 = 88
$T5 = 96
$T6 = 104
$T7 = 112
$T8 = 120
tv86 = 128
tv142 = 136
__$ArrayPad$ = 144
this$ = 176
pConfigFile$ = 184
pSection$ = 192
?initComThread@CCoreList@@QEAA_NPEAD0@Z PROC		; CCoreList::initComThread

; 655  : {

$LN17:
  00000	4c 89 44 24 18	 mov	 QWORD PTR [rsp+24], r8
  00005	48 89 54 24 10	 mov	 QWORD PTR [rsp+16], rdx
  0000a	48 89 4c 24 08	 mov	 QWORD PTR [rsp+8], rcx
  0000f	57		 push	 rdi
  00010	48 81 ec a0 00
	00 00		 sub	 rsp, 160		; 000000a0H
  00017	48 8b fc	 mov	 rdi, rsp
  0001a	b9 28 00 00 00	 mov	 ecx, 40			; 00000028H
  0001f	b8 cc cc cc cc	 mov	 eax, -858993460		; ccccccccH
  00024	f3 ab		 rep stosd
  00026	48 8b 8c 24 b0
	00 00 00	 mov	 rcx, QWORD PTR [rsp+176]
  0002e	48 c7 44 24 78
	fe ff ff ff	 mov	 QWORD PTR $T8[rsp], -2
  00037	48 8b 05 00 00
	00 00		 mov	 rax, QWORD PTR __security_cookie
  0003e	48 33 c4	 xor	 rax, rsp
  00041	48 89 84 24 90
	00 00 00	 mov	 QWORD PTR __$ArrayPad$[rsp], rax

; 656  : 	int nCount, i, idx;
; 657  : 	CComThread *pComThread;
; 658  : 	nCount = GetPrivateProfileInt(pSection, _T("LIST_COUNT"), 0, pConfigFile);

  00049	4c 8b 8c 24 b8
	00 00 00	 mov	 r9, QWORD PTR pConfigFile$[rsp]
  00051	45 33 c0	 xor	 r8d, r8d
  00054	48 8d 15 00 00
	00 00		 lea	 rdx, OFFSET FLAT:$SG46017
  0005b	48 8b 8c 24 c0
	00 00 00	 mov	 rcx, QWORD PTR pSection$[rsp]
  00063	ff 15 00 00 00
	00		 call	 QWORD PTR __imp_GetPrivateProfileIntA
  00069	89 44 24 20	 mov	 DWORD PTR nCount$[rsp], eax

; 659  : 	if (nCount)

  0006d	83 7c 24 20 00	 cmp	 DWORD PTR nCount$[rsp], 0
  00072	0f 84 a6 01 00
	00		 je	 $LN5@initComThr

; 660  : 	{
; 661  : 		if (!m_pThreadList) {

  00078	48 8b 84 24 b0
	00 00 00	 mov	 rax, QWORD PTR this$[rsp]
  00080	48 83 78 10 00	 cmp	 QWORD PTR [rax+16], 0
  00085	0f 85 a5 00 00
	00		 jne	 $LN6@initComThr

; 662  : 			m_pThreadList = new CTList<CComThread>();

  0008b	b9 20 00 00 00	 mov	 ecx, 32			; 00000020H
  00090	e8 00 00 00 00	 call	 ??2@YAPEAX_K@Z		; operator new
  00095	48 89 44 24 60	 mov	 QWORD PTR $T5[rsp], rax
  0009a	48 83 7c 24 60
	00		 cmp	 QWORD PTR $T5[rsp], 0
  000a0	74 23		 je	 SHORT $LN11@initComThr
  000a2	ba 20 00 00 00	 mov	 edx, 32			; 00000020H
  000a7	48 8b 4c 24 60	 mov	 rcx, QWORD PTR $T5[rsp]
  000ac	e8 00 00 00 00	 call	 ?__autoclassinit2@?$CTList@VCComThread@@@@QEAAX_K@Z
  000b1	48 8b 4c 24 60	 mov	 rcx, QWORD PTR $T5[rsp]
  000b6	e8 00 00 00 00	 call	 ??0?$CTList@VCComThread@@@@QEAA@XZ ; CTList<CComThread>::CTList<CComThread>
  000bb	48 89 84 24 80
	00 00 00	 mov	 QWORD PTR tv86[rsp], rax
  000c3	eb 0c		 jmp	 SHORT $LN12@initComThr
$LN11@initComThr:
  000c5	48 c7 84 24 80
	00 00 00 00 00
	00 00		 mov	 QWORD PTR tv86[rsp], 0
$LN12@initComThr:
  000d1	48 8b 84 24 80
	00 00 00	 mov	 rax, QWORD PTR tv86[rsp]
  000d9	48 89 44 24 58	 mov	 QWORD PTR $T4[rsp], rax
  000de	48 8b 84 24 b0
	00 00 00	 mov	 rax, QWORD PTR this$[rsp]
  000e6	48 8b 4c 24 58	 mov	 rcx, QWORD PTR $T4[rsp]
  000eb	48 89 48 10	 mov	 QWORD PTR [rax+16], rcx

; 663  : 			if (!m_pThreadList->alloc(nCount + LIST_ADD_COUNT, eAlloc_Type_none)) {

  000ef	8b 44 24 20	 mov	 eax, DWORD PTR nCount$[rsp]
  000f3	83 c0 0a	 add	 eax, 10
  000f6	45 33 c0	 xor	 r8d, r8d
  000f9	8b d0		 mov	 edx, eax
  000fb	48 8b 84 24 b0
	00 00 00	 mov	 rax, QWORD PTR this$[rsp]
  00103	48 8b 48 10	 mov	 rcx, QWORD PTR [rax+16]
  00107	e8 00 00 00 00	 call	 ?alloc@?$CTList@VCComThread@@@@QEAAHHW4E_ALLOC_TYPE@@@Z ; CTList<CComThread>::alloc
  0010c	85 c0		 test	 eax, eax
  0010e	75 20		 jne	 SHORT $LN6@initComThr

; 664  : 				comErrorPrint("m_pThreadList = new CTList<CComThread>() is NULL");

  00110	41 b8 98 02 00
	00		 mov	 r8d, 664		; 00000298H
  00116	48 8d 15 00 00
	00 00		 lea	 rdx, OFFSET FLAT:$SG46022
  0011d	48 8d 0d 00 00
	00 00		 lea	 rcx, OFFSET FLAT:$SG46023
  00124	e8 00 00 00 00	 call	 ?comGlobalErrorProc@@YAXPEADPEBDH@Z ; comGlobalErrorProc

; 665  : 				return false;

  00129	32 c0		 xor	 al, al
  0012b	e9 f0 00 00 00	 jmp	 $LN1@initComThr
$LN6@initComThr:

; 666  : 			}
; 667  : 		}
; 668  : 
; 669  : 		for (i = 0; i < nCount; i++) {

  00130	c7 44 24 24 00
	00 00 00	 mov	 DWORD PTR i$[rsp], 0
  00138	eb 0a		 jmp	 SHORT $LN4@initComThr
$LN2@initComThr:
  0013a	8b 44 24 24	 mov	 eax, DWORD PTR i$[rsp]
  0013e	ff c0		 inc	 eax
  00140	89 44 24 24	 mov	 DWORD PTR i$[rsp], eax
$LN4@initComThr:
  00144	8b 44 24 20	 mov	 eax, DWORD PTR nCount$[rsp]
  00148	39 44 24 24	 cmp	 DWORD PTR i$[rsp], eax
  0014c	0f 8d cc 00 00
	00		 jge	 $LN5@initComThr

; 670  : 			pComThread = new (std::nothrow) CComThread();

  00152	48 8d 15 00 00
	00 00		 lea	 rdx, OFFSET FLAT:?nothrow@std@@3Unothrow_t@1@B ; std::nothrow
  00159	b9 48 00 00 00	 mov	 ecx, 72			; 00000048H
  0015e	e8 00 00 00 00	 call	 ??2@YAPEAX_KAEBUnothrow_t@std@@@Z ; operator new
  00163	48 89 44 24 70	 mov	 QWORD PTR $T7[rsp], rax
  00168	48 83 7c 24 70
	00		 cmp	 QWORD PTR $T7[rsp], 0
  0016e	74 14		 je	 SHORT $LN13@initComThr
  00170	48 8b 4c 24 70	 mov	 rcx, QWORD PTR $T7[rsp]
  00175	e8 00 00 00 00	 call	 ??0CComThread@@QEAA@XZ	; CComThread::CComThread
  0017a	48 89 84 24 88
	00 00 00	 mov	 QWORD PTR tv142[rsp], rax
  00182	eb 0c		 jmp	 SHORT $LN14@initComThr
$LN13@initComThr:
  00184	48 c7 84 24 88
	00 00 00 00 00
	00 00		 mov	 QWORD PTR tv142[rsp], 0
$LN14@initComThr:
  00190	48 8b 84 24 88
	00 00 00	 mov	 rax, QWORD PTR tv142[rsp]
  00198	48 89 44 24 68	 mov	 QWORD PTR $T6[rsp], rax
  0019d	48 8b 44 24 68	 mov	 rax, QWORD PTR $T6[rsp]
  001a2	48 89 44 24 48	 mov	 QWORD PTR pComThread$[rsp], rax

; 671  : 			if (!pComThread) {

  001a7	48 83 7c 24 48
	00		 cmp	 QWORD PTR pComThread$[rsp], 0
  001ad	75 1d		 jne	 SHORT $LN8@initComThr

; 672  : 				comErrorPrint("new (std::nothrow) CComThread() is NULL");

  001af	41 b8 a0 02 00
	00		 mov	 r8d, 672		; 000002a0H
  001b5	48 8d 15 00 00
	00 00		 lea	 rdx, OFFSET FLAT:$SG46026
  001bc	48 8d 0d 00 00
	00 00		 lea	 rcx, OFFSET FLAT:$SG46027
  001c3	e8 00 00 00 00	 call	 ?comGlobalErrorProc@@YAXPEADPEBDH@Z ; comGlobalErrorProc

; 673  : 				return false;

  001c8	32 c0		 xor	 al, al
  001ca	eb 54		 jmp	 SHORT $LN1@initComThr
$LN8@initComThr:

; 674  : 			}
; 675  : 			if (!m_pThreadList->push_back(pComThread, &idx)) {

  001cc	4c 8d 44 24 34	 lea	 r8, QWORD PTR idx$[rsp]
  001d1	48 8b 54 24 48	 mov	 rdx, QWORD PTR pComThread$[rsp]
  001d6	48 8b 84 24 b0
	00 00 00	 mov	 rax, QWORD PTR this$[rsp]
  001de	48 8b 48 10	 mov	 rcx, QWORD PTR [rax+16]
  001e2	e8 00 00 00 00	 call	 ?push_back@?$CTList@VCComThread@@@@QEAA_NPEAVCComThread@@PEAH@Z ; CTList<CComThread>::push_back
  001e7	0f b6 c0	 movzx	 eax, al
  001ea	85 c0		 test	 eax, eax
  001ec	75 1d		 jne	 SHORT $LN9@initComThr

; 676  : 				comErrorPrint("m_pThreadList->push_back");

  001ee	41 b8 a4 02 00
	00		 mov	 r8d, 676		; 000002a4H
  001f4	48 8d 15 00 00
	00 00		 lea	 rdx, OFFSET FLAT:$SG46029
  001fb	48 8d 0d 00 00
	00 00		 lea	 rcx, OFFSET FLAT:$SG46030
  00202	e8 00 00 00 00	 call	 ?comGlobalErrorProc@@YAXPEADPEBDH@Z ; comGlobalErrorProc

; 677  : 				return false;

  00207	32 c0		 xor	 al, al
  00209	eb 15		 jmp	 SHORT $LN1@initComThr
$LN9@initComThr:

; 678  : 			}
; 679  : 			pComThread->setIdx(idx);

  0020b	8b 54 24 34	 mov	 edx, DWORD PTR idx$[rsp]
  0020f	48 8b 4c 24 48	 mov	 rcx, QWORD PTR pComThread$[rsp]
  00214	e8 00 00 00 00	 call	 ?setIdx@CComThread@@QEAAXH@Z ; CComThread::setIdx

; 680  : 		}

  00219	e9 1c ff ff ff	 jmp	 $LN2@initComThr
$LN5@initComThr:

; 681  : 	}
; 682  : 	return true;

  0021e	b0 01		 mov	 al, 1
$LN1@initComThr:

; 683  : }

  00220	48 8b f8	 mov	 rdi, rax
  00223	48 8b cc	 mov	 rcx, rsp
  00226	48 8d 15 00 00
	00 00		 lea	 rdx, OFFSET FLAT:?initComThread@CCoreList@@QEAA_NPEAD0@Z$rtcFrameData
  0022d	e8 00 00 00 00	 call	 _RTC_CheckStackVars
  00232	48 8b c7	 mov	 rax, rdi
  00235	48 8b 8c 24 90
	00 00 00	 mov	 rcx, QWORD PTR __$ArrayPad$[rsp]
  0023d	48 33 cc	 xor	 rcx, rsp
  00240	e8 00 00 00 00	 call	 __security_check_cookie
  00245	48 81 c4 a0 00
	00 00		 add	 rsp, 160		; 000000a0H
  0024c	5f		 pop	 rdi
  0024d	c3		 ret	 0
?initComThread@CCoreList@@QEAA_NPEAD0@Z ENDP		; CCoreList::initComThread
_TEXT	ENDS
text$x	SEGMENT
nCount$ = 32
i$ = 36
idx$ = 52
pComThread$ = 72
$T4 = 88
$T5 = 96
$T6 = 104
$T7 = 112
$T8 = 120
tv86 = 128
tv142 = 136
__$ArrayPad$ = 144
this$ = 176
pConfigFile$ = 184
pSection$ = 192
?dtor$0@?0??initComThread@CCoreList@@QEAA_NPEAD0@Z@4HA PROC ; `CCoreList::initComThread'::`1'::dtor$0
  00000	48 89 4c 24 08	 mov	 QWORD PTR [rsp+8], rcx
  00005	48 89 54 24 10	 mov	 QWORD PTR [rsp+16], rdx
  0000a	55		 push	 rbp
  0000b	57		 push	 rdi
  0000c	48 83 ec 28	 sub	 rsp, 40			; 00000028H
  00010	48 8b ea	 mov	 rbp, rdx
  00013	ba 20 00 00 00	 mov	 edx, 32			; 00000020H
  00018	48 8b 4d 60	 mov	 rcx, QWORD PTR $T5[rbp]
  0001c	e8 00 00 00 00	 call	 ??3@YAXPEAX_K@Z		; operator delete
  00021	48 83 c4 28	 add	 rsp, 40			; 00000028H
  00025	5f		 pop	 rdi
  00026	5d		 pop	 rbp
  00027	c3		 ret	 0
?dtor$0@?0??initComThread@CCoreList@@QEAA_NPEAD0@Z@4HA ENDP ; `CCoreList::initComThread'::`1'::dtor$0
nCount$ = 32
i$ = 36
idx$ = 52
pComThread$ = 72
$T4 = 88
$T5 = 96
$T6 = 104
$T7 = 112
$T8 = 120
tv86 = 128
tv142 = 136
__$ArrayPad$ = 144
this$ = 176
pConfigFile$ = 184
pSection$ = 192
?dtor$1@?0??initComThread@CCoreList@@QEAA_NPEAD0@Z@4HA PROC ; `CCoreList::initComThread'::`1'::dtor$1
  00028	48 89 4c 24 08	 mov	 QWORD PTR [rsp+8], rcx
  0002d	48 89 54 24 10	 mov	 QWORD PTR [rsp+16], rdx
  00032	55		 push	 rbp
  00033	57		 push	 rdi
  00034	48 83 ec 28	 sub	 rsp, 40			; 00000028H
  00038	48 8b ea	 mov	 rbp, rdx
  0003b	48 8d 15 00 00
	00 00		 lea	 rdx, OFFSET FLAT:?nothrow@std@@3Unothrow_t@1@B ; std::nothrow
  00042	48 8b 4d 70	 mov	 rcx, QWORD PTR $T7[rbp]
  00046	e8 00 00 00 00	 call	 ??3@YAXPEAXAEBUnothrow_t@std@@@Z ; operator delete
  0004b	48 83 c4 28	 add	 rsp, 40			; 00000028H
  0004f	5f		 pop	 rdi
  00050	5d		 pop	 rbp
  00051	c3		 ret	 0
?dtor$1@?0??initComThread@CCoreList@@QEAA_NPEAD0@Z@4HA ENDP ; `CCoreList::initComThread'::`1'::dtor$1
text$x	ENDS
; Function compile flags: /Odtp /RTCsu
text$x	SEGMENT
nCount$ = 32
i$ = 36
idx$ = 52
pComThread$ = 72
$T4 = 88
$T5 = 96
$T6 = 104
$T7 = 112
$T8 = 120
tv86 = 128
tv142 = 136
__$ArrayPad$ = 144
this$ = 176
pConfigFile$ = 184
pSection$ = 192
?dtor$0@?0??initComThread@CCoreList@@QEAA_NPEAD0@Z@4HA PROC ; `CCoreList::initComThread'::`1'::dtor$0
  00000	48 89 4c 24 08	 mov	 QWORD PTR [rsp+8], rcx
  00005	48 89 54 24 10	 mov	 QWORD PTR [rsp+16], rdx
  0000a	55		 push	 rbp
  0000b	57		 push	 rdi
  0000c	48 83 ec 28	 sub	 rsp, 40			; 00000028H
  00010	48 8b ea	 mov	 rbp, rdx
  00013	ba 20 00 00 00	 mov	 edx, 32			; 00000020H
  00018	48 8b 4d 60	 mov	 rcx, QWORD PTR $T5[rbp]
  0001c	e8 00 00 00 00	 call	 ??3@YAXPEAX_K@Z		; operator delete
  00021	48 83 c4 28	 add	 rsp, 40			; 00000028H
  00025	5f		 pop	 rdi
  00026	5d		 pop	 rbp
  00027	c3		 ret	 0
?dtor$0@?0??initComThread@CCoreList@@QEAA_NPEAD0@Z@4HA ENDP ; `CCoreList::initComThread'::`1'::dtor$0
text$x	ENDS
; Function compile flags: /Odtp /RTCsu
text$x	SEGMENT
nCount$ = 32
i$ = 36
idx$ = 52
pComThread$ = 72
$T4 = 88
$T5 = 96
$T6 = 104
$T7 = 112
$T8 = 120
tv86 = 128
tv142 = 136
__$ArrayPad$ = 144
this$ = 176
pConfigFile$ = 184
pSection$ = 192
?dtor$1@?0??initComThread@CCoreList@@QEAA_NPEAD0@Z@4HA PROC ; `CCoreList::initComThread'::`1'::dtor$1
  00028	48 89 4c 24 08	 mov	 QWORD PTR [rsp+8], rcx
  0002d	48 89 54 24 10	 mov	 QWORD PTR [rsp+16], rdx
  00032	55		 push	 rbp
  00033	57		 push	 rdi
  00034	48 83 ec 28	 sub	 rsp, 40			; 00000028H
  00038	48 8b ea	 mov	 rbp, rdx
  0003b	48 8d 15 00 00
	00 00		 lea	 rdx, OFFSET FLAT:?nothrow@std@@3Unothrow_t@1@B ; std::nothrow
  00042	48 8b 4d 70	 mov	 rcx, QWORD PTR $T7[rbp]
  00046	e8 00 00 00 00	 call	 ??3@YAXPEAXAEBUnothrow_t@std@@@Z ; operator delete
  0004b	48 83 c4 28	 add	 rsp, 40			; 00000028H
  0004f	5f		 pop	 rdi
  00050	5d		 pop	 rbp
  00051	c3		 ret	 0
?dtor$1@?0??initComThread@CCoreList@@QEAA_NPEAD0@Z@4HA ENDP ; `CCoreList::initComThread'::`1'::dtor$1
text$x	ENDS
; Function compile flags: /Odtp /RTCsu
; File e:\infinia-library-3.0\com\src\comcore.cpp
_TEXT	SEGMENT
idx$ = 36
pEventThread$ = 56
$T4 = 72
$T5 = 80
$T6 = 88
$T7 = 96
$T8 = 104
tv84 = 112
tv166 = 120
__$ArrayPad$ = 128
this$ = 160
nCount$ = 168
?addQueueThread@CCoreList@@QEAAHH@Z PROC		; CCoreList::addQueueThread

; 1149 : {

$LN17:
  00000	89 54 24 10	 mov	 DWORD PTR [rsp+16], edx
  00004	48 89 4c 24 08	 mov	 QWORD PTR [rsp+8], rcx
  00009	57		 push	 rdi
  0000a	48 81 ec 90 00
	00 00		 sub	 rsp, 144		; 00000090H
  00011	48 8b fc	 mov	 rdi, rsp
  00014	b9 24 00 00 00	 mov	 ecx, 36			; 00000024H
  00019	b8 cc cc cc cc	 mov	 eax, -858993460		; ccccccccH
  0001e	f3 ab		 rep stosd
  00020	48 8b 8c 24 a0
	00 00 00	 mov	 rcx, QWORD PTR [rsp+160]
  00028	48 c7 44 24 68
	fe ff ff ff	 mov	 QWORD PTR $T8[rsp], -2
  00031	48 8b 05 00 00
	00 00		 mov	 rax, QWORD PTR __security_cookie
  00038	48 33 c4	 xor	 rax, rsp
  0003b	48 89 84 24 80
	00 00 00	 mov	 QWORD PTR __$ArrayPad$[rsp], rax

; 1150 : 	int idx;
; 1151 : 
; 1152 : 	if (!m_pEventThreadList) {

  00043	48 8b 84 24 a0
	00 00 00	 mov	 rax, QWORD PTR this$[rsp]
  0004b	48 83 78 18 00	 cmp	 QWORD PTR [rax+24], 0
  00050	75 26		 jne	 SHORT $LN2@addQueueTh

; 1153 : 		if (!initQueueThread(LIST_ADD_COUNT)) return -1;

  00052	45 33 c0	 xor	 r8d, r8d
  00055	ba 0a 00 00 00	 mov	 edx, 10
  0005a	48 8b 8c 24 a0
	00 00 00	 mov	 rcx, QWORD PTR this$[rsp]
  00062	e8 00 00 00 00	 call	 ?initQueueThread@CCoreList@@QEAA_NHH@Z ; CCoreList::initQueueThread
  00067	0f b6 c0	 movzx	 eax, al
  0006a	85 c0		 test	 eax, eax
  0006c	75 0a		 jne	 SHORT $LN2@addQueueTh
  0006e	b8 ff ff ff ff	 mov	 eax, -1
  00073	e9 db 01 00 00	 jmp	 $LN1@addQueueTh
$LN2@addQueueTh:

; 1154 : 	}
; 1155 : 
; 1156 : 	CComQueueThread *pEventThread = new (std::nothrow) CComQueueThread();

  00078	48 8d 15 00 00
	00 00		 lea	 rdx, OFFSET FLAT:?nothrow@std@@3Unothrow_t@1@B ; std::nothrow
  0007f	b9 a8 00 00 00	 mov	 ecx, 168		; 000000a8H
  00084	e8 00 00 00 00	 call	 ??2@YAPEAX_KAEBUnothrow_t@std@@@Z ; operator new
  00089	48 89 44 24 50	 mov	 QWORD PTR $T5[rsp], rax
  0008e	48 83 7c 24 50
	00		 cmp	 QWORD PTR $T5[rsp], 0
  00094	74 11		 je	 SHORT $LN12@addQueueTh
  00096	48 8b 4c 24 50	 mov	 rcx, QWORD PTR $T5[rsp]
  0009b	e8 00 00 00 00	 call	 ??0CComQueueThread@@QEAA@XZ ; CComQueueThread::CComQueueThread
  000a0	48 89 44 24 70	 mov	 QWORD PTR tv84[rsp], rax
  000a5	eb 09		 jmp	 SHORT $LN13@addQueueTh
$LN12@addQueueTh:
  000a7	48 c7 44 24 70
	00 00 00 00	 mov	 QWORD PTR tv84[rsp], 0
$LN13@addQueueTh:
  000b0	48 8b 44 24 70	 mov	 rax, QWORD PTR tv84[rsp]
  000b5	48 89 44 24 48	 mov	 QWORD PTR $T4[rsp], rax
  000ba	48 8b 44 24 48	 mov	 rax, QWORD PTR $T4[rsp]
  000bf	48 89 44 24 38	 mov	 QWORD PTR pEventThread$[rsp], rax

; 1157 : 	if (!pEventThread) {

  000c4	48 83 7c 24 38
	00		 cmp	 QWORD PTR pEventThread$[rsp], 0
  000ca	75 23		 jne	 SHORT $LN4@addQueueTh

; 1158 : 		comErrorPrint("FAIL! pEventThread = new (std::nothrow) CComQueueThread()");

  000cc	41 b8 86 04 00
	00		 mov	 r8d, 1158		; 00000486H
  000d2	48 8d 15 00 00
	00 00		 lea	 rdx, OFFSET FLAT:$SG46438
  000d9	48 8d 0d 00 00
	00 00		 lea	 rcx, OFFSET FLAT:$SG46439
  000e0	e8 00 00 00 00	 call	 ?comGlobalErrorProc@@YAXPEADPEBDH@Z ; comGlobalErrorProc

; 1159 : 		return -1;

  000e5	b8 ff ff ff ff	 mov	 eax, -1
  000ea	e9 64 01 00 00	 jmp	 $LN1@addQueueTh
$LN4@addQueueTh:

; 1160 : 	}
; 1161 : 	if (!m_pEventThreadList->push_back(pEventThread, &idx)) {

  000ef	4c 8d 44 24 24	 lea	 r8, QWORD PTR idx$[rsp]
  000f4	48 8b 54 24 38	 mov	 rdx, QWORD PTR pEventThread$[rsp]
  000f9	48 8b 84 24 a0
	00 00 00	 mov	 rax, QWORD PTR this$[rsp]
  00101	48 8b 48 18	 mov	 rcx, QWORD PTR [rax+24]
  00105	e8 00 00 00 00	 call	 ?push_back@?$CTList@VCComQueueThread@@@@QEAA_NPEAVCComQueueThread@@PEAH@Z ; CTList<CComQueueThread>::push_back
  0010a	0f b6 c0	 movzx	 eax, al
  0010d	85 c0		 test	 eax, eax
  0010f	75 36		 jne	 SHORT $LN5@addQueueTh

; 1162 : 		_stprintf(g_szMessage, _T("[idx:%d] m_pEventThreadList->push_back(pEventThread)"), idx);

  00111	44 8b 44 24 24	 mov	 r8d, DWORD PTR idx$[rsp]
  00116	48 8d 15 00 00
	00 00		 lea	 rdx, OFFSET FLAT:$SG46441
  0011d	48 8d 0d 00 00
	00 00		 lea	 rcx, OFFSET FLAT:?g_szMessage@@3PADA ; g_szMessage
  00124	e8 00 00 00 00	 call	 sprintf

; 1163 : 		comErrorPrint(g_szMessage);

  00129	41 b8 8b 04 00
	00		 mov	 r8d, 1163		; 0000048bH
  0012f	48 8d 15 00 00
	00 00		 lea	 rdx, OFFSET FLAT:$SG46442
  00136	48 8d 0d 00 00
	00 00		 lea	 rcx, OFFSET FLAT:?g_szMessage@@3PADA ; g_szMessage
  0013d	e8 00 00 00 00	 call	 ?comGlobalErrorProc@@YAXPEADPEBDH@Z ; comGlobalErrorProc

; 1164 : 		goto ERROR_ADDEvent;

  00142	e9 cc 00 00 00	 jmp	 $ERROR_ADDEvent$18
$LN5@addQueueTh:

; 1165 : 	}
; 1166 : 	if (!pEventThread->init(nCount, idx)) {

  00147	44 8b 44 24 24	 mov	 r8d, DWORD PTR idx$[rsp]
  0014c	8b 94 24 a8 00
	00 00		 mov	 edx, DWORD PTR nCount$[rsp]
  00153	48 8b 4c 24 38	 mov	 rcx, QWORD PTR pEventThread$[rsp]
  00158	e8 00 00 00 00	 call	 ?init@CComQueueThread@@QEAA_NHH@Z ; CComQueueThread::init
  0015d	0f b6 c0	 movzx	 eax, al
  00160	85 c0		 test	 eax, eax
  00162	75 50		 jne	 SHORT $LN7@addQueueTh

; 1167 : 		m_pEventThreadList->del(idx);

  00164	8b 54 24 24	 mov	 edx, DWORD PTR idx$[rsp]
  00168	48 8b 84 24 a0
	00 00 00	 mov	 rax, QWORD PTR this$[rsp]
  00170	48 8b 48 18	 mov	 rcx, QWORD PTR [rax+24]
  00174	e8 00 00 00 00	 call	 ?del@?$CTList@VCComQueueThread@@@@QEAA_NH@Z ; CTList<CComQueueThread>::del

; 1168 : 		_stprintf(g_szMessage, _T("pEventThread->init(nCount:%d, idx:%d)"), nCount,idx);

  00179	44 8b 4c 24 24	 mov	 r9d, DWORD PTR idx$[rsp]
  0017e	44 8b 84 24 a8
	00 00 00	 mov	 r8d, DWORD PTR nCount$[rsp]
  00186	48 8d 15 00 00
	00 00		 lea	 rdx, OFFSET FLAT:$SG46445
  0018d	48 8d 0d 00 00
	00 00		 lea	 rcx, OFFSET FLAT:?g_szMessage@@3PADA ; g_szMessage
  00194	e8 00 00 00 00	 call	 sprintf

; 1169 : 		comErrorPrint(g_szMessage);

  00199	41 b8 91 04 00
	00		 mov	 r8d, 1169		; 00000491H
  0019f	48 8d 15 00 00
	00 00		 lea	 rdx, OFFSET FLAT:$SG46446
  001a6	48 8d 0d 00 00
	00 00		 lea	 rcx, OFFSET FLAT:?g_szMessage@@3PADA ; g_szMessage
  001ad	e8 00 00 00 00	 call	 ?comGlobalErrorProc@@YAXPEADPEBDH@Z ; comGlobalErrorProc

; 1170 : 		goto ERROR_ADDEvent;

  001b2	eb 5f		 jmp	 SHORT $ERROR_ADDEvent$18
$LN7@addQueueTh:

; 1171 : 	}
; 1172 : 	if (!pEventThread->start()) {

  001b4	48 8b 4c 24 38	 mov	 rcx, QWORD PTR pEventThread$[rsp]
  001b9	e8 00 00 00 00	 call	 ?start@CComQueueThread@@QEAA_NXZ ; CComQueueThread::start
  001be	0f b6 c0	 movzx	 eax, al
  001c1	85 c0		 test	 eax, eax
  001c3	75 48		 jne	 SHORT $LN9@addQueueTh

; 1173 : 		m_pEventThreadList->del(idx);

  001c5	8b 54 24 24	 mov	 edx, DWORD PTR idx$[rsp]
  001c9	48 8b 84 24 a0
	00 00 00	 mov	 rax, QWORD PTR this$[rsp]
  001d1	48 8b 48 18	 mov	 rcx, QWORD PTR [rax+24]
  001d5	e8 00 00 00 00	 call	 ?del@?$CTList@VCComQueueThread@@@@QEAA_NH@Z ; CTList<CComQueueThread>::del

; 1174 : 		_stprintf(g_szMessage, _T("[idx:%d] pEventThread->start()! "), idx);

  001da	44 8b 44 24 24	 mov	 r8d, DWORD PTR idx$[rsp]
  001df	48 8d 15 00 00
	00 00		 lea	 rdx, OFFSET FLAT:$SG46449
  001e6	48 8d 0d 00 00
	00 00		 lea	 rcx, OFFSET FLAT:?g_szMessage@@3PADA ; g_szMessage
  001ed	e8 00 00 00 00	 call	 sprintf

; 1175 : 		comErrorPrint(g_szMessage);

  001f2	41 b8 97 04 00
	00		 mov	 r8d, 1175		; 00000497H
  001f8	48 8d 15 00 00
	00 00		 lea	 rdx, OFFSET FLAT:$SG46450
  001ff	48 8d 0d 00 00
	00 00		 lea	 rcx, OFFSET FLAT:?g_szMessage@@3PADA ; g_szMessage
  00206	e8 00 00 00 00	 call	 ?comGlobalErrorProc@@YAXPEADPEBDH@Z ; comGlobalErrorProc

; 1176 : 		goto ERROR_ADDEvent;

  0020b	eb 06		 jmp	 SHORT $ERROR_ADDEvent$18
$LN9@addQueueTh:

; 1177 : 	}
; 1178 : 	return idx;

  0020d	8b 44 24 24	 mov	 eax, DWORD PTR idx$[rsp]
  00211	eb 40		 jmp	 SHORT $LN1@addQueueTh
$ERROR_ADDEvent$18:

; 1179 : 
; 1180 : ERROR_ADDEvent:
; 1181 : 	delete pEventThread;

  00213	48 8b 44 24 38	 mov	 rax, QWORD PTR pEventThread$[rsp]
  00218	48 89 44 24 60	 mov	 QWORD PTR $T7[rsp], rax
  0021d	48 8b 44 24 60	 mov	 rax, QWORD PTR $T7[rsp]
  00222	48 89 44 24 58	 mov	 QWORD PTR $T6[rsp], rax
  00227	48 83 7c 24 58
	00		 cmp	 QWORD PTR $T6[rsp], 0
  0022d	74 16		 je	 SHORT $LN14@addQueueTh
  0022f	ba 01 00 00 00	 mov	 edx, 1
  00234	48 8b 4c 24 58	 mov	 rcx, QWORD PTR $T6[rsp]
  00239	e8 00 00 00 00	 call	 ??_GCComQueueThread@@QEAAPEAXI@Z
  0023e	48 89 44 24 78	 mov	 QWORD PTR tv166[rsp], rax
  00243	eb 09		 jmp	 SHORT $LN15@addQueueTh
$LN14@addQueueTh:
  00245	48 c7 44 24 78
	00 00 00 00	 mov	 QWORD PTR tv166[rsp], 0
$LN15@addQueueTh:

; 1182 : 	return -1;

  0024e	b8 ff ff ff ff	 mov	 eax, -1
$LN1@addQueueTh:

; 1183 : }

  00253	48 8b f8	 mov	 rdi, rax
  00256	48 8b cc	 mov	 rcx, rsp
  00259	48 8d 15 00 00
	00 00		 lea	 rdx, OFFSET FLAT:?addQueueThread@CCoreList@@QEAAHH@Z$rtcFrameData
  00260	e8 00 00 00 00	 call	 _RTC_CheckStackVars
  00265	48 8b c7	 mov	 rax, rdi
  00268	48 8b 8c 24 80
	00 00 00	 mov	 rcx, QWORD PTR __$ArrayPad$[rsp]
  00270	48 33 cc	 xor	 rcx, rsp
  00273	e8 00 00 00 00	 call	 __security_check_cookie
  00278	48 81 c4 90 00
	00 00		 add	 rsp, 144		; 00000090H
  0027f	5f		 pop	 rdi
  00280	c3		 ret	 0
?addQueueThread@CCoreList@@QEAAHH@Z ENDP		; CCoreList::addQueueThread
_TEXT	ENDS
text$x	SEGMENT
idx$ = 36
pEventThread$ = 56
$T4 = 72
$T5 = 80
$T6 = 88
$T7 = 96
$T8 = 104
tv84 = 112
tv166 = 120
__$ArrayPad$ = 128
this$ = 160
nCount$ = 168
?dtor$0@?0??addQueueThread@CCoreList@@QEAAHH@Z@4HA PROC	; `CCoreList::addQueueThread'::`1'::dtor$0
  00000	48 89 4c 24 08	 mov	 QWORD PTR [rsp+8], rcx
  00005	48 89 54 24 10	 mov	 QWORD PTR [rsp+16], rdx
  0000a	55		 push	 rbp
  0000b	57		 push	 rdi
  0000c	48 83 ec 28	 sub	 rsp, 40			; 00000028H
  00010	48 8b ea	 mov	 rbp, rdx
  00013	48 8d 15 00 00
	00 00		 lea	 rdx, OFFSET FLAT:?nothrow@std@@3Unothrow_t@1@B ; std::nothrow
  0001a	48 8b 4d 50	 mov	 rcx, QWORD PTR $T5[rbp]
  0001e	e8 00 00 00 00	 call	 ??3@YAXPEAXAEBUnothrow_t@std@@@Z ; operator delete
  00023	48 83 c4 28	 add	 rsp, 40			; 00000028H
  00027	5f		 pop	 rdi
  00028	5d		 pop	 rbp
  00029	c3		 ret	 0
?dtor$0@?0??addQueueThread@CCoreList@@QEAAHH@Z@4HA ENDP	; `CCoreList::addQueueThread'::`1'::dtor$0
text$x	ENDS
; Function compile flags: /Odtp /RTCsu
text$x	SEGMENT
idx$ = 36
pEventThread$ = 56
$T4 = 72
$T5 = 80
$T6 = 88
$T7 = 96
$T8 = 104
tv84 = 112
tv166 = 120
__$ArrayPad$ = 128
this$ = 160
nCount$ = 168
?dtor$0@?0??addQueueThread@CCoreList@@QEAAHH@Z@4HA PROC	; `CCoreList::addQueueThread'::`1'::dtor$0
  00000	48 89 4c 24 08	 mov	 QWORD PTR [rsp+8], rcx
  00005	48 89 54 24 10	 mov	 QWORD PTR [rsp+16], rdx
  0000a	55		 push	 rbp
  0000b	57		 push	 rdi
  0000c	48 83 ec 28	 sub	 rsp, 40			; 00000028H
  00010	48 8b ea	 mov	 rbp, rdx
  00013	48 8d 15 00 00
	00 00		 lea	 rdx, OFFSET FLAT:?nothrow@std@@3Unothrow_t@1@B ; std::nothrow
  0001a	48 8b 4d 50	 mov	 rcx, QWORD PTR $T5[rbp]
  0001e	e8 00 00 00 00	 call	 ??3@YAXPEAXAEBUnothrow_t@std@@@Z ; operator delete
  00023	48 83 c4 28	 add	 rsp, 40			; 00000028H
  00027	5f		 pop	 rdi
  00028	5d		 pop	 rbp
  00029	c3		 ret	 0
?dtor$0@?0??addQueueThread@CCoreList@@QEAAHH@Z@4HA ENDP	; `CCoreList::addQueueThread'::`1'::dtor$0
text$x	ENDS
; Function compile flags: /Odtp /RTCsu
; File e:\infinia-library-3.0\com\src\comcore.cpp
_TEXT	SEGMENT
idx$ = 52
pScheduler$ = 72
$T4 = 88
$T5 = 96
$T6 = 104
$T7 = 112
$T8 = 120
tv84 = 128
tv168 = 136
__$ArrayPad$ = 144
this$ = 176
nCount$ = 184
millisecWait$ = 192
?addScheduler@CCoreList@@QEAAHHH@Z PROC			; CCoreList::addScheduler

; 1110 : {

$LN17:
  00000	44 89 44 24 18	 mov	 DWORD PTR [rsp+24], r8d
  00005	89 54 24 10	 mov	 DWORD PTR [rsp+16], edx
  00009	48 89 4c 24 08	 mov	 QWORD PTR [rsp+8], rcx
  0000e	57		 push	 rdi
  0000f	48 81 ec a0 00
	00 00		 sub	 rsp, 160		; 000000a0H
  00016	48 8b fc	 mov	 rdi, rsp
  00019	b9 28 00 00 00	 mov	 ecx, 40			; 00000028H
  0001e	b8 cc cc cc cc	 mov	 eax, -858993460		; ccccccccH
  00023	f3 ab		 rep stosd
  00025	48 8b 8c 24 b0
	00 00 00	 mov	 rcx, QWORD PTR [rsp+176]
  0002d	48 c7 44 24 78
	fe ff ff ff	 mov	 QWORD PTR $T8[rsp], -2
  00036	48 8b 05 00 00
	00 00		 mov	 rax, QWORD PTR __security_cookie
  0003d	48 33 c4	 xor	 rax, rsp
  00040	48 89 84 24 90
	00 00 00	 mov	 QWORD PTR __$ArrayPad$[rsp], rax

; 1111 : 	int idx;
; 1112 : 
; 1113 : 	if (!m_pSchedulerList) {

  00048	48 8b 84 24 b0
	00 00 00	 mov	 rax, QWORD PTR this$[rsp]
  00050	48 83 78 08 00	 cmp	 QWORD PTR [rax+8], 0
  00055	75 26		 jne	 SHORT $LN2@addSchedul

; 1114 : 		if (!initScheduler(LIST_ADD_COUNT)) {

  00057	45 33 c0	 xor	 r8d, r8d
  0005a	ba 0a 00 00 00	 mov	 edx, 10
  0005f	48 8b 8c 24 b0
	00 00 00	 mov	 rcx, QWORD PTR this$[rsp]
  00067	e8 00 00 00 00	 call	 ?initScheduler@CCoreList@@QEAA_NHH@Z ; CCoreList::initScheduler
  0006c	0f b6 c0	 movzx	 eax, al
  0006f	85 c0		 test	 eax, eax
  00071	75 0a		 jne	 SHORT $LN2@addSchedul

; 1115 : 			return -1;

  00073	b8 ff ff ff ff	 mov	 eax, -1
  00078	e9 fd 01 00 00	 jmp	 $LN1@addSchedul
$LN2@addSchedul:

; 1116 : 		}
; 1117 : 	}
; 1118 : 
; 1119 : 	CScheduler *pScheduler = new (std::nothrow) CScheduler();

  0007d	48 8d 15 00 00
	00 00		 lea	 rdx, OFFSET FLAT:?nothrow@std@@3Unothrow_t@1@B ; std::nothrow
  00084	b9 60 00 00 00	 mov	 ecx, 96			; 00000060H
  00089	e8 00 00 00 00	 call	 ??2@YAPEAX_KAEBUnothrow_t@std@@@Z ; operator new
  0008e	48 89 44 24 60	 mov	 QWORD PTR $T5[rsp], rax
  00093	48 83 7c 24 60
	00		 cmp	 QWORD PTR $T5[rsp], 0
  00099	74 14		 je	 SHORT $LN12@addSchedul
  0009b	48 8b 4c 24 60	 mov	 rcx, QWORD PTR $T5[rsp]
  000a0	e8 00 00 00 00	 call	 ??0CScheduler@@QEAA@XZ	; CScheduler::CScheduler
  000a5	48 89 84 24 80
	00 00 00	 mov	 QWORD PTR tv84[rsp], rax
  000ad	eb 0c		 jmp	 SHORT $LN13@addSchedul
$LN12@addSchedul:
  000af	48 c7 84 24 80
	00 00 00 00 00
	00 00		 mov	 QWORD PTR tv84[rsp], 0
$LN13@addSchedul:
  000bb	48 8b 84 24 80
	00 00 00	 mov	 rax, QWORD PTR tv84[rsp]
  000c3	48 89 44 24 58	 mov	 QWORD PTR $T4[rsp], rax
  000c8	48 8b 44 24 58	 mov	 rax, QWORD PTR $T4[rsp]
  000cd	48 89 44 24 48	 mov	 QWORD PTR pScheduler$[rsp], rax

; 1120 : 	if (!pScheduler) {

  000d2	48 83 7c 24 48
	00		 cmp	 QWORD PTR pScheduler$[rsp], 0
  000d8	75 23		 jne	 SHORT $LN4@addSchedul

; 1121 : 		comErrorPrint("pScheduler = new (std::nothrow) CScheduler()");

  000da	41 b8 61 04 00
	00		 mov	 r8d, 1121		; 00000461H
  000e0	48 8d 15 00 00
	00 00		 lea	 rdx, OFFSET FLAT:$SG46401
  000e7	48 8d 0d 00 00
	00 00		 lea	 rcx, OFFSET FLAT:$SG46402
  000ee	e8 00 00 00 00	 call	 ?comGlobalErrorProc@@YAXPEADPEBDH@Z ; comGlobalErrorProc

; 1122 : 		return -1;

  000f3	b8 ff ff ff ff	 mov	 eax, -1
  000f8	e9 7d 01 00 00	 jmp	 $LN1@addSchedul
$LN4@addSchedul:

; 1123 : 	}
; 1124 : 	if (!m_pSchedulerList->push_back(pScheduler, &idx)) {

  000fd	4c 8d 44 24 34	 lea	 r8, QWORD PTR idx$[rsp]
  00102	48 8b 54 24 48	 mov	 rdx, QWORD PTR pScheduler$[rsp]
  00107	48 8b 84 24 b0
	00 00 00	 mov	 rax, QWORD PTR this$[rsp]
  0010f	48 8b 48 08	 mov	 rcx, QWORD PTR [rax+8]
  00113	e8 00 00 00 00	 call	 ?push_back@?$CTList@VCScheduler@@@@QEAA_NPEAVCScheduler@@PEAH@Z ; CTList<CScheduler>::push_back
  00118	0f b6 c0	 movzx	 eax, al
  0011b	85 c0		 test	 eax, eax
  0011d	75 36		 jne	 SHORT $LN5@addSchedul

; 1125 : 		_stprintf(g_szMessage, _T("[idx:%d] pScheduler->push_back(pWriter)"), idx);

  0011f	44 8b 44 24 34	 mov	 r8d, DWORD PTR idx$[rsp]
  00124	48 8d 15 00 00
	00 00		 lea	 rdx, OFFSET FLAT:$SG46404
  0012b	48 8d 0d 00 00
	00 00		 lea	 rcx, OFFSET FLAT:?g_szMessage@@3PADA ; g_szMessage
  00132	e8 00 00 00 00	 call	 sprintf

; 1126 : 		comErrorPrint(g_szMessage);

  00137	41 b8 66 04 00
	00		 mov	 r8d, 1126		; 00000466H
  0013d	48 8d 15 00 00
	00 00		 lea	 rdx, OFFSET FLAT:$SG46405
  00144	48 8d 0d 00 00
	00 00		 lea	 rcx, OFFSET FLAT:?g_szMessage@@3PADA ; g_szMessage
  0014b	e8 00 00 00 00	 call	 ?comGlobalErrorProc@@YAXPEADPEBDH@Z ; comGlobalErrorProc

; 1127 : 		goto ERROR_ADDScheduler;

  00150	e9 df 00 00 00	 jmp	 $ERROR_ADDScheduler$18
$LN5@addSchedul:

; 1128 : 	}
; 1129 : 	if (!pScheduler->init(nCount, millisecWait, idx)) {

  00155	44 8b 4c 24 34	 mov	 r9d, DWORD PTR idx$[rsp]
  0015a	44 8b 84 24 c0
	00 00 00	 mov	 r8d, DWORD PTR millisecWait$[rsp]
  00162	8b 94 24 b8 00
	00 00		 mov	 edx, DWORD PTR nCount$[rsp]
  00169	48 8b 4c 24 48	 mov	 rcx, QWORD PTR pScheduler$[rsp]
  0016e	e8 00 00 00 00	 call	 ?init@CScheduler@@QEAA_NHHH@Z ; CScheduler::init
  00173	0f b6 c0	 movzx	 eax, al
  00176	85 c0		 test	 eax, eax
  00178	75 5b		 jne	 SHORT $LN7@addSchedul

; 1130 : 		m_pSchedulerList->del(idx);

  0017a	8b 54 24 34	 mov	 edx, DWORD PTR idx$[rsp]
  0017e	48 8b 84 24 b0
	00 00 00	 mov	 rax, QWORD PTR this$[rsp]
  00186	48 8b 48 08	 mov	 rcx, QWORD PTR [rax+8]
  0018a	e8 00 00 00 00	 call	 ?del@?$CTList@VCScheduler@@@@QEAA_NH@Z ; CTList<CScheduler>::del

; 1131 : 		_stprintf(g_szMessage, _T("pScheduler->init(nCount:%d, millisecWait:%d, idx:%d)"), nCount, millisecWait, idx);

  0018f	8b 44 24 34	 mov	 eax, DWORD PTR idx$[rsp]
  00193	89 44 24 20	 mov	 DWORD PTR [rsp+32], eax
  00197	44 8b 8c 24 c0
	00 00 00	 mov	 r9d, DWORD PTR millisecWait$[rsp]
  0019f	44 8b 84 24 b8
	00 00 00	 mov	 r8d, DWORD PTR nCount$[rsp]
  001a7	48 8d 15 00 00
	00 00		 lea	 rdx, OFFSET FLAT:$SG46408
  001ae	48 8d 0d 00 00
	00 00		 lea	 rcx, OFFSET FLAT:?g_szMessage@@3PADA ; g_szMessage
  001b5	e8 00 00 00 00	 call	 sprintf

; 1132 : 		comErrorPrint(g_szMessage);

  001ba	41 b8 6c 04 00
	00		 mov	 r8d, 1132		; 0000046cH
  001c0	48 8d 15 00 00
	00 00		 lea	 rdx, OFFSET FLAT:$SG46409
  001c7	48 8d 0d 00 00
	00 00		 lea	 rcx, OFFSET FLAT:?g_szMessage@@3PADA ; g_szMessage
  001ce	e8 00 00 00 00	 call	 ?comGlobalErrorProc@@YAXPEADPEBDH@Z ; comGlobalErrorProc

; 1133 : 		goto ERROR_ADDScheduler;

  001d3	eb 5f		 jmp	 SHORT $ERROR_ADDScheduler$18
$LN7@addSchedul:

; 1134 : 	}
; 1135 : 	if (!pScheduler->start()) {

  001d5	48 8b 4c 24 48	 mov	 rcx, QWORD PTR pScheduler$[rsp]
  001da	e8 00 00 00 00	 call	 ?start@CScheduler@@QEAA_NXZ ; CScheduler::start
  001df	0f b6 c0	 movzx	 eax, al
  001e2	85 c0		 test	 eax, eax
  001e4	75 48		 jne	 SHORT $LN9@addSchedul

; 1136 : 		m_pSchedulerList->del(idx);

  001e6	8b 54 24 34	 mov	 edx, DWORD PTR idx$[rsp]
  001ea	48 8b 84 24 b0
	00 00 00	 mov	 rax, QWORD PTR this$[rsp]
  001f2	48 8b 48 08	 mov	 rcx, QWORD PTR [rax+8]
  001f6	e8 00 00 00 00	 call	 ?del@?$CTList@VCScheduler@@@@QEAA_NH@Z ; CTList<CScheduler>::del

; 1137 : 		_stprintf(g_szMessage, _T("[idx:%d] pScheduler->start()"), idx);

  001fb	44 8b 44 24 34	 mov	 r8d, DWORD PTR idx$[rsp]
  00200	48 8d 15 00 00
	00 00		 lea	 rdx, OFFSET FLAT:$SG46412
  00207	48 8d 0d 00 00
	00 00		 lea	 rcx, OFFSET FLAT:?g_szMessage@@3PADA ; g_szMessage
  0020e	e8 00 00 00 00	 call	 sprintf

; 1138 : 		comErrorPrint(g_szMessage);

  00213	41 b8 72 04 00
	00		 mov	 r8d, 1138		; 00000472H
  00219	48 8d 15 00 00
	00 00		 lea	 rdx, OFFSET FLAT:$SG46413
  00220	48 8d 0d 00 00
	00 00		 lea	 rcx, OFFSET FLAT:?g_szMessage@@3PADA ; g_szMessage
  00227	e8 00 00 00 00	 call	 ?comGlobalErrorProc@@YAXPEADPEBDH@Z ; comGlobalErrorProc

; 1139 : 		goto ERROR_ADDScheduler;

  0022c	eb 06		 jmp	 SHORT $ERROR_ADDScheduler$18
$LN9@addSchedul:

; 1140 : 	}
; 1141 : 	return idx;

  0022e	8b 44 24 34	 mov	 eax, DWORD PTR idx$[rsp]
  00232	eb 46		 jmp	 SHORT $LN1@addSchedul
$ERROR_ADDScheduler$18:

; 1142 : 
; 1143 : ERROR_ADDScheduler:
; 1144 : 	delete pScheduler;

  00234	48 8b 44 24 48	 mov	 rax, QWORD PTR pScheduler$[rsp]
  00239	48 89 44 24 70	 mov	 QWORD PTR $T7[rsp], rax
  0023e	48 8b 44 24 70	 mov	 rax, QWORD PTR $T7[rsp]
  00243	48 89 44 24 68	 mov	 QWORD PTR $T6[rsp], rax
  00248	48 83 7c 24 68
	00		 cmp	 QWORD PTR $T6[rsp], 0
  0024e	74 19		 je	 SHORT $LN14@addSchedul
  00250	ba 01 00 00 00	 mov	 edx, 1
  00255	48 8b 4c 24 68	 mov	 rcx, QWORD PTR $T6[rsp]
  0025a	e8 00 00 00 00	 call	 ??_GCScheduler@@QEAAPEAXI@Z
  0025f	48 89 84 24 88
	00 00 00	 mov	 QWORD PTR tv168[rsp], rax
  00267	eb 0c		 jmp	 SHORT $LN15@addSchedul
$LN14@addSchedul:
  00269	48 c7 84 24 88
	00 00 00 00 00
	00 00		 mov	 QWORD PTR tv168[rsp], 0
$LN15@addSchedul:

; 1145 : 	return -1;

  00275	b8 ff ff ff ff	 mov	 eax, -1
$LN1@addSchedul:

; 1146 : }

  0027a	48 8b f8	 mov	 rdi, rax
  0027d	48 8b cc	 mov	 rcx, rsp
  00280	48 8d 15 00 00
	00 00		 lea	 rdx, OFFSET FLAT:?addScheduler@CCoreList@@QEAAHHH@Z$rtcFrameData
  00287	e8 00 00 00 00	 call	 _RTC_CheckStackVars
  0028c	48 8b c7	 mov	 rax, rdi
  0028f	48 8b 8c 24 90
	00 00 00	 mov	 rcx, QWORD PTR __$ArrayPad$[rsp]
  00297	48 33 cc	 xor	 rcx, rsp
  0029a	e8 00 00 00 00	 call	 __security_check_cookie
  0029f	48 81 c4 a0 00
	00 00		 add	 rsp, 160		; 000000a0H
  002a6	5f		 pop	 rdi
  002a7	c3		 ret	 0
?addScheduler@CCoreList@@QEAAHHH@Z ENDP			; CCoreList::addScheduler
_TEXT	ENDS
text$x	SEGMENT
idx$ = 52
pScheduler$ = 72
$T4 = 88
$T5 = 96
$T6 = 104
$T7 = 112
$T8 = 120
tv84 = 128
tv168 = 136
__$ArrayPad$ = 144
this$ = 176
nCount$ = 184
millisecWait$ = 192
?dtor$0@?0??addScheduler@CCoreList@@QEAAHHH@Z@4HA PROC	; `CCoreList::addScheduler'::`1'::dtor$0
  00000	48 89 4c 24 08	 mov	 QWORD PTR [rsp+8], rcx
  00005	48 89 54 24 10	 mov	 QWORD PTR [rsp+16], rdx
  0000a	55		 push	 rbp
  0000b	57		 push	 rdi
  0000c	48 83 ec 28	 sub	 rsp, 40			; 00000028H
  00010	48 8b ea	 mov	 rbp, rdx
  00013	48 8d 15 00 00
	00 00		 lea	 rdx, OFFSET FLAT:?nothrow@std@@3Unothrow_t@1@B ; std::nothrow
  0001a	48 8b 4d 60	 mov	 rcx, QWORD PTR $T5[rbp]
  0001e	e8 00 00 00 00	 call	 ??3@YAXPEAXAEBUnothrow_t@std@@@Z ; operator delete
  00023	48 83 c4 28	 add	 rsp, 40			; 00000028H
  00027	5f		 pop	 rdi
  00028	5d		 pop	 rbp
  00029	c3		 ret	 0
?dtor$0@?0??addScheduler@CCoreList@@QEAAHHH@Z@4HA ENDP	; `CCoreList::addScheduler'::`1'::dtor$0
text$x	ENDS
; Function compile flags: /Odtp /RTCsu
text$x	SEGMENT
idx$ = 52
pScheduler$ = 72
$T4 = 88
$T5 = 96
$T6 = 104
$T7 = 112
$T8 = 120
tv84 = 128
tv168 = 136
__$ArrayPad$ = 144
this$ = 176
nCount$ = 184
millisecWait$ = 192
?dtor$0@?0??addScheduler@CCoreList@@QEAAHHH@Z@4HA PROC	; `CCoreList::addScheduler'::`1'::dtor$0
  00000	48 89 4c 24 08	 mov	 QWORD PTR [rsp+8], rcx
  00005	48 89 54 24 10	 mov	 QWORD PTR [rsp+16], rdx
  0000a	55		 push	 rbp
  0000b	57		 push	 rdi
  0000c	48 83 ec 28	 sub	 rsp, 40			; 00000028H
  00010	48 8b ea	 mov	 rbp, rdx
  00013	48 8d 15 00 00
	00 00		 lea	 rdx, OFFSET FLAT:?nothrow@std@@3Unothrow_t@1@B ; std::nothrow
  0001a	48 8b 4d 60	 mov	 rcx, QWORD PTR $T5[rbp]
  0001e	e8 00 00 00 00	 call	 ??3@YAXPEAXAEBUnothrow_t@std@@@Z ; operator delete
  00023	48 83 c4 28	 add	 rsp, 40			; 00000028H
  00027	5f		 pop	 rdi
  00028	5d		 pop	 rbp
  00029	c3		 ret	 0
?dtor$0@?0??addScheduler@CCoreList@@QEAAHHH@Z@4HA ENDP	; `CCoreList::addScheduler'::`1'::dtor$0
text$x	ENDS
; Function compile flags: /Odtp /RTCsu
; File e:\infinia-library-3.0\com\src\comcore.cpp
_TEXT	SEGMENT
idx$ = 36
pWriter$ = 56
$T4 = 72
$T5 = 80
$T6 = 88
$T7 = 96
$T8 = 104
tv83 = 112
tv165 = 120
__$ArrayPad$ = 128
this$ = 160
nCount$ = 168
?addLogWriter@CCoreList@@QEAAHH@Z PROC			; CCoreList::addLogWriter

; 1073 : {

$LN17:
  00000	89 54 24 10	 mov	 DWORD PTR [rsp+16], edx
  00004	48 89 4c 24 08	 mov	 QWORD PTR [rsp+8], rcx
  00009	57		 push	 rdi
  0000a	48 81 ec 90 00
	00 00		 sub	 rsp, 144		; 00000090H
  00011	48 8b fc	 mov	 rdi, rsp
  00014	b9 24 00 00 00	 mov	 ecx, 36			; 00000024H
  00019	b8 cc cc cc cc	 mov	 eax, -858993460		; ccccccccH
  0001e	f3 ab		 rep stosd
  00020	48 8b 8c 24 a0
	00 00 00	 mov	 rcx, QWORD PTR [rsp+160]
  00028	48 c7 44 24 68
	fe ff ff ff	 mov	 QWORD PTR $T8[rsp], -2
  00031	48 8b 05 00 00
	00 00		 mov	 rax, QWORD PTR __security_cookie
  00038	48 33 c4	 xor	 rax, rsp
  0003b	48 89 84 24 80
	00 00 00	 mov	 QWORD PTR __$ArrayPad$[rsp], rax

; 1074 : 	int idx;
; 1075 : 
; 1076 : 	if (!m_pWriterList) {

  00043	48 8b 84 24 a0
	00 00 00	 mov	 rax, QWORD PTR this$[rsp]
  0004b	48 83 38 00	 cmp	 QWORD PTR [rax], 0
  0004f	75 23		 jne	 SHORT $LN2@addLogWrit

; 1077 : 		if (!initLogWriter(LIST_ADD_COUNT)) return -1;

  00051	ba 0a 00 00 00	 mov	 edx, 10
  00056	48 8b 8c 24 a0
	00 00 00	 mov	 rcx, QWORD PTR this$[rsp]
  0005e	e8 00 00 00 00	 call	 ?initLogWriter@CCoreList@@QEAA_NH@Z ; CCoreList::initLogWriter
  00063	0f b6 c0	 movzx	 eax, al
  00066	85 c0		 test	 eax, eax
  00068	75 0a		 jne	 SHORT $LN2@addLogWrit
  0006a	b8 ff ff ff ff	 mov	 eax, -1
  0006f	e9 d8 01 00 00	 jmp	 $LN1@addLogWrit
$LN2@addLogWrit:

; 1078 : 	}
; 1079 : 
; 1080 : 	CSTLogger *pWriter = new (std::nothrow) CSTLogger();

  00074	48 8d 15 00 00
	00 00		 lea	 rdx, OFFSET FLAT:?nothrow@std@@3Unothrow_t@1@B ; std::nothrow
  0007b	b9 58 00 00 00	 mov	 ecx, 88			; 00000058H
  00080	e8 00 00 00 00	 call	 ??2@YAPEAX_KAEBUnothrow_t@std@@@Z ; operator new
  00085	48 89 44 24 50	 mov	 QWORD PTR $T5[rsp], rax
  0008a	48 83 7c 24 50
	00		 cmp	 QWORD PTR $T5[rsp], 0
  00090	74 11		 je	 SHORT $LN12@addLogWrit
  00092	48 8b 4c 24 50	 mov	 rcx, QWORD PTR $T5[rsp]
  00097	e8 00 00 00 00	 call	 ??0CSTLogger@@QEAA@XZ	; CSTLogger::CSTLogger
  0009c	48 89 44 24 70	 mov	 QWORD PTR tv83[rsp], rax
  000a1	eb 09		 jmp	 SHORT $LN13@addLogWrit
$LN12@addLogWrit:
  000a3	48 c7 44 24 70
	00 00 00 00	 mov	 QWORD PTR tv83[rsp], 0
$LN13@addLogWrit:
  000ac	48 8b 44 24 70	 mov	 rax, QWORD PTR tv83[rsp]
  000b1	48 89 44 24 48	 mov	 QWORD PTR $T4[rsp], rax
  000b6	48 8b 44 24 48	 mov	 rax, QWORD PTR $T4[rsp]
  000bb	48 89 44 24 38	 mov	 QWORD PTR pWriter$[rsp], rax

; 1081 : 	if (!pWriter) {

  000c0	48 83 7c 24 38
	00		 cmp	 QWORD PTR pWriter$[rsp], 0
  000c6	75 23		 jne	 SHORT $LN4@addLogWrit

; 1082 : 		comErrorPrint("pWriter = new (std::nothrow) CSTLogger()");

  000c8	41 b8 3a 04 00
	00		 mov	 r8d, 1082		; 0000043aH
  000ce	48 8d 15 00 00
	00 00		 lea	 rdx, OFFSET FLAT:$SG46363
  000d5	48 8d 0d 00 00
	00 00		 lea	 rcx, OFFSET FLAT:$SG46364
  000dc	e8 00 00 00 00	 call	 ?comGlobalErrorProc@@YAXPEADPEBDH@Z ; comGlobalErrorProc

; 1083 : 		return -1;

  000e1	b8 ff ff ff ff	 mov	 eax, -1
  000e6	e9 61 01 00 00	 jmp	 $LN1@addLogWrit
$LN4@addLogWrit:

; 1084 : 	}
; 1085 : 	if (!m_pWriterList->push_back(pWriter, &idx)) {

  000eb	4c 8d 44 24 24	 lea	 r8, QWORD PTR idx$[rsp]
  000f0	48 8b 54 24 38	 mov	 rdx, QWORD PTR pWriter$[rsp]
  000f5	48 8b 84 24 a0
	00 00 00	 mov	 rax, QWORD PTR this$[rsp]
  000fd	48 8b 08	 mov	 rcx, QWORD PTR [rax]
  00100	e8 00 00 00 00	 call	 ?push_back@?$CTList@VCSTLogger@@@@QEAA_NPEAVCSTLogger@@PEAH@Z ; CTList<CSTLogger>::push_back
  00105	0f b6 c0	 movzx	 eax, al
  00108	85 c0		 test	 eax, eax
  0010a	75 36		 jne	 SHORT $LN5@addLogWrit

; 1086 : 		_stprintf(g_szMessage, _T("[idx:%d] pWriter->push_back(pWriter)"), idx);

  0010c	44 8b 44 24 24	 mov	 r8d, DWORD PTR idx$[rsp]
  00111	48 8d 15 00 00
	00 00		 lea	 rdx, OFFSET FLAT:$SG46366
  00118	48 8d 0d 00 00
	00 00		 lea	 rcx, OFFSET FLAT:?g_szMessage@@3PADA ; g_szMessage
  0011f	e8 00 00 00 00	 call	 sprintf

; 1087 : 		comErrorPrint(g_szMessage);

  00124	41 b8 3f 04 00
	00		 mov	 r8d, 1087		; 0000043fH
  0012a	48 8d 15 00 00
	00 00		 lea	 rdx, OFFSET FLAT:$SG46367
  00131	48 8d 0d 00 00
	00 00		 lea	 rcx, OFFSET FLAT:?g_szMessage@@3PADA ; g_szMessage
  00138	e8 00 00 00 00	 call	 ?comGlobalErrorProc@@YAXPEADPEBDH@Z ; comGlobalErrorProc

; 1088 : 		goto ERROR_ADDWRITER;

  0013d	e9 ca 00 00 00	 jmp	 $ERROR_ADDWRITER$18
$LN5@addLogWrit:

; 1089 : 	}
; 1090 : 	if (!pWriter->init(nCount, idx)) {

  00142	44 8b 44 24 24	 mov	 r8d, DWORD PTR idx$[rsp]
  00147	8b 94 24 a8 00
	00 00		 mov	 edx, DWORD PTR nCount$[rsp]
  0014e	48 8b 4c 24 38	 mov	 rcx, QWORD PTR pWriter$[rsp]
  00153	e8 00 00 00 00	 call	 ?init@CSTLogger@@QEAA_NHH@Z ; CSTLogger::init
  00158	0f b6 c0	 movzx	 eax, al
  0015b	85 c0		 test	 eax, eax
  0015d	75 4f		 jne	 SHORT $LN7@addLogWrit

; 1091 : 		m_pWriterList->del(idx);

  0015f	8b 54 24 24	 mov	 edx, DWORD PTR idx$[rsp]
  00163	48 8b 84 24 a0
	00 00 00	 mov	 rax, QWORD PTR this$[rsp]
  0016b	48 8b 08	 mov	 rcx, QWORD PTR [rax]
  0016e	e8 00 00 00 00	 call	 ?del@?$CTList@VCSTLogger@@@@QEAA_NH@Z ; CTList<CSTLogger>::del

; 1092 : 		_stprintf(g_szMessage, _T("pWriter->init(nCount:%d, idx:%d)"), nCount, idx);

  00173	44 8b 4c 24 24	 mov	 r9d, DWORD PTR idx$[rsp]
  00178	44 8b 84 24 a8
	00 00 00	 mov	 r8d, DWORD PTR nCount$[rsp]
  00180	48 8d 15 00 00
	00 00		 lea	 rdx, OFFSET FLAT:$SG46370
  00187	48 8d 0d 00 00
	00 00		 lea	 rcx, OFFSET FLAT:?g_szMessage@@3PADA ; g_szMessage
  0018e	e8 00 00 00 00	 call	 sprintf

; 1093 : 		comErrorPrint(g_szMessage);

  00193	41 b8 45 04 00
	00		 mov	 r8d, 1093		; 00000445H
  00199	48 8d 15 00 00
	00 00		 lea	 rdx, OFFSET FLAT:$SG46371
  001a0	48 8d 0d 00 00
	00 00		 lea	 rcx, OFFSET FLAT:?g_szMessage@@3PADA ; g_szMessage
  001a7	e8 00 00 00 00	 call	 ?comGlobalErrorProc@@YAXPEADPEBDH@Z ; comGlobalErrorProc

; 1094 : 		goto ERROR_ADDWRITER;

  001ac	eb 5e		 jmp	 SHORT $ERROR_ADDWRITER$18
$LN7@addLogWrit:

; 1095 : 	}
; 1096 : 	if (!pWriter->start()) {

  001ae	48 8b 4c 24 38	 mov	 rcx, QWORD PTR pWriter$[rsp]
  001b3	e8 00 00 00 00	 call	 ?start@CSTLogger@@QEAA_NXZ ; CSTLogger::start
  001b8	0f b6 c0	 movzx	 eax, al
  001bb	85 c0		 test	 eax, eax
  001bd	75 47		 jne	 SHORT $LN9@addLogWrit

; 1097 : 		m_pWriterList->del(idx);

  001bf	8b 54 24 24	 mov	 edx, DWORD PTR idx$[rsp]
  001c3	48 8b 84 24 a0
	00 00 00	 mov	 rax, QWORD PTR this$[rsp]
  001cb	48 8b 08	 mov	 rcx, QWORD PTR [rax]
  001ce	e8 00 00 00 00	 call	 ?del@?$CTList@VCSTLogger@@@@QEAA_NH@Z ; CTList<CSTLogger>::del

; 1098 : 		_stprintf(g_szMessage, _T("[idx:%d] pWriter->start()!"), idx);

  001d3	44 8b 44 24 24	 mov	 r8d, DWORD PTR idx$[rsp]
  001d8	48 8d 15 00 00
	00 00		 lea	 rdx, OFFSET FLAT:$SG46374
  001df	48 8d 0d 00 00
	00 00		 lea	 rcx, OFFSET FLAT:?g_szMessage@@3PADA ; g_szMessage
  001e6	e8 00 00 00 00	 call	 sprintf

; 1099 : 		comErrorPrint(g_szMessage);

  001eb	41 b8 4b 04 00
	00		 mov	 r8d, 1099		; 0000044bH
  001f1	48 8d 15 00 00
	00 00		 lea	 rdx, OFFSET FLAT:$SG46375
  001f8	48 8d 0d 00 00
	00 00		 lea	 rcx, OFFSET FLAT:?g_szMessage@@3PADA ; g_szMessage
  001ff	e8 00 00 00 00	 call	 ?comGlobalErrorProc@@YAXPEADPEBDH@Z ; comGlobalErrorProc

; 1100 : 		goto ERROR_ADDWRITER;

  00204	eb 06		 jmp	 SHORT $ERROR_ADDWRITER$18
$LN9@addLogWrit:

; 1101 : 	}
; 1102 : 	return idx;

  00206	8b 44 24 24	 mov	 eax, DWORD PTR idx$[rsp]
  0020a	eb 40		 jmp	 SHORT $LN1@addLogWrit
$ERROR_ADDWRITER$18:

; 1103 : 
; 1104 : ERROR_ADDWRITER:
; 1105 : 	delete pWriter;

  0020c	48 8b 44 24 38	 mov	 rax, QWORD PTR pWriter$[rsp]
  00211	48 89 44 24 60	 mov	 QWORD PTR $T7[rsp], rax
  00216	48 8b 44 24 60	 mov	 rax, QWORD PTR $T7[rsp]
  0021b	48 89 44 24 58	 mov	 QWORD PTR $T6[rsp], rax
  00220	48 83 7c 24 58
	00		 cmp	 QWORD PTR $T6[rsp], 0
  00226	74 16		 je	 SHORT $LN14@addLogWrit
  00228	ba 01 00 00 00	 mov	 edx, 1
  0022d	48 8b 4c 24 58	 mov	 rcx, QWORD PTR $T6[rsp]
  00232	e8 00 00 00 00	 call	 ??_GCSTLogger@@QEAAPEAXI@Z
  00237	48 89 44 24 78	 mov	 QWORD PTR tv165[rsp], rax
  0023c	eb 09		 jmp	 SHORT $LN15@addLogWrit
$LN14@addLogWrit:
  0023e	48 c7 44 24 78
	00 00 00 00	 mov	 QWORD PTR tv165[rsp], 0
$LN15@addLogWrit:

; 1106 : 	return -1;

  00247	b8 ff ff ff ff	 mov	 eax, -1
$LN1@addLogWrit:

; 1107 : }

  0024c	48 8b f8	 mov	 rdi, rax
  0024f	48 8b cc	 mov	 rcx, rsp
  00252	48 8d 15 00 00
	00 00		 lea	 rdx, OFFSET FLAT:?addLogWriter@CCoreList@@QEAAHH@Z$rtcFrameData
  00259	e8 00 00 00 00	 call	 _RTC_CheckStackVars
  0025e	48 8b c7	 mov	 rax, rdi
  00261	48 8b 8c 24 80
	00 00 00	 mov	 rcx, QWORD PTR __$ArrayPad$[rsp]
  00269	48 33 cc	 xor	 rcx, rsp
  0026c	e8 00 00 00 00	 call	 __security_check_cookie
  00271	48 81 c4 90 00
	00 00		 add	 rsp, 144		; 00000090H
  00278	5f		 pop	 rdi
  00279	c3		 ret	 0
?addLogWriter@CCoreList@@QEAAHH@Z ENDP			; CCoreList::addLogWriter
_TEXT	ENDS
text$x	SEGMENT
idx$ = 36
pWriter$ = 56
$T4 = 72
$T5 = 80
$T6 = 88
$T7 = 96
$T8 = 104
tv83 = 112
tv165 = 120
__$ArrayPad$ = 128
this$ = 160
nCount$ = 168
?dtor$0@?0??addLogWriter@CCoreList@@QEAAHH@Z@4HA PROC	; `CCoreList::addLogWriter'::`1'::dtor$0
  00000	48 89 4c 24 08	 mov	 QWORD PTR [rsp+8], rcx
  00005	48 89 54 24 10	 mov	 QWORD PTR [rsp+16], rdx
  0000a	55		 push	 rbp
  0000b	57		 push	 rdi
  0000c	48 83 ec 28	 sub	 rsp, 40			; 00000028H
  00010	48 8b ea	 mov	 rbp, rdx
  00013	48 8d 15 00 00
	00 00		 lea	 rdx, OFFSET FLAT:?nothrow@std@@3Unothrow_t@1@B ; std::nothrow
  0001a	48 8b 4d 50	 mov	 rcx, QWORD PTR $T5[rbp]
  0001e	e8 00 00 00 00	 call	 ??3@YAXPEAXAEBUnothrow_t@std@@@Z ; operator delete
  00023	48 83 c4 28	 add	 rsp, 40			; 00000028H
  00027	5f		 pop	 rdi
  00028	5d		 pop	 rbp
  00029	c3		 ret	 0
?dtor$0@?0??addLogWriter@CCoreList@@QEAAHH@Z@4HA ENDP	; `CCoreList::addLogWriter'::`1'::dtor$0
text$x	ENDS
; Function compile flags: /Odtp /RTCsu
text$x	SEGMENT
idx$ = 36
pWriter$ = 56
$T4 = 72
$T5 = 80
$T6 = 88
$T7 = 96
$T8 = 104
tv83 = 112
tv165 = 120
__$ArrayPad$ = 128
this$ = 160
nCount$ = 168
?dtor$0@?0??addLogWriter@CCoreList@@QEAAHH@Z@4HA PROC	; `CCoreList::addLogWriter'::`1'::dtor$0
  00000	48 89 4c 24 08	 mov	 QWORD PTR [rsp+8], rcx
  00005	48 89 54 24 10	 mov	 QWORD PTR [rsp+16], rdx
  0000a	55		 push	 rbp
  0000b	57		 push	 rdi
  0000c	48 83 ec 28	 sub	 rsp, 40			; 00000028H
  00010	48 8b ea	 mov	 rbp, rdx
  00013	48 8d 15 00 00
	00 00		 lea	 rdx, OFFSET FLAT:?nothrow@std@@3Unothrow_t@1@B ; std::nothrow
  0001a	48 8b 4d 50	 mov	 rcx, QWORD PTR $T5[rbp]
  0001e	e8 00 00 00 00	 call	 ??3@YAXPEAXAEBUnothrow_t@std@@@Z ; operator delete
  00023	48 83 c4 28	 add	 rsp, 40			; 00000028H
  00027	5f		 pop	 rdi
  00028	5d		 pop	 rbp
  00029	c3		 ret	 0
?dtor$0@?0??addLogWriter@CCoreList@@QEAAHH@Z@4HA ENDP	; `CCoreList::addLogWriter'::`1'::dtor$0
text$x	ENDS
; Function compile flags: /Odtp /RTCsu
; File e:\infinia-library-3.0\com\src\comcore.cpp
_TEXT	SEGMENT
pThread$ = 32
$T1 = 40
$T2 = 48
tv76 = 56
this$ = 80
nSeq$ = 88
?delComThread@CCoreList@@QEAA_NH@Z PROC			; CCoreList::delComThread

; 1062 : {

$LN6:
  00000	89 54 24 10	 mov	 DWORD PTR [rsp+16], edx
  00004	48 89 4c 24 08	 mov	 QWORD PTR [rsp+8], rcx
  00009	57		 push	 rdi
  0000a	48 83 ec 40	 sub	 rsp, 64			; 00000040H
  0000e	48 8b fc	 mov	 rdi, rsp
  00011	b9 10 00 00 00	 mov	 ecx, 16
  00016	b8 cc cc cc cc	 mov	 eax, -858993460		; ccccccccH
  0001b	f3 ab		 rep stosd
  0001d	48 8b 4c 24 50	 mov	 rcx, QWORD PTR [rsp+80]

; 1063 : 	CComThread *pThread = m_pThreadList->getObj(nSeq);

  00022	8b 54 24 58	 mov	 edx, DWORD PTR nSeq$[rsp]
  00026	48 8b 44 24 50	 mov	 rax, QWORD PTR this$[rsp]
  0002b	48 8b 48 10	 mov	 rcx, QWORD PTR [rax+16]
  0002f	e8 00 00 00 00	 call	 ?getObj@?$CTList@VCComThread@@@@QEAAPEAVCComThread@@H@Z ; CTList<CComThread>::getObj
  00034	48 89 44 24 20	 mov	 QWORD PTR pThread$[rsp], rax

; 1064 : 	if (pThread) {

  00039	48 83 7c 24 20
	00		 cmp	 QWORD PTR pThread$[rsp], 0
  0003f	74 51		 je	 SHORT $LN2@delComThre

; 1065 : 		m_pThreadList->del(nSeq);

  00041	8b 54 24 58	 mov	 edx, DWORD PTR nSeq$[rsp]
  00045	48 8b 44 24 50	 mov	 rax, QWORD PTR this$[rsp]
  0004a	48 8b 48 10	 mov	 rcx, QWORD PTR [rax+16]
  0004e	e8 00 00 00 00	 call	 ?del@?$CTList@VCComThread@@@@QEAA_NH@Z ; CTList<CComThread>::del

; 1066 : 		delete pThread;

  00053	48 8b 44 24 20	 mov	 rax, QWORD PTR pThread$[rsp]
  00058	48 89 44 24 30	 mov	 QWORD PTR $T2[rsp], rax
  0005d	48 8b 44 24 30	 mov	 rax, QWORD PTR $T2[rsp]
  00062	48 89 44 24 28	 mov	 QWORD PTR $T1[rsp], rax
  00067	48 83 7c 24 28
	00		 cmp	 QWORD PTR $T1[rsp], 0
  0006d	74 16		 je	 SHORT $LN4@delComThre
  0006f	ba 01 00 00 00	 mov	 edx, 1
  00074	48 8b 4c 24 28	 mov	 rcx, QWORD PTR $T1[rsp]
  00079	e8 00 00 00 00	 call	 ??_GCComThread@@QEAAPEAXI@Z
  0007e	48 89 44 24 38	 mov	 QWORD PTR tv76[rsp], rax
  00083	eb 09		 jmp	 SHORT $LN5@delComThre
$LN4@delComThre:
  00085	48 c7 44 24 38
	00 00 00 00	 mov	 QWORD PTR tv76[rsp], 0
$LN5@delComThre:

; 1067 : 		return true;

  0008e	b0 01		 mov	 al, 1
  00090	eb 02		 jmp	 SHORT $LN1@delComThre
$LN2@delComThre:

; 1068 : 	}
; 1069 : 	return false;

  00092	32 c0		 xor	 al, al
$LN1@delComThre:

; 1070 : }

  00094	48 83 c4 40	 add	 rsp, 64			; 00000040H
  00098	5f		 pop	 rdi
  00099	c3		 ret	 0
?delComThread@CCoreList@@QEAA_NH@Z ENDP			; CCoreList::delComThread
_TEXT	ENDS
; Function compile flags: /Odtp /RTCsu
; File e:\infinia-library-3.0\com\src\comcore.cpp
_TEXT	SEGMENT
pThread$ = 48
idx$ = 68
$T4 = 96
$T5 = 104
$T6 = 112
$T7 = 120
$T8 = 128
tv83 = 136
tv174 = 144
__$ArrayPad$ = 152
this$ = 176
fpProc$ = 184
pClass$ = 192
millisec$ = 200
pObj$ = 208
?addComThread@CCoreList@@QEAAHP6AXPEAUSTThreadInfo@@@ZPEAXH2@Z PROC ; CCoreList::addComThread

; 1022 : {

$LN18:
  00000	44 89 4c 24 20	 mov	 DWORD PTR [rsp+32], r9d
  00005	4c 89 44 24 18	 mov	 QWORD PTR [rsp+24], r8
  0000a	48 89 54 24 10	 mov	 QWORD PTR [rsp+16], rdx
  0000f	48 89 4c 24 08	 mov	 QWORD PTR [rsp+8], rcx
  00014	57		 push	 rdi
  00015	48 81 ec a0 00
	00 00		 sub	 rsp, 160		; 000000a0H
  0001c	48 8b fc	 mov	 rdi, rsp
  0001f	b9 28 00 00 00	 mov	 ecx, 40			; 00000028H
  00024	b8 cc cc cc cc	 mov	 eax, -858993460		; ccccccccH
  00029	f3 ab		 rep stosd
  0002b	48 8b 8c 24 b0
	00 00 00	 mov	 rcx, QWORD PTR [rsp+176]
  00033	48 c7 84 24 80
	00 00 00 fe ff
	ff ff		 mov	 QWORD PTR $T8[rsp], -2
  0003f	48 8b 05 00 00
	00 00		 mov	 rax, QWORD PTR __security_cookie
  00046	48 33 c4	 xor	 rax, rsp
  00049	48 89 84 24 98
	00 00 00	 mov	 QWORD PTR __$ArrayPad$[rsp], rax

; 1023 : 	CComThread *pThread;
; 1024 : 	int idx;
; 1025 : 	if (!m_pThreadList) {

  00051	48 8b 84 24 b0
	00 00 00	 mov	 rax, QWORD PTR this$[rsp]
  00059	48 83 78 10 00	 cmp	 QWORD PTR [rax+16], 0
  0005e	75 23		 jne	 SHORT $LN2@addComThre

; 1026 : 		if (!initComThread(LIST_ADD_COUNT)) return -1;

  00060	ba 0a 00 00 00	 mov	 edx, 10
  00065	48 8b 8c 24 b0
	00 00 00	 mov	 rcx, QWORD PTR this$[rsp]
  0006d	e8 00 00 00 00	 call	 ?initComThread@CCoreList@@QEAA_NH@Z ; CCoreList::initComThread
  00072	0f b6 c0	 movzx	 eax, al
  00075	85 c0		 test	 eax, eax
  00077	75 0a		 jne	 SHORT $LN2@addComThre
  00079	b8 ff ff ff ff	 mov	 eax, -1
  0007e	e9 25 02 00 00	 jmp	 $LN1@addComThre
$LN2@addComThre:

; 1027 : 	}
; 1028 : 
; 1029 : 	pThread = new (std::nothrow) CComThread();

  00083	48 8d 15 00 00
	00 00		 lea	 rdx, OFFSET FLAT:?nothrow@std@@3Unothrow_t@1@B ; std::nothrow
  0008a	b9 48 00 00 00	 mov	 ecx, 72			; 00000048H
  0008f	e8 00 00 00 00	 call	 ??2@YAPEAX_KAEBUnothrow_t@std@@@Z ; operator new
  00094	48 89 44 24 68	 mov	 QWORD PTR $T5[rsp], rax
  00099	48 83 7c 24 68
	00		 cmp	 QWORD PTR $T5[rsp], 0
  0009f	74 14		 je	 SHORT $LN13@addComThre
  000a1	48 8b 4c 24 68	 mov	 rcx, QWORD PTR $T5[rsp]
  000a6	e8 00 00 00 00	 call	 ??0CComThread@@QEAA@XZ	; CComThread::CComThread
  000ab	48 89 84 24 88
	00 00 00	 mov	 QWORD PTR tv83[rsp], rax
  000b3	eb 0c		 jmp	 SHORT $LN14@addComThre
$LN13@addComThre:
  000b5	48 c7 84 24 88
	00 00 00 00 00
	00 00		 mov	 QWORD PTR tv83[rsp], 0
$LN14@addComThre:
  000c1	48 8b 84 24 88
	00 00 00	 mov	 rax, QWORD PTR tv83[rsp]
  000c9	48 89 44 24 60	 mov	 QWORD PTR $T4[rsp], rax
  000ce	48 8b 44 24 60	 mov	 rax, QWORD PTR $T4[rsp]
  000d3	48 89 44 24 30	 mov	 QWORD PTR pThread$[rsp], rax

; 1030 : 	if (!pThread) {

  000d8	48 83 7c 24 30
	00		 cmp	 QWORD PTR pThread$[rsp], 0
  000de	75 45		 jne	 SHORT $LN4@addComThre

; 1031 : 		_stprintf(g_szMessage, _T("[lastIdx:%d] new CComThread"), m_pThreadList->lastIdx());

  000e0	48 8b 84 24 b0
	00 00 00	 mov	 rax, QWORD PTR this$[rsp]
  000e8	48 8b 48 10	 mov	 rcx, QWORD PTR [rax+16]
  000ec	e8 00 00 00 00	 call	 ?lastIdx@?$CTList@VCComThread@@@@QEAAHXZ ; CTList<CComThread>::lastIdx
  000f1	44 8b c0	 mov	 r8d, eax
  000f4	48 8d 15 00 00
	00 00		 lea	 rdx, OFFSET FLAT:$SG46317
  000fb	48 8d 0d 00 00
	00 00		 lea	 rcx, OFFSET FLAT:?g_szMessage@@3PADA ; g_szMessage
  00102	e8 00 00 00 00	 call	 sprintf

; 1032 : 		comErrorPrint(g_szMessage);

  00107	41 b8 08 04 00
	00		 mov	 r8d, 1032		; 00000408H
  0010d	48 8d 15 00 00
	00 00		 lea	 rdx, OFFSET FLAT:$SG46318
  00114	48 8d 0d 00 00
	00 00		 lea	 rcx, OFFSET FLAT:?g_szMessage@@3PADA ; g_szMessage
  0011b	e8 00 00 00 00	 call	 ?comGlobalErrorProc@@YAXPEADPEBDH@Z ; comGlobalErrorProc

; 1033 : 		goto ERROR_ADDCOMTHREAD;

  00120	e9 3d 01 00 00	 jmp	 $ERROR_ADDCOMTHREAD$19
$LN4@addComThre:

; 1034 : 	}
; 1035 : 
; 1036 : 	if (!pThread->init(fpProc, pClass, millisec, pObj)) {

  00125	48 8b 84 24 d0
	00 00 00	 mov	 rax, QWORD PTR pObj$[rsp]
  0012d	48 89 44 24 20	 mov	 QWORD PTR [rsp+32], rax
  00132	44 8b 8c 24 c8
	00 00 00	 mov	 r9d, DWORD PTR millisec$[rsp]
  0013a	4c 8b 84 24 c0
	00 00 00	 mov	 r8, QWORD PTR pClass$[rsp]
  00142	48 8b 94 24 b8
	00 00 00	 mov	 rdx, QWORD PTR fpProc$[rsp]
  0014a	48 8b 4c 24 30	 mov	 rcx, QWORD PTR pThread$[rsp]
  0014f	e8 00 00 00 00	 call	 ?init@CComThread@@QEAA_NP6AXPEAUSTThreadInfo@@@ZPEAXH2@Z ; CComThread::init
  00154	0f b6 c0	 movzx	 eax, al
  00157	85 c0		 test	 eax, eax
  00159	75 45		 jne	 SHORT $LN6@addComThre

; 1037 : 		_stprintf(g_szMessage, _T("[lastIdx:%d] pComThread->init()"), m_pThreadList->lastIdx());

  0015b	48 8b 84 24 b0
	00 00 00	 mov	 rax, QWORD PTR this$[rsp]
  00163	48 8b 48 10	 mov	 rcx, QWORD PTR [rax+16]
  00167	e8 00 00 00 00	 call	 ?lastIdx@?$CTList@VCComThread@@@@QEAAHXZ ; CTList<CComThread>::lastIdx
  0016c	44 8b c0	 mov	 r8d, eax
  0016f	48 8d 15 00 00
	00 00		 lea	 rdx, OFFSET FLAT:$SG46321
  00176	48 8d 0d 00 00
	00 00		 lea	 rcx, OFFSET FLAT:?g_szMessage@@3PADA ; g_szMessage
  0017d	e8 00 00 00 00	 call	 sprintf

; 1038 : 		comErrorPrint(g_szMessage);

  00182	41 b8 0e 04 00
	00		 mov	 r8d, 1038		; 0000040eH
  00188	48 8d 15 00 00
	00 00		 lea	 rdx, OFFSET FLAT:$SG46322
  0018f	48 8d 0d 00 00
	00 00		 lea	 rcx, OFFSET FLAT:?g_szMessage@@3PADA ; g_szMessage
  00196	e8 00 00 00 00	 call	 ?comGlobalErrorProc@@YAXPEADPEBDH@Z ; comGlobalErrorProc

; 1039 : 		goto ERROR_ADDCOMTHREAD;

  0019b	e9 c2 00 00 00	 jmp	 $ERROR_ADDCOMTHREAD$19
$LN6@addComThre:

; 1040 : 	}
; 1041 : 
; 1042 : 	if (!m_pThreadList->push_back(pThread, &idx)) {

  001a0	4c 8d 44 24 44	 lea	 r8, QWORD PTR idx$[rsp]
  001a5	48 8b 54 24 30	 mov	 rdx, QWORD PTR pThread$[rsp]
  001aa	48 8b 84 24 b0
	00 00 00	 mov	 rax, QWORD PTR this$[rsp]
  001b2	48 8b 48 10	 mov	 rcx, QWORD PTR [rax+16]
  001b6	e8 00 00 00 00	 call	 ?push_back@?$CTList@VCComThread@@@@QEAA_NPEAVCComThread@@PEAH@Z ; CTList<CComThread>::push_back
  001bb	0f b6 c0	 movzx	 eax, al
  001be	85 c0		 test	 eax, eax
  001c0	75 33		 jne	 SHORT $LN8@addComThre

; 1043 : 		_stprintf(g_szMessage, _T("[idx:%d] m_pThreadList->push_back()"), idx);

  001c2	44 8b 44 24 44	 mov	 r8d, DWORD PTR idx$[rsp]
  001c7	48 8d 15 00 00
	00 00		 lea	 rdx, OFFSET FLAT:$SG46325
  001ce	48 8d 0d 00 00
	00 00		 lea	 rcx, OFFSET FLAT:?g_szMessage@@3PADA ; g_szMessage
  001d5	e8 00 00 00 00	 call	 sprintf

; 1044 : 		comErrorPrint(g_szMessage);

  001da	41 b8 14 04 00
	00		 mov	 r8d, 1044		; 00000414H
  001e0	48 8d 15 00 00
	00 00		 lea	 rdx, OFFSET FLAT:$SG46326
  001e7	48 8d 0d 00 00
	00 00		 lea	 rcx, OFFSET FLAT:?g_szMessage@@3PADA ; g_szMessage
  001ee	e8 00 00 00 00	 call	 ?comGlobalErrorProc@@YAXPEADPEBDH@Z ; comGlobalErrorProc

; 1045 : 		goto ERROR_ADDCOMTHREAD;

  001f3	eb 6d		 jmp	 SHORT $ERROR_ADDCOMTHREAD$19
$LN8@addComThre:

; 1046 : 	}
; 1047 : 	pThread->setIdx(idx);

  001f5	8b 54 24 44	 mov	 edx, DWORD PTR idx$[rsp]
  001f9	48 8b 4c 24 30	 mov	 rcx, QWORD PTR pThread$[rsp]
  001fe	e8 00 00 00 00	 call	 ?setIdx@CComThread@@QEAAXH@Z ; CComThread::setIdx

; 1048 : 	if (!pThread->start()) {

  00203	48 8b 4c 24 30	 mov	 rcx, QWORD PTR pThread$[rsp]
  00208	e8 00 00 00 00	 call	 ?start@CComThread@@QEAA_NXZ ; CComThread::start
  0020d	0f b6 c0	 movzx	 eax, al
  00210	85 c0		 test	 eax, eax
  00212	75 48		 jne	 SHORT $LN10@addComThre

; 1049 : 		m_pThreadList->del(idx);

  00214	8b 54 24 44	 mov	 edx, DWORD PTR idx$[rsp]
  00218	48 8b 84 24 b0
	00 00 00	 mov	 rax, QWORD PTR this$[rsp]
  00220	48 8b 48 10	 mov	 rcx, QWORD PTR [rax+16]
  00224	e8 00 00 00 00	 call	 ?del@?$CTList@VCComThread@@@@QEAA_NH@Z ; CTList<CComThread>::del

; 1050 : 		_stprintf(g_szMessage, _T("[idx:%d] pComThread->start()"), idx);

  00229	44 8b 44 24 44	 mov	 r8d, DWORD PTR idx$[rsp]
  0022e	48 8d 15 00 00
	00 00		 lea	 rdx, OFFSET FLAT:$SG46329
  00235	48 8d 0d 00 00
	00 00		 lea	 rcx, OFFSET FLAT:?g_szMessage@@3PADA ; g_szMessage
  0023c	e8 00 00 00 00	 call	 sprintf

; 1051 : 		comErrorPrint(g_szMessage);

  00241	41 b8 1b 04 00
	00		 mov	 r8d, 1051		; 0000041bH
  00247	48 8d 15 00 00
	00 00		 lea	 rdx, OFFSET FLAT:$SG46330
  0024e	48 8d 0d 00 00
	00 00		 lea	 rcx, OFFSET FLAT:?g_szMessage@@3PADA ; g_szMessage
  00255	e8 00 00 00 00	 call	 ?comGlobalErrorProc@@YAXPEADPEBDH@Z ; comGlobalErrorProc

; 1052 : 		goto ERROR_ADDCOMTHREAD;

  0025a	eb 06		 jmp	 SHORT $ERROR_ADDCOMTHREAD$19
$LN10@addComThre:

; 1053 : 	}
; 1054 : 	return idx;

  0025c	8b 44 24 44	 mov	 eax, DWORD PTR idx$[rsp]
  00260	eb 46		 jmp	 SHORT $LN1@addComThre
$ERROR_ADDCOMTHREAD$19:

; 1055 : 
; 1056 : ERROR_ADDCOMTHREAD:
; 1057 : 	delete pThread;

  00262	48 8b 44 24 30	 mov	 rax, QWORD PTR pThread$[rsp]
  00267	48 89 44 24 78	 mov	 QWORD PTR $T7[rsp], rax
  0026c	48 8b 44 24 78	 mov	 rax, QWORD PTR $T7[rsp]
  00271	48 89 44 24 70	 mov	 QWORD PTR $T6[rsp], rax
  00276	48 83 7c 24 70
	00		 cmp	 QWORD PTR $T6[rsp], 0
  0027c	74 19		 je	 SHORT $LN15@addComThre
  0027e	ba 01 00 00 00	 mov	 edx, 1
  00283	48 8b 4c 24 70	 mov	 rcx, QWORD PTR $T6[rsp]
  00288	e8 00 00 00 00	 call	 ??_GCComThread@@QEAAPEAXI@Z
  0028d	48 89 84 24 90
	00 00 00	 mov	 QWORD PTR tv174[rsp], rax
  00295	eb 0c		 jmp	 SHORT $LN16@addComThre
$LN15@addComThre:
  00297	48 c7 84 24 90
	00 00 00 00 00
	00 00		 mov	 QWORD PTR tv174[rsp], 0
$LN16@addComThre:

; 1058 : 	return -1;

  002a3	b8 ff ff ff ff	 mov	 eax, -1
$LN1@addComThre:

; 1059 : }

  002a8	48 8b f8	 mov	 rdi, rax
  002ab	48 8b cc	 mov	 rcx, rsp
  002ae	48 8d 15 00 00
	00 00		 lea	 rdx, OFFSET FLAT:?addComThread@CCoreList@@QEAAHP6AXPEAUSTThreadInfo@@@ZPEAXH2@Z$rtcFrameData
  002b5	e8 00 00 00 00	 call	 _RTC_CheckStackVars
  002ba	48 8b c7	 mov	 rax, rdi
  002bd	48 8b 8c 24 98
	00 00 00	 mov	 rcx, QWORD PTR __$ArrayPad$[rsp]
  002c5	48 33 cc	 xor	 rcx, rsp
  002c8	e8 00 00 00 00	 call	 __security_check_cookie
  002cd	48 81 c4 a0 00
	00 00		 add	 rsp, 160		; 000000a0H
  002d4	5f		 pop	 rdi
  002d5	c3		 ret	 0
?addComThread@CCoreList@@QEAAHP6AXPEAUSTThreadInfo@@@ZPEAXH2@Z ENDP ; CCoreList::addComThread
_TEXT	ENDS
text$x	SEGMENT
pThread$ = 48
idx$ = 68
$T4 = 96
$T5 = 104
$T6 = 112
$T7 = 120
$T8 = 128
tv83 = 136
tv174 = 144
__$ArrayPad$ = 152
this$ = 176
fpProc$ = 184
pClass$ = 192
millisec$ = 200
pObj$ = 208
?dtor$0@?0??addComThread@CCoreList@@QEAAHP6AXPEAUSTThreadInfo@@@ZPEAXH2@Z@4HA PROC ; `CCoreList::addComThread'::`1'::dtor$0
  00000	48 89 4c 24 08	 mov	 QWORD PTR [rsp+8], rcx
  00005	48 89 54 24 10	 mov	 QWORD PTR [rsp+16], rdx
  0000a	55		 push	 rbp
  0000b	57		 push	 rdi
  0000c	48 83 ec 28	 sub	 rsp, 40			; 00000028H
  00010	48 8b ea	 mov	 rbp, rdx
  00013	48 8d 15 00 00
	00 00		 lea	 rdx, OFFSET FLAT:?nothrow@std@@3Unothrow_t@1@B ; std::nothrow
  0001a	48 8b 4d 68	 mov	 rcx, QWORD PTR $T5[rbp]
  0001e	e8 00 00 00 00	 call	 ??3@YAXPEAXAEBUnothrow_t@std@@@Z ; operator delete
  00023	48 83 c4 28	 add	 rsp, 40			; 00000028H
  00027	5f		 pop	 rdi
  00028	5d		 pop	 rbp
  00029	c3		 ret	 0
?dtor$0@?0??addComThread@CCoreList@@QEAAHP6AXPEAUSTThreadInfo@@@ZPEAXH2@Z@4HA ENDP ; `CCoreList::addComThread'::`1'::dtor$0
text$x	ENDS
; Function compile flags: /Odtp /RTCsu
text$x	SEGMENT
pThread$ = 48
idx$ = 68
$T4 = 96
$T5 = 104
$T6 = 112
$T7 = 120
$T8 = 128
tv83 = 136
tv174 = 144
__$ArrayPad$ = 152
this$ = 176
fpProc$ = 184
pClass$ = 192
millisec$ = 200
pObj$ = 208
?dtor$0@?0??addComThread@CCoreList@@QEAAHP6AXPEAUSTThreadInfo@@@ZPEAXH2@Z@4HA PROC ; `CCoreList::addComThread'::`1'::dtor$0
  00000	48 89 4c 24 08	 mov	 QWORD PTR [rsp+8], rcx
  00005	48 89 54 24 10	 mov	 QWORD PTR [rsp+16], rdx
  0000a	55		 push	 rbp
  0000b	57		 push	 rdi
  0000c	48 83 ec 28	 sub	 rsp, 40			; 00000028H
  00010	48 8b ea	 mov	 rbp, rdx
  00013	48 8d 15 00 00
	00 00		 lea	 rdx, OFFSET FLAT:?nothrow@std@@3Unothrow_t@1@B ; std::nothrow
  0001a	48 8b 4d 68	 mov	 rcx, QWORD PTR $T5[rbp]
  0001e	e8 00 00 00 00	 call	 ??3@YAXPEAXAEBUnothrow_t@std@@@Z ; operator delete
  00023	48 83 c4 28	 add	 rsp, 40			; 00000028H
  00027	5f		 pop	 rdi
  00028	5d		 pop	 rbp
  00029	c3		 ret	 0
?dtor$0@?0??addComThread@CCoreList@@QEAAHP6AXPEAUSTThreadInfo@@@ZPEAXH2@Z@4HA ENDP ; `CCoreList::addComThread'::`1'::dtor$0
text$x	ENDS
; Function compile flags: /Odtp /RTCsu
; File e:\infinia-library-3.0\com\src\comcore.cpp
_TEXT	SEGMENT
pSchedulerThread$ = 32
this$ = 64
p$ = 72
?putTimer@CCoreList@@QEAA_NPEAUSTIntervalInfo@@@Z PROC	; CCoreList::putTimer

; 1009 : {

$LN5:
  00000	48 89 54 24 10	 mov	 QWORD PTR [rsp+16], rdx
  00005	48 89 4c 24 08	 mov	 QWORD PTR [rsp+8], rcx
  0000a	57		 push	 rdi
  0000b	48 83 ec 30	 sub	 rsp, 48			; 00000030H
  0000f	48 8b fc	 mov	 rdi, rsp
  00012	b9 0c 00 00 00	 mov	 ecx, 12
  00017	b8 cc cc cc cc	 mov	 eax, -858993460		; ccccccccH
  0001c	f3 ab		 rep stosd
  0001e	48 8b 4c 24 40	 mov	 rcx, QWORD PTR [rsp+64]

; 1010 : 	CScheduler *pSchedulerThread = m_pSchedulerList->getObj(p->nThreadIdx);

  00023	48 8b 44 24 48	 mov	 rax, QWORD PTR p$[rsp]
  00028	8b 10		 mov	 edx, DWORD PTR [rax]
  0002a	48 8b 44 24 40	 mov	 rax, QWORD PTR this$[rsp]
  0002f	48 8b 48 08	 mov	 rcx, QWORD PTR [rax+8]
  00033	e8 00 00 00 00	 call	 ?getObj@?$CTList@VCScheduler@@@@QEAAPEAVCScheduler@@H@Z ; CTList<CScheduler>::getObj
  00038	48 89 44 24 20	 mov	 QWORD PTR pSchedulerThread$[rsp], rax

; 1011 : 	if (!pSchedulerThread) {

  0003d	48 83 7c 24 20
	00		 cmp	 QWORD PTR pSchedulerThread$[rsp], 0
  00043	75 04		 jne	 SHORT $LN2@putTimer

; 1012 : 		return false;

  00045	32 c0		 xor	 al, al
  00047	eb 19		 jmp	 SHORT $LN1@putTimer
$LN2@putTimer:

; 1013 : 	}
; 1014 : 	if (!pSchedulerThread->addTime(p)) {

  00049	48 8b 54 24 48	 mov	 rdx, QWORD PTR p$[rsp]
  0004e	48 8b 4c 24 20	 mov	 rcx, QWORD PTR pSchedulerThread$[rsp]
  00053	e8 00 00 00 00	 call	 ?addTime@CScheduler@@QEAAHPEAUSTIntervalInfo@@@Z ; CScheduler::addTime
  00058	85 c0		 test	 eax, eax
  0005a	75 04		 jne	 SHORT $LN3@putTimer

; 1015 : 		return false;

  0005c	32 c0		 xor	 al, al
  0005e	eb 02		 jmp	 SHORT $LN1@putTimer
$LN3@putTimer:

; 1016 : 	}
; 1017 : 	return true;

  00060	b0 01		 mov	 al, 1
$LN1@putTimer:

; 1018 : }

  00062	48 83 c4 30	 add	 rsp, 48			; 00000030H
  00066	5f		 pop	 rdi
  00067	c3		 ret	 0
?putTimer@CCoreList@@QEAA_NPEAUSTIntervalInfo@@@Z ENDP	; CCoreList::putTimer
_TEXT	ENDS
; Function compile flags: /Odtp /RTCsu
; File e:\infinia-library-3.0\com\src\comcore.cpp
_TEXT	SEGMENT
pQueueThread$ = 32
this$ = 64
p$ = 72
?putEvent@CCoreList@@QEAA_NPEAUSTEvent@@@Z PROC		; CCoreList::putEvent

; 997  : {

$LN5:
  00000	48 89 54 24 10	 mov	 QWORD PTR [rsp+16], rdx
  00005	48 89 4c 24 08	 mov	 QWORD PTR [rsp+8], rcx
  0000a	57		 push	 rdi
  0000b	48 83 ec 30	 sub	 rsp, 48			; 00000030H
  0000f	48 8b fc	 mov	 rdi, rsp
  00012	b9 0c 00 00 00	 mov	 ecx, 12
  00017	b8 cc cc cc cc	 mov	 eax, -858993460		; ccccccccH
  0001c	f3 ab		 rep stosd
  0001e	48 8b 4c 24 40	 mov	 rcx, QWORD PTR [rsp+64]

; 998  : 	CComQueueThread *pQueueThread = m_pEventThreadList->getObj(p->nThreadIdx);

  00023	48 8b 44 24 48	 mov	 rax, QWORD PTR p$[rsp]
  00028	8b 10		 mov	 edx, DWORD PTR [rax]
  0002a	48 8b 44 24 40	 mov	 rax, QWORD PTR this$[rsp]
  0002f	48 8b 48 18	 mov	 rcx, QWORD PTR [rax+24]
  00033	e8 00 00 00 00	 call	 ?getObj@?$CTList@VCComQueueThread@@@@QEAAPEAVCComQueueThread@@H@Z ; CTList<CComQueueThread>::getObj
  00038	48 89 44 24 20	 mov	 QWORD PTR pQueueThread$[rsp], rax

; 999  : 	if (!pQueueThread) {

  0003d	48 83 7c 24 20
	00		 cmp	 QWORD PTR pQueueThread$[rsp], 0
  00043	75 04		 jne	 SHORT $LN2@putEvent

; 1000 : 		return false;

  00045	32 c0		 xor	 al, al
  00047	eb 1c		 jmp	 SHORT $LN1@putEvent
$LN2@putEvent:

; 1001 : 	}
; 1002 : 	if (!pQueueThread->putQueue(p)) {

  00049	48 8b 54 24 48	 mov	 rdx, QWORD PTR p$[rsp]
  0004e	48 8b 4c 24 20	 mov	 rcx, QWORD PTR pQueueThread$[rsp]
  00053	e8 00 00 00 00	 call	 ?putQueue@CComQueueThread@@QEAA_NPEAUSTEvent@@@Z ; CComQueueThread::putQueue
  00058	0f b6 c0	 movzx	 eax, al
  0005b	85 c0		 test	 eax, eax
  0005d	75 04		 jne	 SHORT $LN3@putEvent

; 1003 : 		return false;

  0005f	32 c0		 xor	 al, al
  00061	eb 02		 jmp	 SHORT $LN1@putEvent
$LN3@putEvent:

; 1004 : 	}
; 1005 : 	return true;

  00063	b0 01		 mov	 al, 1
$LN1@putEvent:

; 1006 : }

  00065	48 83 c4 30	 add	 rsp, 48			; 00000030H
  00069	5f		 pop	 rdi
  0006a	c3		 ret	 0
?putEvent@CCoreList@@QEAA_NPEAUSTEvent@@@Z ENDP		; CCoreList::putEvent
_TEXT	ENDS
; Function compile flags: /Odtp /RTCsu
; File e:\infinia-library-3.0\com\include\comcore.h
;	COMDAT ?delEvent@CCoreList@@QEAA_NPEAUSTEvent@@@Z
_TEXT	SEGMENT
this$ = 48
p$ = 56
?delEvent@CCoreList@@QEAA_NPEAUSTEvent@@@Z PROC		; CCoreList::delEvent, COMDAT

; 196  : 	inline bool delEvent(STEvent *p) { return m_pEventPool->delMem(p); }

$LN3:
  00000	48 89 54 24 10	 mov	 QWORD PTR [rsp+16], rdx
  00005	48 89 4c 24 08	 mov	 QWORD PTR [rsp+8], rcx
  0000a	57		 push	 rdi
  0000b	48 83 ec 20	 sub	 rsp, 32			; 00000020H
  0000f	48 8b fc	 mov	 rdi, rsp
  00012	b9 08 00 00 00	 mov	 ecx, 8
  00017	b8 cc cc cc cc	 mov	 eax, -858993460		; ccccccccH
  0001c	f3 ab		 rep stosd
  0001e	48 8b 4c 24 30	 mov	 rcx, QWORD PTR [rsp+48]
  00023	48 8b 54 24 38	 mov	 rdx, QWORD PTR p$[rsp]
  00028	48 8b 44 24 30	 mov	 rax, QWORD PTR this$[rsp]
  0002d	48 8b 48 28	 mov	 rcx, QWORD PTR [rax+40]
  00031	e8 00 00 00 00	 call	 ?delMem@?$CMemPool@USTEvent@@@@QEAA_NPEAUSTEvent@@@Z ; CMemPool<STEvent>::delMem
  00036	48 83 c4 20	 add	 rsp, 32			; 00000020H
  0003a	5f		 pop	 rdi
  0003b	c3		 ret	 0
?delEvent@CCoreList@@QEAA_NPEAUSTEvent@@@Z ENDP		; CCoreList::delEvent
_TEXT	ENDS
; Function compile flags: /Odtp /RTCsu
; File e:\infinia-library-3.0\com\src\comcore.cpp
_TEXT	SEGMENT
$T1 = 32
$T2 = 40
$T3 = 48
$T4 = 56
$T5 = 64
$T6 = 72
$T7 = 80
$T8 = 88
$T9 = 96
$T10 = 104
$T11 = 112
$T12 = 120
tv71 = 128
tv80 = 136
tv89 = 144
tv130 = 152
tv139 = 160
tv148 = 168
this$ = 192
?destroy@CCoreList@@QEAAXXZ PROC			; CCoreList::destroy

; 495  : {

$LN21:
  00000	48 89 4c 24 08	 mov	 QWORD PTR [rsp+8], rcx
  00005	57		 push	 rdi
  00006	48 81 ec b0 00
	00 00		 sub	 rsp, 176		; 000000b0H
  0000d	48 8b fc	 mov	 rdi, rsp
  00010	b9 2c 00 00 00	 mov	 ecx, 44			; 0000002cH
  00015	b8 cc cc cc cc	 mov	 eax, -858993460		; ccccccccH
  0001a	f3 ab		 rep stosd
  0001c	48 8b 8c 24 c0
	00 00 00	 mov	 rcx, QWORD PTR [rsp+192]

; 496  : 	if (m_pWriterList) {

  00024	48 8b 84 24 c0
	00 00 00	 mov	 rax, QWORD PTR this$[rsp]
  0002c	48 83 38 00	 cmp	 QWORD PTR [rax], 0
  00030	74 56		 je	 SHORT $LN2@destroy

; 497  : 		delete m_pWriterList; 

  00032	48 8b 84 24 c0
	00 00 00	 mov	 rax, QWORD PTR this$[rsp]
  0003a	48 8b 00	 mov	 rax, QWORD PTR [rax]
  0003d	48 89 44 24 28	 mov	 QWORD PTR $T2[rsp], rax
  00042	48 8b 44 24 28	 mov	 rax, QWORD PTR $T2[rsp]
  00047	48 89 44 24 20	 mov	 QWORD PTR $T1[rsp], rax
  0004c	48 83 7c 24 20
	00		 cmp	 QWORD PTR $T1[rsp], 0
  00052	74 19		 je	 SHORT $LN9@destroy
  00054	ba 01 00 00 00	 mov	 edx, 1
  00059	48 8b 4c 24 20	 mov	 rcx, QWORD PTR $T1[rsp]
  0005e	e8 00 00 00 00	 call	 ??_G?$CTList@VCSTLogger@@@@QEAAPEAXI@Z
  00063	48 89 84 24 80
	00 00 00	 mov	 QWORD PTR tv71[rsp], rax
  0006b	eb 0c		 jmp	 SHORT $LN10@destroy
$LN9@destroy:
  0006d	48 c7 84 24 80
	00 00 00 00 00
	00 00		 mov	 QWORD PTR tv71[rsp], 0
$LN10@destroy:

; 498  : 		m_pWriterList = NULL;

  00079	48 8b 84 24 c0
	00 00 00	 mov	 rax, QWORD PTR this$[rsp]
  00081	48 c7 00 00 00
	00 00		 mov	 QWORD PTR [rax], 0
$LN2@destroy:

; 499  : 	}
; 500  : 	if (m_pSchedulerList) {

  00088	48 8b 84 24 c0
	00 00 00	 mov	 rax, QWORD PTR this$[rsp]
  00090	48 83 78 08 00	 cmp	 QWORD PTR [rax+8], 0
  00095	74 58		 je	 SHORT $LN3@destroy

; 501  : 		delete m_pSchedulerList;

  00097	48 8b 84 24 c0
	00 00 00	 mov	 rax, QWORD PTR this$[rsp]
  0009f	48 8b 40 08	 mov	 rax, QWORD PTR [rax+8]
  000a3	48 89 44 24 38	 mov	 QWORD PTR $T4[rsp], rax
  000a8	48 8b 44 24 38	 mov	 rax, QWORD PTR $T4[rsp]
  000ad	48 89 44 24 30	 mov	 QWORD PTR $T3[rsp], rax
  000b2	48 83 7c 24 30
	00		 cmp	 QWORD PTR $T3[rsp], 0
  000b8	74 19		 je	 SHORT $LN11@destroy
  000ba	ba 01 00 00 00	 mov	 edx, 1
  000bf	48 8b 4c 24 30	 mov	 rcx, QWORD PTR $T3[rsp]
  000c4	e8 00 00 00 00	 call	 ??_G?$CTList@VCScheduler@@@@QEAAPEAXI@Z
  000c9	48 89 84 24 88
	00 00 00	 mov	 QWORD PTR tv80[rsp], rax
  000d1	eb 0c		 jmp	 SHORT $LN12@destroy
$LN11@destroy:
  000d3	48 c7 84 24 88
	00 00 00 00 00
	00 00		 mov	 QWORD PTR tv80[rsp], 0
$LN12@destroy:

; 502  : 		m_pSchedulerList = NULL;

  000df	48 8b 84 24 c0
	00 00 00	 mov	 rax, QWORD PTR this$[rsp]
  000e7	48 c7 40 08 00
	00 00 00	 mov	 QWORD PTR [rax+8], 0
$LN3@destroy:

; 503  : 	}
; 504  : 	if (m_pThreadList) {

  000ef	48 8b 84 24 c0
	00 00 00	 mov	 rax, QWORD PTR this$[rsp]
  000f7	48 83 78 10 00	 cmp	 QWORD PTR [rax+16], 0
  000fc	74 58		 je	 SHORT $LN4@destroy

; 505  : 		delete m_pThreadList;

  000fe	48 8b 84 24 c0
	00 00 00	 mov	 rax, QWORD PTR this$[rsp]
  00106	48 8b 40 10	 mov	 rax, QWORD PTR [rax+16]
  0010a	48 89 44 24 48	 mov	 QWORD PTR $T6[rsp], rax
  0010f	48 8b 44 24 48	 mov	 rax, QWORD PTR $T6[rsp]
  00114	48 89 44 24 40	 mov	 QWORD PTR $T5[rsp], rax
  00119	48 83 7c 24 40
	00		 cmp	 QWORD PTR $T5[rsp], 0
  0011f	74 19		 je	 SHORT $LN13@destroy
  00121	ba 01 00 00 00	 mov	 edx, 1
  00126	48 8b 4c 24 40	 mov	 rcx, QWORD PTR $T5[rsp]
  0012b	e8 00 00 00 00	 call	 ??_G?$CTList@VCComThread@@@@QEAAPEAXI@Z
  00130	48 89 84 24 90
	00 00 00	 mov	 QWORD PTR tv89[rsp], rax
  00138	eb 0c		 jmp	 SHORT $LN14@destroy
$LN13@destroy:
  0013a	48 c7 84 24 90
	00 00 00 00 00
	00 00		 mov	 QWORD PTR tv89[rsp], 0
$LN14@destroy:

; 506  : 		m_pThreadList = NULL;

  00146	48 8b 84 24 c0
	00 00 00	 mov	 rax, QWORD PTR this$[rsp]
  0014e	48 c7 40 10 00
	00 00 00	 mov	 QWORD PTR [rax+16], 0
$LN4@destroy:

; 507  : 	}
; 508  : 	if (m_pEventThreadList) {

  00156	48 8b 84 24 c0
	00 00 00	 mov	 rax, QWORD PTR this$[rsp]
  0015e	48 83 78 18 00	 cmp	 QWORD PTR [rax+24], 0
  00163	74 58		 je	 SHORT $LN5@destroy

; 509  : 		delete m_pEventThreadList;

  00165	48 8b 84 24 c0
	00 00 00	 mov	 rax, QWORD PTR this$[rsp]
  0016d	48 8b 40 18	 mov	 rax, QWORD PTR [rax+24]
  00171	48 89 44 24 58	 mov	 QWORD PTR $T8[rsp], rax
  00176	48 8b 44 24 58	 mov	 rax, QWORD PTR $T8[rsp]
  0017b	48 89 44 24 50	 mov	 QWORD PTR $T7[rsp], rax
  00180	48 83 7c 24 50
	00		 cmp	 QWORD PTR $T7[rsp], 0
  00186	74 19		 je	 SHORT $LN15@destroy
  00188	ba 01 00 00 00	 mov	 edx, 1
  0018d	48 8b 4c 24 50	 mov	 rcx, QWORD PTR $T7[rsp]
  00192	e8 00 00 00 00	 call	 ??_G?$CTList@VCComQueueThread@@@@QEAAPEAXI@Z
  00197	48 89 84 24 98
	00 00 00	 mov	 QWORD PTR tv130[rsp], rax
  0019f	eb 0c		 jmp	 SHORT $LN16@destroy
$LN15@destroy:
  001a1	48 c7 84 24 98
	00 00 00 00 00
	00 00		 mov	 QWORD PTR tv130[rsp], 0
$LN16@destroy:

; 510  : 		m_pEventThreadList = NULL;

  001ad	48 8b 84 24 c0
	00 00 00	 mov	 rax, QWORD PTR this$[rsp]
  001b5	48 c7 40 18 00
	00 00 00	 mov	 QWORD PTR [rax+24], 0
$LN5@destroy:

; 511  : 	}
; 512  : 	if (m_pIntervalPool) {

  001bd	48 8b 84 24 c0
	00 00 00	 mov	 rax, QWORD PTR this$[rsp]
  001c5	48 83 78 20 00	 cmp	 QWORD PTR [rax+32], 0
  001ca	74 58		 je	 SHORT $LN6@destroy

; 513  : 		delete m_pIntervalPool;

  001cc	48 8b 84 24 c0
	00 00 00	 mov	 rax, QWORD PTR this$[rsp]
  001d4	48 8b 40 20	 mov	 rax, QWORD PTR [rax+32]
  001d8	48 89 44 24 68	 mov	 QWORD PTR $T10[rsp], rax
  001dd	48 8b 44 24 68	 mov	 rax, QWORD PTR $T10[rsp]
  001e2	48 89 44 24 60	 mov	 QWORD PTR $T9[rsp], rax
  001e7	48 83 7c 24 60
	00		 cmp	 QWORD PTR $T9[rsp], 0
  001ed	74 19		 je	 SHORT $LN17@destroy
  001ef	ba 01 00 00 00	 mov	 edx, 1
  001f4	48 8b 4c 24 60	 mov	 rcx, QWORD PTR $T9[rsp]
  001f9	e8 00 00 00 00	 call	 ??_G?$CMemPool@USTIntervalInfo@@@@QEAAPEAXI@Z
  001fe	48 89 84 24 a0
	00 00 00	 mov	 QWORD PTR tv139[rsp], rax
  00206	eb 0c		 jmp	 SHORT $LN18@destroy
$LN17@destroy:
  00208	48 c7 84 24 a0
	00 00 00 00 00
	00 00		 mov	 QWORD PTR tv139[rsp], 0
$LN18@destroy:

; 514  : 		m_pIntervalPool = NULL;

  00214	48 8b 84 24 c0
	00 00 00	 mov	 rax, QWORD PTR this$[rsp]
  0021c	48 c7 40 20 00
	00 00 00	 mov	 QWORD PTR [rax+32], 0
$LN6@destroy:

; 515  : 	}
; 516  : 	if (m_pEventPool) {

  00224	48 8b 84 24 c0
	00 00 00	 mov	 rax, QWORD PTR this$[rsp]
  0022c	48 83 78 28 00	 cmp	 QWORD PTR [rax+40], 0
  00231	74 58		 je	 SHORT $LN7@destroy

; 517  : 		delete m_pEventPool;

  00233	48 8b 84 24 c0
	00 00 00	 mov	 rax, QWORD PTR this$[rsp]
  0023b	48 8b 40 28	 mov	 rax, QWORD PTR [rax+40]
  0023f	48 89 44 24 78	 mov	 QWORD PTR $T12[rsp], rax
  00244	48 8b 44 24 78	 mov	 rax, QWORD PTR $T12[rsp]
  00249	48 89 44 24 70	 mov	 QWORD PTR $T11[rsp], rax
  0024e	48 83 7c 24 70
	00		 cmp	 QWORD PTR $T11[rsp], 0
  00254	74 19		 je	 SHORT $LN19@destroy
  00256	ba 01 00 00 00	 mov	 edx, 1
  0025b	48 8b 4c 24 70	 mov	 rcx, QWORD PTR $T11[rsp]
  00260	e8 00 00 00 00	 call	 ??_G?$CMemPool@USTEvent@@@@QEAAPEAXI@Z
  00265	48 89 84 24 a8
	00 00 00	 mov	 QWORD PTR tv148[rsp], rax
  0026d	eb 0c		 jmp	 SHORT $LN20@destroy
$LN19@destroy:
  0026f	48 c7 84 24 a8
	00 00 00 00 00
	00 00		 mov	 QWORD PTR tv148[rsp], 0
$LN20@destroy:

; 518  : 		m_pEventPool = NULL;

  0027b	48 8b 84 24 c0
	00 00 00	 mov	 rax, QWORD PTR this$[rsp]
  00283	48 c7 40 28 00
	00 00 00	 mov	 QWORD PTR [rax+40], 0
$LN7@destroy:

; 519  : 	}
; 520  : }

  0028b	48 81 c4 b0 00
	00 00		 add	 rsp, 176		; 000000b0H
  00292	5f		 pop	 rdi
  00293	c3		 ret	 0
?destroy@CCoreList@@QEAAXXZ ENDP			; CCoreList::destroy
_TEXT	ENDS
; Function compile flags: /Odtp /RTCsu
; File e:\infinia-library-3.0\com\src\comcore.cpp
_TEXT	SEGMENT
i$ = 32
nCount$ = 36
pWriter$ = 40
pScheduler$ = 48
pEventThread$ = 56
pComThread$ = 64
curTm$ = 96
$T4 = 224
$T5 = 225
$T6 = 232
__$ArrayPad$ = 240
this$ = 272
?start@CCoreList@@QEAA_NXZ PROC				; CCoreList::start

; 917  : {

$LN32:
  00000	48 89 4c 24 08	 mov	 QWORD PTR [rsp+8], rcx
  00005	57		 push	 rdi
  00006	48 81 ec 00 01
	00 00		 sub	 rsp, 256		; 00000100H
  0000d	48 8b fc	 mov	 rdi, rsp
  00010	b9 40 00 00 00	 mov	 ecx, 64			; 00000040H
  00015	b8 cc cc cc cc	 mov	 eax, -858993460		; ccccccccH
  0001a	f3 ab		 rep stosd
  0001c	48 8b 8c 24 10
	01 00 00	 mov	 rcx, QWORD PTR [rsp+272]
  00024	48 c7 84 24 e8
	00 00 00 fe ff
	ff ff		 mov	 QWORD PTR $T6[rsp], -2
  00030	48 8b 05 00 00
	00 00		 mov	 rax, QWORD PTR __security_cookie
  00037	48 33 c4	 xor	 rax, rsp
  0003a	48 89 84 24 f0
	00 00 00	 mov	 QWORD PTR __$ArrayPad$[rsp], rax

; 918  : 	int i, nCount;
; 919  : 	CSTLogger *pWriter;
; 920  : 	CScheduler *pScheduler;
; 921  : 	CComQueueThread *pEventThread;
; 922  : 	CComThread *pComThread;	
; 923  : 
; 924  : 
; 925  : 	CDateTime curTm;

  00042	45 33 c0	 xor	 r8d, r8d
  00045	ba 01 00 00 00	 mov	 edx, 1
  0004a	48 8d 4c 24 60	 lea	 rcx, QWORD PTR curTm$[rsp]
  0004f	e8 00 00 00 00	 call	 ??0CDateTime@@QEAA@W4DT_TYPE@@W4TZ_TYPE@@@Z ; CDateTime::CDateTime
  00054	90		 npad	 1

; 926  : 	gs_today_time.date		= _ttoi(curTm.DateString(0));

  00055	33 d2		 xor	 edx, edx
  00057	48 8d 4c 24 60	 lea	 rcx, QWORD PTR curTm$[rsp]
  0005c	e8 00 00 00 00	 call	 ?DateString@CDateTime@@QEAAPEBDD@Z ; CDateTime::DateString
  00061	48 8b c8	 mov	 rcx, rax
  00064	ff 15 00 00 00
	00		 call	 QWORD PTR __imp_atoi
  0006a	89 05 18 00 00
	00		 mov	 DWORD PTR ?gs_today_time@@3USTTodayTime@@A+24, eax

; 927  : 	gs_today_time.year		= curTm.Year();

  00070	48 8d 4c 24 60	 lea	 rcx, QWORD PTR curTm$[rsp]
  00075	e8 00 00 00 00	 call	 ?Year@CDateTime@@QEAAHXZ ; CDateTime::Year
  0007a	89 05 00 00 00
	00		 mov	 DWORD PTR ?gs_today_time@@3USTTodayTime@@A, eax

; 928  : 	gs_today_time.month		= curTm.Month();

  00080	48 8d 4c 24 60	 lea	 rcx, QWORD PTR curTm$[rsp]
  00085	e8 00 00 00 00	 call	 ?Month@CDateTime@@QEAAHXZ ; CDateTime::Month
  0008a	89 05 04 00 00
	00		 mov	 DWORD PTR ?gs_today_time@@3USTTodayTime@@A+4, eax

; 929  : 	gs_today_time.mday		= curTm.Mday();

  00090	48 8d 4c 24 60	 lea	 rcx, QWORD PTR curTm$[rsp]
  00095	e8 00 00 00 00	 call	 ?Mday@CDateTime@@QEAAHXZ ; CDateTime::Mday
  0009a	89 05 08 00 00
	00		 mov	 DWORD PTR ?gs_today_time@@3USTTodayTime@@A+8, eax

; 930  : 	gs_today_time.hour		= curTm.Hour();

  000a0	48 8d 4c 24 60	 lea	 rcx, QWORD PTR curTm$[rsp]
  000a5	e8 00 00 00 00	 call	 ?Hour@CDateTime@@QEAAHXZ ; CDateTime::Hour
  000aa	89 05 0c 00 00
	00		 mov	 DWORD PTR ?gs_today_time@@3USTTodayTime@@A+12, eax

; 931  : 	gs_today_time.minute	= curTm.Minute();

  000b0	48 8d 4c 24 60	 lea	 rcx, QWORD PTR curTm$[rsp]
  000b5	e8 00 00 00 00	 call	 ?Minute@CDateTime@@QEAAHXZ ; CDateTime::Minute
  000ba	89 05 10 00 00
	00		 mov	 DWORD PTR ?gs_today_time@@3USTTodayTime@@A+16, eax

; 932  : 
; 933  : 	// STLogger
; 934  : 	if (m_pWriterList)

  000c0	48 8b 84 24 10
	01 00 00	 mov	 rax, QWORD PTR this$[rsp]
  000c8	48 83 38 00	 cmp	 QWORD PTR [rax], 0
  000cc	74 6b		 je	 SHORT $LN14@start

; 935  : 	{
; 936  : 		nCount = m_pWriterList->size();

  000ce	48 8b 84 24 10
	01 00 00	 mov	 rax, QWORD PTR this$[rsp]
  000d6	48 8b 08	 mov	 rcx, QWORD PTR [rax]
  000d9	e8 00 00 00 00	 call	 ?size@?$CTList@VCSTLogger@@@@QEAAHXZ ; CTList<CSTLogger>::size
  000de	89 44 24 24	 mov	 DWORD PTR nCount$[rsp], eax

; 937  : 		for (i = 0; i < nCount; i++) {

  000e2	c7 44 24 20 00
	00 00 00	 mov	 DWORD PTR i$[rsp], 0
  000ea	eb 0a		 jmp	 SHORT $LN4@start
$LN2@start:
  000ec	8b 44 24 20	 mov	 eax, DWORD PTR i$[rsp]
  000f0	ff c0		 inc	 eax
  000f2	89 44 24 20	 mov	 DWORD PTR i$[rsp], eax
$LN4@start:
  000f6	8b 44 24 24	 mov	 eax, DWORD PTR nCount$[rsp]
  000fa	39 44 24 20	 cmp	 DWORD PTR i$[rsp], eax
  000fe	7d 39		 jge	 SHORT $LN14@start

; 938  : 			pWriter = m_pWriterList->getObj(i);

  00100	8b 54 24 20	 mov	 edx, DWORD PTR i$[rsp]
  00104	48 8b 84 24 10
	01 00 00	 mov	 rax, QWORD PTR this$[rsp]
  0010c	48 8b 08	 mov	 rcx, QWORD PTR [rax]
  0010f	e8 00 00 00 00	 call	 ?getObj@?$CTList@VCSTLogger@@@@QEAAPEAVCSTLogger@@H@Z ; CTList<CSTLogger>::getObj
  00114	48 89 44 24 28	 mov	 QWORD PTR pWriter$[rsp], rax

; 939  : 			if (pWriter) {

  00119	48 83 7c 24 28
	00		 cmp	 QWORD PTR pWriter$[rsp], 0
  0011f	74 16		 je	 SHORT $LN15@start

; 940  : 				if (!pWriter->start()) {

  00121	48 8b 4c 24 28	 mov	 rcx, QWORD PTR pWriter$[rsp]
  00126	e8 00 00 00 00	 call	 ?start@CSTLogger@@QEAA_NXZ ; CSTLogger::start
  0012b	0f b6 c0	 movzx	 eax, al
  0012e	85 c0		 test	 eax, eax
  00130	75 05		 jne	 SHORT $LN15@start

; 941  : 					goto ERROR_STARTPROC;

  00132	e9 8f 01 00 00	 jmp	 $ERROR_STARTPROC$33
$LN15@start:

; 942  : 				}
; 943  : 			}
; 944  : 		}

  00137	eb b3		 jmp	 SHORT $LN2@start
$LN14@start:

; 945  : 	}
; 946  : 
; 947  : 	// CScheduler
; 948  : 	if (m_pSchedulerList)

  00139	48 8b 84 24 10
	01 00 00	 mov	 rax, QWORD PTR this$[rsp]
  00141	48 83 78 08 00	 cmp	 QWORD PTR [rax+8], 0
  00146	74 6d		 je	 SHORT $LN18@start

; 949  : 	{
; 950  : 		nCount = m_pSchedulerList->size();

  00148	48 8b 84 24 10
	01 00 00	 mov	 rax, QWORD PTR this$[rsp]
  00150	48 8b 48 08	 mov	 rcx, QWORD PTR [rax+8]
  00154	e8 00 00 00 00	 call	 ?size@?$CTList@VCScheduler@@@@QEAAHXZ ; CTList<CScheduler>::size
  00159	89 44 24 24	 mov	 DWORD PTR nCount$[rsp], eax

; 951  : 		for (i = 0; i < nCount; i++) {

  0015d	c7 44 24 20 00
	00 00 00	 mov	 DWORD PTR i$[rsp], 0
  00165	eb 0a		 jmp	 SHORT $LN7@start
$LN5@start:
  00167	8b 44 24 20	 mov	 eax, DWORD PTR i$[rsp]
  0016b	ff c0		 inc	 eax
  0016d	89 44 24 20	 mov	 DWORD PTR i$[rsp], eax
$LN7@start:
  00171	8b 44 24 24	 mov	 eax, DWORD PTR nCount$[rsp]
  00175	39 44 24 20	 cmp	 DWORD PTR i$[rsp], eax
  00179	7d 3a		 jge	 SHORT $LN18@start

; 952  : 			pScheduler = m_pSchedulerList->getObj(i);

  0017b	8b 54 24 20	 mov	 edx, DWORD PTR i$[rsp]
  0017f	48 8b 84 24 10
	01 00 00	 mov	 rax, QWORD PTR this$[rsp]
  00187	48 8b 48 08	 mov	 rcx, QWORD PTR [rax+8]
  0018b	e8 00 00 00 00	 call	 ?getObj@?$CTList@VCScheduler@@@@QEAAPEAVCScheduler@@H@Z ; CTList<CScheduler>::getObj
  00190	48 89 44 24 30	 mov	 QWORD PTR pScheduler$[rsp], rax

; 953  : 			if (pScheduler) {

  00195	48 83 7c 24 30
	00		 cmp	 QWORD PTR pScheduler$[rsp], 0
  0019b	74 16		 je	 SHORT $LN19@start

; 954  : 				if (!pScheduler->start()) {

  0019d	48 8b 4c 24 30	 mov	 rcx, QWORD PTR pScheduler$[rsp]
  001a2	e8 00 00 00 00	 call	 ?start@CScheduler@@QEAA_NXZ ; CScheduler::start
  001a7	0f b6 c0	 movzx	 eax, al
  001aa	85 c0		 test	 eax, eax
  001ac	75 05		 jne	 SHORT $LN19@start

; 955  : 					goto ERROR_STARTPROC;

  001ae	e9 13 01 00 00	 jmp	 $ERROR_STARTPROC$33
$LN19@start:

; 956  : 				}
; 957  : 			}
; 958  : 		}

  001b3	eb b2		 jmp	 SHORT $LN5@start
$LN18@start:

; 959  : 	}
; 960  : 
; 961  : 	// Event
; 962  : 	if (m_pEventThreadList)

  001b5	48 8b 84 24 10
	01 00 00	 mov	 rax, QWORD PTR this$[rsp]
  001bd	48 83 78 18 00	 cmp	 QWORD PTR [rax+24], 0
  001c2	74 6d		 je	 SHORT $LN22@start

; 963  : 	{
; 964  : 		nCount = m_pEventThreadList->size();

  001c4	48 8b 84 24 10
	01 00 00	 mov	 rax, QWORD PTR this$[rsp]
  001cc	48 8b 48 18	 mov	 rcx, QWORD PTR [rax+24]
  001d0	e8 00 00 00 00	 call	 ?size@?$CTList@VCComQueueThread@@@@QEAAHXZ ; CTList<CComQueueThread>::size
  001d5	89 44 24 24	 mov	 DWORD PTR nCount$[rsp], eax

; 965  : 		for (i = 0; i < nCount; i++) {

  001d9	c7 44 24 20 00
	00 00 00	 mov	 DWORD PTR i$[rsp], 0
  001e1	eb 0a		 jmp	 SHORT $LN10@start
$LN8@start:
  001e3	8b 44 24 20	 mov	 eax, DWORD PTR i$[rsp]
  001e7	ff c0		 inc	 eax
  001e9	89 44 24 20	 mov	 DWORD PTR i$[rsp], eax
$LN10@start:
  001ed	8b 44 24 24	 mov	 eax, DWORD PTR nCount$[rsp]
  001f1	39 44 24 20	 cmp	 DWORD PTR i$[rsp], eax
  001f5	7d 3a		 jge	 SHORT $LN22@start

; 966  : 			pEventThread = m_pEventThreadList->getObj(i);

  001f7	8b 54 24 20	 mov	 edx, DWORD PTR i$[rsp]
  001fb	48 8b 84 24 10
	01 00 00	 mov	 rax, QWORD PTR this$[rsp]
  00203	48 8b 48 18	 mov	 rcx, QWORD PTR [rax+24]
  00207	e8 00 00 00 00	 call	 ?getObj@?$CTList@VCComQueueThread@@@@QEAAPEAVCComQueueThread@@H@Z ; CTList<CComQueueThread>::getObj
  0020c	48 89 44 24 38	 mov	 QWORD PTR pEventThread$[rsp], rax

; 967  : 			if (pEventThread) {

  00211	48 83 7c 24 38
	00		 cmp	 QWORD PTR pEventThread$[rsp], 0
  00217	74 16		 je	 SHORT $LN23@start

; 968  : 				if (!pEventThread->start()) {

  00219	48 8b 4c 24 38	 mov	 rcx, QWORD PTR pEventThread$[rsp]
  0021e	e8 00 00 00 00	 call	 ?start@CComQueueThread@@QEAA_NXZ ; CComQueueThread::start
  00223	0f b6 c0	 movzx	 eax, al
  00226	85 c0		 test	 eax, eax
  00228	75 05		 jne	 SHORT $LN23@start

; 969  : 					goto ERROR_STARTPROC;

  0022a	e9 97 00 00 00	 jmp	 $ERROR_STARTPROC$33
$LN23@start:

; 970  : 				}
; 971  : 			}
; 972  : 		}

  0022f	eb b2		 jmp	 SHORT $LN8@start
$LN22@start:

; 973  : 	}
; 974  : 
; 975  : 	// comThread
; 976  : 	if (m_pThreadList)

  00231	48 8b 84 24 10
	01 00 00	 mov	 rax, QWORD PTR this$[rsp]
  00239	48 83 78 10 00	 cmp	 QWORD PTR [rax+16], 0
  0023e	74 6a		 je	 SHORT $LN26@start

; 977  : 	{
; 978  : 		nCount = m_pThreadList->size();

  00240	48 8b 84 24 10
	01 00 00	 mov	 rax, QWORD PTR this$[rsp]
  00248	48 8b 48 10	 mov	 rcx, QWORD PTR [rax+16]
  0024c	e8 00 00 00 00	 call	 ?size@?$CTList@VCComThread@@@@QEAAHXZ ; CTList<CComThread>::size
  00251	89 44 24 24	 mov	 DWORD PTR nCount$[rsp], eax

; 979  : 		for (i = 0; i < nCount; i++) {

  00255	c7 44 24 20 00
	00 00 00	 mov	 DWORD PTR i$[rsp], 0
  0025d	eb 0a		 jmp	 SHORT $LN13@start
$LN11@start:
  0025f	8b 44 24 20	 mov	 eax, DWORD PTR i$[rsp]
  00263	ff c0		 inc	 eax
  00265	89 44 24 20	 mov	 DWORD PTR i$[rsp], eax
$LN13@start:
  00269	8b 44 24 24	 mov	 eax, DWORD PTR nCount$[rsp]
  0026d	39 44 24 20	 cmp	 DWORD PTR i$[rsp], eax
  00271	7d 37		 jge	 SHORT $LN26@start

; 980  : 			pComThread = m_pThreadList->getObj(i);

  00273	8b 54 24 20	 mov	 edx, DWORD PTR i$[rsp]
  00277	48 8b 84 24 10
	01 00 00	 mov	 rax, QWORD PTR this$[rsp]
  0027f	48 8b 48 10	 mov	 rcx, QWORD PTR [rax+16]
  00283	e8 00 00 00 00	 call	 ?getObj@?$CTList@VCComThread@@@@QEAAPEAVCComThread@@H@Z ; CTList<CComThread>::getObj
  00288	48 89 44 24 40	 mov	 QWORD PTR pComThread$[rsp], rax

; 981  : 			if (pComThread) {

  0028d	48 83 7c 24 40
	00		 cmp	 QWORD PTR pComThread$[rsp], 0
  00293	74 13		 je	 SHORT $LN27@start

; 982  : 				if (!pComThread->start()) {

  00295	48 8b 4c 24 40	 mov	 rcx, QWORD PTR pComThread$[rsp]
  0029a	e8 00 00 00 00	 call	 ?start@CComThread@@QEAA_NXZ ; CComThread::start
  0029f	0f b6 c0	 movzx	 eax, al
  002a2	85 c0		 test	 eax, eax
  002a4	75 02		 jne	 SHORT $LN27@start

; 983  : 					goto ERROR_STARTPROC;

  002a6	eb 1e		 jmp	 SHORT $ERROR_STARTPROC$33
$LN27@start:

; 984  : 				}
; 985  : 			}
; 986  : 		}

  002a8	eb b5		 jmp	 SHORT $LN11@start
$LN26@start:

; 987  : 	}
; 988  : 	return true;

  002aa	c6 84 24 e0 00
	00 00 01	 mov	 BYTE PTR $T4[rsp], 1
  002b2	48 8d 4c 24 60	 lea	 rcx, QWORD PTR curTm$[rsp]
  002b7	e8 00 00 00 00	 call	 ??1CDateTime@@QEAA@XZ	; CDateTime::~CDateTime
  002bc	0f b6 84 24 e0
	00 00 00	 movzx	 eax, BYTE PTR $T4[rsp]
  002c4	eb 27		 jmp	 SHORT $LN1@start
$ERROR_STARTPROC$33:

; 989  : 
; 990  : ERROR_STARTPROC:
; 991  : 	destroy();

  002c6	48 8b 8c 24 10
	01 00 00	 mov	 rcx, QWORD PTR this$[rsp]
  002ce	e8 00 00 00 00	 call	 ?destroy@CCoreList@@QEAAXXZ ; CCoreList::destroy

; 992  : 	return false;

  002d3	c6 84 24 e1 00
	00 00 00	 mov	 BYTE PTR $T5[rsp], 0
  002db	48 8d 4c 24 60	 lea	 rcx, QWORD PTR curTm$[rsp]
  002e0	e8 00 00 00 00	 call	 ??1CDateTime@@QEAA@XZ	; CDateTime::~CDateTime
  002e5	0f b6 84 24 e1
	00 00 00	 movzx	 eax, BYTE PTR $T5[rsp]
$LN1@start:

; 993  : }

  002ed	48 8b f8	 mov	 rdi, rax
  002f0	48 8b cc	 mov	 rcx, rsp
  002f3	48 8d 15 00 00
	00 00		 lea	 rdx, OFFSET FLAT:?start@CCoreList@@QEAA_NXZ$rtcFrameData
  002fa	e8 00 00 00 00	 call	 _RTC_CheckStackVars
  002ff	48 8b c7	 mov	 rax, rdi
  00302	48 8b 8c 24 f0
	00 00 00	 mov	 rcx, QWORD PTR __$ArrayPad$[rsp]
  0030a	48 33 cc	 xor	 rcx, rsp
  0030d	e8 00 00 00 00	 call	 __security_check_cookie
  00312	48 81 c4 00 01
	00 00		 add	 rsp, 256		; 00000100H
  00319	5f		 pop	 rdi
  0031a	c3		 ret	 0
?start@CCoreList@@QEAA_NXZ ENDP				; CCoreList::start
_TEXT	ENDS
text$x	SEGMENT
i$ = 32
nCount$ = 36
pWriter$ = 40
pScheduler$ = 48
pEventThread$ = 56
pComThread$ = 64
curTm$ = 96
$T4 = 224
$T5 = 225
$T6 = 232
__$ArrayPad$ = 240
this$ = 272
?dtor$0@?0??start@CCoreList@@QEAA_NXZ@4HA PROC		; `CCoreList::start'::`1'::dtor$0
  00000	48 89 4c 24 08	 mov	 QWORD PTR [rsp+8], rcx
  00005	48 89 54 24 10	 mov	 QWORD PTR [rsp+16], rdx
  0000a	55		 push	 rbp
  0000b	57		 push	 rdi
  0000c	48 83 ec 28	 sub	 rsp, 40			; 00000028H
  00010	48 8b ea	 mov	 rbp, rdx
  00013	48 8d 4d 60	 lea	 rcx, QWORD PTR curTm$[rbp]
  00017	e8 00 00 00 00	 call	 ??1CDateTime@@QEAA@XZ	; CDateTime::~CDateTime
  0001c	48 83 c4 28	 add	 rsp, 40			; 00000028H
  00020	5f		 pop	 rdi
  00021	5d		 pop	 rbp
  00022	c3		 ret	 0
?dtor$0@?0??start@CCoreList@@QEAA_NXZ@4HA ENDP		; `CCoreList::start'::`1'::dtor$0
text$x	ENDS
; Function compile flags: /Odtp /RTCsu
text$x	SEGMENT
i$ = 32
nCount$ = 36
pWriter$ = 40
pScheduler$ = 48
pEventThread$ = 56
pComThread$ = 64
curTm$ = 96
$T4 = 224
$T5 = 225
$T6 = 232
__$ArrayPad$ = 240
this$ = 272
?dtor$0@?0??start@CCoreList@@QEAA_NXZ@4HA PROC		; `CCoreList::start'::`1'::dtor$0
  00000	48 89 4c 24 08	 mov	 QWORD PTR [rsp+8], rcx
  00005	48 89 54 24 10	 mov	 QWORD PTR [rsp+16], rdx
  0000a	55		 push	 rbp
  0000b	57		 push	 rdi
  0000c	48 83 ec 28	 sub	 rsp, 40			; 00000028H
  00010	48 8b ea	 mov	 rbp, rdx
  00013	48 8d 4d 60	 lea	 rcx, QWORD PTR curTm$[rbp]
  00017	e8 00 00 00 00	 call	 ??1CDateTime@@QEAA@XZ	; CDateTime::~CDateTime
  0001c	48 83 c4 28	 add	 rsp, 40			; 00000028H
  00020	5f		 pop	 rdi
  00021	5d		 pop	 rbp
  00022	c3		 ret	 0
?dtor$0@?0??start@CCoreList@@QEAA_NXZ@4HA ENDP		; `CCoreList::start'::`1'::dtor$0
text$x	ENDS
; Function compile flags: /Odtp /RTCsu
; File e:\infinia-library-3.0\com\src\comcore.cpp
_TEXT	SEGMENT
pWriter$ = 32
pBuf$ = 40
this$ = 64
pLogger$ = 72
?setLoggerDisable@CCoreList@@QEAA_NPEAVCLogger@@@Z PROC	; CCoreList::setLoggerDisable

; 899  : {

$LN4:
  00000	48 89 54 24 10	 mov	 QWORD PTR [rsp+16], rdx
  00005	48 89 4c 24 08	 mov	 QWORD PTR [rsp+8], rcx
  0000a	57		 push	 rdi
  0000b	48 83 ec 30	 sub	 rsp, 48			; 00000030H
  0000f	48 8b fc	 mov	 rdi, rsp
  00012	b9 0c 00 00 00	 mov	 ecx, 12
  00017	b8 cc cc cc cc	 mov	 eax, -858993460		; ccccccccH
  0001c	f3 ab		 rep stosd
  0001e	48 8b 4c 24 40	 mov	 rcx, QWORD PTR [rsp+64]

; 900  : 	CSTLogger *pWriter = m_pWriterList->getObj(pLogger->getSTLNo());

  00023	48 8b 4c 24 48	 mov	 rcx, QWORD PTR pLogger$[rsp]
  00028	e8 00 00 00 00	 call	 ?getSTLNo@CLogger@@QEAAHXZ ; CLogger::getSTLNo
  0002d	8b d0		 mov	 edx, eax
  0002f	48 8b 44 24 40	 mov	 rax, QWORD PTR this$[rsp]
  00034	48 8b 08	 mov	 rcx, QWORD PTR [rax]
  00037	e8 00 00 00 00	 call	 ?getObj@?$CTList@VCSTLogger@@@@QEAAPEAVCSTLogger@@H@Z ; CTList<CSTLogger>::getObj
  0003c	48 89 44 24 20	 mov	 QWORD PTR pWriter$[rsp], rax

; 901  : 	if (!pWriter) {

  00041	48 83 7c 24 20
	00		 cmp	 QWORD PTR pWriter$[rsp], 0
  00047	75 3d		 jne	 SHORT $LN2@setLoggerD

; 902  : 		_stprintf(g_szMessage, _T("pWriter is NULL! pLogger[nSTLNo:%d]"), pLogger->getSTLNo());

  00049	48 8b 4c 24 48	 mov	 rcx, QWORD PTR pLogger$[rsp]
  0004e	e8 00 00 00 00	 call	 ?getSTLNo@CLogger@@QEAAHXZ ; CLogger::getSTLNo
  00053	44 8b c0	 mov	 r8d, eax
  00056	48 8d 15 00 00
	00 00		 lea	 rdx, OFFSET FLAT:$SG46238
  0005d	48 8d 0d 00 00
	00 00		 lea	 rcx, OFFSET FLAT:?g_szMessage@@3PADA ; g_szMessage
  00064	e8 00 00 00 00	 call	 sprintf

; 903  : 		comErrorPrint(g_szMessage);

  00069	41 b8 87 03 00
	00		 mov	 r8d, 903		; 00000387H
  0006f	48 8d 15 00 00
	00 00		 lea	 rdx, OFFSET FLAT:$SG46239
  00076	48 8d 0d 00 00
	00 00		 lea	 rcx, OFFSET FLAT:?g_szMessage@@3PADA ; g_szMessage
  0007d	e8 00 00 00 00	 call	 ?comGlobalErrorProc@@YAXPEADPEBDH@Z ; comGlobalErrorProc

; 904  : 		return false;

  00082	32 c0		 xor	 al, al
  00084	eb 4f		 jmp	 SHORT $LN1@setLoggerD
$LN2@setLoggerD:

; 905  : 	}
; 906  : 	pLogger->clearLogFlag(IS_LOG_ENABLE);

  00086	ba 00 00 08 00	 mov	 edx, 524288		; 00080000H
  0008b	48 8b 4c 24 48	 mov	 rcx, QWORD PTR pLogger$[rsp]
  00090	e8 00 00 00 00	 call	 ?clearLogFlag@CLogger@@QEAAXW4E_LOG_FLAG@@@Z ; CLogger::clearLogFlag

; 907  : 	STLCommand *pBuf = (STLCommand *)gs_pMMgr->newBuf(sizeof(STLCommand));

  00095	ba 10 00 00 00	 mov	 edx, 16
  0009a	48 8b 0d 00 00
	00 00		 mov	 rcx, QWORD PTR ?gs_pMMgr@@3PEAVCMemManager@@EA ; gs_pMMgr
  000a1	e8 00 00 00 00	 call	 ?newBuf@CMemManager@@QEAAPEADH@Z ; CMemManager::newBuf
  000a6	48 89 44 24 28	 mov	 QWORD PTR pBuf$[rsp], rax

; 908  : 	pBuf->nCommandCode = eLCode_DISABLE;

  000ab	48 8b 44 24 28	 mov	 rax, QWORD PTR pBuf$[rsp]
  000b0	c7 00 02 00 00
	00		 mov	 DWORD PTR [rax], 2

; 909  : 	pBuf->p = pLogger;

  000b6	48 8b 44 24 28	 mov	 rax, QWORD PTR pBuf$[rsp]
  000bb	48 8b 4c 24 48	 mov	 rcx, QWORD PTR pLogger$[rsp]
  000c0	48 89 48 08	 mov	 QWORD PTR [rax+8], rcx

; 910  : 	pWriter->pushCommand(pBuf);

  000c4	48 8b 54 24 28	 mov	 rdx, QWORD PTR pBuf$[rsp]
  000c9	48 8b 4c 24 20	 mov	 rcx, QWORD PTR pWriter$[rsp]
  000ce	e8 00 00 00 00	 call	 ?pushCommand@CSTLogger@@QEAA_NPEAUSTLCommand@@@Z ; CSTLogger::pushCommand

; 911  : 	return true;

  000d3	b0 01		 mov	 al, 1
$LN1@setLoggerD:

; 912  : }

  000d5	48 83 c4 30	 add	 rsp, 48			; 00000030H
  000d9	5f		 pop	 rdi
  000da	c3		 ret	 0
?setLoggerDisable@CCoreList@@QEAA_NPEAVCLogger@@@Z ENDP	; CCoreList::setLoggerDisable
_TEXT	ENDS
; Function compile flags: /Odtp /RTCsu
; File e:\infinia-library-3.0\com\src\comcore.cpp
_TEXT	SEGMENT
pWriter$ = 32
pBuf$ = 40
this$ = 64
pLogger$ = 72
?setLoggerEnable@CCoreList@@QEAA_NPEAVCLogger@@@Z PROC	; CCoreList::setLoggerEnable

; 883  : {

$LN4:
  00000	48 89 54 24 10	 mov	 QWORD PTR [rsp+16], rdx
  00005	48 89 4c 24 08	 mov	 QWORD PTR [rsp+8], rcx
  0000a	57		 push	 rdi
  0000b	48 83 ec 30	 sub	 rsp, 48			; 00000030H
  0000f	48 8b fc	 mov	 rdi, rsp
  00012	b9 0c 00 00 00	 mov	 ecx, 12
  00017	b8 cc cc cc cc	 mov	 eax, -858993460		; ccccccccH
  0001c	f3 ab		 rep stosd
  0001e	48 8b 4c 24 40	 mov	 rcx, QWORD PTR [rsp+64]

; 884  : 	CSTLogger *pWriter = m_pWriterList->getObj(pLogger->getSTLNo());

  00023	48 8b 4c 24 48	 mov	 rcx, QWORD PTR pLogger$[rsp]
  00028	e8 00 00 00 00	 call	 ?getSTLNo@CLogger@@QEAAHXZ ; CLogger::getSTLNo
  0002d	8b d0		 mov	 edx, eax
  0002f	48 8b 44 24 40	 mov	 rax, QWORD PTR this$[rsp]
  00034	48 8b 08	 mov	 rcx, QWORD PTR [rax]
  00037	e8 00 00 00 00	 call	 ?getObj@?$CTList@VCSTLogger@@@@QEAAPEAVCSTLogger@@H@Z ; CTList<CSTLogger>::getObj
  0003c	48 89 44 24 20	 mov	 QWORD PTR pWriter$[rsp], rax

; 885  : 	if (!pWriter) {

  00041	48 83 7c 24 20
	00		 cmp	 QWORD PTR pWriter$[rsp], 0
  00047	75 3d		 jne	 SHORT $LN2@setLoggerE

; 886  : 		_stprintf(g_szMessage, _T("pWriter is NULL! pLogger[nSTLNo:%d]"), pLogger->getSTLNo());

  00049	48 8b 4c 24 48	 mov	 rcx, QWORD PTR pLogger$[rsp]
  0004e	e8 00 00 00 00	 call	 ?getSTLNo@CLogger@@QEAAHXZ ; CLogger::getSTLNo
  00053	44 8b c0	 mov	 r8d, eax
  00056	48 8d 15 00 00
	00 00		 lea	 rdx, OFFSET FLAT:$SG46227
  0005d	48 8d 0d 00 00
	00 00		 lea	 rcx, OFFSET FLAT:?g_szMessage@@3PADA ; g_szMessage
  00064	e8 00 00 00 00	 call	 sprintf

; 887  : 		comErrorPrint(g_szMessage);

  00069	41 b8 77 03 00
	00		 mov	 r8d, 887		; 00000377H
  0006f	48 8d 15 00 00
	00 00		 lea	 rdx, OFFSET FLAT:$SG46228
  00076	48 8d 0d 00 00
	00 00		 lea	 rcx, OFFSET FLAT:?g_szMessage@@3PADA ; g_szMessage
  0007d	e8 00 00 00 00	 call	 ?comGlobalErrorProc@@YAXPEADPEBDH@Z ; comGlobalErrorProc

; 888  : 		return false;

  00082	32 c0		 xor	 al, al
  00084	eb 4f		 jmp	 SHORT $LN1@setLoggerE
$LN2@setLoggerE:

; 889  : 	}
; 890  : 	pLogger->setLogFlag(IS_LOG_ENABLE);

  00086	ba 00 00 08 00	 mov	 edx, 524288		; 00080000H
  0008b	48 8b 4c 24 48	 mov	 rcx, QWORD PTR pLogger$[rsp]
  00090	e8 00 00 00 00	 call	 ?setLogFlag@CLogger@@QEAAXW4E_LOG_FLAG@@@Z ; CLogger::setLogFlag

; 891  : 	STLCommand *pBuf = (STLCommand *)gs_pMMgr->newBuf(sizeof(STLCommand));

  00095	ba 10 00 00 00	 mov	 edx, 16
  0009a	48 8b 0d 00 00
	00 00		 mov	 rcx, QWORD PTR ?gs_pMMgr@@3PEAVCMemManager@@EA ; gs_pMMgr
  000a1	e8 00 00 00 00	 call	 ?newBuf@CMemManager@@QEAAPEADH@Z ; CMemManager::newBuf
  000a6	48 89 44 24 28	 mov	 QWORD PTR pBuf$[rsp], rax

; 892  : 	pBuf->nCommandCode = eLCode_ENABLE;

  000ab	48 8b 44 24 28	 mov	 rax, QWORD PTR pBuf$[rsp]
  000b0	c7 00 01 00 00
	00		 mov	 DWORD PTR [rax], 1

; 893  : 	pBuf->p = pLogger;

  000b6	48 8b 44 24 28	 mov	 rax, QWORD PTR pBuf$[rsp]
  000bb	48 8b 4c 24 48	 mov	 rcx, QWORD PTR pLogger$[rsp]
  000c0	48 89 48 08	 mov	 QWORD PTR [rax+8], rcx

; 894  : 	pWriter->pushCommand(pBuf);

  000c4	48 8b 54 24 28	 mov	 rdx, QWORD PTR pBuf$[rsp]
  000c9	48 8b 4c 24 20	 mov	 rcx, QWORD PTR pWriter$[rsp]
  000ce	e8 00 00 00 00	 call	 ?pushCommand@CSTLogger@@QEAA_NPEAUSTLCommand@@@Z ; CSTLogger::pushCommand

; 895  : 	return true;

  000d3	b0 01		 mov	 al, 1
$LN1@setLoggerE:

; 896  : }

  000d5	48 83 c4 30	 add	 rsp, 48			; 00000030H
  000d9	5f		 pop	 rdi
  000da	c3		 ret	 0
?setLoggerEnable@CCoreList@@QEAA_NPEAVCLogger@@@Z ENDP	; CCoreList::setLoggerEnable
_TEXT	ENDS
; Function compile flags: /Odtp /RTCsu
; File e:\infinia-library-3.0\com\src\comcore.cpp
_TEXT	SEGMENT
pWriter$ = 32
this$ = 64
pLogger$ = 72
?initLogger@CCoreList@@QEAA_NPEAVCLogger@@@Z PROC	; CCoreList::initLogger

; 863  : {

$LN5:
  00000	48 89 54 24 10	 mov	 QWORD PTR [rsp+16], rdx
  00005	48 89 4c 24 08	 mov	 QWORD PTR [rsp+8], rcx
  0000a	57		 push	 rdi
  0000b	48 83 ec 30	 sub	 rsp, 48			; 00000030H
  0000f	48 8b fc	 mov	 rdi, rsp
  00012	b9 0c 00 00 00	 mov	 ecx, 12
  00017	b8 cc cc cc cc	 mov	 eax, -858993460		; ccccccccH
  0001c	f3 ab		 rep stosd
  0001e	48 8b 4c 24 40	 mov	 rcx, QWORD PTR [rsp+64]

; 864  : 	if (!pLogger) {

  00023	48 83 7c 24 48
	00		 cmp	 QWORD PTR pLogger$[rsp], 0
  00029	75 1d		 jne	 SHORT $LN2@initLogger

; 865  : 		comErrorPrint(g_szMessage);

  0002b	41 b8 61 03 00
	00		 mov	 r8d, 865		; 00000361H
  00031	48 8d 15 00 00
	00 00		 lea	 rdx, OFFSET FLAT:$SG46214
  00038	48 8d 0d 00 00
	00 00		 lea	 rcx, OFFSET FLAT:?g_szMessage@@3PADA ; g_szMessage
  0003f	e8 00 00 00 00	 call	 ?comGlobalErrorProc@@YAXPEADPEBDH@Z ; comGlobalErrorProc

; 866  : 		return false;

  00044	32 c0		 xor	 al, al
  00046	eb 74		 jmp	 SHORT $LN1@initLogger
$LN2@initLogger:

; 867  : 	}
; 868  : 
; 869  : 	CSTLogger *pWriter = m_pWriterList->getObj(pLogger->getSTLNo());

  00048	48 8b 4c 24 48	 mov	 rcx, QWORD PTR pLogger$[rsp]
  0004d	e8 00 00 00 00	 call	 ?getSTLNo@CLogger@@QEAAHXZ ; CLogger::getSTLNo
  00052	8b d0		 mov	 edx, eax
  00054	48 8b 44 24 40	 mov	 rax, QWORD PTR this$[rsp]
  00059	48 8b 08	 mov	 rcx, QWORD PTR [rax]
  0005c	e8 00 00 00 00	 call	 ?getObj@?$CTList@VCSTLogger@@@@QEAAPEAVCSTLogger@@H@Z ; CTList<CSTLogger>::getObj
  00061	48 89 44 24 20	 mov	 QWORD PTR pWriter$[rsp], rax

; 870  : 	if (!pWriter) {

  00066	48 83 7c 24 20
	00		 cmp	 QWORD PTR pWriter$[rsp], 0
  0006c	75 3d		 jne	 SHORT $LN3@initLogger

; 871  : 		_stprintf(g_szMessage, _T("pWriter is NULL!!![nSTLNo:%d]\n"), pLogger->getSTLNo());

  0006e	48 8b 4c 24 48	 mov	 rcx, QWORD PTR pLogger$[rsp]
  00073	e8 00 00 00 00	 call	 ?getSTLNo@CLogger@@QEAAHXZ ; CLogger::getSTLNo
  00078	44 8b c0	 mov	 r8d, eax
  0007b	48 8d 15 00 00
	00 00		 lea	 rdx, OFFSET FLAT:$SG46216
  00082	48 8d 0d 00 00
	00 00		 lea	 rcx, OFFSET FLAT:?g_szMessage@@3PADA ; g_szMessage
  00089	e8 00 00 00 00	 call	 sprintf

; 872  : 		comErrorPrint(g_szMessage);

  0008e	41 b8 68 03 00
	00		 mov	 r8d, 872		; 00000368H
  00094	48 8d 15 00 00
	00 00		 lea	 rdx, OFFSET FLAT:$SG46217
  0009b	48 8d 0d 00 00
	00 00		 lea	 rcx, OFFSET FLAT:?g_szMessage@@3PADA ; g_szMessage
  000a2	e8 00 00 00 00	 call	 ?comGlobalErrorProc@@YAXPEADPEBDH@Z ; comGlobalErrorProc

; 873  : 		return false;

  000a7	32 c0		 xor	 al, al
  000a9	eb 11		 jmp	 SHORT $LN1@initLogger
$LN3@initLogger:

; 874  : 	}
; 875  : 
; 876  : 	pWriter->procLoggerEnable(pLogger);

  000ab	48 8b 54 24 48	 mov	 rdx, QWORD PTR pLogger$[rsp]
  000b0	48 8b 4c 24 20	 mov	 rcx, QWORD PTR pWriter$[rsp]
  000b5	e8 00 00 00 00	 call	 ?procLoggerEnable@CSTLogger@@QEAAXPEAVCLogger@@@Z ; CSTLogger::procLoggerEnable

; 877  : 
; 878  : 	return true;

  000ba	b0 01		 mov	 al, 1
$LN1@initLogger:

; 879  : }

  000bc	48 83 c4 30	 add	 rsp, 48			; 00000030H
  000c0	5f		 pop	 rdi
  000c1	c3		 ret	 0
?initLogger@CCoreList@@QEAA_NPEAVCLogger@@@Z ENDP	; CCoreList::initLogger
_TEXT	ENDS
; Function compile flags: /Odtp /RTCsu
; File e:\infinia-library-3.0\com\src\comcore.cpp
_TEXT	SEGMENT
eRes$ = 48
pWriter$1 = 56
tv76 = 64
this$ = 96
pLogger$ = 104
pConfig$ = 112
pSection$ = 120
?initLogger@CCoreList@@QEAA_NPEAVCLogger@@PEAD1@Z PROC	; CCoreList::initLogger

; 829  : {

$LN10:
  00000	4c 89 4c 24 20	 mov	 QWORD PTR [rsp+32], r9
  00005	4c 89 44 24 18	 mov	 QWORD PTR [rsp+24], r8
  0000a	48 89 54 24 10	 mov	 QWORD PTR [rsp+16], rdx
  0000f	48 89 4c 24 08	 mov	 QWORD PTR [rsp+8], rcx
  00014	57		 push	 rdi
  00015	48 83 ec 50	 sub	 rsp, 80			; 00000050H
  00019	48 8b fc	 mov	 rdi, rsp
  0001c	b9 14 00 00 00	 mov	 ecx, 20
  00021	b8 cc cc cc cc	 mov	 eax, -858993460		; ccccccccH
  00026	f3 ab		 rep stosd
  00028	48 8b 4c 24 60	 mov	 rcx, QWORD PTR [rsp+96]

; 830  : 	E_LOG_INIT_RES eRes;
; 831  : 	if (!pLogger) {

  0002d	48 83 7c 24 68
	00		 cmp	 QWORD PTR pLogger$[rsp], 0
  00033	75 3d		 jne	 SHORT $LN4@initLogger

; 832  : 		_stprintf(g_szMessage, _T("pLogger is NULL! [%s:%s]"), pConfig, pSection);

  00035	4c 8b 4c 24 78	 mov	 r9, QWORD PTR pSection$[rsp]
  0003a	4c 8b 44 24 70	 mov	 r8, QWORD PTR pConfig$[rsp]
  0003f	48 8d 15 00 00
	00 00		 lea	 rdx, OFFSET FLAT:$SG46198
  00046	48 8d 0d 00 00
	00 00		 lea	 rcx, OFFSET FLAT:?g_szMessage@@3PADA ; g_szMessage
  0004d	e8 00 00 00 00	 call	 sprintf

; 833  : 		comErrorPrint(g_szMessage);

  00052	41 b8 41 03 00
	00		 mov	 r8d, 833		; 00000341H
  00058	48 8d 15 00 00
	00 00		 lea	 rdx, OFFSET FLAT:$SG46199
  0005f	48 8d 0d 00 00
	00 00		 lea	 rcx, OFFSET FLAT:?g_szMessage@@3PADA ; g_szMessage
  00066	e8 00 00 00 00	 call	 ?comGlobalErrorProc@@YAXPEADPEBDH@Z ; comGlobalErrorProc

; 834  : 		return false;

  0006b	32 c0		 xor	 al, al
  0006d	e9 01 01 00 00	 jmp	 $LN1@initLogger
$LN4@initLogger:

; 835  : 	}
; 836  : 	eRes = pLogger->initConfig(pConfig, pSection);

  00072	4c 8b 44 24 78	 mov	 r8, QWORD PTR pSection$[rsp]
  00077	48 8b 54 24 70	 mov	 rdx, QWORD PTR pConfig$[rsp]
  0007c	48 8b 4c 24 68	 mov	 rcx, QWORD PTR pLogger$[rsp]
  00081	e8 00 00 00 00	 call	 ?initConfig@CLogger@@QEAA?AW4E_LOG_INIT_RES@@PEAD0@Z ; CLogger::initConfig
  00086	89 44 24 30	 mov	 DWORD PTR eRes$[rsp], eax

; 837  : 
; 838  : 	switch (eRes) {

  0008a	8b 44 24 30	 mov	 eax, DWORD PTR eRes$[rsp]
  0008e	89 44 24 40	 mov	 DWORD PTR tv76[rsp], eax
  00092	83 7c 24 40 ff	 cmp	 DWORD PTR tv76[rsp], -1
  00097	74 21		 je	 SHORT $LN6@initLogger
  00099	83 7c 24 40 00	 cmp	 DWORD PTR tv76[rsp], 0
  0009e	74 13		 je	 SHORT $LN5@initLogger
  000a0	83 7c 24 40 01	 cmp	 DWORD PTR tv76[rsp], 1
  000a5	74 4d		 je	 SHORT $LN7@initLogger
  000a7	83 7c 24 40 02	 cmp	 DWORD PTR tv76[rsp], 2
  000ac	74 05		 je	 SHORT $LN5@initLogger
  000ae	e9 be 00 00 00	 jmp	 $LN2@initLogger
$LN5@initLogger:

; 839  : 		case LOG_INIT_CHANGED_SUCCESS: 
; 840  : 		case LOG_INIT_NO_FILE: return true;

  000b3	b0 01		 mov	 al, 1
  000b5	e9 b9 00 00 00	 jmp	 $LN1@initLogger
$LN6@initLogger:

; 841  : 		case LOG_INIT_ERROR:
; 842  : 		{
; 843  : 			_stprintf(g_szMessage, _T("pLogger->initConfig has Failed!!![%s:%s]"), pConfig, pSection);

  000ba	4c 8b 4c 24 78	 mov	 r9, QWORD PTR pSection$[rsp]
  000bf	4c 8b 44 24 70	 mov	 r8, QWORD PTR pConfig$[rsp]
  000c4	48 8d 15 00 00
	00 00		 lea	 rdx, OFFSET FLAT:$SG46202
  000cb	48 8d 0d 00 00
	00 00		 lea	 rcx, OFFSET FLAT:?g_szMessage@@3PADA ; g_szMessage
  000d2	e8 00 00 00 00	 call	 sprintf

; 844  : 			comErrorPrint(g_szMessage);

  000d7	41 b8 4c 03 00
	00		 mov	 r8d, 844		; 0000034cH
  000dd	48 8d 15 00 00
	00 00		 lea	 rdx, OFFSET FLAT:$SG46203
  000e4	48 8d 0d 00 00
	00 00		 lea	 rcx, OFFSET FLAT:?g_szMessage@@3PADA ; g_szMessage
  000eb	e8 00 00 00 00	 call	 ?comGlobalErrorProc@@YAXPEADPEBDH@Z ; comGlobalErrorProc

; 845  : 			return false;

  000f0	32 c0		 xor	 al, al
  000f2	eb 7f		 jmp	 SHORT $LN1@initLogger
$LN7@initLogger:

; 846  : 		}
; 847  : 		case LOG_INIT_SUCCESS: 
; 848  : 		{
; 849  : 			CSTLogger *pWriter = m_pWriterList->getObj(pLogger->getSTLNo());

  000f4	48 8b 4c 24 68	 mov	 rcx, QWORD PTR pLogger$[rsp]
  000f9	e8 00 00 00 00	 call	 ?getSTLNo@CLogger@@QEAAHXZ ; CLogger::getSTLNo
  000fe	8b d0		 mov	 edx, eax
  00100	48 8b 44 24 60	 mov	 rax, QWORD PTR this$[rsp]
  00105	48 8b 08	 mov	 rcx, QWORD PTR [rax]
  00108	e8 00 00 00 00	 call	 ?getObj@?$CTList@VCSTLogger@@@@QEAAPEAVCSTLogger@@H@Z ; CTList<CSTLogger>::getObj
  0010d	48 89 44 24 38	 mov	 QWORD PTR pWriter$1[rsp], rax

; 850  : 			if (!pWriter) {

  00112	48 83 7c 24 38
	00		 cmp	 QWORD PTR pWriter$1[rsp], 0
  00118	75 48		 jne	 SHORT $LN8@initLogger

; 851  : 				_stprintf(g_szMessage, _T("pWriter is NULL!!![%s:%s] [nSTLNo:%d]"), pConfig, pSection, pLogger->getSTLNo());

  0011a	48 8b 4c 24 68	 mov	 rcx, QWORD PTR pLogger$[rsp]
  0011f	e8 00 00 00 00	 call	 ?getSTLNo@CLogger@@QEAAHXZ ; CLogger::getSTLNo
  00124	89 44 24 20	 mov	 DWORD PTR [rsp+32], eax
  00128	4c 8b 4c 24 78	 mov	 r9, QWORD PTR pSection$[rsp]
  0012d	4c 8b 44 24 70	 mov	 r8, QWORD PTR pConfig$[rsp]
  00132	48 8d 15 00 00
	00 00		 lea	 rdx, OFFSET FLAT:$SG46206
  00139	48 8d 0d 00 00
	00 00		 lea	 rcx, OFFSET FLAT:?g_szMessage@@3PADA ; g_szMessage
  00140	e8 00 00 00 00	 call	 sprintf

; 852  : 				comErrorPrint(g_szMessage);

  00145	41 b8 54 03 00
	00		 mov	 r8d, 852		; 00000354H
  0014b	48 8d 15 00 00
	00 00		 lea	 rdx, OFFSET FLAT:$SG46207
  00152	48 8d 0d 00 00
	00 00		 lea	 rcx, OFFSET FLAT:?g_szMessage@@3PADA ; g_szMessage
  00159	e8 00 00 00 00	 call	 ?comGlobalErrorProc@@YAXPEADPEBDH@Z ; comGlobalErrorProc

; 853  : 				return false;

  0015e	32 c0		 xor	 al, al
  00160	eb 11		 jmp	 SHORT $LN1@initLogger
$LN8@initLogger:

; 854  : 			}
; 855  : 			pWriter->procLoggerEnable(pLogger);

  00162	48 8b 54 24 68	 mov	 rdx, QWORD PTR pLogger$[rsp]
  00167	48 8b 4c 24 38	 mov	 rcx, QWORD PTR pWriter$1[rsp]
  0016c	e8 00 00 00 00	 call	 ?procLoggerEnable@CSTLogger@@QEAAXPEAVCLogger@@@Z ; CSTLogger::procLoggerEnable
$LN2@initLogger:

; 856  : 		}
; 857  : 		break;
; 858  : 	}
; 859  : 	return true;

  00171	b0 01		 mov	 al, 1
$LN1@initLogger:

; 860  : }

  00173	48 83 c4 50	 add	 rsp, 80			; 00000050H
  00177	5f		 pop	 rdi
  00178	c3		 ret	 0
?initLogger@CCoreList@@QEAA_NPEAVCLogger@@PEAD1@Z ENDP	; CCoreList::initLogger
_TEXT	ENDS
; Function compile flags: /Odtp /RTCsu
; File e:\infinia-library-3.0\com\src\comcore.cpp
_TEXT	SEGMENT
i$ = 32
nVal$ = 36
szConf$ = 64
__$ArrayPad$ = 176
this$ = 208
nCnt_IdxBuf2$ = 216
nCnt_IdxBuf32$ = 224
nCnt_IdxBuf_1m$ = 232
?initDefaultPool@CCoreList@@QEAA_NHHH@Z PROC		; CCoreList::initDefaultPool

; 595  : {

$LN16:
  00000	44 89 4c 24 20	 mov	 DWORD PTR [rsp+32], r9d
  00005	44 89 44 24 18	 mov	 DWORD PTR [rsp+24], r8d
  0000a	89 54 24 10	 mov	 DWORD PTR [rsp+16], edx
  0000e	48 89 4c 24 08	 mov	 QWORD PTR [rsp+8], rcx
  00013	57		 push	 rdi
  00014	48 81 ec c0 00
	00 00		 sub	 rsp, 192		; 000000c0H
  0001b	48 8b fc	 mov	 rdi, rsp
  0001e	b9 30 00 00 00	 mov	 ecx, 48			; 00000030H
  00023	b8 cc cc cc cc	 mov	 eax, -858993460		; ccccccccH
  00028	f3 ab		 rep stosd
  0002a	48 8b 8c 24 d0
	00 00 00	 mov	 rcx, QWORD PTR [rsp+208]
  00032	48 8b 05 00 00
	00 00		 mov	 rax, QWORD PTR __security_cookie
  00039	48 33 c4	 xor	 rax, rsp
  0003c	48 89 84 24 b0
	00 00 00	 mov	 QWORD PTR __$ArrayPad$[rsp], rax

; 596  : 	int i, nVal;
; 597  : 
; 598  : 	STBufConf szConf;
; 599  : 	memset(&szConf, 0, sizeof(STBufConf));

  00044	41 b8 58 00 00
	00		 mov	 r8d, 88			; 00000058H
  0004a	33 d2		 xor	 edx, edx
  0004c	48 8d 4c 24 40	 lea	 rcx, QWORD PTR szConf$[rsp]
  00051	e8 00 00 00 00	 call	 memset

; 600  : 
; 601  : 	szConf.nMaxList[IDX_BUF_2] = nCnt_IdxBuf2;

  00056	b8 04 00 00 00	 mov	 eax, 4
  0005b	48 6b c0 01	 imul	 rax, rax, 1
  0005f	8b 8c 24 d8 00
	00 00		 mov	 ecx, DWORD PTR nCnt_IdxBuf2$[rsp]
  00066	89 4c 04 40	 mov	 DWORD PTR szConf$[rsp+rax], ecx

; 602  : 	
; 603  : 	nVal = nCnt_IdxBuf32 << 2;

  0006a	8b 84 24 e0 00
	00 00		 mov	 eax, DWORD PTR nCnt_IdxBuf32$[rsp]
  00071	c1 e0 02	 shl	 eax, 2
  00074	89 44 24 24	 mov	 DWORD PTR nVal$[rsp], eax

; 604  : 	for (i = IDX_BUF_4; i < IDX_BUF_256; i++)

  00078	c7 44 24 20 02
	00 00 00	 mov	 DWORD PTR i$[rsp], 2
  00080	eb 0a		 jmp	 SHORT $LN4@initDefaul
$LN2@initDefaul:
  00082	8b 44 24 20	 mov	 eax, DWORD PTR i$[rsp]
  00086	ff c0		 inc	 eax
  00088	89 44 24 20	 mov	 DWORD PTR i$[rsp], eax
$LN4@initDefaul:
  0008c	83 7c 24 20 08	 cmp	 DWORD PTR i$[rsp], 8
  00091	7d 14		 jge	 SHORT $LN3@initDefaul

; 605  : 	{
; 606  : 		szConf.nMaxList[i] = nVal + 1024;

  00093	8b 44 24 24	 mov	 eax, DWORD PTR nVal$[rsp]
  00097	05 00 04 00 00	 add	 eax, 1024		; 00000400H
  0009c	48 63 4c 24 20	 movsxd	 rcx, DWORD PTR i$[rsp]
  000a1	89 44 8c 40	 mov	 DWORD PTR szConf$[rsp+rcx*4], eax

; 607  : 	}

  000a5	eb db		 jmp	 SHORT $LN2@initDefaul
$LN3@initDefaul:

; 608  : 
; 609  : 	for (i = IDX_BUF_256; i < IDX_BUF_1k; i++)

  000a7	c7 44 24 20 08
	00 00 00	 mov	 DWORD PTR i$[rsp], 8
  000af	eb 0a		 jmp	 SHORT $LN7@initDefaul
$LN5@initDefaul:
  000b1	8b 44 24 20	 mov	 eax, DWORD PTR i$[rsp]
  000b5	ff c0		 inc	 eax
  000b7	89 44 24 20	 mov	 DWORD PTR i$[rsp], eax
$LN7@initDefaul:
  000bb	83 7c 24 20 0a	 cmp	 DWORD PTR i$[rsp], 10
  000c0	7d 15		 jge	 SHORT $LN6@initDefaul

; 610  : 	{
; 611  : 		szConf.nMaxList[i] = nCnt_IdxBuf32 + 64;

  000c2	8b 84 24 e0 00
	00 00		 mov	 eax, DWORD PTR nCnt_IdxBuf32$[rsp]
  000c9	83 c0 40	 add	 eax, 64			; 00000040H
  000cc	48 63 4c 24 20	 movsxd	 rcx, DWORD PTR i$[rsp]
  000d1	89 44 8c 40	 mov	 DWORD PTR szConf$[rsp+rcx*4], eax

; 612  : 	}

  000d5	eb da		 jmp	 SHORT $LN5@initDefaul
$LN6@initDefaul:

; 613  : 
; 614  : 	nVal = nCnt_IdxBuf32 >> 2;

  000d7	8b 84 24 e0 00
	00 00		 mov	 eax, DWORD PTR nCnt_IdxBuf32$[rsp]
  000de	c1 f8 02	 sar	 eax, 2
  000e1	89 44 24 24	 mov	 DWORD PTR nVal$[rsp], eax

; 615  : 	for (i = IDX_BUF_1k; i < IDX_BUF_64k; i++)

  000e5	c7 44 24 20 0a
	00 00 00	 mov	 DWORD PTR i$[rsp], 10
  000ed	eb 0a		 jmp	 SHORT $LN10@initDefaul
$LN8@initDefaul:
  000ef	8b 44 24 20	 mov	 eax, DWORD PTR i$[rsp]
  000f3	ff c0		 inc	 eax
  000f5	89 44 24 20	 mov	 DWORD PTR i$[rsp], eax
$LN10@initDefaul:
  000f9	83 7c 24 20 10	 cmp	 DWORD PTR i$[rsp], 16
  000fe	7d 12		 jge	 SHORT $LN9@initDefaul

; 616  : 	{
; 617  : 		szConf.nMaxList[i] = nVal + 4;

  00100	8b 44 24 24	 mov	 eax, DWORD PTR nVal$[rsp]
  00104	83 c0 04	 add	 eax, 4
  00107	48 63 4c 24 20	 movsxd	 rcx, DWORD PTR i$[rsp]
  0010c	89 44 8c 40	 mov	 DWORD PTR szConf$[rsp+rcx*4], eax

; 618  : 	}

  00110	eb dd		 jmp	 SHORT $LN8@initDefaul
$LN9@initDefaul:

; 619  : 	//6(64K)
; 620  : 	for (i = IDX_BUF_64k; i < IDX_BUF_512k; i++)

  00112	c7 44 24 20 10
	00 00 00	 mov	 DWORD PTR i$[rsp], 16
  0011a	eb 0a		 jmp	 SHORT $LN13@initDefaul
$LN11@initDefaul:
  0011c	8b 44 24 20	 mov	 eax, DWORD PTR i$[rsp]
  00120	ff c0		 inc	 eax
  00122	89 44 24 20	 mov	 DWORD PTR i$[rsp], eax
$LN13@initDefaul:
  00126	83 7c 24 20 13	 cmp	 DWORD PTR i$[rsp], 19
  0012b	7d 12		 jge	 SHORT $LN12@initDefaul

; 621  : 	{
; 622  : 		szConf.nMaxList[i] = nVal + 2;

  0012d	8b 44 24 24	 mov	 eax, DWORD PTR nVal$[rsp]
  00131	83 c0 02	 add	 eax, 2
  00134	48 63 4c 24 20	 movsxd	 rcx, DWORD PTR i$[rsp]
  00139	89 44 8c 40	 mov	 DWORD PTR szConf$[rsp+rcx*4], eax

; 623  : 	}

  0013d	eb dd		 jmp	 SHORT $LN11@initDefaul
$LN12@initDefaul:

; 624  : 	//9(512K)
; 625  : 	nVal = nCnt_IdxBuf32 >> 8;

  0013f	8b 84 24 e0 00
	00 00		 mov	 eax, DWORD PTR nCnt_IdxBuf32$[rsp]
  00146	c1 f8 08	 sar	 eax, 8
  00149	89 44 24 24	 mov	 DWORD PTR nVal$[rsp], eax

; 626  : 	szConf.nMaxList[IDX_BUF_512k] = nVal;

  0014d	b8 04 00 00 00	 mov	 eax, 4
  00152	48 6b c0 13	 imul	 rax, rax, 19
  00156	8b 4c 24 24	 mov	 ecx, DWORD PTR nVal$[rsp]
  0015a	89 4c 04 40	 mov	 DWORD PTR szConf$[rsp+rax], ecx

; 627  : 	szConf.nMaxList[IDX_BUF_1m] = nCnt_IdxBuf_1m;

  0015e	b8 04 00 00 00	 mov	 eax, 4
  00163	48 6b c0 14	 imul	 rax, rax, 20
  00167	8b 8c 24 e8 00
	00 00		 mov	 ecx, DWORD PTR nCnt_IdxBuf_1m$[rsp]
  0016e	89 4c 04 40	 mov	 DWORD PTR szConf$[rsp+rax], ecx

; 628  : 	szConf.nMaxList[IDX_BUF_2m] = nCnt_IdxBuf_1m;

  00172	b8 04 00 00 00	 mov	 eax, 4
  00177	48 6b c0 15	 imul	 rax, rax, 21
  0017b	8b 8c 24 e8 00
	00 00		 mov	 ecx, DWORD PTR nCnt_IdxBuf_1m$[rsp]
  00182	89 4c 04 40	 mov	 DWORD PTR szConf$[rsp+rax], ecx

; 629  : 
; 630  : 	gs_pMMgr->init(&szConf);

  00186	48 8d 54 24 40	 lea	 rdx, QWORD PTR szConf$[rsp]
  0018b	48 8b 0d 00 00
	00 00		 mov	 rcx, QWORD PTR ?gs_pMMgr@@3PEAVCMemManager@@EA ; gs_pMMgr
  00192	e8 00 00 00 00	 call	 ?init@CMemManager@@QEAAXPEAUSTBufConf@@@Z ; CMemManager::init

; 631  : 	if (!gs_pMMgr->alloc()) {

  00197	48 8b 0d 00 00
	00 00		 mov	 rcx, QWORD PTR ?gs_pMMgr@@3PEAVCMemManager@@EA ; gs_pMMgr
  0019e	e8 00 00 00 00	 call	 ?alloc@CMemManager@@QEAA_NXZ ; CMemManager::alloc
  001a3	0f b6 c0	 movzx	 eax, al
  001a6	85 c0		 test	 eax, eax
  001a8	75 1d		 jne	 SHORT $LN14@initDefaul

; 632  : 		comErrorPrint("gs_pMMgr->alloc() has Failed!!!");

  001aa	41 b8 78 02 00
	00		 mov	 r8d, 632		; 00000278H
  001b0	48 8d 15 00 00
	00 00		 lea	 rdx, OFFSET FLAT:$SG45982
  001b7	48 8d 0d 00 00
	00 00		 lea	 rcx, OFFSET FLAT:$SG45983
  001be	e8 00 00 00 00	 call	 ?comGlobalErrorProc@@YAXPEADPEBDH@Z ; comGlobalErrorProc

; 633  : 		return false;

  001c3	32 c0		 xor	 al, al
  001c5	eb 02		 jmp	 SHORT $LN1@initDefaul
$LN14@initDefaul:

; 634  : 	}
; 635  : 
; 636  : 	return true;

  001c7	b0 01		 mov	 al, 1
$LN1@initDefaul:

; 637  : }

  001c9	48 8b f8	 mov	 rdi, rax
  001cc	48 8b cc	 mov	 rcx, rsp
  001cf	48 8d 15 00 00
	00 00		 lea	 rdx, OFFSET FLAT:?initDefaultPool@CCoreList@@QEAA_NHHH@Z$rtcFrameData
  001d6	e8 00 00 00 00	 call	 _RTC_CheckStackVars
  001db	48 8b c7	 mov	 rax, rdi
  001de	48 8b 8c 24 b0
	00 00 00	 mov	 rcx, QWORD PTR __$ArrayPad$[rsp]
  001e6	48 33 cc	 xor	 rcx, rsp
  001e9	e8 00 00 00 00	 call	 __security_check_cookie
  001ee	48 81 c4 c0 00
	00 00		 add	 rsp, 192		; 000000c0H
  001f5	5f		 pop	 rdi
  001f6	c3		 ret	 0
?initDefaultPool@CCoreList@@QEAA_NHHH@Z ENDP		; CCoreList::initDefaultPool
_TEXT	ENDS
; Function compile flags: /Odtp /RTCsu
; File e:\infinia-library-3.0\com\src\comcore.cpp
_TEXT	SEGMENT
i$ = 32
nVal$ = 36
nShift$ = 40
szConf$ = 64
szKey$ = 184
tv327 = 240
tv332 = 244
tv339 = 248
tv345 = 252
__$ArrayPad$ = 256
this$ = 288
?initSystemFile@CCoreList@@QEAA_NXZ PROC		; CCoreList::initSystemFile

; 523  : {

$LN25:
  00000	48 89 4c 24 08	 mov	 QWORD PTR [rsp+8], rcx
  00005	57		 push	 rdi
  00006	48 81 ec 10 01
	00 00		 sub	 rsp, 272		; 00000110H
  0000d	48 8b fc	 mov	 rdi, rsp
  00010	b9 44 00 00 00	 mov	 ecx, 68			; 00000044H
  00015	b8 cc cc cc cc	 mov	 eax, -858993460		; ccccccccH
  0001a	f3 ab		 rep stosd
  0001c	48 8b 8c 24 20
	01 00 00	 mov	 rcx, QWORD PTR [rsp+288]
  00024	48 8b 05 00 00
	00 00		 mov	 rax, QWORD PTR __security_cookie
  0002b	48 33 c4	 xor	 rax, rsp
  0002e	48 89 84 24 00
	01 00 00	 mov	 QWORD PTR __$ArrayPad$[rsp], rax

; 524  : 	int i, nVal, nShift;
; 525  : 	if (!CEnv::initSystem()) return false;

  00036	33 c9		 xor	 ecx, ecx
  00038	e8 00 00 00 00	 call	 ?initSystem@CEnv@@SAHPEAD@Z ; CEnv::initSystem
  0003d	85 c0		 test	 eax, eax
  0003f	75 07		 jne	 SHORT $LN14@initSystem
  00041	32 c0		 xor	 al, al
  00043	e9 7e 04 00 00	 jmp	 $LN1@initSystem
$LN14@initSystem:

; 526  : 
; 527  : 	STBufConf szConf;
; 528  : 	TCHAR szKey[36];
; 529  : 	memset(&szConf, 0, sizeof(STBufConf));

  00048	41 b8 58 00 00
	00		 mov	 r8d, 88			; 00000058H
  0004e	33 d2		 xor	 edx, edx
  00050	48 8d 4c 24 40	 lea	 rcx, QWORD PTR szConf$[rsp]
  00055	e8 00 00 00 00	 call	 memset

; 530  : 
; 531  : 	nVal = GetPrivateProfileInt(_T("MPOOL"), _T("IDX_BUF_32"), 0, g_pSystem);

  0005a	4c 8b 0d 00 00
	00 00		 mov	 r9, QWORD PTR ?g_pSystem@@3PEADEA ; g_pSystem
  00061	45 33 c0	 xor	 r8d, r8d
  00064	48 8d 15 00 00
	00 00		 lea	 rdx, OFFSET FLAT:$SG45921
  0006b	48 8d 0d 00 00
	00 00		 lea	 rcx, OFFSET FLAT:$SG45922
  00072	ff 15 00 00 00
	00		 call	 QWORD PTR __imp_GetPrivateProfileIntA
  00078	89 44 24 24	 mov	 DWORD PTR nVal$[rsp], eax

; 532  : 	if (!nVal) goto INIT_THREAD;

  0007c	83 7c 24 24 00	 cmp	 DWORD PTR nVal$[rsp], 0
  00081	75 0a		 jne	 SHORT $LN15@initSystem
  00083	e9 1b 03 00 00	 jmp	 $LN16@initSystem
  00088	e9 16 03 00 00	 jmp	 $INIT_THREAD$26
$LN15@initSystem:

; 533  : 	
; 534  : 	szConf.nMaxList[IDX_BUF_2] = GetPrivateProfileInt(_T("MPOOL"), _T("IDX_BUF_2"), 0, g_pSystem);

  0008d	4c 8b 0d 00 00
	00 00		 mov	 r9, QWORD PTR ?g_pSystem@@3PEADEA ; g_pSystem
  00094	45 33 c0	 xor	 r8d, r8d
  00097	48 8d 15 00 00
	00 00		 lea	 rdx, OFFSET FLAT:$SG45925
  0009e	48 8d 0d 00 00
	00 00		 lea	 rcx, OFFSET FLAT:$SG45926
  000a5	ff 15 00 00 00
	00		 call	 QWORD PTR __imp_GetPrivateProfileIntA
  000ab	b9 04 00 00 00	 mov	 ecx, 4
  000b0	48 6b c9 01	 imul	 rcx, rcx, 1
  000b4	89 44 0c 40	 mov	 DWORD PTR szConf$[rsp+rcx], eax

; 535  : 	
; 536  : 	for (i = IDX_BUF_4; i < IDX_BUF_256; i++)

  000b8	c7 44 24 20 02
	00 00 00	 mov	 DWORD PTR i$[rsp], 2
  000c0	eb 0a		 jmp	 SHORT $LN4@initSystem
$LN2@initSystem:
  000c2	8b 44 24 20	 mov	 eax, DWORD PTR i$[rsp]
  000c6	ff c0		 inc	 eax
  000c8	89 44 24 20	 mov	 DWORD PTR i$[rsp], eax
$LN4@initSystem:
  000cc	83 7c 24 20 08	 cmp	 DWORD PTR i$[rsp], 8
  000d1	7d 62		 jge	 SHORT $LN3@initSystem

; 537  : 	{
; 538  : 		_stprintf(szKey, _T("IDX_BUF_%d"), 1 << i);

  000d3	8b 44 24 20	 mov	 eax, DWORD PTR i$[rsp]
  000d7	b9 01 00 00 00	 mov	 ecx, 1
  000dc	89 8c 24 f0 00
	00 00		 mov	 DWORD PTR tv327[rsp], ecx
  000e3	0f b6 c8	 movzx	 ecx, al
  000e6	8b 84 24 f0 00
	00 00		 mov	 eax, DWORD PTR tv327[rsp]
  000ed	d3 e0		 shl	 eax, cl
  000ef	44 8b c0	 mov	 r8d, eax
  000f2	48 8d 15 00 00
	00 00		 lea	 rdx, OFFSET FLAT:$SG45927
  000f9	48 8d 8c 24 b8
	00 00 00	 lea	 rcx, QWORD PTR szKey$[rsp]
  00101	e8 00 00 00 00	 call	 sprintf

; 539  : 		szConf.nMaxList[i] = GetPrivateProfileInt(_T("MPOOL"), szKey, 0, g_pSystem) + 256;

  00106	4c 8b 0d 00 00
	00 00		 mov	 r9, QWORD PTR ?g_pSystem@@3PEADEA ; g_pSystem
  0010d	45 33 c0	 xor	 r8d, r8d
  00110	48 8d 94 24 b8
	00 00 00	 lea	 rdx, QWORD PTR szKey$[rsp]
  00118	48 8d 0d 00 00
	00 00		 lea	 rcx, OFFSET FLAT:$SG45928
  0011f	ff 15 00 00 00
	00		 call	 QWORD PTR __imp_GetPrivateProfileIntA
  00125	05 00 01 00 00	 add	 eax, 256		; 00000100H
  0012a	48 63 4c 24 20	 movsxd	 rcx, DWORD PTR i$[rsp]
  0012f	89 44 8c 40	 mov	 DWORD PTR szConf$[rsp+rcx*4], eax

; 540  : 	}

  00133	eb 8d		 jmp	 SHORT $LN2@initSystem
$LN3@initSystem:

; 541  : 	for (i = IDX_BUF_256; i < IDX_BUF_1k; i++)

  00135	c7 44 24 20 08
	00 00 00	 mov	 DWORD PTR i$[rsp], 8
  0013d	eb 0a		 jmp	 SHORT $LN7@initSystem
$LN5@initSystem:
  0013f	8b 44 24 20	 mov	 eax, DWORD PTR i$[rsp]
  00143	ff c0		 inc	 eax
  00145	89 44 24 20	 mov	 DWORD PTR i$[rsp], eax
$LN7@initSystem:
  00149	83 7c 24 20 0a	 cmp	 DWORD PTR i$[rsp], 10
  0014e	7d 60		 jge	 SHORT $LN6@initSystem

; 542  : 	{
; 543  : 		_stprintf(szKey, _T("IDX_BUF_%d"), 1 << i);

  00150	8b 44 24 20	 mov	 eax, DWORD PTR i$[rsp]
  00154	b9 01 00 00 00	 mov	 ecx, 1
  00159	89 8c 24 f4 00
	00 00		 mov	 DWORD PTR tv332[rsp], ecx
  00160	0f b6 c8	 movzx	 ecx, al
  00163	8b 84 24 f4 00
	00 00		 mov	 eax, DWORD PTR tv332[rsp]
  0016a	d3 e0		 shl	 eax, cl
  0016c	44 8b c0	 mov	 r8d, eax
  0016f	48 8d 15 00 00
	00 00		 lea	 rdx, OFFSET FLAT:$SG45929
  00176	48 8d 8c 24 b8
	00 00 00	 lea	 rcx, QWORD PTR szKey$[rsp]
  0017e	e8 00 00 00 00	 call	 sprintf

; 544  : 		szConf.nMaxList[i] = GetPrivateProfileInt(_T("MPOOL"), szKey, 0, g_pSystem) + 64;

  00183	4c 8b 0d 00 00
	00 00		 mov	 r9, QWORD PTR ?g_pSystem@@3PEADEA ; g_pSystem
  0018a	45 33 c0	 xor	 r8d, r8d
  0018d	48 8d 94 24 b8
	00 00 00	 lea	 rdx, QWORD PTR szKey$[rsp]
  00195	48 8d 0d 00 00
	00 00		 lea	 rcx, OFFSET FLAT:$SG45930
  0019c	ff 15 00 00 00
	00		 call	 QWORD PTR __imp_GetPrivateProfileIntA
  001a2	83 c0 40	 add	 eax, 64			; 00000040H
  001a5	48 63 4c 24 20	 movsxd	 rcx, DWORD PTR i$[rsp]
  001aa	89 44 8c 40	 mov	 DWORD PTR szConf$[rsp+rcx*4], eax

; 545  : 	}

  001ae	eb 8f		 jmp	 SHORT $LN5@initSystem
$LN6@initSystem:

; 546  : 
; 547  : 	nVal = 1; nShift = 0;

  001b0	c7 44 24 24 01
	00 00 00	 mov	 DWORD PTR nVal$[rsp], 1
  001b8	c7 44 24 28 00
	00 00 00	 mov	 DWORD PTR nShift$[rsp], 0

; 548  : 	for (i = IDX_BUF_1k; i < IDX_BUF_64k; i++)

  001c0	c7 44 24 20 0a
	00 00 00	 mov	 DWORD PTR i$[rsp], 10
  001c8	eb 0a		 jmp	 SHORT $LN10@initSystem
$LN8@initSystem:
  001ca	8b 44 24 20	 mov	 eax, DWORD PTR i$[rsp]
  001ce	ff c0		 inc	 eax
  001d0	89 44 24 20	 mov	 DWORD PTR i$[rsp], eax
$LN10@initSystem:
  001d4	83 7c 24 20 10	 cmp	 DWORD PTR i$[rsp], 16
  001d9	7d 73		 jge	 SHORT $LN9@initSystem

; 549  : 	{
; 550  : 		_stprintf(szKey, _T("IDX_BUF_%dk"), nVal); nShift++; //0(1K), 1(2K), 2(4K), 3(8K), 4(16K), 5(32K)

  001db	44 8b 44 24 24	 mov	 r8d, DWORD PTR nVal$[rsp]
  001e0	48 8d 15 00 00
	00 00		 lea	 rdx, OFFSET FLAT:$SG45931
  001e7	48 8d 8c 24 b8
	00 00 00	 lea	 rcx, QWORD PTR szKey$[rsp]
  001ef	e8 00 00 00 00	 call	 sprintf
  001f4	8b 44 24 28	 mov	 eax, DWORD PTR nShift$[rsp]
  001f8	ff c0		 inc	 eax
  001fa	89 44 24 28	 mov	 DWORD PTR nShift$[rsp], eax

; 551  : 		szConf.nMaxList[i] = GetPrivateProfileInt(_T("MPOOL"), szKey, 0, g_pSystem) + 4;

  001fe	4c 8b 0d 00 00
	00 00		 mov	 r9, QWORD PTR ?g_pSystem@@3PEADEA ; g_pSystem
  00205	45 33 c0	 xor	 r8d, r8d
  00208	48 8d 94 24 b8
	00 00 00	 lea	 rdx, QWORD PTR szKey$[rsp]
  00210	48 8d 0d 00 00
	00 00		 lea	 rcx, OFFSET FLAT:$SG45932
  00217	ff 15 00 00 00
	00		 call	 QWORD PTR __imp_GetPrivateProfileIntA
  0021d	83 c0 04	 add	 eax, 4
  00220	48 63 4c 24 20	 movsxd	 rcx, DWORD PTR i$[rsp]
  00225	89 44 8c 40	 mov	 DWORD PTR szConf$[rsp+rcx*4], eax

; 552  : 		nVal = 1 << nShift;

  00229	8b 44 24 28	 mov	 eax, DWORD PTR nShift$[rsp]
  0022d	b9 01 00 00 00	 mov	 ecx, 1
  00232	89 8c 24 f8 00
	00 00		 mov	 DWORD PTR tv339[rsp], ecx
  00239	0f b6 c8	 movzx	 ecx, al
  0023c	8b 84 24 f8 00
	00 00		 mov	 eax, DWORD PTR tv339[rsp]
  00243	d3 e0		 shl	 eax, cl
  00245	89 44 24 24	 mov	 DWORD PTR nVal$[rsp], eax

; 553  : 	}

  00249	e9 7c ff ff ff	 jmp	 $LN8@initSystem
$LN9@initSystem:

; 554  : 	//6(64K)
; 555  : 	for (i = IDX_BUF_64k; i < IDX_BUF_512k; i++)

  0024e	c7 44 24 20 10
	00 00 00	 mov	 DWORD PTR i$[rsp], 16
  00256	eb 0a		 jmp	 SHORT $LN13@initSystem
$LN11@initSystem:
  00258	8b 44 24 20	 mov	 eax, DWORD PTR i$[rsp]
  0025c	ff c0		 inc	 eax
  0025e	89 44 24 20	 mov	 DWORD PTR i$[rsp], eax
$LN13@initSystem:
  00262	83 7c 24 20 13	 cmp	 DWORD PTR i$[rsp], 19
  00267	7d 73		 jge	 SHORT $LN12@initSystem

; 556  : 	{
; 557  : 		_stprintf(szKey, _T("IDX_BUF_%dk"), nVal); nShift++; //6(64K), 7(128K), 8(256K)

  00269	44 8b 44 24 24	 mov	 r8d, DWORD PTR nVal$[rsp]
  0026e	48 8d 15 00 00
	00 00		 lea	 rdx, OFFSET FLAT:$SG45933
  00275	48 8d 8c 24 b8
	00 00 00	 lea	 rcx, QWORD PTR szKey$[rsp]
  0027d	e8 00 00 00 00	 call	 sprintf
  00282	8b 44 24 28	 mov	 eax, DWORD PTR nShift$[rsp]
  00286	ff c0		 inc	 eax
  00288	89 44 24 28	 mov	 DWORD PTR nShift$[rsp], eax

; 558  : 		szConf.nMaxList[i] = GetPrivateProfileInt(_T("MPOOL"), szKey, 0, g_pSystem) + 2;

  0028c	4c 8b 0d 00 00
	00 00		 mov	 r9, QWORD PTR ?g_pSystem@@3PEADEA ; g_pSystem
  00293	45 33 c0	 xor	 r8d, r8d
  00296	48 8d 94 24 b8
	00 00 00	 lea	 rdx, QWORD PTR szKey$[rsp]
  0029e	48 8d 0d 00 00
	00 00		 lea	 rcx, OFFSET FLAT:$SG45934
  002a5	ff 15 00 00 00
	00		 call	 QWORD PTR __imp_GetPrivateProfileIntA
  002ab	83 c0 02	 add	 eax, 2
  002ae	48 63 4c 24 20	 movsxd	 rcx, DWORD PTR i$[rsp]
  002b3	89 44 8c 40	 mov	 DWORD PTR szConf$[rsp+rcx*4], eax

; 559  : 		nVal = 1 << nShift;

  002b7	8b 44 24 28	 mov	 eax, DWORD PTR nShift$[rsp]
  002bb	b9 01 00 00 00	 mov	 ecx, 1
  002c0	89 8c 24 fc 00
	00 00		 mov	 DWORD PTR tv345[rsp], ecx
  002c7	0f b6 c8	 movzx	 ecx, al
  002ca	8b 84 24 fc 00
	00 00		 mov	 eax, DWORD PTR tv345[rsp]
  002d1	d3 e0		 shl	 eax, cl
  002d3	89 44 24 24	 mov	 DWORD PTR nVal$[rsp], eax

; 560  : 	}

  002d7	e9 7c ff ff ff	 jmp	 $LN11@initSystem
$LN12@initSystem:

; 561  : 	//9(512K)
; 562  : 	szConf.nMaxList[IDX_BUF_512k] = GetPrivateProfileInt(_T("MPOOL"), _T("IDX_BUF_512k"), 0, g_pSystem) + 1;

  002dc	4c 8b 0d 00 00
	00 00		 mov	 r9, QWORD PTR ?g_pSystem@@3PEADEA ; g_pSystem
  002e3	45 33 c0	 xor	 r8d, r8d
  002e6	48 8d 15 00 00
	00 00		 lea	 rdx, OFFSET FLAT:$SG45935
  002ed	48 8d 0d 00 00
	00 00		 lea	 rcx, OFFSET FLAT:$SG45936
  002f4	ff 15 00 00 00
	00		 call	 QWORD PTR __imp_GetPrivateProfileIntA
  002fa	ff c0		 inc	 eax
  002fc	b9 04 00 00 00	 mov	 ecx, 4
  00301	48 6b c9 13	 imul	 rcx, rcx, 19
  00305	89 44 0c 40	 mov	 DWORD PTR szConf$[rsp+rcx], eax

; 563  : 	szConf.nMaxList[IDX_BUF_1m] = GetPrivateProfileInt(_T("MPOOL"), _T("IDX_BUF_1m"), 0, g_pSystem);

  00309	4c 8b 0d 00 00
	00 00		 mov	 r9, QWORD PTR ?g_pSystem@@3PEADEA ; g_pSystem
  00310	45 33 c0	 xor	 r8d, r8d
  00313	48 8d 15 00 00
	00 00		 lea	 rdx, OFFSET FLAT:$SG45937
  0031a	48 8d 0d 00 00
	00 00		 lea	 rcx, OFFSET FLAT:$SG45938
  00321	ff 15 00 00 00
	00		 call	 QWORD PTR __imp_GetPrivateProfileIntA
  00327	b9 04 00 00 00	 mov	 ecx, 4
  0032c	48 6b c9 14	 imul	 rcx, rcx, 20
  00330	89 44 0c 40	 mov	 DWORD PTR szConf$[rsp+rcx], eax

; 564  : 	szConf.nMaxList[IDX_BUF_2m] = GetPrivateProfileInt(_T("MPOOL"), _T("IDX_BUF_2m"), 0, g_pSystem);

  00334	4c 8b 0d 00 00
	00 00		 mov	 r9, QWORD PTR ?g_pSystem@@3PEADEA ; g_pSystem
  0033b	45 33 c0	 xor	 r8d, r8d
  0033e	48 8d 15 00 00
	00 00		 lea	 rdx, OFFSET FLAT:$SG45939
  00345	48 8d 0d 00 00
	00 00		 lea	 rcx, OFFSET FLAT:$SG45940
  0034c	ff 15 00 00 00
	00		 call	 QWORD PTR __imp_GetPrivateProfileIntA
  00352	b9 04 00 00 00	 mov	 ecx, 4
  00357	48 6b c9 15	 imul	 rcx, rcx, 21
  0035b	89 44 0c 40	 mov	 DWORD PTR szConf$[rsp+rcx], eax

; 565  : 
; 566  : 	gs_pMMgr->init(&szConf);

  0035f	48 8d 54 24 40	 lea	 rdx, QWORD PTR szConf$[rsp]
  00364	48 8b 0d 00 00
	00 00		 mov	 rcx, QWORD PTR ?gs_pMMgr@@3PEAVCMemManager@@EA ; gs_pMMgr
  0036b	e8 00 00 00 00	 call	 ?init@CMemManager@@QEAAXPEAUSTBufConf@@@Z ; CMemManager::init

; 567  : 	if (!gs_pMMgr->alloc()) {

  00370	48 8b 0d 00 00
	00 00		 mov	 rcx, QWORD PTR ?gs_pMMgr@@3PEAVCMemManager@@EA ; gs_pMMgr
  00377	e8 00 00 00 00	 call	 ?alloc@CMemManager@@QEAA_NXZ ; CMemManager::alloc
  0037c	0f b6 c0	 movzx	 eax, al
  0037f	85 c0		 test	 eax, eax
  00381	75 20		 jne	 SHORT $LN17@initSystem

; 568  : 		comErrorPrint("gs_pMMgr->alloc() has Failed!!!");

  00383	41 b8 38 02 00
	00		 mov	 r8d, 568		; 00000238H
  00389	48 8d 15 00 00
	00 00		 lea	 rdx, OFFSET FLAT:$SG45942
  00390	48 8d 0d 00 00
	00 00		 lea	 rcx, OFFSET FLAT:$SG45943
  00397	e8 00 00 00 00	 call	 ?comGlobalErrorProc@@YAXPEADPEBDH@Z ; comGlobalErrorProc

; 569  : 		return false;

  0039c	32 c0		 xor	 al, al
  0039e	e9 23 01 00 00	 jmp	 $LN1@initSystem
$LN17@initSystem:
$LN16@initSystem:
$INIT_THREAD$26:

; 570  : 	}
; 571  : 
; 572  : INIT_THREAD :
; 573  : 	if (!initComThread(g_pSystem, _T("COMTHREAD")))			return false;

  003a3	4c 8d 05 00 00
	00 00		 lea	 r8, OFFSET FLAT:$SG45945
  003aa	48 8b 15 00 00
	00 00		 mov	 rdx, QWORD PTR ?g_pSystem@@3PEADEA ; g_pSystem
  003b1	48 8b 8c 24 20
	01 00 00	 mov	 rcx, QWORD PTR this$[rsp]
  003b9	e8 00 00 00 00	 call	 ?initComThread@CCoreList@@QEAA_NPEAD0@Z ; CCoreList::initComThread
  003be	0f b6 c0	 movzx	 eax, al
  003c1	85 c0		 test	 eax, eax
  003c3	75 07		 jne	 SHORT $LN18@initSystem
  003c5	32 c0		 xor	 al, al
  003c7	e9 fa 00 00 00	 jmp	 $LN1@initSystem
$LN18@initSystem:

; 574  : 	if (!initLogWriter(g_pSystem, _T("LOG_WRITER"),true))	return false;

  003cc	41 b1 01	 mov	 r9b, 1
  003cf	4c 8d 05 00 00
	00 00		 lea	 r8, OFFSET FLAT:$SG45947
  003d6	48 8b 15 00 00
	00 00		 mov	 rdx, QWORD PTR ?g_pSystem@@3PEADEA ; g_pSystem
  003dd	48 8b 8c 24 20
	01 00 00	 mov	 rcx, QWORD PTR this$[rsp]
  003e5	e8 00 00 00 00	 call	 ?initLogWriter@CCoreList@@QEAA_NPEAD0_N@Z ; CCoreList::initLogWriter
  003ea	0f b6 c0	 movzx	 eax, al
  003ed	85 c0		 test	 eax, eax
  003ef	75 07		 jne	 SHORT $LN19@initSystem
  003f1	32 c0		 xor	 al, al
  003f3	e9 ce 00 00 00	 jmp	 $LN1@initSystem
$LN19@initSystem:

; 575  : 	if (!initScheduler(g_pSystem, _T("SCHEDULER")))			return false;

  003f8	4c 8d 05 00 00
	00 00		 lea	 r8, OFFSET FLAT:$SG45949
  003ff	48 8b 15 00 00
	00 00		 mov	 rdx, QWORD PTR ?g_pSystem@@3PEADEA ; g_pSystem
  00406	48 8b 8c 24 20
	01 00 00	 mov	 rcx, QWORD PTR this$[rsp]
  0040e	e8 00 00 00 00	 call	 ?initScheduler@CCoreList@@QEAA_NPEAD0@Z ; CCoreList::initScheduler
  00413	0f b6 c0	 movzx	 eax, al
  00416	85 c0		 test	 eax, eax
  00418	75 07		 jne	 SHORT $LN20@initSystem
  0041a	32 c0		 xor	 al, al
  0041c	e9 a5 00 00 00	 jmp	 $LN1@initSystem
$LN20@initSystem:

; 576  : 	if (!initQueueThread(g_pSystem, _T("EVENTPROC")))		return false;

  00421	4c 8d 05 00 00
	00 00		 lea	 r8, OFFSET FLAT:$SG45951
  00428	48 8b 15 00 00
	00 00		 mov	 rdx, QWORD PTR ?g_pSystem@@3PEADEA ; g_pSystem
  0042f	48 8b 8c 24 20
	01 00 00	 mov	 rcx, QWORD PTR this$[rsp]
  00437	e8 00 00 00 00	 call	 ?initQueueThread@CCoreList@@QEAA_NPEAD0@Z ; CCoreList::initQueueThread
  0043c	0f b6 c0	 movzx	 eax, al
  0043f	85 c0		 test	 eax, eax
  00441	75 04		 jne	 SHORT $LN21@initSystem
  00443	32 c0		 xor	 al, al
  00445	eb 7f		 jmp	 SHORT $LN1@initSystem
$LN21@initSystem:

; 577  : 
; 578  : 	// LogTimeExpresion
; 579  : 	if (!gs_DTEManager.initConfig(g_pSystem)) {

  00447	48 8b 15 00 00
	00 00		 mov	 rdx, QWORD PTR ?g_pSystem@@3PEADEA ; g_pSystem
  0044e	48 8d 0d 00 00
	00 00		 lea	 rcx, OFFSET FLAT:?gs_DTEManager@@3VCTimeExpManager@@A ; gs_DTEManager
  00455	e8 00 00 00 00	 call	 ?initConfig@CTimeExpManager@@QEAA_NPEAD@Z ; CTimeExpManager::initConfig
  0045a	0f b6 c0	 movzx	 eax, al
  0045d	85 c0		 test	 eax, eax
  0045f	75 1d		 jne	 SHORT $LN22@initSystem

; 580  : 		comErrorPrint("gs_DTEManager.initConfig has Failed!!!");

  00461	41 b8 44 02 00
	00		 mov	 r8d, 580		; 00000244H
  00467	48 8d 15 00 00
	00 00		 lea	 rdx, OFFSET FLAT:$SG45953
  0046e	48 8d 0d 00 00
	00 00		 lea	 rcx, OFFSET FLAT:$SG45954
  00475	e8 00 00 00 00	 call	 ?comGlobalErrorProc@@YAXPEADPEBDH@Z ; comGlobalErrorProc

; 581  : 		return false;

  0047a	32 c0		 xor	 al, al
  0047c	eb 48		 jmp	 SHORT $LN1@initSystem
$LN22@initSystem:

; 582  : 	}
; 583  : 
; 584  : 	// basic logger init
; 585  : 	if (!initLogger(&gs_cLogger, g_pSystem, _T("LOG"))) {

  0047e	4c 8d 0d 00 00
	00 00		 lea	 r9, OFFSET FLAT:$SG45956
  00485	4c 8b 05 00 00
	00 00		 mov	 r8, QWORD PTR ?g_pSystem@@3PEADEA ; g_pSystem
  0048c	48 8d 15 00 00
	00 00		 lea	 rdx, OFFSET FLAT:?gs_cLogger@@3VCLogger@@A ; gs_cLogger
  00493	48 8b 8c 24 20
	01 00 00	 mov	 rcx, QWORD PTR this$[rsp]
  0049b	e8 00 00 00 00	 call	 ?initLogger@CCoreList@@QEAA_NPEAVCLogger@@PEAD1@Z ; CCoreList::initLogger
  004a0	0f b6 c0	 movzx	 eax, al
  004a3	85 c0		 test	 eax, eax
  004a5	75 1d		 jne	 SHORT $LN23@initSystem

; 586  : 		comErrorPrint("initLogger has Failed!!!");

  004a7	41 b8 4a 02 00
	00		 mov	 r8d, 586		; 0000024aH
  004ad	48 8d 15 00 00
	00 00		 lea	 rdx, OFFSET FLAT:$SG45957
  004b4	48 8d 0d 00 00
	00 00		 lea	 rcx, OFFSET FLAT:$SG45958
  004bb	e8 00 00 00 00	 call	 ?comGlobalErrorProc@@YAXPEADPEBDH@Z ; comGlobalErrorProc

; 587  : 		return false;

  004c0	32 c0		 xor	 al, al
  004c2	eb 02		 jmp	 SHORT $LN1@initSystem
$LN23@initSystem:

; 588  : 	}
; 589  : 
; 590  : 	return true;

  004c4	b0 01		 mov	 al, 1
$LN1@initSystem:

; 591  : 
; 592  : }

  004c6	48 8b f8	 mov	 rdi, rax
  004c9	48 8b cc	 mov	 rcx, rsp
  004cc	48 8d 15 00 00
	00 00		 lea	 rdx, OFFSET FLAT:?initSystemFile@CCoreList@@QEAA_NXZ$rtcFrameData
  004d3	e8 00 00 00 00	 call	 _RTC_CheckStackVars
  004d8	48 8b c7	 mov	 rax, rdi
  004db	48 8b 8c 24 00
	01 00 00	 mov	 rcx, QWORD PTR __$ArrayPad$[rsp]
  004e3	48 33 cc	 xor	 rcx, rsp
  004e6	e8 00 00 00 00	 call	 __security_check_cookie
  004eb	48 81 c4 10 01
	00 00		 add	 rsp, 272		; 00000110H
  004f2	5f		 pop	 rdi
  004f3	c3		 ret	 0
?initSystemFile@CCoreList@@QEAA_NXZ ENDP		; CCoreList::initSystemFile
_TEXT	ENDS
; Function compile flags: /Odtp /RTCsu
; File e:\infinia-library-3.0\com\src\comcore.cpp
_TEXT	SEGMENT
$T1 = 32
this$ = 64
??1CCoreList@@QEAA@XZ PROC				; CCoreList::~CCoreList

; 490  : {

$LN3:
  00000	48 89 4c 24 08	 mov	 QWORD PTR [rsp+8], rcx
  00005	57		 push	 rdi
  00006	48 83 ec 30	 sub	 rsp, 48			; 00000030H
  0000a	48 8b fc	 mov	 rdi, rsp
  0000d	b9 0c 00 00 00	 mov	 ecx, 12
  00012	b8 cc cc cc cc	 mov	 eax, -858993460		; ccccccccH
  00017	f3 ab		 rep stosd
  00019	48 8b 4c 24 40	 mov	 rcx, QWORD PTR [rsp+64]
  0001e	48 c7 44 24 20
	fe ff ff ff	 mov	 QWORD PTR $T1[rsp], -2

; 491  : 	destroy();

  00027	48 8b 4c 24 40	 mov	 rcx, QWORD PTR this$[rsp]
  0002c	e8 00 00 00 00	 call	 ?destroy@CCoreList@@QEAAXXZ ; CCoreList::destroy
  00031	90		 npad	 1

; 492  : }

  00032	48 83 c4 30	 add	 rsp, 48			; 00000030H
  00036	5f		 pop	 rdi
  00037	c3		 ret	 0
??1CCoreList@@QEAA@XZ ENDP				; CCoreList::~CCoreList
_TEXT	ENDS
; Function compile flags: /Odtp /RTCsu
; File e:\infinia-library-3.0\com\src\comcore.cpp
_TEXT	SEGMENT
$T1 = 32
$T2 = 40
$T3 = 48
tv82 = 56
this$ = 80
??0CCoreList@@QEAA@XZ PROC				; CCoreList::CCoreList

; 463  : {

$LN10:
  00000	48 89 4c 24 08	 mov	 QWORD PTR [rsp+8], rcx
  00005	57		 push	 rdi
  00006	48 83 ec 40	 sub	 rsp, 64			; 00000040H
  0000a	48 8b fc	 mov	 rdi, rsp
  0000d	b9 10 00 00 00	 mov	 ecx, 16
  00012	b8 cc cc cc cc	 mov	 eax, -858993460		; ccccccccH
  00017	f3 ab		 rep stosd
  00019	48 8b 4c 24 50	 mov	 rcx, QWORD PTR [rsp+80]
  0001e	48 c7 44 24 30
	fe ff ff ff	 mov	 QWORD PTR $T3[rsp], -2

; 464  : 	m_pWriterList = NULL;

  00027	48 8b 44 24 50	 mov	 rax, QWORD PTR this$[rsp]
  0002c	48 c7 00 00 00
	00 00		 mov	 QWORD PTR [rax], 0

; 465  : 	m_pSchedulerList = NULL;

  00033	48 8b 44 24 50	 mov	 rax, QWORD PTR this$[rsp]
  00038	48 c7 40 08 00
	00 00 00	 mov	 QWORD PTR [rax+8], 0

; 466  : 	m_pThreadList = NULL;

  00040	48 8b 44 24 50	 mov	 rax, QWORD PTR this$[rsp]
  00045	48 c7 40 10 00
	00 00 00	 mov	 QWORD PTR [rax+16], 0

; 467  : 	m_pEventThreadList = NULL;

  0004d	48 8b 44 24 50	 mov	 rax, QWORD PTR this$[rsp]
  00052	48 c7 40 18 00
	00 00 00	 mov	 QWORD PTR [rax+24], 0

; 468  : 	m_pIntervalPool = NULL;

  0005a	48 8b 44 24 50	 mov	 rax, QWORD PTR this$[rsp]
  0005f	48 c7 40 20 00
	00 00 00	 mov	 QWORD PTR [rax+32], 0

; 469  : 	m_pEventPool = NULL;

  00067	48 8b 44 24 50	 mov	 rax, QWORD PTR this$[rsp]
  0006c	48 c7 40 28 00
	00 00 00	 mov	 QWORD PTR [rax+40], 0

; 470  : 
; 471  : 	gs_pMMgr = new (std::nothrow) CMemManager();

  00074	48 8d 15 00 00
	00 00		 lea	 rdx, OFFSET FLAT:?nothrow@std@@3Unothrow_t@1@B ; std::nothrow
  0007b	b9 10 01 00 00	 mov	 ecx, 272		; 00000110H
  00080	e8 00 00 00 00	 call	 ??2@YAPEAX_KAEBUnothrow_t@std@@@Z ; operator new
  00085	48 89 44 24 28	 mov	 QWORD PTR $T2[rsp], rax
  0008a	48 83 7c 24 28
	00		 cmp	 QWORD PTR $T2[rsp], 0
  00090	74 11		 je	 SHORT $LN6@CCoreList
  00092	48 8b 4c 24 28	 mov	 rcx, QWORD PTR $T2[rsp]
  00097	e8 00 00 00 00	 call	 ??0CMemManager@@QEAA@XZ	; CMemManager::CMemManager
  0009c	48 89 44 24 38	 mov	 QWORD PTR tv82[rsp], rax
  000a1	eb 09		 jmp	 SHORT $LN7@CCoreList
$LN6@CCoreList:
  000a3	48 c7 44 24 38
	00 00 00 00	 mov	 QWORD PTR tv82[rsp], 0
$LN7@CCoreList:
  000ac	48 8b 44 24 38	 mov	 rax, QWORD PTR tv82[rsp]
  000b1	48 89 44 24 20	 mov	 QWORD PTR $T1[rsp], rax
  000b6	48 8b 44 24 20	 mov	 rax, QWORD PTR $T1[rsp]
  000bb	48 89 05 00 00
	00 00		 mov	 QWORD PTR ?gs_pMMgr@@3PEAVCMemManager@@EA, rax ; gs_pMMgr

; 472  : 	if (!gs_pMMgr) {

  000c2	48 83 3d 00 00
	00 00 00	 cmp	 QWORD PTR ?gs_pMMgr@@3PEAVCMemManager@@EA, 0 ; gs_pMMgr
  000ca	75 21		 jne	 SHORT $LN2@CCoreList

; 473  : 		comErrorPrint("gs_pMMgr alloc has Failed!!!");

  000cc	41 b8 d9 01 00
	00		 mov	 r8d, 473		; 000001d9H
  000d2	48 8d 15 00 00
	00 00		 lea	 rdx, OFFSET FLAT:$SG45618
  000d9	48 8d 0d 00 00
	00 00		 lea	 rcx, OFFSET FLAT:$SG45619
  000e0	e8 00 00 00 00	 call	 ?comGlobalErrorProc@@YAXPEADPEBDH@Z ; comGlobalErrorProc

; 474  : 		exit(0);

  000e5	33 c9		 xor	 ecx, ecx
  000e7	ff 15 00 00 00
	00		 call	 QWORD PTR __imp_exit
$LN2@CCoreList:

; 475  : 	}
; 476  : 
; 477  : 	if (!initSystemFile()) {

  000ed	48 8b 4c 24 50	 mov	 rcx, QWORD PTR this$[rsp]
  000f2	e8 00 00 00 00	 call	 ?initSystemFile@CCoreList@@QEAA_NXZ ; CCoreList::initSystemFile
  000f7	0f b6 c0	 movzx	 eax, al
  000fa	85 c0		 test	 eax, eax
  000fc	75 21		 jne	 SHORT $LN3@CCoreList

; 478  : 		comErrorPrint("initSystemFile() has Failed!!!");

  000fe	41 b8 de 01 00
	00		 mov	 r8d, 478		; 000001deH
  00104	48 8d 15 00 00
	00 00		 lea	 rdx, OFFSET FLAT:$SG45621
  0010b	48 8d 0d 00 00
	00 00		 lea	 rcx, OFFSET FLAT:$SG45622
  00112	e8 00 00 00 00	 call	 ?comGlobalErrorProc@@YAXPEADPEBDH@Z ; comGlobalErrorProc

; 479  : 		exit(0);

  00117	33 c9		 xor	 ecx, ecx
  00119	ff 15 00 00 00
	00		 call	 QWORD PTR __imp_exit
$LN3@CCoreList:

; 480  : 	}
; 481  : 	if (!start())

  0011f	48 8b 4c 24 50	 mov	 rcx, QWORD PTR this$[rsp]
  00124	e8 00 00 00 00	 call	 ?start@CCoreList@@QEAA_NXZ ; CCoreList::start
  00129	0f b6 c0	 movzx	 eax, al
  0012c	85 c0		 test	 eax, eax
  0012e	75 21		 jne	 SHORT $LN4@CCoreList

; 482  : 	{
; 483  : 		comErrorPrint("start() has Failed!!!");

  00130	41 b8 e3 01 00
	00		 mov	 r8d, 483		; 000001e3H
  00136	48 8d 15 00 00
	00 00		 lea	 rdx, OFFSET FLAT:$SG45624
  0013d	48 8d 0d 00 00
	00 00		 lea	 rcx, OFFSET FLAT:$SG45625
  00144	e8 00 00 00 00	 call	 ?comGlobalErrorProc@@YAXPEADPEBDH@Z ; comGlobalErrorProc

; 484  : 		exit(0);

  00149	33 c9		 xor	 ecx, ecx
  0014b	ff 15 00 00 00
	00		 call	 QWORD PTR __imp_exit
$LN4@CCoreList:

; 485  : 	}	
; 486  : }

  00151	48 8b 44 24 50	 mov	 rax, QWORD PTR this$[rsp]
  00156	48 83 c4 40	 add	 rsp, 64			; 00000040H
  0015a	5f		 pop	 rdi
  0015b	c3		 ret	 0
$LN9@CCoreList:
??0CCoreList@@QEAA@XZ ENDP				; CCoreList::CCoreList
_TEXT	ENDS
text$x	SEGMENT
$T1 = 32
$T2 = 40
$T3 = 48
tv82 = 56
this$ = 80
?dtor$0@?0???0CCoreList@@QEAA@XZ@4HA PROC		; `CCoreList::CCoreList'::`1'::dtor$0
  00000	48 89 4c 24 08	 mov	 QWORD PTR [rsp+8], rcx
  00005	48 89 54 24 10	 mov	 QWORD PTR [rsp+16], rdx
  0000a	55		 push	 rbp
  0000b	57		 push	 rdi
  0000c	48 83 ec 28	 sub	 rsp, 40			; 00000028H
  00010	48 8b ea	 mov	 rbp, rdx
  00013	48 8d 15 00 00
	00 00		 lea	 rdx, OFFSET FLAT:?nothrow@std@@3Unothrow_t@1@B ; std::nothrow
  0001a	48 8b 4d 28	 mov	 rcx, QWORD PTR $T2[rbp]
  0001e	e8 00 00 00 00	 call	 ??3@YAXPEAXAEBUnothrow_t@std@@@Z ; operator delete
  00023	48 83 c4 28	 add	 rsp, 40			; 00000028H
  00027	5f		 pop	 rdi
  00028	5d		 pop	 rbp
  00029	c3		 ret	 0
?dtor$0@?0???0CCoreList@@QEAA@XZ@4HA ENDP		; `CCoreList::CCoreList'::`1'::dtor$0
text$x	ENDS
; Function compile flags: /Odtp /RTCsu
text$x	SEGMENT
$T1 = 32
$T2 = 40
$T3 = 48
tv82 = 56
this$ = 80
?dtor$0@?0???0CCoreList@@QEAA@XZ@4HA PROC		; `CCoreList::CCoreList'::`1'::dtor$0
  00000	48 89 4c 24 08	 mov	 QWORD PTR [rsp+8], rcx
  00005	48 89 54 24 10	 mov	 QWORD PTR [rsp+16], rdx
  0000a	55		 push	 rbp
  0000b	57		 push	 rdi
  0000c	48 83 ec 28	 sub	 rsp, 40			; 00000028H
  00010	48 8b ea	 mov	 rbp, rdx
  00013	48 8d 15 00 00
	00 00		 lea	 rdx, OFFSET FLAT:?nothrow@std@@3Unothrow_t@1@B ; std::nothrow
  0001a	48 8b 4d 28	 mov	 rcx, QWORD PTR $T2[rbp]
  0001e	e8 00 00 00 00	 call	 ??3@YAXPEAXAEBUnothrow_t@std@@@Z ; operator delete
  00023	48 83 c4 28	 add	 rsp, 40			; 00000028H
  00027	5f		 pop	 rdi
  00028	5d		 pop	 rbp
  00029	c3		 ret	 0
?dtor$0@?0???0CCoreList@@QEAA@XZ@4HA ENDP		; `CCoreList::CCoreList'::`1'::dtor$0
text$x	ENDS
; Function compile flags: /Odtp /RTCsu
;	COMDAT ??_ECComQueueThread@@QEAAPEAXI@Z
_TEXT	SEGMENT
$T1 = 32
this$ = 64
__flags$ = 72
??_ECComQueueThread@@QEAAPEAXI@Z PROC			; CComQueueThread::`vector deleting destructor', COMDAT
$LN6:
  00000	89 54 24 10	 mov	 DWORD PTR [rsp+16], edx
  00004	48 89 4c 24 08	 mov	 QWORD PTR [rsp+8], rcx
  00009	57		 push	 rdi
  0000a	48 83 ec 30	 sub	 rsp, 48			; 00000030H
  0000e	48 8b fc	 mov	 rdi, rsp
  00011	b9 0c 00 00 00	 mov	 ecx, 12
  00016	b8 cc cc cc cc	 mov	 eax, -858993460		; ccccccccH
  0001b	f3 ab		 rep stosd
  0001d	48 8b 4c 24 40	 mov	 rcx, QWORD PTR [rsp+64]
  00022	48 c7 44 24 20
	fe ff ff ff	 mov	 QWORD PTR $T1[rsp], -2
  0002b	8b 44 24 48	 mov	 eax, DWORD PTR __flags$[rsp]
  0002f	83 e0 02	 and	 eax, 2
  00032	85 c0		 test	 eax, eax
  00034	74 59		 je	 SHORT $LN2@vector
  00036	4c 8d 0d 00 00
	00 00		 lea	 r9, OFFSET FLAT:??1CComQueueThread@@QEAA@XZ ; CComQueueThread::~CComQueueThread
  0003d	48 8b 44 24 40	 mov	 rax, QWORD PTR this$[rsp]
  00042	4c 8b 40 f8	 mov	 r8, QWORD PTR [rax-8]
  00046	ba a8 00 00 00	 mov	 edx, 168		; 000000a8H
  0004b	48 8b 4c 24 40	 mov	 rcx, QWORD PTR this$[rsp]
  00050	e8 00 00 00 00	 call	 ??_M@YAXPEAX_K1P6AX0@Z@Z
  00055	90		 npad	 1
  00056	8b 44 24 48	 mov	 eax, DWORD PTR __flags$[rsp]
  0005a	83 e0 01	 and	 eax, 1
  0005d	85 c0		 test	 eax, eax
  0005f	74 23		 je	 SHORT $LN3@vector
  00061	48 8b 44 24 40	 mov	 rax, QWORD PTR this$[rsp]
  00066	48 69 40 f8 a8
	00 00 00	 imul	 rax, QWORD PTR [rax-8], 168 ; 000000a8H
  0006e	48 83 c0 08	 add	 rax, 8
  00072	48 8b 4c 24 40	 mov	 rcx, QWORD PTR this$[rsp]
  00077	48 83 e9 08	 sub	 rcx, 8
  0007b	48 8b d0	 mov	 rdx, rax
  0007e	e8 00 00 00 00	 call	 ??_V@YAXPEAX_K@Z	; operator delete[]
  00083	90		 npad	 1
$LN3@vector:
  00084	48 8b 44 24 40	 mov	 rax, QWORD PTR this$[rsp]
  00089	48 83 e8 08	 sub	 rax, 8
  0008d	eb 2b		 jmp	 SHORT $LN1@vector
$LN2@vector:
  0008f	48 8b 4c 24 40	 mov	 rcx, QWORD PTR this$[rsp]
  00094	e8 00 00 00 00	 call	 ??1CComQueueThread@@QEAA@XZ ; CComQueueThread::~CComQueueThread
  00099	90		 npad	 1
  0009a	8b 44 24 48	 mov	 eax, DWORD PTR __flags$[rsp]
  0009e	83 e0 01	 and	 eax, 1
  000a1	85 c0		 test	 eax, eax
  000a3	74 10		 je	 SHORT $LN4@vector
  000a5	ba a8 00 00 00	 mov	 edx, 168		; 000000a8H
  000aa	48 8b 4c 24 40	 mov	 rcx, QWORD PTR this$[rsp]
  000af	e8 00 00 00 00	 call	 ??3@YAXPEAX_K@Z		; operator delete
  000b4	90		 npad	 1
$LN4@vector:
  000b5	48 8b 44 24 40	 mov	 rax, QWORD PTR this$[rsp]
$LN1@vector:
  000ba	48 83 c4 30	 add	 rsp, 48			; 00000030H
  000be	5f		 pop	 rdi
  000bf	c3		 ret	 0
??_ECComQueueThread@@QEAAPEAXI@Z ENDP			; CComQueueThread::`vector deleting destructor'
_TEXT	ENDS
; Function compile flags: /Odtp /RTCsu
;	COMDAT ??_GCComQueueThread@@QEAAPEAXI@Z
_TEXT	SEGMENT
this$ = 48
__flags$ = 56
??_GCComQueueThread@@QEAAPEAXI@Z PROC			; CComQueueThread::`scalar deleting destructor', COMDAT
$LN4:
  00000	89 54 24 10	 mov	 DWORD PTR [rsp+16], edx
  00004	48 89 4c 24 08	 mov	 QWORD PTR [rsp+8], rcx
  00009	57		 push	 rdi
  0000a	48 83 ec 20	 sub	 rsp, 32			; 00000020H
  0000e	48 8b fc	 mov	 rdi, rsp
  00011	b9 08 00 00 00	 mov	 ecx, 8
  00016	b8 cc cc cc cc	 mov	 eax, -858993460		; ccccccccH
  0001b	f3 ab		 rep stosd
  0001d	48 8b 4c 24 30	 mov	 rcx, QWORD PTR [rsp+48]
  00022	48 8b 4c 24 30	 mov	 rcx, QWORD PTR this$[rsp]
  00027	e8 00 00 00 00	 call	 ??1CComQueueThread@@QEAA@XZ ; CComQueueThread::~CComQueueThread
  0002c	8b 44 24 38	 mov	 eax, DWORD PTR __flags$[rsp]
  00030	83 e0 01	 and	 eax, 1
  00033	85 c0		 test	 eax, eax
  00035	74 0f		 je	 SHORT $LN2@scalar
  00037	ba a8 00 00 00	 mov	 edx, 168		; 000000a8H
  0003c	48 8b 4c 24 30	 mov	 rcx, QWORD PTR this$[rsp]
  00041	e8 00 00 00 00	 call	 ??3@YAXPEAX_K@Z		; operator delete
$LN2@scalar:
  00046	48 8b 44 24 30	 mov	 rax, QWORD PTR this$[rsp]
  0004b	48 83 c4 20	 add	 rsp, 32			; 00000020H
  0004f	5f		 pop	 rdi
  00050	c3		 ret	 0
??_GCComQueueThread@@QEAAPEAXI@Z ENDP			; CComQueueThread::`scalar deleting destructor'
_TEXT	ENDS
; Function compile flags: /Odtp /RTCsu
; File e:\infinia-library-3.0\com\include\comcore.h
;	COMDAT ?getEvent@CComQueueThread@@QEAAPEAUSTEvent@@XZ
_TEXT	SEGMENT
this$ = 48
?getEvent@CComQueueThread@@QEAAPEAUSTEvent@@XZ PROC	; CComQueueThread::getEvent, COMDAT

; 168  : 	STEvent *getEvent() { return (STEvent *)m_sLogQueue.pop(); }

$LN3:
  00000	48 89 4c 24 08	 mov	 QWORD PTR [rsp+8], rcx
  00005	57		 push	 rdi
  00006	48 83 ec 20	 sub	 rsp, 32			; 00000020H
  0000a	48 8b fc	 mov	 rdi, rsp
  0000d	b9 08 00 00 00	 mov	 ecx, 8
  00012	b8 cc cc cc cc	 mov	 eax, -858993460		; ccccccccH
  00017	f3 ab		 rep stosd
  00019	48 8b 4c 24 30	 mov	 rcx, QWORD PTR [rsp+48]
  0001e	48 8b 44 24 30	 mov	 rax, QWORD PTR this$[rsp]
  00023	48 83 c0 48	 add	 rax, 72			; 00000048H
  00027	48 8b c8	 mov	 rcx, rax
  0002a	e8 00 00 00 00	 call	 ?pop@CQueueS@@QEAAPEAXXZ ; CQueueS::pop
  0002f	48 83 c4 20	 add	 rsp, 32			; 00000020H
  00033	5f		 pop	 rdi
  00034	c3		 ret	 0
?getEvent@CComQueueThread@@QEAAPEAUSTEvent@@XZ ENDP	; CComQueueThread::getEvent
_TEXT	ENDS
; Function compile flags: /Odtp /RTCsu
; File e:\infinia-library-3.0\com\include\comcore.h
;	COMDAT ?putQueue@CComQueueThread@@QEAA_NPEAUSTEvent@@@Z
_TEXT	SEGMENT
this$ = 48
p$ = 56
?putQueue@CComQueueThread@@QEAA_NPEAUSTEvent@@@Z PROC	; CComQueueThread::putQueue, COMDAT

; 167  : 	bool putQueue(STEvent *p) { if (m_cThread.bActive()) { m_sLogQueue.push(p); m_cThread.sendSignal(); return true; } return false; }

$LN4:
  00000	48 89 54 24 10	 mov	 QWORD PTR [rsp+16], rdx
  00005	48 89 4c 24 08	 mov	 QWORD PTR [rsp+8], rcx
  0000a	57		 push	 rdi
  0000b	48 83 ec 20	 sub	 rsp, 32			; 00000020H
  0000f	48 8b fc	 mov	 rdi, rsp
  00012	b9 08 00 00 00	 mov	 ecx, 8
  00017	b8 cc cc cc cc	 mov	 eax, -858993460		; ccccccccH
  0001c	f3 ab		 rep stosd
  0001e	48 8b 4c 24 30	 mov	 rcx, QWORD PTR [rsp+48]
  00023	48 8b 44 24 30	 mov	 rax, QWORD PTR this$[rsp]
  00028	48 8b c8	 mov	 rcx, rax
  0002b	e8 00 00 00 00	 call	 ?bActive@CComThread@@QEAA_NXZ ; CComThread::bActive
  00030	0f b6 c0	 movzx	 eax, al
  00033	85 c0		 test	 eax, eax
  00035	74 27		 je	 SHORT $LN2@putQueue
  00037	48 8b 44 24 30	 mov	 rax, QWORD PTR this$[rsp]
  0003c	48 83 c0 48	 add	 rax, 72			; 00000048H
  00040	48 8b 54 24 38	 mov	 rdx, QWORD PTR p$[rsp]
  00045	48 8b c8	 mov	 rcx, rax
  00048	e8 00 00 00 00	 call	 ?push@CQueueS@@QEAA_NPEAX@Z ; CQueueS::push
  0004d	48 8b 44 24 30	 mov	 rax, QWORD PTR this$[rsp]
  00052	48 8b c8	 mov	 rcx, rax
  00055	e8 00 00 00 00	 call	 ?sendSignal@CComThread@@QEAAXXZ ; CComThread::sendSignal
  0005a	b0 01		 mov	 al, 1
  0005c	eb 02		 jmp	 SHORT $LN1@putQueue
$LN2@putQueue:
  0005e	32 c0		 xor	 al, al
$LN1@putQueue:
  00060	48 83 c4 20	 add	 rsp, 32			; 00000020H
  00064	5f		 pop	 rdi
  00065	c3		 ret	 0
?putQueue@CComQueueThread@@QEAA_NPEAUSTEvent@@@Z ENDP	; CComQueueThread::putQueue
_TEXT	ENDS
; Function compile flags: /Odtp /RTCsu
; File e:\infinia-library-3.0\com\src\comcore.cpp
_TEXT	SEGMENT
this$ = 48
?quit@CComQueueThread@@QEAA_NXZ PROC			; CComQueueThread::quit

; 444  : {

$LN3:
  00000	48 89 4c 24 08	 mov	 QWORD PTR [rsp+8], rcx
  00005	57		 push	 rdi
  00006	48 83 ec 20	 sub	 rsp, 32			; 00000020H
  0000a	48 8b fc	 mov	 rdi, rsp
  0000d	b9 08 00 00 00	 mov	 ecx, 8
  00012	b8 cc cc cc cc	 mov	 eax, -858993460		; ccccccccH
  00017	f3 ab		 rep stosd
  00019	48 8b 4c 24 30	 mov	 rcx, QWORD PTR [rsp+48]

; 445  : 	m_cThread.quit();

  0001e	48 8b 44 24 30	 mov	 rax, QWORD PTR this$[rsp]
  00023	48 8b c8	 mov	 rcx, rax
  00026	e8 00 00 00 00	 call	 ?quit@CComThread@@QEAA_NXZ ; CComThread::quit

; 446  : 	return true;

  0002b	b0 01		 mov	 al, 1

; 447  : }

  0002d	48 83 c4 20	 add	 rsp, 32			; 00000020H
  00031	5f		 pop	 rdi
  00032	c3		 ret	 0
?quit@CComQueueThread@@QEAA_NXZ ENDP			; CComQueueThread::quit
_TEXT	ENDS
; Function compile flags: /Odtp /RTCsu
; File e:\infinia-library-3.0\com\src\comcore.cpp
_TEXT	SEGMENT
this$ = 64
?start@CComQueueThread@@QEAA_NXZ PROC			; CComQueueThread::start

; 430  : {

$LN6:
  00000	48 89 4c 24 08	 mov	 QWORD PTR [rsp+8], rcx
  00005	57		 push	 rdi
  00006	48 83 ec 30	 sub	 rsp, 48			; 00000030H
  0000a	48 8b fc	 mov	 rdi, rsp
  0000d	b9 0c 00 00 00	 mov	 ecx, 12
  00012	b8 cc cc cc cc	 mov	 eax, -858993460		; ccccccccH
  00017	f3 ab		 rep stosd
  00019	48 8b 4c 24 40	 mov	 rcx, QWORD PTR [rsp+64]

; 431  : 	if (m_cThread.bActive()) return true;

  0001e	48 8b 44 24 40	 mov	 rax, QWORD PTR this$[rsp]
  00023	48 8b c8	 mov	 rcx, rax
  00026	e8 00 00 00 00	 call	 ?bActive@CComThread@@QEAA_NXZ ; CComThread::bActive
  0002b	0f b6 c0	 movzx	 eax, al
  0002e	85 c0		 test	 eax, eax
  00030	74 04		 je	 SHORT $LN2@start
  00032	b0 01		 mov	 al, 1
  00034	eb 7f		 jmp	 SHORT $LN1@start
$LN2@start:

; 432  : 	if (!m_cThread.init(eventThreadLoop, this, INFINITE)) {

  00036	48 8b 44 24 40	 mov	 rax, QWORD PTR this$[rsp]
  0003b	48 c7 44 24 20
	00 00 00 00	 mov	 QWORD PTR [rsp+32], 0
  00044	41 b9 ff ff ff
	ff		 mov	 r9d, -1
  0004a	4c 8b 44 24 40	 mov	 r8, QWORD PTR this$[rsp]
  0004f	48 8d 15 00 00
	00 00		 lea	 rdx, OFFSET FLAT:?eventThreadLoop@@YAXPEAUSTThreadInfo@@@Z ; eventThreadLoop
  00056	48 8b c8	 mov	 rcx, rax
  00059	e8 00 00 00 00	 call	 ?init@CComThread@@QEAA_NP6AXPEAUSTThreadInfo@@@ZPEAXH2@Z ; CComThread::init
  0005e	0f b6 c0	 movzx	 eax, al
  00061	85 c0		 test	 eax, eax
  00063	75 1d		 jne	 SHORT $LN3@start

; 433  : 		comErrorPrint("m_cThread.init");

  00065	41 b8 b1 01 00
	00		 mov	 r8d, 433		; 000001b1H
  0006b	48 8d 15 00 00
	00 00		 lea	 rdx, OFFSET FLAT:$SG45591
  00072	48 8d 0d 00 00
	00 00		 lea	 rcx, OFFSET FLAT:$SG45592
  00079	e8 00 00 00 00	 call	 ?comGlobalErrorProc@@YAXPEADPEBDH@Z ; comGlobalErrorProc

; 434  : 		return false;

  0007e	32 c0		 xor	 al, al
  00080	eb 33		 jmp	 SHORT $LN1@start
$LN3@start:

; 435  : 	}
; 436  : 	if (!m_cThread.start()) {

  00082	48 8b 44 24 40	 mov	 rax, QWORD PTR this$[rsp]
  00087	48 8b c8	 mov	 rcx, rax
  0008a	e8 00 00 00 00	 call	 ?start@CComThread@@QEAA_NXZ ; CComThread::start
  0008f	0f b6 c0	 movzx	 eax, al
  00092	85 c0		 test	 eax, eax
  00094	75 1d		 jne	 SHORT $LN4@start

; 437  : 		comErrorPrint("m_cThread.start");

  00096	41 b8 b5 01 00
	00		 mov	 r8d, 437		; 000001b5H
  0009c	48 8d 15 00 00
	00 00		 lea	 rdx, OFFSET FLAT:$SG45594
  000a3	48 8d 0d 00 00
	00 00		 lea	 rcx, OFFSET FLAT:$SG45595
  000aa	e8 00 00 00 00	 call	 ?comGlobalErrorProc@@YAXPEADPEBDH@Z ; comGlobalErrorProc

; 438  : 		return false;

  000af	32 c0		 xor	 al, al
  000b1	eb 02		 jmp	 SHORT $LN1@start
$LN4@start:

; 439  : 	}
; 440  : 	return true;

  000b3	b0 01		 mov	 al, 1
$LN1@start:

; 441  : }

  000b5	48 83 c4 30	 add	 rsp, 48			; 00000030H
  000b9	5f		 pop	 rdi
  000ba	c3		 ret	 0
?start@CComQueueThread@@QEAA_NXZ ENDP			; CComQueueThread::start
_TEXT	ENDS
; Function compile flags: /Odtp /RTCsu
; File e:\infinia-library-3.0\com\src\comcore.cpp
_TEXT	SEGMENT
this$ = 48
nCount$ = 56
nIdx$ = 64
?init@CComQueueThread@@QEAA_NHH@Z PROC			; CComQueueThread::init

; 422  : {

$LN4:
  00000	44 89 44 24 18	 mov	 DWORD PTR [rsp+24], r8d
  00005	89 54 24 10	 mov	 DWORD PTR [rsp+16], edx
  00009	48 89 4c 24 08	 mov	 QWORD PTR [rsp+8], rcx
  0000e	57		 push	 rdi
  0000f	48 83 ec 20	 sub	 rsp, 32			; 00000020H
  00013	48 8b fc	 mov	 rdi, rsp
  00016	b9 08 00 00 00	 mov	 ecx, 8
  0001b	b8 cc cc cc cc	 mov	 eax, -858993460		; ccccccccH
  00020	f3 ab		 rep stosd
  00022	48 8b 4c 24 30	 mov	 rcx, QWORD PTR [rsp+48]

; 423  : 	if (!m_sLogQueue.alloc(nCount, eAlloc_Type_none)) { printf("has Failed!! m_sLogQueue.alloc(%d)\n", nCount); return false; }

  00027	48 8b 44 24 30	 mov	 rax, QWORD PTR this$[rsp]
  0002c	48 83 c0 48	 add	 rax, 72			; 00000048H
  00030	45 33 c0	 xor	 r8d, r8d
  00033	8b 54 24 38	 mov	 edx, DWORD PTR nCount$[rsp]
  00037	48 8b c8	 mov	 rcx, rax
  0003a	e8 00 00 00 00	 call	 ?alloc@CQueueS@@QEAA_NHW4E_ALLOC_TYPE@@@Z ; CQueueS::alloc
  0003f	0f b6 c0	 movzx	 eax, al
  00042	85 c0		 test	 eax, eax
  00044	75 14		 jne	 SHORT $LN2@init
  00046	8b 54 24 38	 mov	 edx, DWORD PTR nCount$[rsp]
  0004a	48 8d 0d 00 00
	00 00		 lea	 rcx, OFFSET FLAT:$SG45585
  00051	e8 00 00 00 00	 call	 printf
  00056	32 c0		 xor	 al, al
  00058	eb 13		 jmp	 SHORT $LN1@init
$LN2@init:

; 424  : 	m_cThread.setIdx(nIdx);

  0005a	48 8b 44 24 30	 mov	 rax, QWORD PTR this$[rsp]
  0005f	8b 54 24 40	 mov	 edx, DWORD PTR nIdx$[rsp]
  00063	48 8b c8	 mov	 rcx, rax
  00066	e8 00 00 00 00	 call	 ?setIdx@CComThread@@QEAAXH@Z ; CComThread::setIdx

; 425  : 	return true;

  0006b	b0 01		 mov	 al, 1
$LN1@init:

; 426  : }

  0006d	48 83 c4 20	 add	 rsp, 32			; 00000020H
  00071	5f		 pop	 rdi
  00072	c3		 ret	 0
?init@CComQueueThread@@QEAA_NHH@Z ENDP			; CComQueueThread::init
_TEXT	ENDS
; Function compile flags: /Odtp /RTCsu
; File e:\infinia-library-3.0\com\src\comcore.cpp
_TEXT	SEGMENT
szSect$ = 40
nCount$ = 68
__$ArrayPad$ = 80
this$ = 112
pConfigFile$ = 120
seq$ = 128
pSection$ = 136
?initConfig@CComQueueThread@@QEAA_NPEADH0@Z PROC	; CComQueueThread::initConfig

; 410  : {

$LN4:
  00000	4c 89 4c 24 20	 mov	 QWORD PTR [rsp+32], r9
  00005	44 89 44 24 18	 mov	 DWORD PTR [rsp+24], r8d
  0000a	48 89 54 24 10	 mov	 QWORD PTR [rsp+16], rdx
  0000f	48 89 4c 24 08	 mov	 QWORD PTR [rsp+8], rcx
  00014	57		 push	 rdi
  00015	48 83 ec 60	 sub	 rsp, 96			; 00000060H
  00019	48 8b fc	 mov	 rdi, rsp
  0001c	b9 18 00 00 00	 mov	 ecx, 24
  00021	b8 cc cc cc cc	 mov	 eax, -858993460		; ccccccccH
  00026	f3 ab		 rep stosd
  00028	48 8b 4c 24 70	 mov	 rcx, QWORD PTR [rsp+112]
  0002d	48 8b 05 00 00
	00 00		 mov	 rax, QWORD PTR __security_cookie
  00034	48 33 c4	 xor	 rax, rsp
  00037	48 89 44 24 50	 mov	 QWORD PTR __$ArrayPad$[rsp], rax

; 411  : 	TCHAR szSect[24];
; 412  : 	int nCount;
; 413  : 
; 414  : 	_stprintf(szSect, _T("%s_%d"), pSection, seq);

  0003c	44 8b 8c 24 80
	00 00 00	 mov	 r9d, DWORD PTR seq$[rsp]
  00044	4c 8b 84 24 88
	00 00 00	 mov	 r8, QWORD PTR pSection$[rsp]
  0004c	48 8d 15 00 00
	00 00		 lea	 rdx, OFFSET FLAT:$SG45575
  00053	48 8d 4c 24 28	 lea	 rcx, QWORD PTR szSect$[rsp]
  00058	e8 00 00 00 00	 call	 sprintf

; 415  : 	nCount = GetPrivateProfileInt(szSect, _T("LIST_COUNT"), 20, pConfigFile) + LIST_ADD_COUNT;

  0005d	4c 8b 4c 24 78	 mov	 r9, QWORD PTR pConfigFile$[rsp]
  00062	41 b8 14 00 00
	00		 mov	 r8d, 20
  00068	48 8d 15 00 00
	00 00		 lea	 rdx, OFFSET FLAT:$SG45576
  0006f	48 8d 4c 24 28	 lea	 rcx, QWORD PTR szSect$[rsp]
  00074	ff 15 00 00 00
	00		 call	 QWORD PTR __imp_GetPrivateProfileIntA
  0007a	83 c0 0a	 add	 eax, 10
  0007d	89 44 24 44	 mov	 DWORD PTR nCount$[rsp], eax

; 416  : 
; 417  : 	if (!m_sLogQueue.alloc(nCount, eAlloc_Type_none)) { printf("has Failed!! m_sLogQueue.alloc(%d)\n", nCount); return false; }

  00081	48 8b 44 24 70	 mov	 rax, QWORD PTR this$[rsp]
  00086	48 83 c0 48	 add	 rax, 72			; 00000048H
  0008a	45 33 c0	 xor	 r8d, r8d
  0008d	8b 54 24 44	 mov	 edx, DWORD PTR nCount$[rsp]
  00091	48 8b c8	 mov	 rcx, rax
  00094	e8 00 00 00 00	 call	 ?alloc@CQueueS@@QEAA_NHW4E_ALLOC_TYPE@@@Z ; CQueueS::alloc
  00099	0f b6 c0	 movzx	 eax, al
  0009c	85 c0		 test	 eax, eax
  0009e	75 14		 jne	 SHORT $LN2@initConfig
  000a0	8b 54 24 44	 mov	 edx, DWORD PTR nCount$[rsp]
  000a4	48 8d 0d 00 00
	00 00		 lea	 rcx, OFFSET FLAT:$SG45578
  000ab	e8 00 00 00 00	 call	 printf
  000b0	32 c0		 xor	 al, al
  000b2	eb 02		 jmp	 SHORT $LN1@initConfig
$LN2@initConfig:

; 418  : 	return true;

  000b4	b0 01		 mov	 al, 1
$LN1@initConfig:

; 419  : }

  000b6	48 8b f8	 mov	 rdi, rax
  000b9	48 8b cc	 mov	 rcx, rsp
  000bc	48 8d 15 00 00
	00 00		 lea	 rdx, OFFSET FLAT:?initConfig@CComQueueThread@@QEAA_NPEADH0@Z$rtcFrameData
  000c3	e8 00 00 00 00	 call	 _RTC_CheckStackVars
  000c8	48 8b c7	 mov	 rax, rdi
  000cb	48 8b 4c 24 50	 mov	 rcx, QWORD PTR __$ArrayPad$[rsp]
  000d0	48 33 cc	 xor	 rcx, rsp
  000d3	e8 00 00 00 00	 call	 __security_check_cookie
  000d8	48 83 c4 60	 add	 rsp, 96			; 00000060H
  000dc	5f		 pop	 rdi
  000dd	c3		 ret	 0
?initConfig@CComQueueThread@@QEAA_NPEADH0@Z ENDP	; CComQueueThread::initConfig
_TEXT	ENDS
; Function compile flags: /Odtp /RTCsu
; File e:\infinia-library-3.0\com\src\comcore.cpp
_TEXT	SEGMENT
$T1 = 32
this$ = 64
??1CComQueueThread@@QEAA@XZ PROC			; CComQueueThread::~CComQueueThread

; 405  : {

$LN3:
  00000	48 89 4c 24 08	 mov	 QWORD PTR [rsp+8], rcx
  00005	57		 push	 rdi
  00006	48 83 ec 30	 sub	 rsp, 48			; 00000030H
  0000a	48 8b fc	 mov	 rdi, rsp
  0000d	b9 0c 00 00 00	 mov	 ecx, 12
  00012	b8 cc cc cc cc	 mov	 eax, -858993460		; ccccccccH
  00017	f3 ab		 rep stosd
  00019	48 8b 4c 24 40	 mov	 rcx, QWORD PTR [rsp+64]
  0001e	48 c7 44 24 20
	fe ff ff ff	 mov	 QWORD PTR $T1[rsp], -2

; 406  : 	quit();

  00027	48 8b 4c 24 40	 mov	 rcx, QWORD PTR this$[rsp]
  0002c	e8 00 00 00 00	 call	 ?quit@CComQueueThread@@QEAA_NXZ ; CComQueueThread::quit
  00031	90		 npad	 1

; 407  : }

  00032	48 8b 44 24 40	 mov	 rax, QWORD PTR this$[rsp]
  00037	48 83 c0 48	 add	 rax, 72			; 00000048H
  0003b	48 8b c8	 mov	 rcx, rax
  0003e	e8 00 00 00 00	 call	 ??1CQueueS@@QEAA@XZ	; CQueueS::~CQueueS
  00043	90		 npad	 1
  00044	48 8b 44 24 40	 mov	 rax, QWORD PTR this$[rsp]
  00049	48 8b c8	 mov	 rcx, rax
  0004c	e8 00 00 00 00	 call	 ??1CComThread@@QEAA@XZ	; CComThread::~CComThread
  00051	90		 npad	 1
  00052	48 83 c4 30	 add	 rsp, 48			; 00000030H
  00056	5f		 pop	 rdi
  00057	c3		 ret	 0
??1CComQueueThread@@QEAA@XZ ENDP			; CComQueueThread::~CComQueueThread
_TEXT	ENDS
; Function compile flags: /Odtp /RTCsu
; File e:\infinia-library-3.0\com\src\comcore.cpp
_TEXT	SEGMENT
$T1 = 32
this$ = 64
??0CComQueueThread@@QEAA@XZ PROC			; CComQueueThread::CComQueueThread

; 401  : {

$LN5:
  00000	48 89 4c 24 08	 mov	 QWORD PTR [rsp+8], rcx
  00005	57		 push	 rdi
  00006	48 83 ec 30	 sub	 rsp, 48			; 00000030H
  0000a	48 8b fc	 mov	 rdi, rsp
  0000d	b9 0c 00 00 00	 mov	 ecx, 12
  00012	b8 cc cc cc cc	 mov	 eax, -858993460		; ccccccccH
  00017	f3 ab		 rep stosd
  00019	48 8b 4c 24 40	 mov	 rcx, QWORD PTR [rsp+64]
  0001e	48 c7 44 24 20
	fe ff ff ff	 mov	 QWORD PTR $T1[rsp], -2
  00027	48 8b 44 24 40	 mov	 rax, QWORD PTR this$[rsp]
  0002c	48 8b c8	 mov	 rcx, rax
  0002f	e8 00 00 00 00	 call	 ??0CComThread@@QEAA@XZ	; CComThread::CComThread
  00034	90		 npad	 1
  00035	48 8b 44 24 40	 mov	 rax, QWORD PTR this$[rsp]
  0003a	48 83 c0 48	 add	 rax, 72			; 00000048H
  0003e	48 8b c8	 mov	 rcx, rax
  00041	e8 00 00 00 00	 call	 ??0CQueueS@@QEAA@XZ	; CQueueS::CQueueS
  00046	90		 npad	 1

; 402  : 
; 403  : }

  00047	48 8b 44 24 40	 mov	 rax, QWORD PTR this$[rsp]
  0004c	48 83 c4 30	 add	 rsp, 48			; 00000030H
  00050	5f		 pop	 rdi
  00051	c3		 ret	 0
??0CComQueueThread@@QEAA@XZ ENDP			; CComQueueThread::CComQueueThread
_TEXT	ENDS
text$x	SEGMENT
$T1 = 32
this$ = 64
?dtor$0@?0???0CComQueueThread@@QEAA@XZ@4HA PROC		; `CComQueueThread::CComQueueThread'::`1'::dtor$0
  00000	48 89 4c 24 08	 mov	 QWORD PTR [rsp+8], rcx
  00005	48 89 54 24 10	 mov	 QWORD PTR [rsp+16], rdx
  0000a	55		 push	 rbp
  0000b	57		 push	 rdi
  0000c	48 83 ec 28	 sub	 rsp, 40			; 00000028H
  00010	48 8b ea	 mov	 rbp, rdx
  00013	48 8b 4d 40	 mov	 rcx, QWORD PTR this$[rbp]
  00017	e8 00 00 00 00	 call	 ??1CComThread@@QEAA@XZ	; CComThread::~CComThread
  0001c	48 83 c4 28	 add	 rsp, 40			; 00000028H
  00020	5f		 pop	 rdi
  00021	5d		 pop	 rbp
  00022	c3		 ret	 0
?dtor$0@?0???0CComQueueThread@@QEAA@XZ@4HA ENDP		; `CComQueueThread::CComQueueThread'::`1'::dtor$0
text$x	ENDS
; Function compile flags: /Odtp /RTCsu
text$x	SEGMENT
$T1 = 32
this$ = 64
?dtor$0@?0???0CComQueueThread@@QEAA@XZ@4HA PROC		; `CComQueueThread::CComQueueThread'::`1'::dtor$0
  00000	48 89 4c 24 08	 mov	 QWORD PTR [rsp+8], rcx
  00005	48 89 54 24 10	 mov	 QWORD PTR [rsp+16], rdx
  0000a	55		 push	 rbp
  0000b	57		 push	 rdi
  0000c	48 83 ec 28	 sub	 rsp, 40			; 00000028H
  00010	48 8b ea	 mov	 rbp, rdx
  00013	48 8b 4d 40	 mov	 rcx, QWORD PTR this$[rbp]
  00017	e8 00 00 00 00	 call	 ??1CComThread@@QEAA@XZ	; CComThread::~CComThread
  0001c	48 83 c4 28	 add	 rsp, 40			; 00000028H
  00020	5f		 pop	 rdi
  00021	5d		 pop	 rbp
  00022	c3		 ret	 0
?dtor$0@?0???0CComQueueThread@@QEAA@XZ@4HA ENDP		; `CComQueueThread::CComQueueThread'::`1'::dtor$0
text$x	ENDS
; Function compile flags: /Odtp /RTCsu
; File e:\infinia-library-3.0\com\src\comcore.cpp
_TEXT	SEGMENT
pBasic$ = 32
pEvent$ = 40
p$ = 64
?eventThreadLoop@@YAXPEAUSTThreadInfo@@@Z PROC		; eventThreadLoop

; 451  : {

$LN5:
  00000	48 89 4c 24 08	 mov	 QWORD PTR [rsp+8], rcx
  00005	57		 push	 rdi
  00006	48 83 ec 30	 sub	 rsp, 48			; 00000030H
  0000a	48 8b fc	 mov	 rdi, rsp
  0000d	b9 0c 00 00 00	 mov	 ecx, 12
  00012	b8 cc cc cc cc	 mov	 eax, -858993460		; ccccccccH
  00017	f3 ab		 rep stosd
  00019	48 8b 4c 24 40	 mov	 rcx, QWORD PTR [rsp+64]

; 452  : 	CComQueueThread *pBasic = (CComQueueThread *)p->pClass;

  0001e	48 8b 44 24 40	 mov	 rax, QWORD PTR p$[rsp]
  00023	48 8b 40 18	 mov	 rax, QWORD PTR [rax+24]
  00027	48 89 44 24 20	 mov	 QWORD PTR pBasic$[rsp], rax

; 453  : 	STEvent *pEvent = pBasic->getEvent();

  0002c	48 8b 4c 24 20	 mov	 rcx, QWORD PTR pBasic$[rsp]
  00031	e8 00 00 00 00	 call	 ?getEvent@CComQueueThread@@QEAAPEAUSTEvent@@XZ ; CComQueueThread::getEvent
  00036	48 89 44 24 28	 mov	 QWORD PTR pEvent$[rsp], rax
$LN2@eventThrea:

; 454  : 	while (pEvent)

  0003b	48 83 7c 24 28
	00		 cmp	 QWORD PTR pEvent$[rsp], 0
  00041	74 45		 je	 SHORT $LN3@eventThrea

; 455  : 	{
; 456  : 		pEvent->fpProc(pEvent->pObj, pEvent->pObj2, pEvent->nValue);

  00043	48 8b 44 24 28	 mov	 rax, QWORD PTR pEvent$[rsp]
  00048	44 8b 40 04	 mov	 r8d, DWORD PTR [rax+4]
  0004c	48 8b 44 24 28	 mov	 rax, QWORD PTR pEvent$[rsp]
  00051	48 8b 50 10	 mov	 rdx, QWORD PTR [rax+16]
  00055	48 8b 44 24 28	 mov	 rax, QWORD PTR pEvent$[rsp]
  0005a	48 8b 48 08	 mov	 rcx, QWORD PTR [rax+8]
  0005e	48 8b 44 24 28	 mov	 rax, QWORD PTR pEvent$[rsp]
  00063	ff 50 18	 call	 QWORD PTR [rax+24]

; 457  : 		gs_pCore->delEvent(pEvent);

  00066	48 8b 54 24 28	 mov	 rdx, QWORD PTR pEvent$[rsp]
  0006b	48 8b 0d 00 00
	00 00		 mov	 rcx, QWORD PTR ?gs_pCore@@3PEAVCCoreList@@EA ; gs_pCore
  00072	e8 00 00 00 00	 call	 ?delEvent@CCoreList@@QEAA_NPEAUSTEvent@@@Z ; CCoreList::delEvent

; 458  : 		pEvent = pBasic->getEvent();

  00077	48 8b 4c 24 20	 mov	 rcx, QWORD PTR pBasic$[rsp]
  0007c	e8 00 00 00 00	 call	 ?getEvent@CComQueueThread@@QEAAPEAUSTEvent@@XZ ; CComQueueThread::getEvent
  00081	48 89 44 24 28	 mov	 QWORD PTR pEvent$[rsp], rax

; 459  : 	}

  00086	eb b3		 jmp	 SHORT $LN2@eventThrea
$LN3@eventThrea:

; 460  : }

  00088	48 83 c4 30	 add	 rsp, 48			; 00000030H
  0008c	5f		 pop	 rdi
  0008d	c3		 ret	 0
?eventThreadLoop@@YAXPEAUSTThreadInfo@@@Z ENDP		; eventThreadLoop
_TEXT	ENDS
; Function compile flags: /Odtp /RTCsu
;	COMDAT ??_G?$CMemList@USTIntervalInfo@@@@QEAAPEAXI@Z
_TEXT	SEGMENT
this$ = 48
__flags$ = 56
??_G?$CMemList@USTIntervalInfo@@@@QEAAPEAXI@Z PROC	; CMemList<STIntervalInfo>::`scalar deleting destructor', COMDAT
$LN4:
  00000	89 54 24 10	 mov	 DWORD PTR [rsp+16], edx
  00004	48 89 4c 24 08	 mov	 QWORD PTR [rsp+8], rcx
  00009	57		 push	 rdi
  0000a	48 83 ec 20	 sub	 rsp, 32			; 00000020H
  0000e	48 8b fc	 mov	 rdi, rsp
  00011	b9 08 00 00 00	 mov	 ecx, 8
  00016	b8 cc cc cc cc	 mov	 eax, -858993460		; ccccccccH
  0001b	f3 ab		 rep stosd
  0001d	48 8b 4c 24 30	 mov	 rcx, QWORD PTR [rsp+48]
  00022	48 8b 4c 24 30	 mov	 rcx, QWORD PTR this$[rsp]
  00027	e8 00 00 00 00	 call	 ??1?$CMemList@USTIntervalInfo@@@@QEAA@XZ ; CMemList<STIntervalInfo>::~CMemList<STIntervalInfo>
  0002c	8b 44 24 38	 mov	 eax, DWORD PTR __flags$[rsp]
  00030	83 e0 01	 and	 eax, 1
  00033	85 c0		 test	 eax, eax
  00035	74 0f		 je	 SHORT $LN2@scalar
  00037	ba 30 00 00 00	 mov	 edx, 48			; 00000030H
  0003c	48 8b 4c 24 30	 mov	 rcx, QWORD PTR this$[rsp]
  00041	e8 00 00 00 00	 call	 ??3@YAXPEAX_K@Z		; operator delete
$LN2@scalar:
  00046	48 8b 44 24 30	 mov	 rax, QWORD PTR this$[rsp]
  0004b	48 83 c4 20	 add	 rsp, 32			; 00000020H
  0004f	5f		 pop	 rdi
  00050	c3		 ret	 0
??_G?$CMemList@USTIntervalInfo@@@@QEAAPEAXI@Z ENDP	; CMemList<STIntervalInfo>::`scalar deleting destructor'
_TEXT	ENDS
; Function compile flags: /Odtp /RTCsu
;	COMDAT ?__autoclassinit2@?$CMemList@USTIntervalInfo@@@@QEAAX_K@Z
_TEXT	SEGMENT
this$ = 16
classSize$ = 24
?__autoclassinit2@?$CMemList@USTIntervalInfo@@@@QEAAX_K@Z PROC ; CMemList<STIntervalInfo>::__autoclassinit2, COMDAT
$LN3:
  00000	48 89 54 24 10	 mov	 QWORD PTR [rsp+16], rdx
  00005	48 89 4c 24 08	 mov	 QWORD PTR [rsp+8], rcx
  0000a	57		 push	 rdi
  0000b	48 8b 7c 24 10	 mov	 rdi, QWORD PTR this$[rsp]
  00010	33 c0		 xor	 eax, eax
  00012	48 8b 4c 24 18	 mov	 rcx, QWORD PTR classSize$[rsp]
  00017	f3 aa		 rep stosb
  00019	5f		 pop	 rdi
  0001a	c3		 ret	 0
?__autoclassinit2@?$CMemList@USTIntervalInfo@@@@QEAAX_K@Z ENDP ; CMemList<STIntervalInfo>::__autoclassinit2
_TEXT	ENDS
; Function compile flags: /Odtp /RTCsu
; File e:\infinia-library-3.0\com\include\comtlist.h
;	COMDAT ?_del@?$CMemList@USTIntervalInfo@@@@AEAAXH@Z
_TEXT	SEGMENT
this$ = 48
i$ = 56
?_del@?$CMemList@USTIntervalInfo@@@@AEAAXH@Z PROC	; CMemList<STIntervalInfo>::_del, COMDAT

; 283  : {

$LN6:
  00000	89 54 24 10	 mov	 DWORD PTR [rsp+16], edx
  00004	48 89 4c 24 08	 mov	 QWORD PTR [rsp+8], rcx
  00009	57		 push	 rdi
  0000a	48 83 ec 20	 sub	 rsp, 32			; 00000020H
  0000e	48 8b fc	 mov	 rdi, rsp
  00011	b9 08 00 00 00	 mov	 ecx, 8
  00016	b8 cc cc cc cc	 mov	 eax, -858993460		; ccccccccH
  0001b	f3 ab		 rep stosd
  0001d	48 8b 4c 24 30	 mov	 rcx, QWORD PTR [rsp+48]

; 284  : 	m_nCurCount.atomic_decrement();

  00022	48 8b 44 24 30	 mov	 rax, QWORD PTR this$[rsp]
  00027	48 83 c0 10	 add	 rax, 16
  0002b	48 8b c8	 mov	 rcx, rax
  0002e	e8 00 00 00 00	 call	 ?atomic_decrement@win64_atomic@win32@common@@QEAA_JXZ ; common::win32::win64_atomic::atomic_decrement

; 285  : 	m_nFlagArray[i].setCount(0);

  00033	48 63 44 24 38	 movsxd	 rax, DWORD PTR i$[rsp]
  00038	48 8b 4c 24 30	 mov	 rcx, QWORD PTR this$[rsp]
  0003d	48 8b 49 08	 mov	 rcx, QWORD PTR [rcx+8]
  00041	48 8d 04 c1	 lea	 rax, QWORD PTR [rcx+rax*8]
  00045	33 d2		 xor	 edx, edx
  00047	48 8b c8	 mov	 rcx, rax
  0004a	e8 00 00 00 00	 call	 ?setCount@win64_atomic@win32@common@@QEAAXH@Z ; common::win32::win64_atomic::setCount

; 286  : 	if(m_nEmptyFirstIdx < 0) m_nEmptyFirstIdx = i;

  0004f	48 8b 44 24 30	 mov	 rax, QWORD PTR this$[rsp]
  00054	83 78 18 00	 cmp	 DWORD PTR [rax+24], 0
  00058	7d 0e		 jge	 SHORT $LN2@del
  0005a	48 8b 44 24 30	 mov	 rax, QWORD PTR this$[rsp]
  0005f	8b 4c 24 38	 mov	 ecx, DWORD PTR i$[rsp]
  00063	89 48 18	 mov	 DWORD PTR [rax+24], ecx
  00066	eb 1a		 jmp	 SHORT $LN3@del
$LN2@del:

; 287  : 	else if (i < m_nEmptyFirstIdx) m_nEmptyFirstIdx = i;

  00068	48 8b 44 24 30	 mov	 rax, QWORD PTR this$[rsp]
  0006d	8b 40 18	 mov	 eax, DWORD PTR [rax+24]
  00070	39 44 24 38	 cmp	 DWORD PTR i$[rsp], eax
  00074	7d 0c		 jge	 SHORT $LN4@del
  00076	48 8b 44 24 30	 mov	 rax, QWORD PTR this$[rsp]
  0007b	8b 4c 24 38	 mov	 ecx, DWORD PTR i$[rsp]
  0007f	89 48 18	 mov	 DWORD PTR [rax+24], ecx
$LN4@del:
$LN3@del:

; 288  : }

  00082	48 83 c4 20	 add	 rsp, 32			; 00000020H
  00086	5f		 pop	 rdi
  00087	c3		 ret	 0
?_del@?$CMemList@USTIntervalInfo@@@@AEAAXH@Z ENDP	; CMemList<STIntervalInfo>::_del
_TEXT	ENDS
; Function compile flags: /Odtp /RTCsu
; File e:\infinia-library-3.0\com\include\comtlist.h
;	COMDAT ?del@?$CMemList@USTIntervalInfo@@@@QEAA_NPEAUSTIntervalInfo@@@Z
_TEXT	SEGMENT
i$ = 32
this$ = 64
Obj$ = 72
?del@?$CMemList@USTIntervalInfo@@@@QEAA_NPEAUSTIntervalInfo@@@Z PROC ; CMemList<STIntervalInfo>::del, COMDAT

; 268  : {

$LN7:
  00000	48 89 54 24 10	 mov	 QWORD PTR [rsp+16], rdx
  00005	48 89 4c 24 08	 mov	 QWORD PTR [rsp+8], rcx
  0000a	57		 push	 rdi
  0000b	48 83 ec 30	 sub	 rsp, 48			; 00000030H
  0000f	48 8b fc	 mov	 rdi, rsp
  00012	b9 0c 00 00 00	 mov	 ecx, 12
  00017	b8 cc cc cc cc	 mov	 eax, -858993460		; ccccccccH
  0001c	f3 ab		 rep stosd
  0001e	48 8b 4c 24 40	 mov	 rcx, QWORD PTR [rsp+64]

; 269  : 	int i;
; 270  : 	for (i = 0; i < m_nMaxCount; i++)

  00023	c7 44 24 20 00
	00 00 00	 mov	 DWORD PTR i$[rsp], 0
  0002b	eb 0a		 jmp	 SHORT $LN4@del
$LN2@del:
  0002d	8b 44 24 20	 mov	 eax, DWORD PTR i$[rsp]
  00031	ff c0		 inc	 eax
  00033	89 44 24 20	 mov	 DWORD PTR i$[rsp], eax
$LN4@del:
  00037	48 8b 44 24 40	 mov	 rax, QWORD PTR this$[rsp]
  0003c	8b 40 1c	 mov	 eax, DWORD PTR [rax+28]
  0003f	39 44 24 20	 cmp	 DWORD PTR i$[rsp], eax
  00043	7d 2c		 jge	 SHORT $LN3@del

; 271  : 	{
; 272  : 		if (m_pArray[i] == Obj) {

  00045	48 63 44 24 20	 movsxd	 rax, DWORD PTR i$[rsp]
  0004a	48 8b 4c 24 40	 mov	 rcx, QWORD PTR this$[rsp]
  0004f	48 8b 09	 mov	 rcx, QWORD PTR [rcx]
  00052	48 8b 54 24 48	 mov	 rdx, QWORD PTR Obj$[rsp]
  00057	48 39 14 c1	 cmp	 QWORD PTR [rcx+rax*8], rdx
  0005b	75 12		 jne	 SHORT $LN5@del

; 273  : 			_del(i);

  0005d	8b 54 24 20	 mov	 edx, DWORD PTR i$[rsp]
  00061	48 8b 4c 24 40	 mov	 rcx, QWORD PTR this$[rsp]
  00066	e8 00 00 00 00	 call	 ?_del@?$CMemList@USTIntervalInfo@@@@AEAAXH@Z ; CMemList<STIntervalInfo>::_del

; 274  : 			return true;

  0006b	b0 01		 mov	 al, 1
  0006d	eb 1d		 jmp	 SHORT $LN1@del
$LN5@del:

; 275  : 		}
; 276  : 	}

  0006f	eb bc		 jmp	 SHORT $LN2@del
$LN3@del:

; 277  : 	comErrorPrint("can't find obj");

  00071	41 b8 15 01 00
	00		 mov	 r8d, 277		; 00000115H
  00077	48 8d 15 00 00
	00 00		 lea	 rdx, OFFSET FLAT:$SG46868
  0007e	48 8d 0d 00 00
	00 00		 lea	 rcx, OFFSET FLAT:$SG46869
  00085	e8 00 00 00 00	 call	 ?comGlobalErrorProc@@YAXPEADPEBDH@Z ; comGlobalErrorProc

; 278  : 	return false;

  0008a	32 c0		 xor	 al, al
$LN1@del:

; 279  : }

  0008c	48 83 c4 30	 add	 rsp, 48			; 00000030H
  00090	5f		 pop	 rdi
  00091	c3		 ret	 0
?del@?$CMemList@USTIntervalInfo@@@@QEAA_NPEAUSTIntervalInfo@@@Z ENDP ; CMemList<STIntervalInfo>::del
_TEXT	ENDS
; Function compile flags: /Odtp /RTCsu
; File e:\infinia-library-3.0\com\include\comtlist.h
;	COMDAT ?add@?$CMemList@USTIntervalInfo@@@@QEAAHPEAUSTIntervalInfo@@@Z
_TEXT	SEGMENT
nAddIdx$ = 32
i$ = 36
bFind$ = 40
this$ = 64
Obj$ = 72
?add@?$CMemList@USTIntervalInfo@@@@QEAAHPEAUSTIntervalInfo@@@Z PROC ; CMemList<STIntervalInfo>::add, COMDAT

; 212  : {

$LN16:
  00000	48 89 54 24 10	 mov	 QWORD PTR [rsp+16], rdx
  00005	48 89 4c 24 08	 mov	 QWORD PTR [rsp+8], rcx
  0000a	57		 push	 rdi
  0000b	48 83 ec 30	 sub	 rsp, 48			; 00000030H
  0000f	48 8b fc	 mov	 rdi, rsp
  00012	b9 0c 00 00 00	 mov	 ecx, 12
  00017	b8 cc cc cc cc	 mov	 eax, -858993460		; ccccccccH
  0001c	f3 ab		 rep stosd
  0001e	48 8b 4c 24 40	 mov	 rcx, QWORD PTR [rsp+64]

; 213  : 	int nAddIdx = m_nEmptyFirstIdx, i;

  00023	48 8b 44 24 40	 mov	 rax, QWORD PTR this$[rsp]
  00028	8b 40 18	 mov	 eax, DWORD PTR [rax+24]
  0002b	89 44 24 20	 mov	 DWORD PTR nAddIdx$[rsp], eax

; 214  : 	bool bFind = false;

  0002f	c6 44 24 28 00	 mov	 BYTE PTR bFind$[rsp], 0

; 215  : 
; 216  : 	if (0 <= nAddIdx) {

  00034	83 7c 24 20 00	 cmp	 DWORD PTR nAddIdx$[rsp], 0
  00039	7c 5b		 jl	 SHORT $LN5@add

; 217  : 		if (!m_nFlagArray[nAddIdx].getCount()) {

  0003b	48 63 44 24 20	 movsxd	 rax, DWORD PTR nAddIdx$[rsp]
  00040	48 8b 4c 24 40	 mov	 rcx, QWORD PTR this$[rsp]
  00045	48 8b 49 08	 mov	 rcx, QWORD PTR [rcx+8]
  00049	48 8d 04 c1	 lea	 rax, QWORD PTR [rcx+rax*8]
  0004d	48 8b c8	 mov	 rcx, rax
  00050	e8 00 00 00 00	 call	 ?getCount@win64_atomic@win32@common@@QEAAHXZ ; common::win32::win64_atomic::getCount
  00055	85 c0		 test	 eax, eax
  00057	75 3d		 jne	 SHORT $LN6@add

; 218  : 			if (!m_nFlagArray[nAddIdx].atomic_compare_exchange(1, 0)) {

  00059	48 63 44 24 20	 movsxd	 rax, DWORD PTR nAddIdx$[rsp]
  0005e	48 8b 4c 24 40	 mov	 rcx, QWORD PTR this$[rsp]
  00063	48 8b 49 08	 mov	 rcx, QWORD PTR [rcx+8]
  00067	48 8d 04 c1	 lea	 rax, QWORD PTR [rcx+rax*8]
  0006b	45 33 c0	 xor	 r8d, r8d
  0006e	ba 01 00 00 00	 mov	 edx, 1
  00073	48 8b c8	 mov	 rcx, rax
  00076	e8 00 00 00 00	 call	 ?atomic_compare_exchange@win64_atomic@win32@common@@QEAA_J_J0@Z ; common::win32::win64_atomic::atomic_compare_exchange
  0007b	48 85 c0	 test	 rax, rax
  0007e	75 16		 jne	 SHORT $LN7@add

; 219  : 				m_nEmptyFirstIdx = -1;

  00080	48 8b 44 24 40	 mov	 rax, QWORD PTR this$[rsp]
  00085	c7 40 18 ff ff
	ff ff		 mov	 DWORD PTR [rax+24], -1

; 220  : 				goto ADD_SUCCESS;

  0008c	e9 d3 00 00 00	 jmp	 $LN8@add
  00091	e9 ce 00 00 00	 jmp	 $ADD_SUCCESS$17
$LN7@add:
$LN6@add:
$LN5@add:

; 221  : 			}
; 222  : 		}
; 223  : 	}
; 224  : 
; 225  : 	nAddIdx = m_nCurCount.getCount();

  00096	48 8b 44 24 40	 mov	 rax, QWORD PTR this$[rsp]
  0009b	48 83 c0 10	 add	 rax, 16
  0009f	48 8b c8	 mov	 rcx, rax
  000a2	e8 00 00 00 00	 call	 ?getCount@win64_atomic@win32@common@@QEAAHXZ ; common::win32::win64_atomic::getCount
  000a7	89 44 24 20	 mov	 DWORD PTR nAddIdx$[rsp], eax

; 226  : 	for (i = 0; i < m_nMaxCount; i++) {

  000ab	c7 44 24 24 00
	00 00 00	 mov	 DWORD PTR i$[rsp], 0
  000b3	eb 0a		 jmp	 SHORT $LN4@add
$LN2@add:
  000b5	8b 44 24 24	 mov	 eax, DWORD PTR i$[rsp]
  000b9	ff c0		 inc	 eax
  000bb	89 44 24 24	 mov	 DWORD PTR i$[rsp], eax
$LN4@add:
  000bf	48 8b 44 24 40	 mov	 rax, QWORD PTR this$[rsp]
  000c4	8b 40 1c	 mov	 eax, DWORD PTR [rax+28]
  000c7	39 44 24 24	 cmp	 DWORD PTR i$[rsp], eax
  000cb	0f 8d 93 00 00
	00		 jge	 $LN3@add

; 227  : 		if (m_nMaxCount <= m_nCurCount.getCount()) goto ADD_ERROR;

  000d1	48 8b 44 24 40	 mov	 rax, QWORD PTR this$[rsp]
  000d6	48 83 c0 10	 add	 rax, 16
  000da	48 8b c8	 mov	 rcx, rax
  000dd	e8 00 00 00 00	 call	 ?getCount@win64_atomic@win32@common@@QEAAHXZ ; common::win32::win64_atomic::getCount
  000e2	48 8b 4c 24 40	 mov	 rcx, QWORD PTR this$[rsp]
  000e7	39 41 1c	 cmp	 DWORD PTR [rcx+28], eax
  000ea	7f 0a		 jg	 SHORT $LN9@add
  000ec	e9 bf 00 00 00	 jmp	 $LN10@add
  000f1	e9 ba 00 00 00	 jmp	 $ADD_ERROR$18
$LN9@add:

; 228  : 		if (nAddIdx == m_nMaxCount) nAddIdx = 0;

  000f6	48 8b 44 24 40	 mov	 rax, QWORD PTR this$[rsp]
  000fb	8b 40 1c	 mov	 eax, DWORD PTR [rax+28]
  000fe	39 44 24 20	 cmp	 DWORD PTR nAddIdx$[rsp], eax
  00102	75 08		 jne	 SHORT $LN11@add
  00104	c7 44 24 20 00
	00 00 00	 mov	 DWORD PTR nAddIdx$[rsp], 0
$LN11@add:

; 229  : 		if (!m_nFlagArray[nAddIdx].getCount()) {

  0010c	48 63 44 24 20	 movsxd	 rax, DWORD PTR nAddIdx$[rsp]
  00111	48 8b 4c 24 40	 mov	 rcx, QWORD PTR this$[rsp]
  00116	48 8b 49 08	 mov	 rcx, QWORD PTR [rcx+8]
  0011a	48 8d 04 c1	 lea	 rax, QWORD PTR [rcx+rax*8]
  0011e	48 8b c8	 mov	 rcx, rax
  00121	e8 00 00 00 00	 call	 ?getCount@win64_atomic@win32@common@@QEAAHXZ ; common::win32::win64_atomic::getCount
  00126	85 c0		 test	 eax, eax
  00128	75 2b		 jne	 SHORT $LN12@add

; 230  : 			if (!m_nFlagArray[nAddIdx].atomic_compare_exchange(1, 0)) goto ADD_SUCCESS;

  0012a	48 63 44 24 20	 movsxd	 rax, DWORD PTR nAddIdx$[rsp]
  0012f	48 8b 4c 24 40	 mov	 rcx, QWORD PTR this$[rsp]
  00134	48 8b 49 08	 mov	 rcx, QWORD PTR [rcx+8]
  00138	48 8d 04 c1	 lea	 rax, QWORD PTR [rcx+rax*8]
  0013c	45 33 c0	 xor	 r8d, r8d
  0013f	ba 01 00 00 00	 mov	 edx, 1
  00144	48 8b c8	 mov	 rcx, rax
  00147	e8 00 00 00 00	 call	 ?atomic_compare_exchange@win64_atomic@win32@common@@QEAA_J_J0@Z ; common::win32::win64_atomic::atomic_compare_exchange
  0014c	48 85 c0	 test	 rax, rax
  0014f	75 04		 jne	 SHORT $LN13@add
  00151	eb 11		 jmp	 SHORT $LN14@add
  00153	eb 0f		 jmp	 SHORT $ADD_SUCCESS$17
$LN13@add:
$LN12@add:

; 231  : 		}
; 232  : 		nAddIdx++;

  00155	8b 44 24 20	 mov	 eax, DWORD PTR nAddIdx$[rsp]
  00159	ff c0		 inc	 eax
  0015b	89 44 24 20	 mov	 DWORD PTR nAddIdx$[rsp], eax

; 233  : 	}

  0015f	e9 51 ff ff ff	 jmp	 $LN2@add
$LN3@add:
$LN8@add:
$LN14@add:
$ADD_SUCCESS$17:

; 234  : 
; 235  : ADD_SUCCESS:
; 236  : 	m_pArray[nAddIdx] = Obj;

  00164	48 63 44 24 20	 movsxd	 rax, DWORD PTR nAddIdx$[rsp]
  00169	48 8b 4c 24 40	 mov	 rcx, QWORD PTR this$[rsp]
  0016e	48 8b 09	 mov	 rcx, QWORD PTR [rcx]
  00171	48 8b 54 24 48	 mov	 rdx, QWORD PTR Obj$[rsp]
  00176	48 89 14 c1	 mov	 QWORD PTR [rcx+rax*8], rdx

; 237  : 	m_nFlagArray[nAddIdx].setCount(2);

  0017a	48 63 44 24 20	 movsxd	 rax, DWORD PTR nAddIdx$[rsp]
  0017f	48 8b 4c 24 40	 mov	 rcx, QWORD PTR this$[rsp]
  00184	48 8b 49 08	 mov	 rcx, QWORD PTR [rcx+8]
  00188	48 8d 04 c1	 lea	 rax, QWORD PTR [rcx+rax*8]
  0018c	ba 02 00 00 00	 mov	 edx, 2
  00191	48 8b c8	 mov	 rcx, rax
  00194	e8 00 00 00 00	 call	 ?setCount@win64_atomic@win32@common@@QEAAXH@Z ; common::win32::win64_atomic::setCount

; 238  : 	m_nCurCount.atomic_increment();

  00199	48 8b 44 24 40	 mov	 rax, QWORD PTR this$[rsp]
  0019e	48 83 c0 10	 add	 rax, 16
  001a2	48 8b c8	 mov	 rcx, rax
  001a5	e8 00 00 00 00	 call	 ?atomic_increment@win64_atomic@win32@common@@QEAA_JXZ ; common::win32::win64_atomic::atomic_increment

; 239  : 	return nAddIdx;

  001aa	8b 44 24 20	 mov	 eax, DWORD PTR nAddIdx$[rsp]
  001ae	eb 3a		 jmp	 SHORT $LN1@add
$LN10@add:
$ADD_ERROR$18:

; 240  : 
; 241  : ADD_ERROR :
; 242  : 	_stprintf(g_szMessage, _T("FULL! m_nMaxCount[%d]"), m_nMaxCount);

  001b0	48 8b 44 24 40	 mov	 rax, QWORD PTR this$[rsp]
  001b5	44 8b 40 1c	 mov	 r8d, DWORD PTR [rax+28]
  001b9	48 8d 15 00 00
	00 00		 lea	 rdx, OFFSET FLAT:$SG46856
  001c0	48 8d 0d 00 00
	00 00		 lea	 rcx, OFFSET FLAT:?g_szMessage@@3PADA ; g_szMessage
  001c7	e8 00 00 00 00	 call	 sprintf

; 243  : 	comErrorPrint(g_szMessage);

  001cc	41 b8 f3 00 00
	00		 mov	 r8d, 243		; 000000f3H
  001d2	48 8d 15 00 00
	00 00		 lea	 rdx, OFFSET FLAT:$SG46857
  001d9	48 8d 0d 00 00
	00 00		 lea	 rcx, OFFSET FLAT:?g_szMessage@@3PADA ; g_szMessage
  001e0	e8 00 00 00 00	 call	 ?comGlobalErrorProc@@YAXPEADPEBDH@Z ; comGlobalErrorProc

; 244  : 	return -1;

  001e5	b8 ff ff ff ff	 mov	 eax, -1
$LN1@add:

; 245  : }

  001ea	48 83 c4 30	 add	 rsp, 48			; 00000030H
  001ee	5f		 pop	 rdi
  001ef	c3		 ret	 0
?add@?$CMemList@USTIntervalInfo@@@@QEAAHPEAUSTIntervalInfo@@@Z ENDP ; CMemList<STIntervalInfo>::add
_TEXT	ENDS
; Function compile flags: /Odtp /RTCsu
; File e:\infinia-library-3.0\com\include\comtlist.h
;	COMDAT ?getNext@?$CMemList@USTIntervalInfo@@@@QEAAPEAUSTIntervalInfo@@PEAH@Z
_TEXT	SEGMENT
i$ = 32
idx$1 = 36
this$ = 64
pCurIdx$ = 72
?getNext@?$CMemList@USTIntervalInfo@@@@QEAAPEAUSTIntervalInfo@@PEAH@Z PROC ; CMemList<STIntervalInfo>::getNext, COMDAT

; 136  : {

$LN10:
  00000	48 89 54 24 10	 mov	 QWORD PTR [rsp+16], rdx
  00005	48 89 4c 24 08	 mov	 QWORD PTR [rsp+8], rcx
  0000a	57		 push	 rdi
  0000b	48 83 ec 30	 sub	 rsp, 48			; 00000030H
  0000f	48 8b fc	 mov	 rdi, rsp
  00012	b9 0c 00 00 00	 mov	 ecx, 12
  00017	b8 cc cc cc cc	 mov	 eax, -858993460		; ccccccccH
  0001c	f3 ab		 rep stosd
  0001e	48 8b 4c 24 40	 mov	 rcx, QWORD PTR [rsp+64]

; 137  : 	int i = *pCurIdx;

  00023	48 8b 44 24 48	 mov	 rax, QWORD PTR pCurIdx$[rsp]
  00028	8b 00		 mov	 eax, DWORD PTR [rax]
  0002a	89 44 24 20	 mov	 DWORD PTR i$[rsp], eax

; 138  : 	if (i < m_nMaxCount)

  0002e	48 8b 44 24 40	 mov	 rax, QWORD PTR this$[rsp]
  00033	8b 40 1c	 mov	 eax, DWORD PTR [rax+28]
  00036	39 44 24 20	 cmp	 DWORD PTR i$[rsp], eax
  0003a	0f 8d a2 00 00
	00		 jge	 $LN5@getNext

; 139  : 	{
; 140  : 		if (m_nFlagArray[i].getCount() == 2) {

  00040	48 63 44 24 20	 movsxd	 rax, DWORD PTR i$[rsp]
  00045	48 8b 4c 24 40	 mov	 rcx, QWORD PTR this$[rsp]
  0004a	48 8b 49 08	 mov	 rcx, QWORD PTR [rcx+8]
  0004e	48 8d 04 c1	 lea	 rax, QWORD PTR [rcx+rax*8]
  00052	48 8b c8	 mov	 rcx, rax
  00055	e8 00 00 00 00	 call	 ?getCount@win64_atomic@win32@common@@QEAAHXZ ; common::win32::win64_atomic::getCount
  0005a	83 f8 02	 cmp	 eax, 2
  0005d	75 20		 jne	 SHORT $LN6@getNext

; 141  : 			*pCurIdx = i;

  0005f	48 8b 44 24 48	 mov	 rax, QWORD PTR pCurIdx$[rsp]
  00064	8b 4c 24 20	 mov	 ecx, DWORD PTR i$[rsp]
  00068	89 08		 mov	 DWORD PTR [rax], ecx

; 142  : 			return m_pArray[i];

  0006a	48 63 44 24 20	 movsxd	 rax, DWORD PTR i$[rsp]
  0006f	48 8b 4c 24 40	 mov	 rcx, QWORD PTR this$[rsp]
  00074	48 8b 09	 mov	 rcx, QWORD PTR [rcx]
  00077	48 8b 04 c1	 mov	 rax, QWORD PTR [rcx+rax*8]
  0007b	eb 67		 jmp	 SHORT $LN1@getNext

; 143  : 		}
; 144  : 		else

  0007d	eb 63		 jmp	 SHORT $LN7@getNext
$LN6@getNext:

; 145  : 		{
; 146  : 			int idx = i + 1;

  0007f	8b 44 24 20	 mov	 eax, DWORD PTR i$[rsp]
  00083	ff c0		 inc	 eax
  00085	89 44 24 24	 mov	 DWORD PTR idx$1[rsp], eax

; 147  : 			for (idx; idx < m_nMaxCount; idx++)

  00089	eb 0a		 jmp	 SHORT $LN4@getNext
$LN2@getNext:
  0008b	8b 44 24 24	 mov	 eax, DWORD PTR idx$1[rsp]
  0008f	ff c0		 inc	 eax
  00091	89 44 24 24	 mov	 DWORD PTR idx$1[rsp], eax
$LN4@getNext:
  00095	48 8b 44 24 40	 mov	 rax, QWORD PTR this$[rsp]
  0009a	8b 40 1c	 mov	 eax, DWORD PTR [rax+28]
  0009d	39 44 24 24	 cmp	 DWORD PTR idx$1[rsp], eax
  000a1	7d 3f		 jge	 SHORT $LN3@getNext

; 148  : 			{
; 149  : 				if (m_nFlagArray[idx].getCount() == 2) {

  000a3	48 63 44 24 24	 movsxd	 rax, DWORD PTR idx$1[rsp]
  000a8	48 8b 4c 24 40	 mov	 rcx, QWORD PTR this$[rsp]
  000ad	48 8b 49 08	 mov	 rcx, QWORD PTR [rcx+8]
  000b1	48 8d 04 c1	 lea	 rax, QWORD PTR [rcx+rax*8]
  000b5	48 8b c8	 mov	 rcx, rax
  000b8	e8 00 00 00 00	 call	 ?getCount@win64_atomic@win32@common@@QEAAHXZ ; common::win32::win64_atomic::getCount
  000bd	83 f8 02	 cmp	 eax, 2
  000c0	75 1e		 jne	 SHORT $LN8@getNext

; 150  : 					*pCurIdx = idx;

  000c2	48 8b 44 24 48	 mov	 rax, QWORD PTR pCurIdx$[rsp]
  000c7	8b 4c 24 24	 mov	 ecx, DWORD PTR idx$1[rsp]
  000cb	89 08		 mov	 DWORD PTR [rax], ecx

; 151  : 					return m_pArray[idx];

  000cd	48 63 44 24 24	 movsxd	 rax, DWORD PTR idx$1[rsp]
  000d2	48 8b 4c 24 40	 mov	 rcx, QWORD PTR this$[rsp]
  000d7	48 8b 09	 mov	 rcx, QWORD PTR [rcx]
  000da	48 8b 04 c1	 mov	 rax, QWORD PTR [rcx+rax*8]
  000de	eb 04		 jmp	 SHORT $LN1@getNext
$LN8@getNext:

; 152  : 				}
; 153  : 			}

  000e0	eb a9		 jmp	 SHORT $LN2@getNext
$LN3@getNext:
$LN7@getNext:
$LN5@getNext:

; 154  : 		}
; 155  : 	}
; 156  : 	return NULL;

  000e2	33 c0		 xor	 eax, eax
$LN1@getNext:

; 157  : }

  000e4	48 83 c4 30	 add	 rsp, 48			; 00000030H
  000e8	5f		 pop	 rdi
  000e9	c3		 ret	 0
?getNext@?$CMemList@USTIntervalInfo@@@@QEAAPEAUSTIntervalInfo@@PEAH@Z ENDP ; CMemList<STIntervalInfo>::getNext
_TEXT	ENDS
; Function compile flags: /Odtp /RTCsu
; File e:\infinia-library-3.0\com\include\comtlist.h
;	COMDAT ?alloc@?$CMemList@USTIntervalInfo@@@@QEAAHHW4E_ALLOC_TYPE@@@Z
_TEXT	SEGMENT
i$ = 48
$T1 = 56
$T2 = 64
$T3 = 72
$T4 = 80
tv135 = 88
this$ = 112
nMaxCount$ = 120
type$ = 128
?alloc@?$CMemList@USTIntervalInfo@@@@QEAAHHW4E_ALLOC_TYPE@@@Z PROC ; CMemList<STIntervalInfo>::alloc, COMDAT

; 104  : int CMemList<T>::alloc(int nMaxCount, E_ALLOC_TYPE type) {

$LN11:
  00000	44 89 44 24 18	 mov	 DWORD PTR [rsp+24], r8d
  00005	89 54 24 10	 mov	 DWORD PTR [rsp+16], edx
  00009	48 89 4c 24 08	 mov	 QWORD PTR [rsp+8], rcx
  0000e	57		 push	 rdi
  0000f	48 83 ec 60	 sub	 rsp, 96			; 00000060H
  00013	48 8b fc	 mov	 rdi, rsp
  00016	b9 18 00 00 00	 mov	 ecx, 24
  0001b	b8 cc cc cc cc	 mov	 eax, -858993460		; ccccccccH
  00020	f3 ab		 rep stosd
  00022	48 8b 4c 24 70	 mov	 rcx, QWORD PTR [rsp+112]
  00027	48 c7 44 24 50
	fe ff ff ff	 mov	 QWORD PTR $T4[rsp], -2

; 105  : 
; 106  : 	//T  ObjMem = 0;	
; 107  : 
; 108  : 	m_pArray = (T **)calloc(nMaxCount, sizeof(T*));

  00030	48 63 44 24 78	 movsxd	 rax, DWORD PTR nMaxCount$[rsp]
  00035	ba 08 00 00 00	 mov	 edx, 8
  0003a	48 8b c8	 mov	 rcx, rax
  0003d	ff 15 00 00 00
	00		 call	 QWORD PTR __imp_calloc
  00043	48 8b 4c 24 70	 mov	 rcx, QWORD PTR this$[rsp]
  00048	48 89 01	 mov	 QWORD PTR [rcx], rax

; 109  : 	if (m_pArray == 0) {

  0004b	48 8b 44 24 70	 mov	 rax, QWORD PTR this$[rsp]
  00050	48 83 38 00	 cmp	 QWORD PTR [rax], 0
  00054	75 07		 jne	 SHORT $LN5@alloc

; 110  : 		//_stprintf(m_szMessage, _T("CMemList::m_pArray allock ERROR"));
; 111  : 		return 0;

  00056	33 c0		 xor	 eax, eax
  00058	e9 4b 01 00 00	 jmp	 $LN1@alloc
$LN5@alloc:

; 112  : 	}
; 113  : 
; 114  : 	m_nFlagArray = new(std::nothrow)atomic_nr[nMaxCount];

  0005d	48 63 44 24 78	 movsxd	 rax, DWORD PTR nMaxCount$[rsp]
  00062	48 89 44 24 38	 mov	 QWORD PTR $T1[rsp], rax
  00067	b8 08 00 00 00	 mov	 eax, 8
  0006c	48 f7 64 24 38	 mul	 QWORD PTR $T1[rsp]
  00071	48 c7 c1 ff ff
	ff ff		 mov	 rcx, -1
  00078	48 0f 40 c1	 cmovo	 rax, rcx
  0007c	48 83 c0 08	 add	 rax, 8
  00080	48 c7 c1 ff ff
	ff ff		 mov	 rcx, -1
  00087	48 0f 42 c1	 cmovb	 rax, rcx
  0008b	48 8d 15 00 00
	00 00		 lea	 rdx, OFFSET FLAT:?nothrow@std@@3Unothrow_t@1@B ; std::nothrow
  00092	48 8b c8	 mov	 rcx, rax
  00095	e8 00 00 00 00	 call	 ??_U@YAPEAX_KAEBUnothrow_t@std@@@Z ; operator new[]
  0009a	48 89 44 24 48	 mov	 QWORD PTR $T3[rsp], rax
  0009f	48 83 7c 24 48
	00		 cmp	 QWORD PTR $T3[rsp], 0
  000a5	74 4b		 je	 SHORT $LN8@alloc
  000a7	48 8b 44 24 48	 mov	 rax, QWORD PTR $T3[rsp]
  000ac	48 8b 4c 24 38	 mov	 rcx, QWORD PTR $T1[rsp]
  000b1	48 89 08	 mov	 QWORD PTR [rax], rcx
  000b4	48 8b 44 24 48	 mov	 rax, QWORD PTR $T3[rsp]
  000b9	48 83 c0 08	 add	 rax, 8
  000bd	48 8d 0d 00 00
	00 00		 lea	 rcx, OFFSET FLAT:??1win64_atomic@win32@common@@QEAA@XZ ; common::win32::win64_atomic::~win64_atomic
  000c4	48 89 4c 24 20	 mov	 QWORD PTR [rsp+32], rcx
  000c9	4c 8d 0d 00 00
	00 00		 lea	 r9, OFFSET FLAT:??0win64_atomic@win32@common@@QEAA@XZ ; common::win32::win64_atomic::win64_atomic
  000d0	4c 8b 44 24 38	 mov	 r8, QWORD PTR $T1[rsp]
  000d5	ba 08 00 00 00	 mov	 edx, 8
  000da	48 8b c8	 mov	 rcx, rax
  000dd	e8 00 00 00 00	 call	 ??_L@YAXPEAX_K1P6AX0@Z2@Z
  000e2	48 8b 44 24 48	 mov	 rax, QWORD PTR $T3[rsp]
  000e7	48 83 c0 08	 add	 rax, 8
  000eb	48 89 44 24 58	 mov	 QWORD PTR tv135[rsp], rax
  000f0	eb 09		 jmp	 SHORT $LN9@alloc
$LN8@alloc:
  000f2	48 c7 44 24 58
	00 00 00 00	 mov	 QWORD PTR tv135[rsp], 0
$LN9@alloc:
  000fb	48 8b 44 24 58	 mov	 rax, QWORD PTR tv135[rsp]
  00100	48 89 44 24 40	 mov	 QWORD PTR $T2[rsp], rax
  00105	48 8b 44 24 70	 mov	 rax, QWORD PTR this$[rsp]
  0010a	48 8b 4c 24 40	 mov	 rcx, QWORD PTR $T2[rsp]
  0010f	48 89 48 08	 mov	 QWORD PTR [rax+8], rcx

; 115  : 	if (m_nFlagArray == 0) {

  00113	48 8b 44 24 70	 mov	 rax, QWORD PTR this$[rsp]
  00118	48 83 78 08 00	 cmp	 QWORD PTR [rax+8], 0
  0011d	75 12		 jne	 SHORT $LN6@alloc

; 116  : 		//_stprintf(m_szMessage, _T("CMemList::m_nFlagArray allock ERROR"));
; 117  : 		free(m_pArray);

  0011f	48 8b 44 24 70	 mov	 rax, QWORD PTR this$[rsp]
  00124	48 8b 08	 mov	 rcx, QWORD PTR [rax]
  00127	ff 15 00 00 00
	00		 call	 QWORD PTR __imp_free

; 118  : 		return 0;

  0012d	33 c0		 xor	 eax, eax
  0012f	eb 77		 jmp	 SHORT $LN1@alloc
$LN6@alloc:

; 119  : 	}
; 120  : 	int i;
; 121  : 	for (i = 0; i < nMaxCount; i++)

  00131	c7 44 24 30 00
	00 00 00	 mov	 DWORD PTR i$[rsp], 0
  00139	eb 0a		 jmp	 SHORT $LN4@alloc
$LN2@alloc:
  0013b	8b 44 24 30	 mov	 eax, DWORD PTR i$[rsp]
  0013f	ff c0		 inc	 eax
  00141	89 44 24 30	 mov	 DWORD PTR i$[rsp], eax
$LN4@alloc:
  00145	8b 44 24 78	 mov	 eax, DWORD PTR nMaxCount$[rsp]
  00149	39 44 24 30	 cmp	 DWORD PTR i$[rsp], eax
  0014d	7d 1c		 jge	 SHORT $LN3@alloc

; 122  : 	{
; 123  : 		m_nFlagArray[i].init();

  0014f	48 63 44 24 30	 movsxd	 rax, DWORD PTR i$[rsp]
  00154	48 8b 4c 24 70	 mov	 rcx, QWORD PTR this$[rsp]
  00159	48 8b 49 08	 mov	 rcx, QWORD PTR [rcx+8]
  0015d	48 8d 04 c1	 lea	 rax, QWORD PTR [rcx+rax*8]
  00161	48 8b c8	 mov	 rcx, rax
  00164	e8 00 00 00 00	 call	 ?init@win64_atomic@win32@common@@QEAAXXZ ; common::win32::win64_atomic::init

; 124  : 	}

  00169	eb d0		 jmp	 SHORT $LN2@alloc
$LN3@alloc:

; 125  : 
; 126  : 	m_nMaxCount = nMaxCount;

  0016b	48 8b 44 24 70	 mov	 rax, QWORD PTR this$[rsp]
  00170	8b 4c 24 78	 mov	 ecx, DWORD PTR nMaxCount$[rsp]
  00174	89 48 1c	 mov	 DWORD PTR [rax+28], ecx

; 127  : 	m_nObjAllocType = type;

  00177	48 8b 44 24 70	 mov	 rax, QWORD PTR this$[rsp]
  0017c	8b 8c 24 80 00
	00 00		 mov	 ecx, DWORD PTR type$[rsp]
  00183	89 48 20	 mov	 DWORD PTR [rax+32], ecx

; 128  : 	m_pEnd = m_pArray[nMaxCount-1];

  00186	8b 44 24 78	 mov	 eax, DWORD PTR nMaxCount$[rsp]
  0018a	ff c8		 dec	 eax
  0018c	48 98		 cdqe
  0018e	48 8b 4c 24 70	 mov	 rcx, QWORD PTR this$[rsp]
  00193	48 8b 09	 mov	 rcx, QWORD PTR [rcx]
  00196	48 8b 54 24 70	 mov	 rdx, QWORD PTR this$[rsp]
  0019b	48 8b 04 c1	 mov	 rax, QWORD PTR [rcx+rax*8]
  0019f	48 89 42 28	 mov	 QWORD PTR [rdx+40], rax

; 129  : 	//_stprintf(m_szMessage, _T("CMemList::alloc list m_nMaxCount[%d]"), m_nMaxCount);
; 130  : 	return 1;

  001a3	b8 01 00 00 00	 mov	 eax, 1
$LN1@alloc:

; 131  : }

  001a8	48 83 c4 60	 add	 rsp, 96			; 00000060H
  001ac	5f		 pop	 rdi
  001ad	c3		 ret	 0
?alloc@?$CMemList@USTIntervalInfo@@@@QEAAHHW4E_ALLOC_TYPE@@@Z ENDP ; CMemList<STIntervalInfo>::alloc
_TEXT	ENDS
;	COMDAT text$x
text$x	SEGMENT
i$ = 48
$T1 = 56
$T2 = 64
$T3 = 72
$T4 = 80
tv135 = 88
this$ = 112
nMaxCount$ = 120
type$ = 128
?dtor$0@?0??alloc@?$CMemList@USTIntervalInfo@@@@QEAAHHW4E_ALLOC_TYPE@@@Z@4HA PROC ; `CMemList<STIntervalInfo>::alloc'::`1'::dtor$0
  00000	48 89 4c 24 08	 mov	 QWORD PTR [rsp+8], rcx
  00005	48 89 54 24 10	 mov	 QWORD PTR [rsp+16], rdx
  0000a	55		 push	 rbp
  0000b	57		 push	 rdi
  0000c	48 83 ec 28	 sub	 rsp, 40			; 00000028H
  00010	48 8b ea	 mov	 rbp, rdx
  00013	48 8d 15 00 00
	00 00		 lea	 rdx, OFFSET FLAT:?nothrow@std@@3Unothrow_t@1@B ; std::nothrow
  0001a	48 8b 4d 48	 mov	 rcx, QWORD PTR $T3[rbp]
  0001e	e8 00 00 00 00	 call	 ??_V@YAXPEAXAEBUnothrow_t@std@@@Z ; operator delete[]
  00023	48 83 c4 28	 add	 rsp, 40			; 00000028H
  00027	5f		 pop	 rdi
  00028	5d		 pop	 rbp
  00029	c3		 ret	 0
?dtor$0@?0??alloc@?$CMemList@USTIntervalInfo@@@@QEAAHHW4E_ALLOC_TYPE@@@Z@4HA ENDP ; `CMemList<STIntervalInfo>::alloc'::`1'::dtor$0
text$x	ENDS
; Function compile flags: /Odtp /RTCsu
;	COMDAT text$x
text$x	SEGMENT
i$ = 48
$T1 = 56
$T2 = 64
$T3 = 72
$T4 = 80
tv135 = 88
this$ = 112
nMaxCount$ = 120
type$ = 128
?dtor$0@?0??alloc@?$CMemList@USTIntervalInfo@@@@QEAAHHW4E_ALLOC_TYPE@@@Z@4HA PROC ; `CMemList<STIntervalInfo>::alloc'::`1'::dtor$0
  00000	48 89 4c 24 08	 mov	 QWORD PTR [rsp+8], rcx
  00005	48 89 54 24 10	 mov	 QWORD PTR [rsp+16], rdx
  0000a	55		 push	 rbp
  0000b	57		 push	 rdi
  0000c	48 83 ec 28	 sub	 rsp, 40			; 00000028H
  00010	48 8b ea	 mov	 rbp, rdx
  00013	48 8d 15 00 00
	00 00		 lea	 rdx, OFFSET FLAT:?nothrow@std@@3Unothrow_t@1@B ; std::nothrow
  0001a	48 8b 4d 48	 mov	 rcx, QWORD PTR $T3[rbp]
  0001e	e8 00 00 00 00	 call	 ??_V@YAXPEAXAEBUnothrow_t@std@@@Z ; operator delete[]
  00023	48 83 c4 28	 add	 rsp, 40			; 00000028H
  00027	5f		 pop	 rdi
  00028	5d		 pop	 rbp
  00029	c3		 ret	 0
?dtor$0@?0??alloc@?$CMemList@USTIntervalInfo@@@@QEAAHHW4E_ALLOC_TYPE@@@Z@4HA ENDP ; `CMemList<STIntervalInfo>::alloc'::`1'::dtor$0
text$x	ENDS
; Function compile flags: /Odtp /RTCsu
; File e:\infinia-library-3.0\com\include\comtlist.h
;	COMDAT ??1?$CMemList@USTIntervalInfo@@@@QEAA@XZ
_TEXT	SEGMENT
idx$4 = 36
p$5 = 56
$T6 = 72
$T7 = 80
$T8 = 88
$T9 = 96
$T10 = 104
tv79 = 112
tv83 = 120
tv94 = 128
tv146 = 136
__$ArrayPad$ = 144
this$ = 176
??1?$CMemList@USTIntervalInfo@@@@QEAA@XZ PROC		; CMemList<STIntervalInfo>::~CMemList<STIntervalInfo>, COMDAT

; 75   : {

$LN23:
  00000	48 89 4c 24 08	 mov	 QWORD PTR [rsp+8], rcx
  00005	57		 push	 rdi
  00006	48 81 ec a0 00
	00 00		 sub	 rsp, 160		; 000000a0H
  0000d	48 8b fc	 mov	 rdi, rsp
  00010	b9 28 00 00 00	 mov	 ecx, 40			; 00000028H
  00015	b8 cc cc cc cc	 mov	 eax, -858993460		; ccccccccH
  0001a	f3 ab		 rep stosd
  0001c	48 8b 8c 24 b0
	00 00 00	 mov	 rcx, QWORD PTR [rsp+176]
  00024	48 c7 44 24 68
	fe ff ff ff	 mov	 QWORD PTR $T10[rsp], -2
  0002d	48 8b 05 00 00
	00 00		 mov	 rax, QWORD PTR __security_cookie
  00034	48 33 c4	 xor	 rax, rsp
  00037	48 89 84 24 90
	00 00 00	 mov	 QWORD PTR __$ArrayPad$[rsp], rax

; 76   : 	if (!m_pArray) return;

  0003f	48 8b 84 24 b0
	00 00 00	 mov	 rax, QWORD PTR this$[rsp]
  00047	48 83 38 00	 cmp	 QWORD PTR [rax], 0
  0004b	75 05		 jne	 SHORT $LN6@CMemList
  0004d	e9 ec 01 00 00	 jmp	 $LN1@CMemList
$LN6@CMemList:

; 77   : 
; 78   : 	if (ISABLETODELETE(m_nObjAllocType)) {

  00052	48 8b 84 24 b0
	00 00 00	 mov	 rax, QWORD PTR this$[rsp]
  0005a	8b 48 20	 mov	 ecx, DWORD PTR [rax+32]
  0005d	e8 00 00 00 00	 call	 ?ISABLETODELETE@@YA_NW4E_ALLOC_TYPE@@@Z ; ISABLETODELETE
  00062	90		 npad	 1
  00063	0f b6 c0	 movzx	 eax, al
  00066	85 c0		 test	 eax, eax
  00068	0f 84 39 01 00
	00		 je	 $LN7@CMemList

; 79   : 		int idx = 0;

  0006e	c7 44 24 24 00
	00 00 00	 mov	 DWORD PTR idx$4[rsp], 0

; 80   : 		T *p = getNext(&idx);

  00076	48 8d 54 24 24	 lea	 rdx, QWORD PTR idx$4[rsp]
  0007b	48 8b 8c 24 b0
	00 00 00	 mov	 rcx, QWORD PTR this$[rsp]
  00083	e8 00 00 00 00	 call	 ?getNext@?$CMemList@USTIntervalInfo@@@@QEAAPEAUSTIntervalInfo@@PEAH@Z ; CMemList<STIntervalInfo>::getNext
  00088	90		 npad	 1
  00089	48 89 44 24 38	 mov	 QWORD PTR p$5[rsp], rax
$LN2@CMemList:

; 81   : 		while (p) {

  0008e	48 83 7c 24 38
	00		 cmp	 QWORD PTR p$5[rsp], 0
  00094	0f 84 0d 01 00
	00		 je	 $LN7@CMemList

; 82   : 			idx++;

  0009a	8b 44 24 24	 mov	 eax, DWORD PTR idx$4[rsp]
  0009e	ff c0		 inc	 eax
  000a0	89 44 24 24	 mov	 DWORD PTR idx$4[rsp], eax

; 83   : 			switch (m_nObjAllocType) {

  000a4	48 8b 84 24 b0
	00 00 00	 mov	 rax, QWORD PTR this$[rsp]
  000ac	8b 40 20	 mov	 eax, DWORD PTR [rax+32]
  000af	89 44 24 70	 mov	 DWORD PTR tv79[rsp], eax
  000b3	83 7c 24 70 02	 cmp	 DWORD PTR tv79[rsp], 2
  000b8	74 1a		 je	 SHORT $LN8@CMemList
  000ba	83 7c 24 70 03	 cmp	 DWORD PTR tv79[rsp], 3
  000bf	74 55		 je	 SHORT $LN9@CMemList
  000c1	83 7c 24 70 04	 cmp	 DWORD PTR tv79[rsp], 4
  000c6	74 5c		 je	 SHORT $LN10@CMemList
  000c8	83 7c 24 70 05	 cmp	 DWORD PTR tv79[rsp], 5
  000cd	74 7a		 je	 SHORT $LN11@CMemList
  000cf	e9 b6 00 00 00	 jmp	 $LN4@CMemList
$LN8@CMemList:

; 84   : 			case eAlloc_Type_new		: delete p; break;

  000d4	48 8b 44 24 38	 mov	 rax, QWORD PTR p$5[rsp]
  000d9	48 89 44 24 48	 mov	 QWORD PTR $T6[rsp], rax
  000de	ba 28 00 00 00	 mov	 edx, 40			; 00000028H
  000e3	48 8b 4c 24 48	 mov	 rcx, QWORD PTR $T6[rsp]
  000e8	e8 00 00 00 00	 call	 ??3@YAXPEAX_K@Z		; operator delete
  000ed	90		 npad	 1
  000ee	48 83 7c 24 48
	00		 cmp	 QWORD PTR $T6[rsp], 0
  000f4	75 0b		 jne	 SHORT $LN17@CMemList
  000f6	48 c7 44 24 78
	00 00 00 00	 mov	 QWORD PTR tv83[rsp], 0
  000ff	eb 13		 jmp	 SHORT $LN18@CMemList
$LN17@CMemList:
  00101	48 c7 44 24 38
	23 81 00 00	 mov	 QWORD PTR p$5[rsp], 33059 ; 00008123H
  0010a	48 8b 44 24 38	 mov	 rax, QWORD PTR p$5[rsp]
  0010f	48 89 44 24 78	 mov	 QWORD PTR tv83[rsp], rax
$LN18@CMemList:
  00114	eb 74		 jmp	 SHORT $LN4@CMemList
$LN9@CMemList:

; 85   : 			case eAlloc_Type_alloc		: free(p); break;

  00116	48 8b 4c 24 38	 mov	 rcx, QWORD PTR p$5[rsp]
  0011b	ff 15 00 00 00
	00		 call	 QWORD PTR __imp_free
  00121	90		 npad	 1
  00122	eb 66		 jmp	 SHORT $LN4@CMemList
$LN10@CMemList:

; 86   : 			case eAlloc_Type_BufPool	: gs_pMMgr->delBuf((char *)p, STRING_SIZE((TCHAR *)p)); break;

  00124	48 8b 4c 24 38	 mov	 rcx, QWORD PTR p$5[rsp]
  00129	e8 00 00 00 00	 call	 strlen
  0012e	90		 npad	 1
  0012f	48 ff c0	 inc	 rax
  00132	44 8b c0	 mov	 r8d, eax
  00135	48 8b 54 24 38	 mov	 rdx, QWORD PTR p$5[rsp]
  0013a	48 8b 0d 00 00
	00 00		 mov	 rcx, QWORD PTR ?gs_pMMgr@@3PEAVCMemManager@@EA ; gs_pMMgr
  00141	e8 00 00 00 00	 call	 ?delBuf@CMemManager@@QEAAXPEADH@Z ; CMemManager::delBuf
  00146	90		 npad	 1
  00147	eb 41		 jmp	 SHORT $LN4@CMemList
$LN11@CMemList:

; 87   : 			case eAlloc_Type_newArray	: delete[] p; break;

  00149	48 8b 44 24 38	 mov	 rax, QWORD PTR p$5[rsp]
  0014e	48 89 44 24 50	 mov	 QWORD PTR $T7[rsp], rax
  00153	48 8b 4c 24 50	 mov	 rcx, QWORD PTR $T7[rsp]
  00158	e8 00 00 00 00	 call	 ??_V@YAXPEAX@Z		; operator delete[]
  0015d	90		 npad	 1
  0015e	48 83 7c 24 50
	00		 cmp	 QWORD PTR $T7[rsp], 0
  00164	75 0e		 jne	 SHORT $LN19@CMemList
  00166	48 c7 84 24 80
	00 00 00 00 00
	00 00		 mov	 QWORD PTR tv94[rsp], 0
  00172	eb 16		 jmp	 SHORT $LN4@CMemList
$LN19@CMemList:
  00174	48 c7 44 24 38
	23 81 00 00	 mov	 QWORD PTR p$5[rsp], 33059 ; 00008123H
  0017d	48 8b 44 24 38	 mov	 rax, QWORD PTR p$5[rsp]
  00182	48 89 84 24 80
	00 00 00	 mov	 QWORD PTR tv94[rsp], rax
$LN4@CMemList:

; 88   : 			case eAlloc_Type_none		: break;
; 89   : 			case eAlloc_Type_MemPool	: break;
; 90   : 			}
; 91   : 			p = getNext(&idx);

  0018a	48 8d 54 24 24	 lea	 rdx, QWORD PTR idx$4[rsp]
  0018f	48 8b 8c 24 b0
	00 00 00	 mov	 rcx, QWORD PTR this$[rsp]
  00197	e8 00 00 00 00	 call	 ?getNext@?$CMemList@USTIntervalInfo@@@@QEAAPEAUSTIntervalInfo@@PEAH@Z ; CMemList<STIntervalInfo>::getNext
  0019c	90		 npad	 1
  0019d	48 89 44 24 38	 mov	 QWORD PTR p$5[rsp], rax

; 92   : 		}

  001a2	e9 e7 fe ff ff	 jmp	 $LN2@CMemList
$LN7@CMemList:

; 93   : 	}
; 94   : 
; 95   : 	if (m_pArray)        free(m_pArray);

  001a7	48 8b 84 24 b0
	00 00 00	 mov	 rax, QWORD PTR this$[rsp]
  001af	48 83 38 00	 cmp	 QWORD PTR [rax], 0
  001b3	74 12		 je	 SHORT $LN14@CMemList
  001b5	48 8b 84 24 b0
	00 00 00	 mov	 rax, QWORD PTR this$[rsp]
  001bd	48 8b 08	 mov	 rcx, QWORD PTR [rax]
  001c0	ff 15 00 00 00
	00		 call	 QWORD PTR __imp_free
  001c6	90		 npad	 1
$LN14@CMemList:

; 96   : 	m_pArray = 0;

  001c7	48 8b 84 24 b0
	00 00 00	 mov	 rax, QWORD PTR this$[rsp]
  001cf	48 c7 00 00 00
	00 00		 mov	 QWORD PTR [rax], 0

; 97   : 
; 98   : 	if (m_nFlagArray)    delete[] m_nFlagArray;

  001d6	48 8b 84 24 b0
	00 00 00	 mov	 rax, QWORD PTR this$[rsp]
  001de	48 83 78 08 00	 cmp	 QWORD PTR [rax+8], 0
  001e3	74 49		 je	 SHORT $LN15@CMemList
  001e5	48 8b 84 24 b0
	00 00 00	 mov	 rax, QWORD PTR this$[rsp]
  001ed	48 8b 40 08	 mov	 rax, QWORD PTR [rax+8]
  001f1	48 89 44 24 60	 mov	 QWORD PTR $T9[rsp], rax
  001f6	48 8b 44 24 60	 mov	 rax, QWORD PTR $T9[rsp]
  001fb	48 89 44 24 58	 mov	 QWORD PTR $T8[rsp], rax
  00200	48 83 7c 24 58
	00		 cmp	 QWORD PTR $T8[rsp], 0
  00206	74 1a		 je	 SHORT $LN21@CMemList
  00208	ba 03 00 00 00	 mov	 edx, 3
  0020d	48 8b 4c 24 58	 mov	 rcx, QWORD PTR $T8[rsp]
  00212	e8 00 00 00 00	 call	 ??_Ewin64_atomic@win32@common@@QEAAPEAXI@Z
  00217	90		 npad	 1
  00218	48 89 84 24 88
	00 00 00	 mov	 QWORD PTR tv146[rsp], rax
  00220	eb 0c		 jmp	 SHORT $LN15@CMemList
$LN21@CMemList:
  00222	48 c7 84 24 88
	00 00 00 00 00
	00 00		 mov	 QWORD PTR tv146[rsp], 0
$LN15@CMemList:

; 99   : 	m_nFlagArray = 0;

  0022e	48 8b 84 24 b0
	00 00 00	 mov	 rax, QWORD PTR this$[rsp]
  00236	48 c7 40 08 00
	00 00 00	 mov	 QWORD PTR [rax+8], 0
$LN1@CMemList:

; 100  : }

  0023e	48 8b 84 24 b0
	00 00 00	 mov	 rax, QWORD PTR this$[rsp]
  00246	48 83 c0 10	 add	 rax, 16
  0024a	48 8b c8	 mov	 rcx, rax
  0024d	e8 00 00 00 00	 call	 ??1win64_atomic@win32@common@@QEAA@XZ ; common::win32::win64_atomic::~win64_atomic
  00252	90		 npad	 1
  00253	48 8b cc	 mov	 rcx, rsp
  00256	48 8d 15 00 00
	00 00		 lea	 rdx, OFFSET FLAT:??1?$CMemList@USTIntervalInfo@@@@QEAA@XZ$rtcFrameData
  0025d	e8 00 00 00 00	 call	 _RTC_CheckStackVars
  00262	90		 npad	 1
  00263	48 8b 8c 24 90
	00 00 00	 mov	 rcx, QWORD PTR __$ArrayPad$[rsp]
  0026b	48 33 cc	 xor	 rcx, rsp
  0026e	e8 00 00 00 00	 call	 __security_check_cookie
  00273	90		 npad	 1
  00274	48 81 c4 a0 00
	00 00		 add	 rsp, 160		; 000000a0H
  0027b	5f		 pop	 rdi
  0027c	c3		 ret	 0
??1?$CMemList@USTIntervalInfo@@@@QEAA@XZ ENDP		; CMemList<STIntervalInfo>::~CMemList<STIntervalInfo>
_TEXT	ENDS
; Function compile flags: /Odtp /RTCsu
; File e:\infinia-library-3.0\com\include\comtlist.h
;	COMDAT ??0?$CMemList@USTIntervalInfo@@@@QEAA@XZ
_TEXT	SEGMENT
$T1 = 32
this$ = 64
??0?$CMemList@USTIntervalInfo@@@@QEAA@XZ PROC		; CMemList<STIntervalInfo>::CMemList<STIntervalInfo>, COMDAT

; 65   : {

$LN4:
  00000	48 89 4c 24 08	 mov	 QWORD PTR [rsp+8], rcx
  00005	57		 push	 rdi
  00006	48 83 ec 30	 sub	 rsp, 48			; 00000030H
  0000a	48 8b fc	 mov	 rdi, rsp
  0000d	b9 0c 00 00 00	 mov	 ecx, 12
  00012	b8 cc cc cc cc	 mov	 eax, -858993460		; ccccccccH
  00017	f3 ab		 rep stosd
  00019	48 8b 4c 24 40	 mov	 rcx, QWORD PTR [rsp+64]
  0001e	48 c7 44 24 20
	fe ff ff ff	 mov	 QWORD PTR $T1[rsp], -2
  00027	48 8b 44 24 40	 mov	 rax, QWORD PTR this$[rsp]
  0002c	48 83 c0 10	 add	 rax, 16
  00030	48 8b c8	 mov	 rcx, rax
  00033	e8 00 00 00 00	 call	 ??0win64_atomic@win32@common@@QEAA@XZ ; common::win32::win64_atomic::win64_atomic
  00038	90		 npad	 1

; 66   : 	//memset(m_szMessage, 0, LEN_MEM_MESSAGE);
; 67   : 	m_pArray = NULL;

  00039	48 8b 44 24 40	 mov	 rax, QWORD PTR this$[rsp]
  0003e	48 c7 00 00 00
	00 00		 mov	 QWORD PTR [rax], 0

; 68   : 	m_nFlagArray = NULL;

  00045	48 8b 44 24 40	 mov	 rax, QWORD PTR this$[rsp]
  0004a	48 c7 40 08 00
	00 00 00	 mov	 QWORD PTR [rax+8], 0

; 69   : 	m_nObjAllocType = eAlloc_Type_none;

  00052	48 8b 44 24 40	 mov	 rax, QWORD PTR this$[rsp]
  00057	c7 40 20 00 00
	00 00		 mov	 DWORD PTR [rax+32], 0

; 70   : 	m_nCurCount.init();

  0005e	48 8b 44 24 40	 mov	 rax, QWORD PTR this$[rsp]
  00063	48 83 c0 10	 add	 rax, 16
  00067	48 8b c8	 mov	 rcx, rax
  0006a	e8 00 00 00 00	 call	 ?init@win64_atomic@win32@common@@QEAAXXZ ; common::win32::win64_atomic::init
  0006f	90		 npad	 1

; 71   : }

  00070	48 8b 44 24 40	 mov	 rax, QWORD PTR this$[rsp]
  00075	48 83 c4 30	 add	 rsp, 48			; 00000030H
  00079	5f		 pop	 rdi
  0007a	c3		 ret	 0
??0?$CMemList@USTIntervalInfo@@@@QEAA@XZ ENDP		; CMemList<STIntervalInfo>::CMemList<STIntervalInfo>
_TEXT	ENDS
;	COMDAT text$x
text$x	SEGMENT
$T1 = 32
this$ = 64
?dtor$0@?0???0?$CMemList@USTIntervalInfo@@@@QEAA@XZ@4HA PROC ; `CMemList<STIntervalInfo>::CMemList<STIntervalInfo>'::`1'::dtor$0
  00000	48 89 4c 24 08	 mov	 QWORD PTR [rsp+8], rcx
  00005	48 89 54 24 10	 mov	 QWORD PTR [rsp+16], rdx
  0000a	55		 push	 rbp
  0000b	57		 push	 rdi
  0000c	48 83 ec 28	 sub	 rsp, 40			; 00000028H
  00010	48 8b ea	 mov	 rbp, rdx
  00013	48 8b 4d 40	 mov	 rcx, QWORD PTR this$[rbp]
  00017	48 83 c1 10	 add	 rcx, 16
  0001b	e8 00 00 00 00	 call	 ??1win64_atomic@win32@common@@QEAA@XZ ; common::win32::win64_atomic::~win64_atomic
  00020	48 83 c4 28	 add	 rsp, 40			; 00000028H
  00024	5f		 pop	 rdi
  00025	5d		 pop	 rbp
  00026	c3		 ret	 0
?dtor$0@?0???0?$CMemList@USTIntervalInfo@@@@QEAA@XZ@4HA ENDP ; `CMemList<STIntervalInfo>::CMemList<STIntervalInfo>'::`1'::dtor$0
text$x	ENDS
; Function compile flags: /Odtp /RTCsu
;	COMDAT text$x
text$x	SEGMENT
$T1 = 32
this$ = 64
?dtor$0@?0???0?$CMemList@USTIntervalInfo@@@@QEAA@XZ@4HA PROC ; `CMemList<STIntervalInfo>::CMemList<STIntervalInfo>'::`1'::dtor$0
  00000	48 89 4c 24 08	 mov	 QWORD PTR [rsp+8], rcx
  00005	48 89 54 24 10	 mov	 QWORD PTR [rsp+16], rdx
  0000a	55		 push	 rbp
  0000b	57		 push	 rdi
  0000c	48 83 ec 28	 sub	 rsp, 40			; 00000028H
  00010	48 8b ea	 mov	 rbp, rdx
  00013	48 8b 4d 40	 mov	 rcx, QWORD PTR this$[rbp]
  00017	48 83 c1 10	 add	 rcx, 16
  0001b	e8 00 00 00 00	 call	 ??1win64_atomic@win32@common@@QEAA@XZ ; common::win32::win64_atomic::~win64_atomic
  00020	48 83 c4 28	 add	 rsp, 40			; 00000028H
  00024	5f		 pop	 rdi
  00025	5d		 pop	 rbp
  00026	c3		 ret	 0
?dtor$0@?0???0?$CMemList@USTIntervalInfo@@@@QEAA@XZ@4HA ENDP ; `CMemList<STIntervalInfo>::CMemList<STIntervalInfo>'::`1'::dtor$0
text$x	ENDS
; Function compile flags: /Odtp /RTCsu
;	COMDAT ??_ECScheduler@@QEAAPEAXI@Z
_TEXT	SEGMENT
$T1 = 32
this$ = 64
__flags$ = 72
??_ECScheduler@@QEAAPEAXI@Z PROC			; CScheduler::`vector deleting destructor', COMDAT
$LN6:
  00000	89 54 24 10	 mov	 DWORD PTR [rsp+16], edx
  00004	48 89 4c 24 08	 mov	 QWORD PTR [rsp+8], rcx
  00009	57		 push	 rdi
  0000a	48 83 ec 30	 sub	 rsp, 48			; 00000030H
  0000e	48 8b fc	 mov	 rdi, rsp
  00011	b9 0c 00 00 00	 mov	 ecx, 12
  00016	b8 cc cc cc cc	 mov	 eax, -858993460		; ccccccccH
  0001b	f3 ab		 rep stosd
  0001d	48 8b 4c 24 40	 mov	 rcx, QWORD PTR [rsp+64]
  00022	48 c7 44 24 20
	fe ff ff ff	 mov	 QWORD PTR $T1[rsp], -2
  0002b	8b 44 24 48	 mov	 eax, DWORD PTR __flags$[rsp]
  0002f	83 e0 02	 and	 eax, 2
  00032	85 c0		 test	 eax, eax
  00034	74 56		 je	 SHORT $LN2@vector
  00036	4c 8d 0d 00 00
	00 00		 lea	 r9, OFFSET FLAT:??1CScheduler@@QEAA@XZ ; CScheduler::~CScheduler
  0003d	48 8b 44 24 40	 mov	 rax, QWORD PTR this$[rsp]
  00042	4c 8b 40 f8	 mov	 r8, QWORD PTR [rax-8]
  00046	ba 60 00 00 00	 mov	 edx, 96			; 00000060H
  0004b	48 8b 4c 24 40	 mov	 rcx, QWORD PTR this$[rsp]
  00050	e8 00 00 00 00	 call	 ??_M@YAXPEAX_K1P6AX0@Z@Z
  00055	90		 npad	 1
  00056	8b 44 24 48	 mov	 eax, DWORD PTR __flags$[rsp]
  0005a	83 e0 01	 and	 eax, 1
  0005d	85 c0		 test	 eax, eax
  0005f	74 20		 je	 SHORT $LN3@vector
  00061	48 8b 44 24 40	 mov	 rax, QWORD PTR this$[rsp]
  00066	48 6b 40 f8 60	 imul	 rax, QWORD PTR [rax-8], 96 ; 00000060H
  0006b	48 83 c0 08	 add	 rax, 8
  0006f	48 8b 4c 24 40	 mov	 rcx, QWORD PTR this$[rsp]
  00074	48 83 e9 08	 sub	 rcx, 8
  00078	48 8b d0	 mov	 rdx, rax
  0007b	e8 00 00 00 00	 call	 ??_V@YAXPEAX_K@Z	; operator delete[]
  00080	90		 npad	 1
$LN3@vector:
  00081	48 8b 44 24 40	 mov	 rax, QWORD PTR this$[rsp]
  00086	48 83 e8 08	 sub	 rax, 8
  0008a	eb 2b		 jmp	 SHORT $LN1@vector
$LN2@vector:
  0008c	48 8b 4c 24 40	 mov	 rcx, QWORD PTR this$[rsp]
  00091	e8 00 00 00 00	 call	 ??1CScheduler@@QEAA@XZ	; CScheduler::~CScheduler
  00096	90		 npad	 1
  00097	8b 44 24 48	 mov	 eax, DWORD PTR __flags$[rsp]
  0009b	83 e0 01	 and	 eax, 1
  0009e	85 c0		 test	 eax, eax
  000a0	74 10		 je	 SHORT $LN4@vector
  000a2	ba 60 00 00 00	 mov	 edx, 96			; 00000060H
  000a7	48 8b 4c 24 40	 mov	 rcx, QWORD PTR this$[rsp]
  000ac	e8 00 00 00 00	 call	 ??3@YAXPEAX_K@Z		; operator delete
  000b1	90		 npad	 1
$LN4@vector:
  000b2	48 8b 44 24 40	 mov	 rax, QWORD PTR this$[rsp]
$LN1@vector:
  000b7	48 83 c4 30	 add	 rsp, 48			; 00000030H
  000bb	5f		 pop	 rdi
  000bc	c3		 ret	 0
??_ECScheduler@@QEAAPEAXI@Z ENDP			; CScheduler::`vector deleting destructor'
_TEXT	ENDS
; Function compile flags: /Odtp /RTCsu
;	COMDAT ??_GCScheduler@@QEAAPEAXI@Z
_TEXT	SEGMENT
this$ = 48
__flags$ = 56
??_GCScheduler@@QEAAPEAXI@Z PROC			; CScheduler::`scalar deleting destructor', COMDAT
$LN4:
  00000	89 54 24 10	 mov	 DWORD PTR [rsp+16], edx
  00004	48 89 4c 24 08	 mov	 QWORD PTR [rsp+8], rcx
  00009	57		 push	 rdi
  0000a	48 83 ec 20	 sub	 rsp, 32			; 00000020H
  0000e	48 8b fc	 mov	 rdi, rsp
  00011	b9 08 00 00 00	 mov	 ecx, 8
  00016	b8 cc cc cc cc	 mov	 eax, -858993460		; ccccccccH
  0001b	f3 ab		 rep stosd
  0001d	48 8b 4c 24 30	 mov	 rcx, QWORD PTR [rsp+48]
  00022	48 8b 4c 24 30	 mov	 rcx, QWORD PTR this$[rsp]
  00027	e8 00 00 00 00	 call	 ??1CScheduler@@QEAA@XZ	; CScheduler::~CScheduler
  0002c	8b 44 24 38	 mov	 eax, DWORD PTR __flags$[rsp]
  00030	83 e0 01	 and	 eax, 1
  00033	85 c0		 test	 eax, eax
  00035	74 0f		 je	 SHORT $LN2@scalar
  00037	ba 60 00 00 00	 mov	 edx, 96			; 00000060H
  0003c	48 8b 4c 24 30	 mov	 rcx, QWORD PTR this$[rsp]
  00041	e8 00 00 00 00	 call	 ??3@YAXPEAX_K@Z		; operator delete
$LN2@scalar:
  00046	48 8b 44 24 30	 mov	 rax, QWORD PTR this$[rsp]
  0004b	48 83 c4 20	 add	 rsp, 32			; 00000020H
  0004f	5f		 pop	 rdi
  00050	c3		 ret	 0
??_GCScheduler@@QEAAPEAXI@Z ENDP			; CScheduler::`scalar deleting destructor'
_TEXT	ENDS
; Function compile flags: /Odtp /RTCsu
; File e:\infinia-library-3.0\com\include\comcore.h
;	COMDAT ?getGoal@CScheduler@@QEAAIXZ
_TEXT	SEGMENT
this$ = 16
?getGoal@CScheduler@@QEAAIXZ PROC			; CScheduler::getGoal, COMDAT

; 146  : 	inline TICKTIME_MILLISEC getGoal() { 	return m_nMillSecGoal;	}

$LN3:
  00000	48 89 4c 24 08	 mov	 QWORD PTR [rsp+8], rcx
  00005	57		 push	 rdi
  00006	48 8b 44 24 10	 mov	 rax, QWORD PTR this$[rsp]
  0000b	8b 40 58	 mov	 eax, DWORD PTR [rax+88]
  0000e	5f		 pop	 rdi
  0000f	c3		 ret	 0
?getGoal@CScheduler@@QEAAIXZ ENDP			; CScheduler::getGoal
_TEXT	ENDS
; Function compile flags: /Odtp /RTCsu
; File e:\infinia-library-3.0\com\include\comcore.h
;	COMDAT ?setGoal@CScheduler@@QEAAXXZ
_TEXT	SEGMENT
this$ = 16
?setGoal@CScheduler@@QEAAXXZ PROC			; CScheduler::setGoal, COMDAT

; 145  : 	inline void setGoal() {	m_nMillSecGoal += m_nMilliSecWait;	}

$LN3:
  00000	48 89 4c 24 08	 mov	 QWORD PTR [rsp+8], rcx
  00005	57		 push	 rdi
  00006	48 8b 44 24 10	 mov	 rax, QWORD PTR this$[rsp]
  0000b	8b 40 58	 mov	 eax, DWORD PTR [rax+88]
  0000e	48 8b 4c 24 10	 mov	 rcx, QWORD PTR this$[rsp]
  00013	03 41 50	 add	 eax, DWORD PTR [rcx+80]
  00016	48 8b 4c 24 10	 mov	 rcx, QWORD PTR this$[rsp]
  0001b	89 41 58	 mov	 DWORD PTR [rcx+88], eax
  0001e	5f		 pop	 rdi
  0001f	c3		 ret	 0
?setGoal@CScheduler@@QEAAXXZ ENDP			; CScheduler::setGoal
_TEXT	ENDS
; Function compile flags: /Odtp /RTCsu
; File e:\infinia-library-3.0\com\include\comcore.h
;	COMDAT ?getMilliSecHalf@CScheduler@@QEAAHXZ
_TEXT	SEGMENT
this$ = 16
?getMilliSecHalf@CScheduler@@QEAAHXZ PROC		; CScheduler::getMilliSecHalf, COMDAT

; 144  : 	inline int getMilliSecHalf() { return m_nMillSecHalf; }

$LN3:
  00000	48 89 4c 24 08	 mov	 QWORD PTR [rsp+8], rcx
  00005	57		 push	 rdi
  00006	48 8b 44 24 10	 mov	 rax, QWORD PTR this$[rsp]
  0000b	8b 40 54	 mov	 eax, DWORD PTR [rax+84]
  0000e	5f		 pop	 rdi
  0000f	c3		 ret	 0
?getMilliSecHalf@CScheduler@@QEAAHXZ ENDP		; CScheduler::getMilliSecHalf
_TEXT	ENDS
; Function compile flags: /Odtp /RTCsu
; File e:\infinia-library-3.0\com\include\comcore.h
;	COMDAT ?addTime@CScheduler@@QEAAHPEAUSTIntervalInfo@@@Z
_TEXT	SEGMENT
this$ = 48
pData$ = 56
?addTime@CScheduler@@QEAAHPEAUSTIntervalInfo@@@Z PROC	; CScheduler::addTime, COMDAT

; 142  : 	inline int addTime(STIntervalInfo *pData) { return m_pTimeList->add(pData); }

$LN3:
  00000	48 89 54 24 10	 mov	 QWORD PTR [rsp+16], rdx
  00005	48 89 4c 24 08	 mov	 QWORD PTR [rsp+8], rcx
  0000a	57		 push	 rdi
  0000b	48 83 ec 20	 sub	 rsp, 32			; 00000020H
  0000f	48 8b fc	 mov	 rdi, rsp
  00012	b9 08 00 00 00	 mov	 ecx, 8
  00017	b8 cc cc cc cc	 mov	 eax, -858993460		; ccccccccH
  0001c	f3 ab		 rep stosd
  0001e	48 8b 4c 24 30	 mov	 rcx, QWORD PTR [rsp+48]
  00023	48 8b 54 24 38	 mov	 rdx, QWORD PTR pData$[rsp]
  00028	48 8b 44 24 30	 mov	 rax, QWORD PTR this$[rsp]
  0002d	48 8b 48 48	 mov	 rcx, QWORD PTR [rax+72]
  00031	e8 00 00 00 00	 call	 ?add@?$CMemList@USTIntervalInfo@@@@QEAAHPEAUSTIntervalInfo@@@Z ; CMemList<STIntervalInfo>::add
  00036	48 83 c4 20	 add	 rsp, 32			; 00000020H
  0003a	5f		 pop	 rdi
  0003b	c3		 ret	 0
?addTime@CScheduler@@QEAAHPEAUSTIntervalInfo@@@Z ENDP	; CScheduler::addTime
_TEXT	ENDS
; Function compile flags: /Odtp /RTCsu
; File e:\infinia-library-3.0\com\include\comcore.h
;	COMDAT ?deleteTime@CScheduler@@QEAA_NPEAUSTIntervalInfo@@@Z
_TEXT	SEGMENT
this$ = 48
pData$ = 56
?deleteTime@CScheduler@@QEAA_NPEAUSTIntervalInfo@@@Z PROC ; CScheduler::deleteTime, COMDAT

; 141  : 	inline bool deleteTime(STIntervalInfo *pData) { return m_pTimeList->del(pData); }

$LN3:
  00000	48 89 54 24 10	 mov	 QWORD PTR [rsp+16], rdx
  00005	48 89 4c 24 08	 mov	 QWORD PTR [rsp+8], rcx
  0000a	57		 push	 rdi
  0000b	48 83 ec 20	 sub	 rsp, 32			; 00000020H
  0000f	48 8b fc	 mov	 rdi, rsp
  00012	b9 08 00 00 00	 mov	 ecx, 8
  00017	b8 cc cc cc cc	 mov	 eax, -858993460		; ccccccccH
  0001c	f3 ab		 rep stosd
  0001e	48 8b 4c 24 30	 mov	 rcx, QWORD PTR [rsp+48]
  00023	48 8b 54 24 38	 mov	 rdx, QWORD PTR pData$[rsp]
  00028	48 8b 44 24 30	 mov	 rax, QWORD PTR this$[rsp]
  0002d	48 8b 48 48	 mov	 rcx, QWORD PTR [rax+72]
  00031	e8 00 00 00 00	 call	 ?del@?$CMemList@USTIntervalInfo@@@@QEAA_NPEAUSTIntervalInfo@@@Z ; CMemList<STIntervalInfo>::del
  00036	48 83 c4 20	 add	 rsp, 32			; 00000020H
  0003a	5f		 pop	 rdi
  0003b	c3		 ret	 0
?deleteTime@CScheduler@@QEAA_NPEAUSTIntervalInfo@@@Z ENDP ; CScheduler::deleteTime
_TEXT	ENDS
; Function compile flags: /Odtp /RTCsu
; File e:\infinia-library-3.0\com\include\comcore.h
;	COMDAT ?timeNext@CScheduler@@QEAAPEAUSTIntervalInfo@@PEAH@Z
_TEXT	SEGMENT
this$ = 48
idx$ = 56
?timeNext@CScheduler@@QEAAPEAUSTIntervalInfo@@PEAH@Z PROC ; CScheduler::timeNext, COMDAT

; 140  : 	inline STIntervalInfo *timeNext(int *idx) { return m_pTimeList->getNext(idx); }

$LN3:
  00000	48 89 54 24 10	 mov	 QWORD PTR [rsp+16], rdx
  00005	48 89 4c 24 08	 mov	 QWORD PTR [rsp+8], rcx
  0000a	57		 push	 rdi
  0000b	48 83 ec 20	 sub	 rsp, 32			; 00000020H
  0000f	48 8b fc	 mov	 rdi, rsp
  00012	b9 08 00 00 00	 mov	 ecx, 8
  00017	b8 cc cc cc cc	 mov	 eax, -858993460		; ccccccccH
  0001c	f3 ab		 rep stosd
  0001e	48 8b 4c 24 30	 mov	 rcx, QWORD PTR [rsp+48]
  00023	48 8b 54 24 38	 mov	 rdx, QWORD PTR idx$[rsp]
  00028	48 8b 44 24 30	 mov	 rax, QWORD PTR this$[rsp]
  0002d	48 8b 48 48	 mov	 rcx, QWORD PTR [rax+72]
  00031	e8 00 00 00 00	 call	 ?getNext@?$CMemList@USTIntervalInfo@@@@QEAAPEAUSTIntervalInfo@@PEAH@Z ; CMemList<STIntervalInfo>::getNext
  00036	48 83 c4 20	 add	 rsp, 32			; 00000020H
  0003a	5f		 pop	 rdi
  0003b	c3		 ret	 0
?timeNext@CScheduler@@QEAAPEAUSTIntervalInfo@@PEAH@Z ENDP ; CScheduler::timeNext
_TEXT	ENDS
; Function compile flags: /Odtp /RTCsu
; File e:\infinia-library-3.0\com\src\comcore.cpp
_TEXT	SEGMENT
$T1 = 32
$T2 = 40
tv73 = 48
this$ = 80
?quit@CScheduler@@QEAA_NXZ PROC				; CScheduler::quit

; 358  : {

$LN6:
  00000	48 89 4c 24 08	 mov	 QWORD PTR [rsp+8], rcx
  00005	57		 push	 rdi
  00006	48 83 ec 40	 sub	 rsp, 64			; 00000040H
  0000a	48 8b fc	 mov	 rdi, rsp
  0000d	b9 10 00 00 00	 mov	 ecx, 16
  00012	b8 cc cc cc cc	 mov	 eax, -858993460		; ccccccccH
  00017	f3 ab		 rep stosd
  00019	48 8b 4c 24 50	 mov	 rcx, QWORD PTR [rsp+80]

; 359  : 	m_cThread.quit();

  0001e	48 8b 44 24 50	 mov	 rax, QWORD PTR this$[rsp]
  00023	48 8b c8	 mov	 rcx, rax
  00026	e8 00 00 00 00	 call	 ?quit@CComThread@@QEAA_NXZ ; CComThread::quit

; 360  : 	if (m_pTimeList) {

  0002b	48 8b 44 24 50	 mov	 rax, QWORD PTR this$[rsp]
  00030	48 83 78 48 00	 cmp	 QWORD PTR [rax+72], 0
  00035	74 4c		 je	 SHORT $LN2@quit

; 361  : 		delete m_pTimeList;

  00037	48 8b 44 24 50	 mov	 rax, QWORD PTR this$[rsp]
  0003c	48 8b 40 48	 mov	 rax, QWORD PTR [rax+72]
  00040	48 89 44 24 28	 mov	 QWORD PTR $T2[rsp], rax
  00045	48 8b 44 24 28	 mov	 rax, QWORD PTR $T2[rsp]
  0004a	48 89 44 24 20	 mov	 QWORD PTR $T1[rsp], rax
  0004f	48 83 7c 24 20
	00		 cmp	 QWORD PTR $T1[rsp], 0
  00055	74 16		 je	 SHORT $LN4@quit
  00057	ba 01 00 00 00	 mov	 edx, 1
  0005c	48 8b 4c 24 20	 mov	 rcx, QWORD PTR $T1[rsp]
  00061	e8 00 00 00 00	 call	 ??_G?$CMemList@USTIntervalInfo@@@@QEAAPEAXI@Z
  00066	48 89 44 24 30	 mov	 QWORD PTR tv73[rsp], rax
  0006b	eb 09		 jmp	 SHORT $LN5@quit
$LN4@quit:
  0006d	48 c7 44 24 30
	00 00 00 00	 mov	 QWORD PTR tv73[rsp], 0
$LN5@quit:

; 362  : 		m_pTimeList = NULL;

  00076	48 8b 44 24 50	 mov	 rax, QWORD PTR this$[rsp]
  0007b	48 c7 40 48 00
	00 00 00	 mov	 QWORD PTR [rax+72], 0
$LN2@quit:

; 363  : 	}
; 364  : 	return true;

  00083	b0 01		 mov	 al, 1

; 365  : }

  00085	48 83 c4 40	 add	 rsp, 64			; 00000040H
  00089	5f		 pop	 rdi
  0008a	c3		 ret	 0
?quit@CScheduler@@QEAA_NXZ ENDP				; CScheduler::quit
_TEXT	ENDS
; Function compile flags: /Odtp /RTCsu
; File e:\infinia-library-3.0\com\src\comcore.cpp
_TEXT	SEGMENT
this$ = 64
?start@CScheduler@@QEAA_NXZ PROC			; CScheduler::start

; 344  : {

$LN6:
  00000	48 89 4c 24 08	 mov	 QWORD PTR [rsp+8], rcx
  00005	57		 push	 rdi
  00006	48 83 ec 30	 sub	 rsp, 48			; 00000030H
  0000a	48 8b fc	 mov	 rdi, rsp
  0000d	b9 0c 00 00 00	 mov	 ecx, 12
  00012	b8 cc cc cc cc	 mov	 eax, -858993460		; ccccccccH
  00017	f3 ab		 rep stosd
  00019	48 8b 4c 24 40	 mov	 rcx, QWORD PTR [rsp+64]

; 345  : 	if (m_cThread.bActive()) return true;

  0001e	48 8b 44 24 40	 mov	 rax, QWORD PTR this$[rsp]
  00023	48 8b c8	 mov	 rcx, rax
  00026	e8 00 00 00 00	 call	 ?bActive@CComThread@@QEAA_NXZ ; CComThread::bActive
  0002b	0f b6 c0	 movzx	 eax, al
  0002e	85 c0		 test	 eax, eax
  00030	74 07		 je	 SHORT $LN2@start
  00032	b0 01		 mov	 al, 1
  00034	e9 82 00 00 00	 jmp	 $LN1@start
$LN2@start:

; 346  : 	if (!m_cThread.init(schedulerLoop, this, m_nMillSecHalf)) {

  00039	48 8b 44 24 40	 mov	 rax, QWORD PTR this$[rsp]
  0003e	48 c7 44 24 20
	00 00 00 00	 mov	 QWORD PTR [rsp+32], 0
  00047	48 8b 4c 24 40	 mov	 rcx, QWORD PTR this$[rsp]
  0004c	44 8b 49 54	 mov	 r9d, DWORD PTR [rcx+84]
  00050	4c 8b 44 24 40	 mov	 r8, QWORD PTR this$[rsp]
  00055	48 8d 15 00 00
	00 00		 lea	 rdx, OFFSET FLAT:?schedulerLoop@@YAXPEAUSTThreadInfo@@@Z ; schedulerLoop
  0005c	48 8b c8	 mov	 rcx, rax
  0005f	e8 00 00 00 00	 call	 ?init@CComThread@@QEAA_NP6AXPEAUSTThreadInfo@@@ZPEAXH2@Z ; CComThread::init
  00064	0f b6 c0	 movzx	 eax, al
  00067	85 c0		 test	 eax, eax
  00069	75 1d		 jne	 SHORT $LN3@start

; 347  : 		comErrorPrint("m_cThread.init");

  0006b	41 b8 5b 01 00
	00		 mov	 r8d, 347		; 0000015bH
  00071	48 8d 15 00 00
	00 00		 lea	 rdx, OFFSET FLAT:$SG45534
  00078	48 8d 0d 00 00
	00 00		 lea	 rcx, OFFSET FLAT:$SG45535
  0007f	e8 00 00 00 00	 call	 ?comGlobalErrorProc@@YAXPEADPEBDH@Z ; comGlobalErrorProc

; 348  : 		return false;

  00084	32 c0		 xor	 al, al
  00086	eb 33		 jmp	 SHORT $LN1@start
$LN3@start:

; 349  : 	}
; 350  : 	if (!m_cThread.start()) {

  00088	48 8b 44 24 40	 mov	 rax, QWORD PTR this$[rsp]
  0008d	48 8b c8	 mov	 rcx, rax
  00090	e8 00 00 00 00	 call	 ?start@CComThread@@QEAA_NXZ ; CComThread::start
  00095	0f b6 c0	 movzx	 eax, al
  00098	85 c0		 test	 eax, eax
  0009a	75 1d		 jne	 SHORT $LN4@start

; 351  : 		comErrorPrint("m_cThread.start");

  0009c	41 b8 5f 01 00
	00		 mov	 r8d, 351		; 0000015fH
  000a2	48 8d 15 00 00
	00 00		 lea	 rdx, OFFSET FLAT:$SG45537
  000a9	48 8d 0d 00 00
	00 00		 lea	 rcx, OFFSET FLAT:$SG45538
  000b0	e8 00 00 00 00	 call	 ?comGlobalErrorProc@@YAXPEADPEBDH@Z ; comGlobalErrorProc

; 352  : 		return false;

  000b5	32 c0		 xor	 al, al
  000b7	eb 02		 jmp	 SHORT $LN1@start
$LN4@start:

; 353  : 	}
; 354  : 	return true;

  000b9	b0 01		 mov	 al, 1
$LN1@start:

; 355  : }

  000bb	48 83 c4 30	 add	 rsp, 48			; 00000030H
  000bf	5f		 pop	 rdi
  000c0	c3		 ret	 0
?start@CScheduler@@QEAA_NXZ ENDP			; CScheduler::start
_TEXT	ENDS
; Function compile flags: /Odtp /RTCsu
; File e:\infinia-library-3.0\com\src\comcore.cpp
_TEXT	SEGMENT
$T1 = 32
$T2 = 40
$T3 = 48
$T4 = 56
$T5 = 64
tv86 = 72
tv129 = 80
this$ = 112
nCount$ = 120
nMilliSecWait$ = 128
nIdx$ = 136
?init@CScheduler@@QEAA_NHHH@Z PROC			; CScheduler::init

; 332  : {

$LN9:
  00000	44 89 4c 24 20	 mov	 DWORD PTR [rsp+32], r9d
  00005	44 89 44 24 18	 mov	 DWORD PTR [rsp+24], r8d
  0000a	89 54 24 10	 mov	 DWORD PTR [rsp+16], edx
  0000e	48 89 4c 24 08	 mov	 QWORD PTR [rsp+8], rcx
  00013	57		 push	 rdi
  00014	48 83 ec 60	 sub	 rsp, 96			; 00000060H
  00018	48 8b fc	 mov	 rdi, rsp
  0001b	b9 18 00 00 00	 mov	 ecx, 24
  00020	b8 cc cc cc cc	 mov	 eax, -858993460		; ccccccccH
  00025	f3 ab		 rep stosd
  00027	48 8b 4c 24 70	 mov	 rcx, QWORD PTR [rsp+112]
  0002c	48 c7 44 24 40
	fe ff ff ff	 mov	 QWORD PTR $T5[rsp], -2

; 333  : 	m_nMilliSecWait = nMilliSecWait;

  00035	48 8b 44 24 70	 mov	 rax, QWORD PTR this$[rsp]
  0003a	8b 8c 24 80 00
	00 00		 mov	 ecx, DWORD PTR nMilliSecWait$[rsp]
  00041	89 48 50	 mov	 DWORD PTR [rax+80], ecx

; 334  : 	m_nMillSecHalf = m_nMilliSecWait / 2;

  00044	48 8b 44 24 70	 mov	 rax, QWORD PTR this$[rsp]
  00049	8b 40 50	 mov	 eax, DWORD PTR [rax+80]
  0004c	99		 cdq
  0004d	2b c2		 sub	 eax, edx
  0004f	d1 f8		 sar	 eax, 1
  00051	48 8b 4c 24 70	 mov	 rcx, QWORD PTR this$[rsp]
  00056	89 41 54	 mov	 DWORD PTR [rcx+84], eax

; 335  : 	m_nMillSecGoal = CURRENT_TIME + m_nMilliSecWait;

  00059	ff 15 00 00 00
	00		 call	 QWORD PTR __imp_GetTickCount
  0005f	48 8b 4c 24 70	 mov	 rcx, QWORD PTR this$[rsp]
  00064	03 41 50	 add	 eax, DWORD PTR [rcx+80]
  00067	48 8b 4c 24 70	 mov	 rcx, QWORD PTR this$[rsp]
  0006c	89 41 58	 mov	 DWORD PTR [rcx+88], eax

; 336  : 	m_pTimeList = new CMemList<STIntervalInfo>();

  0006f	b9 30 00 00 00	 mov	 ecx, 48			; 00000030H
  00074	e8 00 00 00 00	 call	 ??2@YAPEAX_K@Z		; operator new
  00079	48 89 44 24 28	 mov	 QWORD PTR $T2[rsp], rax
  0007e	48 83 7c 24 28
	00		 cmp	 QWORD PTR $T2[rsp], 0
  00084	74 20		 je	 SHORT $LN4@init
  00086	ba 30 00 00 00	 mov	 edx, 48			; 00000030H
  0008b	48 8b 4c 24 28	 mov	 rcx, QWORD PTR $T2[rsp]
  00090	e8 00 00 00 00	 call	 ?__autoclassinit2@?$CMemList@USTIntervalInfo@@@@QEAAX_K@Z
  00095	48 8b 4c 24 28	 mov	 rcx, QWORD PTR $T2[rsp]
  0009a	e8 00 00 00 00	 call	 ??0?$CMemList@USTIntervalInfo@@@@QEAA@XZ ; CMemList<STIntervalInfo>::CMemList<STIntervalInfo>
  0009f	48 89 44 24 48	 mov	 QWORD PTR tv86[rsp], rax
  000a4	eb 09		 jmp	 SHORT $LN5@init
$LN4@init:
  000a6	48 c7 44 24 48
	00 00 00 00	 mov	 QWORD PTR tv86[rsp], 0
$LN5@init:
  000af	48 8b 44 24 48	 mov	 rax, QWORD PTR tv86[rsp]
  000b4	48 89 44 24 20	 mov	 QWORD PTR $T1[rsp], rax
  000b9	48 8b 44 24 70	 mov	 rax, QWORD PTR this$[rsp]
  000be	48 8b 4c 24 20	 mov	 rcx, QWORD PTR $T1[rsp]
  000c3	48 89 48 48	 mov	 QWORD PTR [rax+72], rcx

; 337  : 	if (!m_pTimeList->alloc(nCount, eAlloc_Type_none)) { delete m_pTimeList; printf("has Failed!! m_pTimeList->alloc(%d)\n", nCount); return false; }

  000c7	45 33 c0	 xor	 r8d, r8d
  000ca	8b 54 24 78	 mov	 edx, DWORD PTR nCount$[rsp]
  000ce	48 8b 44 24 70	 mov	 rax, QWORD PTR this$[rsp]
  000d3	48 8b 48 48	 mov	 rcx, QWORD PTR [rax+72]
  000d7	e8 00 00 00 00	 call	 ?alloc@?$CMemList@USTIntervalInfo@@@@QEAAHHW4E_ALLOC_TYPE@@@Z ; CMemList<STIntervalInfo>::alloc
  000dc	85 c0		 test	 eax, eax
  000de	75 53		 jne	 SHORT $LN2@init
  000e0	48 8b 44 24 70	 mov	 rax, QWORD PTR this$[rsp]
  000e5	48 8b 40 48	 mov	 rax, QWORD PTR [rax+72]
  000e9	48 89 44 24 38	 mov	 QWORD PTR $T4[rsp], rax
  000ee	48 8b 44 24 38	 mov	 rax, QWORD PTR $T4[rsp]
  000f3	48 89 44 24 30	 mov	 QWORD PTR $T3[rsp], rax
  000f8	48 83 7c 24 30
	00		 cmp	 QWORD PTR $T3[rsp], 0
  000fe	74 16		 je	 SHORT $LN6@init
  00100	ba 01 00 00 00	 mov	 edx, 1
  00105	48 8b 4c 24 30	 mov	 rcx, QWORD PTR $T3[rsp]
  0010a	e8 00 00 00 00	 call	 ??_G?$CMemList@USTIntervalInfo@@@@QEAAPEAXI@Z
  0010f	48 89 44 24 50	 mov	 QWORD PTR tv129[rsp], rax
  00114	eb 09		 jmp	 SHORT $LN7@init
$LN6@init:
  00116	48 c7 44 24 50
	00 00 00 00	 mov	 QWORD PTR tv129[rsp], 0
$LN7@init:
  0011f	8b 54 24 78	 mov	 edx, DWORD PTR nCount$[rsp]
  00123	48 8d 0d 00 00
	00 00		 lea	 rcx, OFFSET FLAT:$SG45528
  0012a	e8 00 00 00 00	 call	 printf
  0012f	32 c0		 xor	 al, al
  00131	eb 16		 jmp	 SHORT $LN1@init
$LN2@init:

; 338  : 	m_cThread.setIdx(nIdx);

  00133	48 8b 44 24 70	 mov	 rax, QWORD PTR this$[rsp]
  00138	8b 94 24 88 00
	00 00		 mov	 edx, DWORD PTR nIdx$[rsp]
  0013f	48 8b c8	 mov	 rcx, rax
  00142	e8 00 00 00 00	 call	 ?setIdx@CComThread@@QEAAXH@Z ; CComThread::setIdx

; 339  : 	return true;

  00147	b0 01		 mov	 al, 1
$LN1@init:

; 340  : }

  00149	48 83 c4 60	 add	 rsp, 96			; 00000060H
  0014d	5f		 pop	 rdi
  0014e	c3		 ret	 0
?init@CScheduler@@QEAA_NHHH@Z ENDP			; CScheduler::init
_TEXT	ENDS
text$x	SEGMENT
$T1 = 32
$T2 = 40
$T3 = 48
$T4 = 56
$T5 = 64
tv86 = 72
tv129 = 80
this$ = 112
nCount$ = 120
nMilliSecWait$ = 128
nIdx$ = 136
?dtor$0@?0??init@CScheduler@@QEAA_NHHH@Z@4HA PROC	; `CScheduler::init'::`1'::dtor$0
  00000	48 89 4c 24 08	 mov	 QWORD PTR [rsp+8], rcx
  00005	48 89 54 24 10	 mov	 QWORD PTR [rsp+16], rdx
  0000a	55		 push	 rbp
  0000b	57		 push	 rdi
  0000c	48 83 ec 28	 sub	 rsp, 40			; 00000028H
  00010	48 8b ea	 mov	 rbp, rdx
  00013	ba 30 00 00 00	 mov	 edx, 48			; 00000030H
  00018	48 8b 4d 28	 mov	 rcx, QWORD PTR $T2[rbp]
  0001c	e8 00 00 00 00	 call	 ??3@YAXPEAX_K@Z		; operator delete
  00021	48 83 c4 28	 add	 rsp, 40			; 00000028H
  00025	5f		 pop	 rdi
  00026	5d		 pop	 rbp
  00027	c3		 ret	 0
?dtor$0@?0??init@CScheduler@@QEAA_NHHH@Z@4HA ENDP	; `CScheduler::init'::`1'::dtor$0
text$x	ENDS
; Function compile flags: /Odtp /RTCsu
text$x	SEGMENT
$T1 = 32
$T2 = 40
$T3 = 48
$T4 = 56
$T5 = 64
tv86 = 72
tv129 = 80
this$ = 112
nCount$ = 120
nMilliSecWait$ = 128
nIdx$ = 136
?dtor$0@?0??init@CScheduler@@QEAA_NHHH@Z@4HA PROC	; `CScheduler::init'::`1'::dtor$0
  00000	48 89 4c 24 08	 mov	 QWORD PTR [rsp+8], rcx
  00005	48 89 54 24 10	 mov	 QWORD PTR [rsp+16], rdx
  0000a	55		 push	 rbp
  0000b	57		 push	 rdi
  0000c	48 83 ec 28	 sub	 rsp, 40			; 00000028H
  00010	48 8b ea	 mov	 rbp, rdx
  00013	ba 30 00 00 00	 mov	 edx, 48			; 00000030H
  00018	48 8b 4d 28	 mov	 rcx, QWORD PTR $T2[rbp]
  0001c	e8 00 00 00 00	 call	 ??3@YAXPEAX_K@Z		; operator delete
  00021	48 83 c4 28	 add	 rsp, 40			; 00000028H
  00025	5f		 pop	 rdi
  00026	5d		 pop	 rbp
  00027	c3		 ret	 0
?dtor$0@?0??init@CScheduler@@QEAA_NHHH@Z@4HA ENDP	; `CScheduler::init'::`1'::dtor$0
text$x	ENDS
; Function compile flags: /Odtp /RTCsu
; File e:\infinia-library-3.0\com\src\comcore.cpp
_TEXT	SEGMENT
szSect$ = 40
nCount$ = 68
$T4 = 80
$T5 = 88
$T6 = 96
$T7 = 104
$T8 = 112
tv133 = 120
tv144 = 128
__$ArrayPad$ = 136
this$ = 160
pConfigFile$ = 168
i$ = 176
pSection$ = 184
?initConfig@CScheduler@@QEAA_NPEADH0@Z PROC		; CScheduler::initConfig

; 313  : {

$LN10:
  00000	4c 89 4c 24 20	 mov	 QWORD PTR [rsp+32], r9
  00005	44 89 44 24 18	 mov	 DWORD PTR [rsp+24], r8d
  0000a	48 89 54 24 10	 mov	 QWORD PTR [rsp+16], rdx
  0000f	48 89 4c 24 08	 mov	 QWORD PTR [rsp+8], rcx
  00014	57		 push	 rdi
  00015	48 81 ec 90 00
	00 00		 sub	 rsp, 144		; 00000090H
  0001c	48 8b fc	 mov	 rdi, rsp
  0001f	b9 24 00 00 00	 mov	 ecx, 36			; 00000024H
  00024	b8 cc cc cc cc	 mov	 eax, -858993460		; ccccccccH
  00029	f3 ab		 rep stosd
  0002b	48 8b 8c 24 a0
	00 00 00	 mov	 rcx, QWORD PTR [rsp+160]
  00033	48 c7 44 24 70
	fe ff ff ff	 mov	 QWORD PTR $T8[rsp], -2
  0003c	48 8b 05 00 00
	00 00		 mov	 rax, QWORD PTR __security_cookie
  00043	48 33 c4	 xor	 rax, rsp
  00046	48 89 84 24 88
	00 00 00	 mov	 QWORD PTR __$ArrayPad$[rsp], rax

; 314  : 	TCHAR szSect[24];
; 315  : 	int nCount;
; 316  : 
; 317  : 	_stprintf(szSect, _T("%s_%d"), pSection, i);

  0004e	44 8b 8c 24 b0
	00 00 00	 mov	 r9d, DWORD PTR i$[rsp]
  00056	4c 8b 84 24 b8
	00 00 00	 mov	 r8, QWORD PTR pSection$[rsp]
  0005e	48 8d 15 00 00
	00 00		 lea	 rdx, OFFSET FLAT:$SG45500
  00065	48 8d 4c 24 28	 lea	 rcx, QWORD PTR szSect$[rsp]
  0006a	e8 00 00 00 00	 call	 sprintf

; 318  : 	nCount = GetPrivateProfileInt(szSect, _T("LIST_COUNT"), 0, pConfigFile);

  0006f	4c 8b 8c 24 a8
	00 00 00	 mov	 r9, QWORD PTR pConfigFile$[rsp]
  00077	45 33 c0	 xor	 r8d, r8d
  0007a	48 8d 15 00 00
	00 00		 lea	 rdx, OFFSET FLAT:$SG45501
  00081	48 8d 4c 24 28	 lea	 rcx, QWORD PTR szSect$[rsp]
  00086	ff 15 00 00 00
	00		 call	 QWORD PTR __imp_GetPrivateProfileIntA
  0008c	89 44 24 44	 mov	 DWORD PTR nCount$[rsp], eax

; 319  : 	if (!nCount) return false;

  00090	83 7c 24 44 00	 cmp	 DWORD PTR nCount$[rsp], 0
  00095	75 07		 jne	 SHORT $LN2@initConfig
  00097	32 c0		 xor	 al, al
  00099	e9 37 01 00 00	 jmp	 $LN1@initConfig
$LN2@initConfig:

; 320  : 	m_nMilliSecWait = GetPrivateProfileInt(szSect, _T("TIME_WAIT"), -1, pConfigFile);

  0009e	4c 8b 8c 24 a8
	00 00 00	 mov	 r9, QWORD PTR pConfigFile$[rsp]
  000a6	41 b8 ff ff ff
	ff		 mov	 r8d, -1
  000ac	48 8d 15 00 00
	00 00		 lea	 rdx, OFFSET FLAT:$SG45503
  000b3	48 8d 4c 24 28	 lea	 rcx, QWORD PTR szSect$[rsp]
  000b8	ff 15 00 00 00
	00		 call	 QWORD PTR __imp_GetPrivateProfileIntA
  000be	48 8b 8c 24 a0
	00 00 00	 mov	 rcx, QWORD PTR this$[rsp]
  000c6	89 41 50	 mov	 DWORD PTR [rcx+80], eax

; 321  : 	m_nMillSecHalf = m_nMilliSecWait / 2;

  000c9	48 8b 84 24 a0
	00 00 00	 mov	 rax, QWORD PTR this$[rsp]
  000d1	8b 40 50	 mov	 eax, DWORD PTR [rax+80]
  000d4	99		 cdq
  000d5	2b c2		 sub	 eax, edx
  000d7	d1 f8		 sar	 eax, 1
  000d9	48 8b 8c 24 a0
	00 00 00	 mov	 rcx, QWORD PTR this$[rsp]
  000e1	89 41 54	 mov	 DWORD PTR [rcx+84], eax

; 322  : 	m_nMillSecGoal = CURRENT_TIME + m_nMilliSecWait;

  000e4	ff 15 00 00 00
	00		 call	 QWORD PTR __imp_GetTickCount
  000ea	48 8b 8c 24 a0
	00 00 00	 mov	 rcx, QWORD PTR this$[rsp]
  000f2	03 41 50	 add	 eax, DWORD PTR [rcx+80]
  000f5	48 8b 8c 24 a0
	00 00 00	 mov	 rcx, QWORD PTR this$[rsp]
  000fd	89 41 58	 mov	 DWORD PTR [rcx+88], eax

; 323  : 
; 324  : 	m_pTimeList = new CMemList<STIntervalInfo>();

  00100	b9 30 00 00 00	 mov	 ecx, 48			; 00000030H
  00105	e8 00 00 00 00	 call	 ??2@YAPEAX_K@Z		; operator new
  0010a	48 89 44 24 58	 mov	 QWORD PTR $T5[rsp], rax
  0010f	48 83 7c 24 58
	00		 cmp	 QWORD PTR $T5[rsp], 0
  00115	74 20		 je	 SHORT $LN5@initConfig
  00117	ba 30 00 00 00	 mov	 edx, 48			; 00000030H
  0011c	48 8b 4c 24 58	 mov	 rcx, QWORD PTR $T5[rsp]
  00121	e8 00 00 00 00	 call	 ?__autoclassinit2@?$CMemList@USTIntervalInfo@@@@QEAAX_K@Z
  00126	48 8b 4c 24 58	 mov	 rcx, QWORD PTR $T5[rsp]
  0012b	e8 00 00 00 00	 call	 ??0?$CMemList@USTIntervalInfo@@@@QEAA@XZ ; CMemList<STIntervalInfo>::CMemList<STIntervalInfo>
  00130	48 89 44 24 78	 mov	 QWORD PTR tv133[rsp], rax
  00135	eb 09		 jmp	 SHORT $LN6@initConfig
$LN5@initConfig:
  00137	48 c7 44 24 78
	00 00 00 00	 mov	 QWORD PTR tv133[rsp], 0
$LN6@initConfig:
  00140	48 8b 44 24 78	 mov	 rax, QWORD PTR tv133[rsp]
  00145	48 89 44 24 50	 mov	 QWORD PTR $T4[rsp], rax
  0014a	48 8b 84 24 a0
	00 00 00	 mov	 rax, QWORD PTR this$[rsp]
  00152	48 8b 4c 24 50	 mov	 rcx, QWORD PTR $T4[rsp]
  00157	48 89 48 48	 mov	 QWORD PTR [rax+72], rcx

; 325  : 	if (!m_pTimeList->alloc(nCount, eAlloc_Type_none)) { delete m_pTimeList; printf("has Failed!! m_pTimeList->alloc(%d)\n", nCount); return false; }

  0015b	45 33 c0	 xor	 r8d, r8d
  0015e	8b 54 24 44	 mov	 edx, DWORD PTR nCount$[rsp]
  00162	48 8b 84 24 a0
	00 00 00	 mov	 rax, QWORD PTR this$[rsp]
  0016a	48 8b 48 48	 mov	 rcx, QWORD PTR [rax+72]
  0016e	e8 00 00 00 00	 call	 ?alloc@?$CMemList@USTIntervalInfo@@@@QEAAHHW4E_ALLOC_TYPE@@@Z ; CMemList<STIntervalInfo>::alloc
  00173	85 c0		 test	 eax, eax
  00175	75 5c		 jne	 SHORT $LN3@initConfig
  00177	48 8b 84 24 a0
	00 00 00	 mov	 rax, QWORD PTR this$[rsp]
  0017f	48 8b 40 48	 mov	 rax, QWORD PTR [rax+72]
  00183	48 89 44 24 68	 mov	 QWORD PTR $T7[rsp], rax
  00188	48 8b 44 24 68	 mov	 rax, QWORD PTR $T7[rsp]
  0018d	48 89 44 24 60	 mov	 QWORD PTR $T6[rsp], rax
  00192	48 83 7c 24 60
	00		 cmp	 QWORD PTR $T6[rsp], 0
  00198	74 19		 je	 SHORT $LN7@initConfig
  0019a	ba 01 00 00 00	 mov	 edx, 1
  0019f	48 8b 4c 24 60	 mov	 rcx, QWORD PTR $T6[rsp]
  001a4	e8 00 00 00 00	 call	 ??_G?$CMemList@USTIntervalInfo@@@@QEAAPEAXI@Z
  001a9	48 89 84 24 80
	00 00 00	 mov	 QWORD PTR tv144[rsp], rax
  001b1	eb 0c		 jmp	 SHORT $LN8@initConfig
$LN7@initConfig:
  001b3	48 c7 84 24 80
	00 00 00 00 00
	00 00		 mov	 QWORD PTR tv144[rsp], 0
$LN8@initConfig:
  001bf	8b 54 24 44	 mov	 edx, DWORD PTR nCount$[rsp]
  001c3	48 8d 0d 00 00
	00 00		 lea	 rcx, OFFSET FLAT:$SG45506
  001ca	e8 00 00 00 00	 call	 printf
  001cf	32 c0		 xor	 al, al
  001d1	eb 02		 jmp	 SHORT $LN1@initConfig
$LN3@initConfig:

; 326  : 
; 327  : 	return true;

  001d3	b0 01		 mov	 al, 1
$LN1@initConfig:

; 328  : 
; 329  : }

  001d5	48 8b f8	 mov	 rdi, rax
  001d8	48 8b cc	 mov	 rcx, rsp
  001db	48 8d 15 00 00
	00 00		 lea	 rdx, OFFSET FLAT:?initConfig@CScheduler@@QEAA_NPEADH0@Z$rtcFrameData
  001e2	e8 00 00 00 00	 call	 _RTC_CheckStackVars
  001e7	48 8b c7	 mov	 rax, rdi
  001ea	48 8b 8c 24 88
	00 00 00	 mov	 rcx, QWORD PTR __$ArrayPad$[rsp]
  001f2	48 33 cc	 xor	 rcx, rsp
  001f5	e8 00 00 00 00	 call	 __security_check_cookie
  001fa	48 81 c4 90 00
	00 00		 add	 rsp, 144		; 00000090H
  00201	5f		 pop	 rdi
  00202	c3		 ret	 0
?initConfig@CScheduler@@QEAA_NPEADH0@Z ENDP		; CScheduler::initConfig
_TEXT	ENDS
text$x	SEGMENT
szSect$ = 40
nCount$ = 68
$T4 = 80
$T5 = 88
$T6 = 96
$T7 = 104
$T8 = 112
tv133 = 120
tv144 = 128
__$ArrayPad$ = 136
this$ = 160
pConfigFile$ = 168
i$ = 176
pSection$ = 184
?dtor$0@?0??initConfig@CScheduler@@QEAA_NPEADH0@Z@4HA PROC ; `CScheduler::initConfig'::`1'::dtor$0
  00000	48 89 4c 24 08	 mov	 QWORD PTR [rsp+8], rcx
  00005	48 89 54 24 10	 mov	 QWORD PTR [rsp+16], rdx
  0000a	55		 push	 rbp
  0000b	57		 push	 rdi
  0000c	48 83 ec 28	 sub	 rsp, 40			; 00000028H
  00010	48 8b ea	 mov	 rbp, rdx
  00013	ba 30 00 00 00	 mov	 edx, 48			; 00000030H
  00018	48 8b 4d 58	 mov	 rcx, QWORD PTR $T5[rbp]
  0001c	e8 00 00 00 00	 call	 ??3@YAXPEAX_K@Z		; operator delete
  00021	48 83 c4 28	 add	 rsp, 40			; 00000028H
  00025	5f		 pop	 rdi
  00026	5d		 pop	 rbp
  00027	c3		 ret	 0
?dtor$0@?0??initConfig@CScheduler@@QEAA_NPEADH0@Z@4HA ENDP ; `CScheduler::initConfig'::`1'::dtor$0
text$x	ENDS
; Function compile flags: /Odtp /RTCsu
text$x	SEGMENT
szSect$ = 40
nCount$ = 68
$T4 = 80
$T5 = 88
$T6 = 96
$T7 = 104
$T8 = 112
tv133 = 120
tv144 = 128
__$ArrayPad$ = 136
this$ = 160
pConfigFile$ = 168
i$ = 176
pSection$ = 184
?dtor$0@?0??initConfig@CScheduler@@QEAA_NPEADH0@Z@4HA PROC ; `CScheduler::initConfig'::`1'::dtor$0
  00000	48 89 4c 24 08	 mov	 QWORD PTR [rsp+8], rcx
  00005	48 89 54 24 10	 mov	 QWORD PTR [rsp+16], rdx
  0000a	55		 push	 rbp
  0000b	57		 push	 rdi
  0000c	48 83 ec 28	 sub	 rsp, 40			; 00000028H
  00010	48 8b ea	 mov	 rbp, rdx
  00013	ba 30 00 00 00	 mov	 edx, 48			; 00000030H
  00018	48 8b 4d 58	 mov	 rcx, QWORD PTR $T5[rbp]
  0001c	e8 00 00 00 00	 call	 ??3@YAXPEAX_K@Z		; operator delete
  00021	48 83 c4 28	 add	 rsp, 40			; 00000028H
  00025	5f		 pop	 rdi
  00026	5d		 pop	 rbp
  00027	c3		 ret	 0
?dtor$0@?0??initConfig@CScheduler@@QEAA_NPEADH0@Z@4HA ENDP ; `CScheduler::initConfig'::`1'::dtor$0
text$x	ENDS
; Function compile flags: /Odtp /RTCsu
; File e:\infinia-library-3.0\com\src\comcore.cpp
_TEXT	SEGMENT
$T1 = 32
this$ = 64
??1CScheduler@@QEAA@XZ PROC				; CScheduler::~CScheduler

; 308  : {

$LN3:
  00000	48 89 4c 24 08	 mov	 QWORD PTR [rsp+8], rcx
  00005	57		 push	 rdi
  00006	48 83 ec 30	 sub	 rsp, 48			; 00000030H
  0000a	48 8b fc	 mov	 rdi, rsp
  0000d	b9 0c 00 00 00	 mov	 ecx, 12
  00012	b8 cc cc cc cc	 mov	 eax, -858993460		; ccccccccH
  00017	f3 ab		 rep stosd
  00019	48 8b 4c 24 40	 mov	 rcx, QWORD PTR [rsp+64]
  0001e	48 c7 44 24 20
	fe ff ff ff	 mov	 QWORD PTR $T1[rsp], -2

; 309  : 	quit();

  00027	48 8b 4c 24 40	 mov	 rcx, QWORD PTR this$[rsp]
  0002c	e8 00 00 00 00	 call	 ?quit@CScheduler@@QEAA_NXZ ; CScheduler::quit
  00031	90		 npad	 1

; 310  : }

  00032	48 8b 44 24 40	 mov	 rax, QWORD PTR this$[rsp]
  00037	48 8b c8	 mov	 rcx, rax
  0003a	e8 00 00 00 00	 call	 ??1CComThread@@QEAA@XZ	; CComThread::~CComThread
  0003f	90		 npad	 1
  00040	48 83 c4 30	 add	 rsp, 48			; 00000030H
  00044	5f		 pop	 rdi
  00045	c3		 ret	 0
??1CScheduler@@QEAA@XZ ENDP				; CScheduler::~CScheduler
_TEXT	ENDS
; Function compile flags: /Odtp /RTCsu
; File e:\infinia-library-3.0\com\src\comcore.cpp
_TEXT	SEGMENT
this$ = 48
??0CScheduler@@QEAA@XZ PROC				; CScheduler::CScheduler

; 302  : {

$LN4:
  00000	48 89 4c 24 08	 mov	 QWORD PTR [rsp+8], rcx
  00005	57		 push	 rdi
  00006	48 83 ec 20	 sub	 rsp, 32			; 00000020H
  0000a	48 8b fc	 mov	 rdi, rsp
  0000d	b9 08 00 00 00	 mov	 ecx, 8
  00012	b8 cc cc cc cc	 mov	 eax, -858993460		; ccccccccH
  00017	f3 ab		 rep stosd
  00019	48 8b 4c 24 30	 mov	 rcx, QWORD PTR [rsp+48]
  0001e	48 8b 44 24 30	 mov	 rax, QWORD PTR this$[rsp]
  00023	48 8b c8	 mov	 rcx, rax
  00026	e8 00 00 00 00	 call	 ??0CComThread@@QEAA@XZ	; CComThread::CComThread

; 303  : 	m_pTimeList = NULL;

  0002b	48 8b 44 24 30	 mov	 rax, QWORD PTR this$[rsp]
  00030	48 c7 40 48 00
	00 00 00	 mov	 QWORD PTR [rax+72], 0

; 304  : 	m_nMilliSecWait = -1;

  00038	48 8b 44 24 30	 mov	 rax, QWORD PTR this$[rsp]
  0003d	c7 40 50 ff ff
	ff ff		 mov	 DWORD PTR [rax+80], -1

; 305  : 	m_nMillSecGoal = 0;

  00044	48 8b 44 24 30	 mov	 rax, QWORD PTR this$[rsp]
  00049	c7 40 58 00 00
	00 00		 mov	 DWORD PTR [rax+88], 0

; 306  : }

  00050	48 8b 44 24 30	 mov	 rax, QWORD PTR this$[rsp]
  00055	48 83 c4 20	 add	 rsp, 32			; 00000020H
  00059	5f		 pop	 rdi
  0005a	c3		 ret	 0
??0CScheduler@@QEAA@XZ ENDP				; CScheduler::CScheduler
_TEXT	ENDS
; Function compile flags: /Odtp /RTCsu
; File e:\infinia-library-3.0\com\src\comcore.cpp
_TEXT	SEGMENT
pBasic$ = 32
pData$ = 40
cur$ = 48
diff$ = 52
idx$ = 68
__$ArrayPad$ = 96
p$ = 128
?schedulerLoop@@YAXPEAUSTThreadInfo@@@Z PROC		; schedulerLoop

; 368  : {

$LN8:
  00000	48 89 4c 24 08	 mov	 QWORD PTR [rsp+8], rcx
  00005	57		 push	 rdi
  00006	48 83 ec 70	 sub	 rsp, 112		; 00000070H
  0000a	48 8b fc	 mov	 rdi, rsp
  0000d	b9 1c 00 00 00	 mov	 ecx, 28
  00012	b8 cc cc cc cc	 mov	 eax, -858993460		; ccccccccH
  00017	f3 ab		 rep stosd
  00019	48 8b 8c 24 80
	00 00 00	 mov	 rcx, QWORD PTR [rsp+128]
  00021	48 8b 05 00 00
	00 00		 mov	 rax, QWORD PTR __security_cookie
  00028	48 33 c4	 xor	 rax, rsp
  0002b	48 89 44 24 60	 mov	 QWORD PTR __$ArrayPad$[rsp], rax

; 369  : 	CScheduler *pBasic = (CScheduler *)p->pClass;

  00030	48 8b 84 24 80
	00 00 00	 mov	 rax, QWORD PTR p$[rsp]
  00038	48 8b 40 18	 mov	 rax, QWORD PTR [rax+24]
  0003c	48 89 44 24 20	 mov	 QWORD PTR pBasic$[rsp], rax

; 370  : 	STIntervalInfo *pData;
; 371  : 	TICKTIME_MILLISEC cur = CURRENT_TIME;

  00041	ff 15 00 00 00
	00		 call	 QWORD PTR __imp_GetTickCount
  00047	89 44 24 30	 mov	 DWORD PTR cur$[rsp], eax

; 372  : 	int diff = pBasic->getGoal() - cur;

  0004b	48 8b 4c 24 20	 mov	 rcx, QWORD PTR pBasic$[rsp]
  00050	e8 00 00 00 00	 call	 ?getGoal@CScheduler@@QEAAIXZ ; CScheduler::getGoal
  00055	2b 44 24 30	 sub	 eax, DWORD PTR cur$[rsp]
  00059	89 44 24 34	 mov	 DWORD PTR diff$[rsp], eax

; 373  : 	
; 374  : 
; 375  : 	if (1 < diff) {

  0005d	83 7c 24 34 01	 cmp	 DWORD PTR diff$[rsp], 1
  00062	7e 14		 jle	 SHORT $LN4@schedulerL

; 376  : 		p->millisecSleep = diff;

  00064	48 8b 84 24 80
	00 00 00	 mov	 rax, QWORD PTR p$[rsp]
  0006c	8b 4c 24 34	 mov	 ecx, DWORD PTR diff$[rsp]
  00070	89 48 30	 mov	 DWORD PTR [rax+48], ecx

; 377  : 		return;

  00073	e9 8c 00 00 00	 jmp	 $LN1@schedulerL
$LN4@schedulerL:

; 378  : 	}
; 379  : 
; 380  : 
; 381  : 	int idx = 0;

  00078	c7 44 24 44 00
	00 00 00	 mov	 DWORD PTR idx$[rsp], 0

; 382  : 	pData = (STIntervalInfo *)pBasic->timeNext(&idx);

  00080	48 8d 54 24 44	 lea	 rdx, QWORD PTR idx$[rsp]
  00085	48 8b 4c 24 20	 mov	 rcx, QWORD PTR pBasic$[rsp]
  0008a	e8 00 00 00 00	 call	 ?timeNext@CScheduler@@QEAAPEAUSTIntervalInfo@@PEAH@Z ; CScheduler::timeNext
  0008f	48 89 44 24 28	 mov	 QWORD PTR pData$[rsp], rax
$LN2@schedulerL:

; 383  : 	while (pData)

  00094	48 83 7c 24 28
	00		 cmp	 QWORD PTR pData$[rsp], 0
  0009a	74 49		 je	 SHORT $LN3@schedulerL

; 384  : 	{
; 385  : 		if (!pData->nFlag) {

  0009c	48 8b 44 24 28	 mov	 rax, QWORD PTR pData$[rsp]
  000a1	83 78 04 00	 cmp	 DWORD PTR [rax+4], 0
  000a5	75 11		 jne	 SHORT $LN5@schedulerL

; 386  : 			pBasic->deleteTime(pData);

  000a7	48 8b 54 24 28	 mov	 rdx, QWORD PTR pData$[rsp]
  000ac	48 8b 4c 24 20	 mov	 rcx, QWORD PTR pBasic$[rsp]
  000b1	e8 00 00 00 00	 call	 ?deleteTime@CScheduler@@QEAA_NPEAUSTIntervalInfo@@@Z ; CScheduler::deleteTime

; 387  : 		}
; 388  : 		else 

  000b6	eb 0d		 jmp	 SHORT $LN6@schedulerL
$LN5@schedulerL:

; 389  : 		{
; 390  : 			pData->pFunction(pData);

  000b8	48 8b 4c 24 28	 mov	 rcx, QWORD PTR pData$[rsp]
  000bd	48 8b 44 24 28	 mov	 rax, QWORD PTR pData$[rsp]
  000c2	ff 50 20	 call	 QWORD PTR [rax+32]
$LN6@schedulerL:

; 391  : 		}
; 392  : 
; 393  : 		idx++;

  000c5	8b 44 24 44	 mov	 eax, DWORD PTR idx$[rsp]
  000c9	ff c0		 inc	 eax
  000cb	89 44 24 44	 mov	 DWORD PTR idx$[rsp], eax

; 394  : 		pData = (STIntervalInfo *)pBasic->timeNext(&idx);

  000cf	48 8d 54 24 44	 lea	 rdx, QWORD PTR idx$[rsp]
  000d4	48 8b 4c 24 20	 mov	 rcx, QWORD PTR pBasic$[rsp]
  000d9	e8 00 00 00 00	 call	 ?timeNext@CScheduler@@QEAAPEAUSTIntervalInfo@@PEAH@Z ; CScheduler::timeNext
  000de	48 89 44 24 28	 mov	 QWORD PTR pData$[rsp], rax

; 395  : 	}

  000e3	eb af		 jmp	 SHORT $LN2@schedulerL
$LN3@schedulerL:

; 396  : 	pBasic->setGoal();

  000e5	48 8b 4c 24 20	 mov	 rcx, QWORD PTR pBasic$[rsp]
  000ea	e8 00 00 00 00	 call	 ?setGoal@CScheduler@@QEAAXXZ ; CScheduler::setGoal

; 397  : 	p->millisecSleep = pBasic->getMilliSecHalf();

  000ef	48 8b 4c 24 20	 mov	 rcx, QWORD PTR pBasic$[rsp]
  000f4	e8 00 00 00 00	 call	 ?getMilliSecHalf@CScheduler@@QEAAHXZ ; CScheduler::getMilliSecHalf
  000f9	48 8b 8c 24 80
	00 00 00	 mov	 rcx, QWORD PTR p$[rsp]
  00101	89 41 30	 mov	 DWORD PTR [rcx+48], eax
$LN1@schedulerL:

; 398  : }

  00104	48 8b cc	 mov	 rcx, rsp
  00107	48 8d 15 00 00
	00 00		 lea	 rdx, OFFSET FLAT:?schedulerLoop@@YAXPEAUSTThreadInfo@@@Z$rtcFrameData
  0010e	e8 00 00 00 00	 call	 _RTC_CheckStackVars
  00113	48 8b 4c 24 60	 mov	 rcx, QWORD PTR __$ArrayPad$[rsp]
  00118	48 33 cc	 xor	 rcx, rsp
  0011b	e8 00 00 00 00	 call	 __security_check_cookie
  00120	48 83 c4 70	 add	 rsp, 112		; 00000070H
  00124	5f		 pop	 rdi
  00125	c3		 ret	 0
?schedulerLoop@@YAXPEAUSTThreadInfo@@@Z ENDP		; schedulerLoop
_TEXT	ENDS
; Function compile flags: /Odtp /RTCsu
;	COMDAT ??_ECSTLogger@@QEAAPEAXI@Z
_TEXT	SEGMENT
$T1 = 32
this$ = 64
__flags$ = 72
??_ECSTLogger@@QEAAPEAXI@Z PROC				; CSTLogger::`vector deleting destructor', COMDAT
$LN6:
  00000	89 54 24 10	 mov	 DWORD PTR [rsp+16], edx
  00004	48 89 4c 24 08	 mov	 QWORD PTR [rsp+8], rcx
  00009	57		 push	 rdi
  0000a	48 83 ec 30	 sub	 rsp, 48			; 00000030H
  0000e	48 8b fc	 mov	 rdi, rsp
  00011	b9 0c 00 00 00	 mov	 ecx, 12
  00016	b8 cc cc cc cc	 mov	 eax, -858993460		; ccccccccH
  0001b	f3 ab		 rep stosd
  0001d	48 8b 4c 24 40	 mov	 rcx, QWORD PTR [rsp+64]
  00022	48 c7 44 24 20
	fe ff ff ff	 mov	 QWORD PTR $T1[rsp], -2
  0002b	8b 44 24 48	 mov	 eax, DWORD PTR __flags$[rsp]
  0002f	83 e0 02	 and	 eax, 2
  00032	85 c0		 test	 eax, eax
  00034	74 56		 je	 SHORT $LN2@vector
  00036	4c 8d 0d 00 00
	00 00		 lea	 r9, OFFSET FLAT:??1CSTLogger@@QEAA@XZ ; CSTLogger::~CSTLogger
  0003d	48 8b 44 24 40	 mov	 rax, QWORD PTR this$[rsp]
  00042	4c 8b 40 f8	 mov	 r8, QWORD PTR [rax-8]
  00046	ba 58 00 00 00	 mov	 edx, 88			; 00000058H
  0004b	48 8b 4c 24 40	 mov	 rcx, QWORD PTR this$[rsp]
  00050	e8 00 00 00 00	 call	 ??_M@YAXPEAX_K1P6AX0@Z@Z
  00055	90		 npad	 1
  00056	8b 44 24 48	 mov	 eax, DWORD PTR __flags$[rsp]
  0005a	83 e0 01	 and	 eax, 1
  0005d	85 c0		 test	 eax, eax
  0005f	74 20		 je	 SHORT $LN3@vector
  00061	48 8b 44 24 40	 mov	 rax, QWORD PTR this$[rsp]
  00066	48 6b 40 f8 58	 imul	 rax, QWORD PTR [rax-8], 88 ; 00000058H
  0006b	48 83 c0 08	 add	 rax, 8
  0006f	48 8b 4c 24 40	 mov	 rcx, QWORD PTR this$[rsp]
  00074	48 83 e9 08	 sub	 rcx, 8
  00078	48 8b d0	 mov	 rdx, rax
  0007b	e8 00 00 00 00	 call	 ??_V@YAXPEAX_K@Z	; operator delete[]
  00080	90		 npad	 1
$LN3@vector:
  00081	48 8b 44 24 40	 mov	 rax, QWORD PTR this$[rsp]
  00086	48 83 e8 08	 sub	 rax, 8
  0008a	eb 2b		 jmp	 SHORT $LN1@vector
$LN2@vector:
  0008c	48 8b 4c 24 40	 mov	 rcx, QWORD PTR this$[rsp]
  00091	e8 00 00 00 00	 call	 ??1CSTLogger@@QEAA@XZ	; CSTLogger::~CSTLogger
  00096	90		 npad	 1
  00097	8b 44 24 48	 mov	 eax, DWORD PTR __flags$[rsp]
  0009b	83 e0 01	 and	 eax, 1
  0009e	85 c0		 test	 eax, eax
  000a0	74 10		 je	 SHORT $LN4@vector
  000a2	ba 58 00 00 00	 mov	 edx, 88			; 00000058H
  000a7	48 8b 4c 24 40	 mov	 rcx, QWORD PTR this$[rsp]
  000ac	e8 00 00 00 00	 call	 ??3@YAXPEAX_K@Z		; operator delete
  000b1	90		 npad	 1
$LN4@vector:
  000b2	48 8b 44 24 40	 mov	 rax, QWORD PTR this$[rsp]
$LN1@vector:
  000b7	48 83 c4 30	 add	 rsp, 48			; 00000030H
  000bb	5f		 pop	 rdi
  000bc	c3		 ret	 0
??_ECSTLogger@@QEAAPEAXI@Z ENDP				; CSTLogger::`vector deleting destructor'
_TEXT	ENDS
; Function compile flags: /Odtp /RTCsu
;	COMDAT ??_GCSTLogger@@QEAAPEAXI@Z
_TEXT	SEGMENT
this$ = 48
__flags$ = 56
??_GCSTLogger@@QEAAPEAXI@Z PROC				; CSTLogger::`scalar deleting destructor', COMDAT
$LN4:
  00000	89 54 24 10	 mov	 DWORD PTR [rsp+16], edx
  00004	48 89 4c 24 08	 mov	 QWORD PTR [rsp+8], rcx
  00009	57		 push	 rdi
  0000a	48 83 ec 20	 sub	 rsp, 32			; 00000020H
  0000e	48 8b fc	 mov	 rdi, rsp
  00011	b9 08 00 00 00	 mov	 ecx, 8
  00016	b8 cc cc cc cc	 mov	 eax, -858993460		; ccccccccH
  0001b	f3 ab		 rep stosd
  0001d	48 8b 4c 24 30	 mov	 rcx, QWORD PTR [rsp+48]
  00022	48 8b 4c 24 30	 mov	 rcx, QWORD PTR this$[rsp]
  00027	e8 00 00 00 00	 call	 ??1CSTLogger@@QEAA@XZ	; CSTLogger::~CSTLogger
  0002c	8b 44 24 38	 mov	 eax, DWORD PTR __flags$[rsp]
  00030	83 e0 01	 and	 eax, 1
  00033	85 c0		 test	 eax, eax
  00035	74 0f		 je	 SHORT $LN2@scalar
  00037	ba 58 00 00 00	 mov	 edx, 88			; 00000058H
  0003c	48 8b 4c 24 30	 mov	 rcx, QWORD PTR this$[rsp]
  00041	e8 00 00 00 00	 call	 ??3@YAXPEAX_K@Z		; operator delete
$LN2@scalar:
  00046	48 8b 44 24 30	 mov	 rax, QWORD PTR this$[rsp]
  0004b	48 83 c4 20	 add	 rsp, 32			; 00000020H
  0004f	5f		 pop	 rdi
  00050	c3		 ret	 0
??_GCSTLogger@@QEAAPEAXI@Z ENDP				; CSTLogger::`scalar deleting destructor'
_TEXT	ENDS
; Function compile flags: /Odtp /RTCsu
; File e:\infinia-library-3.0\com\src\comcore.cpp
_TEXT	SEGMENT
$T1 = 32
$T2 = 40
$T3 = 48
$T4 = 56
$T5 = 64
tv78 = 72
tv130 = 80
this$ = 112
nCount$ = 120
?_init@CSTLogger@@AEAA_NH@Z PROC			; CSTLogger::_init

; 132  : bool CSTLogger::_init(int nCount) {

$LN11:
  00000	89 54 24 10	 mov	 DWORD PTR [rsp+16], edx
  00004	48 89 4c 24 08	 mov	 QWORD PTR [rsp+8], rcx
  00009	57		 push	 rdi
  0000a	48 83 ec 60	 sub	 rsp, 96			; 00000060H
  0000e	48 8b fc	 mov	 rdi, rsp
  00011	b9 18 00 00 00	 mov	 ecx, 24
  00016	b8 cc cc cc cc	 mov	 eax, -858993460		; ccccccccH
  0001b	f3 ab		 rep stosd
  0001d	48 8b 4c 24 70	 mov	 rcx, QWORD PTR [rsp+112]
  00022	48 c7 44 24 40
	fe ff ff ff	 mov	 QWORD PTR $T5[rsp], -2

; 133  : 	m_pLoggerList = new CTList<CLogger>();

  0002b	b9 20 00 00 00	 mov	 ecx, 32			; 00000020H
  00030	e8 00 00 00 00	 call	 ??2@YAPEAX_K@Z		; operator new
  00035	48 89 44 24 28	 mov	 QWORD PTR $T2[rsp], rax
  0003a	48 83 7c 24 28
	00		 cmp	 QWORD PTR $T2[rsp], 0
  00040	74 20		 je	 SHORT $LN5@init
  00042	ba 20 00 00 00	 mov	 edx, 32			; 00000020H
  00047	48 8b 4c 24 28	 mov	 rcx, QWORD PTR $T2[rsp]
  0004c	e8 00 00 00 00	 call	 ?__autoclassinit2@?$CTList@VCLogger@@@@QEAAX_K@Z
  00051	48 8b 4c 24 28	 mov	 rcx, QWORD PTR $T2[rsp]
  00056	e8 00 00 00 00	 call	 ??0?$CTList@VCLogger@@@@QEAA@XZ ; CTList<CLogger>::CTList<CLogger>
  0005b	48 89 44 24 48	 mov	 QWORD PTR tv78[rsp], rax
  00060	eb 09		 jmp	 SHORT $LN6@init
$LN5@init:
  00062	48 c7 44 24 48
	00 00 00 00	 mov	 QWORD PTR tv78[rsp], 0
$LN6@init:
  0006b	48 8b 44 24 48	 mov	 rax, QWORD PTR tv78[rsp]
  00070	48 89 44 24 20	 mov	 QWORD PTR $T1[rsp], rax
  00075	48 8b 44 24 70	 mov	 rax, QWORD PTR this$[rsp]
  0007a	48 8b 4c 24 20	 mov	 rcx, QWORD PTR $T1[rsp]
  0007f	48 89 48 48	 mov	 QWORD PTR [rax+72], rcx

; 134  : 	if (!m_pLoggerList->alloc(nCount, eAlloc_Type_none)) return false;

  00083	45 33 c0	 xor	 r8d, r8d
  00086	8b 54 24 78	 mov	 edx, DWORD PTR nCount$[rsp]
  0008a	48 8b 44 24 70	 mov	 rax, QWORD PTR this$[rsp]
  0008f	48 8b 48 48	 mov	 rcx, QWORD PTR [rax+72]
  00093	e8 00 00 00 00	 call	 ?alloc@?$CTList@VCLogger@@@@QEAAHHW4E_ALLOC_TYPE@@@Z ; CTList<CLogger>::alloc
  00098	85 c0		 test	 eax, eax
  0009a	75 04		 jne	 SHORT $LN2@init
  0009c	32 c0		 xor	 al, al
  0009e	eb 7b		 jmp	 SHORT $LN1@init
$LN2@init:

; 135  : 	m_pComandList = new CQueueS();

  000a0	b9 60 00 00 00	 mov	 ecx, 96			; 00000060H
  000a5	e8 00 00 00 00	 call	 ??2@YAPEAX_K@Z		; operator new
  000aa	48 89 44 24 38	 mov	 QWORD PTR $T4[rsp], rax
  000af	48 83 7c 24 38
	00		 cmp	 QWORD PTR $T4[rsp], 0
  000b5	74 20		 je	 SHORT $LN7@init
  000b7	ba 60 00 00 00	 mov	 edx, 96			; 00000060H
  000bc	48 8b 4c 24 38	 mov	 rcx, QWORD PTR $T4[rsp]
  000c1	e8 00 00 00 00	 call	 ?__autoclassinit2@CQueueS@@QEAAX_K@Z
  000c6	48 8b 4c 24 38	 mov	 rcx, QWORD PTR $T4[rsp]
  000cb	e8 00 00 00 00	 call	 ??0CQueueS@@QEAA@XZ	; CQueueS::CQueueS
  000d0	48 89 44 24 50	 mov	 QWORD PTR tv130[rsp], rax
  000d5	eb 09		 jmp	 SHORT $LN8@init
$LN7@init:
  000d7	48 c7 44 24 50
	00 00 00 00	 mov	 QWORD PTR tv130[rsp], 0
$LN8@init:
  000e0	48 8b 44 24 50	 mov	 rax, QWORD PTR tv130[rsp]
  000e5	48 89 44 24 30	 mov	 QWORD PTR $T3[rsp], rax
  000ea	48 8b 44 24 70	 mov	 rax, QWORD PTR this$[rsp]
  000ef	48 8b 4c 24 30	 mov	 rcx, QWORD PTR $T3[rsp]
  000f4	48 89 48 50	 mov	 QWORD PTR [rax+80], rcx

; 136  : 	if (!m_pComandList->alloc(10, eAlloc_Type_none)) return false;

  000f8	45 33 c0	 xor	 r8d, r8d
  000fb	ba 0a 00 00 00	 mov	 edx, 10
  00100	48 8b 44 24 70	 mov	 rax, QWORD PTR this$[rsp]
  00105	48 8b 48 50	 mov	 rcx, QWORD PTR [rax+80]
  00109	e8 00 00 00 00	 call	 ?alloc@CQueueS@@QEAA_NHW4E_ALLOC_TYPE@@@Z ; CQueueS::alloc
  0010e	0f b6 c0	 movzx	 eax, al
  00111	85 c0		 test	 eax, eax
  00113	75 04		 jne	 SHORT $LN3@init
  00115	32 c0		 xor	 al, al
  00117	eb 02		 jmp	 SHORT $LN1@init
$LN3@init:

; 137  : 	return true;

  00119	b0 01		 mov	 al, 1
$LN1@init:

; 138  : }

  0011b	48 83 c4 60	 add	 rsp, 96			; 00000060H
  0011f	5f		 pop	 rdi
  00120	c3		 ret	 0
?_init@CSTLogger@@AEAA_NH@Z ENDP			; CSTLogger::_init
_TEXT	ENDS
text$x	SEGMENT
$T1 = 32
$T2 = 40
$T3 = 48
$T4 = 56
$T5 = 64
tv78 = 72
tv130 = 80
this$ = 112
nCount$ = 120
?dtor$0@?0??_init@CSTLogger@@AEAA_NH@Z@4HA PROC		; `CSTLogger::_init'::`1'::dtor$0
  00000	48 89 4c 24 08	 mov	 QWORD PTR [rsp+8], rcx
  00005	48 89 54 24 10	 mov	 QWORD PTR [rsp+16], rdx
  0000a	55		 push	 rbp
  0000b	57		 push	 rdi
  0000c	48 83 ec 28	 sub	 rsp, 40			; 00000028H
  00010	48 8b ea	 mov	 rbp, rdx
  00013	ba 20 00 00 00	 mov	 edx, 32			; 00000020H
  00018	48 8b 4d 28	 mov	 rcx, QWORD PTR $T2[rbp]
  0001c	e8 00 00 00 00	 call	 ??3@YAXPEAX_K@Z		; operator delete
  00021	48 83 c4 28	 add	 rsp, 40			; 00000028H
  00025	5f		 pop	 rdi
  00026	5d		 pop	 rbp
  00027	c3		 ret	 0
?dtor$0@?0??_init@CSTLogger@@AEAA_NH@Z@4HA ENDP		; `CSTLogger::_init'::`1'::dtor$0
$T1 = 32
$T2 = 40
$T3 = 48
$T4 = 56
$T5 = 64
tv78 = 72
tv130 = 80
this$ = 112
nCount$ = 120
?dtor$1@?0??_init@CSTLogger@@AEAA_NH@Z@4HA PROC		; `CSTLogger::_init'::`1'::dtor$1
  00028	48 89 4c 24 08	 mov	 QWORD PTR [rsp+8], rcx
  0002d	48 89 54 24 10	 mov	 QWORD PTR [rsp+16], rdx
  00032	55		 push	 rbp
  00033	57		 push	 rdi
  00034	48 83 ec 28	 sub	 rsp, 40			; 00000028H
  00038	48 8b ea	 mov	 rbp, rdx
  0003b	ba 60 00 00 00	 mov	 edx, 96			; 00000060H
  00040	48 8b 4d 38	 mov	 rcx, QWORD PTR $T4[rbp]
  00044	e8 00 00 00 00	 call	 ??3@YAXPEAX_K@Z		; operator delete
  00049	48 83 c4 28	 add	 rsp, 40			; 00000028H
  0004d	5f		 pop	 rdi
  0004e	5d		 pop	 rbp
  0004f	c3		 ret	 0
?dtor$1@?0??_init@CSTLogger@@AEAA_NH@Z@4HA ENDP		; `CSTLogger::_init'::`1'::dtor$1
text$x	ENDS
; Function compile flags: /Odtp /RTCsu
text$x	SEGMENT
$T1 = 32
$T2 = 40
$T3 = 48
$T4 = 56
$T5 = 64
tv78 = 72
tv130 = 80
this$ = 112
nCount$ = 120
?dtor$0@?0??_init@CSTLogger@@AEAA_NH@Z@4HA PROC		; `CSTLogger::_init'::`1'::dtor$0
  00000	48 89 4c 24 08	 mov	 QWORD PTR [rsp+8], rcx
  00005	48 89 54 24 10	 mov	 QWORD PTR [rsp+16], rdx
  0000a	55		 push	 rbp
  0000b	57		 push	 rdi
  0000c	48 83 ec 28	 sub	 rsp, 40			; 00000028H
  00010	48 8b ea	 mov	 rbp, rdx
  00013	ba 20 00 00 00	 mov	 edx, 32			; 00000020H
  00018	48 8b 4d 28	 mov	 rcx, QWORD PTR $T2[rbp]
  0001c	e8 00 00 00 00	 call	 ??3@YAXPEAX_K@Z		; operator delete
  00021	48 83 c4 28	 add	 rsp, 40			; 00000028H
  00025	5f		 pop	 rdi
  00026	5d		 pop	 rbp
  00027	c3		 ret	 0
?dtor$0@?0??_init@CSTLogger@@AEAA_NH@Z@4HA ENDP		; `CSTLogger::_init'::`1'::dtor$0
text$x	ENDS
; Function compile flags: /Odtp /RTCsu
text$x	SEGMENT
$T1 = 32
$T2 = 40
$T3 = 48
$T4 = 56
$T5 = 64
tv78 = 72
tv130 = 80
this$ = 112
nCount$ = 120
?dtor$1@?0??_init@CSTLogger@@AEAA_NH@Z@4HA PROC		; `CSTLogger::_init'::`1'::dtor$1
  00028	48 89 4c 24 08	 mov	 QWORD PTR [rsp+8], rcx
  0002d	48 89 54 24 10	 mov	 QWORD PTR [rsp+16], rdx
  00032	55		 push	 rbp
  00033	57		 push	 rdi
  00034	48 83 ec 28	 sub	 rsp, 40			; 00000028H
  00038	48 8b ea	 mov	 rbp, rdx
  0003b	ba 60 00 00 00	 mov	 edx, 96			; 00000060H
  00040	48 8b 4d 38	 mov	 rcx, QWORD PTR $T4[rbp]
  00044	e8 00 00 00 00	 call	 ??3@YAXPEAX_K@Z		; operator delete
  00049	48 83 c4 28	 add	 rsp, 40			; 00000028H
  0004d	5f		 pop	 rdi
  0004e	5d		 pop	 rbp
  0004f	c3		 ret	 0
?dtor$1@?0??_init@CSTLogger@@AEAA_NH@Z@4HA ENDP		; `CSTLogger::_init'::`1'::dtor$1
text$x	ENDS
; Function compile flags: /Odtp /RTCsu
; File e:\infinia-library-3.0\com\include\comcore.h
;	COMDAT ?pushCommand@CSTLogger@@QEAA_NPEAUSTLCommand@@@Z
_TEXT	SEGMENT
this$ = 48
p$ = 56
?pushCommand@CSTLogger@@QEAA_NPEAUSTLCommand@@@Z PROC	; CSTLogger::pushCommand, COMDAT

; 119  : 	inline bool pushCommand(STLCommand *p) {if(m_pComandList->push(p)) { m_cThread.sendSignal(); return true; } return false;}

$LN4:
  00000	48 89 54 24 10	 mov	 QWORD PTR [rsp+16], rdx
  00005	48 89 4c 24 08	 mov	 QWORD PTR [rsp+8], rcx
  0000a	57		 push	 rdi
  0000b	48 83 ec 20	 sub	 rsp, 32			; 00000020H
  0000f	48 8b fc	 mov	 rdi, rsp
  00012	b9 08 00 00 00	 mov	 ecx, 8
  00017	b8 cc cc cc cc	 mov	 eax, -858993460		; ccccccccH
  0001c	f3 ab		 rep stosd
  0001e	48 8b 4c 24 30	 mov	 rcx, QWORD PTR [rsp+48]
  00023	48 8b 54 24 38	 mov	 rdx, QWORD PTR p$[rsp]
  00028	48 8b 44 24 30	 mov	 rax, QWORD PTR this$[rsp]
  0002d	48 8b 48 50	 mov	 rcx, QWORD PTR [rax+80]
  00031	e8 00 00 00 00	 call	 ?push@CQueueS@@QEAA_NPEAX@Z ; CQueueS::push
  00036	0f b6 c0	 movzx	 eax, al
  00039	85 c0		 test	 eax, eax
  0003b	74 11		 je	 SHORT $LN2@pushComman
  0003d	48 8b 44 24 30	 mov	 rax, QWORD PTR this$[rsp]
  00042	48 8b c8	 mov	 rcx, rax
  00045	e8 00 00 00 00	 call	 ?sendSignal@CComThread@@QEAAXXZ ; CComThread::sendSignal
  0004a	b0 01		 mov	 al, 1
  0004c	eb 02		 jmp	 SHORT $LN1@pushComman
$LN2@pushComman:
  0004e	32 c0		 xor	 al, al
$LN1@pushComman:
  00050	48 83 c4 20	 add	 rsp, 32			; 00000020H
  00054	5f		 pop	 rdi
  00055	c3		 ret	 0
?pushCommand@CSTLogger@@QEAA_NPEAUSTLCommand@@@Z ENDP	; CSTLogger::pushCommand
_TEXT	ENDS
; Function compile flags: /Odtp /RTCsu
; File e:\infinia-library-3.0\com\src\comcore.cpp
_TEXT	SEGMENT
nCount$ = 32
pData$ = 40
nLen$1 = 48
this$ = 80
pLogger$ = 88
?porcLoggerDisable@CSTLogger@@QEAAXPEAVCLogger@@@Z PROC	; CSTLogger::porcLoggerDisable

; 208  : {

$LN5:
  00000	48 89 54 24 10	 mov	 QWORD PTR [rsp+16], rdx
  00005	48 89 4c 24 08	 mov	 QWORD PTR [rsp+8], rcx
  0000a	57		 push	 rdi
  0000b	48 83 ec 40	 sub	 rsp, 64			; 00000040H
  0000f	48 8b fc	 mov	 rdi, rsp
  00012	b9 10 00 00 00	 mov	 ecx, 16
  00017	b8 cc cc cc cc	 mov	 eax, -858993460		; ccccccccH
  0001c	f3 ab		 rep stosd
  0001e	48 8b 4c 24 50	 mov	 rcx, QWORD PTR [rsp+80]

; 209  : 	int nCount = 0;

  00023	c7 44 24 20 00
	00 00 00	 mov	 DWORD PTR nCount$[rsp], 0

; 210  : 	TCHAR *pData = pLogger->pop();

  0002b	48 8b 4c 24 58	 mov	 rcx, QWORD PTR pLogger$[rsp]
  00030	e8 00 00 00 00	 call	 ?pop@CLogger@@QEAAPEADXZ ; CLogger::pop
  00035	48 89 44 24 28	 mov	 QWORD PTR pData$[rsp], rax
$LN2@porcLogger:

; 211  : 	while (pData)

  0003a	48 83 7c 24 28
	00		 cmp	 QWORD PTR pData$[rsp], 0
  00040	74 5e		 je	 SHORT $LN3@porcLogger

; 212  : 	{
; 213  : 		int nLen = (int)_tcslen(pData) + 1;

  00042	48 8b 4c 24 28	 mov	 rcx, QWORD PTR pData$[rsp]
  00047	e8 00 00 00 00	 call	 strlen
  0004c	ff c0		 inc	 eax
  0004e	89 44 24 30	 mov	 DWORD PTR nLen$1[rsp], eax

; 214  : 		pLogger->LogPrint(pData);

  00052	48 8b 54 24 28	 mov	 rdx, QWORD PTR pData$[rsp]
  00057	48 8b 4c 24 58	 mov	 rcx, QWORD PTR pLogger$[rsp]
  0005c	e8 00 00 00 00	 call	 ?LogPrint@CLogger@@QEAAXPEAD@Z ; CLogger::LogPrint

; 215  : 		pLogger->addLogSize(nLen);

  00061	8b 54 24 30	 mov	 edx, DWORD PTR nLen$1[rsp]
  00065	48 8b 4c 24 58	 mov	 rcx, QWORD PTR pLogger$[rsp]
  0006a	e8 00 00 00 00	 call	 ?addLogSize@CLogger@@QEAAXH@Z ; CLogger::addLogSize

; 216  : 		gs_pMMgr->delBuf(pData, nLen);

  0006f	44 8b 44 24 30	 mov	 r8d, DWORD PTR nLen$1[rsp]
  00074	48 8b 54 24 28	 mov	 rdx, QWORD PTR pData$[rsp]
  00079	48 8b 0d 00 00
	00 00		 mov	 rcx, QWORD PTR ?gs_pMMgr@@3PEAVCMemManager@@EA ; gs_pMMgr
  00080	e8 00 00 00 00	 call	 ?delBuf@CMemManager@@QEAAXPEADH@Z ; CMemManager::delBuf

; 217  : 		nCount++;

  00085	8b 44 24 20	 mov	 eax, DWORD PTR nCount$[rsp]
  00089	ff c0		 inc	 eax
  0008b	89 44 24 20	 mov	 DWORD PTR nCount$[rsp], eax

; 218  : 		pData = pLogger->pop();

  0008f	48 8b 4c 24 58	 mov	 rcx, QWORD PTR pLogger$[rsp]
  00094	e8 00 00 00 00	 call	 ?pop@CLogger@@QEAAPEADXZ ; CLogger::pop
  00099	48 89 44 24 28	 mov	 QWORD PTR pData$[rsp], rax

; 219  : 
; 220  : 	}

  0009e	eb 9a		 jmp	 SHORT $LN2@porcLogger
$LN3@porcLogger:

; 221  : 	pLogger->disable();

  000a0	48 8b 4c 24 58	 mov	 rcx, QWORD PTR pLogger$[rsp]
  000a5	e8 00 00 00 00	 call	 ?disable@CLogger@@QEAAXXZ ; CLogger::disable

; 222  : 	m_pLoggerList->del(pLogger);

  000aa	48 8b 54 24 58	 mov	 rdx, QWORD PTR pLogger$[rsp]
  000af	48 8b 44 24 50	 mov	 rax, QWORD PTR this$[rsp]
  000b4	48 8b 48 48	 mov	 rcx, QWORD PTR [rax+72]
  000b8	e8 00 00 00 00	 call	 ?del@?$CTList@VCLogger@@@@QEAA_NPEAVCLogger@@@Z ; CTList<CLogger>::del

; 223  : 	pLogger->clearLogFlag(IS_LOG_ENABLE);

  000bd	ba 00 00 08 00	 mov	 edx, 524288		; 00080000H
  000c2	48 8b 4c 24 58	 mov	 rcx, QWORD PTR pLogger$[rsp]
  000c7	e8 00 00 00 00	 call	 ?clearLogFlag@CLogger@@QEAAXW4E_LOG_FLAG@@@Z ; CLogger::clearLogFlag

; 224  : 	printf("writeCount[%d] [%s] porcLoggerDisable\n", nCount, pLogger->getLogName());

  000cc	48 8b 4c 24 58	 mov	 rcx, QWORD PTR pLogger$[rsp]
  000d1	e8 00 00 00 00	 call	 ?getLogName@CLogger@@QEAAPEADXZ ; CLogger::getLogName
  000d6	4c 8b c0	 mov	 r8, rax
  000d9	8b 54 24 20	 mov	 edx, DWORD PTR nCount$[rsp]
  000dd	48 8d 0d 00 00
	00 00		 lea	 rcx, OFFSET FLAT:$SG45442
  000e4	e8 00 00 00 00	 call	 printf

; 225  : }

  000e9	48 83 c4 40	 add	 rsp, 64			; 00000040H
  000ed	5f		 pop	 rdi
  000ee	c3		 ret	 0
?porcLoggerDisable@CSTLogger@@QEAAXPEAVCLogger@@@Z ENDP	; CSTLogger::porcLoggerDisable
_TEXT	ENDS
; Function compile flags: /Odtp /RTCsu
; File e:\infinia-library-3.0\com\src\comcore.cpp
_TEXT	SEGMENT
this$ = 48
pLogger$ = 56
?procLoggerEnable@CSTLogger@@QEAAXPEAVCLogger@@@Z PROC	; CSTLogger::procLoggerEnable

; 176  : {

$LN12:
  00000	48 89 54 24 10	 mov	 QWORD PTR [rsp+16], rdx
  00005	48 89 4c 24 08	 mov	 QWORD PTR [rsp+8], rcx
  0000a	57		 push	 rdi
  0000b	48 83 ec 20	 sub	 rsp, 32			; 00000020H
  0000f	48 8b fc	 mov	 rdi, rsp
  00012	b9 08 00 00 00	 mov	 ecx, 8
  00017	b8 cc cc cc cc	 mov	 eax, -858993460		; ccccccccH
  0001c	f3 ab		 rep stosd
  0001e	48 8b 4c 24 30	 mov	 rcx, QWORD PTR [rsp+48]

; 177  : 	if (pLogger->isLogFlag(IS_LOG_ENABLE)) {

  00023	ba 00 00 08 00	 mov	 edx, 524288		; 00080000H
  00028	48 8b 4c 24 38	 mov	 rcx, QWORD PTR pLogger$[rsp]
  0002d	e8 00 00 00 00	 call	 ?isLogFlag@CLogger@@QEAA_NW4E_LOG_FLAG@@@Z ; CLogger::isLogFlag
  00032	0f b6 c0	 movzx	 eax, al
  00035	85 c0		 test	 eax, eax
  00037	74 13		 je	 SHORT $LN2@procLogger

; 178  : 		printf("Logger is already Enabled!");

  00039	48 8d 0d 00 00
	00 00		 lea	 rcx, OFFSET FLAT:$SG45419
  00040	e8 00 00 00 00	 call	 printf

; 179  : 		return ;

  00045	e9 ed 00 00 00	 jmp	 $LN1@procLogger
  0004a	eb 58		 jmp	 SHORT $LN3@procLogger
$LN2@procLogger:

; 180  : 	}
; 181  : 	else if (pLogger->isLogFlag(IS_LOG_OPEN)) {}

  0004c	ba 00 00 04 00	 mov	 edx, 262144		; 00040000H
  00051	48 8b 4c 24 38	 mov	 rcx, QWORD PTR pLogger$[rsp]
  00056	e8 00 00 00 00	 call	 ?isLogFlag@CLogger@@QEAA_NW4E_LOG_FLAG@@@Z ; CLogger::isLogFlag
  0005b	0f b6 c0	 movzx	 eax, al
  0005e	85 c0		 test	 eax, eax
  00060	74 02		 je	 SHORT $LN4@procLogger
  00062	eb 40		 jmp	 SHORT $LN5@procLogger
$LN4@procLogger:

; 182  : 	else if (pLogger->isLogFlag(IS_LOG_SET_COMPLETE)) {

  00064	ba 00 00 02 00	 mov	 edx, 131072		; 00020000H
  00069	48 8b 4c 24 38	 mov	 rcx, QWORD PTR pLogger$[rsp]
  0006e	e8 00 00 00 00	 call	 ?isLogFlag@CLogger@@QEAA_NW4E_LOG_FLAG@@@Z ; CLogger::isLogFlag
  00073	0f b6 c0	 movzx	 eax, al
  00076	85 c0		 test	 eax, eax
  00078	74 0c		 je	 SHORT $LN6@procLogger

; 183  : 		pLogger->OpenLogger();

  0007a	48 8b 4c 24 38	 mov	 rcx, QWORD PTR pLogger$[rsp]
  0007f	e8 00 00 00 00	 call	 ?OpenLogger@CLogger@@QEAAXXZ ; CLogger::OpenLogger

; 184  : 	}
; 185  : 	else {

  00084	eb 1e		 jmp	 SHORT $LN7@procLogger
$LN6@procLogger:

; 186  : 		comErrorPrint("Logger has not Initialized!");

  00086	41 b8 ba 00 00
	00		 mov	 r8d, 186		; 000000baH
  0008c	48 8d 15 00 00
	00 00		 lea	 rdx, OFFSET FLAT:$SG45424
  00093	48 8d 0d 00 00
	00 00		 lea	 rcx, OFFSET FLAT:$SG45425
  0009a	e8 00 00 00 00	 call	 ?comGlobalErrorProc@@YAXPEADPEBDH@Z ; comGlobalErrorProc

; 187  : 		return ;

  0009f	e9 93 00 00 00	 jmp	 $LN1@procLogger
$LN7@procLogger:
$LN5@procLogger:
$LN3@procLogger:

; 188  : 	}
; 189  : 
; 190  : 	// input
; 191  : 	if (m_pLoggerList->IsExist(pLogger)) {

  000a4	48 8b 54 24 38	 mov	 rdx, QWORD PTR pLogger$[rsp]
  000a9	48 8b 44 24 30	 mov	 rax, QWORD PTR this$[rsp]
  000ae	48 8b 48 48	 mov	 rcx, QWORD PTR [rax+72]
  000b2	e8 00 00 00 00	 call	 ?IsExist@?$CTList@VCLogger@@@@QEAA_NPEAVCLogger@@@Z ; CTList<CLogger>::IsExist
  000b7	0f b6 c0	 movzx	 eax, al
  000ba	85 c0		 test	 eax, eax
  000bc	74 10		 je	 SHORT $LN8@procLogger

; 192  : 		printf("Logger already exist!\n");

  000be	48 8d 0d 00 00
	00 00		 lea	 rcx, OFFSET FLAT:$SG45428
  000c5	e8 00 00 00 00	 call	 printf

; 193  : 		return;

  000ca	eb 6b		 jmp	 SHORT $LN1@procLogger

; 194  : 	}
; 195  : 	else {

  000cc	eb 41		 jmp	 SHORT $LN9@procLogger
$LN8@procLogger:

; 196  : 		pLogger->setCondition(&m_cThread.m_stInfo.cThreadCond);

  000ce	48 8b 44 24 30	 mov	 rax, QWORD PTR this$[rsp]
  000d3	48 83 c0 10	 add	 rax, 16
  000d7	48 8b d0	 mov	 rdx, rax
  000da	48 8b 4c 24 38	 mov	 rcx, QWORD PTR pLogger$[rsp]
  000df	e8 00 00 00 00	 call	 ?setCondition@CLogger@@QEAAXPEAVcondition@win32@common@@@Z ; CLogger::setCondition

; 197  : 		if (!m_pLoggerList->push_back(pLogger)) {

  000e4	45 33 c0	 xor	 r8d, r8d
  000e7	48 8b 54 24 38	 mov	 rdx, QWORD PTR pLogger$[rsp]
  000ec	48 8b 44 24 30	 mov	 rax, QWORD PTR this$[rsp]
  000f1	48 8b 48 48	 mov	 rcx, QWORD PTR [rax+72]
  000f5	e8 00 00 00 00	 call	 ?push_back@?$CTList@VCLogger@@@@QEAA_NPEAVCLogger@@PEAH@Z ; CTList<CLogger>::push_back
  000fa	0f b6 c0	 movzx	 eax, al
  000fd	85 c0		 test	 eax, eax
  000ff	75 0e		 jne	 SHORT $LN10@procLogger

; 198  : 			printf("m_pLoggerList->push_back failed!\n");

  00101	48 8d 0d 00 00
	00 00		 lea	 rcx, OFFSET FLAT:$SG45430
  00108	e8 00 00 00 00	 call	 printf

; 199  : 			return;

  0010d	eb 28		 jmp	 SHORT $LN1@procLogger
$LN10@procLogger:
$LN9@procLogger:

; 200  : 		}
; 201  : 	}
; 202  : 	pLogger->setLogFlag(IS_LOG_ENABLE);

  0010f	ba 00 00 08 00	 mov	 edx, 524288		; 00080000H
  00114	48 8b 4c 24 38	 mov	 rcx, QWORD PTR pLogger$[rsp]
  00119	e8 00 00 00 00	 call	 ?setLogFlag@CLogger@@QEAAXW4E_LOG_FLAG@@@Z ; CLogger::setLogFlag

; 203  : 	printf("[%s] procLoggerEnable\n", pLogger->getLogName());

  0011e	48 8b 4c 24 38	 mov	 rcx, QWORD PTR pLogger$[rsp]
  00123	e8 00 00 00 00	 call	 ?getLogName@CLogger@@QEAAPEADXZ ; CLogger::getLogName
  00128	48 8b d0	 mov	 rdx, rax
  0012b	48 8d 0d 00 00
	00 00		 lea	 rcx, OFFSET FLAT:$SG45431
  00132	e8 00 00 00 00	 call	 printf
$LN1@procLogger:

; 204  : 
; 205  : }

  00137	48 83 c4 20	 add	 rsp, 32			; 00000020H
  0013b	5f		 pop	 rdi
  0013c	c3		 ret	 0
?procLoggerEnable@CSTLogger@@QEAAXPEAVCLogger@@@Z ENDP	; CSTLogger::procLoggerEnable
_TEXT	ENDS
; Function compile flags: /Odtp /RTCsu
; File e:\infinia-library-3.0\com\src\comcore.cpp
_TEXT	SEGMENT
ltm$ = 48
nFlag$ = 164
idx$5 = 180
pLogger$6 = 200
$T7 = 216
__$ArrayPad$ = 224
this$ = 256
?TimeProc@CSTLogger@@QEAAXXZ PROC			; CSTLogger::TimeProc

; 270  : {

$LN10:
  00000	48 89 4c 24 08	 mov	 QWORD PTR [rsp+8], rcx
  00005	57		 push	 rdi
  00006	48 81 ec f0 00
	00 00		 sub	 rsp, 240		; 000000f0H
  0000d	48 8b fc	 mov	 rdi, rsp
  00010	b9 3c 00 00 00	 mov	 ecx, 60			; 0000003cH
  00015	b8 cc cc cc cc	 mov	 eax, -858993460		; ccccccccH
  0001a	f3 ab		 rep stosd
  0001c	48 8b 8c 24 00
	01 00 00	 mov	 rcx, QWORD PTR [rsp+256]
  00024	48 c7 84 24 d8
	00 00 00 fe ff
	ff ff		 mov	 QWORD PTR $T7[rsp], -2
  00030	48 8b 05 00 00
	00 00		 mov	 rax, QWORD PTR __security_cookie
  00037	48 33 c4	 xor	 rax, rsp
  0003a	48 89 84 24 e0
	00 00 00	 mov	 QWORD PTR __$ArrayPad$[rsp], rax

; 271  : 	CDateTime	ltm;

  00042	45 33 c0	 xor	 r8d, r8d
  00045	ba 01 00 00 00	 mov	 edx, 1
  0004a	48 8d 4c 24 30	 lea	 rcx, QWORD PTR ltm$[rsp]
  0004f	e8 00 00 00 00	 call	 ??0CDateTime@@QEAA@W4DT_TYPE@@W4TZ_TYPE@@@Z ; CDateTime::CDateTime
  00054	90		 npad	 1

; 272  : 	int nFlag = 0;

  00055	c7 84 24 a4 00
	00 00 00 00 00
	00		 mov	 DWORD PTR nFlag$[rsp], 0

; 273  : 	gs_today_time.second = ltm.Sec();

  00060	48 8d 4c 24 30	 lea	 rcx, QWORD PTR ltm$[rsp]
  00065	e8 00 00 00 00	 call	 ?Sec@CDateTime@@QEAAHXZ	; CDateTime::Sec
  0006a	89 05 14 00 00
	00		 mov	 DWORD PTR ?gs_today_time@@3USTTodayTime@@A+20, eax

; 274  : 	if (ltm.Minute() != gs_today_time.minute) {

  00070	48 8d 4c 24 30	 lea	 rcx, QWORD PTR ltm$[rsp]
  00075	e8 00 00 00 00	 call	 ?Minute@CDateTime@@QEAAHXZ ; CDateTime::Minute
  0007a	3b 05 10 00 00
	00		 cmp	 eax, DWORD PTR ?gs_today_time@@3USTTodayTime@@A+16
  00080	74 21		 je	 SHORT $LN4@TimeProc

; 275  : 		gs_today_time.minute = ltm.Minute();

  00082	48 8d 4c 24 30	 lea	 rcx, QWORD PTR ltm$[rsp]
  00087	e8 00 00 00 00	 call	 ?Minute@CDateTime@@QEAAHXZ ; CDateTime::Minute
  0008c	89 05 10 00 00
	00		 mov	 DWORD PTR ?gs_today_time@@3USTTodayTime@@A+16, eax

; 276  : 		nFlag |= LOG_FLAG_MINCHANGE;

  00092	8b 84 24 a4 00
	00 00		 mov	 eax, DWORD PTR nFlag$[rsp]
  00099	83 c8 04	 or	 eax, 4
  0009c	89 84 24 a4 00
	00 00		 mov	 DWORD PTR nFlag$[rsp], eax
$LN4@TimeProc:

; 277  : 	}
; 278  : 	if (ltm.Hour() != gs_today_time.hour) {

  000a3	48 8d 4c 24 30	 lea	 rcx, QWORD PTR ltm$[rsp]
  000a8	e8 00 00 00 00	 call	 ?Hour@CDateTime@@QEAAHXZ ; CDateTime::Hour
  000ad	3b 05 0c 00 00
	00		 cmp	 eax, DWORD PTR ?gs_today_time@@3USTTodayTime@@A+12
  000b3	74 21		 je	 SHORT $LN5@TimeProc

; 279  : 		gs_today_time.hour = ltm.Hour();

  000b5	48 8d 4c 24 30	 lea	 rcx, QWORD PTR ltm$[rsp]
  000ba	e8 00 00 00 00	 call	 ?Hour@CDateTime@@QEAAHXZ ; CDateTime::Hour
  000bf	89 05 0c 00 00
	00		 mov	 DWORD PTR ?gs_today_time@@3USTTodayTime@@A+12, eax

; 280  : 		nFlag |= LOG_FLAG_HOURCHANGE;

  000c5	8b 84 24 a4 00
	00 00		 mov	 eax, DWORD PTR nFlag$[rsp]
  000cc	83 c8 02	 or	 eax, 2
  000cf	89 84 24 a4 00
	00 00		 mov	 DWORD PTR nFlag$[rsp], eax
$LN5@TimeProc:

; 281  : 	}
; 282  : 	if (ltm.Mday() != gs_today_time.mday) { // 1. Day Change 

  000d6	48 8d 4c 24 30	 lea	 rcx, QWORD PTR ltm$[rsp]
  000db	e8 00 00 00 00	 call	 ?Mday@CDateTime@@QEAAHXZ ; CDateTime::Mday
  000e0	3b 05 08 00 00
	00		 cmp	 eax, DWORD PTR ?gs_today_time@@3USTTodayTime@@A+8
  000e6	74 5c		 je	 SHORT $LN6@TimeProc

; 283  : 		nFlag |= LOG_FLAG_DAYCHANGE;

  000e8	8b 84 24 a4 00
	00 00		 mov	 eax, DWORD PTR nFlag$[rsp]
  000ef	83 c8 01	 or	 eax, 1
  000f2	89 84 24 a4 00
	00 00		 mov	 DWORD PTR nFlag$[rsp], eax

; 284  : 		gs_today_time.date  = _ttoi(ltm.DateString(0));

  000f9	33 d2		 xor	 edx, edx
  000fb	48 8d 4c 24 30	 lea	 rcx, QWORD PTR ltm$[rsp]
  00100	e8 00 00 00 00	 call	 ?DateString@CDateTime@@QEAAPEBDD@Z ; CDateTime::DateString
  00105	48 8b c8	 mov	 rcx, rax
  00108	ff 15 00 00 00
	00		 call	 QWORD PTR __imp_atoi
  0010e	89 05 18 00 00
	00		 mov	 DWORD PTR ?gs_today_time@@3USTTodayTime@@A+24, eax

; 285  : 		gs_today_time.year	= ltm.Year();

  00114	48 8d 4c 24 30	 lea	 rcx, QWORD PTR ltm$[rsp]
  00119	e8 00 00 00 00	 call	 ?Year@CDateTime@@QEAAHXZ ; CDateTime::Year
  0011e	89 05 00 00 00
	00		 mov	 DWORD PTR ?gs_today_time@@3USTTodayTime@@A, eax

; 286  : 		gs_today_time.month	= ltm.Month();

  00124	48 8d 4c 24 30	 lea	 rcx, QWORD PTR ltm$[rsp]
  00129	e8 00 00 00 00	 call	 ?Month@CDateTime@@QEAAHXZ ; CDateTime::Month
  0012e	89 05 04 00 00
	00		 mov	 DWORD PTR ?gs_today_time@@3USTTodayTime@@A+4, eax

; 287  : 		gs_today_time.mday	= ltm.Mday();

  00134	48 8d 4c 24 30	 lea	 rcx, QWORD PTR ltm$[rsp]
  00139	e8 00 00 00 00	 call	 ?Mday@CDateTime@@QEAAHXZ ; CDateTime::Mday
  0013e	89 05 08 00 00
	00		 mov	 DWORD PTR ?gs_today_time@@3USTTodayTime@@A+8, eax
$LN6@TimeProc:

; 288  : 	}
; 289  : 
; 290  : 	if (nFlag) {

  00144	83 bc 24 a4 00
	00 00 00	 cmp	 DWORD PTR nFlag$[rsp], 0
  0014c	74 7e		 je	 SHORT $LN7@TimeProc

; 291  : 		int idx = 0;

  0014e	c7 84 24 b4 00
	00 00 00 00 00
	00		 mov	 DWORD PTR idx$5[rsp], 0

; 292  : 		CLogger *pLogger = m_pLoggerList->getNext(&idx);

  00159	48 8d 94 24 b4
	00 00 00	 lea	 rdx, QWORD PTR idx$5[rsp]
  00161	48 8b 84 24 00
	01 00 00	 mov	 rax, QWORD PTR this$[rsp]
  00169	48 8b 48 48	 mov	 rcx, QWORD PTR [rax+72]
  0016d	e8 00 00 00 00	 call	 ?getNext@?$CTList@VCLogger@@@@QEAAPEAVCLogger@@PEAH@Z ; CTList<CLogger>::getNext
  00172	48 89 84 24 c8
	00 00 00	 mov	 QWORD PTR pLogger$6[rsp], rax
$LN2@TimeProc:

; 293  : 		while (pLogger) {

  0017a	48 83 bc 24 c8
	00 00 00 00	 cmp	 QWORD PTR pLogger$6[rsp], 0
  00183	74 47		 je	 SHORT $LN7@TimeProc

; 294  : 			pLogger->checkChangeProc(nFlag);

  00185	8b 94 24 a4 00
	00 00		 mov	 edx, DWORD PTR nFlag$[rsp]
  0018c	48 8b 8c 24 c8
	00 00 00	 mov	 rcx, QWORD PTR pLogger$6[rsp]
  00194	e8 00 00 00 00	 call	 ?checkChangeProc@CLogger@@QEAAXH@Z ; CLogger::checkChangeProc

; 295  : 			idx++;

  00199	8b 84 24 b4 00
	00 00		 mov	 eax, DWORD PTR idx$5[rsp]
  001a0	ff c0		 inc	 eax
  001a2	89 84 24 b4 00
	00 00		 mov	 DWORD PTR idx$5[rsp], eax

; 296  : 			pLogger = m_pLoggerList->getNext(&idx);

  001a9	48 8d 94 24 b4
	00 00 00	 lea	 rdx, QWORD PTR idx$5[rsp]
  001b1	48 8b 84 24 00
	01 00 00	 mov	 rax, QWORD PTR this$[rsp]
  001b9	48 8b 48 48	 mov	 rcx, QWORD PTR [rax+72]
  001bd	e8 00 00 00 00	 call	 ?getNext@?$CTList@VCLogger@@@@QEAAPEAVCLogger@@PEAH@Z ; CTList<CLogger>::getNext
  001c2	48 89 84 24 c8
	00 00 00	 mov	 QWORD PTR pLogger$6[rsp], rax

; 297  : 		}

  001ca	eb ae		 jmp	 SHORT $LN2@TimeProc
$LN7@TimeProc:

; 298  : 	}
; 299  : }

  001cc	48 8d 4c 24 30	 lea	 rcx, QWORD PTR ltm$[rsp]
  001d1	e8 00 00 00 00	 call	 ??1CDateTime@@QEAA@XZ	; CDateTime::~CDateTime
  001d6	48 8b cc	 mov	 rcx, rsp
  001d9	48 8d 15 00 00
	00 00		 lea	 rdx, OFFSET FLAT:?TimeProc@CSTLogger@@QEAAXXZ$rtcFrameData
  001e0	e8 00 00 00 00	 call	 _RTC_CheckStackVars
  001e5	48 8b 8c 24 e0
	00 00 00	 mov	 rcx, QWORD PTR __$ArrayPad$[rsp]
  001ed	48 33 cc	 xor	 rcx, rsp
  001f0	e8 00 00 00 00	 call	 __security_check_cookie
  001f5	48 81 c4 f0 00
	00 00		 add	 rsp, 240		; 000000f0H
  001fc	5f		 pop	 rdi
  001fd	c3		 ret	 0
?TimeProc@CSTLogger@@QEAAXXZ ENDP			; CSTLogger::TimeProc
_TEXT	ENDS
text$x	SEGMENT
ltm$ = 48
nFlag$ = 164
idx$5 = 180
pLogger$6 = 200
$T7 = 216
__$ArrayPad$ = 224
this$ = 256
?dtor$0@?0??TimeProc@CSTLogger@@QEAAXXZ@4HA PROC	; `CSTLogger::TimeProc'::`1'::dtor$0
  00000	48 89 4c 24 08	 mov	 QWORD PTR [rsp+8], rcx
  00005	48 89 54 24 10	 mov	 QWORD PTR [rsp+16], rdx
  0000a	55		 push	 rbp
  0000b	57		 push	 rdi
  0000c	48 83 ec 28	 sub	 rsp, 40			; 00000028H
  00010	48 8b ea	 mov	 rbp, rdx
  00013	48 8d 4d 30	 lea	 rcx, QWORD PTR ltm$[rbp]
  00017	e8 00 00 00 00	 call	 ??1CDateTime@@QEAA@XZ	; CDateTime::~CDateTime
  0001c	48 83 c4 28	 add	 rsp, 40			; 00000028H
  00020	5f		 pop	 rdi
  00021	5d		 pop	 rbp
  00022	c3		 ret	 0
?dtor$0@?0??TimeProc@CSTLogger@@QEAAXXZ@4HA ENDP	; `CSTLogger::TimeProc'::`1'::dtor$0
text$x	ENDS
; Function compile flags: /Odtp /RTCsu
text$x	SEGMENT
ltm$ = 48
nFlag$ = 164
idx$5 = 180
pLogger$6 = 200
$T7 = 216
__$ArrayPad$ = 224
this$ = 256
?dtor$0@?0??TimeProc@CSTLogger@@QEAAXXZ@4HA PROC	; `CSTLogger::TimeProc'::`1'::dtor$0
  00000	48 89 4c 24 08	 mov	 QWORD PTR [rsp+8], rcx
  00005	48 89 54 24 10	 mov	 QWORD PTR [rsp+16], rdx
  0000a	55		 push	 rbp
  0000b	57		 push	 rdi
  0000c	48 83 ec 28	 sub	 rsp, 40			; 00000028H
  00010	48 8b ea	 mov	 rbp, rdx
  00013	48 8d 4d 30	 lea	 rcx, QWORD PTR ltm$[rbp]
  00017	e8 00 00 00 00	 call	 ??1CDateTime@@QEAA@XZ	; CDateTime::~CDateTime
  0001c	48 83 c4 28	 add	 rsp, 40			; 00000028H
  00020	5f		 pop	 rdi
  00021	5d		 pop	 rbp
  00022	c3		 ret	 0
?dtor$0@?0??TimeProc@CSTLogger@@QEAAXXZ@4HA ENDP	; `CSTLogger::TimeProc'::`1'::dtor$0
text$x	ENDS
; Function compile flags: /Odtp /RTCsu
; File e:\infinia-library-3.0\com\src\comcore.cpp
_TEXT	SEGMENT
idx$ = 36
pData$ = 56
pLogger$ = 64
nLen$4 = 72
__$ArrayPad$ = 88
this$ = 112
?GetQueue@CSTLogger@@QEAAXXZ PROC			; CSTLogger::GetQueue

; 239  : {

$LN7:
  00000	48 89 4c 24 08	 mov	 QWORD PTR [rsp+8], rcx
  00005	57		 push	 rdi
  00006	48 83 ec 60	 sub	 rsp, 96			; 00000060H
  0000a	48 8b fc	 mov	 rdi, rsp
  0000d	b9 18 00 00 00	 mov	 ecx, 24
  00012	b8 cc cc cc cc	 mov	 eax, -858993460		; ccccccccH
  00017	f3 ab		 rep stosd
  00019	48 8b 4c 24 70	 mov	 rcx, QWORD PTR [rsp+112]
  0001e	48 8b 05 00 00
	00 00		 mov	 rax, QWORD PTR __security_cookie
  00025	48 33 c4	 xor	 rax, rsp
  00028	48 89 44 24 58	 mov	 QWORD PTR __$ArrayPad$[rsp], rax

; 240  : 	int idx=0;

  0002d	c7 44 24 24 00
	00 00 00	 mov	 DWORD PTR idx$[rsp], 0

; 241  : 	TCHAR *pData;
; 242  : 	CLogger *pLogger = m_pLoggerList->getNext(&idx);

  00035	48 8d 54 24 24	 lea	 rdx, QWORD PTR idx$[rsp]
  0003a	48 8b 44 24 70	 mov	 rax, QWORD PTR this$[rsp]
  0003f	48 8b 48 48	 mov	 rcx, QWORD PTR [rax+72]
  00043	e8 00 00 00 00	 call	 ?getNext@?$CTList@VCLogger@@@@QEAAPEAVCLogger@@PEAH@Z ; CTList<CLogger>::getNext
  00048	48 89 44 24 40	 mov	 QWORD PTR pLogger$[rsp], rax
$LN2@GetQueue:

; 243  : 	while (pLogger) {

  0004d	48 83 7c 24 40
	00		 cmp	 QWORD PTR pLogger$[rsp], 0
  00053	0f 84 92 00 00
	00		 je	 $LN3@GetQueue

; 244  : 
; 245  : 		pData = pLogger->pop();

  00059	48 8b 4c 24 40	 mov	 rcx, QWORD PTR pLogger$[rsp]
  0005e	e8 00 00 00 00	 call	 ?pop@CLogger@@QEAAPEADXZ ; CLogger::pop
  00063	48 89 44 24 38	 mov	 QWORD PTR pData$[rsp], rax
$LN4@GetQueue:

; 246  : 		while (pData)

  00068	48 83 7c 24 38
	00		 cmp	 QWORD PTR pData$[rsp], 0
  0006e	74 54		 je	 SHORT $LN5@GetQueue

; 247  : 		{
; 248  : 			int nLen = (int)_tcslen(pData) + 1;

  00070	48 8b 4c 24 38	 mov	 rcx, QWORD PTR pData$[rsp]
  00075	e8 00 00 00 00	 call	 strlen
  0007a	ff c0		 inc	 eax
  0007c	89 44 24 48	 mov	 DWORD PTR nLen$4[rsp], eax

; 249  : 			pLogger->LogPrint(pData);

  00080	48 8b 54 24 38	 mov	 rdx, QWORD PTR pData$[rsp]
  00085	48 8b 4c 24 40	 mov	 rcx, QWORD PTR pLogger$[rsp]
  0008a	e8 00 00 00 00	 call	 ?LogPrint@CLogger@@QEAAXPEAD@Z ; CLogger::LogPrint

; 250  : 			pLogger->addLogSize(nLen);

  0008f	8b 54 24 48	 mov	 edx, DWORD PTR nLen$4[rsp]
  00093	48 8b 4c 24 40	 mov	 rcx, QWORD PTR pLogger$[rsp]
  00098	e8 00 00 00 00	 call	 ?addLogSize@CLogger@@QEAAXH@Z ; CLogger::addLogSize

; 251  : 			gs_pMMgr->delBuf(pData, nLen);

  0009d	44 8b 44 24 48	 mov	 r8d, DWORD PTR nLen$4[rsp]
  000a2	48 8b 54 24 38	 mov	 rdx, QWORD PTR pData$[rsp]
  000a7	48 8b 0d 00 00
	00 00		 mov	 rcx, QWORD PTR ?gs_pMMgr@@3PEAVCMemManager@@EA ; gs_pMMgr
  000ae	e8 00 00 00 00	 call	 ?delBuf@CMemManager@@QEAAXPEADH@Z ; CMemManager::delBuf

; 252  : 			pData = pLogger->pop();

  000b3	48 8b 4c 24 40	 mov	 rcx, QWORD PTR pLogger$[rsp]
  000b8	e8 00 00 00 00	 call	 ?pop@CLogger@@QEAAPEADXZ ; CLogger::pop
  000bd	48 89 44 24 38	 mov	 QWORD PTR pData$[rsp], rax

; 253  : 
; 254  : 		}

  000c2	eb a4		 jmp	 SHORT $LN4@GetQueue
$LN5@GetQueue:

; 255  : 		idx++;

  000c4	8b 44 24 24	 mov	 eax, DWORD PTR idx$[rsp]
  000c8	ff c0		 inc	 eax
  000ca	89 44 24 24	 mov	 DWORD PTR idx$[rsp], eax

; 256  : 		pLogger = m_pLoggerList->getNext(&idx);

  000ce	48 8d 54 24 24	 lea	 rdx, QWORD PTR idx$[rsp]
  000d3	48 8b 44 24 70	 mov	 rax, QWORD PTR this$[rsp]
  000d8	48 8b 48 48	 mov	 rcx, QWORD PTR [rax+72]
  000dc	e8 00 00 00 00	 call	 ?getNext@?$CTList@VCLogger@@@@QEAAPEAVCLogger@@PEAH@Z ; CTList<CLogger>::getNext
  000e1	48 89 44 24 40	 mov	 QWORD PTR pLogger$[rsp], rax

; 257  : 	}

  000e6	e9 62 ff ff ff	 jmp	 $LN2@GetQueue
$LN3@GetQueue:

; 258  : }

  000eb	48 8b cc	 mov	 rcx, rsp
  000ee	48 8d 15 00 00
	00 00		 lea	 rdx, OFFSET FLAT:?GetQueue@CSTLogger@@QEAAXXZ$rtcFrameData
  000f5	e8 00 00 00 00	 call	 _RTC_CheckStackVars
  000fa	48 8b 4c 24 58	 mov	 rcx, QWORD PTR __$ArrayPad$[rsp]
  000ff	48 33 cc	 xor	 rcx, rsp
  00102	e8 00 00 00 00	 call	 __security_check_cookie
  00107	48 83 c4 60	 add	 rsp, 96			; 00000060H
  0010b	5f		 pop	 rdi
  0010c	c3		 ret	 0
?GetQueue@CSTLogger@@QEAAXXZ ENDP			; CSTLogger::GetQueue
_TEXT	ENDS
; Function compile flags: /Odtp /RTCsu
; File e:\infinia-library-3.0\com\src\comcore.cpp
_TEXT	SEGMENT
bRes$ = 32
pCommand$ = 40
nSTLSize$ = 48
this$ = 80
?IsCommand@CSTLogger@@QEAA_NXZ PROC			; CSTLogger::IsCommand

; 156  : {

$LN8:
  00000	48 89 4c 24 08	 mov	 QWORD PTR [rsp+8], rcx
  00005	57		 push	 rdi
  00006	48 83 ec 40	 sub	 rsp, 64			; 00000040H
  0000a	48 8b fc	 mov	 rdi, rsp
  0000d	b9 10 00 00 00	 mov	 ecx, 16
  00012	b8 cc cc cc cc	 mov	 eax, -858993460		; ccccccccH
  00017	f3 ab		 rep stosd
  00019	48 8b 4c 24 50	 mov	 rcx, QWORD PTR [rsp+80]

; 157  : 	bool bRes = false;

  0001e	c6 44 24 20 00	 mov	 BYTE PTR bRes$[rsp], 0

; 158  : 	STLCommand *pCommand = (STLCommand *)m_pComandList->pop();

  00023	48 8b 44 24 50	 mov	 rax, QWORD PTR this$[rsp]
  00028	48 8b 48 50	 mov	 rcx, QWORD PTR [rax+80]
  0002c	e8 00 00 00 00	 call	 ?pop@CQueueS@@QEAAPEAXXZ ; CQueueS::pop
  00031	48 89 44 24 28	 mov	 QWORD PTR pCommand$[rsp], rax

; 159  : 	int nSTLSize = sizeof(STLCommand);

  00036	c7 44 24 30 10
	00 00 00	 mov	 DWORD PTR nSTLSize$[rsp], 16
$LN2@IsCommand:

; 160  : 	while (pCommand) {

  0003e	48 83 7c 24 28
	00		 cmp	 QWORD PTR pCommand$[rsp], 0
  00044	74 6c		 je	 SHORT $LN3@IsCommand

; 161  : 		bRes = true;

  00046	c6 44 24 20 01	 mov	 BYTE PTR bRes$[rsp], 1

; 162  : 		if (pCommand->nCommandCode == 1) { // enable

  0004b	48 8b 44 24 28	 mov	 rax, QWORD PTR pCommand$[rsp]
  00050	83 38 01	 cmp	 DWORD PTR [rax], 1
  00053	75 15		 jne	 SHORT $LN4@IsCommand

; 163  : 			procLoggerEnable((CLogger *)pCommand->p);

  00055	48 8b 44 24 28	 mov	 rax, QWORD PTR pCommand$[rsp]
  0005a	48 8b 50 08	 mov	 rdx, QWORD PTR [rax+8]
  0005e	48 8b 4c 24 50	 mov	 rcx, QWORD PTR this$[rsp]
  00063	e8 00 00 00 00	 call	 ?procLoggerEnable@CSTLogger@@QEAAXPEAVCLogger@@@Z ; CSTLogger::procLoggerEnable
  00068	eb 1d		 jmp	 SHORT $LN5@IsCommand
$LN4@IsCommand:

; 164  : 		}
; 165  : 		else if (pCommand->nCommandCode == 2) { // 

  0006a	48 8b 44 24 28	 mov	 rax, QWORD PTR pCommand$[rsp]
  0006f	83 38 02	 cmp	 DWORD PTR [rax], 2
  00072	75 13		 jne	 SHORT $LN6@IsCommand

; 166  : 			porcLoggerDisable((CLogger *)pCommand->p);

  00074	48 8b 44 24 28	 mov	 rax, QWORD PTR pCommand$[rsp]
  00079	48 8b 50 08	 mov	 rdx, QWORD PTR [rax+8]
  0007d	48 8b 4c 24 50	 mov	 rcx, QWORD PTR this$[rsp]
  00082	e8 00 00 00 00	 call	 ?porcLoggerDisable@CSTLogger@@QEAAXPEAVCLogger@@@Z ; CSTLogger::porcLoggerDisable
$LN6@IsCommand:
$LN5@IsCommand:

; 167  : 		}
; 168  : 		gs_pMMgr->delBuf((char *)pCommand, nSTLSize);

  00087	44 8b 44 24 30	 mov	 r8d, DWORD PTR nSTLSize$[rsp]
  0008c	48 8b 54 24 28	 mov	 rdx, QWORD PTR pCommand$[rsp]
  00091	48 8b 0d 00 00
	00 00		 mov	 rcx, QWORD PTR ?gs_pMMgr@@3PEAVCMemManager@@EA ; gs_pMMgr
  00098	e8 00 00 00 00	 call	 ?delBuf@CMemManager@@QEAAXPEADH@Z ; CMemManager::delBuf

; 169  : 		pCommand = (STLCommand *)m_pComandList->pop();

  0009d	48 8b 44 24 50	 mov	 rax, QWORD PTR this$[rsp]
  000a2	48 8b 48 50	 mov	 rcx, QWORD PTR [rax+80]
  000a6	e8 00 00 00 00	 call	 ?pop@CQueueS@@QEAAPEAXXZ ; CQueueS::pop
  000ab	48 89 44 24 28	 mov	 QWORD PTR pCommand$[rsp], rax

; 170  : 	}

  000b0	eb 8c		 jmp	 SHORT $LN2@IsCommand
$LN3@IsCommand:

; 171  : 
; 172  : 	return false;

  000b2	32 c0		 xor	 al, al

; 173  : }

  000b4	48 83 c4 40	 add	 rsp, 64			; 00000040H
  000b8	5f		 pop	 rdi
  000b9	c3		 ret	 0
?IsCommand@CSTLogger@@QEAA_NXZ ENDP			; CSTLogger::IsCommand
_TEXT	ENDS
; Function compile flags: /Odtp /RTCsu
; File e:\infinia-library-3.0\com\src\comcore.cpp
_TEXT	SEGMENT
$T1 = 32
$T2 = 40
tv73 = 48
this$ = 80
?quit@CSTLogger@@QEAA_NXZ PROC				; CSTLogger::quit

; 228  : {

$LN6:
  00000	48 89 4c 24 08	 mov	 QWORD PTR [rsp+8], rcx
  00005	57		 push	 rdi
  00006	48 83 ec 40	 sub	 rsp, 64			; 00000040H
  0000a	48 8b fc	 mov	 rdi, rsp
  0000d	b9 10 00 00 00	 mov	 ecx, 16
  00012	b8 cc cc cc cc	 mov	 eax, -858993460		; ccccccccH
  00017	f3 ab		 rep stosd
  00019	48 8b 4c 24 50	 mov	 rcx, QWORD PTR [rsp+80]

; 229  : 	m_cThread.quit();

  0001e	48 8b 44 24 50	 mov	 rax, QWORD PTR this$[rsp]
  00023	48 8b c8	 mov	 rcx, rax
  00026	e8 00 00 00 00	 call	 ?quit@CComThread@@QEAA_NXZ ; CComThread::quit

; 230  : 	if (m_pLoggerList) {

  0002b	48 8b 44 24 50	 mov	 rax, QWORD PTR this$[rsp]
  00030	48 83 78 48 00	 cmp	 QWORD PTR [rax+72], 0
  00035	74 4c		 je	 SHORT $LN2@quit

; 231  : 		delete m_pLoggerList;

  00037	48 8b 44 24 50	 mov	 rax, QWORD PTR this$[rsp]
  0003c	48 8b 40 48	 mov	 rax, QWORD PTR [rax+72]
  00040	48 89 44 24 28	 mov	 QWORD PTR $T2[rsp], rax
  00045	48 8b 44 24 28	 mov	 rax, QWORD PTR $T2[rsp]
  0004a	48 89 44 24 20	 mov	 QWORD PTR $T1[rsp], rax
  0004f	48 83 7c 24 20
	00		 cmp	 QWORD PTR $T1[rsp], 0
  00055	74 16		 je	 SHORT $LN4@quit
  00057	ba 01 00 00 00	 mov	 edx, 1
  0005c	48 8b 4c 24 20	 mov	 rcx, QWORD PTR $T1[rsp]
  00061	e8 00 00 00 00	 call	 ??_G?$CTList@VCLogger@@@@QEAAPEAXI@Z
  00066	48 89 44 24 30	 mov	 QWORD PTR tv73[rsp], rax
  0006b	eb 09		 jmp	 SHORT $LN5@quit
$LN4@quit:
  0006d	48 c7 44 24 30
	00 00 00 00	 mov	 QWORD PTR tv73[rsp], 0
$LN5@quit:

; 232  : 		m_pLoggerList = NULL;

  00076	48 8b 44 24 50	 mov	 rax, QWORD PTR this$[rsp]
  0007b	48 c7 40 48 00
	00 00 00	 mov	 QWORD PTR [rax+72], 0
$LN2@quit:

; 233  : 	}
; 234  : 	return true;

  00083	b0 01		 mov	 al, 1

; 235  : }

  00085	48 83 c4 40	 add	 rsp, 64			; 00000040H
  00089	5f		 pop	 rdi
  0008a	c3		 ret	 0
?quit@CSTLogger@@QEAA_NXZ ENDP				; CSTLogger::quit
_TEXT	ENDS
; Function compile flags: /Odtp /RTCsu
; File e:\infinia-library-3.0\com\src\comcore.cpp
_TEXT	SEGMENT
this$ = 64
?start@CSTLogger@@QEAA_NXZ PROC				; CSTLogger::start

; 141  : {

$LN6:
  00000	48 89 4c 24 08	 mov	 QWORD PTR [rsp+8], rcx
  00005	57		 push	 rdi
  00006	48 83 ec 30	 sub	 rsp, 48			; 00000030H
  0000a	48 8b fc	 mov	 rdi, rsp
  0000d	b9 0c 00 00 00	 mov	 ecx, 12
  00012	b8 cc cc cc cc	 mov	 eax, -858993460		; ccccccccH
  00017	f3 ab		 rep stosd
  00019	48 8b 4c 24 40	 mov	 rcx, QWORD PTR [rsp+64]

; 142  : 	if (m_cThread.bActive()) return true;

  0001e	48 8b 44 24 40	 mov	 rax, QWORD PTR this$[rsp]
  00023	48 8b c8	 mov	 rcx, rax
  00026	e8 00 00 00 00	 call	 ?bActive@CComThread@@QEAA_NXZ ; CComThread::bActive
  0002b	0f b6 c0	 movzx	 eax, al
  0002e	85 c0		 test	 eax, eax
  00030	74 07		 je	 SHORT $LN2@start
  00032	b0 01		 mov	 al, 1
  00034	e9 8b 00 00 00	 jmp	 $LN1@start
$LN2@start:

; 143  : 	if (!m_cThread.init(loggerLoop, this, INFINITE)) {

  00039	48 8b 44 24 40	 mov	 rax, QWORD PTR this$[rsp]
  0003e	48 c7 44 24 20
	00 00 00 00	 mov	 QWORD PTR [rsp+32], 0
  00047	41 b9 ff ff ff
	ff		 mov	 r9d, -1
  0004d	4c 8b 44 24 40	 mov	 r8, QWORD PTR this$[rsp]
  00052	48 8d 15 00 00
	00 00		 lea	 rdx, OFFSET FLAT:?loggerLoop@@YAXPEAUSTThreadInfo@@@Z ; loggerLoop
  00059	48 8b c8	 mov	 rcx, rax
  0005c	e8 00 00 00 00	 call	 ?init@CComThread@@QEAA_NP6AXPEAUSTThreadInfo@@@ZPEAXH2@Z ; CComThread::init
  00061	0f b6 c0	 movzx	 eax, al
  00064	85 c0		 test	 eax, eax
  00066	75 1d		 jne	 SHORT $LN3@start

; 144  : 		comErrorPrint("m_cThread.init");

  00068	41 b8 90 00 00
	00		 mov	 r8d, 144		; 00000090H
  0006e	48 8d 15 00 00
	00 00		 lea	 rdx, OFFSET FLAT:$SG45390
  00075	48 8d 0d 00 00
	00 00		 lea	 rcx, OFFSET FLAT:$SG45391
  0007c	e8 00 00 00 00	 call	 ?comGlobalErrorProc@@YAXPEADPEBDH@Z ; comGlobalErrorProc

; 145  : 		return false;

  00081	32 c0		 xor	 al, al
  00083	eb 3f		 jmp	 SHORT $LN1@start
$LN3@start:

; 146  : 	}
; 147  : 	if (!m_cThread.start()) {

  00085	48 8b 44 24 40	 mov	 rax, QWORD PTR this$[rsp]
  0008a	48 8b c8	 mov	 rcx, rax
  0008d	e8 00 00 00 00	 call	 ?start@CComThread@@QEAA_NXZ ; CComThread::start
  00092	0f b6 c0	 movzx	 eax, al
  00095	85 c0		 test	 eax, eax
  00097	75 1d		 jne	 SHORT $LN4@start

; 148  : 		comErrorPrint("m_cThread.start");

  00099	41 b8 94 00 00
	00		 mov	 r8d, 148		; 00000094H
  0009f	48 8d 15 00 00
	00 00		 lea	 rdx, OFFSET FLAT:$SG45393
  000a6	48 8d 0d 00 00
	00 00		 lea	 rcx, OFFSET FLAT:$SG45394
  000ad	e8 00 00 00 00	 call	 ?comGlobalErrorProc@@YAXPEADPEBDH@Z ; comGlobalErrorProc

; 149  : 		return false;

  000b2	32 c0		 xor	 al, al
  000b4	eb 0e		 jmp	 SHORT $LN1@start
$LN4@start:

; 150  : 	}
; 151  : 	printf("CSTLogger::start()\n");

  000b6	48 8d 0d 00 00
	00 00		 lea	 rcx, OFFSET FLAT:$SG45395
  000bd	e8 00 00 00 00	 call	 printf

; 152  : 	return true;

  000c2	b0 01		 mov	 al, 1
$LN1@start:

; 153  : }

  000c4	48 83 c4 30	 add	 rsp, 48			; 00000030H
  000c8	5f		 pop	 rdi
  000c9	c3		 ret	 0
?start@CSTLogger@@QEAA_NXZ ENDP				; CSTLogger::start
_TEXT	ENDS
; Function compile flags: /Odtp /RTCsu
; File e:\infinia-library-3.0\com\src\comcore.cpp
_TEXT	SEGMENT
this$ = 48
nCount$ = 56
idx$ = 64
?init@CSTLogger@@QEAA_NHH@Z PROC			; CSTLogger::init

; 125  : {

$LN5:
  00000	44 89 44 24 18	 mov	 DWORD PTR [rsp+24], r8d
  00005	89 54 24 10	 mov	 DWORD PTR [rsp+16], edx
  00009	48 89 4c 24 08	 mov	 QWORD PTR [rsp+8], rcx
  0000e	57		 push	 rdi
  0000f	48 83 ec 20	 sub	 rsp, 32			; 00000020H
  00013	48 8b fc	 mov	 rdi, rsp
  00016	b9 08 00 00 00	 mov	 ecx, 8
  0001b	b8 cc cc cc cc	 mov	 eax, -858993460		; ccccccccH
  00020	f3 ab		 rep stosd
  00022	48 8b 4c 24 30	 mov	 rcx, QWORD PTR [rsp+48]

; 126  : 	if (!nCount) return false;

  00027	83 7c 24 38 00	 cmp	 DWORD PTR nCount$[rsp], 0
  0002c	75 04		 jne	 SHORT $LN2@init
  0002e	32 c0		 xor	 al, al
  00030	eb 2c		 jmp	 SHORT $LN1@init
$LN2@init:

; 127  : 	if (!_init(nCount)) return false;

  00032	8b 54 24 38	 mov	 edx, DWORD PTR nCount$[rsp]
  00036	48 8b 4c 24 30	 mov	 rcx, QWORD PTR this$[rsp]
  0003b	e8 00 00 00 00	 call	 ?_init@CSTLogger@@AEAA_NH@Z ; CSTLogger::_init
  00040	0f b6 c0	 movzx	 eax, al
  00043	85 c0		 test	 eax, eax
  00045	75 04		 jne	 SHORT $LN3@init
  00047	32 c0		 xor	 al, al
  00049	eb 13		 jmp	 SHORT $LN1@init
$LN3@init:

; 128  : 	m_cThread.setIdx(idx);

  0004b	48 8b 44 24 30	 mov	 rax, QWORD PTR this$[rsp]
  00050	8b 54 24 40	 mov	 edx, DWORD PTR idx$[rsp]
  00054	48 8b c8	 mov	 rcx, rax
  00057	e8 00 00 00 00	 call	 ?setIdx@CComThread@@QEAAXH@Z ; CComThread::setIdx

; 129  : 	return true;

  0005c	b0 01		 mov	 al, 1
$LN1@init:

; 130  : }

  0005e	48 83 c4 20	 add	 rsp, 32			; 00000020H
  00062	5f		 pop	 rdi
  00063	c3		 ret	 0
?init@CSTLogger@@QEAA_NHH@Z ENDP			; CSTLogger::init
_TEXT	ENDS
; Function compile flags: /Odtp /RTCsu
; File e:\infinia-library-3.0\com\src\comcore.cpp
_TEXT	SEGMENT
szSect$ = 40
nMax$ = 68
__$ArrayPad$ = 80
this$ = 112
pConfigFile$ = 120
i$ = 128
pSection$ = 136
?initConfig@CSTLogger@@QEAA_NPEADH0@Z PROC		; CSTLogger::initConfig

; 113  : {

$LN5:
  00000	4c 89 4c 24 20	 mov	 QWORD PTR [rsp+32], r9
  00005	44 89 44 24 18	 mov	 DWORD PTR [rsp+24], r8d
  0000a	48 89 54 24 10	 mov	 QWORD PTR [rsp+16], rdx
  0000f	48 89 4c 24 08	 mov	 QWORD PTR [rsp+8], rcx
  00014	57		 push	 rdi
  00015	48 83 ec 60	 sub	 rsp, 96			; 00000060H
  00019	48 8b fc	 mov	 rdi, rsp
  0001c	b9 18 00 00 00	 mov	 ecx, 24
  00021	b8 cc cc cc cc	 mov	 eax, -858993460		; ccccccccH
  00026	f3 ab		 rep stosd
  00028	48 8b 4c 24 70	 mov	 rcx, QWORD PTR [rsp+112]
  0002d	48 8b 05 00 00
	00 00		 mov	 rax, QWORD PTR __security_cookie
  00034	48 33 c4	 xor	 rax, rsp
  00037	48 89 44 24 50	 mov	 QWORD PTR __$ArrayPad$[rsp], rax

; 114  : 	TCHAR szSect[24];
; 115  : 	int nMax;
; 116  : 
; 117  : 	_stprintf(szSect, _T("%s_%d"), pSection, i);

  0003c	44 8b 8c 24 80
	00 00 00	 mov	 r9d, DWORD PTR i$[rsp]
  00044	4c 8b 84 24 88
	00 00 00	 mov	 r8, QWORD PTR pSection$[rsp]
  0004c	48 8d 15 00 00
	00 00		 lea	 rdx, OFFSET FLAT:$SG45352
  00053	48 8d 4c 24 28	 lea	 rcx, QWORD PTR szSect$[rsp]
  00058	e8 00 00 00 00	 call	 sprintf

; 118  : 	nMax = GetPrivateProfileInt(szSect, _T("LIST_COUNT"), 0, pConfigFile);

  0005d	4c 8b 4c 24 78	 mov	 r9, QWORD PTR pConfigFile$[rsp]
  00062	45 33 c0	 xor	 r8d, r8d
  00065	48 8d 15 00 00
	00 00		 lea	 rdx, OFFSET FLAT:$SG45353
  0006c	48 8d 4c 24 28	 lea	 rcx, QWORD PTR szSect$[rsp]
  00071	ff 15 00 00 00
	00		 call	 QWORD PTR __imp_GetPrivateProfileIntA
  00077	89 44 24 44	 mov	 DWORD PTR nMax$[rsp], eax

; 119  : 	if (!nMax) return false;

  0007b	83 7c 24 44 00	 cmp	 DWORD PTR nMax$[rsp], 0
  00080	75 04		 jne	 SHORT $LN2@initConfig
  00082	32 c0		 xor	 al, al
  00084	eb 1b		 jmp	 SHORT $LN1@initConfig
$LN2@initConfig:

; 120  : 	if (!_init(nMax)) return false;

  00086	8b 54 24 44	 mov	 edx, DWORD PTR nMax$[rsp]
  0008a	48 8b 4c 24 70	 mov	 rcx, QWORD PTR this$[rsp]
  0008f	e8 00 00 00 00	 call	 ?_init@CSTLogger@@AEAA_NH@Z ; CSTLogger::_init
  00094	0f b6 c0	 movzx	 eax, al
  00097	85 c0		 test	 eax, eax
  00099	75 04		 jne	 SHORT $LN3@initConfig
  0009b	32 c0		 xor	 al, al
  0009d	eb 02		 jmp	 SHORT $LN1@initConfig
$LN3@initConfig:

; 121  : 	return true;

  0009f	b0 01		 mov	 al, 1
$LN1@initConfig:

; 122  : }

  000a1	48 8b f8	 mov	 rdi, rax
  000a4	48 8b cc	 mov	 rcx, rsp
  000a7	48 8d 15 00 00
	00 00		 lea	 rdx, OFFSET FLAT:?initConfig@CSTLogger@@QEAA_NPEADH0@Z$rtcFrameData
  000ae	e8 00 00 00 00	 call	 _RTC_CheckStackVars
  000b3	48 8b c7	 mov	 rax, rdi
  000b6	48 8b 4c 24 50	 mov	 rcx, QWORD PTR __$ArrayPad$[rsp]
  000bb	48 33 cc	 xor	 rcx, rsp
  000be	e8 00 00 00 00	 call	 __security_check_cookie
  000c3	48 83 c4 60	 add	 rsp, 96			; 00000060H
  000c7	5f		 pop	 rdi
  000c8	c3		 ret	 0
?initConfig@CSTLogger@@QEAA_NPEADH0@Z ENDP		; CSTLogger::initConfig
_TEXT	ENDS
; Function compile flags: /Odtp /RTCsu
; File e:\infinia-library-3.0\com\src\comcore.cpp
_TEXT	SEGMENT
$T1 = 32
$T2 = 40
$T3 = 48
$T4 = 56
$T5 = 64
tv74 = 72
tv83 = 80
this$ = 112
??1CSTLogger@@QEAA@XZ PROC				; CSTLogger::~CSTLogger

; 98   : {

$LN9:
  00000	48 89 4c 24 08	 mov	 QWORD PTR [rsp+8], rcx
  00005	57		 push	 rdi
  00006	48 83 ec 60	 sub	 rsp, 96			; 00000060H
  0000a	48 8b fc	 mov	 rdi, rsp
  0000d	b9 18 00 00 00	 mov	 ecx, 24
  00012	b8 cc cc cc cc	 mov	 eax, -858993460		; ccccccccH
  00017	f3 ab		 rep stosd
  00019	48 8b 4c 24 70	 mov	 rcx, QWORD PTR [rsp+112]
  0001e	48 c7 44 24 40
	fe ff ff ff	 mov	 QWORD PTR $T5[rsp], -2

; 99   : 	quit();

  00027	48 8b 4c 24 70	 mov	 rcx, QWORD PTR this$[rsp]
  0002c	e8 00 00 00 00	 call	 ?quit@CSTLogger@@QEAA_NXZ ; CSTLogger::quit
  00031	90		 npad	 1

; 100  : 	if (m_pComandList) {

  00032	48 8b 44 24 70	 mov	 rax, QWORD PTR this$[rsp]
  00037	48 83 78 50 00	 cmp	 QWORD PTR [rax+80], 0
  0003c	74 4d		 je	 SHORT $LN2@CSTLogger

; 101  : 		delete m_pComandList;

  0003e	48 8b 44 24 70	 mov	 rax, QWORD PTR this$[rsp]
  00043	48 8b 40 50	 mov	 rax, QWORD PTR [rax+80]
  00047	48 89 44 24 28	 mov	 QWORD PTR $T2[rsp], rax
  0004c	48 8b 44 24 28	 mov	 rax, QWORD PTR $T2[rsp]
  00051	48 89 44 24 20	 mov	 QWORD PTR $T1[rsp], rax
  00056	48 83 7c 24 20
	00		 cmp	 QWORD PTR $T1[rsp], 0
  0005c	74 17		 je	 SHORT $LN5@CSTLogger
  0005e	ba 01 00 00 00	 mov	 edx, 1
  00063	48 8b 4c 24 20	 mov	 rcx, QWORD PTR $T1[rsp]
  00068	e8 00 00 00 00	 call	 ??_GCQueueS@@QEAAPEAXI@Z
  0006d	90		 npad	 1
  0006e	48 89 44 24 48	 mov	 QWORD PTR tv74[rsp], rax
  00073	eb 09		 jmp	 SHORT $LN6@CSTLogger
$LN5@CSTLogger:
  00075	48 c7 44 24 48
	00 00 00 00	 mov	 QWORD PTR tv74[rsp], 0
$LN6@CSTLogger:

; 102  : 		m_pComandList = NULL;

  0007e	48 8b 44 24 70	 mov	 rax, QWORD PTR this$[rsp]
  00083	48 c7 40 50 00
	00 00 00	 mov	 QWORD PTR [rax+80], 0
$LN2@CSTLogger:

; 103  : 	}
; 104  : 	if (m_pLoggerList) {

  0008b	48 8b 44 24 70	 mov	 rax, QWORD PTR this$[rsp]
  00090	48 83 78 48 00	 cmp	 QWORD PTR [rax+72], 0
  00095	74 4d		 je	 SHORT $LN3@CSTLogger

; 105  : 		delete m_pLoggerList;

  00097	48 8b 44 24 70	 mov	 rax, QWORD PTR this$[rsp]
  0009c	48 8b 40 48	 mov	 rax, QWORD PTR [rax+72]
  000a0	48 89 44 24 38	 mov	 QWORD PTR $T4[rsp], rax
  000a5	48 8b 44 24 38	 mov	 rax, QWORD PTR $T4[rsp]
  000aa	48 89 44 24 30	 mov	 QWORD PTR $T3[rsp], rax
  000af	48 83 7c 24 30
	00		 cmp	 QWORD PTR $T3[rsp], 0
  000b5	74 17		 je	 SHORT $LN7@CSTLogger
  000b7	ba 01 00 00 00	 mov	 edx, 1
  000bc	48 8b 4c 24 30	 mov	 rcx, QWORD PTR $T3[rsp]
  000c1	e8 00 00 00 00	 call	 ??_G?$CTList@VCLogger@@@@QEAAPEAXI@Z
  000c6	90		 npad	 1
  000c7	48 89 44 24 50	 mov	 QWORD PTR tv83[rsp], rax
  000cc	eb 09		 jmp	 SHORT $LN8@CSTLogger
$LN7@CSTLogger:
  000ce	48 c7 44 24 50
	00 00 00 00	 mov	 QWORD PTR tv83[rsp], 0
$LN8@CSTLogger:

; 106  : 		m_pLoggerList = NULL;

  000d7	48 8b 44 24 70	 mov	 rax, QWORD PTR this$[rsp]
  000dc	48 c7 40 48 00
	00 00 00	 mov	 QWORD PTR [rax+72], 0
$LN3@CSTLogger:

; 107  : 	}
; 108  : }

  000e4	48 8b 44 24 70	 mov	 rax, QWORD PTR this$[rsp]
  000e9	48 8b c8	 mov	 rcx, rax
  000ec	e8 00 00 00 00	 call	 ??1CComThread@@QEAA@XZ	; CComThread::~CComThread
  000f1	90		 npad	 1
  000f2	48 83 c4 60	 add	 rsp, 96			; 00000060H
  000f6	5f		 pop	 rdi
  000f7	c3		 ret	 0
??1CSTLogger@@QEAA@XZ ENDP				; CSTLogger::~CSTLogger
_TEXT	ENDS
; Function compile flags: /Odtp /RTCsu
; File e:\infinia-library-3.0\com\src\comcore.cpp
_TEXT	SEGMENT
this$ = 48
??0CSTLogger@@QEAA@XZ PROC				; CSTLogger::CSTLogger

; 92   : {

$LN4:
  00000	48 89 4c 24 08	 mov	 QWORD PTR [rsp+8], rcx
  00005	57		 push	 rdi
  00006	48 83 ec 20	 sub	 rsp, 32			; 00000020H
  0000a	48 8b fc	 mov	 rdi, rsp
  0000d	b9 08 00 00 00	 mov	 ecx, 8
  00012	b8 cc cc cc cc	 mov	 eax, -858993460		; ccccccccH
  00017	f3 ab		 rep stosd
  00019	48 8b 4c 24 30	 mov	 rcx, QWORD PTR [rsp+48]
  0001e	48 8b 44 24 30	 mov	 rax, QWORD PTR this$[rsp]
  00023	48 8b c8	 mov	 rcx, rax
  00026	e8 00 00 00 00	 call	 ??0CComThread@@QEAA@XZ	; CComThread::CComThread

; 93   : 	m_pComandList = NULL;

  0002b	48 8b 44 24 30	 mov	 rax, QWORD PTR this$[rsp]
  00030	48 c7 40 50 00
	00 00 00	 mov	 QWORD PTR [rax+80], 0

; 94   : 	m_pLoggerList = NULL;

  00038	48 8b 44 24 30	 mov	 rax, QWORD PTR this$[rsp]
  0003d	48 c7 40 48 00
	00 00 00	 mov	 QWORD PTR [rax+72], 0

; 95   : }

  00045	48 8b 44 24 30	 mov	 rax, QWORD PTR this$[rsp]
  0004a	48 83 c4 20	 add	 rsp, 32			; 00000020H
  0004e	5f		 pop	 rdi
  0004f	c3		 ret	 0
??0CSTLogger@@QEAA@XZ ENDP				; CSTLogger::CSTLogger
_TEXT	ENDS
; Function compile flags: /Odtp /RTCsu
; File e:\infinia-library-3.0\com\src\comcore.cpp
_TEXT	SEGMENT
pBasic$ = 32
p$ = 64
?loggerLoop@@YAXPEAUSTThreadInfo@@@Z PROC		; loggerLoop

; 262  : {

$LN4:
  00000	48 89 4c 24 08	 mov	 QWORD PTR [rsp+8], rcx
  00005	57		 push	 rdi
  00006	48 83 ec 30	 sub	 rsp, 48			; 00000030H
  0000a	48 8b fc	 mov	 rdi, rsp
  0000d	b9 0c 00 00 00	 mov	 ecx, 12
  00012	b8 cc cc cc cc	 mov	 eax, -858993460		; ccccccccH
  00017	f3 ab		 rep stosd
  00019	48 8b 4c 24 40	 mov	 rcx, QWORD PTR [rsp+64]

; 263  : 	CSTLogger *pBasic = (CSTLogger *)p->pClass;

  0001e	48 8b 44 24 40	 mov	 rax, QWORD PTR p$[rsp]
  00023	48 8b 40 18	 mov	 rax, QWORD PTR [rax+24]
  00027	48 89 44 24 20	 mov	 QWORD PTR pBasic$[rsp], rax

; 264  : 	if (pBasic->IsCommand()) return;

  0002c	48 8b 4c 24 20	 mov	 rcx, QWORD PTR pBasic$[rsp]
  00031	e8 00 00 00 00	 call	 ?IsCommand@CSTLogger@@QEAA_NXZ ; CSTLogger::IsCommand
  00036	0f b6 c0	 movzx	 eax, al
  00039	85 c0		 test	 eax, eax
  0003b	74 02		 je	 SHORT $LN2@loggerLoop
  0003d	eb 14		 jmp	 SHORT $LN1@loggerLoop
$LN2@loggerLoop:

; 265  : 	pBasic->GetQueue();

  0003f	48 8b 4c 24 20	 mov	 rcx, QWORD PTR pBasic$[rsp]
  00044	e8 00 00 00 00	 call	 ?GetQueue@CSTLogger@@QEAAXXZ ; CSTLogger::GetQueue

; 266  : 	pBasic->TimeProc();

  00049	48 8b 4c 24 20	 mov	 rcx, QWORD PTR pBasic$[rsp]
  0004e	e8 00 00 00 00	 call	 ?TimeProc@CSTLogger@@QEAAXXZ ; CSTLogger::TimeProc
$LN1@loggerLoop:

; 267  : }

  00053	48 83 c4 30	 add	 rsp, 48			; 00000030H
  00057	5f		 pop	 rdi
  00058	c3		 ret	 0
?loggerLoop@@YAXPEAUSTThreadInfo@@@Z ENDP		; loggerLoop
_TEXT	ENDS
; Function compile flags: /Odtp /RTCsu
;	COMDAT ??_ECComThread@@QEAAPEAXI@Z
_TEXT	SEGMENT
$T1 = 32
this$ = 64
__flags$ = 72
??_ECComThread@@QEAAPEAXI@Z PROC			; CComThread::`vector deleting destructor', COMDAT
$LN6:
  00000	89 54 24 10	 mov	 DWORD PTR [rsp+16], edx
  00004	48 89 4c 24 08	 mov	 QWORD PTR [rsp+8], rcx
  00009	57		 push	 rdi
  0000a	48 83 ec 30	 sub	 rsp, 48			; 00000030H
  0000e	48 8b fc	 mov	 rdi, rsp
  00011	b9 0c 00 00 00	 mov	 ecx, 12
  00016	b8 cc cc cc cc	 mov	 eax, -858993460		; ccccccccH
  0001b	f3 ab		 rep stosd
  0001d	48 8b 4c 24 40	 mov	 rcx, QWORD PTR [rsp+64]
  00022	48 c7 44 24 20
	fe ff ff ff	 mov	 QWORD PTR $T1[rsp], -2
  0002b	8b 44 24 48	 mov	 eax, DWORD PTR __flags$[rsp]
  0002f	83 e0 02	 and	 eax, 2
  00032	85 c0		 test	 eax, eax
  00034	74 56		 je	 SHORT $LN2@vector
  00036	4c 8d 0d 00 00
	00 00		 lea	 r9, OFFSET FLAT:??1CComThread@@QEAA@XZ ; CComThread::~CComThread
  0003d	48 8b 44 24 40	 mov	 rax, QWORD PTR this$[rsp]
  00042	4c 8b 40 f8	 mov	 r8, QWORD PTR [rax-8]
  00046	ba 48 00 00 00	 mov	 edx, 72			; 00000048H
  0004b	48 8b 4c 24 40	 mov	 rcx, QWORD PTR this$[rsp]
  00050	e8 00 00 00 00	 call	 ??_M@YAXPEAX_K1P6AX0@Z@Z
  00055	90		 npad	 1
  00056	8b 44 24 48	 mov	 eax, DWORD PTR __flags$[rsp]
  0005a	83 e0 01	 and	 eax, 1
  0005d	85 c0		 test	 eax, eax
  0005f	74 20		 je	 SHORT $LN3@vector
  00061	48 8b 44 24 40	 mov	 rax, QWORD PTR this$[rsp]
  00066	48 6b 40 f8 48	 imul	 rax, QWORD PTR [rax-8], 72 ; 00000048H
  0006b	48 83 c0 08	 add	 rax, 8
  0006f	48 8b 4c 24 40	 mov	 rcx, QWORD PTR this$[rsp]
  00074	48 83 e9 08	 sub	 rcx, 8
  00078	48 8b d0	 mov	 rdx, rax
  0007b	e8 00 00 00 00	 call	 ??_V@YAXPEAX_K@Z	; operator delete[]
  00080	90		 npad	 1
$LN3@vector:
  00081	48 8b 44 24 40	 mov	 rax, QWORD PTR this$[rsp]
  00086	48 83 e8 08	 sub	 rax, 8
  0008a	eb 2b		 jmp	 SHORT $LN1@vector
$LN2@vector:
  0008c	48 8b 4c 24 40	 mov	 rcx, QWORD PTR this$[rsp]
  00091	e8 00 00 00 00	 call	 ??1CComThread@@QEAA@XZ	; CComThread::~CComThread
  00096	90		 npad	 1
  00097	8b 44 24 48	 mov	 eax, DWORD PTR __flags$[rsp]
  0009b	83 e0 01	 and	 eax, 1
  0009e	85 c0		 test	 eax, eax
  000a0	74 10		 je	 SHORT $LN4@vector
  000a2	ba 48 00 00 00	 mov	 edx, 72			; 00000048H
  000a7	48 8b 4c 24 40	 mov	 rcx, QWORD PTR this$[rsp]
  000ac	e8 00 00 00 00	 call	 ??3@YAXPEAX_K@Z		; operator delete
  000b1	90		 npad	 1
$LN4@vector:
  000b2	48 8b 44 24 40	 mov	 rax, QWORD PTR this$[rsp]
$LN1@vector:
  000b7	48 83 c4 30	 add	 rsp, 48			; 00000030H
  000bb	5f		 pop	 rdi
  000bc	c3		 ret	 0
??_ECComThread@@QEAAPEAXI@Z ENDP			; CComThread::`vector deleting destructor'
_TEXT	ENDS
; Function compile flags: /Odtp /RTCsu
;	COMDAT ??_GCComThread@@QEAAPEAXI@Z
_TEXT	SEGMENT
this$ = 48
__flags$ = 56
??_GCComThread@@QEAAPEAXI@Z PROC			; CComThread::`scalar deleting destructor', COMDAT
$LN4:
  00000	89 54 24 10	 mov	 DWORD PTR [rsp+16], edx
  00004	48 89 4c 24 08	 mov	 QWORD PTR [rsp+8], rcx
  00009	57		 push	 rdi
  0000a	48 83 ec 20	 sub	 rsp, 32			; 00000020H
  0000e	48 8b fc	 mov	 rdi, rsp
  00011	b9 08 00 00 00	 mov	 ecx, 8
  00016	b8 cc cc cc cc	 mov	 eax, -858993460		; ccccccccH
  0001b	f3 ab		 rep stosd
  0001d	48 8b 4c 24 30	 mov	 rcx, QWORD PTR [rsp+48]
  00022	48 8b 4c 24 30	 mov	 rcx, QWORD PTR this$[rsp]
  00027	e8 00 00 00 00	 call	 ??1CComThread@@QEAA@XZ	; CComThread::~CComThread
  0002c	8b 44 24 38	 mov	 eax, DWORD PTR __flags$[rsp]
  00030	83 e0 01	 and	 eax, 1
  00033	85 c0		 test	 eax, eax
  00035	74 0f		 je	 SHORT $LN2@scalar
  00037	ba 48 00 00 00	 mov	 edx, 72			; 00000048H
  0003c	48 8b 4c 24 30	 mov	 rcx, QWORD PTR this$[rsp]
  00041	e8 00 00 00 00	 call	 ??3@YAXPEAX_K@Z		; operator delete
$LN2@scalar:
  00046	48 8b 44 24 30	 mov	 rax, QWORD PTR this$[rsp]
  0004b	48 83 c4 20	 add	 rsp, 32			; 00000020H
  0004f	5f		 pop	 rdi
  00050	c3		 ret	 0
??_GCComThread@@QEAAPEAXI@Z ENDP			; CComThread::`scalar deleting destructor'
_TEXT	ENDS
; Function compile flags: /Odtp /RTCsu
; File e:\infinia-library-3.0\com\include\comcore.h
;	COMDAT ?sendSignal@CComThread@@QEAAXXZ
_TEXT	SEGMENT
tv75 = 32
this$ = 64
?sendSignal@CComThread@@QEAAXXZ PROC			; CComThread::sendSignal, COMDAT

; 92   : 	inline void sendSignal() { m_stInfo.cThreadCond.signal(); }

$LN3:
  00000	48 89 4c 24 08	 mov	 QWORD PTR [rsp+8], rcx
  00005	57		 push	 rdi
  00006	48 83 ec 30	 sub	 rsp, 48			; 00000030H
  0000a	48 8b fc	 mov	 rdi, rsp
  0000d	b9 0c 00 00 00	 mov	 ecx, 12
  00012	b8 cc cc cc cc	 mov	 eax, -858993460		; ccccccccH
  00017	f3 ab		 rep stosd
  00019	48 8b 4c 24 40	 mov	 rcx, QWORD PTR [rsp+64]
  0001e	48 8b 44 24 40	 mov	 rax, QWORD PTR this$[rsp]
  00023	48 83 c0 10	 add	 rax, 16
  00027	48 8b 4c 24 40	 mov	 rcx, QWORD PTR this$[rsp]
  0002c	48 8b 49 10	 mov	 rcx, QWORD PTR [rcx+16]
  00030	48 89 4c 24 20	 mov	 QWORD PTR tv75[rsp], rcx
  00035	48 8b c8	 mov	 rcx, rax
  00038	48 8b 44 24 20	 mov	 rax, QWORD PTR tv75[rsp]
  0003d	ff 50 08	 call	 QWORD PTR [rax+8]
  00040	48 83 c4 30	 add	 rsp, 48			; 00000030H
  00044	5f		 pop	 rdi
  00045	c3		 ret	 0
?sendSignal@CComThread@@QEAAXXZ ENDP			; CComThread::sendSignal
_TEXT	ENDS
; Function compile flags: /Odtp /RTCsu
; File e:\infinia-library-3.0\com\include\comcore.h
;	COMDAT ?bActive@CComThread@@QEAA_NXZ
_TEXT	SEGMENT
this$ = 16
?bActive@CComThread@@QEAA_NXZ PROC			; CComThread::bActive, COMDAT

; 91   : 	inline bool bActive() {	return m_stInfo.bActive; }

$LN3:
  00000	48 89 4c 24 08	 mov	 QWORD PTR [rsp+8], rcx
  00005	57		 push	 rdi
  00006	48 8b 44 24 10	 mov	 rax, QWORD PTR this$[rsp]
  0000b	0f b6 40 34	 movzx	 eax, BYTE PTR [rax+52]
  0000f	5f		 pop	 rdi
  00010	c3		 ret	 0
?bActive@CComThread@@QEAA_NXZ ENDP			; CComThread::bActive
_TEXT	ENDS
; Function compile flags: /Odtp /RTCsu
; File e:\infinia-library-3.0\com\include\comcore.h
;	COMDAT ?setIdx@CComThread@@QEAAXH@Z
_TEXT	SEGMENT
this$ = 16
nIdx$ = 24
?setIdx@CComThread@@QEAAXH@Z PROC			; CComThread::setIdx, COMDAT

; 90   : 	inline void setIdx(int nIdx) { m_stInfo.nIdx = nIdx; }

$LN3:
  00000	89 54 24 10	 mov	 DWORD PTR [rsp+16], edx
  00004	48 89 4c 24 08	 mov	 QWORD PTR [rsp+8], rcx
  00009	57		 push	 rdi
  0000a	48 8b 44 24 10	 mov	 rax, QWORD PTR this$[rsp]
  0000f	8b 4c 24 18	 mov	 ecx, DWORD PTR nIdx$[rsp]
  00013	89 48 30	 mov	 DWORD PTR [rax+48], ecx
  00016	5f		 pop	 rdi
  00017	c3		 ret	 0
?setIdx@CComThread@@QEAAXH@Z ENDP			; CComThread::setIdx
_TEXT	ENDS
; Function compile flags: /Odtp /RTCsu
; File e:\infinia-library-3.0\com\src\comcore.cpp
_TEXT	SEGMENT
pClass$ = 32
pBasic$ = 40
ptr$ = 64
?ProcThread@CComThread@@SAKPEAX@Z PROC			; CComThread::ProcThread

; 75   : {

$LN5:
  00000	48 89 4c 24 08	 mov	 QWORD PTR [rsp+8], rcx
  00005	57		 push	 rdi
  00006	48 83 ec 30	 sub	 rsp, 48			; 00000030H
  0000a	48 8b fc	 mov	 rdi, rsp
  0000d	b9 0c 00 00 00	 mov	 ecx, 12
  00012	b8 cc cc cc cc	 mov	 eax, -858993460		; ccccccccH
  00017	f3 ab		 rep stosd
  00019	48 8b 4c 24 40	 mov	 rcx, QWORD PTR [rsp+64]

; 76   : 	//pthread_detach(pthread_self());	
; 77   : 	CComThread *pClass = (CComThread *)ptr;

  0001e	48 8b 44 24 40	 mov	 rax, QWORD PTR ptr$[rsp]
  00023	48 89 44 24 20	 mov	 QWORD PTR pClass$[rsp], rax

; 78   : 	STThreadInfo *pBasic = &(pClass->m_stInfo);

  00028	48 8b 44 24 20	 mov	 rax, QWORD PTR pClass$[rsp]
  0002d	48 83 c0 08	 add	 rax, 8
  00031	48 89 44 24 28	 mov	 QWORD PTR pBasic$[rsp], rax
$LN2@ProcThread:

; 79   : 
; 80   : 	while (pBasic->bActive)

  00036	48 8b 44 24 28	 mov	 rax, QWORD PTR pBasic$[rsp]
  0003b	0f b6 40 2c	 movzx	 eax, BYTE PTR [rax+44]
  0003f	85 c0		 test	 eax, eax
  00041	74 2a		 je	 SHORT $LN3@ProcThread

; 81   : 	{
; 82   : 		pBasic->cThreadCond.wait(pBasic->millisecSleep, NULL);	// -1 : INFINITE

  00043	48 8b 44 24 28	 mov	 rax, QWORD PTR pBasic$[rsp]
  00048	48 83 c0 08	 add	 rax, 8
  0004c	45 33 c0	 xor	 r8d, r8d
  0004f	48 8b 4c 24 28	 mov	 rcx, QWORD PTR pBasic$[rsp]
  00054	8b 51 30	 mov	 edx, DWORD PTR [rcx+48]
  00057	48 8b c8	 mov	 rcx, rax
  0005a	e8 00 00 00 00	 call	 ?wait@condition@win32@common@@QEAA_NHPEAVcritical_section@23@@Z ; common::win32::condition::wait

; 83   : 		pClass->m_fpLoopProc(pBasic);

  0005f	48 8b 4c 24 28	 mov	 rcx, QWORD PTR pBasic$[rsp]
  00064	48 8b 44 24 20	 mov	 rax, QWORD PTR pClass$[rsp]
  00069	ff 10		 call	 QWORD PTR [rax]

; 84   : 	}

  0006b	eb c9		 jmp	 SHORT $LN2@ProcThread
$LN3@ProcThread:

; 85   : 	pClass->quit();

  0006d	48 8b 4c 24 20	 mov	 rcx, QWORD PTR pClass$[rsp]
  00072	e8 00 00 00 00	 call	 ?quit@CComThread@@QEAA_NXZ ; CComThread::quit

; 86   : 	return 0;

  00077	33 c0		 xor	 eax, eax

; 87   : }

  00079	48 83 c4 30	 add	 rsp, 48			; 00000030H
  0007d	5f		 pop	 rdi
  0007e	c3		 ret	 0
?ProcThread@CComThread@@SAKPEAX@Z ENDP			; CComThread::ProcThread
_TEXT	ENDS
; Function compile flags: /Odtp /RTCsu
; File e:\infinia-library-3.0\com\src\comcore.cpp
_TEXT	SEGMENT
nStatus$ = 32
this$ = 64
?quit@CComThread@@QEAA_NXZ PROC				; CComThread::quit

; 65   : {

$LN4:
  00000	48 89 4c 24 08	 mov	 QWORD PTR [rsp+8], rcx
  00005	57		 push	 rdi
  00006	48 83 ec 30	 sub	 rsp, 48			; 00000030H
  0000a	48 8b fc	 mov	 rdi, rsp
  0000d	b9 0c 00 00 00	 mov	 ecx, 12
  00012	b8 cc cc cc cc	 mov	 eax, -858993460		; ccccccccH
  00017	f3 ab		 rep stosd
  00019	48 8b 4c 24 40	 mov	 rcx, QWORD PTR [rsp+64]

; 66   : 	if (!m_stInfo.hTHID) return false;

  0001e	48 8b 44 24 40	 mov	 rax, QWORD PTR this$[rsp]
  00023	48 83 78 08 00	 cmp	 QWORD PTR [rax+8], 0
  00028	75 04		 jne	 SHORT $LN2@quit
  0002a	32 c0		 xor	 al, al
  0002c	eb 22		 jmp	 SHORT $LN1@quit
$LN2@quit:

; 67   : 	int nStatus = 0; // for linux

  0002e	c7 44 24 20 00
	00 00 00	 mov	 DWORD PTR nStatus$[rsp], 0

; 68   : 	m_stInfo.bActive = false;

  00036	48 8b 44 24 40	 mov	 rax, QWORD PTR this$[rsp]
  0003b	c6 40 34 00	 mov	 BYTE PTR [rax+52], 0

; 69   : 	THREAD_JOIN(m_stInfo.hTHID, (void **)&nStatus);

  0003f	48 8b 44 24 40	 mov	 rax, QWORD PTR this$[rsp]
  00044	48 8b 48 08	 mov	 rcx, QWORD PTR [rax+8]
  00048	ff 15 00 00 00
	00		 call	 QWORD PTR __imp_CloseHandle

; 70   : 	return true;

  0004e	b0 01		 mov	 al, 1
$LN1@quit:

; 71   : }

  00050	48 83 c4 30	 add	 rsp, 48			; 00000030H
  00054	5f		 pop	 rdi
  00055	c3		 ret	 0
?quit@CComThread@@QEAA_NXZ ENDP				; CComThread::quit
_TEXT	ENDS
; Function compile flags: /Odtp /RTCsu
; File e:\infinia-library-3.0\com\src\comcore.cpp
_TEXT	SEGMENT
tv81 = 48
this$ = 80
?start@CComThread@@QEAA_NXZ PROC			; CComThread::start

; 44   : {

$LN7:
  00000	48 89 4c 24 08	 mov	 QWORD PTR [rsp+8], rcx
  00005	57		 push	 rdi
  00006	48 83 ec 40	 sub	 rsp, 64			; 00000040H
  0000a	48 8b fc	 mov	 rdi, rsp
  0000d	b9 10 00 00 00	 mov	 ecx, 16
  00012	b8 cc cc cc cc	 mov	 eax, -858993460		; ccccccccH
  00017	f3 ab		 rep stosd
  00019	48 8b 4c 24 50	 mov	 rcx, QWORD PTR [rsp+80]

; 45   : 	if (!m_fpLoopProc) {

  0001e	48 8b 44 24 50	 mov	 rax, QWORD PTR this$[rsp]
  00023	48 83 38 00	 cmp	 QWORD PTR [rax], 0
  00027	75 20		 jne	 SHORT $LN2@start

; 46   : 		comErrorPrint("m_fpLoopProc is NULL");

  00029	41 b8 2e 00 00
	00		 mov	 r8d, 46			; 0000002eH
  0002f	48 8d 15 00 00
	00 00		 lea	 rdx, OFFSET FLAT:$SG45246
  00036	48 8d 0d 00 00
	00 00		 lea	 rcx, OFFSET FLAT:$SG45247
  0003d	e8 00 00 00 00	 call	 ?comGlobalErrorProc@@YAXPEADPEBDH@Z ; comGlobalErrorProc

; 47   : 		return false;

  00042	32 c0		 xor	 al, al
  00044	e9 a3 00 00 00	 jmp	 $LN1@start
$LN2@start:

; 48   : 	}
; 49   : 	if (0 > m_stInfo.nIdx) {

  00049	48 8b 44 24 50	 mov	 rax, QWORD PTR this$[rsp]
  0004e	83 78 30 00	 cmp	 DWORD PTR [rax+48], 0
  00052	7d 1d		 jge	 SHORT $LN3@start

; 50   : 		comErrorPrint("0 > m_stInfo.nIdx");

  00054	41 b8 32 00 00
	00		 mov	 r8d, 50			; 00000032H
  0005a	48 8d 15 00 00
	00 00		 lea	 rdx, OFFSET FLAT:$SG45249
  00061	48 8d 0d 00 00
	00 00		 lea	 rcx, OFFSET FLAT:$SG45250
  00068	e8 00 00 00 00	 call	 ?comGlobalErrorProc@@YAXPEADPEBDH@Z ; comGlobalErrorProc

; 51   : 		return false;

  0006d	32 c0		 xor	 al, al
  0006f	eb 7b		 jmp	 SHORT $LN1@start
$LN3@start:

; 52   : 	}
; 53   : 
; 54   : 	if (m_stInfo.bActive) return true;

  00071	48 8b 44 24 50	 mov	 rax, QWORD PTR this$[rsp]
  00076	0f b6 40 34	 movzx	 eax, BYTE PTR [rax+52]
  0007a	85 c0		 test	 eax, eax
  0007c	74 04		 je	 SHORT $LN4@start
  0007e	b0 01		 mov	 al, 1
  00080	eb 6a		 jmp	 SHORT $LN1@start
$LN4@start:

; 55   : 	// create Single Thread
; 56   : 	if (!THREAD_CREATE(&m_stInfo.hTHID, ProcThread, this)) {

  00082	48 c7 44 24 28
	00 00 00 00	 mov	 QWORD PTR [rsp+40], 0
  0008b	c7 44 24 20 00
	00 00 00	 mov	 DWORD PTR [rsp+32], 0
  00093	4c 8b 4c 24 50	 mov	 r9, QWORD PTR this$[rsp]
  00098	4c 8d 05 00 00
	00 00		 lea	 r8, OFFSET FLAT:?ProcThread@CComThread@@SAKPEAX@Z ; CComThread::ProcThread
  0009f	33 d2		 xor	 edx, edx
  000a1	33 c9		 xor	 ecx, ecx
  000a3	ff 15 00 00 00
	00		 call	 QWORD PTR __imp_CreateThread
  000a9	48 89 44 24 30	 mov	 QWORD PTR tv81[rsp], rax
  000ae	48 8b 44 24 50	 mov	 rax, QWORD PTR this$[rsp]
  000b3	48 8b 4c 24 30	 mov	 rcx, QWORD PTR tv81[rsp]
  000b8	48 89 48 08	 mov	 QWORD PTR [rax+8], rcx
  000bc	48 83 7c 24 30
	00		 cmp	 QWORD PTR tv81[rsp], 0
  000c2	75 1d		 jne	 SHORT $LN5@start

; 57   : 		comErrorPrint("THREAD_CREATE has Failed");

  000c4	41 b8 39 00 00
	00		 mov	 r8d, 57			; 00000039H
  000ca	48 8d 15 00 00
	00 00		 lea	 rdx, OFFSET FLAT:$SG45253
  000d1	48 8d 0d 00 00
	00 00		 lea	 rcx, OFFSET FLAT:$SG45254
  000d8	e8 00 00 00 00	 call	 ?comGlobalErrorProc@@YAXPEADPEBDH@Z ; comGlobalErrorProc

; 58   : 		return false;

  000dd	32 c0		 xor	 al, al
  000df	eb 0b		 jmp	 SHORT $LN1@start
$LN5@start:

; 59   : 	}
; 60   : 	m_stInfo.bActive = true;

  000e1	48 8b 44 24 50	 mov	 rax, QWORD PTR this$[rsp]
  000e6	c6 40 34 01	 mov	 BYTE PTR [rax+52], 1

; 61   : 	return true;

  000ea	b0 01		 mov	 al, 1
$LN1@start:

; 62   : }

  000ec	48 83 c4 40	 add	 rsp, 64			; 00000040H
  000f0	5f		 pop	 rdi
  000f1	c3		 ret	 0
?start@CComThread@@QEAA_NXZ ENDP			; CComThread::start
_TEXT	ENDS
; Function compile flags: /Odtp /RTCsu
; File e:\infinia-library-3.0\com\src\comcore.cpp
_TEXT	SEGMENT
this$ = 16
fpProc$ = 24
pClass$ = 32
millisec$ = 40
pObj$ = 48
?init@CComThread@@QEAA_NP6AXPEAUSTThreadInfo@@@ZPEAXH2@Z PROC ; CComThread::init

; 34   : {

$LN3:
  00000	44 89 4c 24 20	 mov	 DWORD PTR [rsp+32], r9d
  00005	4c 89 44 24 18	 mov	 QWORD PTR [rsp+24], r8
  0000a	48 89 54 24 10	 mov	 QWORD PTR [rsp+16], rdx
  0000f	48 89 4c 24 08	 mov	 QWORD PTR [rsp+8], rcx
  00014	57		 push	 rdi

; 35   : 	m_stInfo.pClass = pClass;

  00015	48 8b 44 24 10	 mov	 rax, QWORD PTR this$[rsp]
  0001a	48 8b 4c 24 20	 mov	 rcx, QWORD PTR pClass$[rsp]
  0001f	48 89 48 20	 mov	 QWORD PTR [rax+32], rcx

; 36   : 	m_stInfo.pObj = pObj;

  00023	48 8b 44 24 10	 mov	 rax, QWORD PTR this$[rsp]
  00028	48 8b 4c 24 30	 mov	 rcx, QWORD PTR pObj$[rsp]
  0002d	48 89 48 28	 mov	 QWORD PTR [rax+40], rcx

; 37   : 	m_stInfo.millisecSleep = millisec;

  00031	48 8b 44 24 10	 mov	 rax, QWORD PTR this$[rsp]
  00036	8b 4c 24 28	 mov	 ecx, DWORD PTR millisec$[rsp]
  0003a	89 48 38	 mov	 DWORD PTR [rax+56], ecx

; 38   : 	m_fpLoopProc = fpProc;

  0003d	48 8b 44 24 10	 mov	 rax, QWORD PTR this$[rsp]
  00042	48 8b 4c 24 18	 mov	 rcx, QWORD PTR fpProc$[rsp]
  00047	48 89 08	 mov	 QWORD PTR [rax], rcx

; 39   : 	m_nMillisecSleep = millisec;

  0004a	48 8b 44 24 10	 mov	 rax, QWORD PTR this$[rsp]
  0004f	8b 4c 24 28	 mov	 ecx, DWORD PTR millisec$[rsp]
  00053	89 48 40	 mov	 DWORD PTR [rax+64], ecx

; 40   : 	return true;

  00056	b0 01		 mov	 al, 1

; 41   : }

  00058	5f		 pop	 rdi
  00059	c3		 ret	 0
?init@CComThread@@QEAA_NP6AXPEAUSTThreadInfo@@@ZPEAXH2@Z ENDP ; CComThread::init
_TEXT	ENDS
; Function compile flags: /Odtp /RTCsu
; File e:\infinia-library-3.0\com\src\comcore.cpp
_TEXT	SEGMENT
$T1 = 32
this$ = 64
??1CComThread@@QEAA@XZ PROC				; CComThread::~CComThread

; 28   : {

$LN3:
  00000	48 89 4c 24 08	 mov	 QWORD PTR [rsp+8], rcx
  00005	57		 push	 rdi
  00006	48 83 ec 30	 sub	 rsp, 48			; 00000030H
  0000a	48 8b fc	 mov	 rdi, rsp
  0000d	b9 0c 00 00 00	 mov	 ecx, 12
  00012	b8 cc cc cc cc	 mov	 eax, -858993460		; ccccccccH
  00017	f3 ab		 rep stosd
  00019	48 8b 4c 24 40	 mov	 rcx, QWORD PTR [rsp+64]
  0001e	48 c7 44 24 20
	fe ff ff ff	 mov	 QWORD PTR $T1[rsp], -2

; 29   : 	quit();

  00027	48 8b 4c 24 40	 mov	 rcx, QWORD PTR this$[rsp]
  0002c	e8 00 00 00 00	 call	 ?quit@CComThread@@QEAA_NXZ ; CComThread::quit
  00031	90		 npad	 1

; 30   : }

  00032	48 8b 44 24 40	 mov	 rax, QWORD PTR this$[rsp]
  00037	48 83 c0 08	 add	 rax, 8
  0003b	48 8b c8	 mov	 rcx, rax
  0003e	e8 00 00 00 00	 call	 ??1STThreadInfo@@QEAA@XZ
  00043	90		 npad	 1
  00044	48 83 c4 30	 add	 rsp, 48			; 00000030H
  00048	5f		 pop	 rdi
  00049	c3		 ret	 0
??1CComThread@@QEAA@XZ ENDP				; CComThread::~CComThread
_TEXT	ENDS
; Function compile flags: /Odtp /RTCsu
; File e:\infinia-library-3.0\com\src\comcore.cpp
_TEXT	SEGMENT
this$ = 48
??0CComThread@@QEAA@XZ PROC				; CComThread::CComThread

; 15   : {

$LN4:
  00000	48 89 4c 24 08	 mov	 QWORD PTR [rsp+8], rcx
  00005	57		 push	 rdi
  00006	48 83 ec 20	 sub	 rsp, 32			; 00000020H
  0000a	48 8b fc	 mov	 rdi, rsp
  0000d	b9 08 00 00 00	 mov	 ecx, 8
  00012	b8 cc cc cc cc	 mov	 eax, -858993460		; ccccccccH
  00017	f3 ab		 rep stosd
  00019	48 8b 4c 24 30	 mov	 rcx, QWORD PTR [rsp+48]
  0001e	48 8b 44 24 30	 mov	 rax, QWORD PTR this$[rsp]
  00023	48 83 c0 08	 add	 rax, 8
  00027	48 8b c8	 mov	 rcx, rax
  0002a	e8 00 00 00 00	 call	 ??0STThreadInfo@@QEAA@XZ

; 16   : 	m_stInfo.bActive = false;

  0002f	48 8b 44 24 30	 mov	 rax, QWORD PTR this$[rsp]
  00034	c6 40 34 00	 mov	 BYTE PTR [rax+52], 0

; 17   : 	m_stInfo.hTHID = NULL;

  00038	48 8b 44 24 30	 mov	 rax, QWORD PTR this$[rsp]
  0003d	48 c7 40 08 00
	00 00 00	 mov	 QWORD PTR [rax+8], 0

; 18   : 	m_stInfo.nIdx = -1;

  00045	48 8b 44 24 30	 mov	 rax, QWORD PTR this$[rsp]
  0004a	c7 40 30 ff ff
	ff ff		 mov	 DWORD PTR [rax+48], -1

; 19   : 	m_stInfo.pClass = NULL;

  00051	48 8b 44 24 30	 mov	 rax, QWORD PTR this$[rsp]
  00056	48 c7 40 20 00
	00 00 00	 mov	 QWORD PTR [rax+32], 0

; 20   : 	m_stInfo.millisecSleep = INFINITE;

  0005e	48 8b 44 24 30	 mov	 rax, QWORD PTR this$[rsp]
  00063	c7 40 38 ff ff
	ff ff		 mov	 DWORD PTR [rax+56], -1

; 21   : 	m_nMillisecSleep = INFINITE;

  0006a	48 8b 44 24 30	 mov	 rax, QWORD PTR this$[rsp]
  0006f	c7 40 40 ff ff
	ff ff		 mov	 DWORD PTR [rax+64], -1

; 22   : 	m_stInfo.pObj = NULL;

  00076	48 8b 44 24 30	 mov	 rax, QWORD PTR this$[rsp]
  0007b	48 c7 40 28 00
	00 00 00	 mov	 QWORD PTR [rax+40], 0

; 23   : 	m_fpLoopProc = NULL;

  00083	48 8b 44 24 30	 mov	 rax, QWORD PTR this$[rsp]
  00088	48 c7 00 00 00
	00 00		 mov	 QWORD PTR [rax], 0

; 24   : 
; 25   : }

  0008f	48 8b 44 24 30	 mov	 rax, QWORD PTR this$[rsp]
  00094	48 83 c4 20	 add	 rsp, 32			; 00000020H
  00098	5f		 pop	 rdi
  00099	c3		 ret	 0
??0CComThread@@QEAA@XZ ENDP				; CComThread::CComThread
_TEXT	ENDS
; Function compile flags: /Odtp /RTCsu
;	COMDAT ??1STThreadInfo@@QEAA@XZ
_TEXT	SEGMENT
this$ = 48
??1STThreadInfo@@QEAA@XZ PROC				; STThreadInfo::~STThreadInfo, COMDAT
$LN3:
  00000	48 89 4c 24 08	 mov	 QWORD PTR [rsp+8], rcx
  00005	57		 push	 rdi
  00006	48 83 ec 20	 sub	 rsp, 32			; 00000020H
  0000a	48 8b fc	 mov	 rdi, rsp
  0000d	b9 08 00 00 00	 mov	 ecx, 8
  00012	b8 cc cc cc cc	 mov	 eax, -858993460		; ccccccccH
  00017	f3 ab		 rep stosd
  00019	48 8b 4c 24 30	 mov	 rcx, QWORD PTR [rsp+48]
  0001e	48 8b 44 24 30	 mov	 rax, QWORD PTR this$[rsp]
  00023	48 83 c0 08	 add	 rax, 8
  00027	48 8b c8	 mov	 rcx, rax
  0002a	e8 00 00 00 00	 call	 ??1condition@win32@common@@UEAA@XZ ; common::win32::condition::~condition
  0002f	48 83 c4 20	 add	 rsp, 32			; 00000020H
  00033	5f		 pop	 rdi
  00034	c3		 ret	 0
??1STThreadInfo@@QEAA@XZ ENDP				; STThreadInfo::~STThreadInfo
_TEXT	ENDS
; Function compile flags: /Odtp /RTCsu
;	COMDAT ??0STThreadInfo@@QEAA@XZ
_TEXT	SEGMENT
this$ = 48
??0STThreadInfo@@QEAA@XZ PROC				; STThreadInfo::STThreadInfo, COMDAT
$LN4:
  00000	48 89 4c 24 08	 mov	 QWORD PTR [rsp+8], rcx
  00005	57		 push	 rdi
  00006	48 83 ec 20	 sub	 rsp, 32			; 00000020H
  0000a	48 8b fc	 mov	 rdi, rsp
  0000d	b9 08 00 00 00	 mov	 ecx, 8
  00012	b8 cc cc cc cc	 mov	 eax, -858993460		; ccccccccH
  00017	f3 ab		 rep stosd
  00019	48 8b 4c 24 30	 mov	 rcx, QWORD PTR [rsp+48]
  0001e	48 8b 44 24 30	 mov	 rax, QWORD PTR this$[rsp]
  00023	48 83 c0 08	 add	 rax, 8
  00027	48 8b c8	 mov	 rcx, rax
  0002a	e8 00 00 00 00	 call	 ??0condition@win32@common@@QEAA@XZ ; common::win32::condition::condition
  0002f	48 8b 44 24 30	 mov	 rax, QWORD PTR this$[rsp]
  00034	48 83 c4 20	 add	 rsp, 32			; 00000020H
  00038	5f		 pop	 rdi
  00039	c3		 ret	 0
??0STThreadInfo@@QEAA@XZ ENDP				; STThreadInfo::STThreadInfo
_TEXT	ENDS
; Function compile flags: /Odtp /RTCsu
;	COMDAT ??_ECLogger@@QEAAPEAXI@Z
_TEXT	SEGMENT
$T1 = 32
this$ = 64
__flags$ = 72
??_ECLogger@@QEAAPEAXI@Z PROC				; CLogger::`vector deleting destructor', COMDAT
$LN6:
  00000	89 54 24 10	 mov	 DWORD PTR [rsp+16], edx
  00004	48 89 4c 24 08	 mov	 QWORD PTR [rsp+8], rcx
  00009	57		 push	 rdi
  0000a	48 83 ec 30	 sub	 rsp, 48			; 00000030H
  0000e	48 8b fc	 mov	 rdi, rsp
  00011	b9 0c 00 00 00	 mov	 ecx, 12
  00016	b8 cc cc cc cc	 mov	 eax, -858993460		; ccccccccH
  0001b	f3 ab		 rep stosd
  0001d	48 8b 4c 24 40	 mov	 rcx, QWORD PTR [rsp+64]
  00022	48 c7 44 24 20
	fe ff ff ff	 mov	 QWORD PTR $T1[rsp], -2
  0002b	8b 44 24 48	 mov	 eax, DWORD PTR __flags$[rsp]
  0002f	83 e0 02	 and	 eax, 2
  00032	85 c0		 test	 eax, eax
  00034	74 59		 je	 SHORT $LN2@vector
  00036	4c 8d 0d 00 00
	00 00		 lea	 r9, OFFSET FLAT:??1CLogger@@QEAA@XZ ; CLogger::~CLogger
  0003d	48 8b 44 24 40	 mov	 rax, QWORD PTR this$[rsp]
  00042	4c 8b 40 f8	 mov	 r8, QWORD PTR [rax-8]
  00046	ba 18 01 00 00	 mov	 edx, 280		; 00000118H
  0004b	48 8b 4c 24 40	 mov	 rcx, QWORD PTR this$[rsp]
  00050	e8 00 00 00 00	 call	 ??_M@YAXPEAX_K1P6AX0@Z@Z
  00055	90		 npad	 1
  00056	8b 44 24 48	 mov	 eax, DWORD PTR __flags$[rsp]
  0005a	83 e0 01	 and	 eax, 1
  0005d	85 c0		 test	 eax, eax
  0005f	74 23		 je	 SHORT $LN3@vector
  00061	48 8b 44 24 40	 mov	 rax, QWORD PTR this$[rsp]
  00066	48 69 40 f8 18
	01 00 00	 imul	 rax, QWORD PTR [rax-8], 280 ; 00000118H
  0006e	48 83 c0 08	 add	 rax, 8
  00072	48 8b 4c 24 40	 mov	 rcx, QWORD PTR this$[rsp]
  00077	48 83 e9 08	 sub	 rcx, 8
  0007b	48 8b d0	 mov	 rdx, rax
  0007e	e8 00 00 00 00	 call	 ??_V@YAXPEAX_K@Z	; operator delete[]
  00083	90		 npad	 1
$LN3@vector:
  00084	48 8b 44 24 40	 mov	 rax, QWORD PTR this$[rsp]
  00089	48 83 e8 08	 sub	 rax, 8
  0008d	eb 2b		 jmp	 SHORT $LN1@vector
$LN2@vector:
  0008f	48 8b 4c 24 40	 mov	 rcx, QWORD PTR this$[rsp]
  00094	e8 00 00 00 00	 call	 ??1CLogger@@QEAA@XZ	; CLogger::~CLogger
  00099	90		 npad	 1
  0009a	8b 44 24 48	 mov	 eax, DWORD PTR __flags$[rsp]
  0009e	83 e0 01	 and	 eax, 1
  000a1	85 c0		 test	 eax, eax
  000a3	74 10		 je	 SHORT $LN4@vector
  000a5	ba 18 01 00 00	 mov	 edx, 280		; 00000118H
  000aa	48 8b 4c 24 40	 mov	 rcx, QWORD PTR this$[rsp]
  000af	e8 00 00 00 00	 call	 ??3@YAXPEAX_K@Z		; operator delete
  000b4	90		 npad	 1
$LN4@vector:
  000b5	48 8b 44 24 40	 mov	 rax, QWORD PTR this$[rsp]
$LN1@vector:
  000ba	48 83 c4 30	 add	 rsp, 48			; 00000030H
  000be	5f		 pop	 rdi
  000bf	c3		 ret	 0
??_ECLogger@@QEAAPEAXI@Z ENDP				; CLogger::`vector deleting destructor'
_TEXT	ENDS
; Function compile flags: /Odtp /RTCsu
;	COMDAT ??_GCLogger@@QEAAPEAXI@Z
_TEXT	SEGMENT
this$ = 48
__flags$ = 56
??_GCLogger@@QEAAPEAXI@Z PROC				; CLogger::`scalar deleting destructor', COMDAT
$LN4:
  00000	89 54 24 10	 mov	 DWORD PTR [rsp+16], edx
  00004	48 89 4c 24 08	 mov	 QWORD PTR [rsp+8], rcx
  00009	57		 push	 rdi
  0000a	48 83 ec 20	 sub	 rsp, 32			; 00000020H
  0000e	48 8b fc	 mov	 rdi, rsp
  00011	b9 08 00 00 00	 mov	 ecx, 8
  00016	b8 cc cc cc cc	 mov	 eax, -858993460		; ccccccccH
  0001b	f3 ab		 rep stosd
  0001d	48 8b 4c 24 30	 mov	 rcx, QWORD PTR [rsp+48]
  00022	48 8b 4c 24 30	 mov	 rcx, QWORD PTR this$[rsp]
  00027	e8 00 00 00 00	 call	 ??1CLogger@@QEAA@XZ	; CLogger::~CLogger
  0002c	8b 44 24 38	 mov	 eax, DWORD PTR __flags$[rsp]
  00030	83 e0 01	 and	 eax, 1
  00033	85 c0		 test	 eax, eax
  00035	74 0f		 je	 SHORT $LN2@scalar
  00037	ba 18 01 00 00	 mov	 edx, 280		; 00000118H
  0003c	48 8b 4c 24 30	 mov	 rcx, QWORD PTR this$[rsp]
  00041	e8 00 00 00 00	 call	 ??3@YAXPEAX_K@Z		; operator delete
$LN2@scalar:
  00046	48 8b 44 24 30	 mov	 rax, QWORD PTR this$[rsp]
  0004b	48 83 c4 20	 add	 rsp, 32			; 00000020H
  0004f	5f		 pop	 rdi
  00050	c3		 ret	 0
??_GCLogger@@QEAAPEAXI@Z ENDP				; CLogger::`scalar deleting destructor'
_TEXT	ENDS
; Function compile flags: /Odtp /RTCsu
; File e:\infinia-library-3.0\com\include\comlogger.h
;	COMDAT ?setCondition@CLogger@@QEAAXPEAVcondition@win32@common@@@Z
_TEXT	SEGMENT
this$ = 16
p$ = 24
?setCondition@CLogger@@QEAAXPEAVcondition@win32@common@@@Z PROC ; CLogger::setCondition, COMDAT

; 206  : 	inline void setCondition(THREAD_COND *p) { m_pCondition = p; }

$LN3:
  00000	48 89 54 24 10	 mov	 QWORD PTR [rsp+16], rdx
  00005	48 89 4c 24 08	 mov	 QWORD PTR [rsp+8], rcx
  0000a	57		 push	 rdi
  0000b	48 8b 44 24 10	 mov	 rax, QWORD PTR this$[rsp]
  00010	48 8b 4c 24 18	 mov	 rcx, QWORD PTR p$[rsp]
  00015	48 89 48 68	 mov	 QWORD PTR [rax+104], rcx
  00019	5f		 pop	 rdi
  0001a	c3		 ret	 0
?setCondition@CLogger@@QEAAXPEAVcondition@win32@common@@@Z ENDP ; CLogger::setCondition
_TEXT	ENDS
; Function compile flags: /Odtp /RTCsu
; File e:\infinia-library-3.0\com\include\comlogger.h
;	COMDAT ?getLogName@CLogger@@QEAAPEADXZ
_TEXT	SEGMENT
this$ = 16
?getLogName@CLogger@@QEAAPEADXZ PROC			; CLogger::getLogName, COMDAT

; 203  : 	inline TCHAR *getLogName() { return m_pLogName;}

$LN3:
  00000	48 89 4c 24 08	 mov	 QWORD PTR [rsp+8], rcx
  00005	57		 push	 rdi
  00006	48 8b 44 24 10	 mov	 rax, QWORD PTR this$[rsp]
  0000b	48 8b 80 a0 00
	00 00		 mov	 rax, QWORD PTR [rax+160]
  00012	5f		 pop	 rdi
  00013	c3		 ret	 0
?getLogName@CLogger@@QEAAPEADXZ ENDP			; CLogger::getLogName
_TEXT	ENDS
; Function compile flags: /Odtp /RTCsu
; File e:\infinia-library-3.0\com\include\comlogger.h
;	COMDAT ?pop@CLogger@@QEAAPEADXZ
_TEXT	SEGMENT
this$ = 48
?pop@CLogger@@QEAAPEADXZ PROC				; CLogger::pop, COMDAT

; 198  : 	inline TCHAR * pop() { return (TCHAR *)m_sLogQueue.pop(); } // write   STLogger : 

$LN3:
  00000	48 89 4c 24 08	 mov	 QWORD PTR [rsp+8], rcx
  00005	57		 push	 rdi
  00006	48 83 ec 20	 sub	 rsp, 32			; 00000020H
  0000a	48 8b fc	 mov	 rdi, rsp
  0000d	b9 08 00 00 00	 mov	 ecx, 8
  00012	b8 cc cc cc cc	 mov	 eax, -858993460		; ccccccccH
  00017	f3 ab		 rep stosd
  00019	48 8b 4c 24 30	 mov	 rcx, QWORD PTR [rsp+48]
  0001e	48 8b 44 24 30	 mov	 rax, QWORD PTR this$[rsp]
  00023	48 8b c8	 mov	 rcx, rax
  00026	e8 00 00 00 00	 call	 ?pop@CQueueS@@QEAAPEAXXZ ; CQueueS::pop
  0002b	48 83 c4 20	 add	 rsp, 32			; 00000020H
  0002f	5f		 pop	 rdi
  00030	c3		 ret	 0
?pop@CLogger@@QEAAPEADXZ ENDP				; CLogger::pop
_TEXT	ENDS
; Function compile flags: /Odtp /RTCsu
; File e:\infinia-library-3.0\com\include\comlogger.h
;	COMDAT ?isLogFlag@CLogger@@QEAA_NW4E_LOG_FLAG@@@Z
_TEXT	SEGMENT
tv67 = 0
this$ = 32
nFlag$ = 40
?isLogFlag@CLogger@@QEAA_NW4E_LOG_FLAG@@@Z PROC		; CLogger::isLogFlag, COMDAT

; 185  : 	inline bool isLogFlag(E_LOG_FLAG nFlag) { return (m_nLogFlag & nFlag)?true:false; }

$LN5:
  00000	89 54 24 10	 mov	 DWORD PTR [rsp+16], edx
  00004	48 89 4c 24 08	 mov	 QWORD PTR [rsp+8], rcx
  00009	57		 push	 rdi
  0000a	48 83 ec 10	 sub	 rsp, 16
  0000e	48 8b fc	 mov	 rdi, rsp
  00011	b9 04 00 00 00	 mov	 ecx, 4
  00016	b8 cc cc cc cc	 mov	 eax, -858993460		; ccccccccH
  0001b	f3 ab		 rep stosd
  0001d	48 8b 4c 24 20	 mov	 rcx, QWORD PTR [rsp+32]
  00022	48 8b 44 24 20	 mov	 rax, QWORD PTR this$[rsp]
  00027	8b 4c 24 28	 mov	 ecx, DWORD PTR nFlag$[rsp]
  0002b	8b 80 b4 00 00
	00		 mov	 eax, DWORD PTR [rax+180]
  00031	23 c1		 and	 eax, ecx
  00033	85 c0		 test	 eax, eax
  00035	74 06		 je	 SHORT $LN3@isLogFlag
  00037	c6 04 24 01	 mov	 BYTE PTR tv67[rsp], 1
  0003b	eb 04		 jmp	 SHORT $LN4@isLogFlag
$LN3@isLogFlag:
  0003d	c6 04 24 00	 mov	 BYTE PTR tv67[rsp], 0
$LN4@isLogFlag:
  00041	0f b6 04 24	 movzx	 eax, BYTE PTR tv67[rsp]
  00045	48 83 c4 10	 add	 rsp, 16
  00049	5f		 pop	 rdi
  0004a	c3		 ret	 0
?isLogFlag@CLogger@@QEAA_NW4E_LOG_FLAG@@@Z ENDP		; CLogger::isLogFlag
_TEXT	ENDS
; Function compile flags: /Odtp /RTCsu
; File e:\infinia-library-3.0\com\include\comlogger.h
;	COMDAT ?clearLogFlag@CLogger@@QEAAXW4E_LOG_FLAG@@@Z
_TEXT	SEGMENT
this$ = 16
nFlag$ = 24
?clearLogFlag@CLogger@@QEAAXW4E_LOG_FLAG@@@Z PROC	; CLogger::clearLogFlag, COMDAT

; 184  : 	inline void clearLogFlag(E_LOG_FLAG nFlag) { m_nLogFlag &= ~nFlag; }

$LN3:
  00000	89 54 24 10	 mov	 DWORD PTR [rsp+16], edx
  00004	48 89 4c 24 08	 mov	 QWORD PTR [rsp+8], rcx
  00009	57		 push	 rdi
  0000a	8b 44 24 18	 mov	 eax, DWORD PTR nFlag$[rsp]
  0000e	f7 d0		 not	 eax
  00010	48 8b 4c 24 10	 mov	 rcx, QWORD PTR this$[rsp]
  00015	8b 89 b4 00 00
	00		 mov	 ecx, DWORD PTR [rcx+180]
  0001b	23 c8		 and	 ecx, eax
  0001d	8b c1		 mov	 eax, ecx
  0001f	48 8b 4c 24 10	 mov	 rcx, QWORD PTR this$[rsp]
  00024	89 81 b4 00 00
	00		 mov	 DWORD PTR [rcx+180], eax
  0002a	5f		 pop	 rdi
  0002b	c3		 ret	 0
?clearLogFlag@CLogger@@QEAAXW4E_LOG_FLAG@@@Z ENDP	; CLogger::clearLogFlag
_TEXT	ENDS
; Function compile flags: /Odtp /RTCsu
; File e:\infinia-library-3.0\com\include\comlogger.h
;	COMDAT ?setLogFlag@CLogger@@QEAAXW4E_LOG_FLAG@@@Z
_TEXT	SEGMENT
this$ = 16
nFlag$ = 24
?setLogFlag@CLogger@@QEAAXW4E_LOG_FLAG@@@Z PROC		; CLogger::setLogFlag, COMDAT

; 183  : 	inline void setLogFlag(E_LOG_FLAG nFlag) { m_nLogFlag |= nFlag; }

$LN3:
  00000	89 54 24 10	 mov	 DWORD PTR [rsp+16], edx
  00004	48 89 4c 24 08	 mov	 QWORD PTR [rsp+8], rcx
  00009	57		 push	 rdi
  0000a	48 8b 44 24 10	 mov	 rax, QWORD PTR this$[rsp]
  0000f	8b 4c 24 18	 mov	 ecx, DWORD PTR nFlag$[rsp]
  00013	8b 80 b4 00 00
	00		 mov	 eax, DWORD PTR [rax+180]
  00019	0b c1		 or	 eax, ecx
  0001b	48 8b 4c 24 10	 mov	 rcx, QWORD PTR this$[rsp]
  00020	89 81 b4 00 00
	00		 mov	 DWORD PTR [rcx+180], eax
  00026	5f		 pop	 rdi
  00027	c3		 ret	 0
?setLogFlag@CLogger@@QEAAXW4E_LOG_FLAG@@@Z ENDP		; CLogger::setLogFlag
_TEXT	ENDS
; Function compile flags: /Odtp /RTCsu
; File e:\infinia-library-3.0\com\include\comlogger.h
;	COMDAT ?getSTLNo@CLogger@@QEAAHXZ
_TEXT	SEGMENT
this$ = 16
?getSTLNo@CLogger@@QEAAHXZ PROC				; CLogger::getSTLNo, COMDAT

; 182  : 	inline int getSTLNo() {	return m_nStlNo; }

$LN3:
  00000	48 89 4c 24 08	 mov	 QWORD PTR [rsp+8], rcx
  00005	57		 push	 rdi
  00006	48 8b 44 24 10	 mov	 rax, QWORD PTR this$[rsp]
  0000b	8b 80 bc 00 00
	00		 mov	 eax, DWORD PTR [rax+188]
  00011	5f		 pop	 rdi
  00012	c3		 ret	 0
?getSTLNo@CLogger@@QEAAHXZ ENDP				; CLogger::getSTLNo
_TEXT	ENDS
; Function compile flags: /Odtp /RTCsu
; File e:\infinia-library-3.0\com\include\comlogger.h
;	COMDAT ?addLogSize@CLogger@@QEAAXH@Z
_TEXT	SEGMENT
this$ = 16
nLen$ = 24
?addLogSize@CLogger@@QEAAXH@Z PROC			; CLogger::addLogSize, COMDAT

; 180  : 	inline void addLogSize(int nLen) {m_nLogSize += nLen;}

$LN3:
  00000	89 54 24 10	 mov	 DWORD PTR [rsp+16], edx
  00004	48 89 4c 24 08	 mov	 QWORD PTR [rsp+8], rcx
  00009	57		 push	 rdi
  0000a	48 8b 44 24 10	 mov	 rax, QWORD PTR this$[rsp]
  0000f	8b 80 c4 00 00
	00		 mov	 eax, DWORD PTR [rax+196]
  00015	03 44 24 18	 add	 eax, DWORD PTR nLen$[rsp]
  00019	48 8b 4c 24 10	 mov	 rcx, QWORD PTR this$[rsp]
  0001e	89 81 c4 00 00
	00		 mov	 DWORD PTR [rcx+196], eax
  00024	5f		 pop	 rdi
  00025	c3		 ret	 0
?addLogSize@CLogger@@QEAAXH@Z ENDP			; CLogger::addLogSize
_TEXT	ENDS
; Function compile flags: /Odtp /RTCsu
; File e:\infinia-library-3.0\com\include\commemmanager.h
;	COMDAT ?delBuf@CMemManager@@QEAAXPEADH@Z
_TEXT	SEGMENT
nIdx$ = 32
this$ = 64
pBuf$ = 72
nSize$ = 80
?delBuf@CMemManager@@QEAAXPEADH@Z PROC			; CMemManager::delBuf, COMDAT

; 38   : 	inline void delBuf(char *pBuf, int nSize) { int nIdx = getIndex(nSize); delBufByIndex(pBuf, nIdx); }

$LN3:
  00000	44 89 44 24 18	 mov	 DWORD PTR [rsp+24], r8d
  00005	48 89 54 24 10	 mov	 QWORD PTR [rsp+16], rdx
  0000a	48 89 4c 24 08	 mov	 QWORD PTR [rsp+8], rcx
  0000f	57		 push	 rdi
  00010	48 83 ec 30	 sub	 rsp, 48			; 00000030H
  00014	48 8b fc	 mov	 rdi, rsp
  00017	b9 0c 00 00 00	 mov	 ecx, 12
  0001c	b8 cc cc cc cc	 mov	 eax, -858993460		; ccccccccH
  00021	f3 ab		 rep stosd
  00023	48 8b 4c 24 40	 mov	 rcx, QWORD PTR [rsp+64]
  00028	8b 4c 24 50	 mov	 ecx, DWORD PTR nSize$[rsp]
  0002c	e8 00 00 00 00	 call	 ?getIndex@@YAHH@Z	; getIndex
  00031	89 44 24 20	 mov	 DWORD PTR nIdx$[rsp], eax
  00035	44 8b 44 24 20	 mov	 r8d, DWORD PTR nIdx$[rsp]
  0003a	48 8b 54 24 48	 mov	 rdx, QWORD PTR pBuf$[rsp]
  0003f	48 8b 4c 24 40	 mov	 rcx, QWORD PTR this$[rsp]
  00044	e8 00 00 00 00	 call	 ?delBufByIndex@CMemManager@@QEAAXPEADH@Z ; CMemManager::delBufByIndex
  00049	48 83 c4 30	 add	 rsp, 48			; 00000030H
  0004d	5f		 pop	 rdi
  0004e	c3		 ret	 0
?delBuf@CMemManager@@QEAAXPEADH@Z ENDP			; CMemManager::delBuf
_TEXT	ENDS
; Function compile flags: /Odtp /RTCsu
; File e:\infinia-library-3.0\com\include\commemmanager.h
;	COMDAT ?newBuf@CMemManager@@QEAAPEADH@Z
_TEXT	SEGMENT
nIdx$ = 32
this$ = 64
nSize$ = 72
?newBuf@CMemManager@@QEAAPEADH@Z PROC			; CMemManager::newBuf, COMDAT

; 34   : 	inline char *newBuf(int nSize) { int nIdx = getIndex(nSize);  return __newBuf(nIdx, nSize); }

$LN3:
  00000	89 54 24 10	 mov	 DWORD PTR [rsp+16], edx
  00004	48 89 4c 24 08	 mov	 QWORD PTR [rsp+8], rcx
  00009	57		 push	 rdi
  0000a	48 83 ec 30	 sub	 rsp, 48			; 00000030H
  0000e	48 8b fc	 mov	 rdi, rsp
  00011	b9 0c 00 00 00	 mov	 ecx, 12
  00016	b8 cc cc cc cc	 mov	 eax, -858993460		; ccccccccH
  0001b	f3 ab		 rep stosd
  0001d	48 8b 4c 24 40	 mov	 rcx, QWORD PTR [rsp+64]
  00022	8b 4c 24 48	 mov	 ecx, DWORD PTR nSize$[rsp]
  00026	e8 00 00 00 00	 call	 ?getIndex@@YAHH@Z	; getIndex
  0002b	89 44 24 20	 mov	 DWORD PTR nIdx$[rsp], eax
  0002f	48 63 44 24 48	 movsxd	 rax, DWORD PTR nSize$[rsp]
  00034	4c 8b c0	 mov	 r8, rax
  00037	8b 54 24 20	 mov	 edx, DWORD PTR nIdx$[rsp]
  0003b	48 8b 4c 24 40	 mov	 rcx, QWORD PTR this$[rsp]
  00040	e8 00 00 00 00	 call	 ?__newBuf@CMemManager@@AEAAPEADH_K@Z ; CMemManager::__newBuf
  00045	48 83 c4 30	 add	 rsp, 48			; 00000030H
  00049	5f		 pop	 rdi
  0004a	c3		 ret	 0
?newBuf@CMemManager@@QEAAPEADH@Z ENDP			; CMemManager::newBuf
_TEXT	ENDS
; Function compile flags: /Odtp /RTCsu
; File e:\infinia-library-3.0\com\include\combufpool.h
;	COMDAT ?getIndex@@YAHH@Z
_TEXT	SEGMENT
m$ = 32
$S1$ = 56
tv80 = 68
tv73 = 72
s$ = 96
?getIndex@@YAHH@Z PROC					; getIndex, COMDAT

; 51   : inline int getIndex(int s) { int m; union { double x; int b[2]; }; x = s; m = (b[1] >> 20) - 1023; return m + ((s&(s - (1 << m))) ? 1 : 0); }

$LN5:
  00000	89 4c 24 08	 mov	 DWORD PTR [rsp+8], ecx
  00004	57		 push	 rdi
  00005	48 83 ec 50	 sub	 rsp, 80			; 00000050H
  00009	48 8b fc	 mov	 rdi, rsp
  0000c	b9 14 00 00 00	 mov	 ecx, 20
  00011	b8 cc cc cc cc	 mov	 eax, -858993460		; ccccccccH
  00016	f3 ab		 rep stosd
  00018	8b 4c 24 60	 mov	 ecx, DWORD PTR [rsp+96]
  0001c	f2 0f 2a 44 24
	60		 cvtsi2sd xmm0, DWORD PTR s$[rsp]
  00022	f2 0f 11 44 24
	38		 movsd	 QWORD PTR $S1$[rsp], xmm0
  00028	b8 04 00 00 00	 mov	 eax, 4
  0002d	48 6b c0 01	 imul	 rax, rax, 1
  00031	8b 44 04 38	 mov	 eax, DWORD PTR $S1$[rsp+rax]
  00035	c1 f8 14	 sar	 eax, 20
  00038	2d ff 03 00 00	 sub	 eax, 1023		; 000003ffH
  0003d	89 44 24 20	 mov	 DWORD PTR m$[rsp], eax
  00041	8b 44 24 20	 mov	 eax, DWORD PTR m$[rsp]
  00045	b9 01 00 00 00	 mov	 ecx, 1
  0004a	89 4c 24 44	 mov	 DWORD PTR tv80[rsp], ecx
  0004e	0f b6 c8	 movzx	 ecx, al
  00051	8b 44 24 44	 mov	 eax, DWORD PTR tv80[rsp]
  00055	d3 e0		 shl	 eax, cl
  00057	8b 4c 24 60	 mov	 ecx, DWORD PTR s$[rsp]
  0005b	2b c8		 sub	 ecx, eax
  0005d	8b c1		 mov	 eax, ecx
  0005f	8b 4c 24 60	 mov	 ecx, DWORD PTR s$[rsp]
  00063	23 c8		 and	 ecx, eax
  00065	8b c1		 mov	 eax, ecx
  00067	85 c0		 test	 eax, eax
  00069	74 0a		 je	 SHORT $LN3@getIndex
  0006b	c7 44 24 48 01
	00 00 00	 mov	 DWORD PTR tv73[rsp], 1
  00073	eb 08		 jmp	 SHORT $LN4@getIndex
$LN3@getIndex:
  00075	c7 44 24 48 00
	00 00 00	 mov	 DWORD PTR tv73[rsp], 0
$LN4@getIndex:
  0007d	8b 44 24 48	 mov	 eax, DWORD PTR tv73[rsp]
  00081	8b 4c 24 20	 mov	 ecx, DWORD PTR m$[rsp]
  00085	03 c8		 add	 ecx, eax
  00087	8b c1		 mov	 eax, ecx
  00089	8b f8		 mov	 edi, eax
  0008b	48 8b cc	 mov	 rcx, rsp
  0008e	48 8d 15 00 00
	00 00		 lea	 rdx, OFFSET FLAT:?getIndex@@YAHH@Z$rtcFrameData
  00095	e8 00 00 00 00	 call	 _RTC_CheckStackVars
  0009a	8b c7		 mov	 eax, edi
  0009c	48 83 c4 50	 add	 rsp, 80			; 00000050H
  000a0	5f		 pop	 rdi
  000a1	c3		 ret	 0
?getIndex@@YAHH@Z ENDP					; getIndex
_TEXT	ENDS
; Function compile flags: /Odtp /RTCsu
; File e:\infinia-library-3.0\com\include\comdatetime.h
;	COMDAT ?Sec@CDateTime@@QEAAHXZ
_TEXT	SEGMENT
this$ = 16
?Sec@CDateTime@@QEAAHXZ PROC				; CDateTime::Sec, COMDAT

; 222  : 	inline int	Sec()		{ return m_tm.tm_sec; }

$LN3:
  00000	48 89 4c 24 08	 mov	 QWORD PTR [rsp+8], rcx
  00005	57		 push	 rdi
  00006	48 8b 44 24 10	 mov	 rax, QWORD PTR this$[rsp]
  0000b	8b 00		 mov	 eax, DWORD PTR [rax]
  0000d	5f		 pop	 rdi
  0000e	c3		 ret	 0
?Sec@CDateTime@@QEAAHXZ ENDP				; CDateTime::Sec
_TEXT	ENDS
; Function compile flags: /Odtp /RTCsu
; File e:\infinia-library-3.0\com\include\comdatetime.h
;	COMDAT ?Minute@CDateTime@@QEAAHXZ
_TEXT	SEGMENT
this$ = 16
?Minute@CDateTime@@QEAAHXZ PROC				; CDateTime::Minute, COMDAT

; 221  : 	inline int	Minute()	{ return m_tm.tm_min; }

$LN3:
  00000	48 89 4c 24 08	 mov	 QWORD PTR [rsp+8], rcx
  00005	57		 push	 rdi
  00006	48 8b 44 24 10	 mov	 rax, QWORD PTR this$[rsp]
  0000b	8b 40 04	 mov	 eax, DWORD PTR [rax+4]
  0000e	5f		 pop	 rdi
  0000f	c3		 ret	 0
?Minute@CDateTime@@QEAAHXZ ENDP				; CDateTime::Minute
_TEXT	ENDS
; Function compile flags: /Odtp /RTCsu
; File e:\infinia-library-3.0\com\include\comdatetime.h
;	COMDAT ?Hour@CDateTime@@QEAAHXZ
_TEXT	SEGMENT
this$ = 16
?Hour@CDateTime@@QEAAHXZ PROC				; CDateTime::Hour, COMDAT

; 220  : 	inline int	Hour()		{ return m_tm.tm_hour; }

$LN3:
  00000	48 89 4c 24 08	 mov	 QWORD PTR [rsp+8], rcx
  00005	57		 push	 rdi
  00006	48 8b 44 24 10	 mov	 rax, QWORD PTR this$[rsp]
  0000b	8b 40 08	 mov	 eax, DWORD PTR [rax+8]
  0000e	5f		 pop	 rdi
  0000f	c3		 ret	 0
?Hour@CDateTime@@QEAAHXZ ENDP				; CDateTime::Hour
_TEXT	ENDS
; Function compile flags: /Odtp /RTCsu
; File e:\infinia-library-3.0\com\include\comdatetime.h
;	COMDAT ?Mday@CDateTime@@QEAAHXZ
_TEXT	SEGMENT
this$ = 16
?Mday@CDateTime@@QEAAHXZ PROC				; CDateTime::Mday, COMDAT

; 218  : 	inline int	Mday()		{ return m_tm.tm_mday; }

$LN3:
  00000	48 89 4c 24 08	 mov	 QWORD PTR [rsp+8], rcx
  00005	57		 push	 rdi
  00006	48 8b 44 24 10	 mov	 rax, QWORD PTR this$[rsp]
  0000b	8b 40 0c	 mov	 eax, DWORD PTR [rax+12]
  0000e	5f		 pop	 rdi
  0000f	c3		 ret	 0
?Mday@CDateTime@@QEAAHXZ ENDP				; CDateTime::Mday
_TEXT	ENDS
; Function compile flags: /Odtp /RTCsu
; File e:\infinia-library-3.0\com\include\comdatetime.h
;	COMDAT ?Month@CDateTime@@QEAAHXZ
_TEXT	SEGMENT
this$ = 16
?Month@CDateTime@@QEAAHXZ PROC				; CDateTime::Month, COMDAT

; 217  : 	inline int	Month()		{ return m_tm.tm_mon; }

$LN3:
  00000	48 89 4c 24 08	 mov	 QWORD PTR [rsp+8], rcx
  00005	57		 push	 rdi
  00006	48 8b 44 24 10	 mov	 rax, QWORD PTR this$[rsp]
  0000b	8b 40 10	 mov	 eax, DWORD PTR [rax+16]
  0000e	5f		 pop	 rdi
  0000f	c3		 ret	 0
?Month@CDateTime@@QEAAHXZ ENDP				; CDateTime::Month
_TEXT	ENDS
; Function compile flags: /Odtp /RTCsu
; File e:\infinia-library-3.0\com\include\comdatetime.h
;	COMDAT ?Year@CDateTime@@QEAAHXZ
_TEXT	SEGMENT
this$ = 16
?Year@CDateTime@@QEAAHXZ PROC				; CDateTime::Year, COMDAT

; 216  : 	inline int	Year()		{ return m_tm.tm_year; }

$LN3:
  00000	48 89 4c 24 08	 mov	 QWORD PTR [rsp+8], rcx
  00005	57		 push	 rdi
  00006	48 8b 44 24 10	 mov	 rax, QWORD PTR this$[rsp]
  0000b	8b 40 14	 mov	 eax, DWORD PTR [rax+20]
  0000e	5f		 pop	 rdi
  0000f	c3		 ret	 0
?Year@CDateTime@@QEAAHXZ ENDP				; CDateTime::Year
_TEXT	ENDS
; Function compile flags: /Odtp /RTCsu
;	COMDAT ??_GCQueueS@@QEAAPEAXI@Z
_TEXT	SEGMENT
this$ = 48
__flags$ = 56
??_GCQueueS@@QEAAPEAXI@Z PROC				; CQueueS::`scalar deleting destructor', COMDAT
$LN4:
  00000	89 54 24 10	 mov	 DWORD PTR [rsp+16], edx
  00004	48 89 4c 24 08	 mov	 QWORD PTR [rsp+8], rcx
  00009	57		 push	 rdi
  0000a	48 83 ec 20	 sub	 rsp, 32			; 00000020H
  0000e	48 8b fc	 mov	 rdi, rsp
  00011	b9 08 00 00 00	 mov	 ecx, 8
  00016	b8 cc cc cc cc	 mov	 eax, -858993460		; ccccccccH
  0001b	f3 ab		 rep stosd
  0001d	48 8b 4c 24 30	 mov	 rcx, QWORD PTR [rsp+48]
  00022	48 8b 4c 24 30	 mov	 rcx, QWORD PTR this$[rsp]
  00027	e8 00 00 00 00	 call	 ??1CQueueS@@QEAA@XZ	; CQueueS::~CQueueS
  0002c	8b 44 24 38	 mov	 eax, DWORD PTR __flags$[rsp]
  00030	83 e0 01	 and	 eax, 1
  00033	85 c0		 test	 eax, eax
  00035	74 0f		 je	 SHORT $LN2@scalar
  00037	ba 60 00 00 00	 mov	 edx, 96			; 00000060H
  0003c	48 8b 4c 24 30	 mov	 rcx, QWORD PTR this$[rsp]
  00041	e8 00 00 00 00	 call	 ??3@YAXPEAX_K@Z		; operator delete
$LN2@scalar:
  00046	48 8b 44 24 30	 mov	 rax, QWORD PTR this$[rsp]
  0004b	48 83 c4 20	 add	 rsp, 32			; 00000020H
  0004f	5f		 pop	 rdi
  00050	c3		 ret	 0
??_GCQueueS@@QEAAPEAXI@Z ENDP				; CQueueS::`scalar deleting destructor'
_TEXT	ENDS
; Function compile flags: /Odtp /RTCsu
;	COMDAT ?__autoclassinit2@CQueueS@@QEAAX_K@Z
_TEXT	SEGMENT
this$ = 16
classSize$ = 24
?__autoclassinit2@CQueueS@@QEAAX_K@Z PROC		; CQueueS::__autoclassinit2, COMDAT
$LN3:
  00000	48 89 54 24 10	 mov	 QWORD PTR [rsp+16], rdx
  00005	48 89 4c 24 08	 mov	 QWORD PTR [rsp+8], rcx
  0000a	57		 push	 rdi
  0000b	48 8b 7c 24 10	 mov	 rdi, QWORD PTR this$[rsp]
  00010	33 c0		 xor	 eax, eax
  00012	48 8b 4c 24 18	 mov	 rcx, QWORD PTR classSize$[rsp]
  00017	f3 aa		 rep stosb
  00019	5f		 pop	 rdi
  0001a	c3		 ret	 0
?__autoclassinit2@CQueueS@@QEAAX_K@Z ENDP		; CQueueS::__autoclassinit2
_TEXT	ENDS
; Function compile flags: /Odtp /RTCsu
; File e:\infinia-library-3.0\com\include\comtypes.h
;	COMDAT ?comGlobalErrorProc@@YAXPEADPEBDH@Z
_TEXT	SEGMENT
pMsg$ = 64
_szFunc$ = 72
_nLine$ = 80
?comGlobalErrorProc@@YAXPEADPEBDH@Z PROC		; comGlobalErrorProc, COMDAT

; 324  : inline void comGlobalErrorProc(char *pMsg, const char *_szFunc, const int _nLine) {

$LN3:
  00000	44 89 44 24 18	 mov	 DWORD PTR [rsp+24], r8d
  00005	48 89 54 24 10	 mov	 QWORD PTR [rsp+16], rdx
  0000a	48 89 4c 24 08	 mov	 QWORD PTR [rsp+8], rcx
  0000f	57		 push	 rdi
  00010	48 83 ec 30	 sub	 rsp, 48			; 00000030H
  00014	48 8b fc	 mov	 rdi, rsp
  00017	b9 0c 00 00 00	 mov	 ecx, 12
  0001c	b8 cc cc cc cc	 mov	 eax, -858993460		; ccccccccH
  00021	f3 ab		 rep stosd
  00023	48 8b 4c 24 40	 mov	 rcx, QWORD PTR [rsp+64]

; 325  : 	sprintf(g_szSystemError, "ERROR! [%s:%d] %s\n", _szFunc, _nLine, pMsg);

  00028	48 8b 44 24 40	 mov	 rax, QWORD PTR pMsg$[rsp]
  0002d	48 89 44 24 20	 mov	 QWORD PTR [rsp+32], rax
  00032	44 8b 4c 24 50	 mov	 r9d, DWORD PTR _nLine$[rsp]
  00037	4c 8b 44 24 48	 mov	 r8, QWORD PTR _szFunc$[rsp]
  0003c	48 8d 15 00 00
	00 00		 lea	 rdx, OFFSET FLAT:??_C@_0BD@KEHDJCKJ@ERROR?$CB?5?$FL?$CFs?3?$CFd?$FN?5?$CFs?6?$AA@
  00043	48 8d 0d 00 00
	00 00		 lea	 rcx, OFFSET FLAT:?g_szSystemError@@3PADA ; g_szSystemError
  0004a	e8 00 00 00 00	 call	 sprintf

; 326  : 	printf(g_szSystemError);

  0004f	48 8d 0d 00 00
	00 00		 lea	 rcx, OFFSET FLAT:?g_szSystemError@@3PADA ; g_szSystemError
  00056	e8 00 00 00 00	 call	 printf

; 327  : }

  0005b	48 83 c4 30	 add	 rsp, 48			; 00000030H
  0005f	5f		 pop	 rdi
  00060	c3		 ret	 0
?comGlobalErrorProc@@YAXPEADPEBDH@Z ENDP		; comGlobalErrorProc
_TEXT	ENDS
; Function compile flags: /Odtp /RTCsu
; File e:\infinia-library-3.0\com\include\comtypes.h
;	COMDAT ?ISINCLUDE@@YA_NHH@Z
_TEXT	SEGMENT
i$ = 16
max$ = 24
?ISINCLUDE@@YA_NHH@Z PROC				; ISINCLUDE, COMDAT

; 322  : inline bool ISINCLUDE(int i, int max) { if (0 <= i && i < max) return true; return false; }

$LN4:
  00000	89 54 24 10	 mov	 DWORD PTR [rsp+16], edx
  00004	89 4c 24 08	 mov	 DWORD PTR [rsp+8], ecx
  00008	57		 push	 rdi
  00009	83 7c 24 10 00	 cmp	 DWORD PTR i$[rsp], 0
  0000e	7c 0e		 jl	 SHORT $LN2@ISINCLUDE
  00010	8b 44 24 18	 mov	 eax, DWORD PTR max$[rsp]
  00014	39 44 24 10	 cmp	 DWORD PTR i$[rsp], eax
  00018	7d 04		 jge	 SHORT $LN2@ISINCLUDE
  0001a	b0 01		 mov	 al, 1
  0001c	eb 02		 jmp	 SHORT $LN1@ISINCLUDE
$LN2@ISINCLUDE:
  0001e	32 c0		 xor	 al, al
$LN1@ISINCLUDE:
  00020	5f		 pop	 rdi
  00021	c3		 ret	 0
?ISINCLUDE@@YA_NHH@Z ENDP				; ISINCLUDE
_TEXT	ENDS
; Function compile flags: /Odtp /RTCsu
; File e:\infinia-library-3.0\com\include\comtypes.h
;	COMDAT ?ISABLETODELETE@@YA_NW4E_ALLOC_TYPE@@@Z
_TEXT	SEGMENT
e$ = 16
?ISABLETODELETE@@YA_NW4E_ALLOC_TYPE@@@Z PROC		; ISABLETODELETE, COMDAT

; 247  : inline bool ISABLETODELETE(E_ALLOC_TYPE e) { if (eAlloc_Type_MemPool < e) return true; return false; }

$LN4:
  00000	89 4c 24 08	 mov	 DWORD PTR [rsp+8], ecx
  00004	57		 push	 rdi
  00005	83 7c 24 10 01	 cmp	 DWORD PTR e$[rsp], 1
  0000a	7e 04		 jle	 SHORT $LN2@ISABLETODE
  0000c	b0 01		 mov	 al, 1
  0000e	eb 02		 jmp	 SHORT $LN1@ISABLETODE
$LN2@ISABLETODE:
  00010	32 c0		 xor	 al, al
$LN1@ISABLETODE:
  00012	5f		 pop	 rdi
  00013	c3		 ret	 0
?ISABLETODELETE@@YA_NW4E_ALLOC_TYPE@@@Z ENDP		; ISABLETODELETE
_TEXT	ENDS
; Function compile flags: /Odtp /RTCsu
;	COMDAT ??_Ewin64_atomic@win32@common@@QEAAPEAXI@Z
_TEXT	SEGMENT
$T1 = 32
this$ = 64
__flags$ = 72
??_Ewin64_atomic@win32@common@@QEAAPEAXI@Z PROC		; common::win32::win64_atomic::`vector deleting destructor', COMDAT
$LN6:
  00000	89 54 24 10	 mov	 DWORD PTR [rsp+16], edx
  00004	48 89 4c 24 08	 mov	 QWORD PTR [rsp+8], rcx
  00009	57		 push	 rdi
  0000a	48 83 ec 30	 sub	 rsp, 48			; 00000030H
  0000e	48 8b fc	 mov	 rdi, rsp
  00011	b9 0c 00 00 00	 mov	 ecx, 12
  00016	b8 cc cc cc cc	 mov	 eax, -858993460		; ccccccccH
  0001b	f3 ab		 rep stosd
  0001d	48 8b 4c 24 40	 mov	 rcx, QWORD PTR [rsp+64]
  00022	48 c7 44 24 20
	fe ff ff ff	 mov	 QWORD PTR $T1[rsp], -2
  0002b	8b 44 24 48	 mov	 eax, DWORD PTR __flags$[rsp]
  0002f	83 e0 02	 and	 eax, 2
  00032	85 c0		 test	 eax, eax
  00034	74 59		 je	 SHORT $LN2@vector
  00036	4c 8d 0d 00 00
	00 00		 lea	 r9, OFFSET FLAT:??1win64_atomic@win32@common@@QEAA@XZ ; common::win32::win64_atomic::~win64_atomic
  0003d	48 8b 44 24 40	 mov	 rax, QWORD PTR this$[rsp]
  00042	4c 8b 40 f8	 mov	 r8, QWORD PTR [rax-8]
  00046	ba 08 00 00 00	 mov	 edx, 8
  0004b	48 8b 4c 24 40	 mov	 rcx, QWORD PTR this$[rsp]
  00050	e8 00 00 00 00	 call	 ??_M@YAXPEAX_K1P6AX0@Z@Z
  00055	90		 npad	 1
  00056	8b 44 24 48	 mov	 eax, DWORD PTR __flags$[rsp]
  0005a	83 e0 01	 and	 eax, 1
  0005d	85 c0		 test	 eax, eax
  0005f	74 23		 je	 SHORT $LN3@vector
  00061	48 8b 44 24 40	 mov	 rax, QWORD PTR this$[rsp]
  00066	48 8b 40 f8	 mov	 rax, QWORD PTR [rax-8]
  0006a	48 8d 04 c5 08
	00 00 00	 lea	 rax, QWORD PTR [rax*8+8]
  00072	48 8b 4c 24 40	 mov	 rcx, QWORD PTR this$[rsp]
  00077	48 83 e9 08	 sub	 rcx, 8
  0007b	48 8b d0	 mov	 rdx, rax
  0007e	e8 00 00 00 00	 call	 ??_V@YAXPEAX_K@Z	; operator delete[]
  00083	90		 npad	 1
$LN3@vector:
  00084	48 8b 44 24 40	 mov	 rax, QWORD PTR this$[rsp]
  00089	48 83 e8 08	 sub	 rax, 8
  0008d	eb 2b		 jmp	 SHORT $LN1@vector
$LN2@vector:
  0008f	48 8b 4c 24 40	 mov	 rcx, QWORD PTR this$[rsp]
  00094	e8 00 00 00 00	 call	 ??1win64_atomic@win32@common@@QEAA@XZ ; common::win32::win64_atomic::~win64_atomic
  00099	90		 npad	 1
  0009a	8b 44 24 48	 mov	 eax, DWORD PTR __flags$[rsp]
  0009e	83 e0 01	 and	 eax, 1
  000a1	85 c0		 test	 eax, eax
  000a3	74 10		 je	 SHORT $LN4@vector
  000a5	ba 08 00 00 00	 mov	 edx, 8
  000aa	48 8b 4c 24 40	 mov	 rcx, QWORD PTR this$[rsp]
  000af	e8 00 00 00 00	 call	 ??3@YAXPEAX_K@Z		; operator delete
  000b4	90		 npad	 1
$LN4@vector:
  000b5	48 8b 44 24 40	 mov	 rax, QWORD PTR this$[rsp]
$LN1@vector:
  000ba	48 83 c4 30	 add	 rsp, 48			; 00000030H
  000be	5f		 pop	 rdi
  000bf	c3		 ret	 0
??_Ewin64_atomic@win32@common@@QEAAPEAXI@Z ENDP		; common::win32::win64_atomic::`vector deleting destructor'
_TEXT	ENDS
; Function compile flags: /Odtp /RTCsu
; File e:\infinia-library-3.0\com\include\com\win32\win32_mtsync.h
;	COMDAT ?atomic_compare_exchange@win64_atomic@win32@common@@QEAA_J_J0@Z
_TEXT	SEGMENT
tv70 = 0
this$ = 32
nExchange$ = 40
nComperand$ = 48
?atomic_compare_exchange@win64_atomic@win32@common@@QEAA_J_J0@Z PROC ; common::win32::win64_atomic::atomic_compare_exchange, COMDAT

; 120  : 	inline long long atomic_compare_exchange(long long nExchange, long long nComperand) {return InterlockedCompareExchange64(&m_count, nExchange, nComperand);} // return long

$LN3:
  00000	4c 89 44 24 18	 mov	 QWORD PTR [rsp+24], r8
  00005	48 89 54 24 10	 mov	 QWORD PTR [rsp+16], rdx
  0000a	48 89 4c 24 08	 mov	 QWORD PTR [rsp+8], rcx
  0000f	57		 push	 rdi
  00010	48 83 ec 10	 sub	 rsp, 16
  00014	48 8b fc	 mov	 rdi, rsp
  00017	b9 04 00 00 00	 mov	 ecx, 4
  0001c	b8 cc cc cc cc	 mov	 eax, -858993460		; ccccccccH
  00021	f3 ab		 rep stosd
  00023	48 8b 4c 24 20	 mov	 rcx, QWORD PTR [rsp+32]
  00028	48 8b 44 24 20	 mov	 rax, QWORD PTR this$[rsp]
  0002d	48 8b 4c 24 28	 mov	 rcx, QWORD PTR nExchange$[rsp]
  00032	48 89 04 24	 mov	 QWORD PTR tv70[rsp], rax
  00036	48 8b 44 24 30	 mov	 rax, QWORD PTR nComperand$[rsp]
  0003b	48 8b 14 24	 mov	 rdx, QWORD PTR tv70[rsp]
  0003f	48 8b 14 24	 mov	 rdx, QWORD PTR tv70[rsp]
  00043	f0 48 0f b1 0a	 lock cmpxchg QWORD PTR [rdx], rcx
  00048	48 83 c4 10	 add	 rsp, 16
  0004c	5f		 pop	 rdi
  0004d	c3		 ret	 0
?atomic_compare_exchange@win64_atomic@win32@common@@QEAA_J_J0@Z ENDP ; common::win32::win64_atomic::atomic_compare_exchange
_TEXT	ENDS
; Function compile flags: /Odtp /RTCsu
; File e:\infinia-library-3.0\com\include\com\win32\win32_mtsync.h
;	COMDAT ?atomic_decrement@win64_atomic@win32@common@@QEAA_JXZ
_TEXT	SEGMENT
this$ = 16
?atomic_decrement@win64_atomic@win32@common@@QEAA_JXZ PROC ; common::win32::win64_atomic::atomic_decrement, COMDAT

; 118  : 	inline long long atomic_decrement() { return InterlockedDecrement64(&m_count);}

$LN3:
  00000	48 89 4c 24 08	 mov	 QWORD PTR [rsp+8], rcx
  00005	57		 push	 rdi
  00006	48 8b 44 24 10	 mov	 rax, QWORD PTR this$[rsp]
  0000b	48 c7 c1 ff ff
	ff ff		 mov	 rcx, -1
  00012	f0 48 0f c1 08	 lock xadd QWORD PTR [rax], rcx
  00017	48 ff c9	 dec	 rcx
  0001a	48 8b c1	 mov	 rax, rcx
  0001d	5f		 pop	 rdi
  0001e	c3		 ret	 0
?atomic_decrement@win64_atomic@win32@common@@QEAA_JXZ ENDP ; common::win32::win64_atomic::atomic_decrement
_TEXT	ENDS
; Function compile flags: /Odtp /RTCsu
; File e:\infinia-library-3.0\com\include\com\win32\win32_mtsync.h
;	COMDAT ?atomic_increment@win64_atomic@win32@common@@QEAA_JXZ
_TEXT	SEGMENT
this$ = 16
?atomic_increment@win64_atomic@win32@common@@QEAA_JXZ PROC ; common::win32::win64_atomic::atomic_increment, COMDAT

; 117  : 	inline long long atomic_increment() { return InterlockedIncrement64(&m_count);}

$LN3:
  00000	48 89 4c 24 08	 mov	 QWORD PTR [rsp+8], rcx
  00005	57		 push	 rdi
  00006	48 8b 44 24 10	 mov	 rax, QWORD PTR this$[rsp]
  0000b	b9 01 00 00 00	 mov	 ecx, 1
  00010	f0 48 0f c1 08	 lock xadd QWORD PTR [rax], rcx
  00015	48 ff c1	 inc	 rcx
  00018	48 8b c1	 mov	 rax, rcx
  0001b	5f		 pop	 rdi
  0001c	c3		 ret	 0
?atomic_increment@win64_atomic@win32@common@@QEAA_JXZ ENDP ; common::win32::win64_atomic::atomic_increment
_TEXT	ENDS
; Function compile flags: /Odtp /RTCsu
; File e:\infinia-library-3.0\com\include\com\win32\win32_mtsync.h
;	COMDAT ?init@win64_atomic@win32@common@@QEAAXXZ
_TEXT	SEGMENT
this$ = 16
?init@win64_atomic@win32@common@@QEAAXXZ PROC		; common::win32::win64_atomic::init, COMDAT

; 114  : 	inline void init() { m_count = 0; }

$LN3:
  00000	48 89 4c 24 08	 mov	 QWORD PTR [rsp+8], rcx
  00005	57		 push	 rdi
  00006	48 8b 44 24 10	 mov	 rax, QWORD PTR this$[rsp]
  0000b	48 c7 00 00 00
	00 00		 mov	 QWORD PTR [rax], 0
  00012	5f		 pop	 rdi
  00013	c3		 ret	 0
?init@win64_atomic@win32@common@@QEAAXXZ ENDP		; common::win32::win64_atomic::init
_TEXT	ENDS
; Function compile flags: /Odtp /RTCsu
; File e:\infinia-library-3.0\com\include\com\win32\win32_mtsync.h
;	COMDAT ?setCount@win64_atomic@win32@common@@QEAAXH@Z
_TEXT	SEGMENT
this$ = 16
nVal$ = 24
?setCount@win64_atomic@win32@common@@QEAAXH@Z PROC	; common::win32::win64_atomic::setCount, COMDAT

; 113  : 	inline void setCount(int nVal) { m_count = (long long)nVal; }

$LN3:
  00000	89 54 24 10	 mov	 DWORD PTR [rsp+16], edx
  00004	48 89 4c 24 08	 mov	 QWORD PTR [rsp+8], rcx
  00009	57		 push	 rdi
  0000a	48 63 44 24 18	 movsxd	 rax, DWORD PTR nVal$[rsp]
  0000f	48 8b 4c 24 10	 mov	 rcx, QWORD PTR this$[rsp]
  00014	48 89 01	 mov	 QWORD PTR [rcx], rax
  00017	5f		 pop	 rdi
  00018	c3		 ret	 0
?setCount@win64_atomic@win32@common@@QEAAXH@Z ENDP	; common::win32::win64_atomic::setCount
_TEXT	ENDS
; Function compile flags: /Odtp /RTCsu
; File e:\infinia-library-3.0\com\include\com\win32\win32_mtsync.h
;	COMDAT ?getCount@win64_atomic@win32@common@@QEAAHXZ
_TEXT	SEGMENT
this$ = 16
?getCount@win64_atomic@win32@common@@QEAAHXZ PROC	; common::win32::win64_atomic::getCount, COMDAT

; 111  : 	inline int getCount() { return (int)m_count; }

$LN3:
  00000	48 89 4c 24 08	 mov	 QWORD PTR [rsp+8], rcx
  00005	57		 push	 rdi
  00006	48 8b 44 24 10	 mov	 rax, QWORD PTR this$[rsp]
  0000b	48 8b 00	 mov	 rax, QWORD PTR [rax]
  0000e	5f		 pop	 rdi
  0000f	c3		 ret	 0
?getCount@win64_atomic@win32@common@@QEAAHXZ ENDP	; common::win32::win64_atomic::getCount
_TEXT	ENDS
; Function compile flags: /Odtp /RTCsu
; File e:\infinia-library-3.0\com\include\com\win32\win32_mtsync.h
;	COMDAT ??1win64_atomic@win32@common@@QEAA@XZ
_TEXT	SEGMENT
this$ = 16
??1win64_atomic@win32@common@@QEAA@XZ PROC		; common::win32::win64_atomic::~win64_atomic, COMDAT

; 108  : 	~win64_atomic() {}

$LN3:
  00000	48 89 4c 24 08	 mov	 QWORD PTR [rsp+8], rcx
  00005	57		 push	 rdi
  00006	5f		 pop	 rdi
  00007	c3		 ret	 0
??1win64_atomic@win32@common@@QEAA@XZ ENDP		; common::win32::win64_atomic::~win64_atomic
_TEXT	ENDS
; Function compile flags: /Odtp /RTCsu
; File e:\infinia-library-3.0\com\include\com\win32\win32_mtsync.h
;	COMDAT ??0win64_atomic@win32@common@@QEAA@XZ
_TEXT	SEGMENT
this$ = 16
??0win64_atomic@win32@common@@QEAA@XZ PROC		; common::win32::win64_atomic::win64_atomic, COMDAT

; 107  : 	win64_atomic() {m_count = 0;}

$LN3:
  00000	48 89 4c 24 08	 mov	 QWORD PTR [rsp+8], rcx
  00005	57		 push	 rdi
  00006	48 8b 44 24 10	 mov	 rax, QWORD PTR this$[rsp]
  0000b	48 c7 00 00 00
	00 00		 mov	 QWORD PTR [rax], 0
  00012	48 8b 44 24 10	 mov	 rax, QWORD PTR this$[rsp]
  00017	5f		 pop	 rdi
  00018	c3		 ret	 0
??0win64_atomic@win32@common@@QEAA@XZ ENDP		; common::win32::win64_atomic::win64_atomic
_TEXT	ENDS
; Function compile flags: /Odtp /RTCsu
;	COMDAT ??_Gcondition@win32@common@@UEAAPEAXI@Z
_TEXT	SEGMENT
this$ = 48
__flags$ = 56
??_Gcondition@win32@common@@UEAAPEAXI@Z PROC		; common::win32::condition::`scalar deleting destructor', COMDAT
$LN4:
  00000	89 54 24 10	 mov	 DWORD PTR [rsp+16], edx
  00004	48 89 4c 24 08	 mov	 QWORD PTR [rsp+8], rcx
  00009	57		 push	 rdi
  0000a	48 83 ec 20	 sub	 rsp, 32			; 00000020H
  0000e	48 8b fc	 mov	 rdi, rsp
  00011	b9 08 00 00 00	 mov	 ecx, 8
  00016	b8 cc cc cc cc	 mov	 eax, -858993460		; ccccccccH
  0001b	f3 ab		 rep stosd
  0001d	48 8b 4c 24 30	 mov	 rcx, QWORD PTR [rsp+48]
  00022	48 8b 4c 24 30	 mov	 rcx, QWORD PTR this$[rsp]
  00027	e8 00 00 00 00	 call	 ??1condition@win32@common@@UEAA@XZ ; common::win32::condition::~condition
  0002c	8b 44 24 38	 mov	 eax, DWORD PTR __flags$[rsp]
  00030	83 e0 01	 and	 eax, 1
  00033	85 c0		 test	 eax, eax
  00035	74 0f		 je	 SHORT $LN2@scalar
  00037	ba 10 00 00 00	 mov	 edx, 16
  0003c	48 8b 4c 24 30	 mov	 rcx, QWORD PTR this$[rsp]
  00041	e8 00 00 00 00	 call	 ??3@YAXPEAX_K@Z		; operator delete
$LN2@scalar:
  00046	48 8b 44 24 30	 mov	 rax, QWORD PTR this$[rsp]
  0004b	48 83 c4 20	 add	 rsp, 32			; 00000020H
  0004f	5f		 pop	 rdi
  00050	c3		 ret	 0
??_Gcondition@win32@common@@UEAAPEAXI@Z ENDP		; common::win32::condition::`scalar deleting destructor'
_TEXT	ENDS
; Function compile flags: /Odtp /RTCsu
; File e:\infinia-library-3.0\com\include\com\win32\win32_mtsync.h
;	COMDAT ?wait@condition@win32@common@@QEAA_NHPEAVcritical_section@23@@Z
_TEXT	SEGMENT
timeout$ = 32
rv$ = 36
tv65 = 40
tv80 = 44
this$ = 64
milliseconds$ = 72
p$ = 80
?wait@condition@win32@common@@QEAA_NHPEAVcritical_section@23@@Z PROC ; common::win32::condition::wait, COMDAT

; 71   : 	  {

$LN9:
  00000	4c 89 44 24 18	 mov	 QWORD PTR [rsp+24], r8
  00005	89 54 24 10	 mov	 DWORD PTR [rsp+16], edx
  00009	48 89 4c 24 08	 mov	 QWORD PTR [rsp+8], rcx
  0000e	57		 push	 rdi
  0000f	48 83 ec 30	 sub	 rsp, 48			; 00000030H
  00013	48 8b fc	 mov	 rdi, rsp
  00016	b9 0c 00 00 00	 mov	 ecx, 12
  0001b	b8 cc cc cc cc	 mov	 eax, -858993460		; ccccccccH
  00020	f3 ab		 rep stosd
  00022	48 8b 4c 24 40	 mov	 rcx, QWORD PTR [rsp+64]

; 72   : 			DWORD timeout = milliseconds < 0 ? INFINITE : milliseconds;

  00027	83 7c 24 48 00	 cmp	 DWORD PTR milliseconds$[rsp], 0
  0002c	7d 0a		 jge	 SHORT $LN5@wait
  0002e	c7 44 24 28 ff
	ff ff ff	 mov	 DWORD PTR tv65[rsp], -1	; ffffffffH
  00036	eb 08		 jmp	 SHORT $LN6@wait
$LN5@wait:
  00038	8b 44 24 48	 mov	 eax, DWORD PTR milliseconds$[rsp]
  0003c	89 44 24 28	 mov	 DWORD PTR tv65[rsp], eax
$LN6@wait:
  00040	8b 44 24 28	 mov	 eax, DWORD PTR tv65[rsp]
  00044	89 44 24 20	 mov	 DWORD PTR timeout$[rsp], eax

; 73   : 			if(p) p->enter();

  00048	48 83 7c 24 50
	00		 cmp	 QWORD PTR p$[rsp], 0
  0004e	74 12		 je	 SHORT $LN2@wait
  00050	48 8b 44 24 50	 mov	 rax, QWORD PTR p$[rsp]
  00055	48 8b 00	 mov	 rax, QWORD PTR [rax]
  00058	b2 01		 mov	 dl, 1
  0005a	48 8b 4c 24 50	 mov	 rcx, QWORD PTR p$[rsp]
  0005f	ff 50 08	 call	 QWORD PTR [rax+8]
$LN2@wait:

; 74   : 			bool rv = WaitForSingleObject(m_event, timeout) == WAIT_OBJECT_0;

  00062	8b 54 24 20	 mov	 edx, DWORD PTR timeout$[rsp]
  00066	48 8b 44 24 40	 mov	 rax, QWORD PTR this$[rsp]
  0006b	48 8b 48 08	 mov	 rcx, QWORD PTR [rax+8]
  0006f	ff 15 00 00 00
	00		 call	 QWORD PTR __imp_WaitForSingleObject
  00075	85 c0		 test	 eax, eax
  00077	75 0a		 jne	 SHORT $LN7@wait
  00079	c7 44 24 2c 01
	00 00 00	 mov	 DWORD PTR tv80[rsp], 1
  00081	eb 08		 jmp	 SHORT $LN8@wait
$LN7@wait:
  00083	c7 44 24 2c 00
	00 00 00	 mov	 DWORD PTR tv80[rsp], 0
$LN8@wait:
  0008b	0f b6 44 24 2c	 movzx	 eax, BYTE PTR tv80[rsp]
  00090	88 44 24 24	 mov	 BYTE PTR rv$[rsp], al

; 75   : 			ResetEvent(m_event);

  00094	48 8b 44 24 40	 mov	 rax, QWORD PTR this$[rsp]
  00099	48 8b 48 08	 mov	 rcx, QWORD PTR [rax+8]
  0009d	ff 15 00 00 00
	00		 call	 QWORD PTR __imp_ResetEvent

; 76   : 			if(p) p->leave();

  000a3	48 83 7c 24 50
	00		 cmp	 QWORD PTR p$[rsp], 0
  000a9	74 10		 je	 SHORT $LN3@wait
  000ab	48 8b 44 24 50	 mov	 rax, QWORD PTR p$[rsp]
  000b0	48 8b 00	 mov	 rax, QWORD PTR [rax]
  000b3	48 8b 4c 24 50	 mov	 rcx, QWORD PTR p$[rsp]
  000b8	ff 50 10	 call	 QWORD PTR [rax+16]
$LN3@wait:

; 77   : 			return rv;

  000bb	0f b6 44 24 24	 movzx	 eax, BYTE PTR rv$[rsp]

; 78   : 	  }

  000c0	48 83 c4 30	 add	 rsp, 48			; 00000030H
  000c4	5f		 pop	 rdi
  000c5	c3		 ret	 0
?wait@condition@win32@common@@QEAA_NHPEAVcritical_section@23@@Z ENDP ; common::win32::condition::wait
_TEXT	ENDS
; Function compile flags: /Odtp /RTCsu
; File e:\infinia-library-3.0\com\include\com\win32\win32_mtsync.h
;	COMDAT ?signal_all@condition@win32@common@@UEAAXXZ
_TEXT	SEGMENT
this$ = 48
?signal_all@condition@win32@common@@UEAAXXZ PROC	; common::win32::condition::signal_all, COMDAT

; 67   : 	  void signal_all() { abort(); }

$LN3:
  00000	48 89 4c 24 08	 mov	 QWORD PTR [rsp+8], rcx
  00005	57		 push	 rdi
  00006	48 83 ec 20	 sub	 rsp, 32			; 00000020H
  0000a	48 8b fc	 mov	 rdi, rsp
  0000d	b9 08 00 00 00	 mov	 ecx, 8
  00012	b8 cc cc cc cc	 mov	 eax, -858993460		; ccccccccH
  00017	f3 ab		 rep stosd
  00019	48 8b 4c 24 30	 mov	 rcx, QWORD PTR [rsp+48]
  0001e	ff 15 00 00 00
	00		 call	 QWORD PTR __imp_abort
$LN2@signal_all:
  00024	48 83 c4 20	 add	 rsp, 32			; 00000020H
  00028	5f		 pop	 rdi
  00029	c3		 ret	 0
?signal_all@condition@win32@common@@UEAAXXZ ENDP	; common::win32::condition::signal_all
_TEXT	ENDS
; Function compile flags: /Odtp /RTCsu
; File e:\infinia-library-3.0\com\include\com\win32\win32_mtsync.h
;	COMDAT ?signal@condition@win32@common@@UEAAXXZ
_TEXT	SEGMENT
this$ = 48
?signal@condition@win32@common@@UEAAXXZ PROC		; common::win32::condition::signal, COMDAT

; 66   : 	  void signal() { SetEvent(m_event); }

$LN3:
  00000	48 89 4c 24 08	 mov	 QWORD PTR [rsp+8], rcx
  00005	57		 push	 rdi
  00006	48 83 ec 20	 sub	 rsp, 32			; 00000020H
  0000a	48 8b fc	 mov	 rdi, rsp
  0000d	b9 08 00 00 00	 mov	 ecx, 8
  00012	b8 cc cc cc cc	 mov	 eax, -858993460		; ccccccccH
  00017	f3 ab		 rep stosd
  00019	48 8b 4c 24 30	 mov	 rcx, QWORD PTR [rsp+48]
  0001e	48 8b 44 24 30	 mov	 rax, QWORD PTR this$[rsp]
  00023	48 8b 48 08	 mov	 rcx, QWORD PTR [rax+8]
  00027	ff 15 00 00 00
	00		 call	 QWORD PTR __imp_SetEvent
  0002d	48 83 c4 20	 add	 rsp, 32			; 00000020H
  00031	5f		 pop	 rdi
  00032	c3		 ret	 0
?signal@condition@win32@common@@UEAAXXZ ENDP		; common::win32::condition::signal
_TEXT	ENDS
; Function compile flags: /Odtp /RTCsu
; File e:\infinia-library-3.0\com\include\com\win32\win32_mtsync.h
;	COMDAT ??1condition@win32@common@@UEAA@XZ
_TEXT	SEGMENT
this$ = 48
??1condition@win32@common@@UEAA@XZ PROC			; common::win32::condition::~condition, COMDAT

; 64   : 	  ~condition() { CloseHandle(m_event); }

$LN3:
  00000	48 89 4c 24 08	 mov	 QWORD PTR [rsp+8], rcx
  00005	57		 push	 rdi
  00006	48 83 ec 20	 sub	 rsp, 32			; 00000020H
  0000a	48 8b fc	 mov	 rdi, rsp
  0000d	b9 08 00 00 00	 mov	 ecx, 8
  00012	b8 cc cc cc cc	 mov	 eax, -858993460		; ccccccccH
  00017	f3 ab		 rep stosd
  00019	48 8b 4c 24 30	 mov	 rcx, QWORD PTR [rsp+48]
  0001e	48 8b 44 24 30	 mov	 rax, QWORD PTR this$[rsp]
  00023	48 8d 0d 00 00
	00 00		 lea	 rcx, OFFSET FLAT:??_7condition@win32@common@@6B@
  0002a	48 89 08	 mov	 QWORD PTR [rax], rcx
  0002d	48 8b 44 24 30	 mov	 rax, QWORD PTR this$[rsp]
  00032	48 8b 48 08	 mov	 rcx, QWORD PTR [rax+8]
  00036	ff 15 00 00 00
	00		 call	 QWORD PTR __imp_CloseHandle
  0003c	48 8b 4c 24 30	 mov	 rcx, QWORD PTR this$[rsp]
  00041	e8 00 00 00 00	 call	 ??1abstract_condition@common@@UEAA@XZ ; common::abstract_condition::~abstract_condition
  00046	48 83 c4 20	 add	 rsp, 32			; 00000020H
  0004a	5f		 pop	 rdi
  0004b	c3		 ret	 0
??1condition@win32@common@@UEAA@XZ ENDP			; common::win32::condition::~condition
_TEXT	ENDS
; Function compile flags: /Odtp /RTCsu
; File e:\infinia-library-3.0\com\include\com\win32\win32_mtsync.h
;	COMDAT ??0condition@win32@common@@QEAA@XZ
_TEXT	SEGMENT
this$ = 48
??0condition@win32@common@@QEAA@XZ PROC			; common::win32::condition::condition, COMDAT

; 63   : 	  condition() { m_event = CreateEvent(NULL, TRUE, FALSE, NULL);}

$LN4:
  00000	48 89 4c 24 08	 mov	 QWORD PTR [rsp+8], rcx
  00005	57		 push	 rdi
  00006	48 83 ec 20	 sub	 rsp, 32			; 00000020H
  0000a	48 8b fc	 mov	 rdi, rsp
  0000d	b9 08 00 00 00	 mov	 ecx, 8
  00012	b8 cc cc cc cc	 mov	 eax, -858993460		; ccccccccH
  00017	f3 ab		 rep stosd
  00019	48 8b 4c 24 30	 mov	 rcx, QWORD PTR [rsp+48]
  0001e	48 8b 4c 24 30	 mov	 rcx, QWORD PTR this$[rsp]
  00023	e8 00 00 00 00	 call	 ??0abstract_condition@common@@QEAA@XZ
  00028	48 8b 44 24 30	 mov	 rax, QWORD PTR this$[rsp]
  0002d	48 8d 0d 00 00
	00 00		 lea	 rcx, OFFSET FLAT:??_7condition@win32@common@@6B@
  00034	48 89 08	 mov	 QWORD PTR [rax], rcx
  00037	45 33 c9	 xor	 r9d, r9d
  0003a	45 33 c0	 xor	 r8d, r8d
  0003d	ba 01 00 00 00	 mov	 edx, 1
  00042	33 c9		 xor	 ecx, ecx
  00044	ff 15 00 00 00
	00		 call	 QWORD PTR __imp_CreateEventA
  0004a	48 8b 4c 24 30	 mov	 rcx, QWORD PTR this$[rsp]
  0004f	48 89 41 08	 mov	 QWORD PTR [rcx+8], rax
  00053	48 8b 44 24 30	 mov	 rax, QWORD PTR this$[rsp]
  00058	48 83 c4 20	 add	 rsp, 32			; 00000020H
  0005c	5f		 pop	 rdi
  0005d	c3		 ret	 0
??0condition@win32@common@@QEAA@XZ ENDP			; common::win32::condition::condition
_TEXT	ENDS
; Function compile flags: /Odtp /RTCsu
;	COMDAT ??_Gabstract_condition@common@@UEAAPEAXI@Z
_TEXT	SEGMENT
this$ = 48
__flags$ = 56
??_Gabstract_condition@common@@UEAAPEAXI@Z PROC		; common::abstract_condition::`scalar deleting destructor', COMDAT
$LN4:
  00000	89 54 24 10	 mov	 DWORD PTR [rsp+16], edx
  00004	48 89 4c 24 08	 mov	 QWORD PTR [rsp+8], rcx
  00009	57		 push	 rdi
  0000a	48 83 ec 20	 sub	 rsp, 32			; 00000020H
  0000e	48 8b fc	 mov	 rdi, rsp
  00011	b9 08 00 00 00	 mov	 ecx, 8
  00016	b8 cc cc cc cc	 mov	 eax, -858993460		; ccccccccH
  0001b	f3 ab		 rep stosd
  0001d	48 8b 4c 24 30	 mov	 rcx, QWORD PTR [rsp+48]
  00022	48 8b 4c 24 30	 mov	 rcx, QWORD PTR this$[rsp]
  00027	e8 00 00 00 00	 call	 ??1abstract_condition@common@@UEAA@XZ ; common::abstract_condition::~abstract_condition
  0002c	8b 44 24 38	 mov	 eax, DWORD PTR __flags$[rsp]
  00030	83 e0 01	 and	 eax, 1
  00033	85 c0		 test	 eax, eax
  00035	74 0f		 je	 SHORT $LN2@scalar
  00037	ba 08 00 00 00	 mov	 edx, 8
  0003c	48 8b 4c 24 30	 mov	 rcx, QWORD PTR this$[rsp]
  00041	e8 00 00 00 00	 call	 ??3@YAXPEAX_K@Z		; operator delete
$LN2@scalar:
  00046	48 8b 44 24 30	 mov	 rax, QWORD PTR this$[rsp]
  0004b	48 83 c4 20	 add	 rsp, 32			; 00000020H
  0004f	5f		 pop	 rdi
  00050	c3		 ret	 0
??_Gabstract_condition@common@@UEAAPEAXI@Z ENDP		; common::abstract_condition::`scalar deleting destructor'
_TEXT	ENDS
; Function compile flags: /Odtp /RTCsu
;	COMDAT ??0abstract_condition@common@@QEAA@XZ
_TEXT	SEGMENT
this$ = 16
??0abstract_condition@common@@QEAA@XZ PROC		; common::abstract_condition::abstract_condition, COMDAT
$LN3:
  00000	48 89 4c 24 08	 mov	 QWORD PTR [rsp+8], rcx
  00005	57		 push	 rdi
  00006	48 8b 44 24 10	 mov	 rax, QWORD PTR this$[rsp]
  0000b	48 8d 0d 00 00
	00 00		 lea	 rcx, OFFSET FLAT:??_7abstract_condition@common@@6B@
  00012	48 89 08	 mov	 QWORD PTR [rax], rcx
  00015	48 8b 44 24 10	 mov	 rax, QWORD PTR this$[rsp]
  0001a	5f		 pop	 rdi
  0001b	c3		 ret	 0
??0abstract_condition@common@@QEAA@XZ ENDP		; common::abstract_condition::abstract_condition
_TEXT	ENDS
; Function compile flags: /Odtp /RTCsu
; File e:\infinia-library-3.0\com\include\com\abstract_mtsync.h
;	COMDAT ??1abstract_condition@common@@UEAA@XZ
_TEXT	SEGMENT
this$ = 16
??1abstract_condition@common@@UEAA@XZ PROC		; common::abstract_condition::~abstract_condition, COMDAT

; 72   : 	virtual ~abstract_condition() {}

$LN3:
  00000	48 89 4c 24 08	 mov	 QWORD PTR [rsp+8], rcx
  00005	57		 push	 rdi
  00006	48 8b 44 24 10	 mov	 rax, QWORD PTR this$[rsp]
  0000b	48 8d 0d 00 00
	00 00		 lea	 rcx, OFFSET FLAT:??_7abstract_condition@common@@6B@
  00012	48 89 08	 mov	 QWORD PTR [rax], rcx
  00015	5f		 pop	 rdi
  00016	c3		 ret	 0
??1abstract_condition@common@@UEAA@XZ ENDP		; common::abstract_condition::~abstract_condition
_TEXT	ENDS
; Function compile flags: /Odtp /RTCsu
; File c:\program files (x86)\windows kits\10\include\10.0.10240.0\ucrt\stdio.h
;	COMDAT sprintf
_TEXT	SEGMENT
_Result$ = 32
_ArgList$ = 56
__$ArrayPad$ = 80
_Buffer$ = 112
_Format$ = 120
sprintf	PROC						; COMDAT

; 1776 : {

$LN3:
  00000	48 89 54 24 10	 mov	 QWORD PTR [rsp+16], rdx
  00005	48 89 4c 24 08	 mov	 QWORD PTR [rsp+8], rcx
  0000a	4c 89 44 24 18	 mov	 QWORD PTR [rsp+24], r8
  0000f	4c 89 4c 24 20	 mov	 QWORD PTR [rsp+32], r9
  00014	57		 push	 rdi
  00015	48 83 ec 60	 sub	 rsp, 96			; 00000060H
  00019	48 8b fc	 mov	 rdi, rsp
  0001c	b9 18 00 00 00	 mov	 ecx, 24
  00021	b8 cc cc cc cc	 mov	 eax, -858993460		; ccccccccH
  00026	f3 ab		 rep stosd
  00028	48 8b 4c 24 70	 mov	 rcx, QWORD PTR [rsp+112]
  0002d	48 8b 05 00 00
	00 00		 mov	 rax, QWORD PTR __security_cookie
  00034	48 33 c4	 xor	 rax, rsp
  00037	48 89 44 24 50	 mov	 QWORD PTR __$ArrayPad$[rsp], rax

; 1777 :     int _Result;
; 1778 :     va_list _ArgList;
; 1779 :     __crt_va_start(_ArgList, _Format);

  0003c	e8 00 00 00 00	 call	 ??$__vcrt_va_start_verify_argument_type@QEBD@@YAXXZ ; __vcrt_va_start_verify_argument_type<char const * __ptr64 const>
  00041	48 8d 84 24 80
	00 00 00	 lea	 rax, QWORD PTR _Format$[rsp+8]
  00049	48 89 44 24 38	 mov	 QWORD PTR _ArgList$[rsp], rax

; 1780 : 
; 1781 :     #pragma warning(push)
; 1782 :     #pragma warning(disable: 4996) // Deprecation
; 1783 :     _Result = _vsprintf_l(_Buffer, _Format, NULL, _ArgList);

  0004e	4c 8b 4c 24 38	 mov	 r9, QWORD PTR _ArgList$[rsp]
  00053	45 33 c0	 xor	 r8d, r8d
  00056	48 8b 54 24 78	 mov	 rdx, QWORD PTR _Format$[rsp]
  0005b	48 8b 4c 24 70	 mov	 rcx, QWORD PTR _Buffer$[rsp]
  00060	e8 00 00 00 00	 call	 _vsprintf_l
  00065	89 44 24 20	 mov	 DWORD PTR _Result$[rsp], eax

; 1784 :     #pragma warning(pop)
; 1785 : 
; 1786 :     __crt_va_end(_ArgList);

  00069	48 c7 44 24 38
	00 00 00 00	 mov	 QWORD PTR _ArgList$[rsp], 0

; 1787 :     return _Result;

  00072	8b 44 24 20	 mov	 eax, DWORD PTR _Result$[rsp]

; 1788 : }

  00076	8b f8		 mov	 edi, eax
  00078	48 8b cc	 mov	 rcx, rsp
  0007b	48 8d 15 00 00
	00 00		 lea	 rdx, OFFSET FLAT:sprintf$rtcFrameData
  00082	e8 00 00 00 00	 call	 _RTC_CheckStackVars
  00087	8b c7		 mov	 eax, edi
  00089	48 8b 4c 24 50	 mov	 rcx, QWORD PTR __$ArrayPad$[rsp]
  0008e	48 33 cc	 xor	 rcx, rsp
  00091	e8 00 00 00 00	 call	 __security_check_cookie
  00096	48 83 c4 60	 add	 rsp, 96			; 00000060H
  0009a	5f		 pop	 rdi
  0009b	c3		 ret	 0
sprintf	ENDP
_TEXT	ENDS
; Function compile flags: /Odtp /RTCsu
; File c:\program files (x86)\windows kits\10\include\10.0.10240.0\ucrt\stdio.h
;	COMDAT _vsprintf_l
_TEXT	SEGMENT
_Buffer$ = 64
_Format$ = 72
_Locale$ = 80
_ArgList$ = 88
_vsprintf_l PROC					; COMDAT

; 1455 : {

$LN3:
  00000	4c 89 4c 24 20	 mov	 QWORD PTR [rsp+32], r9
  00005	4c 89 44 24 18	 mov	 QWORD PTR [rsp+24], r8
  0000a	48 89 54 24 10	 mov	 QWORD PTR [rsp+16], rdx
  0000f	48 89 4c 24 08	 mov	 QWORD PTR [rsp+8], rcx
  00014	57		 push	 rdi
  00015	48 83 ec 30	 sub	 rsp, 48			; 00000030H
  00019	48 8b fc	 mov	 rdi, rsp
  0001c	b9 0c 00 00 00	 mov	 ecx, 12
  00021	b8 cc cc cc cc	 mov	 eax, -858993460		; ccccccccH
  00026	f3 ab		 rep stosd
  00028	48 8b 4c 24 40	 mov	 rcx, QWORD PTR [rsp+64]

; 1456 :     #pragma warning(push)
; 1457 :     #pragma warning(disable: 4996) // Deprecation
; 1458 :     return _vsnprintf_l(_Buffer, (size_t)-1, _Format, _Locale, _ArgList);

  0002d	48 8b 44 24 58	 mov	 rax, QWORD PTR _ArgList$[rsp]
  00032	48 89 44 24 20	 mov	 QWORD PTR [rsp+32], rax
  00037	4c 8b 4c 24 50	 mov	 r9, QWORD PTR _Locale$[rsp]
  0003c	4c 8b 44 24 48	 mov	 r8, QWORD PTR _Format$[rsp]
  00041	48 c7 c2 ff ff
	ff ff		 mov	 rdx, -1
  00048	48 8b 4c 24 40	 mov	 rcx, QWORD PTR _Buffer$[rsp]
  0004d	e8 00 00 00 00	 call	 _vsnprintf_l

; 1459 :     #pragma warning(pop)
; 1460 : }

  00052	48 83 c4 30	 add	 rsp, 48			; 00000030H
  00056	5f		 pop	 rdi
  00057	c3		 ret	 0
_vsprintf_l ENDP
_TEXT	ENDS
; Function compile flags: /Odtp /RTCsu
; File c:\program files (x86)\windows kits\10\include\10.0.10240.0\ucrt\stdio.h
;	COMDAT _vsnprintf_l
_TEXT	SEGMENT
_Result$ = 48
tv74 = 52
_Buffer$ = 80
_BufferCount$ = 88
_Format$ = 96
_Locale$ = 104
_ArgList$ = 112
_vsnprintf_l PROC					; COMDAT

; 1385 : {

$LN5:
  00000	4c 89 4c 24 20	 mov	 QWORD PTR [rsp+32], r9
  00005	4c 89 44 24 18	 mov	 QWORD PTR [rsp+24], r8
  0000a	48 89 54 24 10	 mov	 QWORD PTR [rsp+16], rdx
  0000f	48 89 4c 24 08	 mov	 QWORD PTR [rsp+8], rcx
  00014	57		 push	 rdi
  00015	48 83 ec 40	 sub	 rsp, 64			; 00000040H
  00019	48 8b fc	 mov	 rdi, rsp
  0001c	b9 10 00 00 00	 mov	 ecx, 16
  00021	b8 cc cc cc cc	 mov	 eax, -858993460		; ccccccccH
  00026	f3 ab		 rep stosd
  00028	48 8b 4c 24 50	 mov	 rcx, QWORD PTR [rsp+80]

; 1386 :     int const _Result = __stdio_common_vsprintf(

  0002d	e8 00 00 00 00	 call	 __local_stdio_printf_options
  00032	48 8b 00	 mov	 rax, QWORD PTR [rax]
  00035	48 83 c8 01	 or	 rax, 1
  00039	48 8b 4c 24 70	 mov	 rcx, QWORD PTR _ArgList$[rsp]
  0003e	48 89 4c 24 28	 mov	 QWORD PTR [rsp+40], rcx
  00043	48 8b 4c 24 68	 mov	 rcx, QWORD PTR _Locale$[rsp]
  00048	48 89 4c 24 20	 mov	 QWORD PTR [rsp+32], rcx
  0004d	4c 8b 4c 24 60	 mov	 r9, QWORD PTR _Format$[rsp]
  00052	4c 8b 44 24 58	 mov	 r8, QWORD PTR _BufferCount$[rsp]
  00057	48 8b 54 24 50	 mov	 rdx, QWORD PTR _Buffer$[rsp]
  0005c	48 8b c8	 mov	 rcx, rax
  0005f	ff 15 00 00 00
	00		 call	 QWORD PTR __imp___stdio_common_vsprintf
  00065	89 44 24 30	 mov	 DWORD PTR _Result$[rsp], eax

; 1387 :         _CRT_INTERNAL_LOCAL_PRINTF_OPTIONS | _CRT_INTERNAL_PRINTF_LEGACY_VSPRINTF_NULL_TERMINATION,
; 1388 :         _Buffer, _BufferCount, _Format, _Locale, _ArgList);
; 1389 : 
; 1390 :     return _Result < 0 ? -1 : _Result;

  00069	83 7c 24 30 00	 cmp	 DWORD PTR _Result$[rsp], 0
  0006e	7d 0a		 jge	 SHORT $LN3@vsnprintf_
  00070	c7 44 24 34 ff
	ff ff ff	 mov	 DWORD PTR tv74[rsp], -1
  00078	eb 08		 jmp	 SHORT $LN4@vsnprintf_
$LN3@vsnprintf_:
  0007a	8b 44 24 30	 mov	 eax, DWORD PTR _Result$[rsp]
  0007e	89 44 24 34	 mov	 DWORD PTR tv74[rsp], eax
$LN4@vsnprintf_:
  00082	8b 44 24 34	 mov	 eax, DWORD PTR tv74[rsp]

; 1391 : }

  00086	48 83 c4 40	 add	 rsp, 64			; 00000040H
  0008a	5f		 pop	 rdi
  0008b	c3		 ret	 0
_vsnprintf_l ENDP
_TEXT	ENDS
; Function compile flags: /Odtp /RTCsu
; File c:\program files (x86)\windows kits\10\include\10.0.10240.0\ucrt\stdio.h
;	COMDAT printf
_TEXT	SEGMENT
_Result$ = 32
_ArgList$ = 56
__$ArrayPad$ = 80
_Format$ = 112
printf	PROC						; COMDAT

; 950  : {

$LN3:
  00000	48 89 4c 24 08	 mov	 QWORD PTR [rsp+8], rcx
  00005	48 89 54 24 10	 mov	 QWORD PTR [rsp+16], rdx
  0000a	4c 89 44 24 18	 mov	 QWORD PTR [rsp+24], r8
  0000f	4c 89 4c 24 20	 mov	 QWORD PTR [rsp+32], r9
  00014	57		 push	 rdi
  00015	48 83 ec 60	 sub	 rsp, 96			; 00000060H
  00019	48 8b fc	 mov	 rdi, rsp
  0001c	b9 18 00 00 00	 mov	 ecx, 24
  00021	b8 cc cc cc cc	 mov	 eax, -858993460		; ccccccccH
  00026	f3 ab		 rep stosd
  00028	48 8b 4c 24 70	 mov	 rcx, QWORD PTR [rsp+112]
  0002d	48 8b 05 00 00
	00 00		 mov	 rax, QWORD PTR __security_cookie
  00034	48 33 c4	 xor	 rax, rsp
  00037	48 89 44 24 50	 mov	 QWORD PTR __$ArrayPad$[rsp], rax

; 951  :     int _Result;
; 952  :     va_list _ArgList;
; 953  :     __crt_va_start(_ArgList, _Format);

  0003c	e8 00 00 00 00	 call	 ??$__vcrt_va_start_verify_argument_type@QEBD@@YAXXZ ; __vcrt_va_start_verify_argument_type<char const * __ptr64 const>
  00041	48 8d 44 24 78	 lea	 rax, QWORD PTR _Format$[rsp+8]
  00046	48 89 44 24 38	 mov	 QWORD PTR _ArgList$[rsp], rax

; 954  :     _Result = _vfprintf_l(stdout, _Format, NULL, _ArgList);

  0004b	b9 01 00 00 00	 mov	 ecx, 1
  00050	ff 15 00 00 00
	00		 call	 QWORD PTR __imp___acrt_iob_func
  00056	4c 8b 4c 24 38	 mov	 r9, QWORD PTR _ArgList$[rsp]
  0005b	45 33 c0	 xor	 r8d, r8d
  0005e	48 8b 54 24 70	 mov	 rdx, QWORD PTR _Format$[rsp]
  00063	48 8b c8	 mov	 rcx, rax
  00066	e8 00 00 00 00	 call	 _vfprintf_l
  0006b	89 44 24 20	 mov	 DWORD PTR _Result$[rsp], eax

; 955  :     __crt_va_end(_ArgList);

  0006f	48 c7 44 24 38
	00 00 00 00	 mov	 QWORD PTR _ArgList$[rsp], 0

; 956  :     return _Result;

  00078	8b 44 24 20	 mov	 eax, DWORD PTR _Result$[rsp]

; 957  : }

  0007c	8b f8		 mov	 edi, eax
  0007e	48 8b cc	 mov	 rcx, rsp
  00081	48 8d 15 00 00
	00 00		 lea	 rdx, OFFSET FLAT:printf$rtcFrameData
  00088	e8 00 00 00 00	 call	 _RTC_CheckStackVars
  0008d	8b c7		 mov	 eax, edi
  0008f	48 8b 4c 24 50	 mov	 rcx, QWORD PTR __$ArrayPad$[rsp]
  00094	48 33 cc	 xor	 rcx, rsp
  00097	e8 00 00 00 00	 call	 __security_check_cookie
  0009c	48 83 c4 60	 add	 rsp, 96			; 00000060H
  000a0	5f		 pop	 rdi
  000a1	c3		 ret	 0
printf	ENDP
_TEXT	ENDS
; Function compile flags: /Odtp /RTCsu
; File c:\program files (x86)\microsoft visual studio 14.0\vc\include\vadefs.h
;	COMDAT ??$__vcrt_va_start_verify_argument_type@QEBD@@YAXXZ
_TEXT	SEGMENT
??$__vcrt_va_start_verify_argument_type@QEBD@@YAXXZ PROC ; __vcrt_va_start_verify_argument_type<char const * __ptr64 const>, COMDAT

; 144  :         {

$LN3:
  00000	40 57		 push	 rdi

; 145  :             static_assert(!__vcrt_va_list_is_reference<_Ty>::__the_value, "va_start argument must not have reference type and must not be parenthesized");
; 146  :         }

  00002	5f		 pop	 rdi
  00003	c3		 ret	 0
??$__vcrt_va_start_verify_argument_type@QEBD@@YAXXZ ENDP ; __vcrt_va_start_verify_argument_type<char const * __ptr64 const>
_TEXT	ENDS
; Function compile flags: /Odtp /RTCsu
; File c:\program files (x86)\windows kits\10\include\10.0.10240.0\ucrt\stdio.h
;	COMDAT _vfprintf_l
_TEXT	SEGMENT
_Stream$ = 64
_Format$ = 72
_Locale$ = 80
_ArgList$ = 88
_vfprintf_l PROC					; COMDAT

; 638  : {

$LN3:
  00000	4c 89 4c 24 20	 mov	 QWORD PTR [rsp+32], r9
  00005	4c 89 44 24 18	 mov	 QWORD PTR [rsp+24], r8
  0000a	48 89 54 24 10	 mov	 QWORD PTR [rsp+16], rdx
  0000f	48 89 4c 24 08	 mov	 QWORD PTR [rsp+8], rcx
  00014	57		 push	 rdi
  00015	48 83 ec 30	 sub	 rsp, 48			; 00000030H
  00019	48 8b fc	 mov	 rdi, rsp
  0001c	b9 0c 00 00 00	 mov	 ecx, 12
  00021	b8 cc cc cc cc	 mov	 eax, -858993460		; ccccccccH
  00026	f3 ab		 rep stosd
  00028	48 8b 4c 24 40	 mov	 rcx, QWORD PTR [rsp+64]

; 639  :     return __stdio_common_vfprintf(_CRT_INTERNAL_LOCAL_PRINTF_OPTIONS, _Stream, _Format, _Locale, _ArgList);

  0002d	e8 00 00 00 00	 call	 __local_stdio_printf_options
  00032	48 8b 4c 24 58	 mov	 rcx, QWORD PTR _ArgList$[rsp]
  00037	48 89 4c 24 20	 mov	 QWORD PTR [rsp+32], rcx
  0003c	4c 8b 4c 24 50	 mov	 r9, QWORD PTR _Locale$[rsp]
  00041	4c 8b 44 24 48	 mov	 r8, QWORD PTR _Format$[rsp]
  00046	48 8b 54 24 40	 mov	 rdx, QWORD PTR _Stream$[rsp]
  0004b	48 8b 08	 mov	 rcx, QWORD PTR [rax]
  0004e	ff 15 00 00 00
	00		 call	 QWORD PTR __imp___stdio_common_vfprintf

; 640  : }

  00054	48 83 c4 30	 add	 rsp, 48			; 00000030H
  00058	5f		 pop	 rdi
  00059	c3		 ret	 0
_vfprintf_l ENDP
_TEXT	ENDS
; Function compile flags: /Odtp /RTCsu
; File c:\program files (x86)\windows kits\10\include\10.0.10240.0\ucrt\corecrt_stdio_config.h
;	COMDAT __local_stdio_printf_options
_TEXT	SEGMENT
__local_stdio_printf_options PROC			; COMDAT

; 73   : {

$LN3:
  00000	40 57		 push	 rdi

; 74   :     static unsigned __int64 _OptionsStorage;
; 75   :     return &_OptionsStorage;

  00002	48 8d 05 00 00
	00 00		 lea	 rax, OFFSET FLAT:?_OptionsStorage@?1??__local_stdio_printf_options@@9@4_KA ; `__local_stdio_printf_options'::`2'::_OptionsStorage

; 76   : }

  00009	5f		 pop	 rdi
  0000a	c3		 ret	 0
__local_stdio_printf_options ENDP
_TEXT	ENDS
END
