; Listing generated by Microsoft (R) Optimizing Compiler Version 19.00.24215.1 

include listing.inc

INCLUDELIB MSVCRTD
INCLUDELIB OLDNAMES

CONST	SEGMENT
$SG87054 DB	'pList calloc is NULL', 00H
	ORG $+3
$SG87087 DB	'pList calloc is NULL', 00H
	ORG $+3
$SG86320 DB	'%s*.*', 00H
	ORG $+2
$SG86342 DB	'.', 00H
	ORG $+2
$SG86343 DB	'..', 00H
	ORG $+1
$SG86383 DB	'.', 00H
	ORG $+2
$SG86384 DB	'..', 00H
	ORG $+1
$SG86385 DB	'%s%s', 00H
	ORG $+3
$SG86394 DB	'%s%s%c', 00H
	ORG $+1
$SG86402 DB	'FAILED _tremove[%s] nResult[%d]', 00H
$SG86403 DB	'CFileUtil::delDirectory', 00H
$SG86404 DB	'SUCCESS _tremove[%s] nResult[%d]', 00H
	ORG $+3
$SG86528 DB	'.\', 00H
	ORG $+1
$SG86405 DB	'CFileUtil::delDirectory', 00H
$SG86410 DB	'SUCCESS rmdir[%s]', 00H
	ORG $+2
$SG86529 DB	'..\', 00H
$SG86411 DB	'CFileUtil::delDirectory', 00H
$SG86412 DB	'FAILED rmdir[%s]', 00H
	ORG $+3
$SG86555 DB	'rb', 00H
	ORG $+1
$SG86413 DB	'CFileUtil::delDirectory', 00H
$SG86507 DB	'fname[%s] nCount[%d]', 00H
	ORG $+3
$SG86508 DB	' fname[%d] ftype[%d]', 00H
	ORG $+3
$SG86509 DB	'CFileUtil::appendFileList', 00H
	ORG $+2
$SG86557 DB	'wb+', 00H
$SG86536 DB	'com_mkdir has Failed! [%s]', 00H
	ORG $+1
$SG86573 DB	'rb', 00H
	ORG $+1
$SG86537 DB	'CFileUtil::MakeDirectory', 00H
	ORG $+3
$SG86718 DB	'rb', 00H
	ORG $+1
$SG86575 DB	'CDFSFile::read pFile open FAIL [%s]', 00H
$SG86750 DB	'a+', 00H
	ORG $+1
$SG86664 DB	'new pList', 00H
	ORG $+2
$SG86752 DB	'a+', 00H
	ORG $+1
$SG86665 DB	'CFileUtil::fileToFieldRecord', 00H
	ORG $+3
$SG86668 DB	'alloc pList', 00H
$SG86776 DB	'r', 00H
	ORG $+2
$SG86669 DB	'CFileUtil::fileToFieldRecord', 00H
	ORG $+3
$SG86674 DB	'add pLineList', 00H
	ORG $+2
$SG86675 DB	'CFileUtil::fileToFieldRecord', 00H
	ORG $+3
$SG86720 DB	'CDFSFile::read pFile open FAIL [%s]', 00H
$SG86798 DB	'w', 00H
	ORG $+2
$SG86724 DB	'CFileUtil::readNalloc malloc error! size[%ld]', 00H
	ORG $+2
$SG86726 DB	'fread errno[%d]', 0aH, 00H
	ORG $+3
$SG86800 DB	'w', 00H
	ORG $+2
$SG86742 DB	'CFileUtil::getNextLine gs_pMMgr->newBuf error! size[%ld]'
	DB	00H
	ORG $+3
$SG86813 DB	'r', 00H
	ORG $+2
$SG86754 DB	'CDFSFile::add pFile open FAIL [%s]', 00H
	ORG $+1
$SG86833 DB	'rb', 00H
	ORG $+1
$SG86770 DB	'FILEMOVE error code[%d]', 00H
$SG86791 DB	'CFileUtil::tryopen pFile open FAIL', 00H
	ORG $+1
$SG86859 DB	'rb', 00H
	ORG $+1
$SG86802 DB	'CFileUtil::modify pFile open FAIL [%s]', 00H
	ORG $+1
$SG86835 DB	'CDFSFile::readLoop pFile open FAIL [%s]', 00H
$SG86862 DB	'CDFSFile::nextReadLoop pFile open FAIL [%s]', 00H
$SG86874 DB	'rb', 00H
	ORG $+1
$SG86876 DB	'CDFSFile::nextRead pFile open FAIL [%s]', 00H
$SG86887 DB	'w', 00H
	ORG $+2
$SG86889 DB	'w', 00H
	ORG $+2
$SG86891 DB	'CDFSFile::modify pFile open FAIL [%s]', 00H
	ORG $+2
$SG86902 DB	'a+', 00H
	ORG $+1
$SG86904 DB	'a+', 00H
	ORG $+1
$SG86906 DB	'CDFSFile::add2 pFile open FAIL [%s]', 00H
CONST	ENDS
PUBLIC	__local_stdio_printf_options
PUBLIC	_vfprintf_l
PUBLIC	??$__vcrt_va_start_verify_argument_type@QEBD@@YAXXZ ; __vcrt_va_start_verify_argument_type<char const * __ptr64 const>
PUBLIC	printf
PUBLIC	_vsnprintf_l
PUBLIC	_vsprintf_l
PUBLIC	sprintf
PUBLIC	?strchr@@YAPEADQEADH@Z				; strchr
PUBLIC	_tcschr
PUBLIC	_tcsncpy
PUBLIC	_tcsrchr
PUBLIC	_tcscmp
PUBLIC	?_tcschr@@YAPEADPEADI@Z				; _tcschr
PUBLIC	?_tcsrchr@@YAPEADPEADI@Z			; _tcsrchr
PUBLIC	?com_mkdir@@YA_NPEBD@Z				; com_mkdir
PUBLIC	?com_isInvalid@@YA_NPEBD@Z			; com_isInvalid
PUBLIC	?com_isFile@@YA_NPEBD@Z				; com_isFile
PUBLIC	?com_isDirectory@@YA_NPEAD@Z			; com_isDirectory
PUBLIC	?com_findFirstFile@@YAPEAXPEBDPEAU_WIN32_FIND_DATAA@@@Z ; com_findFirstFile
PUBLIC	?com_nextFile@@YA_NPEAXPEAU_WIN32_FIND_DATAA@@@Z ; com_nextFile
PUBLIC	?com_getFileName@@YAXPEAPEADPEAU_WIN32_FIND_DATAA@@@Z ; com_getFileName
PUBLIC	?jISREG@@YA_NPEAU_WIN32_FIND_DATAA@@@Z		; jISREG
PUBLIC	?jISDIR@@YA_NPEAU_WIN32_FIND_DATAA@@@Z		; jISDIR
PUBLIC	?getIndex@@YAHH@Z				; getIndex
PUBLIC	?newBuf@CMemManager@@QEAAPEADH@Z		; CMemManager::newBuf
PUBLIC	?newBuf@CMemManager@@QEAAPEADHPEAH@Z		; CMemManager::newBuf
PUBLIC	?delBuf@CMemManager@@QEAAXPEADH@Z		; CMemManager::delBuf
PUBLIC	?alloc@CStringList@@QEAAHH@Z			; CStringList::alloc
PUBLIC	?push_back@CStringList@@QEAAPEAVCmString@@PEAD@Z ; CStringList::push_back
PUBLIC	?getNext@CStringList@@QEAAPEAVCmString@@PEAH@Z	; CStringList::getNext
PUBLIC	?__getNext@CStringList@@AEAAPEAVCmString@@PEAH@Z ; CStringList::__getNext
PUBLIC	?__autoclassinit2@CStringList@@QEAAX_K@Z	; CStringList::__autoclassinit2
PUBLIC	??_GCStringList@@QEAAPEAXI@Z			; CStringList::`scalar deleting destructor'
PUBLIC	?filter_stringCompare@@YA_NPEADPEAX1@Z		; filter_stringCompare
PUBLIC	?filter_dateTimeCompare@@YA_NPEADPEAX1@Z	; filter_dateTimeCompare
PUBLIC	?IsExistDirectory@CFileUtil@@SA_NPEAD@Z		; CFileUtil::IsExistDirectory
PUBLIC	?GetFileList@CFileUtil@@SA_NPEAUSTFileList@@PEAUSTFilterData@@@Z ; CFileUtil::GetFileList
PUBLIC	?delDirectory@CFileUtil@@SAHPEAUSTDelInfo@@PEAUSTFilterData@@@Z ; CFileUtil::delDirectory
PUBLIC	?MakeDirectory@CFileUtil@@SA_NPEBD@Z		; CFileUtil::MakeDirectory
PUBLIC	?FileCopy@CFileUtil@@SA_NPEBD0@Z		; CFileUtil::FileCopy
PUBLIC	?IsAbsolutePath@CFileUtil@@SA_NPEBD@Z		; CFileUtil::IsAbsolutePath
PUBLIC	?setDirectory@CFileUtil@@SA_NPEADH@Z		; CFileUtil::setDirectory
PUBLIC	?changeDirName@CFileUtil@@SA_NPEAD0@Z		; CFileUtil::changeDirName
PUBLIC	?read@CFileUtil@@SAHPEAD0H@Z			; CFileUtil::read
PUBLIC	?readNalloc@CFileUtil@@SAHPEADPEAPEADPEAH@Z	; CFileUtil::readNalloc
PUBLIC	?getNextLine@CFileUtil@@SAHPEAUSTStrInfo@@@Z	; CFileUtil::getNextLine
PUBLIC	?getFieldList@CFileUtil@@SA_NPEADDPEAVCStringList@@@Z ; CFileUtil::getFieldList
PUBLIC	?fileToFieldRecord@CFileUtil@@SA_NPEADPEAV?$CTList@VCStringList@@@@D@Z ; CFileUtil::fileToFieldRecord
PUBLIC	?add@CFileUtil@@SA_NPEAD0@Z			; CFileUtil::add
PUBLIC	?getReFileName@CFileUtil@@SA_NPEADPEBD1@Z	; CFileUtil::getReFileName
PUBLIC	?renameFile@CFileUtil@@SA_NPEBD0@Z		; CFileUtil::renameFile
PUBLIC	?getFileSize@CFileUtil@@SAHPEAD@Z		; CFileUtil::getFileSize
PUBLIC	?tryopen@CFileUtil@@SAPEAU_iobuf@@HPEADPEBDPEAH@Z ; CFileUtil::tryopen
PUBLIC	?modify@CFileUtil@@SA_NPEADH0@Z			; CFileUtil::modify
PUBLIC	?getFileSize2@CFileUtil@@SAHPEADHPEAHH@Z	; CFileUtil::getFileSize2
PUBLIC	?readLoop@CFileUtil@@SAHPEADHHPEAUSTFileMem@@H@Z ; CFileUtil::readLoop
PUBLIC	?nextReadLoop@CFileUtil@@SAHPEADHHPEAUSTFileMem@@HH@Z ; CFileUtil::nextReadLoop
PUBLIC	?nextRead@CFileUtil@@SAHPEAD0HH@Z		; CFileUtil::nextRead
PUBLIC	?modify@CFileUtil@@SA_NPEADHPEAUSTFileMem@@@Z	; CFileUtil::modify
PUBLIC	?add@CFileUtil@@SA_NPEADHPEAUSTFileMem@@@Z	; CFileUtil::add
PUBLIC	?ehstrstr@CFileUtil@@SAPEADPEBD0@Z		; CFileUtil::ehstrstr
PUBLIC	?appendFileList@CFileUtil@@CA_NPEAV?$CTList@UfileInfo@@@@PEBDD@Z ; CFileUtil::appendFileList
PUBLIC	?CheckDirName@@YAXPEAD@Z			; CheckDirName
PUBLIC	??0?$CTList@UfileInfo@@@@QEAA@XZ		; CTList<fileInfo>::CTList<fileInfo>
PUBLIC	?alloc@?$CTList@UfileInfo@@@@QEAAHHW4E_ALLOC_TYPE@@@Z ; CTList<fileInfo>::alloc
PUBLIC	?push_back@?$CTList@UfileInfo@@@@QEAA_NPEAUfileInfo@@PEAH@Z ; CTList<fileInfo>::push_back
PUBLIC	?size@?$CTList@UfileInfo@@@@QEAAHXZ		; CTList<fileInfo>::size
PUBLIC	?__alloc@?$CTList@UfileInfo@@@@AEAAHH@Z		; CTList<fileInfo>::__alloc
PUBLIC	?__autoclassinit2@?$CTList@UfileInfo@@@@QEAAX_K@Z ; CTList<fileInfo>::__autoclassinit2
PUBLIC	?push_back@?$CTList@VCStringList@@@@QEAA_NPEAVCStringList@@PEAH@Z ; CTList<CStringList>::push_back
PUBLIC	?getNext@?$CTList@VCStringList@@@@QEAAPEAVCStringList@@PEAH@Z ; CTList<CStringList>::getNext
PUBLIC	?__alloc@?$CTList@VCStringList@@@@AEAAHH@Z	; CTList<CStringList>::__alloc
PUBLIC	?_OptionsStorage@?1??__local_stdio_printf_options@@9@4_KA ; `__local_stdio_printf_options'::`2'::_OptionsStorage
EXTRN	??2@YAPEAX_K@Z:PROC				; operator new
EXTRN	??3@YAXPEAX_K@Z:PROC				; operator delete
EXTRN	__report_rangecheckfailure:PROC
EXTRN	__imp___acrt_iob_func:PROC
EXTRN	__imp_fclose:PROC
EXTRN	__imp_fflush:PROC
EXTRN	__imp_fopen:PROC
EXTRN	__imp_fread:PROC
EXTRN	__imp_fseek:PROC
EXTRN	__imp_ftell:PROC
EXTRN	__imp_fwrite:PROC
EXTRN	__imp_remove:PROC
EXTRN	__imp_rename:PROC
EXTRN	__imp___stdio_common_vfprintf:PROC
EXTRN	__imp___stdio_common_vsprintf:PROC
EXTRN	__imp__errno:PROC
EXTRN	memcpy:PROC
EXTRN	memset:PROC
EXTRN	__imp_strchr:PROC
EXTRN	strcmp:PROC
EXTRN	strcpy:PROC
EXTRN	strlen:PROC
EXTRN	__imp_calloc:PROC
EXTRN	__imp_free:PROC
EXTRN	__imp__mbschr:PROC
EXTRN	__imp__mbscmp:PROC
EXTRN	__imp__mbsnbcpy:PROC
EXTRN	__imp__mbsrchr:PROC
EXTRN	__imp_GetLastError:PROC
EXTRN	__imp_FindClose:PROC
EXTRN	__imp_CreateDirectoryA:PROC
EXTRN	__imp_RemoveDirectoryA:PROC
EXTRN	__imp_GetFileAttributesA:PROC
EXTRN	__imp_FindFirstFileA:PROC
EXTRN	__imp_FindNextFileA:PROC
EXTRN	__imp_MoveFileA:PROC
EXTRN	??2@YAPEAX_KAEBUnothrow_t@std@@@Z:PROC		; operator new
EXTRN	??3@YAXPEAXAEBUnothrow_t@std@@@Z:PROC		; operator delete
EXTRN	??0CFileTime@@QEAA@XZ:PROC			; CFileTime::CFileTime
EXTRN	??1CFileTime@@QEAA@XZ:PROC			; CFileTime::~CFileTime
EXTRN	?setFileTime@CFileTime@@QEAAHPEAU_FILETIME@@@Z:PROC ; CFileTime::setFileTime
EXTRN	?isCompare@CFileTime@@QEAA_NPEAV1@W4E_OPERATOR@@@Z:PROC ; CFileTime::isCompare
EXTRN	?delBufByIndex@CMemManager@@QEAAXPEADH@Z:PROC	; CMemManager::delBufByIndex
EXTRN	?__newBuf@CMemManager@@AEAAPEADH_K@Z:PROC	; CMemManager::__newBuf
EXTRN	?PutLogQueue@CLogger@@QEAAXHPEBDZZ:PROC		; CLogger::PutLogQueue
EXTRN	?__debugLog@CLogger@@QEAAXHPEBDH0ZZ:PROC	; CLogger::__debugLog
EXTRN	?compare@CmString@@QEAAHPEBD@Z:PROC		; CmString::compare
EXTRN	??0CStringList@@QEAA@XZ:PROC			; CStringList::CStringList
EXTRN	??1CStringList@@QEAA@XZ:PROC			; CStringList::~CStringList
EXTRN	?__alloc@CStringList@@AEAAHH@Z:PROC		; CStringList::__alloc
EXTRN	?__add@CStringList@@AEAAPEAVCmString@@PEADH@Z:PROC ; CStringList::__add
EXTRN	?newIdx@CStringList@@AEAAHXZ:PROC		; CStringList::newIdx
EXTRN	_RTC_CheckStackVars:PROC
EXTRN	_RTC_InitBase:PROC
EXTRN	_RTC_Shutdown:PROC
EXTRN	__GSHandlerCheck:PROC
EXTRN	__GSHandlerCheck_EH:PROC
EXTRN	__chkstk:PROC
EXTRN	__security_check_cookie:PROC
EXTRN	?nothrow@std@@3Unothrow_t@1@B:BYTE		; std::nothrow
EXTRN	?g_szMessage@@3PADA:BYTE			; g_szMessage
EXTRN	?gs_pMMgr@@3PEAVCMemManager@@EA:QWORD		; gs_pMMgr
EXTRN	?gs_cLogger@@3VCLogger@@A:BYTE			; gs_cLogger
EXTRN	__security_cookie:QWORD
EXTRN	_fltused:DWORD
;	COMDAT ?_OptionsStorage@?1??__local_stdio_printf_options@@9@4_KA
_BSS	SEGMENT
?_OptionsStorage@?1??__local_stdio_printf_options@@9@4_KA DQ 01H DUP (?) ; `__local_stdio_printf_options'::`2'::_OptionsStorage
_BSS	ENDS
;	COMDAT pdata
pdata	SEGMENT
$pdata$__local_stdio_printf_options DD imagerel $LN3
	DD	imagerel $LN3+11
	DD	imagerel $unwind$__local_stdio_printf_options
pdata	ENDS
;	COMDAT pdata
pdata	SEGMENT
$pdata$_vfprintf_l DD imagerel $LN3
	DD	imagerel $LN3+90
	DD	imagerel $unwind$_vfprintf_l
pdata	ENDS
;	COMDAT pdata
pdata	SEGMENT
$pdata$??$__vcrt_va_start_verify_argument_type@QEBD@@YAXXZ DD imagerel $LN3
	DD	imagerel $LN3+4
	DD	imagerel $unwind$??$__vcrt_va_start_verify_argument_type@QEBD@@YAXXZ
pdata	ENDS
;	COMDAT pdata
pdata	SEGMENT
$pdata$printf DD imagerel $LN3
	DD	imagerel $LN3+162
	DD	imagerel $unwind$printf
pdata	ENDS
;	COMDAT pdata
pdata	SEGMENT
$pdata$_vsnprintf_l DD imagerel $LN5
	DD	imagerel $LN5+140
	DD	imagerel $unwind$_vsnprintf_l
pdata	ENDS
;	COMDAT pdata
pdata	SEGMENT
$pdata$_vsprintf_l DD imagerel $LN3
	DD	imagerel $LN3+88
	DD	imagerel $unwind$_vsprintf_l
pdata	ENDS
;	COMDAT pdata
pdata	SEGMENT
$pdata$sprintf DD imagerel $LN3
	DD	imagerel $LN3+156
	DD	imagerel $unwind$sprintf
pdata	ENDS
;	COMDAT pdata
pdata	SEGMENT
$pdata$?strchr@@YAPEADQEADH@Z DD imagerel $LN3
	DD	imagerel $LN3+55
	DD	imagerel $unwind$?strchr@@YAPEADQEADH@Z
pdata	ENDS
;	COMDAT pdata
pdata	SEGMENT
$pdata$_tcschr DD imagerel $LN3
	DD	imagerel $LN3+55
	DD	imagerel $unwind$_tcschr
pdata	ENDS
;	COMDAT pdata
pdata	SEGMENT
$pdata$_tcsncpy DD imagerel $LN3
	DD	imagerel $LN3+67
	DD	imagerel $unwind$_tcsncpy
pdata	ENDS
;	COMDAT pdata
pdata	SEGMENT
$pdata$_tcsrchr DD imagerel $LN3
	DD	imagerel $LN3+55
	DD	imagerel $unwind$_tcsrchr
pdata	ENDS
;	COMDAT pdata
pdata	SEGMENT
$pdata$_tcscmp DD imagerel $LN3
	DD	imagerel $LN3+57
	DD	imagerel $unwind$_tcscmp
pdata	ENDS
;	COMDAT pdata
pdata	SEGMENT
$pdata$?_tcschr@@YAPEADPEADI@Z DD imagerel $LN3
	DD	imagerel $LN3+54
	DD	imagerel $unwind$?_tcschr@@YAPEADPEADI@Z
pdata	ENDS
;	COMDAT pdata
pdata	SEGMENT
$pdata$?_tcsrchr@@YAPEADPEADI@Z DD imagerel $LN3
	DD	imagerel $LN3+54
	DD	imagerel $unwind$?_tcsrchr@@YAPEADPEADI@Z
pdata	ENDS
;	COMDAT pdata
pdata	SEGMENT
$pdata$?com_mkdir@@YA_NPEBD@Z DD imagerel $LN5
	DD	imagerel $LN5+77
	DD	imagerel $unwind$?com_mkdir@@YA_NPEBD@Z
pdata	ENDS
;	COMDAT pdata
pdata	SEGMENT
$pdata$?com_isInvalid@@YA_NPEBD@Z DD imagerel $LN4
	DD	imagerel $LN4+58
	DD	imagerel $unwind$?com_isInvalid@@YA_NPEBD@Z
pdata	ENDS
;	COMDAT pdata
pdata	SEGMENT
$pdata$?com_isFile@@YA_NPEBD@Z DD imagerel $LN5
	DD	imagerel $LN5+71
	DD	imagerel $unwind$?com_isFile@@YA_NPEBD@Z
pdata	ENDS
;	COMDAT pdata
pdata	SEGMENT
$pdata$?com_isDirectory@@YA_NPEAD@Z DD imagerel $LN4
	DD	imagerel $LN4+64
	DD	imagerel $unwind$?com_isDirectory@@YA_NPEAD@Z
pdata	ENDS
;	COMDAT pdata
pdata	SEGMENT
$pdata$?com_findFirstFile@@YAPEAXPEBDPEAU_WIN32_FIND_DATAA@@@Z DD imagerel $LN3
	DD	imagerel $LN3+57
	DD	imagerel $unwind$?com_findFirstFile@@YAPEAXPEBDPEAU_WIN32_FIND_DATAA@@@Z
pdata	ENDS
;	COMDAT pdata
pdata	SEGMENT
$pdata$?com_nextFile@@YA_NPEAXPEAU_WIN32_FIND_DATAA@@@Z DD imagerel $LN5
	DD	imagerel $LN5+78
	DD	imagerel $unwind$?com_nextFile@@YA_NPEAXPEAU_WIN32_FIND_DATAA@@@Z
pdata	ENDS
;	COMDAT pdata
pdata	SEGMENT
$pdata$?com_getFileName@@YAXPEAPEADPEAU_WIN32_FIND_DATAA@@@Z DD imagerel $LN3
	DD	imagerel $LN3+30
	DD	imagerel $unwind$?com_getFileName@@YAXPEAPEADPEAU_WIN32_FIND_DATAA@@@Z
pdata	ENDS
;	COMDAT pdata
pdata	SEGMENT
$pdata$?jISREG@@YA_NPEAU_WIN32_FIND_DATAA@@@Z DD imagerel $LN5
	DD	imagerel $LN5+64
	DD	imagerel $unwind$?jISREG@@YA_NPEAU_WIN32_FIND_DATAA@@@Z
pdata	ENDS
;	COMDAT pdata
pdata	SEGMENT
$pdata$?jISDIR@@YA_NPEAU_WIN32_FIND_DATAA@@@Z DD imagerel $LN5
	DD	imagerel $LN5+64
	DD	imagerel $unwind$?jISDIR@@YA_NPEAU_WIN32_FIND_DATAA@@@Z
pdata	ENDS
;	COMDAT pdata
pdata	SEGMENT
$pdata$?getIndex@@YAHH@Z DD imagerel $LN5
	DD	imagerel $LN5+162
	DD	imagerel $unwind$?getIndex@@YAHH@Z
pdata	ENDS
;	COMDAT pdata
pdata	SEGMENT
$pdata$?newBuf@CMemManager@@QEAAPEADH@Z DD imagerel $LN3
	DD	imagerel $LN3+75
	DD	imagerel $unwind$?newBuf@CMemManager@@QEAAPEADH@Z
pdata	ENDS
;	COMDAT pdata
pdata	SEGMENT
$pdata$?newBuf@CMemManager@@QEAAPEADHPEAH@Z DD imagerel $LN3
	DD	imagerel $LN3+86
	DD	imagerel $unwind$?newBuf@CMemManager@@QEAAPEADHPEAH@Z
pdata	ENDS
;	COMDAT pdata
pdata	SEGMENT
$pdata$?delBuf@CMemManager@@QEAAXPEADH@Z DD imagerel $LN3
	DD	imagerel $LN3+79
	DD	imagerel $unwind$?delBuf@CMemManager@@QEAAXPEADH@Z
pdata	ENDS
;	COMDAT pdata
pdata	SEGMENT
$pdata$?alloc@CStringList@@QEAAHH@Z DD imagerel $LN3
	DD	imagerel $LN3+68
	DD	imagerel $unwind$?alloc@CStringList@@QEAAHH@Z
pdata	ENDS
;	COMDAT pdata
pdata	SEGMENT
$pdata$?push_back@CStringList@@QEAAPEAVCmString@@PEAD@Z DD imagerel $LN4
	DD	imagerel $LN4+120
	DD	imagerel $unwind$?push_back@CStringList@@QEAAPEAVCmString@@PEAD@Z
pdata	ENDS
;	COMDAT pdata
pdata	SEGMENT
$pdata$?getNext@CStringList@@QEAAPEAVCmString@@PEAH@Z DD imagerel $LN3
	DD	imagerel $LN3+56
	DD	imagerel $unwind$?getNext@CStringList@@QEAAPEAVCmString@@PEAH@Z
pdata	ENDS
;	COMDAT pdata
pdata	SEGMENT
$pdata$?__getNext@CStringList@@AEAAPEAVCmString@@PEAH@Z DD imagerel $LN7
	DD	imagerel $LN7+98
	DD	imagerel $unwind$?__getNext@CStringList@@AEAAPEAVCmString@@PEAH@Z
pdata	ENDS
;	COMDAT pdata
pdata	SEGMENT
$pdata$?__autoclassinit2@CStringList@@QEAAX_K@Z DD imagerel $LN3
	DD	imagerel $LN3+27
	DD	imagerel $unwind$?__autoclassinit2@CStringList@@QEAAX_K@Z
pdata	ENDS
;	COMDAT pdata
pdata	SEGMENT
$pdata$??_GCStringList@@QEAAPEAXI@Z DD imagerel $LN4
	DD	imagerel $LN4+81
	DD	imagerel $unwind$??_GCStringList@@QEAAPEAXI@Z
pdata	ENDS
pdata	SEGMENT
$pdata$?filter_stringCompare@@YA_NPEADPEAX1@Z DD imagerel $LN12
	DD	imagerel $LN12+385
	DD	imagerel $unwind$?filter_stringCompare@@YA_NPEADPEAX1@Z
pdata	ENDS
pdata	SEGMENT
$pdata$?dtor$0@?0??filter_stringCompare@@YA_NPEADPEAX1@Z@4HA DD imagerel ?dtor$0@?0??filter_stringCompare@@YA_NPEADPEAX1@Z@4HA
	DD	imagerel ?dtor$0@?0??filter_stringCompare@@YA_NPEADPEAX1@Z@4HA+40
	DD	imagerel $unwind$?dtor$0@?0??filter_stringCompare@@YA_NPEADPEAX1@Z@4HA
pdata	ENDS
pdata	SEGMENT
$pdata$?filter_dateTimeCompare@@YA_NPEADPEAX1@Z DD imagerel $LN4
	DD	imagerel $LN4+100
	DD	imagerel $unwind$?filter_dateTimeCompare@@YA_NPEADPEAX1@Z
$pdata$?IsExistDirectory@CFileUtil@@SA_NPEAD@Z DD imagerel $LN4
	DD	imagerel $LN4+90
	DD	imagerel $unwind$?IsExistDirectory@CFileUtil@@SA_NPEAD@Z
$pdata$?GetFileList@CFileUtil@@SA_NPEAUSTFileList@@PEAUSTFilterData@@@Z DD imagerel $LN18
	DD	imagerel $LN18+614
	DD	imagerel $unwind$?GetFileList@CFileUtil@@SA_NPEAUSTFileList@@PEAUSTFilterData@@@Z
$pdata$?delDirectory@CFileUtil@@SAHPEAUSTDelInfo@@PEAUSTFilterData@@@Z DD imagerel $LN33
	DD	imagerel $LN33+1395
	DD	imagerel $unwind$?delDirectory@CFileUtil@@SAHPEAUSTDelInfo@@PEAUSTFilterData@@@Z
pdata	ENDS
pdata	SEGMENT
$pdata$?dtor$0@?0??delDirectory@CFileUtil@@SAHPEAUSTDelInfo@@PEAUSTFilterData@@@Z@4HA DD imagerel ?dtor$0@?0??delDirectory@CFileUtil@@SAHPEAUSTDelInfo@@PEAUSTFilterData@@@Z@4HA
	DD	imagerel ?dtor$0@?0??delDirectory@CFileUtil@@SAHPEAUSTDelInfo@@PEAUSTFilterData@@@Z@4HA+38
	DD	imagerel $unwind$?dtor$0@?0??delDirectory@CFileUtil@@SAHPEAUSTDelInfo@@PEAUSTFilterData@@@Z@4HA
pdata	ENDS
pdata	SEGMENT
$pdata$?MakeDirectory@CFileUtil@@SA_NPEBD@Z DD imagerel $LN13
	DD	imagerel $LN13+572
	DD	imagerel $unwind$?MakeDirectory@CFileUtil@@SA_NPEBD@Z
$pdata$?FileCopy@CFileUtil@@SA_NPEBD0@Z DD imagerel $LN8
	DD	imagerel $LN8+410
	DD	imagerel $unwind$?FileCopy@CFileUtil@@SA_NPEBD0@Z
$pdata$?IsAbsolutePath@CFileUtil@@SA_NPEBD@Z DD imagerel $LN7
	DD	imagerel $LN7+97
	DD	imagerel $unwind$?IsAbsolutePath@CFileUtil@@SA_NPEBD@Z
$pdata$?setDirectory@CFileUtil@@SA_NPEADH@Z DD imagerel $LN7
	DD	imagerel $LN7+227
	DD	imagerel $unwind$?setDirectory@CFileUtil@@SA_NPEADH@Z
$pdata$?changeDirName@CFileUtil@@SA_NPEAD0@Z DD imagerel $LN4
	DD	imagerel $LN4+77
	DD	imagerel $unwind$?changeDirName@CFileUtil@@SA_NPEAD0@Z
$pdata$?read@CFileUtil@@SAHPEAD0H@Z DD imagerel $LN4
	DD	imagerel $LN4+180
	DD	imagerel $unwind$?read@CFileUtil@@SAHPEAD0H@Z
$pdata$?readNalloc@CFileUtil@@SAHPEADPEAPEADPEAH@Z DD imagerel $LN10
	DD	imagerel $LN10+456
	DD	imagerel $unwind$?readNalloc@CFileUtil@@SAHPEADPEAPEADPEAH@Z
$pdata$?getNextLine@CFileUtil@@SAHPEAUSTStrInfo@@@Z DD imagerel $LN10
	DD	imagerel $LN10+412
	DD	imagerel $unwind$?getNextLine@CFileUtil@@SAHPEAUSTStrInfo@@@Z
$pdata$?getFieldList@CFileUtil@@SA_NPEADDPEAVCStringList@@@Z DD imagerel $LN18
	DD	imagerel $LN18+521
	DD	imagerel $unwind$?getFieldList@CFileUtil@@SA_NPEADDPEAVCStringList@@@Z
$pdata$?fileToFieldRecord@CFileUtil@@SA_NPEADPEAV?$CTList@VCStringList@@@@D@Z DD imagerel $LN28
	DD	imagerel $LN28+899
	DD	imagerel $unwind$?fileToFieldRecord@CFileUtil@@SA_NPEADPEAV?$CTList@VCStringList@@@@D@Z
pdata	ENDS
pdata	SEGMENT
$pdata$?dtor$0@?0??fileToFieldRecord@CFileUtil@@SA_NPEADPEAV?$CTList@VCStringList@@@@D@Z@4HA DD imagerel ?dtor$0@?0??fileToFieldRecord@CFileUtil@@SA_NPEADPEAV?$CTList@VCStringList@@@@D@Z@4HA
	DD	imagerel ?dtor$0@?0??fileToFieldRecord@CFileUtil@@SA_NPEADPEAV?$CTList@VCStringList@@@@D@Z@4HA+45
	DD	imagerel $unwind$?dtor$0@?0??fileToFieldRecord@CFileUtil@@SA_NPEADPEAV?$CTList@VCStringList@@@@D@Z@4HA
pdata	ENDS
pdata	SEGMENT
$pdata$?add@CFileUtil@@SA_NPEAD0@Z DD imagerel $LN5
	DD	imagerel $LN5+208
	DD	imagerel $unwind$?add@CFileUtil@@SA_NPEAD0@Z
$pdata$?getReFileName@CFileUtil@@SA_NPEADPEBD1@Z DD imagerel $LN3
	DD	imagerel $LN3+138
	DD	imagerel $unwind$?getReFileName@CFileUtil@@SA_NPEADPEBD1@Z
$pdata$?renameFile@CFileUtil@@SA_NPEBD0@Z DD imagerel $LN5
	DD	imagerel $LN5+130
	DD	imagerel $unwind$?renameFile@CFileUtil@@SA_NPEBD0@Z
$pdata$?getFileSize@CFileUtil@@SAHPEAD@Z DD imagerel $LN4
	DD	imagerel $LN4+120
	DD	imagerel $unwind$?getFileSize@CFileUtil@@SAHPEAD@Z
$pdata$?tryopen@CFileUtil@@SAPEAU_iobuf@@HPEADPEBDPEAH@Z DD imagerel $LN7
	DD	imagerel $LN7+184
	DD	imagerel $unwind$?tryopen@CFileUtil@@SAPEAU_iobuf@@HPEADPEBDPEAH@Z
$pdata$?modify@CFileUtil@@SA_NPEADH0@Z DD imagerel $LN5
	DD	imagerel $LN5+203
	DD	imagerel $unwind$?modify@CFileUtil@@SA_NPEADH0@Z
$pdata$?getFileSize2@CFileUtil@@SAHPEADHPEAHH@Z DD imagerel $LN5
	DD	imagerel $LN5+208
	DD	imagerel $unwind$?getFileSize2@CFileUtil@@SAHPEADHPEAHH@Z
$pdata$?readLoop@CFileUtil@@SAHPEADHHPEAUSTFileMem@@H@Z DD imagerel $LN9
	DD	imagerel $LN9+390
	DD	imagerel $unwind$?readLoop@CFileUtil@@SAHPEADHHPEAUSTFileMem@@H@Z
$pdata$?nextReadLoop@CFileUtil@@SAHPEADHHPEAUSTFileMem@@HH@Z DD imagerel $LN13
	DD	imagerel $LN13+447
	DD	imagerel $unwind$?nextReadLoop@CFileUtil@@SAHPEADHHPEAUSTFileMem@@HH@Z
$pdata$?nextRead@CFileUtil@@SAHPEAD0HH@Z DD imagerel $LN4
	DD	imagerel $LN4+195
	DD	imagerel $unwind$?nextRead@CFileUtil@@SAHPEAD0HH@Z
$pdata$?modify@CFileUtil@@SA_NPEADHPEAUSTFileMem@@@Z DD imagerel $LN8
	DD	imagerel $LN8+266
	DD	imagerel $unwind$?modify@CFileUtil@@SA_NPEADHPEAUSTFileMem@@@Z
$pdata$?add@CFileUtil@@SA_NPEADHPEAUSTFileMem@@@Z DD imagerel $LN8
	DD	imagerel $LN8+266
	DD	imagerel $unwind$?add@CFileUtil@@SA_NPEADHPEAUSTFileMem@@@Z
$pdata$?ehstrstr@CFileUtil@@SAPEADPEBD0@Z DD imagerel $LN11
	DD	imagerel $LN11+240
	DD	imagerel $unwind$?ehstrstr@CFileUtil@@SAPEADPEBD0@Z
$pdata$?appendFileList@CFileUtil@@CA_NPEAV?$CTList@UfileInfo@@@@PEBDD@Z DD imagerel $LN11
	DD	imagerel $LN11+554
	DD	imagerel $unwind$?appendFileList@CFileUtil@@CA_NPEAV?$CTList@UfileInfo@@@@PEBDD@Z
pdata	ENDS
pdata	SEGMENT
$pdata$?dtor$0@?0??appendFileList@CFileUtil@@CA_NPEAV?$CTList@UfileInfo@@@@PEBDD@Z@4HA DD imagerel ?dtor$0@?0??appendFileList@CFileUtil@@CA_NPEAV?$CTList@UfileInfo@@@@PEBDD@Z@4HA
	DD	imagerel ?dtor$0@?0??appendFileList@CFileUtil@@CA_NPEAV?$CTList@UfileInfo@@@@PEBDD@Z@4HA+40
	DD	imagerel $unwind$?dtor$0@?0??appendFileList@CFileUtil@@CA_NPEAV?$CTList@UfileInfo@@@@PEBDD@Z@4HA
pdata	ENDS
pdata	SEGMENT
$pdata$?CheckDirName@@YAXPEAD@Z DD imagerel $LN6
	DD	imagerel $LN6+108
	DD	imagerel $unwind$?CheckDirName@@YAXPEAD@Z
pdata	ENDS
;	COMDAT pdata
pdata	SEGMENT
$pdata$??0?$CTList@UfileInfo@@@@QEAA@XZ DD imagerel $LN3
	DD	imagerel $LN3+85
	DD	imagerel $unwind$??0?$CTList@UfileInfo@@@@QEAA@XZ
pdata	ENDS
;	COMDAT pdata
pdata	SEGMENT
$pdata$?alloc@?$CTList@UfileInfo@@@@QEAAHHW4E_ALLOC_TYPE@@@Z DD imagerel $LN3
	DD	imagerel $LN3+87
	DD	imagerel $unwind$?alloc@?$CTList@UfileInfo@@@@QEAAHHW4E_ALLOC_TYPE@@@Z
pdata	ENDS
;	COMDAT pdata
pdata	SEGMENT
$pdata$?push_back@?$CTList@UfileInfo@@@@QEAA_NPEAUfileInfo@@PEAH@Z DD imagerel $LN15
	DD	imagerel $LN15+366
	DD	imagerel $unwind$?push_back@?$CTList@UfileInfo@@@@QEAA_NPEAUfileInfo@@PEAH@Z
pdata	ENDS
;	COMDAT pdata
pdata	SEGMENT
$pdata$?size@?$CTList@UfileInfo@@@@QEAAHXZ DD imagerel $LN3
	DD	imagerel $LN3+16
	DD	imagerel $unwind$?size@?$CTList@UfileInfo@@@@QEAAHXZ
pdata	ENDS
;	COMDAT pdata
pdata	SEGMENT
$pdata$?__alloc@?$CTList@UfileInfo@@@@AEAAHH@Z DD imagerel $LN5
	DD	imagerel $LN5+171
	DD	imagerel $unwind$?__alloc@?$CTList@UfileInfo@@@@AEAAHH@Z
pdata	ENDS
;	COMDAT pdata
pdata	SEGMENT
$pdata$?__autoclassinit2@?$CTList@UfileInfo@@@@QEAAX_K@Z DD imagerel $LN3
	DD	imagerel $LN3+27
	DD	imagerel $unwind$?__autoclassinit2@?$CTList@UfileInfo@@@@QEAAX_K@Z
pdata	ENDS
;	COMDAT pdata
pdata	SEGMENT
$pdata$?push_back@?$CTList@VCStringList@@@@QEAA_NPEAVCStringList@@PEAH@Z DD imagerel $LN15
	DD	imagerel $LN15+366
	DD	imagerel $unwind$?push_back@?$CTList@VCStringList@@@@QEAA_NPEAVCStringList@@PEAH@Z
pdata	ENDS
;	COMDAT pdata
pdata	SEGMENT
$pdata$?getNext@?$CTList@VCStringList@@@@QEAAPEAVCStringList@@PEAH@Z DD imagerel $LN7
	DD	imagerel $LN7+97
	DD	imagerel $unwind$?getNext@?$CTList@VCStringList@@@@QEAAPEAVCStringList@@PEAH@Z
pdata	ENDS
;	COMDAT pdata
pdata	SEGMENT
$pdata$?__alloc@?$CTList@VCStringList@@@@AEAAHH@Z DD imagerel $LN5
	DD	imagerel $LN5+171
	DD	imagerel $unwind$?__alloc@?$CTList@VCStringList@@@@AEAAHH@Z
pdata	ENDS
;	COMDAT rtc$TMZ
rtc$TMZ	SEGMENT
_RTC_Shutdown.rtc$TMZ DQ FLAT:_RTC_Shutdown
rtc$TMZ	ENDS
;	COMDAT rtc$IMZ
rtc$IMZ	SEGMENT
_RTC_InitBase.rtc$IMZ DQ FLAT:_RTC_InitBase
rtc$IMZ	ENDS
;	COMDAT xdata
xdata	SEGMENT
$unwind$?__alloc@?$CTList@VCStringList@@@@AEAAHH@Z DD 022201H
	DD	0700a520eH
xdata	ENDS
;	COMDAT xdata
xdata	SEGMENT
$unwind$?getNext@?$CTList@VCStringList@@@@QEAAPEAVCStringList@@PEAH@Z DD 010b01H
	DD	0700bH
xdata	ENDS
;	COMDAT xdata
xdata	SEGMENT
$unwind$?push_back@?$CTList@VCStringList@@@@QEAA_NPEAVCStringList@@PEAH@Z DD 022801H
	DD	070105214H
xdata	ENDS
;	COMDAT xdata
xdata	SEGMENT
$unwind$?__autoclassinit2@?$CTList@UfileInfo@@@@QEAAX_K@Z DD 010b01H
	DD	0700bH
xdata	ENDS
;	COMDAT xdata
xdata	SEGMENT
$unwind$?__alloc@?$CTList@UfileInfo@@@@AEAAHH@Z DD 022201H
	DD	0700a520eH
xdata	ENDS
;	COMDAT xdata
xdata	SEGMENT
$unwind$?size@?$CTList@UfileInfo@@@@QEAAHXZ DD 010601H
	DD	07006H
xdata	ENDS
;	COMDAT xdata
xdata	SEGMENT
$unwind$?push_back@?$CTList@UfileInfo@@@@QEAA_NPEAUfileInfo@@PEAH@Z DD 022801H
	DD	070105214H
xdata	ENDS
;	COMDAT xdata
xdata	SEGMENT
$unwind$?alloc@?$CTList@UfileInfo@@@@QEAAHHW4E_ALLOC_TYPE@@@Z DD 022701H
	DD	0700f3213H
xdata	ENDS
;	COMDAT xdata
xdata	SEGMENT
$unwind$??0?$CTList@UfileInfo@@@@QEAA@XZ DD 010601H
	DD	07006H
xdata	ENDS
xdata	SEGMENT
$unwind$?filter_stringCompare@@YA_NPEADPEAX1@Z DD 024619H
	DD	07010f217H
	DD	imagerel __GSHandlerCheck_EH
	DD	imagerel $cppxdata$?filter_stringCompare@@YA_NPEADPEAX1@Z
	DD	07aH
$stateUnwindMap$?filter_stringCompare@@YA_NPEADPEAX1@Z DD 0ffffffffH
	DD	imagerel ?dtor$0@?0??filter_stringCompare@@YA_NPEADPEAX1@Z@4HA
$ip2state$?filter_stringCompare@@YA_NPEADPEAX1@Z DD imagerel ?filter_stringCompare@@YA_NPEADPEAX1@Z
	DD	0ffffffffH
	DD	imagerel ?filter_stringCompare@@YA_NPEADPEAX1@Z+140
	DD	00H
	DD	imagerel ?filter_stringCompare@@YA_NPEADPEAX1@Z+199
	DD	0ffffffffH
$unwind$?dtor$0@?0??filter_stringCompare@@YA_NPEADPEAX1@Z@4HA DD 031001H
	DD	0700c4210H
	DD	0500bH
$unwind$?filter_dateTimeCompare@@YA_NPEADPEAX1@Z DD 022801H
	DD	070105214H
$unwind$?IsExistDirectory@CFileUtil@@SA_NPEAD@Z DD 021e01H
	DD	07006520aH
$unwind$?GetFileList@CFileUtil@@SA_NPEAUSTFileList@@PEAUSTFilterData@@@Z DD 033b19H
	DD	0500112H
	DD	0700bH
	DD	imagerel __GSHandlerCheck
	DD	0278H
$unwind$?delDirectory@CFileUtil@@SAHPEAUSTDelInfo@@PEAUSTFilterData@@@Z DD 034719H
	DD	09a0112H
	DD	0700bH
	DD	imagerel __GSHandlerCheck_EH
	DD	imagerel $cppxdata$?delDirectory@CFileUtil@@SAHPEAUSTDelInfo@@PEAUSTFilterData@@@Z
	DD	04caH
$stateUnwindMap$?delDirectory@CFileUtil@@SAHPEAUSTDelInfo@@PEAUSTFilterData@@@Z DD 0ffffffffH
	DD	imagerel ?dtor$0@?0??delDirectory@CFileUtil@@SAHPEAUSTDelInfo@@PEAUSTFilterData@@@Z@4HA
$ip2state$?delDirectory@CFileUtil@@SAHPEAUSTDelInfo@@PEAUSTFilterData@@@Z DD imagerel ?delDirectory@CFileUtil@@SAHPEAUSTDelInfo@@PEAUSTFilterData@@@Z
	DD	0ffffffffH
	DD	imagerel ?delDirectory@CFileUtil@@SAHPEAUSTDelInfo@@PEAUSTFilterData@@@Z+116
	DD	00H
	DD	imagerel ?delDirectory@CFileUtil@@SAHPEAUSTDelInfo@@PEAUSTFilterData@@@Z+165
	DD	0ffffffffH
	DD	imagerel ?delDirectory@CFileUtil@@SAHPEAUSTDelInfo@@PEAUSTFilterData@@@Z+190
	DD	00H
	DD	imagerel ?delDirectory@CFileUtil@@SAHPEAUSTDelInfo@@PEAUSTFilterData@@@Z+245
	DD	0ffffffffH
	DD	imagerel ?delDirectory@CFileUtil@@SAHPEAUSTDelInfo@@PEAUSTFilterData@@@Z+270
	DD	00H
	DD	imagerel ?delDirectory@CFileUtil@@SAHPEAUSTDelInfo@@PEAUSTFilterData@@@Z+312
	DD	0ffffffffH
	DD	imagerel ?delDirectory@CFileUtil@@SAHPEAUSTDelInfo@@PEAUSTFilterData@@@Z+337
	DD	00H
	DD	imagerel ?delDirectory@CFileUtil@@SAHPEAUSTDelInfo@@PEAUSTFilterData@@@Z+1329
	DD	0ffffffffH
$unwind$?dtor$0@?0??delDirectory@CFileUtil@@SAHPEAUSTDelInfo@@PEAUSTFilterData@@@Z@4HA DD 031001H
	DD	0700c4210H
	DD	0500bH
$unwind$?MakeDirectory@CFileUtil@@SA_NPEBD@Z DD 043719H
	DD	035010eH
	DD	060067007H
	DD	imagerel __GSHandlerCheck
	DD	0198H
$unwind$?FileCopy@CFileUtil@@SA_NPEBD0@Z DD 034119H
	DD	040c0118H
	DD	0700bH
	DD	imagerel __GSHandlerCheck
	DD	02058H
$unwind$?IsAbsolutePath@CFileUtil@@SA_NPEBD@Z DD 010601H
	DD	07006H
$unwind$?setDirectory@CFileUtil@@SA_NPEADH@Z DD 022201H
	DD	0700a720eH
$unwind$?changeDirName@CFileUtil@@SA_NPEAD0@Z DD 022301H
	DD	0700b320fH
$unwind$?read@CFileUtil@@SAHPEAD0H@Z DD 022801H
	DD	070105214H
$unwind$?readNalloc@CFileUtil@@SAHPEADPEAPEADPEAH@Z DD 022801H
	DD	070107214H
$unwind$?getNextLine@CFileUtil@@SAHPEAUSTStrInfo@@@Z DD 021e01H
	DD	07006720aH
$unwind$?getFieldList@CFileUtil@@SA_NPEADDPEAVCStringList@@@Z DD 033f19H
	DD	04c0116H
	DD	0700fH
	DD	imagerel __GSHandlerCheck
	DD	0258H
$unwind$?fileToFieldRecord@CFileUtil@@SA_NPEADPEAV?$CTList@VCStringList@@@@D@Z DD 034c19H
	DD	0220117H
	DD	07010H
	DD	imagerel __GSHandlerCheck_EH
	DD	imagerel $cppxdata$?fileToFieldRecord@CFileUtil@@SA_NPEADPEAV?$CTList@VCStringList@@@@D@Z
	DD	010aH
$stateUnwindMap$?fileToFieldRecord@CFileUtil@@SA_NPEADPEAV?$CTList@VCStringList@@@@D@Z DD 0ffffffffH
	DD	imagerel ?dtor$0@?0??fileToFieldRecord@CFileUtil@@SA_NPEADPEAV?$CTList@VCStringList@@@@D@Z@4HA
$ip2state$?fileToFieldRecord@CFileUtil@@SA_NPEADPEAV?$CTList@VCStringList@@@@D@Z DD imagerel ?fileToFieldRecord@CFileUtil@@SA_NPEADPEAV?$CTList@VCStringList@@@@D@Z
	DD	0ffffffffH
	DD	imagerel ?fileToFieldRecord@CFileUtil@@SA_NPEADPEAV?$CTList@VCStringList@@@@D@Z+274
	DD	00H
	DD	imagerel ?fileToFieldRecord@CFileUtil@@SA_NPEADPEAV?$CTList@VCStringList@@@@D@Z+336
	DD	0ffffffffH
$unwind$?dtor$0@?0??fileToFieldRecord@CFileUtil@@SA_NPEADPEAV?$CTList@VCStringList@@@@D@Z@4HA DD 031001H
	DD	0700c4210H
	DD	0500bH
$unwind$?add@CFileUtil@@SA_NPEAD0@Z DD 022301H
	DD	0700b520fH
$unwind$?getReFileName@CFileUtil@@SA_NPEADPEBD1@Z DD 022801H
	DD	070105214H
$unwind$?renameFile@CFileUtil@@SA_NPEBD0@Z DD 022301H
	DD	0700b520fH
$unwind$?getFileSize@CFileUtil@@SAHPEAD@Z DD 021e01H
	DD	07006520aH
$unwind$?tryopen@CFileUtil@@SAPEAU_iobuf@@HPEADPEBDPEAH@Z DD 022b01H
	DD	070145218H
$unwind$?modify@CFileUtil@@SA_NPEADH0@Z DD 022701H
	DD	0700f5213H
$unwind$?getFileSize2@CFileUtil@@SAHPEADHPEAHH@Z DD 022c01H
	DD	070145218H
$unwind$?readLoop@CFileUtil@@SAHPEADHHPEAUSTFileMem@@H@Z DD 022c01H
	DD	070147218H
$unwind$?nextReadLoop@CFileUtil@@SAHPEADHHPEAUSTFileMem@@HH@Z DD 022c01H
	DD	070147218H
$unwind$?nextRead@CFileUtil@@SAHPEAD0HH@Z DD 022d01H
	DD	070155219H
$unwind$?modify@CFileUtil@@SA_NPEADHPEAUSTFileMem@@@Z DD 022701H
	DD	0700f5213H
$unwind$?add@CFileUtil@@SA_NPEADHPEAUSTFileMem@@@Z DD 022701H
	DD	0700f5213H
$unwind$?ehstrstr@CFileUtil@@SAPEADPEBD0@Z DD 022301H
	DD	0700b720fH
$unwind$?appendFileList@CFileUtil@@CA_NPEAV?$CTList@UfileInfo@@@@PEBDD@Z DD 034c19H
	DD	0140117H
	DD	07010H
	DD	imagerel __GSHandlerCheck_EH
	DD	imagerel $cppxdata$?appendFileList@CFileUtil@@CA_NPEAV?$CTList@UfileInfo@@@@PEBDD@Z
	DD	092H
$stateUnwindMap$?appendFileList@CFileUtil@@CA_NPEAV?$CTList@UfileInfo@@@@PEBDD@Z DD 0ffffffffH
	DD	imagerel ?dtor$0@?0??appendFileList@CFileUtil@@CA_NPEAV?$CTList@UfileInfo@@@@PEBDD@Z@4HA
$ip2state$?appendFileList@CFileUtil@@CA_NPEAV?$CTList@UfileInfo@@@@PEBDD@Z DD imagerel ?appendFileList@CFileUtil@@CA_NPEAV?$CTList@UfileInfo@@@@PEBDD@Z
	DD	0ffffffffH
	DD	imagerel ?appendFileList@CFileUtil@@CA_NPEAV?$CTList@UfileInfo@@@@PEBDD@Z+106
	DD	00H
	DD	imagerel ?appendFileList@CFileUtil@@CA_NPEAV?$CTList@UfileInfo@@@@PEBDD@Z+174
	DD	0ffffffffH
$unwind$?dtor$0@?0??appendFileList@CFileUtil@@CA_NPEAV?$CTList@UfileInfo@@@@PEBDD@Z@4HA DD 031001H
	DD	0700c4210H
	DD	0500bH
$unwind$?CheckDirName@@YAXPEAD@Z DD 021e01H
	DD	07006120aH
xdata	ENDS
CONST	SEGMENT
?filter_stringCompare@@YA_NPEADPEAX1@Z$rtcName$0 DB 069H ; filter_stringCompare
	DB	00H
	ORG $+10
?filter_stringCompare@@YA_NPEADPEAX1@Z$rtcVarDesc DD 034H ; filter_stringCompare
	DD	04H
	DQ	FLAT:?filter_stringCompare@@YA_NPEADPEAX1@Z$rtcName$0
	ORG $+48
?filter_stringCompare@@YA_NPEADPEAX1@Z$rtcFrameData DD 01H ; filter_stringCompare
	DD	00H
	DQ	FLAT:?filter_stringCompare@@YA_NPEADPEAX1@Z$rtcVarDesc
$cppxdata$?filter_stringCompare@@YA_NPEADPEAX1@Z DD 019930522H
	DD	01H
	DD	imagerel $stateUnwindMap$?filter_stringCompare@@YA_NPEADPEAX1@Z
	DD	00H
	DD	00H
	DD	03H
	DD	imagerel $ip2state$?filter_stringCompare@@YA_NPEADPEAX1@Z
	DD	068H
	DD	00H
	DD	01H
?GetFileList@CFileUtil@@SA_NPEAUSTFileList@@PEAUSTFilterData@@@Z$rtcName$0 DB 066H ; CFileUtil::GetFileList
	DB	069H
	DB	06cH
	DB	065H
	DB	00H
	ORG $+3
?GetFileList@CFileUtil@@SA_NPEAUSTFileList@@PEAUSTFilterData@@@Z$rtcName$1 DB 066H ; CFileUtil::GetFileList
	DB	06eH
	DB	061H
	DB	06dH
	DB	065H
	DB	00H
	ORG $+2
?GetFileList@CFileUtil@@SA_NPEAUSTFileList@@PEAUSTFilterData@@@Z$rtcName$2 DB 064H ; CFileUtil::GetFileList
	DB	069H
	DB	072H
	DB	04eH
	DB	061H
	DB	06dH
	DB	065H
	DB	00H
?GetFileList@CFileUtil@@SA_NPEAUSTFileList@@PEAUSTFilterData@@@Z$rtcVarDesc DD 01d0H ; CFileUtil::GetFileList
	DD	080H
	DQ	FLAT:?GetFileList@CFileUtil@@SA_NPEAUSTFileList@@PEAUSTFilterData@@@Z$rtcName$2
	DD	0198H
	DD	08H
	DQ	FLAT:?GetFileList@CFileUtil@@SA_NPEAUSTFileList@@PEAUSTFilterData@@@Z$rtcName$1
	DD	040H
	DD	0140H
	DQ	FLAT:?GetFileList@CFileUtil@@SA_NPEAUSTFileList@@PEAUSTFilterData@@@Z$rtcName$0
	ORG $+144
?GetFileList@CFileUtil@@SA_NPEAUSTFileList@@PEAUSTFilterData@@@Z$rtcFrameData DD 03H ; CFileUtil::GetFileList
	DD	00H
	DQ	FLAT:?GetFileList@CFileUtil@@SA_NPEAUSTFileList@@PEAUSTFilterData@@@Z$rtcVarDesc
?delDirectory@CFileUtil@@SAHPEAUSTDelInfo@@PEAUSTFilterData@@@Z$rtcName$0 DB 066H ; CFileUtil::delDirectory
	DB	069H
	DB	06cH
	DB	065H
	DB	00H
	ORG $+3
?delDirectory@CFileUtil@@SAHPEAUSTDelInfo@@PEAUSTFilterData@@@Z$rtcName$1 DB 066H ; CFileUtil::delDirectory
	DB	06eH
	DB	061H
	DB	06dH
	DB	065H
	DB	00H
	ORG $+2
?delDirectory@CFileUtil@@SAHPEAUSTDelInfo@@PEAUSTFilterData@@@Z$rtcName$2 DB 066H ; CFileUtil::delDirectory
	DB	069H
	DB	06cH
	DB	065H
	DB	050H
	DB	061H
	DB	074H
	DB	068H
	DB	00H
	ORG $+3
?delDirectory@CFileUtil@@SAHPEAUSTDelInfo@@PEAUSTFilterData@@@Z$rtcName$3 DB 073H ; CFileUtil::delDirectory
	DB	07aH
	DB	044H
	DB	069H
	DB	072H
	DB	00H
	ORG $+2
?delDirectory@CFileUtil@@SAHPEAUSTDelInfo@@PEAUSTFilterData@@@Z$rtcName$5 DB 063H ; CFileUtil::delDirectory
	DB	046H
	DB	054H
	DB	069H
	DB	06dH
	DB	065H
	DB	00H
	ORG $+1
?fileToFieldRecord@CFileUtil@@SA_NPEADPEAV?$CTList@VCStringList@@@@D@Z$rtcName$3 DB 069H ; CFileUtil::fileToFieldRecord
	DB	064H
	DB	078H
	DB	00H
?delDirectory@CFileUtil@@SAHPEAUSTDelInfo@@PEAUSTFilterData@@@Z$rtcName$4 DB 073H ; CFileUtil::delDirectory
	DB	07aH
	DB	053H
	DB	075H
	DB	062H
	DB	044H
	DB	069H
	DB	072H
	DB	00H
	ORG $+3
?MakeDirectory@CFileUtil@@SA_NPEBD@Z$rtcName$0 DB 074H	; CFileUtil::MakeDirectory
	DB	06dH
	DB	070H
	DB	042H
	DB	075H
	DB	066H
	DB	00H
	ORG $+5
?delDirectory@CFileUtil@@SAHPEAUSTDelInfo@@PEAUSTFilterData@@@Z$rtcName$6 DB 073H ; CFileUtil::delDirectory
	DB	074H
	DB	053H
	DB	075H
	DB	062H
	DB	044H
	DB	069H
	DB	072H
	DB	00H
	ORG $+7
?delDirectory@CFileUtil@@SAHPEAUSTDelInfo@@PEAUSTFilterData@@@Z$rtcFrameData DD 07H ; CFileUtil::delDirectory
	DD	00H
	DQ	FLAT:?delDirectory@CFileUtil@@SAHPEAUSTDelInfo@@PEAUSTFilterData@@@Z$rtcVarDesc
$cppxdata$?delDirectory@CFileUtil@@SAHPEAUSTDelInfo@@PEAUSTFilterData@@@Z DD 019930522H
	DD	01H
	DD	imagerel $stateUnwindMap$?delDirectory@CFileUtil@@SAHPEAUSTDelInfo@@PEAUSTFilterData@@@Z
	DD	00H
	DD	00H
	DD	09H
	DD	imagerel $ip2state$?delDirectory@CFileUtil@@SAHPEAUSTDelInfo@@PEAUSTFilterData@@@Z
	DD	04b8H
	DD	00H
	DD	01H
?delDirectory@CFileUtil@@SAHPEAUSTDelInfo@@PEAUSTFilterData@@@Z$rtcVarDesc DD 0458H ; CFileUtil::delDirectory
	DD	018H
	DQ	FLAT:?delDirectory@CFileUtil@@SAHPEAUSTDelInfo@@PEAUSTFilterData@@@Z$rtcName$6
	DD	0438H
	DD	08H
	DQ	FLAT:?delDirectory@CFileUtil@@SAHPEAUSTDelInfo@@PEAUSTFilterData@@@Z$rtcName$5
	DD	03a0H
	DD	080H
	DQ	FLAT:?delDirectory@CFileUtil@@SAHPEAUSTDelInfo@@PEAUSTFilterData@@@Z$rtcName$4
	DD	0300H
	DD	080H
	DQ	FLAT:?delDirectory@CFileUtil@@SAHPEAUSTDelInfo@@PEAUSTFilterData@@@Z$rtcName$3
	DD	01e0H
	DD	0100H
	DQ	FLAT:?delDirectory@CFileUtil@@SAHPEAUSTDelInfo@@PEAUSTFilterData@@@Z$rtcName$2
	DD	01b8H
	DD	08H
	DQ	FLAT:?delDirectory@CFileUtil@@SAHPEAUSTDelInfo@@PEAUSTFilterData@@@Z$rtcName$1
	DD	060H
	DD	0140H
	DQ	FLAT:?delDirectory@CFileUtil@@SAHPEAUSTDelInfo@@PEAUSTFilterData@@@Z$rtcName$0
	ORG $+336
?MakeDirectory@CFileUtil@@SA_NPEBD@Z$rtcName$1 DB 073H	; CFileUtil::MakeDirectory
	DB	07aH
	DB	054H
	DB	06dH
	DB	070H
	DB	00H
	ORG $+2
?MakeDirectory@CFileUtil@@SA_NPEBD@Z$rtcFrameData DD 02H ; CFileUtil::MakeDirectory
	DD	00H
	DQ	FLAT:?MakeDirectory@CFileUtil@@SA_NPEBD@Z$rtcVarDesc
?FileCopy@CFileUtil@@SA_NPEBD0@Z$rtcName$0 DB 073H	; CFileUtil::FileCopy
	DB	07aH
	DB	042H
	DB	075H
	DB	066H
	DB	00H
	ORG $+2
?MakeDirectory@CFileUtil@@SA_NPEBD@Z$rtcVarDesc DD 0168H ; CFileUtil::MakeDirectory
	DD	0aH
	DQ	FLAT:?MakeDirectory@CFileUtil@@SA_NPEBD@Z$rtcName$1
	DD	040H
	DD	0100H
	DQ	FLAT:?MakeDirectory@CFileUtil@@SA_NPEBD@Z$rtcName$0
	ORG $+96
?FileCopy@CFileUtil@@SA_NPEBD0@Z$rtcVarDesc DD 030H	; CFileUtil::FileCopy
	DD	02000H
	DQ	FLAT:?FileCopy@CFileUtil@@SA_NPEBD0@Z$rtcName$0
	ORG $+48
?FileCopy@CFileUtil@@SA_NPEBD0@Z$rtcFrameData DD 01H	; CFileUtil::FileCopy
	DD	00H
	DQ	FLAT:?FileCopy@CFileUtil@@SA_NPEBD0@Z$rtcVarDesc
?getFieldList@CFileUtil@@SA_NPEADDPEAVCStringList@@@Z$rtcName$0 DB 077H ; CFileUtil::getFieldList
	DB	06fH
	DB	072H
	DB	064H
	DB	00H
	ORG $+3
?getFieldList@CFileUtil@@SA_NPEADDPEAVCStringList@@@Z$rtcFrameData DD 01H ; CFileUtil::getFieldList
	DD	00H
	DQ	FLAT:?getFieldList@CFileUtil@@SA_NPEADDPEAVCStringList@@@Z$rtcVarDesc
?fileToFieldRecord@CFileUtil@@SA_NPEADPEAV?$CTList@VCStringList@@@@D@Z$rtcName$2 DB 073H ; CFileUtil::fileToFieldRecord
	DB	074H
	DB	049H
	DB	06eH
	DB	066H
	DB	06fH
	DB	00H
	ORG $+1
?getFieldList@CFileUtil@@SA_NPEADDPEAVCStringList@@@Z$rtcVarDesc DD 040H ; CFileUtil::getFieldList
	DD	0200H
	DQ	FLAT:?getFieldList@CFileUtil@@SA_NPEADDPEAVCStringList@@@Z$rtcName$0
	ORG $+48
?fileToFieldRecord@CFileUtil@@SA_NPEADPEAV?$CTList@VCStringList@@@@D@Z$rtcName$0 DB 070H ; CFileUtil::fileToFieldRecord
	DB	046H
	DB	069H
	DB	06cH
	DB	065H
	DB	042H
	DB	075H
	DB	066H
	DB	00H
	ORG $+7
?fileToFieldRecord@CFileUtil@@SA_NPEADPEAV?$CTList@VCStringList@@@@D@Z$rtcName$1 DB 066H ; CFileUtil::fileToFieldRecord
	DB	069H
	DB	06cH
	DB	065H
	DB	053H
	DB	069H
	DB	07aH
	DB	065H
	DB	00H
	ORG $+7
?fileToFieldRecord@CFileUtil@@SA_NPEADPEAV?$CTList@VCStringList@@@@D@Z$rtcVarDesc DD 0b4H ; CFileUtil::fileToFieldRecord
	DD	04H
	DQ	FLAT:?fileToFieldRecord@CFileUtil@@SA_NPEADPEAV?$CTList@VCStringList@@@@D@Z$rtcName$3
	DD	088H
	DD	018H
	DQ	FLAT:?fileToFieldRecord@CFileUtil@@SA_NPEADPEAV?$CTList@VCStringList@@@@D@Z$rtcName$2
	DD	054H
	DD	04H
	DQ	FLAT:?fileToFieldRecord@CFileUtil@@SA_NPEADPEAV?$CTList@VCStringList@@@@D@Z$rtcName$1
	DD	038H
	DD	08H
	DQ	FLAT:?fileToFieldRecord@CFileUtil@@SA_NPEADPEAV?$CTList@VCStringList@@@@D@Z$rtcName$0
	ORG $+192
?fileToFieldRecord@CFileUtil@@SA_NPEADPEAV?$CTList@VCStringList@@@@D@Z$rtcFrameData DD 04H ; CFileUtil::fileToFieldRecord
	DD	00H
	DQ	FLAT:?fileToFieldRecord@CFileUtil@@SA_NPEADPEAV?$CTList@VCStringList@@@@D@Z$rtcVarDesc
$cppxdata$?fileToFieldRecord@CFileUtil@@SA_NPEADPEAV?$CTList@VCStringList@@@@D@Z DD 019930522H
	DD	01H
	DD	imagerel $stateUnwindMap$?fileToFieldRecord@CFileUtil@@SA_NPEADPEAV?$CTList@VCStringList@@@@D@Z
	DD	00H
	DD	00H
	DD	03H
	DD	imagerel $ip2state$?fileToFieldRecord@CFileUtil@@SA_NPEADPEAV?$CTList@VCStringList@@@@D@Z
	DD	0f0H
	DD	00H
	DD	01H
?appendFileList@CFileUtil@@CA_NPEAV?$CTList@UfileInfo@@@@PEBDD@Z$rtcName$0 DB 06eH ; CFileUtil::appendFileList
	DB	049H
	DB	064H
	DB	078H
	DB	00H
	ORG $+3
?appendFileList@CFileUtil@@CA_NPEAV?$CTList@UfileInfo@@@@PEBDD@Z$rtcVarDesc DD 044H ; CFileUtil::appendFileList
	DD	04H
	DQ	FLAT:?appendFileList@CFileUtil@@CA_NPEAV?$CTList@UfileInfo@@@@PEBDD@Z$rtcName$0
	ORG $+48
?appendFileList@CFileUtil@@CA_NPEAV?$CTList@UfileInfo@@@@PEBDD@Z$rtcFrameData DD 01H ; CFileUtil::appendFileList
	DD	00H
	DQ	FLAT:?appendFileList@CFileUtil@@CA_NPEAV?$CTList@UfileInfo@@@@PEBDD@Z$rtcVarDesc
$cppxdata$?appendFileList@CFileUtil@@CA_NPEAV?$CTList@UfileInfo@@@@PEBDD@Z DD 019930522H
	DD	01H
	DD	imagerel $stateUnwindMap$?appendFileList@CFileUtil@@CA_NPEAV?$CTList@UfileInfo@@@@PEBDD@Z
	DD	00H
	DD	00H
	DD	03H
	DD	imagerel $ip2state$?appendFileList@CFileUtil@@CA_NPEAV?$CTList@UfileInfo@@@@PEBDD@Z
	DD	080H
	DD	00H
	DD	01H
CONST	ENDS
;	COMDAT xdata
xdata	SEGMENT
$unwind$??_GCStringList@@QEAAPEAXI@Z DD 022201H
	DD	0700a320eH
xdata	ENDS
;	COMDAT xdata
xdata	SEGMENT
$unwind$?__autoclassinit2@CStringList@@QEAAX_K@Z DD 010b01H
	DD	0700bH
xdata	ENDS
;	COMDAT xdata
xdata	SEGMENT
$unwind$?__getNext@CStringList@@AEAAPEAVCmString@@PEAH@Z DD 010b01H
	DD	0700bH
xdata	ENDS
;	COMDAT xdata
xdata	SEGMENT
$unwind$?getNext@CStringList@@QEAAPEAVCmString@@PEAH@Z DD 022301H
	DD	0700b320fH
xdata	ENDS
;	COMDAT xdata
xdata	SEGMENT
$unwind$?push_back@CStringList@@QEAAPEAVCmString@@PEAD@Z DD 022301H
	DD	0700b320fH
xdata	ENDS
;	COMDAT xdata
xdata	SEGMENT
$unwind$?alloc@CStringList@@QEAAHH@Z DD 022201H
	DD	0700a320eH
xdata	ENDS
;	COMDAT xdata
xdata	SEGMENT
$unwind$?delBuf@CMemManager@@QEAAXPEADH@Z DD 022801H
	DD	070105214H
xdata	ENDS
;	COMDAT xdata
xdata	SEGMENT
$unwind$?newBuf@CMemManager@@QEAAPEADHPEAH@Z DD 022701H
	DD	0700f3213H
xdata	ENDS
;	COMDAT xdata
xdata	SEGMENT
$unwind$?newBuf@CMemManager@@QEAAPEADH@Z DD 022201H
	DD	0700a520eH
xdata	ENDS
;	COMDAT xdata
xdata	SEGMENT
$unwind$?getIndex@@YAHH@Z DD 021c01H
	DD	070059209H
xdata	ENDS
;	COMDAT CONST
CONST	SEGMENT
?getIndex@@YAHH@Z$rtcName$0 DB 024H			; getIndex
	DB	053H
	DB	031H
	DB	00H
	ORG $+12
?getIndex@@YAHH@Z$rtcVarDesc DD 038H			; getIndex
	DD	08H
	DQ	FLAT:?getIndex@@YAHH@Z$rtcName$0
	ORG $+48
?getIndex@@YAHH@Z$rtcFrameData DD 01H			; getIndex
	DD	00H
	DQ	FLAT:?getIndex@@YAHH@Z$rtcVarDesc
CONST	ENDS
;	COMDAT xdata
xdata	SEGMENT
$unwind$?jISDIR@@YA_NPEAU_WIN32_FIND_DATAA@@@Z DD 021e01H
	DD	07006120aH
xdata	ENDS
;	COMDAT xdata
xdata	SEGMENT
$unwind$?jISREG@@YA_NPEAU_WIN32_FIND_DATAA@@@Z DD 021e01H
	DD	07006120aH
xdata	ENDS
;	COMDAT xdata
xdata	SEGMENT
$unwind$?com_getFileName@@YAXPEAPEADPEAU_WIN32_FIND_DATAA@@@Z DD 010b01H
	DD	0700bH
xdata	ENDS
;	COMDAT xdata
xdata	SEGMENT
$unwind$?com_nextFile@@YA_NPEAXPEAU_WIN32_FIND_DATAA@@@Z DD 022301H
	DD	0700b520fH
xdata	ENDS
;	COMDAT xdata
xdata	SEGMENT
$unwind$?com_findFirstFile@@YAPEAXPEBDPEAU_WIN32_FIND_DATAA@@@Z DD 022301H
	DD	0700b320fH
xdata	ENDS
;	COMDAT xdata
xdata	SEGMENT
$unwind$?com_isDirectory@@YA_NPEAD@Z DD 021e01H
	DD	07006520aH
xdata	ENDS
;	COMDAT xdata
xdata	SEGMENT
$unwind$?com_isFile@@YA_NPEBD@Z DD 021e01H
	DD	07006520aH
xdata	ENDS
;	COMDAT xdata
xdata	SEGMENT
$unwind$?com_isInvalid@@YA_NPEBD@Z DD 021e01H
	DD	07006320aH
xdata	ENDS
;	COMDAT xdata
xdata	SEGMENT
$unwind$?com_mkdir@@YA_NPEBD@Z DD 021e01H
	DD	07006520aH
xdata	ENDS
;	COMDAT xdata
xdata	SEGMENT
$unwind$?_tcsrchr@@YAPEADPEADI@Z DD 022201H
	DD	0700a320eH
xdata	ENDS
;	COMDAT xdata
xdata	SEGMENT
$unwind$?_tcschr@@YAPEADPEADI@Z DD 022201H
	DD	0700a320eH
xdata	ENDS
;	COMDAT xdata
xdata	SEGMENT
$unwind$_tcscmp DD 022301H
	DD	0700b320fH
xdata	ENDS
;	COMDAT xdata
xdata	SEGMENT
$unwind$_tcsrchr DD 022201H
	DD	0700a320eH
xdata	ENDS
;	COMDAT xdata
xdata	SEGMENT
$unwind$_tcsncpy DD 022801H
	DD	070103214H
xdata	ENDS
;	COMDAT xdata
xdata	SEGMENT
$unwind$_tcschr DD 022201H
	DD	0700a320eH
xdata	ENDS
;	COMDAT xdata
xdata	SEGMENT
$unwind$?strchr@@YAPEADQEADH@Z DD 022201H
	DD	0700a320eH
xdata	ENDS
;	COMDAT xdata
xdata	SEGMENT
$unwind$sprintf DD 023c19H
	DD	07015b219H
	DD	imagerel __GSHandlerCheck
	DD	050H
xdata	ENDS
;	COMDAT CONST
CONST	SEGMENT
sprintf$rtcName$0 DB 05fH
	DB	041H
	DB	072H
	DB	067H
	DB	04cH
	DB	069H
	DB	073H
	DB	074H
	DB	00H
	ORG $+7
sprintf$rtcVarDesc DD 038H
	DD	08H
	DQ	FLAT:sprintf$rtcName$0
	ORG $+48
sprintf$rtcFrameData DD 01H
	DD	00H
	DQ	FLAT:sprintf$rtcVarDesc
CONST	ENDS
;	COMDAT xdata
xdata	SEGMENT
$unwind$_vsprintf_l DD 022d01H
	DD	070155219H
xdata	ENDS
;	COMDAT xdata
xdata	SEGMENT
$unwind$_vsnprintf_l DD 022d01H
	DD	070157219H
xdata	ENDS
;	COMDAT xdata
xdata	SEGMENT
$unwind$printf DD 023c19H
	DD	07015b219H
	DD	imagerel __GSHandlerCheck
	DD	050H
xdata	ENDS
;	COMDAT CONST
CONST	SEGMENT
printf$rtcName$0 DB 05fH
	DB	041H
	DB	072H
	DB	067H
	DB	04cH
	DB	069H
	DB	073H
	DB	074H
	DB	00H
	ORG $+7
printf$rtcVarDesc DD 038H
	DD	08H
	DQ	FLAT:printf$rtcName$0
	ORG $+48
printf$rtcFrameData DD 01H
	DD	00H
	DQ	FLAT:printf$rtcVarDesc
CONST	ENDS
;	COMDAT xdata
xdata	SEGMENT
$unwind$??$__vcrt_va_start_verify_argument_type@QEBD@@YAXXZ DD 010201H
	DD	07002H
xdata	ENDS
;	COMDAT xdata
xdata	SEGMENT
$unwind$_vfprintf_l DD 022d01H
	DD	070155219H
xdata	ENDS
;	COMDAT xdata
xdata	SEGMENT
$unwind$__local_stdio_printf_options DD 010201H
	DD	07002H
xdata	ENDS
; Function compile flags: /Odtp /RTCsu
; File e:\infinia-library-3.0\com\include\comtlist.h
;	COMDAT ?__alloc@?$CTList@VCStringList@@@@AEAAHH@Z
_TEXT	SEGMENT
pList$ = 32
this$ = 64
nMaxCount$ = 72
?__alloc@?$CTList@VCStringList@@@@AEAAHH@Z PROC		; CTList<CStringList>::__alloc, COMDAT

; 402  : {

$LN5:
  00000	89 54 24 10	 mov	 DWORD PTR [rsp+16], edx
  00004	48 89 4c 24 08	 mov	 QWORD PTR [rsp+8], rcx
  00009	57		 push	 rdi
  0000a	48 83 ec 30	 sub	 rsp, 48			; 00000030H
  0000e	48 8b fc	 mov	 rdi, rsp
  00011	b9 0c 00 00 00	 mov	 ecx, 12
  00016	b8 cc cc cc cc	 mov	 eax, -858993460		; ccccccccH
  0001b	f3 ab		 rep stosd
  0001d	48 8b 4c 24 40	 mov	 rcx, QWORD PTR [rsp+64]

; 403  : 	T** pList = (T**)calloc(nMaxCount, sizeof(T*));

  00022	48 63 44 24 48	 movsxd	 rax, DWORD PTR nMaxCount$[rsp]
  00027	ba 08 00 00 00	 mov	 edx, 8
  0002c	48 8b c8	 mov	 rcx, rax
  0002f	ff 15 00 00 00
	00		 call	 QWORD PTR __imp_calloc
  00035	48 89 44 24 20	 mov	 QWORD PTR pList$[rsp], rax

; 404  : 	if (!pList) {

  0003a	48 83 7c 24 20
	00		 cmp	 QWORD PTR pList$[rsp], 0
  00040	75 17		 jne	 SHORT $LN2@alloc

; 405  : 		_stprintf(g_szMessage, "pList calloc is NULL");

  00042	48 8d 15 00 00
	00 00		 lea	 rdx, OFFSET FLAT:$SG87087
  00049	48 8d 0d 00 00
	00 00		 lea	 rcx, OFFSET FLAT:?g_szMessage@@3PADA ; g_szMessage
  00050	e8 00 00 00 00	 call	 sprintf

; 406  : 		return 0;

  00055	33 c0		 xor	 eax, eax
  00057	eb 4c		 jmp	 SHORT $LN1@alloc
$LN2@alloc:

; 407  : 	}
; 408  : 	//_stprintf(g_szMessage, _T("CTList::__alloc list m_nMaxCount[%d]"), nMaxCount);
; 409  : 	if (m_pArray) {

  00059	48 8b 44 24 40	 mov	 rax, QWORD PTR this$[rsp]
  0005e	48 83 38 00	 cmp	 QWORD PTR [rax], 0
  00062	74 30		 je	 SHORT $LN3@alloc

; 410  : 		memcpy(pList, m_pArray, m_nMax * sizeof(T*));

  00064	48 8b 44 24 40	 mov	 rax, QWORD PTR this$[rsp]
  00069	48 63 40 14	 movsxd	 rax, DWORD PTR [rax+20]
  0006d	48 c1 e0 03	 shl	 rax, 3
  00071	4c 8b c0	 mov	 r8, rax
  00074	48 8b 44 24 40	 mov	 rax, QWORD PTR this$[rsp]
  00079	48 8b 10	 mov	 rdx, QWORD PTR [rax]
  0007c	48 8b 4c 24 20	 mov	 rcx, QWORD PTR pList$[rsp]
  00081	e8 00 00 00 00	 call	 memcpy

; 411  : 		free(m_pArray);

  00086	48 8b 44 24 40	 mov	 rax, QWORD PTR this$[rsp]
  0008b	48 8b 08	 mov	 rcx, QWORD PTR [rax]
  0008e	ff 15 00 00 00
	00		 call	 QWORD PTR __imp_free
$LN3@alloc:

; 412  : 	}
; 413  : 	m_pArray = pList;

  00094	48 8b 44 24 40	 mov	 rax, QWORD PTR this$[rsp]
  00099	48 8b 4c 24 20	 mov	 rcx, QWORD PTR pList$[rsp]
  0009e	48 89 08	 mov	 QWORD PTR [rax], rcx

; 414  : 	return nMaxCount;

  000a1	8b 44 24 48	 mov	 eax, DWORD PTR nMaxCount$[rsp]
$LN1@alloc:

; 415  : }

  000a5	48 83 c4 30	 add	 rsp, 48			; 00000030H
  000a9	5f		 pop	 rdi
  000aa	c3		 ret	 0
?__alloc@?$CTList@VCStringList@@@@AEAAHH@Z ENDP		; CTList<CStringList>::__alloc
_TEXT	ENDS
; Function compile flags: /Odtp /RTCsu
; File e:\infinia-library-3.0\com\include\comtlist.h
;	COMDAT ?getNext@?$CTList@VCStringList@@@@QEAAPEAVCStringList@@PEAH@Z
_TEXT	SEGMENT
this$ = 16
pIdx$ = 24
?getNext@?$CTList@VCStringList@@@@QEAAPEAVCStringList@@PEAH@Z PROC ; CTList<CStringList>::getNext, COMDAT

; 334  : 	inline T* getNext(int *pIdx) {

$LN7:
  00000	48 89 54 24 10	 mov	 QWORD PTR [rsp+16], rdx
  00005	48 89 4c 24 08	 mov	 QWORD PTR [rsp+8], rcx
  0000a	57		 push	 rdi

; 335  : 		for (*pIdx; *pIdx < m_nMax; (*pIdx)++) {

  0000b	eb 10		 jmp	 SHORT $LN4@getNext
$LN2@getNext:
  0000d	48 8b 44 24 18	 mov	 rax, QWORD PTR pIdx$[rsp]
  00012	8b 00		 mov	 eax, DWORD PTR [rax]
  00014	ff c0		 inc	 eax
  00016	48 8b 4c 24 18	 mov	 rcx, QWORD PTR pIdx$[rsp]
  0001b	89 01		 mov	 DWORD PTR [rcx], eax
$LN4@getNext:
  0001d	48 8b 44 24 18	 mov	 rax, QWORD PTR pIdx$[rsp]
  00022	48 8b 4c 24 10	 mov	 rcx, QWORD PTR this$[rsp]
  00027	8b 49 14	 mov	 ecx, DWORD PTR [rcx+20]
  0002a	39 08		 cmp	 DWORD PTR [rax], ecx
  0002c	7d 2f		 jge	 SHORT $LN3@getNext

; 336  : 			if (m_pArray[*pIdx]) { return m_pArray[*pIdx]; }

  0002e	48 8b 44 24 18	 mov	 rax, QWORD PTR pIdx$[rsp]
  00033	48 63 00	 movsxd	 rax, DWORD PTR [rax]
  00036	48 8b 4c 24 10	 mov	 rcx, QWORD PTR this$[rsp]
  0003b	48 8b 09	 mov	 rcx, QWORD PTR [rcx]
  0003e	48 83 3c c1 00	 cmp	 QWORD PTR [rcx+rax*8], 0
  00043	74 16		 je	 SHORT $LN5@getNext
  00045	48 8b 44 24 18	 mov	 rax, QWORD PTR pIdx$[rsp]
  0004a	48 63 00	 movsxd	 rax, DWORD PTR [rax]
  0004d	48 8b 4c 24 10	 mov	 rcx, QWORD PTR this$[rsp]
  00052	48 8b 09	 mov	 rcx, QWORD PTR [rcx]
  00055	48 8b 04 c1	 mov	 rax, QWORD PTR [rcx+rax*8]
  00059	eb 04		 jmp	 SHORT $LN1@getNext
$LN5@getNext:

; 337  : 		}

  0005b	eb b0		 jmp	 SHORT $LN2@getNext
$LN3@getNext:

; 338  : 		return NULL;

  0005d	33 c0		 xor	 eax, eax
$LN1@getNext:

; 339  : 	}

  0005f	5f		 pop	 rdi
  00060	c3		 ret	 0
?getNext@?$CTList@VCStringList@@@@QEAAPEAVCStringList@@PEAH@Z ENDP ; CTList<CStringList>::getNext
_TEXT	ENDS
; Function compile flags: /Odtp /RTCsu
; File e:\infinia-library-3.0\com\include\comtlist.h
;	COMDAT ?push_back@?$CTList@VCStringList@@@@QEAA_NPEAVCStringList@@PEAH@Z
_TEXT	SEGMENT
nIdx$ = 32
i$ = 36
this$ = 64
Obj$ = 72
pIdx$ = 80
?push_back@?$CTList@VCStringList@@@@QEAA_NPEAVCStringList@@PEAH@Z PROC ; CTList<CStringList>::push_back, COMDAT

; 472  : {

$LN15:
  00000	4c 89 44 24 18	 mov	 QWORD PTR [rsp+24], r8
  00005	48 89 54 24 10	 mov	 QWORD PTR [rsp+16], rdx
  0000a	48 89 4c 24 08	 mov	 QWORD PTR [rsp+8], rcx
  0000f	57		 push	 rdi
  00010	48 83 ec 30	 sub	 rsp, 48			; 00000030H
  00014	48 8b fc	 mov	 rdi, rsp
  00017	b9 0c 00 00 00	 mov	 ecx, 12
  0001c	b8 cc cc cc cc	 mov	 eax, -858993460		; ccccccccH
  00021	f3 ab		 rep stosd
  00023	48 8b 4c 24 40	 mov	 rcx, QWORD PTR [rsp+64]

; 473  : 	int nIdx, i;
; 474  : 
; 475  : 	if (m_nUse >= m_nMax) {

  00028	48 8b 44 24 40	 mov	 rax, QWORD PTR this$[rsp]
  0002d	48 8b 4c 24 40	 mov	 rcx, QWORD PTR this$[rsp]
  00032	8b 49 14	 mov	 ecx, DWORD PTR [rcx+20]
  00035	39 48 08	 cmp	 DWORD PTR [rax+8], ecx
  00038	7c 4b		 jl	 SHORT $LN5@push_back

; 476  : 		if (!__alloc(m_nMax + TLIST_ADD_SIZE)) return false;

  0003a	48 8b 44 24 40	 mov	 rax, QWORD PTR this$[rsp]
  0003f	8b 40 14	 mov	 eax, DWORD PTR [rax+20]
  00042	83 c0 40	 add	 eax, 64			; 00000040H
  00045	8b d0		 mov	 edx, eax
  00047	48 8b 4c 24 40	 mov	 rcx, QWORD PTR this$[rsp]
  0004c	e8 00 00 00 00	 call	 ?__alloc@?$CTList@VCStringList@@@@AEAAHH@Z ; CTList<CStringList>::__alloc
  00051	85 c0		 test	 eax, eax
  00053	75 07		 jne	 SHORT $LN6@push_back
  00055	32 c0		 xor	 al, al
  00057	e9 0c 01 00 00	 jmp	 $LN1@push_back
$LN6@push_back:

; 477  : 		nIdx = m_nMax;

  0005c	48 8b 44 24 40	 mov	 rax, QWORD PTR this$[rsp]
  00061	8b 40 14	 mov	 eax, DWORD PTR [rax+20]
  00064	89 44 24 20	 mov	 DWORD PTR nIdx$[rsp], eax

; 478  : 		m_nMax += TLIST_ADD_SIZE;

  00068	48 8b 44 24 40	 mov	 rax, QWORD PTR this$[rsp]
  0006d	8b 40 14	 mov	 eax, DWORD PTR [rax+20]
  00070	83 c0 40	 add	 eax, 64			; 00000040H
  00073	48 8b 4c 24 40	 mov	 rcx, QWORD PTR this$[rsp]
  00078	89 41 14	 mov	 DWORD PTR [rcx+20], eax

; 479  : 		goto ADD_SUCCESS;

  0007b	e9 99 00 00 00	 jmp	 $LN7@push_back
  00080	e9 94 00 00 00	 jmp	 $ADD_SUCCESS$16
$LN5@push_back:

; 480  : 	}
; 481  : 
; 482  : 	if (!m_pArray[m_nLast]) { nIdx = m_nLast;  goto ADD_SUCCESS; }

  00085	48 8b 44 24 40	 mov	 rax, QWORD PTR this$[rsp]
  0008a	48 63 40 0c	 movsxd	 rax, DWORD PTR [rax+12]
  0008e	48 8b 4c 24 40	 mov	 rcx, QWORD PTR this$[rsp]
  00093	48 8b 09	 mov	 rcx, QWORD PTR [rcx]
  00096	48 83 3c c1 00	 cmp	 QWORD PTR [rcx+rax*8], 0
  0009b	75 10		 jne	 SHORT $LN8@push_back
  0009d	48 8b 44 24 40	 mov	 rax, QWORD PTR this$[rsp]
  000a2	8b 40 0c	 mov	 eax, DWORD PTR [rax+12]
  000a5	89 44 24 20	 mov	 DWORD PTR nIdx$[rsp], eax
  000a9	eb 6e		 jmp	 SHORT $LN9@push_back
  000ab	eb 6c		 jmp	 SHORT $ADD_SUCCESS$16
$LN8@push_back:

; 483  : 
; 484  : 	nIdx = m_nLast;

  000ad	48 8b 44 24 40	 mov	 rax, QWORD PTR this$[rsp]
  000b2	8b 40 0c	 mov	 eax, DWORD PTR [rax+12]
  000b5	89 44 24 20	 mov	 DWORD PTR nIdx$[rsp], eax

; 485  : 	for (i = 0; i < m_nMax; i++)

  000b9	c7 44 24 24 00
	00 00 00	 mov	 DWORD PTR i$[rsp], 0
  000c1	eb 0a		 jmp	 SHORT $LN4@push_back
$LN2@push_back:
  000c3	8b 44 24 24	 mov	 eax, DWORD PTR i$[rsp]
  000c7	ff c0		 inc	 eax
  000c9	89 44 24 24	 mov	 DWORD PTR i$[rsp], eax
$LN4@push_back:
  000cd	48 8b 44 24 40	 mov	 rax, QWORD PTR this$[rsp]
  000d2	8b 40 14	 mov	 eax, DWORD PTR [rax+20]
  000d5	39 44 24 24	 cmp	 DWORD PTR i$[rsp], eax
  000d9	7d 3a		 jge	 SHORT $LN3@push_back

; 486  : 	{
; 487  : 		if (nIdx >= m_nMax) nIdx = 0;

  000db	48 8b 44 24 40	 mov	 rax, QWORD PTR this$[rsp]
  000e0	8b 40 14	 mov	 eax, DWORD PTR [rax+20]
  000e3	39 44 24 20	 cmp	 DWORD PTR nIdx$[rsp], eax
  000e7	7c 08		 jl	 SHORT $LN10@push_back
  000e9	c7 44 24 20 00
	00 00 00	 mov	 DWORD PTR nIdx$[rsp], 0
$LN10@push_back:

; 488  : 		if (!m_pArray[nIdx]) {

  000f1	48 63 44 24 20	 movsxd	 rax, DWORD PTR nIdx$[rsp]
  000f6	48 8b 4c 24 40	 mov	 rcx, QWORD PTR this$[rsp]
  000fb	48 8b 09	 mov	 rcx, QWORD PTR [rcx]
  000fe	48 83 3c c1 00	 cmp	 QWORD PTR [rcx+rax*8], 0
  00103	75 04		 jne	 SHORT $LN11@push_back

; 489  : 			goto ADD_SUCCESS;

  00105	eb 12		 jmp	 SHORT $LN12@push_back
  00107	eb 10		 jmp	 SHORT $ADD_SUCCESS$16
$LN11@push_back:

; 490  : 		}
; 491  : 		nIdx++;

  00109	8b 44 24 20	 mov	 eax, DWORD PTR nIdx$[rsp]
  0010d	ff c0		 inc	 eax
  0010f	89 44 24 20	 mov	 DWORD PTR nIdx$[rsp], eax

; 492  : 	}

  00113	eb ae		 jmp	 SHORT $LN2@push_back
$LN3@push_back:

; 493  : 	//_stprintf(m_szMessage, _T("add FAIL! m_nLast[%d] m_nCurCount[%d] m_nMax[%d]"), m_nLast, m_nUse, m_nMax);
; 494  : 	return false;

  00115	32 c0		 xor	 al, al
  00117	eb 4f		 jmp	 SHORT $LN1@push_back
$LN7@push_back:
$LN9@push_back:
$LN12@push_back:
$ADD_SUCCESS$16:

; 495  : 
; 496  : ADD_SUCCESS:
; 497  : 	m_nUse++;

  00119	48 8b 44 24 40	 mov	 rax, QWORD PTR this$[rsp]
  0011e	8b 40 08	 mov	 eax, DWORD PTR [rax+8]
  00121	ff c0		 inc	 eax
  00123	48 8b 4c 24 40	 mov	 rcx, QWORD PTR this$[rsp]
  00128	89 41 08	 mov	 DWORD PTR [rcx+8], eax

; 498  : 	m_pArray[nIdx] = Obj;

  0012b	48 63 44 24 20	 movsxd	 rax, DWORD PTR nIdx$[rsp]
  00130	48 8b 4c 24 40	 mov	 rcx, QWORD PTR this$[rsp]
  00135	48 8b 09	 mov	 rcx, QWORD PTR [rcx]
  00138	48 8b 54 24 48	 mov	 rdx, QWORD PTR Obj$[rsp]
  0013d	48 89 14 c1	 mov	 QWORD PTR [rcx+rax*8], rdx

; 499  : 	m_nLast++;

  00141	48 8b 44 24 40	 mov	 rax, QWORD PTR this$[rsp]
  00146	8b 40 0c	 mov	 eax, DWORD PTR [rax+12]
  00149	ff c0		 inc	 eax
  0014b	48 8b 4c 24 40	 mov	 rcx, QWORD PTR this$[rsp]
  00150	89 41 0c	 mov	 DWORD PTR [rcx+12], eax

; 500  : 	//_stprintf(g_szMessage, _T("CMemList::add i[%d] m_nLast[%d] m_nCurCount[%d]"), nIdx, m_nLast, m_nUse);
; 501  : 	if (pIdx) *pIdx = nIdx;

  00153	48 83 7c 24 50
	00		 cmp	 QWORD PTR pIdx$[rsp], 0
  00159	74 0b		 je	 SHORT $LN13@push_back
  0015b	48 8b 44 24 50	 mov	 rax, QWORD PTR pIdx$[rsp]
  00160	8b 4c 24 20	 mov	 ecx, DWORD PTR nIdx$[rsp]
  00164	89 08		 mov	 DWORD PTR [rax], ecx
$LN13@push_back:

; 502  : 	return true;

  00166	b0 01		 mov	 al, 1
$LN1@push_back:

; 503  : }

  00168	48 83 c4 30	 add	 rsp, 48			; 00000030H
  0016c	5f		 pop	 rdi
  0016d	c3		 ret	 0
?push_back@?$CTList@VCStringList@@@@QEAA_NPEAVCStringList@@PEAH@Z ENDP ; CTList<CStringList>::push_back
_TEXT	ENDS
; Function compile flags: /Odtp /RTCsu
;	COMDAT ?__autoclassinit2@?$CTList@UfileInfo@@@@QEAAX_K@Z
_TEXT	SEGMENT
this$ = 16
classSize$ = 24
?__autoclassinit2@?$CTList@UfileInfo@@@@QEAAX_K@Z PROC	; CTList<fileInfo>::__autoclassinit2, COMDAT
$LN3:
  00000	48 89 54 24 10	 mov	 QWORD PTR [rsp+16], rdx
  00005	48 89 4c 24 08	 mov	 QWORD PTR [rsp+8], rcx
  0000a	57		 push	 rdi
  0000b	48 8b 7c 24 10	 mov	 rdi, QWORD PTR this$[rsp]
  00010	33 c0		 xor	 eax, eax
  00012	48 8b 4c 24 18	 mov	 rcx, QWORD PTR classSize$[rsp]
  00017	f3 aa		 rep stosb
  00019	5f		 pop	 rdi
  0001a	c3		 ret	 0
?__autoclassinit2@?$CTList@UfileInfo@@@@QEAAX_K@Z ENDP	; CTList<fileInfo>::__autoclassinit2
_TEXT	ENDS
; Function compile flags: /Odtp /RTCsu
; File e:\infinia-library-3.0\com\include\comtlist.h
;	COMDAT ?__alloc@?$CTList@UfileInfo@@@@AEAAHH@Z
_TEXT	SEGMENT
pList$ = 32
this$ = 64
nMaxCount$ = 72
?__alloc@?$CTList@UfileInfo@@@@AEAAHH@Z PROC		; CTList<fileInfo>::__alloc, COMDAT

; 402  : {

$LN5:
  00000	89 54 24 10	 mov	 DWORD PTR [rsp+16], edx
  00004	48 89 4c 24 08	 mov	 QWORD PTR [rsp+8], rcx
  00009	57		 push	 rdi
  0000a	48 83 ec 30	 sub	 rsp, 48			; 00000030H
  0000e	48 8b fc	 mov	 rdi, rsp
  00011	b9 0c 00 00 00	 mov	 ecx, 12
  00016	b8 cc cc cc cc	 mov	 eax, -858993460		; ccccccccH
  0001b	f3 ab		 rep stosd
  0001d	48 8b 4c 24 40	 mov	 rcx, QWORD PTR [rsp+64]

; 403  : 	T** pList = (T**)calloc(nMaxCount, sizeof(T*));

  00022	48 63 44 24 48	 movsxd	 rax, DWORD PTR nMaxCount$[rsp]
  00027	ba 08 00 00 00	 mov	 edx, 8
  0002c	48 8b c8	 mov	 rcx, rax
  0002f	ff 15 00 00 00
	00		 call	 QWORD PTR __imp_calloc
  00035	48 89 44 24 20	 mov	 QWORD PTR pList$[rsp], rax

; 404  : 	if (!pList) {

  0003a	48 83 7c 24 20
	00		 cmp	 QWORD PTR pList$[rsp], 0
  00040	75 17		 jne	 SHORT $LN2@alloc

; 405  : 		_stprintf(g_szMessage, "pList calloc is NULL");

  00042	48 8d 15 00 00
	00 00		 lea	 rdx, OFFSET FLAT:$SG87054
  00049	48 8d 0d 00 00
	00 00		 lea	 rcx, OFFSET FLAT:?g_szMessage@@3PADA ; g_szMessage
  00050	e8 00 00 00 00	 call	 sprintf

; 406  : 		return 0;

  00055	33 c0		 xor	 eax, eax
  00057	eb 4c		 jmp	 SHORT $LN1@alloc
$LN2@alloc:

; 407  : 	}
; 408  : 	//_stprintf(g_szMessage, _T("CTList::__alloc list m_nMaxCount[%d]"), nMaxCount);
; 409  : 	if (m_pArray) {

  00059	48 8b 44 24 40	 mov	 rax, QWORD PTR this$[rsp]
  0005e	48 83 38 00	 cmp	 QWORD PTR [rax], 0
  00062	74 30		 je	 SHORT $LN3@alloc

; 410  : 		memcpy(pList, m_pArray, m_nMax * sizeof(T*));

  00064	48 8b 44 24 40	 mov	 rax, QWORD PTR this$[rsp]
  00069	48 63 40 14	 movsxd	 rax, DWORD PTR [rax+20]
  0006d	48 c1 e0 03	 shl	 rax, 3
  00071	4c 8b c0	 mov	 r8, rax
  00074	48 8b 44 24 40	 mov	 rax, QWORD PTR this$[rsp]
  00079	48 8b 10	 mov	 rdx, QWORD PTR [rax]
  0007c	48 8b 4c 24 20	 mov	 rcx, QWORD PTR pList$[rsp]
  00081	e8 00 00 00 00	 call	 memcpy

; 411  : 		free(m_pArray);

  00086	48 8b 44 24 40	 mov	 rax, QWORD PTR this$[rsp]
  0008b	48 8b 08	 mov	 rcx, QWORD PTR [rax]
  0008e	ff 15 00 00 00
	00		 call	 QWORD PTR __imp_free
$LN3@alloc:

; 412  : 	}
; 413  : 	m_pArray = pList;

  00094	48 8b 44 24 40	 mov	 rax, QWORD PTR this$[rsp]
  00099	48 8b 4c 24 20	 mov	 rcx, QWORD PTR pList$[rsp]
  0009e	48 89 08	 mov	 QWORD PTR [rax], rcx

; 414  : 	return nMaxCount;

  000a1	8b 44 24 48	 mov	 eax, DWORD PTR nMaxCount$[rsp]
$LN1@alloc:

; 415  : }

  000a5	48 83 c4 30	 add	 rsp, 48			; 00000030H
  000a9	5f		 pop	 rdi
  000aa	c3		 ret	 0
?__alloc@?$CTList@UfileInfo@@@@AEAAHH@Z ENDP		; CTList<fileInfo>::__alloc
_TEXT	ENDS
; Function compile flags: /Odtp /RTCsu
; File e:\infinia-library-3.0\com\include\comtlist.h
;	COMDAT ?size@?$CTList@UfileInfo@@@@QEAAHXZ
_TEXT	SEGMENT
this$ = 16
?size@?$CTList@UfileInfo@@@@QEAAHXZ PROC		; CTList<fileInfo>::size, COMDAT

; 347  : 	inline int  size() { return m_nUse; }

$LN3:
  00000	48 89 4c 24 08	 mov	 QWORD PTR [rsp+8], rcx
  00005	57		 push	 rdi
  00006	48 8b 44 24 10	 mov	 rax, QWORD PTR this$[rsp]
  0000b	8b 40 08	 mov	 eax, DWORD PTR [rax+8]
  0000e	5f		 pop	 rdi
  0000f	c3		 ret	 0
?size@?$CTList@UfileInfo@@@@QEAAHXZ ENDP		; CTList<fileInfo>::size
_TEXT	ENDS
; Function compile flags: /Odtp /RTCsu
; File e:\infinia-library-3.0\com\include\comtlist.h
;	COMDAT ?push_back@?$CTList@UfileInfo@@@@QEAA_NPEAUfileInfo@@PEAH@Z
_TEXT	SEGMENT
nIdx$ = 32
i$ = 36
this$ = 64
Obj$ = 72
pIdx$ = 80
?push_back@?$CTList@UfileInfo@@@@QEAA_NPEAUfileInfo@@PEAH@Z PROC ; CTList<fileInfo>::push_back, COMDAT

; 472  : {

$LN15:
  00000	4c 89 44 24 18	 mov	 QWORD PTR [rsp+24], r8
  00005	48 89 54 24 10	 mov	 QWORD PTR [rsp+16], rdx
  0000a	48 89 4c 24 08	 mov	 QWORD PTR [rsp+8], rcx
  0000f	57		 push	 rdi
  00010	48 83 ec 30	 sub	 rsp, 48			; 00000030H
  00014	48 8b fc	 mov	 rdi, rsp
  00017	b9 0c 00 00 00	 mov	 ecx, 12
  0001c	b8 cc cc cc cc	 mov	 eax, -858993460		; ccccccccH
  00021	f3 ab		 rep stosd
  00023	48 8b 4c 24 40	 mov	 rcx, QWORD PTR [rsp+64]

; 473  : 	int nIdx, i;
; 474  : 
; 475  : 	if (m_nUse >= m_nMax) {

  00028	48 8b 44 24 40	 mov	 rax, QWORD PTR this$[rsp]
  0002d	48 8b 4c 24 40	 mov	 rcx, QWORD PTR this$[rsp]
  00032	8b 49 14	 mov	 ecx, DWORD PTR [rcx+20]
  00035	39 48 08	 cmp	 DWORD PTR [rax+8], ecx
  00038	7c 4b		 jl	 SHORT $LN5@push_back

; 476  : 		if (!__alloc(m_nMax + TLIST_ADD_SIZE)) return false;

  0003a	48 8b 44 24 40	 mov	 rax, QWORD PTR this$[rsp]
  0003f	8b 40 14	 mov	 eax, DWORD PTR [rax+20]
  00042	83 c0 40	 add	 eax, 64			; 00000040H
  00045	8b d0		 mov	 edx, eax
  00047	48 8b 4c 24 40	 mov	 rcx, QWORD PTR this$[rsp]
  0004c	e8 00 00 00 00	 call	 ?__alloc@?$CTList@UfileInfo@@@@AEAAHH@Z ; CTList<fileInfo>::__alloc
  00051	85 c0		 test	 eax, eax
  00053	75 07		 jne	 SHORT $LN6@push_back
  00055	32 c0		 xor	 al, al
  00057	e9 0c 01 00 00	 jmp	 $LN1@push_back
$LN6@push_back:

; 477  : 		nIdx = m_nMax;

  0005c	48 8b 44 24 40	 mov	 rax, QWORD PTR this$[rsp]
  00061	8b 40 14	 mov	 eax, DWORD PTR [rax+20]
  00064	89 44 24 20	 mov	 DWORD PTR nIdx$[rsp], eax

; 478  : 		m_nMax += TLIST_ADD_SIZE;

  00068	48 8b 44 24 40	 mov	 rax, QWORD PTR this$[rsp]
  0006d	8b 40 14	 mov	 eax, DWORD PTR [rax+20]
  00070	83 c0 40	 add	 eax, 64			; 00000040H
  00073	48 8b 4c 24 40	 mov	 rcx, QWORD PTR this$[rsp]
  00078	89 41 14	 mov	 DWORD PTR [rcx+20], eax

; 479  : 		goto ADD_SUCCESS;

  0007b	e9 99 00 00 00	 jmp	 $LN7@push_back
  00080	e9 94 00 00 00	 jmp	 $ADD_SUCCESS$16
$LN5@push_back:

; 480  : 	}
; 481  : 
; 482  : 	if (!m_pArray[m_nLast]) { nIdx = m_nLast;  goto ADD_SUCCESS; }

  00085	48 8b 44 24 40	 mov	 rax, QWORD PTR this$[rsp]
  0008a	48 63 40 0c	 movsxd	 rax, DWORD PTR [rax+12]
  0008e	48 8b 4c 24 40	 mov	 rcx, QWORD PTR this$[rsp]
  00093	48 8b 09	 mov	 rcx, QWORD PTR [rcx]
  00096	48 83 3c c1 00	 cmp	 QWORD PTR [rcx+rax*8], 0
  0009b	75 10		 jne	 SHORT $LN8@push_back
  0009d	48 8b 44 24 40	 mov	 rax, QWORD PTR this$[rsp]
  000a2	8b 40 0c	 mov	 eax, DWORD PTR [rax+12]
  000a5	89 44 24 20	 mov	 DWORD PTR nIdx$[rsp], eax
  000a9	eb 6e		 jmp	 SHORT $LN9@push_back
  000ab	eb 6c		 jmp	 SHORT $ADD_SUCCESS$16
$LN8@push_back:

; 483  : 
; 484  : 	nIdx = m_nLast;

  000ad	48 8b 44 24 40	 mov	 rax, QWORD PTR this$[rsp]
  000b2	8b 40 0c	 mov	 eax, DWORD PTR [rax+12]
  000b5	89 44 24 20	 mov	 DWORD PTR nIdx$[rsp], eax

; 485  : 	for (i = 0; i < m_nMax; i++)

  000b9	c7 44 24 24 00
	00 00 00	 mov	 DWORD PTR i$[rsp], 0
  000c1	eb 0a		 jmp	 SHORT $LN4@push_back
$LN2@push_back:
  000c3	8b 44 24 24	 mov	 eax, DWORD PTR i$[rsp]
  000c7	ff c0		 inc	 eax
  000c9	89 44 24 24	 mov	 DWORD PTR i$[rsp], eax
$LN4@push_back:
  000cd	48 8b 44 24 40	 mov	 rax, QWORD PTR this$[rsp]
  000d2	8b 40 14	 mov	 eax, DWORD PTR [rax+20]
  000d5	39 44 24 24	 cmp	 DWORD PTR i$[rsp], eax
  000d9	7d 3a		 jge	 SHORT $LN3@push_back

; 486  : 	{
; 487  : 		if (nIdx >= m_nMax) nIdx = 0;

  000db	48 8b 44 24 40	 mov	 rax, QWORD PTR this$[rsp]
  000e0	8b 40 14	 mov	 eax, DWORD PTR [rax+20]
  000e3	39 44 24 20	 cmp	 DWORD PTR nIdx$[rsp], eax
  000e7	7c 08		 jl	 SHORT $LN10@push_back
  000e9	c7 44 24 20 00
	00 00 00	 mov	 DWORD PTR nIdx$[rsp], 0
$LN10@push_back:

; 488  : 		if (!m_pArray[nIdx]) {

  000f1	48 63 44 24 20	 movsxd	 rax, DWORD PTR nIdx$[rsp]
  000f6	48 8b 4c 24 40	 mov	 rcx, QWORD PTR this$[rsp]
  000fb	48 8b 09	 mov	 rcx, QWORD PTR [rcx]
  000fe	48 83 3c c1 00	 cmp	 QWORD PTR [rcx+rax*8], 0
  00103	75 04		 jne	 SHORT $LN11@push_back

; 489  : 			goto ADD_SUCCESS;

  00105	eb 12		 jmp	 SHORT $LN12@push_back
  00107	eb 10		 jmp	 SHORT $ADD_SUCCESS$16
$LN11@push_back:

; 490  : 		}
; 491  : 		nIdx++;

  00109	8b 44 24 20	 mov	 eax, DWORD PTR nIdx$[rsp]
  0010d	ff c0		 inc	 eax
  0010f	89 44 24 20	 mov	 DWORD PTR nIdx$[rsp], eax

; 492  : 	}

  00113	eb ae		 jmp	 SHORT $LN2@push_back
$LN3@push_back:

; 493  : 	//_stprintf(m_szMessage, _T("add FAIL! m_nLast[%d] m_nCurCount[%d] m_nMax[%d]"), m_nLast, m_nUse, m_nMax);
; 494  : 	return false;

  00115	32 c0		 xor	 al, al
  00117	eb 4f		 jmp	 SHORT $LN1@push_back
$LN7@push_back:
$LN9@push_back:
$LN12@push_back:
$ADD_SUCCESS$16:

; 495  : 
; 496  : ADD_SUCCESS:
; 497  : 	m_nUse++;

  00119	48 8b 44 24 40	 mov	 rax, QWORD PTR this$[rsp]
  0011e	8b 40 08	 mov	 eax, DWORD PTR [rax+8]
  00121	ff c0		 inc	 eax
  00123	48 8b 4c 24 40	 mov	 rcx, QWORD PTR this$[rsp]
  00128	89 41 08	 mov	 DWORD PTR [rcx+8], eax

; 498  : 	m_pArray[nIdx] = Obj;

  0012b	48 63 44 24 20	 movsxd	 rax, DWORD PTR nIdx$[rsp]
  00130	48 8b 4c 24 40	 mov	 rcx, QWORD PTR this$[rsp]
  00135	48 8b 09	 mov	 rcx, QWORD PTR [rcx]
  00138	48 8b 54 24 48	 mov	 rdx, QWORD PTR Obj$[rsp]
  0013d	48 89 14 c1	 mov	 QWORD PTR [rcx+rax*8], rdx

; 499  : 	m_nLast++;

  00141	48 8b 44 24 40	 mov	 rax, QWORD PTR this$[rsp]
  00146	8b 40 0c	 mov	 eax, DWORD PTR [rax+12]
  00149	ff c0		 inc	 eax
  0014b	48 8b 4c 24 40	 mov	 rcx, QWORD PTR this$[rsp]
  00150	89 41 0c	 mov	 DWORD PTR [rcx+12], eax

; 500  : 	//_stprintf(g_szMessage, _T("CMemList::add i[%d] m_nLast[%d] m_nCurCount[%d]"), nIdx, m_nLast, m_nUse);
; 501  : 	if (pIdx) *pIdx = nIdx;

  00153	48 83 7c 24 50
	00		 cmp	 QWORD PTR pIdx$[rsp], 0
  00159	74 0b		 je	 SHORT $LN13@push_back
  0015b	48 8b 44 24 50	 mov	 rax, QWORD PTR pIdx$[rsp]
  00160	8b 4c 24 20	 mov	 ecx, DWORD PTR nIdx$[rsp]
  00164	89 08		 mov	 DWORD PTR [rax], ecx
$LN13@push_back:

; 502  : 	return true;

  00166	b0 01		 mov	 al, 1
$LN1@push_back:

; 503  : }

  00168	48 83 c4 30	 add	 rsp, 48			; 00000030H
  0016c	5f		 pop	 rdi
  0016d	c3		 ret	 0
?push_back@?$CTList@UfileInfo@@@@QEAA_NPEAUfileInfo@@PEAH@Z ENDP ; CTList<fileInfo>::push_back
_TEXT	ENDS
; Function compile flags: /Odtp /RTCsu
; File e:\infinia-library-3.0\com\include\comtlist.h
;	COMDAT ?alloc@?$CTList@UfileInfo@@@@QEAAHHW4E_ALLOC_TYPE@@@Z
_TEXT	SEGMENT
this$ = 48
nMaxCount$ = 56
type$ = 64
?alloc@?$CTList@UfileInfo@@@@QEAAHHW4E_ALLOC_TYPE@@@Z PROC ; CTList<fileInfo>::alloc, COMDAT

; 326  : 	int alloc(int nMaxCount, E_ALLOC_TYPE type = eAlloc_Type_new) { m_nObjAllocType = type;  m_nMax = __alloc(nMaxCount); return m_nMax; }

$LN3:
  00000	44 89 44 24 18	 mov	 DWORD PTR [rsp+24], r8d
  00005	89 54 24 10	 mov	 DWORD PTR [rsp+16], edx
  00009	48 89 4c 24 08	 mov	 QWORD PTR [rsp+8], rcx
  0000e	57		 push	 rdi
  0000f	48 83 ec 20	 sub	 rsp, 32			; 00000020H
  00013	48 8b fc	 mov	 rdi, rsp
  00016	b9 08 00 00 00	 mov	 ecx, 8
  0001b	b8 cc cc cc cc	 mov	 eax, -858993460		; ccccccccH
  00020	f3 ab		 rep stosd
  00022	48 8b 4c 24 30	 mov	 rcx, QWORD PTR [rsp+48]
  00027	48 8b 44 24 30	 mov	 rax, QWORD PTR this$[rsp]
  0002c	8b 4c 24 40	 mov	 ecx, DWORD PTR type$[rsp]
  00030	89 48 18	 mov	 DWORD PTR [rax+24], ecx
  00033	8b 54 24 38	 mov	 edx, DWORD PTR nMaxCount$[rsp]
  00037	48 8b 4c 24 30	 mov	 rcx, QWORD PTR this$[rsp]
  0003c	e8 00 00 00 00	 call	 ?__alloc@?$CTList@UfileInfo@@@@AEAAHH@Z ; CTList<fileInfo>::__alloc
  00041	48 8b 4c 24 30	 mov	 rcx, QWORD PTR this$[rsp]
  00046	89 41 14	 mov	 DWORD PTR [rcx+20], eax
  00049	48 8b 44 24 30	 mov	 rax, QWORD PTR this$[rsp]
  0004e	8b 40 14	 mov	 eax, DWORD PTR [rax+20]
  00051	48 83 c4 20	 add	 rsp, 32			; 00000020H
  00055	5f		 pop	 rdi
  00056	c3		 ret	 0
?alloc@?$CTList@UfileInfo@@@@QEAAHHW4E_ALLOC_TYPE@@@Z ENDP ; CTList<fileInfo>::alloc
_TEXT	ENDS
; Function compile flags: /Odtp /RTCsu
; File e:\infinia-library-3.0\com\include\comtlist.h
;	COMDAT ??0?$CTList@UfileInfo@@@@QEAA@XZ
_TEXT	SEGMENT
this$ = 16
??0?$CTList@UfileInfo@@@@QEAA@XZ PROC			; CTList<fileInfo>::CTList<fileInfo>, COMDAT

; 365  : {

$LN3:
  00000	48 89 4c 24 08	 mov	 QWORD PTR [rsp+8], rcx
  00005	57		 push	 rdi

; 366  : 	m_pArray = NULL;

  00006	48 8b 44 24 10	 mov	 rax, QWORD PTR this$[rsp]
  0000b	48 c7 00 00 00
	00 00		 mov	 QWORD PTR [rax], 0

; 367  : 	m_nUse = 0;

  00012	48 8b 44 24 10	 mov	 rax, QWORD PTR this$[rsp]
  00017	c7 40 08 00 00
	00 00		 mov	 DWORD PTR [rax+8], 0

; 368  : 	m_nLast = 0;

  0001e	48 8b 44 24 10	 mov	 rax, QWORD PTR this$[rsp]
  00023	c7 40 0c 00 00
	00 00		 mov	 DWORD PTR [rax+12], 0

; 369  : 	m_nDelIdx = 0;

  0002a	48 8b 44 24 10	 mov	 rax, QWORD PTR this$[rsp]
  0002f	c7 40 10 00 00
	00 00		 mov	 DWORD PTR [rax+16], 0

; 370  : 	m_nMax = 0;

  00036	48 8b 44 24 10	 mov	 rax, QWORD PTR this$[rsp]
  0003b	c7 40 14 00 00
	00 00		 mov	 DWORD PTR [rax+20], 0

; 371  : 	m_nObjAllocType = eAlloc_Type_none;

  00042	48 8b 44 24 10	 mov	 rax, QWORD PTR this$[rsp]
  00047	c7 40 18 00 00
	00 00		 mov	 DWORD PTR [rax+24], 0

; 372  : }

  0004e	48 8b 44 24 10	 mov	 rax, QWORD PTR this$[rsp]
  00053	5f		 pop	 rdi
  00054	c3		 ret	 0
??0?$CTList@UfileInfo@@@@QEAA@XZ ENDP			; CTList<fileInfo>::CTList<fileInfo>
_TEXT	ENDS
; Function compile flags: /Odtp /RTCsu
; File e:\infinia-library-3.0\com\src\comfileutil.cpp
_TEXT	SEGMENT
fromChar$ = 0
toChar$ = 1
dirName$ = 32
?CheckDirName@@YAXPEAD@Z PROC				; CheckDirName

; 61   : {

$LN6:
  00000	48 89 4c 24 08	 mov	 QWORD PTR [rsp+8], rcx
  00005	57		 push	 rdi
  00006	48 83 ec 10	 sub	 rsp, 16
  0000a	48 8b fc	 mov	 rdi, rsp
  0000d	b9 04 00 00 00	 mov	 ecx, 4
  00012	b8 cc cc cc cc	 mov	 eax, -858993460		; ccccccccH
  00017	f3 ab		 rep stosd
  00019	48 8b 4c 24 20	 mov	 rcx, QWORD PTR [rsp+32]

; 62   : #ifndef WIN32
; 63   : 	TCHAR	fromChar = '\\';
; 64   : 	TCHAR	toChar = '/';
; 65   : #else
; 66   : 	TCHAR	fromChar = '/';

  0001e	c6 04 24 2f	 mov	 BYTE PTR fromChar$[rsp], 47 ; 0000002fH

; 67   : 	TCHAR	toChar = '\\';

  00022	c6 44 24 01 5c	 mov	 BYTE PTR toChar$[rsp], 92 ; 0000005cH
$LN2@CheckDirNa:

; 68   : #endif
; 69   : 
; 70   : 	while (dirName && *dirName)

  00027	48 83 7c 24 20
	00		 cmp	 QWORD PTR dirName$[rsp], 0
  0002d	74 37		 je	 SHORT $LN3@CheckDirNa
  0002f	48 8b 44 24 20	 mov	 rax, QWORD PTR dirName$[rsp]
  00034	0f be 00	 movsx	 eax, BYTE PTR [rax]
  00037	85 c0		 test	 eax, eax
  00039	74 2b		 je	 SHORT $LN3@CheckDirNa

; 71   : 	{
; 72   : 		if (*dirName == fromChar)

  0003b	48 8b 44 24 20	 mov	 rax, QWORD PTR dirName$[rsp]
  00040	0f be 00	 movsx	 eax, BYTE PTR [rax]
  00043	0f be 0c 24	 movsx	 ecx, BYTE PTR fromChar$[rsp]
  00047	3b c1		 cmp	 eax, ecx
  00049	75 0c		 jne	 SHORT $LN4@CheckDirNa

; 73   : 			*dirName = toChar;

  0004b	48 8b 44 24 20	 mov	 rax, QWORD PTR dirName$[rsp]
  00050	0f b6 4c 24 01	 movzx	 ecx, BYTE PTR toChar$[rsp]
  00055	88 08		 mov	 BYTE PTR [rax], cl
$LN4@CheckDirNa:

; 74   : 		dirName++;

  00057	48 8b 44 24 20	 mov	 rax, QWORD PTR dirName$[rsp]
  0005c	48 ff c0	 inc	 rax
  0005f	48 89 44 24 20	 mov	 QWORD PTR dirName$[rsp], rax

; 75   : 	}

  00064	eb c1		 jmp	 SHORT $LN2@CheckDirNa
$LN3@CheckDirNa:

; 76   : }

  00066	48 83 c4 10	 add	 rsp, 16
  0006a	5f		 pop	 rdi
  0006b	c3		 ret	 0
?CheckDirName@@YAXPEAD@Z ENDP				; CheckDirName
_TEXT	ENDS
; Function compile flags: /Odtp /RTCsu
; File e:\infinia-library-3.0\com\src\comfileutil.cpp
_TEXT	SEGMENT
nIdx$ = 68
i$ = 84
nLen$ = 88
pInfo$ = 96
$T4 = 112
$T5 = 120
$T6 = 128
tv78 = 136
__$ArrayPad$ = 144
flist$ = 176
fname$ = 184
ftype$ = 192
?appendFileList@CFileUtil@@CA_NPEAV?$CTList@UfileInfo@@@@PEBDD@Z PROC ; CFileUtil::appendFileList

; 272  : {

$LN11:
  00000	44 88 44 24 18	 mov	 BYTE PTR [rsp+24], r8b
  00005	48 89 54 24 10	 mov	 QWORD PTR [rsp+16], rdx
  0000a	48 89 4c 24 08	 mov	 QWORD PTR [rsp+8], rcx
  0000f	57		 push	 rdi
  00010	48 81 ec a0 00
	00 00		 sub	 rsp, 160		; 000000a0H
  00017	48 8b fc	 mov	 rdi, rsp
  0001a	b9 28 00 00 00	 mov	 ecx, 40			; 00000028H
  0001f	b8 cc cc cc cc	 mov	 eax, -858993460		; ccccccccH
  00024	f3 ab		 rep stosd
  00026	48 8b 8c 24 b0
	00 00 00	 mov	 rcx, QWORD PTR [rsp+176]
  0002e	48 c7 84 24 80
	00 00 00 fe ff
	ff ff		 mov	 QWORD PTR $T6[rsp], -2
  0003a	48 8b 05 00 00
	00 00		 mov	 rax, QWORD PTR __security_cookie
  00041	48 33 c4	 xor	 rax, rsp
  00044	48 89 84 24 90
	00 00 00	 mov	 QWORD PTR __$ArrayPad$[rsp], rax

; 273  : 	if (!flist) {

  0004c	48 83 bc 24 b0
	00 00 00 00	 cmp	 QWORD PTR flist$[rsp], 0
  00055	0f 85 95 00 00
	00		 jne	 $LN2@appendFile

; 274  : 		flist = new CTList<fileInfo>();

  0005b	b9 20 00 00 00	 mov	 ecx, 32			; 00000020H
  00060	e8 00 00 00 00	 call	 ??2@YAPEAX_K@Z		; operator new
  00065	48 89 44 24 78	 mov	 QWORD PTR $T5[rsp], rax
  0006a	48 83 7c 24 78
	00		 cmp	 QWORD PTR $T5[rsp], 0
  00070	74 23		 je	 SHORT $LN8@appendFile
  00072	ba 20 00 00 00	 mov	 edx, 32			; 00000020H
  00077	48 8b 4c 24 78	 mov	 rcx, QWORD PTR $T5[rsp]
  0007c	e8 00 00 00 00	 call	 ?__autoclassinit2@?$CTList@UfileInfo@@@@QEAAX_K@Z
  00081	48 8b 4c 24 78	 mov	 rcx, QWORD PTR $T5[rsp]
  00086	e8 00 00 00 00	 call	 ??0?$CTList@UfileInfo@@@@QEAA@XZ ; CTList<fileInfo>::CTList<fileInfo>
  0008b	48 89 84 24 88
	00 00 00	 mov	 QWORD PTR tv78[rsp], rax
  00093	eb 0c		 jmp	 SHORT $LN9@appendFile
$LN8@appendFile:
  00095	48 c7 84 24 88
	00 00 00 00 00
	00 00		 mov	 QWORD PTR tv78[rsp], 0
$LN9@appendFile:
  000a1	48 8b 84 24 88
	00 00 00	 mov	 rax, QWORD PTR tv78[rsp]
  000a9	48 89 44 24 70	 mov	 QWORD PTR $T4[rsp], rax
  000ae	48 8b 44 24 70	 mov	 rax, QWORD PTR $T4[rsp]
  000b3	48 89 84 24 b0
	00 00 00	 mov	 QWORD PTR flist$[rsp], rax

; 275  : 		if (!flist) return false;

  000bb	48 83 bc 24 b0
	00 00 00 00	 cmp	 QWORD PTR flist$[rsp], 0
  000c4	75 07		 jne	 SHORT $LN3@appendFile
  000c6	32 c0		 xor	 al, al
  000c8	e9 2f 01 00 00	 jmp	 $LN1@appendFile
$LN3@appendFile:

; 276  : 		if (!flist->alloc(UNIT_FILE_LIST, eAlloc_Type_BufPool)) return false;

  000cd	41 b8 04 00 00
	00		 mov	 r8d, 4
  000d3	ba 40 00 00 00	 mov	 edx, 64			; 00000040H
  000d8	48 8b 8c 24 b0
	00 00 00	 mov	 rcx, QWORD PTR flist$[rsp]
  000e0	e8 00 00 00 00	 call	 ?alloc@?$CTList@UfileInfo@@@@QEAAHHW4E_ALLOC_TYPE@@@Z ; CTList<fileInfo>::alloc
  000e5	85 c0		 test	 eax, eax
  000e7	75 07		 jne	 SHORT $LN2@appendFile
  000e9	32 c0		 xor	 al, al
  000eb	e9 0c 01 00 00	 jmp	 $LN1@appendFile
$LN2@appendFile:

; 277  : 	}
; 278  : 
; 279  : 	int nIdx, i = 0, nLen = sizeof(FileInfo);

  000f0	c7 44 24 54 00
	00 00 00	 mov	 DWORD PTR i$[rsp], 0
  000f8	c7 44 24 58 10
	00 00 00	 mov	 DWORD PTR nLen$[rsp], 16

; 280  : 	FileInfo *pInfo = (FileInfo *)gs_pMMgr->newBuf(nLen, &nIdx);

  00100	4c 8d 44 24 44	 lea	 r8, QWORD PTR nIdx$[rsp]
  00105	8b 54 24 58	 mov	 edx, DWORD PTR nLen$[rsp]
  00109	48 8b 0d 00 00
	00 00		 mov	 rcx, QWORD PTR ?gs_pMMgr@@3PEAVCMemManager@@EA ; gs_pMMgr
  00110	e8 00 00 00 00	 call	 ?newBuf@CMemManager@@QEAAPEADHPEAH@Z ; CMemManager::newBuf
  00115	48 89 44 24 60	 mov	 QWORD PTR pInfo$[rsp], rax

; 281  : 
; 282  : 	pInfo->fname = gs_pMMgr->newBuf((int)_tcslen(fname) + 1);

  0011a	48 8b 8c 24 b8
	00 00 00	 mov	 rcx, QWORD PTR fname$[rsp]
  00122	e8 00 00 00 00	 call	 strlen
  00127	ff c0		 inc	 eax
  00129	8b d0		 mov	 edx, eax
  0012b	48 8b 0d 00 00
	00 00		 mov	 rcx, QWORD PTR ?gs_pMMgr@@3PEAVCMemManager@@EA ; gs_pMMgr
  00132	e8 00 00 00 00	 call	 ?newBuf@CMemManager@@QEAAPEADH@Z ; CMemManager::newBuf
  00137	48 8b 4c 24 60	 mov	 rcx, QWORD PTR pInfo$[rsp]
  0013c	48 89 01	 mov	 QWORD PTR [rcx], rax

; 283  : 	_tcscpy(pInfo->fname, fname);

  0013f	48 8b 94 24 b8
	00 00 00	 mov	 rdx, QWORD PTR fname$[rsp]
  00147	48 8b 44 24 60	 mov	 rax, QWORD PTR pInfo$[rsp]
  0014c	48 8b 08	 mov	 rcx, QWORD PTR [rax]
  0014f	e8 00 00 00 00	 call	 strcpy

; 284  : 	pInfo->stat = ftype;

  00154	48 8b 44 24 60	 mov	 rax, QWORD PTR pInfo$[rsp]
  00159	0f b6 8c 24 c0
	00 00 00	 movzx	 ecx, BYTE PTR ftype$[rsp]
  00161	88 48 08	 mov	 BYTE PTR [rax+8], cl

; 285  : 
; 286  : 	// add
; 287  : 	if (flist->push_back(pInfo)) {

  00164	45 33 c0	 xor	 r8d, r8d
  00167	48 8b 54 24 60	 mov	 rdx, QWORD PTR pInfo$[rsp]
  0016c	48 8b 8c 24 b0
	00 00 00	 mov	 rcx, QWORD PTR flist$[rsp]
  00174	e8 00 00 00 00	 call	 ?push_back@?$CTList@UfileInfo@@@@QEAA_NPEAUfileInfo@@PEAH@Z ; CTList<fileInfo>::push_back
  00179	0f b6 c0	 movzx	 eax, al
  0017c	85 c0		 test	 eax, eax
  0017e	74 37		 je	 SHORT $LN5@appendFile

; 288  : 		gs_cLogger.PutLogQueue(LEVEL_TRACE, _T("fname[%s] nCount[%d]"), pInfo->fname, flist->size());

  00180	48 8b 8c 24 b0
	00 00 00	 mov	 rcx, QWORD PTR flist$[rsp]
  00188	e8 00 00 00 00	 call	 ?size@?$CTList@UfileInfo@@@@QEAAHXZ ; CTList<fileInfo>::size
  0018d	89 44 24 20	 mov	 DWORD PTR [rsp+32], eax
  00191	48 8b 44 24 60	 mov	 rax, QWORD PTR pInfo$[rsp]
  00196	4c 8b 08	 mov	 r9, QWORD PTR [rax]
  00199	4c 8d 05 00 00
	00 00		 lea	 r8, OFFSET FLAT:$SG86507
  001a0	ba 02 00 00 00	 mov	 edx, 2
  001a5	48 8d 0d 00 00
	00 00		 lea	 rcx, OFFSET FLAT:?gs_cLogger@@3VCLogger@@A ; gs_cLogger
  001ac	e8 00 00 00 00	 call	 ?PutLogQueue@CLogger@@QEAAXHPEBDZZ ; CLogger::PutLogQueue

; 289  : 		return true;

  001b1	b0 01		 mov	 al, 1
  001b3	eb 47		 jmp	 SHORT $LN1@appendFile

; 290  : 	}
; 291  : 	else {

  001b5	eb 45		 jmp	 SHORT $LN1@appendFile
$LN5@appendFile:

; 292  : 		gs_cLogger.DebugLog(LEVEL_ERROR, _T(" fname[%d] ftype[%d]"), fname, ftype);

  001b7	0f be 84 24 c0
	00 00 00	 movsx	 eax, BYTE PTR ftype$[rsp]
  001bf	89 44 24 30	 mov	 DWORD PTR [rsp+48], eax
  001c3	48 8b 84 24 b8
	00 00 00	 mov	 rax, QWORD PTR fname$[rsp]
  001cb	48 89 44 24 28	 mov	 QWORD PTR [rsp+40], rax
  001d0	48 8d 05 00 00
	00 00		 lea	 rax, OFFSET FLAT:$SG86508
  001d7	48 89 44 24 20	 mov	 QWORD PTR [rsp+32], rax
  001dc	41 b9 24 01 00
	00		 mov	 r9d, 292		; 00000124H
  001e2	4c 8d 05 00 00
	00 00		 lea	 r8, OFFSET FLAT:$SG86509
  001e9	ba 05 00 00 00	 mov	 edx, 5
  001ee	48 8d 0d 00 00
	00 00		 lea	 rcx, OFFSET FLAT:?gs_cLogger@@3VCLogger@@A ; gs_cLogger
  001f5	e8 00 00 00 00	 call	 ?__debugLog@CLogger@@QEAAXHPEBDH0ZZ ; CLogger::__debugLog

; 293  : 		return false;

  001fa	32 c0		 xor	 al, al
$LN1@appendFile:

; 294  : 	}
; 295  : }

  001fc	48 8b f8	 mov	 rdi, rax
  001ff	48 8b cc	 mov	 rcx, rsp
  00202	48 8d 15 00 00
	00 00		 lea	 rdx, OFFSET FLAT:?appendFileList@CFileUtil@@CA_NPEAV?$CTList@UfileInfo@@@@PEBDD@Z$rtcFrameData
  00209	e8 00 00 00 00	 call	 _RTC_CheckStackVars
  0020e	48 8b c7	 mov	 rax, rdi
  00211	48 8b 8c 24 90
	00 00 00	 mov	 rcx, QWORD PTR __$ArrayPad$[rsp]
  00219	48 33 cc	 xor	 rcx, rsp
  0021c	e8 00 00 00 00	 call	 __security_check_cookie
  00221	48 81 c4 a0 00
	00 00		 add	 rsp, 160		; 000000a0H
  00228	5f		 pop	 rdi
  00229	c3		 ret	 0
?appendFileList@CFileUtil@@CA_NPEAV?$CTList@UfileInfo@@@@PEBDD@Z ENDP ; CFileUtil::appendFileList
_TEXT	ENDS
text$x	SEGMENT
nIdx$ = 68
i$ = 84
nLen$ = 88
pInfo$ = 96
$T4 = 112
$T5 = 120
$T6 = 128
tv78 = 136
__$ArrayPad$ = 144
flist$ = 176
fname$ = 184
ftype$ = 192
?dtor$0@?0??appendFileList@CFileUtil@@CA_NPEAV?$CTList@UfileInfo@@@@PEBDD@Z@4HA PROC ; `CFileUtil::appendFileList'::`1'::dtor$0
  00000	48 89 4c 24 08	 mov	 QWORD PTR [rsp+8], rcx
  00005	48 89 54 24 10	 mov	 QWORD PTR [rsp+16], rdx
  0000a	55		 push	 rbp
  0000b	57		 push	 rdi
  0000c	48 83 ec 28	 sub	 rsp, 40			; 00000028H
  00010	48 8b ea	 mov	 rbp, rdx
  00013	ba 20 00 00 00	 mov	 edx, 32			; 00000020H
  00018	48 8b 4d 78	 mov	 rcx, QWORD PTR $T5[rbp]
  0001c	e8 00 00 00 00	 call	 ??3@YAXPEAX_K@Z		; operator delete
  00021	48 83 c4 28	 add	 rsp, 40			; 00000028H
  00025	5f		 pop	 rdi
  00026	5d		 pop	 rbp
  00027	c3		 ret	 0
?dtor$0@?0??appendFileList@CFileUtil@@CA_NPEAV?$CTList@UfileInfo@@@@PEBDD@Z@4HA ENDP ; `CFileUtil::appendFileList'::`1'::dtor$0
text$x	ENDS
; Function compile flags: /Odtp /RTCsu
text$x	SEGMENT
nIdx$ = 68
i$ = 84
nLen$ = 88
pInfo$ = 96
$T4 = 112
$T5 = 120
$T6 = 128
tv78 = 136
__$ArrayPad$ = 144
flist$ = 176
fname$ = 184
ftype$ = 192
?dtor$0@?0??appendFileList@CFileUtil@@CA_NPEAV?$CTList@UfileInfo@@@@PEBDD@Z@4HA PROC ; `CFileUtil::appendFileList'::`1'::dtor$0
  00000	48 89 4c 24 08	 mov	 QWORD PTR [rsp+8], rcx
  00005	48 89 54 24 10	 mov	 QWORD PTR [rsp+16], rdx
  0000a	55		 push	 rbp
  0000b	57		 push	 rdi
  0000c	48 83 ec 28	 sub	 rsp, 40			; 00000028H
  00010	48 8b ea	 mov	 rbp, rdx
  00013	ba 20 00 00 00	 mov	 edx, 32			; 00000020H
  00018	48 8b 4d 78	 mov	 rcx, QWORD PTR $T5[rbp]
  0001c	e8 00 00 00 00	 call	 ??3@YAXPEAX_K@Z		; operator delete
  00021	48 83 c4 28	 add	 rsp, 40			; 00000028H
  00025	5f		 pop	 rdi
  00026	5d		 pop	 rbp
  00027	c3		 ret	 0
?dtor$0@?0??appendFileList@CFileUtil@@CA_NPEAV?$CTList@UfileInfo@@@@PEBDD@Z@4HA ENDP ; `CFileUtil::appendFileList'::`1'::dtor$0
text$x	ENDS
; Function compile flags: /Odtp /RTCsu
; File e:\infinia-library-3.0\com\src\comfileutil.cpp
_TEXT	SEGMENT
pPos$ = 32
nIdx$ = 40
nLen$ = 44
tv76 = 48
tv77 = 52
tv78 = 56
pTarget$ = 80
psubstr$ = 88
?ehstrstr@CFileUtil@@SAPEADPEBD0@Z PROC			; CFileUtil::ehstrstr

; 840  : {

$LN11:
  00000	48 89 54 24 10	 mov	 QWORD PTR [rsp+16], rdx
  00005	48 89 4c 24 08	 mov	 QWORD PTR [rsp+8], rcx
  0000a	57		 push	 rdi
  0000b	48 83 ec 40	 sub	 rsp, 64			; 00000040H
  0000f	48 8b fc	 mov	 rdi, rsp
  00012	b9 10 00 00 00	 mov	 ecx, 16
  00017	b8 cc cc cc cc	 mov	 eax, -858993460		; ccccccccH
  0001c	f3 ab		 rep stosd
  0001e	48 8b 4c 24 50	 mov	 rcx, QWORD PTR [rsp+80]

; 841  : 	char *pPos = (char *)pTarget;

  00023	48 8b 44 24 50	 mov	 rax, QWORD PTR pTarget$[rsp]
  00028	48 89 44 24 20	 mov	 QWORD PTR pPos$[rsp], rax

; 842  : 	int nIdx=0, nLen= (int)strlen(psubstr);

  0002d	c7 44 24 28 00
	00 00 00	 mov	 DWORD PTR nIdx$[rsp], 0
  00035	48 8b 4c 24 58	 mov	 rcx, QWORD PTR psubstr$[rsp]
  0003a	e8 00 00 00 00	 call	 strlen
  0003f	89 44 24 2c	 mov	 DWORD PTR nLen$[rsp], eax
$LN2@ehstrstr:

; 843  : 	while (*pPos) {

  00043	48 8b 44 24 20	 mov	 rax, QWORD PTR pPos$[rsp]
  00048	0f be 00	 movsx	 eax, BYTE PTR [rax]
  0004b	85 c0		 test	 eax, eax
  0004d	0f 84 95 00 00
	00		 je	 $LN3@ehstrstr
$LN4@ehstrstr:

; 844  : 		while (*pPos == psubstr[nIdx++]) {

  00053	48 8b 44 24 20	 mov	 rax, QWORD PTR pPos$[rsp]
  00058	0f be 00	 movsx	 eax, BYTE PTR [rax]
  0005b	89 44 24 30	 mov	 DWORD PTR tv76[rsp], eax
  0005f	48 63 44 24 28	 movsxd	 rax, DWORD PTR nIdx$[rsp]
  00064	48 8b 4c 24 58	 mov	 rcx, QWORD PTR psubstr$[rsp]
  00069	0f be 04 01	 movsx	 eax, BYTE PTR [rcx+rax]
  0006d	89 44 24 34	 mov	 DWORD PTR tv77[rsp], eax
  00071	8b 44 24 28	 mov	 eax, DWORD PTR nIdx$[rsp]
  00075	ff c0		 inc	 eax
  00077	89 44 24 28	 mov	 DWORD PTR nIdx$[rsp], eax
  0007b	8b 44 24 34	 mov	 eax, DWORD PTR tv77[rsp]
  0007f	39 44 24 30	 cmp	 DWORD PTR tv76[rsp], eax
  00083	75 0a		 jne	 SHORT $LN9@ehstrstr
  00085	c7 44 24 38 01
	00 00 00	 mov	 DWORD PTR tv78[rsp], 1
  0008d	eb 08		 jmp	 SHORT $LN10@ehstrstr
$LN9@ehstrstr:
  0008f	c7 44 24 38 00
	00 00 00	 mov	 DWORD PTR tv78[rsp], 0
$LN10@ehstrstr:
  00097	83 7c 24 38 00	 cmp	 DWORD PTR tv78[rsp], 0
  0009c	74 30		 je	 SHORT $LN5@ehstrstr

; 845  : 			if (nIdx >= nLen) return pPos;

  0009e	8b 44 24 2c	 mov	 eax, DWORD PTR nLen$[rsp]
  000a2	39 44 24 28	 cmp	 DWORD PTR nIdx$[rsp], eax
  000a6	7c 07		 jl	 SHORT $LN6@ehstrstr
  000a8	48 8b 44 24 20	 mov	 rax, QWORD PTR pPos$[rsp]
  000ad	eb 3b		 jmp	 SHORT $LN1@ehstrstr
$LN6@ehstrstr:

; 846  : 			pPos++; if (!*pPos) return NULL;			

  000af	48 8b 44 24 20	 mov	 rax, QWORD PTR pPos$[rsp]
  000b4	48 ff c0	 inc	 rax
  000b7	48 89 44 24 20	 mov	 QWORD PTR pPos$[rsp], rax
  000bc	48 8b 44 24 20	 mov	 rax, QWORD PTR pPos$[rsp]
  000c1	0f be 00	 movsx	 eax, BYTE PTR [rax]
  000c4	85 c0		 test	 eax, eax
  000c6	75 04		 jne	 SHORT $LN7@ehstrstr
  000c8	33 c0		 xor	 eax, eax
  000ca	eb 1e		 jmp	 SHORT $LN1@ehstrstr
$LN7@ehstrstr:

; 847  : 		}

  000cc	eb 85		 jmp	 SHORT $LN4@ehstrstr
$LN5@ehstrstr:

; 848  : 		nIdx = 0;

  000ce	c7 44 24 28 00
	00 00 00	 mov	 DWORD PTR nIdx$[rsp], 0

; 849  : 		pPos++;

  000d6	48 8b 44 24 20	 mov	 rax, QWORD PTR pPos$[rsp]
  000db	48 ff c0	 inc	 rax
  000de	48 89 44 24 20	 mov	 QWORD PTR pPos$[rsp], rax

; 850  : 	}

  000e3	e9 5b ff ff ff	 jmp	 $LN2@ehstrstr
$LN3@ehstrstr:

; 851  : 	return NULL;

  000e8	33 c0		 xor	 eax, eax
$LN1@ehstrstr:

; 852  : }

  000ea	48 83 c4 40	 add	 rsp, 64			; 00000040H
  000ee	5f		 pop	 rdi
  000ef	c3		 ret	 0
?ehstrstr@CFileUtil@@SAPEADPEBD0@Z ENDP			; CFileUtil::ehstrstr
_TEXT	ENDS
; Function compile flags: /Odtp /RTCsu
; File e:\infinia-library-3.0\com\src\comfileutil.cpp
_TEXT	SEGMENT
i$ = 32
pFile$ = 40
pFilePath$ = 64
nLoopCnt$ = 72
pBuf$ = 80
?add@CFileUtil@@SA_NPEADHPEAUSTFileMem@@@Z PROC		; CFileUtil::add

; 813  : {

$LN8:
  00000	4c 89 44 24 18	 mov	 QWORD PTR [rsp+24], r8
  00005	89 54 24 10	 mov	 DWORD PTR [rsp+16], edx
  00009	48 89 4c 24 08	 mov	 QWORD PTR [rsp+8], rcx
  0000e	57		 push	 rdi
  0000f	48 83 ec 30	 sub	 rsp, 48			; 00000030H
  00013	48 8b fc	 mov	 rdi, rsp
  00016	b9 0c 00 00 00	 mov	 ecx, 12
  0001b	b8 cc cc cc cc	 mov	 eax, -858993460		; ccccccccH
  00020	f3 ab		 rep stosd
  00022	48 8b 4c 24 40	 mov	 rcx, QWORD PTR [rsp+64]

; 814  : 	int i;
; 815  : 	FILE *pFile = _tfopen(pFilePath, _T("a+"));

  00027	48 8d 15 00 00
	00 00		 lea	 rdx, OFFSET FLAT:$SG86902
  0002e	48 8b 4c 24 40	 mov	 rcx, QWORD PTR pFilePath$[rsp]
  00033	ff 15 00 00 00
	00		 call	 QWORD PTR __imp_fopen
  00039	48 89 44 24 28	 mov	 QWORD PTR pFile$[rsp], rax

; 816  : 
; 817  : 	if (!pFile) {

  0003e	48 83 7c 24 28
	00		 cmp	 QWORD PTR pFile$[rsp], 0
  00044	75 4a		 jne	 SHORT $LN5@add

; 818  : 
; 819  : 		CFileUtil::MakeDirectory(pFilePath);

  00046	48 8b 4c 24 40	 mov	 rcx, QWORD PTR pFilePath$[rsp]
  0004b	e8 00 00 00 00	 call	 ?MakeDirectory@CFileUtil@@SA_NPEBD@Z ; CFileUtil::MakeDirectory

; 820  : 		pFile = _tfopen(pFilePath, _T("a+"));

  00050	48 8d 15 00 00
	00 00		 lea	 rdx, OFFSET FLAT:$SG86904
  00057	48 8b 4c 24 40	 mov	 rcx, QWORD PTR pFilePath$[rsp]
  0005c	ff 15 00 00 00
	00		 call	 QWORD PTR __imp_fopen
  00062	48 89 44 24 28	 mov	 QWORD PTR pFile$[rsp], rax

; 821  : 
; 822  : 		if (!pFile) {

  00067	48 83 7c 24 28
	00		 cmp	 QWORD PTR pFile$[rsp], 0
  0006d	75 21		 jne	 SHORT $LN6@add

; 823  : 			gs_cLogger.PutLogQueue(LEVEL_ERROR, _T("CDFSFile::add2 pFile open FAIL [%s]"), pFilePath);

  0006f	4c 8b 4c 24 40	 mov	 r9, QWORD PTR pFilePath$[rsp]
  00074	4c 8d 05 00 00
	00 00		 lea	 r8, OFFSET FLAT:$SG86906
  0007b	ba 05 00 00 00	 mov	 edx, 5
  00080	48 8d 0d 00 00
	00 00		 lea	 rcx, OFFSET FLAT:?gs_cLogger@@3VCLogger@@A ; gs_cLogger
  00087	e8 00 00 00 00	 call	 ?PutLogQueue@CLogger@@QEAAXHPEBDZZ ; CLogger::PutLogQueue

; 824  : 			return false;

  0008c	32 c0		 xor	 al, al
  0008e	eb 74		 jmp	 SHORT $LN1@add
$LN6@add:
$LN5@add:

; 825  : 		}
; 826  : 	}
; 827  : 
; 828  : 	for (i = 0; i < nLoopCnt; i++) {

  00090	c7 44 24 20 00
	00 00 00	 mov	 DWORD PTR i$[rsp], 0
  00098	eb 0a		 jmp	 SHORT $LN4@add
$LN2@add:
  0009a	8b 44 24 20	 mov	 eax, DWORD PTR i$[rsp]
  0009e	ff c0		 inc	 eax
  000a0	89 44 24 20	 mov	 DWORD PTR i$[rsp], eax
$LN4@add:
  000a4	8b 44 24 48	 mov	 eax, DWORD PTR nLoopCnt$[rsp]
  000a8	39 44 24 20	 cmp	 DWORD PTR i$[rsp], eax
  000ac	7d 3e		 jge	 SHORT $LN3@add

; 829  : 		fwrite(pBuf[i].pBlock, g_nChSize, _tcslen(pBuf[i].pBlock), pFile);

  000ae	48 63 44 24 20	 movsxd	 rax, DWORD PTR i$[rsp]
  000b3	48 6b c0 10	 imul	 rax, rax, 16
  000b7	48 8b 4c 24 50	 mov	 rcx, QWORD PTR pBuf$[rsp]
  000bc	48 8b 0c 01	 mov	 rcx, QWORD PTR [rcx+rax]
  000c0	e8 00 00 00 00	 call	 strlen
  000c5	48 63 4c 24 20	 movsxd	 rcx, DWORD PTR i$[rsp]
  000ca	48 6b c9 10	 imul	 rcx, rcx, 16
  000ce	4c 8b 4c 24 28	 mov	 r9, QWORD PTR pFile$[rsp]
  000d3	4c 8b c0	 mov	 r8, rax
  000d6	ba 01 00 00 00	 mov	 edx, 1
  000db	48 8b 44 24 50	 mov	 rax, QWORD PTR pBuf$[rsp]
  000e0	48 8b 0c 08	 mov	 rcx, QWORD PTR [rax+rcx]
  000e4	ff 15 00 00 00
	00		 call	 QWORD PTR __imp_fwrite

; 830  : 		//_ftprintf(pBackup, pBuf[i]);
; 831  : 	}

  000ea	eb ae		 jmp	 SHORT $LN2@add
$LN3@add:

; 832  : 	fflush(pFile);

  000ec	48 8b 4c 24 28	 mov	 rcx, QWORD PTR pFile$[rsp]
  000f1	ff 15 00 00 00
	00		 call	 QWORD PTR __imp_fflush

; 833  : 	fclose(pFile);

  000f7	48 8b 4c 24 28	 mov	 rcx, QWORD PTR pFile$[rsp]
  000fc	ff 15 00 00 00
	00		 call	 QWORD PTR __imp_fclose

; 834  : 	return true;

  00102	b0 01		 mov	 al, 1
$LN1@add:

; 835  : 
; 836  : }

  00104	48 83 c4 30	 add	 rsp, 48			; 00000030H
  00108	5f		 pop	 rdi
  00109	c3		 ret	 0
?add@CFileUtil@@SA_NPEADHPEAUSTFileMem@@@Z ENDP		; CFileUtil::add
_TEXT	ENDS
; Function compile flags: /Odtp /RTCsu
; File e:\infinia-library-3.0\com\src\comfileutil.cpp
_TEXT	SEGMENT
i$ = 32
pFile$ = 40
pFilePath$ = 64
nLoopCnt$ = 72
pBuf$ = 80
?modify@CFileUtil@@SA_NPEADHPEAUSTFileMem@@@Z PROC	; CFileUtil::modify

; 789  : {

$LN8:
  00000	4c 89 44 24 18	 mov	 QWORD PTR [rsp+24], r8
  00005	89 54 24 10	 mov	 DWORD PTR [rsp+16], edx
  00009	48 89 4c 24 08	 mov	 QWORD PTR [rsp+8], rcx
  0000e	57		 push	 rdi
  0000f	48 83 ec 30	 sub	 rsp, 48			; 00000030H
  00013	48 8b fc	 mov	 rdi, rsp
  00016	b9 0c 00 00 00	 mov	 ecx, 12
  0001b	b8 cc cc cc cc	 mov	 eax, -858993460		; ccccccccH
  00020	f3 ab		 rep stosd
  00022	48 8b 4c 24 40	 mov	 rcx, QWORD PTR [rsp+64]

; 790  : 	int i;
; 791  : 	FILE *pFile = _tfopen(pFilePath, _T("w"));

  00027	48 8d 15 00 00
	00 00		 lea	 rdx, OFFSET FLAT:$SG86887
  0002e	48 8b 4c 24 40	 mov	 rcx, QWORD PTR pFilePath$[rsp]
  00033	ff 15 00 00 00
	00		 call	 QWORD PTR __imp_fopen
  00039	48 89 44 24 28	 mov	 QWORD PTR pFile$[rsp], rax

; 792  : 
; 793  : 	if (!pFile) {

  0003e	48 83 7c 24 28
	00		 cmp	 QWORD PTR pFile$[rsp], 0
  00044	75 4a		 jne	 SHORT $LN5@modify

; 794  : 
; 795  : 		CFileUtil::MakeDirectory(pFilePath);

  00046	48 8b 4c 24 40	 mov	 rcx, QWORD PTR pFilePath$[rsp]
  0004b	e8 00 00 00 00	 call	 ?MakeDirectory@CFileUtil@@SA_NPEBD@Z ; CFileUtil::MakeDirectory

; 796  : 		pFile = _tfopen(pFilePath, _T("w"));

  00050	48 8d 15 00 00
	00 00		 lea	 rdx, OFFSET FLAT:$SG86889
  00057	48 8b 4c 24 40	 mov	 rcx, QWORD PTR pFilePath$[rsp]
  0005c	ff 15 00 00 00
	00		 call	 QWORD PTR __imp_fopen
  00062	48 89 44 24 28	 mov	 QWORD PTR pFile$[rsp], rax

; 797  : 
; 798  : 		if (!pFile) {

  00067	48 83 7c 24 28
	00		 cmp	 QWORD PTR pFile$[rsp], 0
  0006d	75 21		 jne	 SHORT $LN6@modify

; 799  : 			gs_cLogger.PutLogQueue(LEVEL_ERROR, _T("CDFSFile::modify pFile open FAIL [%s]"), pFilePath);

  0006f	4c 8b 4c 24 40	 mov	 r9, QWORD PTR pFilePath$[rsp]
  00074	4c 8d 05 00 00
	00 00		 lea	 r8, OFFSET FLAT:$SG86891
  0007b	ba 05 00 00 00	 mov	 edx, 5
  00080	48 8d 0d 00 00
	00 00		 lea	 rcx, OFFSET FLAT:?gs_cLogger@@3VCLogger@@A ; gs_cLogger
  00087	e8 00 00 00 00	 call	 ?PutLogQueue@CLogger@@QEAAXHPEBDZZ ; CLogger::PutLogQueue

; 800  : 			return false;

  0008c	32 c0		 xor	 al, al
  0008e	eb 74		 jmp	 SHORT $LN1@modify
$LN6@modify:
$LN5@modify:

; 801  : 		}
; 802  : 	}
; 803  : 
; 804  : 	for (i = 0; i < nLoopCnt; i++) {

  00090	c7 44 24 20 00
	00 00 00	 mov	 DWORD PTR i$[rsp], 0
  00098	eb 0a		 jmp	 SHORT $LN4@modify
$LN2@modify:
  0009a	8b 44 24 20	 mov	 eax, DWORD PTR i$[rsp]
  0009e	ff c0		 inc	 eax
  000a0	89 44 24 20	 mov	 DWORD PTR i$[rsp], eax
$LN4@modify:
  000a4	8b 44 24 48	 mov	 eax, DWORD PTR nLoopCnt$[rsp]
  000a8	39 44 24 20	 cmp	 DWORD PTR i$[rsp], eax
  000ac	7d 3e		 jge	 SHORT $LN3@modify

; 805  : 		fwrite(pBuf[i].pBlock, g_nChSize, _tcslen(pBuf[i].pBlock), pFile);

  000ae	48 63 44 24 20	 movsxd	 rax, DWORD PTR i$[rsp]
  000b3	48 6b c0 10	 imul	 rax, rax, 16
  000b7	48 8b 4c 24 50	 mov	 rcx, QWORD PTR pBuf$[rsp]
  000bc	48 8b 0c 01	 mov	 rcx, QWORD PTR [rcx+rax]
  000c0	e8 00 00 00 00	 call	 strlen
  000c5	48 63 4c 24 20	 movsxd	 rcx, DWORD PTR i$[rsp]
  000ca	48 6b c9 10	 imul	 rcx, rcx, 16
  000ce	4c 8b 4c 24 28	 mov	 r9, QWORD PTR pFile$[rsp]
  000d3	4c 8b c0	 mov	 r8, rax
  000d6	ba 01 00 00 00	 mov	 edx, 1
  000db	48 8b 44 24 50	 mov	 rax, QWORD PTR pBuf$[rsp]
  000e0	48 8b 0c 08	 mov	 rcx, QWORD PTR [rax+rcx]
  000e4	ff 15 00 00 00
	00		 call	 QWORD PTR __imp_fwrite

; 806  : 		//_ftprintf(pBackup, pBuf[i]);
; 807  : 	}

  000ea	eb ae		 jmp	 SHORT $LN2@modify
$LN3@modify:

; 808  : 	fflush(pFile);

  000ec	48 8b 4c 24 28	 mov	 rcx, QWORD PTR pFile$[rsp]
  000f1	ff 15 00 00 00
	00		 call	 QWORD PTR __imp_fflush

; 809  : 	fclose(pFile);

  000f7	48 8b 4c 24 28	 mov	 rcx, QWORD PTR pFile$[rsp]
  000fc	ff 15 00 00 00
	00		 call	 QWORD PTR __imp_fclose

; 810  : 	return true;

  00102	b0 01		 mov	 al, 1
$LN1@modify:

; 811  : }

  00104	48 83 c4 30	 add	 rsp, 48			; 00000030H
  00108	5f		 pop	 rdi
  00109	c3		 ret	 0
?modify@CFileUtil@@SA_NPEADHPEAUSTFileMem@@@Z ENDP	; CFileUtil::modify
_TEXT	ENDS
; Function compile flags: /Odtp /RTCsu
; File e:\infinia-library-3.0\com\src\comfileutil.cpp
_TEXT	SEGMENT
pFile$ = 32
nSize$ = 40
pFilePath$ = 64
pBuf$ = 72
nMaxBuf$ = 80
nPos$ = 88
?nextRead@CFileUtil@@SAHPEAD0HH@Z PROC			; CFileUtil::nextRead

; 772  : {

$LN4:
  00000	44 89 4c 24 20	 mov	 DWORD PTR [rsp+32], r9d
  00005	44 89 44 24 18	 mov	 DWORD PTR [rsp+24], r8d
  0000a	48 89 54 24 10	 mov	 QWORD PTR [rsp+16], rdx
  0000f	48 89 4c 24 08	 mov	 QWORD PTR [rsp+8], rcx
  00014	57		 push	 rdi
  00015	48 83 ec 30	 sub	 rsp, 48			; 00000030H
  00019	48 8b fc	 mov	 rdi, rsp
  0001c	b9 0c 00 00 00	 mov	 ecx, 12
  00021	b8 cc cc cc cc	 mov	 eax, -858993460		; ccccccccH
  00026	f3 ab		 rep stosd
  00028	48 8b 4c 24 40	 mov	 rcx, QWORD PTR [rsp+64]

; 773  : 	FILE *pFile = _tfopen(pFilePath, _T("rb"));

  0002d	48 8d 15 00 00
	00 00		 lea	 rdx, OFFSET FLAT:$SG86874
  00034	48 8b 4c 24 40	 mov	 rcx, QWORD PTR pFilePath$[rsp]
  00039	ff 15 00 00 00
	00		 call	 QWORD PTR __imp_fopen
  0003f	48 89 44 24 20	 mov	 QWORD PTR pFile$[rsp], rax

; 774  : 	if (!pFile) {

  00044	48 83 7c 24 20
	00		 cmp	 QWORD PTR pFile$[rsp], 0
  0004a	75 21		 jne	 SHORT $LN2@nextRead

; 775  : 		gs_cLogger.PutLogQueue(LEVEL_ERROR, _T("CDFSFile::nextRead pFile open FAIL [%s]"), pFilePath);

  0004c	4c 8b 4c 24 40	 mov	 r9, QWORD PTR pFilePath$[rsp]
  00051	4c 8d 05 00 00
	00 00		 lea	 r8, OFFSET FLAT:$SG86876
  00058	ba 05 00 00 00	 mov	 edx, 5
  0005d	48 8d 0d 00 00
	00 00		 lea	 rcx, OFFSET FLAT:?gs_cLogger@@3VCLogger@@A ; gs_cLogger
  00064	e8 00 00 00 00	 call	 ?PutLogQueue@CLogger@@QEAAXHPEBDZZ ; CLogger::PutLogQueue

; 776  : 		return 0;

  00069	33 c0		 xor	 eax, eax
  0006b	eb 50		 jmp	 SHORT $LN1@nextRead
$LN2@nextRead:

; 777  : 	}
; 778  : 
; 779  : 	fseek(pFile, nPos*g_nChSize, SEEK_SET);

  0006d	45 33 c0	 xor	 r8d, r8d
  00070	8b 54 24 58	 mov	 edx, DWORD PTR nPos$[rsp]
  00074	48 8b 4c 24 20	 mov	 rcx, QWORD PTR pFile$[rsp]
  00079	ff 15 00 00 00
	00		 call	 QWORD PTR __imp_fseek

; 780  : 
; 781  : 	int nSize = (int)fread(pBuf, g_nChSize, nMaxBuf, pFile);

  0007f	48 63 44 24 50	 movsxd	 rax, DWORD PTR nMaxBuf$[rsp]
  00084	4c 8b 4c 24 20	 mov	 r9, QWORD PTR pFile$[rsp]
  00089	4c 8b c0	 mov	 r8, rax
  0008c	ba 01 00 00 00	 mov	 edx, 1
  00091	48 8b 4c 24 48	 mov	 rcx, QWORD PTR pBuf$[rsp]
  00096	ff 15 00 00 00
	00		 call	 QWORD PTR __imp_fread
  0009c	89 44 24 28	 mov	 DWORD PTR nSize$[rsp], eax

; 782  : 	pBuf[nSize] = 0;

  000a0	48 63 44 24 28	 movsxd	 rax, DWORD PTR nSize$[rsp]
  000a5	48 8b 4c 24 48	 mov	 rcx, QWORD PTR pBuf$[rsp]
  000aa	c6 04 01 00	 mov	 BYTE PTR [rcx+rax], 0

; 783  : 	fclose(pFile);

  000ae	48 8b 4c 24 20	 mov	 rcx, QWORD PTR pFile$[rsp]
  000b3	ff 15 00 00 00
	00		 call	 QWORD PTR __imp_fclose

; 784  : 	return nSize;

  000b9	8b 44 24 28	 mov	 eax, DWORD PTR nSize$[rsp]
$LN1@nextRead:

; 785  : }

  000bd	48 83 c4 30	 add	 rsp, 48			; 00000030H
  000c1	5f		 pop	 rdi
  000c2	c3		 ret	 0
?nextRead@CFileUtil@@SAHPEAD0HH@Z ENDP			; CFileUtil::nextRead
_TEXT	ENDS
; Function compile flags: /Odtp /RTCsu
; File e:\infinia-library-3.0\com\src\comfileutil.cpp
_TEXT	SEGMENT
i$ = 32
nTot$ = 36
nEndSize$ = 40
nReadSize$ = 44
pFile$ = 48
pFilePath$ = 80
nLoopCnt$ = 88
nMaxBuf$ = 96
pMem$ = 104
nPos$ = 112
ntotSize$ = 120
?nextReadLoop@CFileUtil@@SAHPEADHHPEAUSTFileMem@@HH@Z PROC ; CFileUtil::nextReadLoop

; 733  : {

$LN13:
  00000	4c 89 4c 24 20	 mov	 QWORD PTR [rsp+32], r9
  00005	44 89 44 24 18	 mov	 DWORD PTR [rsp+24], r8d
  0000a	89 54 24 10	 mov	 DWORD PTR [rsp+16], edx
  0000e	48 89 4c 24 08	 mov	 QWORD PTR [rsp+8], rcx
  00013	57		 push	 rdi
  00014	48 83 ec 40	 sub	 rsp, 64			; 00000040H
  00018	48 8b fc	 mov	 rdi, rsp
  0001b	b9 10 00 00 00	 mov	 ecx, 16
  00020	b8 cc cc cc cc	 mov	 eax, -858993460		; ccccccccH
  00025	f3 ab		 rep stosd
  00027	48 8b 4c 24 50	 mov	 rcx, QWORD PTR [rsp+80]

; 734  : 	int i;
; 735  : 	int nTot = 0;

  0002c	c7 44 24 24 00
	00 00 00	 mov	 DWORD PTR nTot$[rsp], 0

; 736  : 	int nEndSize;
; 737  : 	int nReadSize;
; 738  : 
; 739  : 	FILE *pFile;
; 740  : 	for (i = 0; i < 3; i++) {

  00034	c7 44 24 20 00
	00 00 00	 mov	 DWORD PTR i$[rsp], 0
  0003c	eb 0a		 jmp	 SHORT $LN4@nextReadLo
$LN2@nextReadLo:
  0003e	8b 44 24 20	 mov	 eax, DWORD PTR i$[rsp]
  00042	ff c0		 inc	 eax
  00044	89 44 24 20	 mov	 DWORD PTR i$[rsp], eax
$LN4@nextReadLo:
  00048	83 7c 24 20 03	 cmp	 DWORD PTR i$[rsp], 3
  0004d	7d 23		 jge	 SHORT $LN3@nextReadLo

; 741  : 		pFile = _tfopen(pFilePath, _T("rb"));

  0004f	48 8d 15 00 00
	00 00		 lea	 rdx, OFFSET FLAT:$SG86859
  00056	48 8b 4c 24 50	 mov	 rcx, QWORD PTR pFilePath$[rsp]
  0005b	ff 15 00 00 00
	00		 call	 QWORD PTR __imp_fopen
  00061	48 89 44 24 30	 mov	 QWORD PTR pFile$[rsp], rax

; 742  : 		if (pFile) break;

  00066	48 83 7c 24 30
	00		 cmp	 QWORD PTR pFile$[rsp], 0
  0006c	74 02		 je	 SHORT $LN8@nextReadLo
  0006e	eb 02		 jmp	 SHORT $LN3@nextReadLo
$LN8@nextReadLo:

; 743  : 		//  
; 744  : 	}

  00070	eb cc		 jmp	 SHORT $LN2@nextReadLo
$LN3@nextReadLo:

; 745  : 	if (!pFile) {

  00072	48 83 7c 24 30
	00		 cmp	 QWORD PTR pFile$[rsp], 0
  00078	75 24		 jne	 SHORT $LN9@nextReadLo

; 746  : 		gs_cLogger.PutLogQueue(LEVEL_ERROR, _T("CDFSFile::nextReadLoop pFile open FAIL [%s]"), pFilePath);

  0007a	4c 8b 4c 24 50	 mov	 r9, QWORD PTR pFilePath$[rsp]
  0007f	4c 8d 05 00 00
	00 00		 lea	 r8, OFFSET FLAT:$SG86862
  00086	ba 05 00 00 00	 mov	 edx, 5
  0008b	48 8d 0d 00 00
	00 00		 lea	 rcx, OFFSET FLAT:?gs_cLogger@@3VCLogger@@A ; gs_cLogger
  00092	e8 00 00 00 00	 call	 ?PutLogQueue@CLogger@@QEAAXHPEBDZZ ; CLogger::PutLogQueue

; 747  : 		return 0;

  00097	33 c0		 xor	 eax, eax
  00099	e9 1b 01 00 00	 jmp	 $LN1@nextReadLo
$LN9@nextReadLo:

; 748  : 	}
; 749  : 
; 750  : 	fseek(pFile, nPos*g_nChSize, SEEK_SET);

  0009e	45 33 c0	 xor	 r8d, r8d
  000a1	8b 54 24 70	 mov	 edx, DWORD PTR nPos$[rsp]
  000a5	48 8b 4c 24 30	 mov	 rcx, QWORD PTR pFile$[rsp]
  000aa	ff 15 00 00 00
	00		 call	 QWORD PTR __imp_fseek

; 751  : 
; 752  : 	for (i = 0; i < nLoopCnt; i++) {

  000b0	c7 44 24 20 00
	00 00 00	 mov	 DWORD PTR i$[rsp], 0
  000b8	eb 0a		 jmp	 SHORT $LN7@nextReadLo
$LN5@nextReadLo:
  000ba	8b 44 24 20	 mov	 eax, DWORD PTR i$[rsp]
  000be	ff c0		 inc	 eax
  000c0	89 44 24 20	 mov	 DWORD PTR i$[rsp], eax
$LN7@nextReadLo:
  000c4	8b 44 24 58	 mov	 eax, DWORD PTR nLoopCnt$[rsp]
  000c8	39 44 24 20	 cmp	 DWORD PTR i$[rsp], eax
  000cc	0f 8d d8 00 00
	00		 jge	 $LN6@nextReadLo

; 753  : 		if (i == nLoopCnt - 1) {

  000d2	8b 44 24 58	 mov	 eax, DWORD PTR nLoopCnt$[rsp]
  000d6	ff c8		 dec	 eax
  000d8	39 44 24 20	 cmp	 DWORD PTR i$[rsp], eax
  000dc	75 6b		 jne	 SHORT $LN10@nextReadLo

; 754  : 			nEndSize = ntotSize - nTot;

  000de	8b 44 24 24	 mov	 eax, DWORD PTR nTot$[rsp]
  000e2	8b 4c 24 78	 mov	 ecx, DWORD PTR ntotSize$[rsp]
  000e6	2b c8		 sub	 ecx, eax
  000e8	8b c1		 mov	 eax, ecx
  000ea	89 44 24 28	 mov	 DWORD PTR nEndSize$[rsp], eax

; 755  : 			nReadSize = (int)fread(pMem[i].pBlock, g_nChSize, nEndSize, pFile);

  000ee	48 63 44 24 28	 movsxd	 rax, DWORD PTR nEndSize$[rsp]
  000f3	48 63 4c 24 20	 movsxd	 rcx, DWORD PTR i$[rsp]
  000f8	48 6b c9 10	 imul	 rcx, rcx, 16
  000fc	4c 8b 4c 24 30	 mov	 r9, QWORD PTR pFile$[rsp]
  00101	4c 8b c0	 mov	 r8, rax
  00104	ba 01 00 00 00	 mov	 edx, 1
  00109	48 8b 44 24 68	 mov	 rax, QWORD PTR pMem$[rsp]
  0010e	48 8b 0c 08	 mov	 rcx, QWORD PTR [rax+rcx]
  00112	ff 15 00 00 00
	00		 call	 QWORD PTR __imp_fread
  00118	89 44 24 2c	 mov	 DWORD PTR nReadSize$[rsp], eax

; 756  : 			nTot += nReadSize;

  0011c	8b 44 24 2c	 mov	 eax, DWORD PTR nReadSize$[rsp]
  00120	8b 4c 24 24	 mov	 ecx, DWORD PTR nTot$[rsp]
  00124	03 c8		 add	 ecx, eax
  00126	8b c1		 mov	 eax, ecx
  00128	89 44 24 24	 mov	 DWORD PTR nTot$[rsp], eax

; 757  : 			pMem[i].pBlock[nReadSize] = 0;

  0012c	48 63 44 24 20	 movsxd	 rax, DWORD PTR i$[rsp]
  00131	48 6b c0 10	 imul	 rax, rax, 16
  00135	48 63 4c 24 2c	 movsxd	 rcx, DWORD PTR nReadSize$[rsp]
  0013a	48 8b 54 24 68	 mov	 rdx, QWORD PTR pMem$[rsp]
  0013f	48 8b 04 02	 mov	 rax, QWORD PTR [rdx+rax]
  00143	c6 04 08 00	 mov	 BYTE PTR [rax+rcx], 0

; 758  : 		}
; 759  : 		else {

  00147	eb 5c		 jmp	 SHORT $LN11@nextReadLo
$LN10@nextReadLo:

; 760  : 			nReadSize = (int)fread(pMem[i].pBlock, g_nChSize, nMaxBuf - 1, pFile);

  00149	8b 44 24 60	 mov	 eax, DWORD PTR nMaxBuf$[rsp]
  0014d	ff c8		 dec	 eax
  0014f	48 98		 cdqe
  00151	48 63 4c 24 20	 movsxd	 rcx, DWORD PTR i$[rsp]
  00156	48 6b c9 10	 imul	 rcx, rcx, 16
  0015a	4c 8b 4c 24 30	 mov	 r9, QWORD PTR pFile$[rsp]
  0015f	4c 8b c0	 mov	 r8, rax
  00162	ba 01 00 00 00	 mov	 edx, 1
  00167	48 8b 44 24 68	 mov	 rax, QWORD PTR pMem$[rsp]
  0016c	48 8b 0c 08	 mov	 rcx, QWORD PTR [rax+rcx]
  00170	ff 15 00 00 00
	00		 call	 QWORD PTR __imp_fread
  00176	89 44 24 2c	 mov	 DWORD PTR nReadSize$[rsp], eax

; 761  : 			nTot += nReadSize;

  0017a	8b 44 24 2c	 mov	 eax, DWORD PTR nReadSize$[rsp]
  0017e	8b 4c 24 24	 mov	 ecx, DWORD PTR nTot$[rsp]
  00182	03 c8		 add	 ecx, eax
  00184	8b c1		 mov	 eax, ecx
  00186	89 44 24 24	 mov	 DWORD PTR nTot$[rsp], eax

; 762  : 			pMem[i].pBlock[nReadSize] = 0;

  0018a	48 63 44 24 20	 movsxd	 rax, DWORD PTR i$[rsp]
  0018f	48 6b c0 10	 imul	 rax, rax, 16
  00193	48 63 4c 24 2c	 movsxd	 rcx, DWORD PTR nReadSize$[rsp]
  00198	48 8b 54 24 68	 mov	 rdx, QWORD PTR pMem$[rsp]
  0019d	48 8b 04 02	 mov	 rax, QWORD PTR [rdx+rax]
  001a1	c6 04 08 00	 mov	 BYTE PTR [rax+rcx], 0
$LN11@nextReadLo:

; 763  : 		}
; 764  : 	}

  001a5	e9 10 ff ff ff	 jmp	 $LN5@nextReadLo
$LN6@nextReadLo:

; 765  : 	fclose(pFile);

  001aa	48 8b 4c 24 30	 mov	 rcx, QWORD PTR pFile$[rsp]
  001af	ff 15 00 00 00
	00		 call	 QWORD PTR __imp_fclose

; 766  : 
; 767  : 	return nTot;

  001b5	8b 44 24 24	 mov	 eax, DWORD PTR nTot$[rsp]
$LN1@nextReadLo:

; 768  : }

  001b9	48 83 c4 40	 add	 rsp, 64			; 00000040H
  001bd	5f		 pop	 rdi
  001be	c3		 ret	 0
?nextReadLoop@CFileUtil@@SAHPEADHHPEAUSTFileMem@@HH@Z ENDP ; CFileUtil::nextReadLoop
_TEXT	ENDS
; Function compile flags: /Odtp /RTCsu
; File e:\infinia-library-3.0\com\src\comfileutil.cpp
_TEXT	SEGMENT
i$ = 32
nTot$ = 36
nEndSize$ = 40
nReadSize$ = 44
pFile$ = 48
pFilePath$ = 80
nLoopCnt$ = 88
nMaxBuf$ = 96
pMem$ = 104
ntotSize$ = 112
?readLoop@CFileUtil@@SAHPEADHHPEAUSTFileMem@@H@Z PROC	; CFileUtil::readLoop

; 703  : {

$LN9:
  00000	4c 89 4c 24 20	 mov	 QWORD PTR [rsp+32], r9
  00005	44 89 44 24 18	 mov	 DWORD PTR [rsp+24], r8d
  0000a	89 54 24 10	 mov	 DWORD PTR [rsp+16], edx
  0000e	48 89 4c 24 08	 mov	 QWORD PTR [rsp+8], rcx
  00013	57		 push	 rdi
  00014	48 83 ec 40	 sub	 rsp, 64			; 00000040H
  00018	48 8b fc	 mov	 rdi, rsp
  0001b	b9 10 00 00 00	 mov	 ecx, 16
  00020	b8 cc cc cc cc	 mov	 eax, -858993460		; ccccccccH
  00025	f3 ab		 rep stosd
  00027	48 8b 4c 24 50	 mov	 rcx, QWORD PTR [rsp+80]

; 704  : 	int i;
; 705  : 	int nTot = 0, nEndSize;

  0002c	c7 44 24 24 00
	00 00 00	 mov	 DWORD PTR nTot$[rsp], 0

; 706  : 	int nReadSize;
; 707  : 
; 708  : 	FILE *pFile;
; 709  : 	pFile = _tfopen(pFilePath, _T("rb"));

  00034	48 8d 15 00 00
	00 00		 lea	 rdx, OFFSET FLAT:$SG86833
  0003b	48 8b 4c 24 50	 mov	 rcx, QWORD PTR pFilePath$[rsp]
  00040	ff 15 00 00 00
	00		 call	 QWORD PTR __imp_fopen
  00046	48 89 44 24 30	 mov	 QWORD PTR pFile$[rsp], rax

; 710  : 	if (!pFile) {

  0004b	48 83 7c 24 30
	00		 cmp	 QWORD PTR pFile$[rsp], 0
  00051	75 24		 jne	 SHORT $LN5@readLoop

; 711  : 		gs_cLogger.PutLogQueue(LEVEL_ERROR, _T("CDFSFile::readLoop pFile open FAIL [%s]"), pFilePath);

  00053	4c 8b 4c 24 50	 mov	 r9, QWORD PTR pFilePath$[rsp]
  00058	4c 8d 05 00 00
	00 00		 lea	 r8, OFFSET FLAT:$SG86835
  0005f	ba 05 00 00 00	 mov	 edx, 5
  00064	48 8d 0d 00 00
	00 00		 lea	 rcx, OFFSET FLAT:?gs_cLogger@@3VCLogger@@A ; gs_cLogger
  0006b	e8 00 00 00 00	 call	 ?PutLogQueue@CLogger@@QEAAXHPEBDZZ ; CLogger::PutLogQueue

; 712  : 		return 0;

  00070	33 c0		 xor	 eax, eax
  00072	e9 09 01 00 00	 jmp	 $LN1@readLoop
$LN5@readLoop:

; 713  : 	}
; 714  : 
; 715  : 	for (i = 0; i < nLoopCnt; i++) {

  00077	c7 44 24 20 00
	00 00 00	 mov	 DWORD PTR i$[rsp], 0
  0007f	eb 0a		 jmp	 SHORT $LN4@readLoop
$LN2@readLoop:
  00081	8b 44 24 20	 mov	 eax, DWORD PTR i$[rsp]
  00085	ff c0		 inc	 eax
  00087	89 44 24 20	 mov	 DWORD PTR i$[rsp], eax
$LN4@readLoop:
  0008b	8b 44 24 58	 mov	 eax, DWORD PTR nLoopCnt$[rsp]
  0008f	39 44 24 20	 cmp	 DWORD PTR i$[rsp], eax
  00093	0f 8d d8 00 00
	00		 jge	 $LN3@readLoop

; 716  : 		if (i == nLoopCnt - 1) {

  00099	8b 44 24 58	 mov	 eax, DWORD PTR nLoopCnt$[rsp]
  0009d	ff c8		 dec	 eax
  0009f	39 44 24 20	 cmp	 DWORD PTR i$[rsp], eax
  000a3	75 6b		 jne	 SHORT $LN6@readLoop

; 717  : 			nEndSize = ntotSize - nTot;

  000a5	8b 44 24 24	 mov	 eax, DWORD PTR nTot$[rsp]
  000a9	8b 4c 24 70	 mov	 ecx, DWORD PTR ntotSize$[rsp]
  000ad	2b c8		 sub	 ecx, eax
  000af	8b c1		 mov	 eax, ecx
  000b1	89 44 24 28	 mov	 DWORD PTR nEndSize$[rsp], eax

; 718  : 			nReadSize = (int)fread(pMem[i].pBlock, g_nChSize, nEndSize, pFile);

  000b5	48 63 44 24 28	 movsxd	 rax, DWORD PTR nEndSize$[rsp]
  000ba	48 63 4c 24 20	 movsxd	 rcx, DWORD PTR i$[rsp]
  000bf	48 6b c9 10	 imul	 rcx, rcx, 16
  000c3	4c 8b 4c 24 30	 mov	 r9, QWORD PTR pFile$[rsp]
  000c8	4c 8b c0	 mov	 r8, rax
  000cb	ba 01 00 00 00	 mov	 edx, 1
  000d0	48 8b 44 24 68	 mov	 rax, QWORD PTR pMem$[rsp]
  000d5	48 8b 0c 08	 mov	 rcx, QWORD PTR [rax+rcx]
  000d9	ff 15 00 00 00
	00		 call	 QWORD PTR __imp_fread
  000df	89 44 24 2c	 mov	 DWORD PTR nReadSize$[rsp], eax

; 719  : 			nTot += nReadSize;

  000e3	8b 44 24 2c	 mov	 eax, DWORD PTR nReadSize$[rsp]
  000e7	8b 4c 24 24	 mov	 ecx, DWORD PTR nTot$[rsp]
  000eb	03 c8		 add	 ecx, eax
  000ed	8b c1		 mov	 eax, ecx
  000ef	89 44 24 24	 mov	 DWORD PTR nTot$[rsp], eax

; 720  : 			pMem[i].pBlock[nReadSize] = 0;

  000f3	48 63 44 24 20	 movsxd	 rax, DWORD PTR i$[rsp]
  000f8	48 6b c0 10	 imul	 rax, rax, 16
  000fc	48 63 4c 24 2c	 movsxd	 rcx, DWORD PTR nReadSize$[rsp]
  00101	48 8b 54 24 68	 mov	 rdx, QWORD PTR pMem$[rsp]
  00106	48 8b 04 02	 mov	 rax, QWORD PTR [rdx+rax]
  0010a	c6 04 08 00	 mov	 BYTE PTR [rax+rcx], 0

; 721  : 		}
; 722  : 		else {

  0010e	eb 5c		 jmp	 SHORT $LN7@readLoop
$LN6@readLoop:

; 723  : 			nReadSize = (int)fread(pMem[i].pBlock, g_nChSize, nMaxBuf - 1, pFile);

  00110	8b 44 24 60	 mov	 eax, DWORD PTR nMaxBuf$[rsp]
  00114	ff c8		 dec	 eax
  00116	48 98		 cdqe
  00118	48 63 4c 24 20	 movsxd	 rcx, DWORD PTR i$[rsp]
  0011d	48 6b c9 10	 imul	 rcx, rcx, 16
  00121	4c 8b 4c 24 30	 mov	 r9, QWORD PTR pFile$[rsp]
  00126	4c 8b c0	 mov	 r8, rax
  00129	ba 01 00 00 00	 mov	 edx, 1
  0012e	48 8b 44 24 68	 mov	 rax, QWORD PTR pMem$[rsp]
  00133	48 8b 0c 08	 mov	 rcx, QWORD PTR [rax+rcx]
  00137	ff 15 00 00 00
	00		 call	 QWORD PTR __imp_fread
  0013d	89 44 24 2c	 mov	 DWORD PTR nReadSize$[rsp], eax

; 724  : 			nTot += nReadSize;

  00141	8b 44 24 2c	 mov	 eax, DWORD PTR nReadSize$[rsp]
  00145	8b 4c 24 24	 mov	 ecx, DWORD PTR nTot$[rsp]
  00149	03 c8		 add	 ecx, eax
  0014b	8b c1		 mov	 eax, ecx
  0014d	89 44 24 24	 mov	 DWORD PTR nTot$[rsp], eax

; 725  : 			pMem[i].pBlock[nReadSize] = 0;

  00151	48 63 44 24 20	 movsxd	 rax, DWORD PTR i$[rsp]
  00156	48 6b c0 10	 imul	 rax, rax, 16
  0015a	48 63 4c 24 2c	 movsxd	 rcx, DWORD PTR nReadSize$[rsp]
  0015f	48 8b 54 24 68	 mov	 rdx, QWORD PTR pMem$[rsp]
  00164	48 8b 04 02	 mov	 rax, QWORD PTR [rdx+rax]
  00168	c6 04 08 00	 mov	 BYTE PTR [rax+rcx], 0
$LN7@readLoop:

; 726  : 		}
; 727  : 	}

  0016c	e9 10 ff ff ff	 jmp	 $LN2@readLoop
$LN3@readLoop:

; 728  : 	fclose(pFile);

  00171	48 8b 4c 24 30	 mov	 rcx, QWORD PTR pFile$[rsp]
  00176	ff 15 00 00 00
	00		 call	 QWORD PTR __imp_fclose

; 729  : 	return nTot;

  0017c	8b 44 24 24	 mov	 eax, DWORD PTR nTot$[rsp]
$LN1@readLoop:

; 730  : }

  00180	48 83 c4 40	 add	 rsp, 64			; 00000040H
  00184	5f		 pop	 rdi
  00185	c3		 ret	 0
?readLoop@CFileUtil@@SAHPEADHHPEAUSTFileMem@@H@Z ENDP	; CFileUtil::readLoop
_TEXT	ENDS
; Function compile flags: /Odtp /RTCsu
; File e:\infinia-library-3.0\com\src\comfileutil.cpp
_TEXT	SEGMENT
i$ = 32
nTotSize$ = 36
pFile$ = 40
pFilePath$ = 64
nMaxBuf$ = 72
pLoopLen$ = 80
nPos$ = 88
?getFileSize2@CFileUtil@@SAHPEADHPEAHH@Z PROC		; CFileUtil::getFileSize2

; 676  : {

$LN5:
  00000	44 89 4c 24 20	 mov	 DWORD PTR [rsp+32], r9d
  00005	4c 89 44 24 18	 mov	 QWORD PTR [rsp+24], r8
  0000a	89 54 24 10	 mov	 DWORD PTR [rsp+16], edx
  0000e	48 89 4c 24 08	 mov	 QWORD PTR [rsp+8], rcx
  00013	57		 push	 rdi
  00014	48 83 ec 30	 sub	 rsp, 48			; 00000030H
  00018	48 8b fc	 mov	 rdi, rsp
  0001b	b9 0c 00 00 00	 mov	 ecx, 12
  00020	b8 cc cc cc cc	 mov	 eax, -858993460		; ccccccccH
  00025	f3 ab		 rep stosd
  00027	48 8b 4c 24 40	 mov	 rcx, QWORD PTR [rsp+64]

; 677  : 	int i = 0;

  0002c	c7 44 24 20 00
	00 00 00	 mov	 DWORD PTR i$[rsp], 0

; 678  : 	int nTotSize;
; 679  : 	FILE *pFile;
; 680  : 
; 681  : 	pFile = _tfopen(pFilePath, _T("r"));

  00034	48 8d 15 00 00
	00 00		 lea	 rdx, OFFSET FLAT:$SG86813
  0003b	48 8b 4c 24 40	 mov	 rcx, QWORD PTR pFilePath$[rsp]
  00040	ff 15 00 00 00
	00		 call	 QWORD PTR __imp_fopen
  00046	48 89 44 24 28	 mov	 QWORD PTR pFile$[rsp], rax

; 682  : 	if (!pFile) {

  0004b	48 83 7c 24 28
	00		 cmp	 QWORD PTR pFile$[rsp], 0
  00051	75 04		 jne	 SHORT $LN2@getFileSiz

; 683  : 		return 0;

  00053	33 c0		 xor	 eax, eax
  00055	eb 73		 jmp	 SHORT $LN1@getFileSiz
$LN2@getFileSiz:

; 684  : 	}
; 685  : 
; 686  : 	fseek(pFile, 0, SEEK_END);

  00057	41 b8 02 00 00
	00		 mov	 r8d, 2
  0005d	33 d2		 xor	 edx, edx
  0005f	48 8b 4c 24 28	 mov	 rcx, QWORD PTR pFile$[rsp]
  00064	ff 15 00 00 00
	00		 call	 QWORD PTR __imp_fseek

; 687  : 	nTotSize = ftell(pFile);

  0006a	48 8b 4c 24 28	 mov	 rcx, QWORD PTR pFile$[rsp]
  0006f	ff 15 00 00 00
	00		 call	 QWORD PTR __imp_ftell
  00075	89 44 24 24	 mov	 DWORD PTR nTotSize$[rsp], eax

; 688  : 	fclose(pFile);

  00079	48 8b 4c 24 28	 mov	 rcx, QWORD PTR pFile$[rsp]
  0007e	ff 15 00 00 00
	00		 call	 QWORD PTR __imp_fclose

; 689  : 
; 690  : 	//if(!nMaxBuf) return nTotSize; 
; 691  : 
; 692  : 	nTotSize = nTotSize / g_nChSize - nPos;

  00084	8b 44 24 58	 mov	 eax, DWORD PTR nPos$[rsp]
  00088	8b 4c 24 24	 mov	 ecx, DWORD PTR nTotSize$[rsp]
  0008c	2b c8		 sub	 ecx, eax
  0008e	8b c1		 mov	 eax, ecx
  00090	89 44 24 24	 mov	 DWORD PTR nTotSize$[rsp], eax

; 693  : 
; 694  : 	*pLoopLen = (int)(nTotSize / nMaxBuf);

  00094	8b 44 24 24	 mov	 eax, DWORD PTR nTotSize$[rsp]
  00098	99		 cdq
  00099	f7 7c 24 48	 idiv	 DWORD PTR nMaxBuf$[rsp]
  0009d	48 8b 4c 24 50	 mov	 rcx, QWORD PTR pLoopLen$[rsp]
  000a2	89 01		 mov	 DWORD PTR [rcx], eax

; 695  : 	if (*pLoopLen * nMaxBuf < nTotSize) {

  000a4	48 8b 44 24 50	 mov	 rax, QWORD PTR pLoopLen$[rsp]
  000a9	8b 00		 mov	 eax, DWORD PTR [rax]
  000ab	0f af 44 24 48	 imul	 eax, DWORD PTR nMaxBuf$[rsp]
  000b0	3b 44 24 24	 cmp	 eax, DWORD PTR nTotSize$[rsp]
  000b4	7d 10		 jge	 SHORT $LN3@getFileSiz

; 696  : 		*pLoopLen += 1;

  000b6	48 8b 44 24 50	 mov	 rax, QWORD PTR pLoopLen$[rsp]
  000bb	8b 00		 mov	 eax, DWORD PTR [rax]
  000bd	ff c0		 inc	 eax
  000bf	48 8b 4c 24 50	 mov	 rcx, QWORD PTR pLoopLen$[rsp]
  000c4	89 01		 mov	 DWORD PTR [rcx], eax
$LN3@getFileSiz:

; 697  : 	}
; 698  : 	return nTotSize;

  000c6	8b 44 24 24	 mov	 eax, DWORD PTR nTotSize$[rsp]
$LN1@getFileSiz:

; 699  : }

  000ca	48 83 c4 30	 add	 rsp, 48			; 00000030H
  000ce	5f		 pop	 rdi
  000cf	c3		 ret	 0
?getFileSize2@CFileUtil@@SAHPEADHPEAHH@Z ENDP		; CFileUtil::getFileSize2
_TEXT	ENDS
; Function compile flags: /Odtp /RTCsu
; File e:\infinia-library-3.0\com\src\comfileutil.cpp
_TEXT	SEGMENT
pFile$ = 32
pFilePath$ = 64
nSize$ = 72
pBuf$ = 80
?modify@CFileUtil@@SA_NPEADH0@Z PROC			; CFileUtil::modify

; 653  : {

$LN5:
  00000	4c 89 44 24 18	 mov	 QWORD PTR [rsp+24], r8
  00005	89 54 24 10	 mov	 DWORD PTR [rsp+16], edx
  00009	48 89 4c 24 08	 mov	 QWORD PTR [rsp+8], rcx
  0000e	57		 push	 rdi
  0000f	48 83 ec 30	 sub	 rsp, 48			; 00000030H
  00013	48 8b fc	 mov	 rdi, rsp
  00016	b9 0c 00 00 00	 mov	 ecx, 12
  0001b	b8 cc cc cc cc	 mov	 eax, -858993460		; ccccccccH
  00020	f3 ab		 rep stosd
  00022	48 8b 4c 24 40	 mov	 rcx, QWORD PTR [rsp+64]

; 654  : 	FILE *pFile = _tfopen(pFilePath, _T("w"));

  00027	48 8d 15 00 00
	00 00		 lea	 rdx, OFFSET FLAT:$SG86798
  0002e	48 8b 4c 24 40	 mov	 rcx, QWORD PTR pFilePath$[rsp]
  00033	ff 15 00 00 00
	00		 call	 QWORD PTR __imp_fopen
  00039	48 89 44 24 20	 mov	 QWORD PTR pFile$[rsp], rax

; 655  : 
; 656  : 	if (!pFile) {

  0003e	48 83 7c 24 20
	00		 cmp	 QWORD PTR pFile$[rsp], 0
  00044	75 4a		 jne	 SHORT $LN2@modify

; 657  : 
; 658  : 		CFileUtil::MakeDirectory(pFilePath);

  00046	48 8b 4c 24 40	 mov	 rcx, QWORD PTR pFilePath$[rsp]
  0004b	e8 00 00 00 00	 call	 ?MakeDirectory@CFileUtil@@SA_NPEBD@Z ; CFileUtil::MakeDirectory

; 659  : 		pFile = _tfopen(pFilePath, _T("w"));

  00050	48 8d 15 00 00
	00 00		 lea	 rdx, OFFSET FLAT:$SG86800
  00057	48 8b 4c 24 40	 mov	 rcx, QWORD PTR pFilePath$[rsp]
  0005c	ff 15 00 00 00
	00		 call	 QWORD PTR __imp_fopen
  00062	48 89 44 24 20	 mov	 QWORD PTR pFile$[rsp], rax

; 660  : 
; 661  : 		if (!pFile) {

  00067	48 83 7c 24 20
	00		 cmp	 QWORD PTR pFile$[rsp], 0
  0006d	75 21		 jne	 SHORT $LN3@modify

; 662  : 			gs_cLogger.PutLogQueue(LEVEL_ERROR, _T("CFileUtil::modify pFile open FAIL [%s]"), pFilePath);

  0006f	4c 8b 4c 24 40	 mov	 r9, QWORD PTR pFilePath$[rsp]
  00074	4c 8d 05 00 00
	00 00		 lea	 r8, OFFSET FLAT:$SG86802
  0007b	ba 05 00 00 00	 mov	 edx, 5
  00080	48 8d 0d 00 00
	00 00		 lea	 rcx, OFFSET FLAT:?gs_cLogger@@3VCLogger@@A ; gs_cLogger
  00087	e8 00 00 00 00	 call	 ?PutLogQueue@CLogger@@QEAAXHPEBDZZ ; CLogger::PutLogQueue

; 663  : 			return false;

  0008c	32 c0		 xor	 al, al
  0008e	eb 35		 jmp	 SHORT $LN1@modify
$LN3@modify:
$LN2@modify:

; 664  : 		}
; 665  : 	}
; 666  : 
; 667  : 	fwrite(pBuf, g_nChSize, nSize, pFile);

  00090	48 63 44 24 48	 movsxd	 rax, DWORD PTR nSize$[rsp]
  00095	4c 8b 4c 24 20	 mov	 r9, QWORD PTR pFile$[rsp]
  0009a	4c 8b c0	 mov	 r8, rax
  0009d	ba 01 00 00 00	 mov	 edx, 1
  000a2	48 8b 4c 24 50	 mov	 rcx, QWORD PTR pBuf$[rsp]
  000a7	ff 15 00 00 00
	00		 call	 QWORD PTR __imp_fwrite

; 668  : 	fflush(pFile);

  000ad	48 8b 4c 24 20	 mov	 rcx, QWORD PTR pFile$[rsp]
  000b2	ff 15 00 00 00
	00		 call	 QWORD PTR __imp_fflush

; 669  : 	fclose(pFile);

  000b8	48 8b 4c 24 20	 mov	 rcx, QWORD PTR pFile$[rsp]
  000bd	ff 15 00 00 00
	00		 call	 QWORD PTR __imp_fclose

; 670  : 	return true;

  000c3	b0 01		 mov	 al, 1
$LN1@modify:

; 671  : }

  000c5	48 83 c4 30	 add	 rsp, 48			; 00000030H
  000c9	5f		 pop	 rdi
  000ca	c3		 ret	 0
?modify@CFileUtil@@SA_NPEADH0@Z ENDP			; CFileUtil::modify
_TEXT	ENDS
; Function compile flags: /Odtp /RTCsu
; File e:\infinia-library-3.0\com\src\comfileutil.cpp
_TEXT	SEGMENT
i$ = 32
res$ = 36
pFile$ = 40
tryCnt$ = 64
pFilePath$ = 72
pMode$ = 80
pSize$ = 88
?tryopen@CFileUtil@@SAPEAU_iobuf@@HPEADPEBDPEAH@Z PROC	; CFileUtil::tryopen

; 637  : {

$LN7:
  00000	4c 89 4c 24 20	 mov	 QWORD PTR [rsp+32], r9
  00005	4c 89 44 24 18	 mov	 QWORD PTR [rsp+24], r8
  0000a	48 89 54 24 10	 mov	 QWORD PTR [rsp+16], rdx
  0000f	89 4c 24 08	 mov	 DWORD PTR [rsp+8], ecx
  00013	57		 push	 rdi
  00014	48 83 ec 30	 sub	 rsp, 48			; 00000030H
  00018	48 8b fc	 mov	 rdi, rsp
  0001b	b9 0c 00 00 00	 mov	 ecx, 12
  00020	b8 cc cc cc cc	 mov	 eax, -858993460		; ccccccccH
  00025	f3 ab		 rep stosd
  00027	8b 4c 24 40	 mov	 ecx, DWORD PTR [rsp+64]

; 638  : 	int i, res;
; 639  : 	FILE *pFile;
; 640  : 	for (i = 0; i < tryCnt; i++) {

  0002b	c7 44 24 20 00
	00 00 00	 mov	 DWORD PTR i$[rsp], 0
  00033	eb 0a		 jmp	 SHORT $LN4@tryopen
$LN2@tryopen:
  00035	8b 44 24 20	 mov	 eax, DWORD PTR i$[rsp]
  00039	ff c0		 inc	 eax
  0003b	89 44 24 20	 mov	 DWORD PTR i$[rsp], eax
$LN4@tryopen:
  0003f	8b 44 24 40	 mov	 eax, DWORD PTR tryCnt$[rsp]
  00043	39 44 24 20	 cmp	 DWORD PTR i$[rsp], eax
  00047	7d 4f		 jge	 SHORT $LN3@tryopen

; 641  : 		pFile = _tfopen(pFilePath, pMode);

  00049	48 8b 54 24 50	 mov	 rdx, QWORD PTR pMode$[rsp]
  0004e	48 8b 4c 24 48	 mov	 rcx, QWORD PTR pFilePath$[rsp]
  00053	ff 15 00 00 00
	00		 call	 QWORD PTR __imp_fopen
  00059	48 89 44 24 28	 mov	 QWORD PTR pFile$[rsp], rax

; 642  : 		if (pFile) {

  0005e	48 83 7c 24 28
	00		 cmp	 QWORD PTR pFile$[rsp], 0
  00064	74 30		 je	 SHORT $LN5@tryopen

; 643  : 			res = fseek(pFile, 0, SEEK_END);

  00066	41 b8 02 00 00
	00		 mov	 r8d, 2
  0006c	33 d2		 xor	 edx, edx
  0006e	48 8b 4c 24 28	 mov	 rcx, QWORD PTR pFile$[rsp]
  00073	ff 15 00 00 00
	00		 call	 QWORD PTR __imp_fseek
  00079	89 44 24 24	 mov	 DWORD PTR res$[rsp], eax

; 644  : 			*pSize = ftell(pFile);

  0007d	48 8b 4c 24 28	 mov	 rcx, QWORD PTR pFile$[rsp]
  00082	ff 15 00 00 00
	00		 call	 QWORD PTR __imp_ftell
  00088	48 8b 4c 24 58	 mov	 rcx, QWORD PTR pSize$[rsp]
  0008d	89 01		 mov	 DWORD PTR [rcx], eax

; 645  : 			return pFile;

  0008f	48 8b 44 24 28	 mov	 rax, QWORD PTR pFile$[rsp]
  00094	eb 1c		 jmp	 SHORT $LN1@tryopen
$LN5@tryopen:

; 646  : 		}
; 647  : 		//  
; 648  : 	}

  00096	eb 9d		 jmp	 SHORT $LN2@tryopen
$LN3@tryopen:

; 649  : 	gs_cLogger.PutLogQueue(LEVEL_ERROR, _T("CFileUtil::tryopen pFile open FAIL"));

  00098	4c 8d 05 00 00
	00 00		 lea	 r8, OFFSET FLAT:$SG86791
  0009f	ba 05 00 00 00	 mov	 edx, 5
  000a4	48 8d 0d 00 00
	00 00		 lea	 rcx, OFFSET FLAT:?gs_cLogger@@3VCLogger@@A ; gs_cLogger
  000ab	e8 00 00 00 00	 call	 ?PutLogQueue@CLogger@@QEAAXHPEBDZZ ; CLogger::PutLogQueue

; 650  : 	return NULL;

  000b0	33 c0		 xor	 eax, eax
$LN1@tryopen:

; 651  : }

  000b2	48 83 c4 30	 add	 rsp, 48			; 00000030H
  000b6	5f		 pop	 rdi
  000b7	c3		 ret	 0
?tryopen@CFileUtil@@SAPEAU_iobuf@@HPEADPEBDPEAH@Z ENDP	; CFileUtil::tryopen
_TEXT	ENDS
; Function compile flags: /Odtp /RTCsu
; File e:\infinia-library-3.0\com\src\comfileutil.cpp
_TEXT	SEGMENT
nTotSize$ = 32
pFile$ = 40
pFilePath$ = 64
?getFileSize@CFileUtil@@SAHPEAD@Z PROC			; CFileUtil::getFileSize

; 621  : {

$LN4:
  00000	48 89 4c 24 08	 mov	 QWORD PTR [rsp+8], rcx
  00005	57		 push	 rdi
  00006	48 83 ec 30	 sub	 rsp, 48			; 00000030H
  0000a	48 8b fc	 mov	 rdi, rsp
  0000d	b9 0c 00 00 00	 mov	 ecx, 12
  00012	b8 cc cc cc cc	 mov	 eax, -858993460		; ccccccccH
  00017	f3 ab		 rep stosd
  00019	48 8b 4c 24 40	 mov	 rcx, QWORD PTR [rsp+64]

; 622  : 	int nTotSize;
; 623  : 	FILE *pFile;
; 624  : 
; 625  : 	pFile = _tfopen(pFilePath, _T("r"));

  0001e	48 8d 15 00 00
	00 00		 lea	 rdx, OFFSET FLAT:$SG86776
  00025	48 8b 4c 24 40	 mov	 rcx, QWORD PTR pFilePath$[rsp]
  0002a	ff 15 00 00 00
	00		 call	 QWORD PTR __imp_fopen
  00030	48 89 44 24 28	 mov	 QWORD PTR pFile$[rsp], rax

; 626  : 	if (!pFile) {

  00035	48 83 7c 24 28
	00		 cmp	 QWORD PTR pFile$[rsp], 0
  0003b	75 04		 jne	 SHORT $LN2@getFileSiz

; 627  : 		return 0;

  0003d	33 c0		 xor	 eax, eax
  0003f	eb 31		 jmp	 SHORT $LN1@getFileSiz
$LN2@getFileSiz:

; 628  : 	}
; 629  : 
; 630  : 	fseek(pFile, 0, SEEK_END);

  00041	41 b8 02 00 00
	00		 mov	 r8d, 2
  00047	33 d2		 xor	 edx, edx
  00049	48 8b 4c 24 28	 mov	 rcx, QWORD PTR pFile$[rsp]
  0004e	ff 15 00 00 00
	00		 call	 QWORD PTR __imp_fseek

; 631  : 	nTotSize = ftell(pFile);

  00054	48 8b 4c 24 28	 mov	 rcx, QWORD PTR pFile$[rsp]
  00059	ff 15 00 00 00
	00		 call	 QWORD PTR __imp_ftell
  0005f	89 44 24 20	 mov	 DWORD PTR nTotSize$[rsp], eax

; 632  : 	fclose(pFile);

  00063	48 8b 4c 24 28	 mov	 rcx, QWORD PTR pFile$[rsp]
  00068	ff 15 00 00 00
	00		 call	 QWORD PTR __imp_fclose

; 633  : 
; 634  : 	return nTotSize;

  0006e	8b 44 24 20	 mov	 eax, DWORD PTR nTotSize$[rsp]
$LN1@getFileSiz:

; 635  : }

  00072	48 83 c4 30	 add	 rsp, 48			; 00000030H
  00076	5f		 pop	 rdi
  00077	c3		 ret	 0
?getFileSize@CFileUtil@@SAHPEAD@Z ENDP			; CFileUtil::getFileSize
_TEXT	ENDS
; Function compile flags: /Odtp /RTCsu
; File e:\infinia-library-3.0\com\src\comfileutil.cpp
_TEXT	SEGMENT
nRes$1 = 32
error$2 = 36
pOldFileName$ = 64
pNewFileName$ = 72
?renameFile@CFileUtil@@SA_NPEBD0@Z PROC			; CFileUtil::renameFile

; 591  : {

$LN5:
  00000	48 89 54 24 10	 mov	 QWORD PTR [rsp+16], rdx
  00005	48 89 4c 24 08	 mov	 QWORD PTR [rsp+8], rcx
  0000a	57		 push	 rdi
  0000b	48 83 ec 30	 sub	 rsp, 48			; 00000030H
  0000f	48 8b fc	 mov	 rdi, rsp
  00012	b9 0c 00 00 00	 mov	 ecx, 12
  00017	b8 cc cc cc cc	 mov	 eax, -858993460		; ccccccccH
  0001c	f3 ab		 rep stosd
  0001e	48 8b 4c 24 40	 mov	 rcx, QWORD PTR [rsp+64]

; 592  : 	//TCHAR pNameBackup[255];
; 593  : 	//_stprintf(pNameBackup, _T("%s.BAK"), pFilePath);
; 594  : 
; 595  : 	if (com_isFile(pOldFileName))

  00023	48 8b 4c 24 40	 mov	 rcx, QWORD PTR pOldFileName$[rsp]
  00028	e8 00 00 00 00	 call	 ?com_isFile@@YA_NPEBD@Z	; com_isFile
  0002d	0f b6 c0	 movzx	 eax, al
  00030	85 c0		 test	 eax, eax
  00032	74 46		 je	 SHORT $LN2@renameFile

; 596  : 	{
; 597  : 		//if (com_isFile(pOldFileName)) {
; 598  : 		//	if (!DeleteFile(pOldFileName)) {
; 599  : 		//		gs_cLogger.DebugLog(LEVEL_ERROR, _T("CDFSFile::renameFile DeleteFile error code[%d]"), GetLastError());
; 600  : 		//		return false;
; 601  : 		//	}
; 602  : 		//}
; 603  : 
; 604  : 		int nRes = FILEMOVE(pOldFileName, pNewFileName);

  00034	48 8b 54 24 48	 mov	 rdx, QWORD PTR pNewFileName$[rsp]
  00039	48 8b 4c 24 40	 mov	 rcx, QWORD PTR pOldFileName$[rsp]
  0003e	ff 15 00 00 00
	00		 call	 QWORD PTR __imp_MoveFileA
  00044	89 44 24 20	 mov	 DWORD PTR nRes$1[rsp], eax

; 605  : #ifdef WIN32
; 606  : 		if(!nRes)

  00048	83 7c 24 20 00	 cmp	 DWORD PTR nRes$1[rsp], 0
  0004d	75 2b		 jne	 SHORT $LN3@renameFile

; 607  : #else
; 608  : 		if (nRes)
; 609  : #endif
; 610  : 
; 611  : 		{
; 612  : 			DWORD error = GetLastError();

  0004f	ff 15 00 00 00
	00		 call	 QWORD PTR __imp_GetLastError
  00055	89 44 24 24	 mov	 DWORD PTR error$2[rsp], eax

; 613  : 			gs_cLogger.PutLogQueue(LEVEL_ERROR, _T("FILEMOVE error code[%d]"), error);

  00059	44 8b 4c 24 24	 mov	 r9d, DWORD PTR error$2[rsp]
  0005e	4c 8d 05 00 00
	00 00		 lea	 r8, OFFSET FLAT:$SG86770
  00065	ba 05 00 00 00	 mov	 edx, 5
  0006a	48 8d 0d 00 00
	00 00		 lea	 rcx, OFFSET FLAT:?gs_cLogger@@3VCLogger@@A ; gs_cLogger
  00071	e8 00 00 00 00	 call	 ?PutLogQueue@CLogger@@QEAAXHPEBDZZ ; CLogger::PutLogQueue

; 614  : 			return false;

  00076	32 c0		 xor	 al, al
  00078	eb 02		 jmp	 SHORT $LN1@renameFile
$LN3@renameFile:
$LN2@renameFile:

; 615  : 		}
; 616  : 	}
; 617  : 	return true;

  0007a	b0 01		 mov	 al, 1
$LN1@renameFile:

; 618  : }

  0007c	48 83 c4 30	 add	 rsp, 48			; 00000030H
  00080	5f		 pop	 rdi
  00081	c3		 ret	 0
?renameFile@CFileUtil@@SA_NPEBD0@Z ENDP			; CFileUtil::renameFile
_TEXT	ENDS
; Function compile flags: /Odtp /RTCsu
; File e:\infinia-library-3.0\com\src\comfileutil.cpp
_TEXT	SEGMENT
pPos$ = 32
nLen$ = 40
pTarget$ = 64
pOriPath$ = 72
pChangeStr$ = 80
?getReFileName@CFileUtil@@SA_NPEADPEBD1@Z PROC		; CFileUtil::getReFileName

; 583  : {

$LN3:
  00000	4c 89 44 24 18	 mov	 QWORD PTR [rsp+24], r8
  00005	48 89 54 24 10	 mov	 QWORD PTR [rsp+16], rdx
  0000a	48 89 4c 24 08	 mov	 QWORD PTR [rsp+8], rcx
  0000f	57		 push	 rdi
  00010	48 83 ec 30	 sub	 rsp, 48			; 00000030H
  00014	48 8b fc	 mov	 rdi, rsp
  00017	b9 0c 00 00 00	 mov	 ecx, 12
  0001c	b8 cc cc cc cc	 mov	 eax, -858993460		; ccccccccH
  00021	f3 ab		 rep stosd
  00023	48 8b 4c 24 40	 mov	 rcx, QWORD PTR [rsp+64]

; 584  : 	const TCHAR *pPos = _tcsrchr(pOriPath, _T('.'));

  00028	ba 2e 00 00 00	 mov	 edx, 46			; 0000002eH
  0002d	48 8b 4c 24 48	 mov	 rcx, QWORD PTR pOriPath$[rsp]
  00032	e8 00 00 00 00	 call	 _tcsrchr
  00037	48 89 44 24 20	 mov	 QWORD PTR pPos$[rsp], rax

; 585  : 	size_t nLen = pPos - pOriPath;

  0003c	48 8b 44 24 48	 mov	 rax, QWORD PTR pOriPath$[rsp]
  00041	48 8b 4c 24 20	 mov	 rcx, QWORD PTR pPos$[rsp]
  00046	48 2b c8	 sub	 rcx, rax
  00049	48 8b c1	 mov	 rax, rcx
  0004c	48 89 44 24 28	 mov	 QWORD PTR nLen$[rsp], rax

; 586  : 	_tcsncpy(pTarget, pOriPath, nLen);

  00051	4c 8b 44 24 28	 mov	 r8, QWORD PTR nLen$[rsp]
  00056	48 8b 54 24 48	 mov	 rdx, QWORD PTR pOriPath$[rsp]
  0005b	48 8b 4c 24 40	 mov	 rcx, QWORD PTR pTarget$[rsp]
  00060	e8 00 00 00 00	 call	 _tcsncpy

; 587  : 	_tcscpy(&pTarget[nLen], pChangeStr);

  00065	48 8b 44 24 28	 mov	 rax, QWORD PTR nLen$[rsp]
  0006a	48 8b 4c 24 40	 mov	 rcx, QWORD PTR pTarget$[rsp]
  0006f	48 03 c8	 add	 rcx, rax
  00072	48 8b c1	 mov	 rax, rcx
  00075	48 8b 54 24 50	 mov	 rdx, QWORD PTR pChangeStr$[rsp]
  0007a	48 8b c8	 mov	 rcx, rax
  0007d	e8 00 00 00 00	 call	 strcpy

; 588  : 	return true;

  00082	b0 01		 mov	 al, 1

; 589  : }

  00084	48 83 c4 30	 add	 rsp, 48			; 00000030H
  00088	5f		 pop	 rdi
  00089	c3		 ret	 0
?getReFileName@CFileUtil@@SA_NPEADPEBD1@Z ENDP		; CFileUtil::getReFileName
_TEXT	ENDS
; Function compile flags: /Odtp /RTCsu
; File e:\infinia-library-3.0\com\src\comfileutil.cpp
_TEXT	SEGMENT
pFile$ = 32
pFilePath$ = 64
pBuf$ = 72
?add@CFileUtil@@SA_NPEAD0@Z PROC			; CFileUtil::add

; 564  : {

$LN5:
  00000	48 89 54 24 10	 mov	 QWORD PTR [rsp+16], rdx
  00005	48 89 4c 24 08	 mov	 QWORD PTR [rsp+8], rcx
  0000a	57		 push	 rdi
  0000b	48 83 ec 30	 sub	 rsp, 48			; 00000030H
  0000f	48 8b fc	 mov	 rdi, rsp
  00012	b9 0c 00 00 00	 mov	 ecx, 12
  00017	b8 cc cc cc cc	 mov	 eax, -858993460		; ccccccccH
  0001c	f3 ab		 rep stosd
  0001e	48 8b 4c 24 40	 mov	 rcx, QWORD PTR [rsp+64]

; 565  : 	// File copy
; 566  : 	FILE * pFile;
; 567  : 	pFile = _tfopen(pFilePath, _T("a+"));

  00023	48 8d 15 00 00
	00 00		 lea	 rdx, OFFSET FLAT:$SG86750
  0002a	48 8b 4c 24 40	 mov	 rcx, QWORD PTR pFilePath$[rsp]
  0002f	ff 15 00 00 00
	00		 call	 QWORD PTR __imp_fopen
  00035	48 89 44 24 20	 mov	 QWORD PTR pFile$[rsp], rax

; 568  : 	if (!pFile) {

  0003a	48 83 7c 24 20
	00		 cmp	 QWORD PTR pFile$[rsp], 0
  00040	75 4e		 jne	 SHORT $LN2@add

; 569  : 		CFileUtil::MakeDirectory(pFilePath);

  00042	48 8b 4c 24 40	 mov	 rcx, QWORD PTR pFilePath$[rsp]
  00047	e8 00 00 00 00	 call	 ?MakeDirectory@CFileUtil@@SA_NPEBD@Z ; CFileUtil::MakeDirectory

; 570  : 		pFile = _tfopen(pFilePath, _T("a+"));

  0004c	48 8d 15 00 00
	00 00		 lea	 rdx, OFFSET FLAT:$SG86752
  00053	48 8b 4c 24 40	 mov	 rcx, QWORD PTR pFilePath$[rsp]
  00058	ff 15 00 00 00
	00		 call	 QWORD PTR __imp_fopen
  0005e	48 89 44 24 20	 mov	 QWORD PTR pFile$[rsp], rax

; 571  : 		if (!pFile) {

  00063	48 83 7c 24 20
	00		 cmp	 QWORD PTR pFile$[rsp], 0
  00069	75 21		 jne	 SHORT $LN3@add

; 572  : 			gs_cLogger.PutLogQueue(LEVEL_ERROR, _T("CDFSFile::add pFile open FAIL [%s]"), pFilePath);

  0006b	4c 8b 4c 24 40	 mov	 r9, QWORD PTR pFilePath$[rsp]
  00070	4c 8d 05 00 00
	00 00		 lea	 r8, OFFSET FLAT:$SG86754
  00077	ba 05 00 00 00	 mov	 edx, 5
  0007c	48 8d 0d 00 00
	00 00		 lea	 rcx, OFFSET FLAT:?gs_cLogger@@3VCLogger@@A ; gs_cLogger
  00083	e8 00 00 00 00	 call	 ?PutLogQueue@CLogger@@QEAAXHPEBDZZ ; CLogger::PutLogQueue

; 573  : 			return false;

  00088	32 c0		 xor	 al, al
  0008a	eb 3e		 jmp	 SHORT $LN1@add
$LN3@add:

; 574  : 		}
; 575  : 		return false;

  0008c	32 c0		 xor	 al, al
  0008e	eb 3a		 jmp	 SHORT $LN1@add
$LN2@add:

; 576  : 	}
; 577  : 	fwrite(pBuf, sizeof(TCHAR), _tcslen(pBuf), pFile);

  00090	48 8b 4c 24 48	 mov	 rcx, QWORD PTR pBuf$[rsp]
  00095	e8 00 00 00 00	 call	 strlen
  0009a	4c 8b 4c 24 20	 mov	 r9, QWORD PTR pFile$[rsp]
  0009f	4c 8b c0	 mov	 r8, rax
  000a2	ba 01 00 00 00	 mov	 edx, 1
  000a7	48 8b 4c 24 48	 mov	 rcx, QWORD PTR pBuf$[rsp]
  000ac	ff 15 00 00 00
	00		 call	 QWORD PTR __imp_fwrite

; 578  : 	fflush(pFile);

  000b2	48 8b 4c 24 20	 mov	 rcx, QWORD PTR pFile$[rsp]
  000b7	ff 15 00 00 00
	00		 call	 QWORD PTR __imp_fflush

; 579  : 	fclose(pFile);

  000bd	48 8b 4c 24 20	 mov	 rcx, QWORD PTR pFile$[rsp]
  000c2	ff 15 00 00 00
	00		 call	 QWORD PTR __imp_fclose

; 580  : 	return true;

  000c8	b0 01		 mov	 al, 1
$LN1@add:

; 581  : }

  000ca	48 83 c4 30	 add	 rsp, 48			; 00000030H
  000ce	5f		 pop	 rdi
  000cf	c3		 ret	 0
?add@CFileUtil@@SA_NPEAD0@Z ENDP			; CFileUtil::add
_TEXT	ENDS
; Function compile flags: /Odtp /RTCsu
; File e:\infinia-library-3.0\com\src\comfileutil.cpp
_TEXT	SEGMENT
pFileBuf$ = 56
fileSize$ = 84
pList$ = 104
bres$ = 112
stInfo$ = 136
idx$7 = 180
$T8 = 208
$T9 = 216
$T10 = 224
$T11 = 232
$T12 = 240
tv91 = 248
tv164 = 256
__$ArrayPad$ = 264
pFilePath$ = 288
pLineList$ = 296
ch$ = 304
?fileToFieldRecord@CFileUtil@@SA_NPEADPEAV?$CTList@VCStringList@@@@D@Z PROC ; CFileUtil::fileToFieldRecord

; 399  : {

$LN28:
  00000	44 88 44 24 18	 mov	 BYTE PTR [rsp+24], r8b
  00005	48 89 54 24 10	 mov	 QWORD PTR [rsp+16], rdx
  0000a	48 89 4c 24 08	 mov	 QWORD PTR [rsp+8], rcx
  0000f	57		 push	 rdi
  00010	48 81 ec 10 01
	00 00		 sub	 rsp, 272		; 00000110H
  00017	48 8b fc	 mov	 rdi, rsp
  0001a	b9 44 00 00 00	 mov	 ecx, 68			; 00000044H
  0001f	b8 cc cc cc cc	 mov	 eax, -858993460		; ccccccccH
  00024	f3 ab		 rep stosd
  00026	48 8b 8c 24 20
	01 00 00	 mov	 rcx, QWORD PTR [rsp+288]
  0002e	48 c7 84 24 f0
	00 00 00 fe ff
	ff ff		 mov	 QWORD PTR $T12[rsp], -2
  0003a	48 8b 05 00 00
	00 00		 mov	 rax, QWORD PTR __security_cookie
  00041	48 33 c4	 xor	 rax, rsp
  00044	48 89 84 24 08
	01 00 00	 mov	 QWORD PTR __$ArrayPad$[rsp], rax

; 400  : 	// FILE READ
; 401  : 	TCHAR *pFileBuf = NULL;

  0004c	48 c7 44 24 38
	00 00 00 00	 mov	 QWORD PTR pFileBuf$[rsp], 0

; 402  : 	int fileSize = 0;

  00055	c7 44 24 54 00
	00 00 00	 mov	 DWORD PTR fileSize$[rsp], 0

; 403  : 	CStringList *pList;
; 404  : 	bool bres;
; 405  : 	STStrInfo stInfo;
; 406  : 
; 407  : 	memset(&stInfo, 0, sizeof(STStrInfo));

  0005d	41 b8 18 00 00
	00		 mov	 r8d, 24
  00063	33 d2		 xor	 edx, edx
  00065	48 8d 8c 24 88
	00 00 00	 lea	 rcx, QWORD PTR stInfo$[rsp]
  0006d	e8 00 00 00 00	 call	 memset

; 408  : 	fileSize = readNalloc(pFilePath, &pFileBuf, &fileSize);

  00072	4c 8d 44 24 54	 lea	 r8, QWORD PTR fileSize$[rsp]
  00077	48 8d 54 24 38	 lea	 rdx, QWORD PTR pFileBuf$[rsp]
  0007c	48 8b 8c 24 20
	01 00 00	 mov	 rcx, QWORD PTR pFilePath$[rsp]
  00084	e8 00 00 00 00	 call	 ?readNalloc@CFileUtil@@SAHPEADPEAPEADPEAH@Z ; CFileUtil::readNalloc
  00089	89 44 24 54	 mov	 DWORD PTR fileSize$[rsp], eax

; 409  : 
; 410  : 	if (!fileSize) {

  0008d	83 7c 24 54 00	 cmp	 DWORD PTR fileSize$[rsp], 0
  00092	75 0a		 jne	 SHORT $LN6@fileToFiel

; 411  : 		bres = false;

  00094	c6 44 24 70 00	 mov	 BYTE PTR bres$[rsp], 0

; 412  : 		goto END_PROC;

  00099	e9 6f 02 00 00	 jmp	 $END_PROC$29
$LN6@fileToFiel:

; 413  : 	}
; 414  : 
; 415  : 	stInfo.aBufSize = 4096;

  0009e	c7 84 24 98 00
	00 00 00 10 00
	00		 mov	 DWORD PTR stInfo$[rsp+16], 4096 ; 00001000H

; 416  : 	stInfo.pSource = pFileBuf;

  000a9	48 8b 44 24 38	 mov	 rax, QWORD PTR pFileBuf$[rsp]
  000ae	48 89 84 24 88
	00 00 00	 mov	 QWORD PTR stInfo$[rsp], rax

; 417  : 	stInfo.pTarget = gs_pMMgr->newBuf(4096);

  000b6	ba 00 10 00 00	 mov	 edx, 4096		; 00001000H
  000bb	48 8b 0d 00 00
	00 00		 mov	 rcx, QWORD PTR ?gs_pMMgr@@3PEAVCMemManager@@EA ; gs_pMMgr
  000c2	e8 00 00 00 00	 call	 ?newBuf@CMemManager@@QEAAPEADH@Z ; CMemManager::newBuf
  000c7	48 89 84 24 90
	00 00 00	 mov	 QWORD PTR stInfo$[rsp+8], rax

; 418  : 	if (!stInfo.pTarget) {

  000cf	48 83 bc 24 90
	00 00 00 00	 cmp	 QWORD PTR stInfo$[rsp+8], 0
  000d8	75 0a		 jne	 SHORT $LN2@fileToFiel

; 419  : 		bres = false;

  000da	c6 44 24 70 00	 mov	 BYTE PTR bres$[rsp], 0

; 420  : 		goto END_PROC;

  000df	e9 29 02 00 00	 jmp	 $END_PROC$29
$LN2@fileToFiel:

; 421  : 	}
; 422  : 
; 423  : 	while(getNextLine(&stInfo))

  000e4	48 8d 8c 24 88
	00 00 00	 lea	 rcx, QWORD PTR stInfo$[rsp]
  000ec	e8 00 00 00 00	 call	 ?getNextLine@CFileUtil@@SAHPEAUSTStrInfo@@@Z ; CFileUtil::getNextLine
  000f1	85 c0		 test	 eax, eax
  000f3	0f 84 4a 01 00
	00		 je	 $LN3@fileToFiel

; 424  : 	{
; 425  : 		pList = new (std::nothrow) CStringList();

  000f9	48 8d 15 00 00
	00 00		 lea	 rdx, OFFSET FLAT:?nothrow@std@@3Unothrow_t@1@B ; std::nothrow
  00100	b9 18 00 00 00	 mov	 ecx, 24
  00105	e8 00 00 00 00	 call	 ??2@YAPEAX_KAEBUnothrow_t@std@@@Z ; operator new
  0010a	48 89 84 24 d8
	00 00 00	 mov	 QWORD PTR $T9[rsp], rax
  00112	48 83 bc 24 d8
	00 00 00 00	 cmp	 QWORD PTR $T9[rsp], 0
  0011b	74 17		 je	 SHORT $LN23@fileToFiel
  0011d	48 8b 8c 24 d8
	00 00 00	 mov	 rcx, QWORD PTR $T9[rsp]
  00125	e8 00 00 00 00	 call	 ??0CStringList@@QEAA@XZ	; CStringList::CStringList
  0012a	48 89 84 24 f8
	00 00 00	 mov	 QWORD PTR tv91[rsp], rax
  00132	eb 0c		 jmp	 SHORT $LN24@fileToFiel
$LN23@fileToFiel:
  00134	48 c7 84 24 f8
	00 00 00 00 00
	00 00		 mov	 QWORD PTR tv91[rsp], 0
$LN24@fileToFiel:
  00140	48 8b 84 24 f8
	00 00 00	 mov	 rax, QWORD PTR tv91[rsp]
  00148	48 89 84 24 d0
	00 00 00	 mov	 QWORD PTR $T8[rsp], rax
  00150	48 8b 84 24 d0
	00 00 00	 mov	 rax, QWORD PTR $T8[rsp]
  00158	48 89 44 24 68	 mov	 QWORD PTR pList$[rsp], rax

; 426  : 		if (!pList) { gs_cLogger.DebugLog(LEVEL_ERROR, _T("new pList")); goto ERROR_PROC; }

  0015d	48 83 7c 24 68
	00		 cmp	 QWORD PTR pList$[rsp], 0
  00163	75 2f		 jne	 SHORT $LN10@fileToFiel
  00165	48 8d 05 00 00
	00 00		 lea	 rax, OFFSET FLAT:$SG86664
  0016c	48 89 44 24 20	 mov	 QWORD PTR [rsp+32], rax
  00171	41 b9 aa 01 00
	00		 mov	 r9d, 426		; 000001aaH
  00177	4c 8d 05 00 00
	00 00		 lea	 r8, OFFSET FLAT:$SG86665
  0017e	ba 05 00 00 00	 mov	 edx, 5
  00183	48 8d 0d 00 00
	00 00		 lea	 rcx, OFFSET FLAT:?gs_cLogger@@3VCLogger@@A ; gs_cLogger
  0018a	e8 00 00 00 00	 call	 ?__debugLog@CLogger@@QEAAXHPEBDH0ZZ ; CLogger::__debugLog
  0018f	e9 b9 00 00 00	 jmp	 $ERROR_PROC$30
$LN10@fileToFiel:

; 427  : 		if (!pList->alloc(10)) { gs_cLogger.DebugLog(LEVEL_ERROR, _T("alloc pList")); goto ERROR_PROC; }

  00194	ba 0a 00 00 00	 mov	 edx, 10
  00199	48 8b 4c 24 68	 mov	 rcx, QWORD PTR pList$[rsp]
  0019e	e8 00 00 00 00	 call	 ?alloc@CStringList@@QEAAHH@Z ; CStringList::alloc
  001a3	85 c0		 test	 eax, eax
  001a5	75 2c		 jne	 SHORT $LN12@fileToFiel
  001a7	48 8d 05 00 00
	00 00		 lea	 rax, OFFSET FLAT:$SG86668
  001ae	48 89 44 24 20	 mov	 QWORD PTR [rsp+32], rax
  001b3	41 b9 ab 01 00
	00		 mov	 r9d, 427		; 000001abH
  001b9	4c 8d 05 00 00
	00 00		 lea	 r8, OFFSET FLAT:$SG86669
  001c0	ba 05 00 00 00	 mov	 edx, 5
  001c5	48 8d 0d 00 00
	00 00		 lea	 rcx, OFFSET FLAT:?gs_cLogger@@3VCLogger@@A ; gs_cLogger
  001cc	e8 00 00 00 00	 call	 ?__debugLog@CLogger@@QEAAXHPEBDH0ZZ ; CLogger::__debugLog
  001d1	eb 7a		 jmp	 SHORT $ERROR_PROC$30
$LN12@fileToFiel:

; 428  : 		if (!getFieldList(stInfo.pTarget, ch, pList)) {

  001d3	4c 8b 44 24 68	 mov	 r8, QWORD PTR pList$[rsp]
  001d8	0f b6 94 24 30
	01 00 00	 movzx	 edx, BYTE PTR ch$[rsp]
  001e0	48 8b 8c 24 90
	00 00 00	 mov	 rcx, QWORD PTR stInfo$[rsp+8]
  001e8	e8 00 00 00 00	 call	 ?getFieldList@CFileUtil@@SA_NPEADDPEAVCStringList@@@Z ; CFileUtil::getFieldList
  001ed	0f b6 c0	 movzx	 eax, al
  001f0	85 c0		 test	 eax, eax
  001f2	75 02		 jne	 SHORT $LN14@fileToFiel

; 429  : 			goto ERROR_PROC;

  001f4	eb 57		 jmp	 SHORT $ERROR_PROC$30
$LN14@fileToFiel:

; 430  : 		}
; 431  : 		if (!pLineList->push_back(pList)) { gs_cLogger.DebugLog(LEVEL_ERROR, _T("add pLineList")); goto ERROR_PROC; }

  001f6	45 33 c0	 xor	 r8d, r8d
  001f9	48 8b 54 24 68	 mov	 rdx, QWORD PTR pList$[rsp]
  001fe	48 8b 8c 24 28
	01 00 00	 mov	 rcx, QWORD PTR pLineList$[rsp]
  00206	e8 00 00 00 00	 call	 ?push_back@?$CTList@VCStringList@@@@QEAA_NPEAVCStringList@@PEAH@Z ; CTList<CStringList>::push_back
  0020b	0f b6 c0	 movzx	 eax, al
  0020e	85 c0		 test	 eax, eax
  00210	75 2c		 jne	 SHORT $LN16@fileToFiel
  00212	48 8d 05 00 00
	00 00		 lea	 rax, OFFSET FLAT:$SG86674
  00219	48 89 44 24 20	 mov	 QWORD PTR [rsp+32], rax
  0021e	41 b9 af 01 00
	00		 mov	 r9d, 431		; 000001afH
  00224	4c 8d 05 00 00
	00 00		 lea	 r8, OFFSET FLAT:$SG86675
  0022b	ba 05 00 00 00	 mov	 edx, 5
  00230	48 8d 0d 00 00
	00 00		 lea	 rcx, OFFSET FLAT:?gs_cLogger@@3VCLogger@@A ; gs_cLogger
  00237	e8 00 00 00 00	 call	 ?__debugLog@CLogger@@QEAAXHPEBDH0ZZ ; CLogger::__debugLog
  0023c	eb 0f		 jmp	 SHORT $ERROR_PROC$30
$LN16@fileToFiel:

; 432  : 	}

  0023e	e9 a1 fe ff ff	 jmp	 $LN2@fileToFiel
$LN3@fileToFiel:

; 433  : 	bres = true;

  00243	c6 44 24 70 01	 mov	 BYTE PTR bres$[rsp], 1

; 434  : 	goto END_PROC;

  00248	e9 c0 00 00 00	 jmp	 $END_PROC$29
$ERROR_PROC$30:

; 435  : ERROR_PROC:
; 436  : 	if (pLineList) {

  0024d	48 83 bc 24 28
	01 00 00 00	 cmp	 QWORD PTR pLineList$[rsp], 0
  00256	0f 84 ac 00 00
	00		 je	 $LN19@fileToFiel

; 437  : 		int idx = 0;

  0025c	c7 84 24 b4 00
	00 00 00 00 00
	00		 mov	 DWORD PTR idx$7[rsp], 0

; 438  : 		pList = pLineList->getNext(&idx);

  00267	48 8d 94 24 b4
	00 00 00	 lea	 rdx, QWORD PTR idx$7[rsp]
  0026f	48 8b 8c 24 28
	01 00 00	 mov	 rcx, QWORD PTR pLineList$[rsp]
  00277	e8 00 00 00 00	 call	 ?getNext@?$CTList@VCStringList@@@@QEAAPEAVCStringList@@PEAH@Z ; CTList<CStringList>::getNext
  0027c	48 89 44 24 68	 mov	 QWORD PTR pList$[rsp], rax
$LN4@fileToFiel:

; 439  : 		while (pList) {

  00281	48 83 7c 24 68
	00		 cmp	 QWORD PTR pList$[rsp], 0
  00287	74 7f		 je	 SHORT $LN19@fileToFiel

; 440  : 			delete pList;

  00289	48 8b 44 24 68	 mov	 rax, QWORD PTR pList$[rsp]
  0028e	48 89 84 24 e8
	00 00 00	 mov	 QWORD PTR $T11[rsp], rax
  00296	48 8b 84 24 e8
	00 00 00	 mov	 rax, QWORD PTR $T11[rsp]
  0029e	48 89 84 24 e0
	00 00 00	 mov	 QWORD PTR $T10[rsp], rax
  002a6	48 83 bc 24 e0
	00 00 00 00	 cmp	 QWORD PTR $T10[rsp], 0
  002af	74 1c		 je	 SHORT $LN25@fileToFiel
  002b1	ba 01 00 00 00	 mov	 edx, 1
  002b6	48 8b 8c 24 e0
	00 00 00	 mov	 rcx, QWORD PTR $T10[rsp]
  002be	e8 00 00 00 00	 call	 ??_GCStringList@@QEAAPEAXI@Z
  002c3	48 89 84 24 00
	01 00 00	 mov	 QWORD PTR tv164[rsp], rax
  002cb	eb 0c		 jmp	 SHORT $LN26@fileToFiel
$LN25@fileToFiel:
  002cd	48 c7 84 24 00
	01 00 00 00 00
	00 00		 mov	 QWORD PTR tv164[rsp], 0
$LN26@fileToFiel:

; 441  : 			idx++;

  002d9	8b 84 24 b4 00
	00 00		 mov	 eax, DWORD PTR idx$7[rsp]
  002e0	ff c0		 inc	 eax
  002e2	89 84 24 b4 00
	00 00		 mov	 DWORD PTR idx$7[rsp], eax

; 442  : 			pList = pLineList->getNext(&idx);

  002e9	48 8d 94 24 b4
	00 00 00	 lea	 rdx, QWORD PTR idx$7[rsp]
  002f1	48 8b 8c 24 28
	01 00 00	 mov	 rcx, QWORD PTR pLineList$[rsp]
  002f9	e8 00 00 00 00	 call	 ?getNext@?$CTList@VCStringList@@@@QEAAPEAVCStringList@@PEAH@Z ; CTList<CStringList>::getNext
  002fe	48 89 44 24 68	 mov	 QWORD PTR pList$[rsp], rax

; 443  : 		}

  00303	e9 79 ff ff ff	 jmp	 $LN4@fileToFiel
$LN19@fileToFiel:

; 444  : 	}
; 445  : 	bres = false;

  00308	c6 44 24 70 00	 mov	 BYTE PTR bres$[rsp], 0
$END_PROC$29:

; 446  : END_PROC:
; 447  : 	if (pFileBuf) gs_pMMgr->delBuf(pFileBuf, fileSize);

  0030d	48 83 7c 24 38
	00		 cmp	 QWORD PTR pFileBuf$[rsp], 0
  00313	74 16		 je	 SHORT $LN20@fileToFiel
  00315	44 8b 44 24 54	 mov	 r8d, DWORD PTR fileSize$[rsp]
  0031a	48 8b 54 24 38	 mov	 rdx, QWORD PTR pFileBuf$[rsp]
  0031f	48 8b 0d 00 00
	00 00		 mov	 rcx, QWORD PTR ?gs_pMMgr@@3PEAVCMemManager@@EA ; gs_pMMgr
  00326	e8 00 00 00 00	 call	 ?delBuf@CMemManager@@QEAAXPEADH@Z ; CMemManager::delBuf
$LN20@fileToFiel:

; 448  : 	if(stInfo.pTarget) gs_pMMgr->delBuf(stInfo.pTarget, stInfo.aBufSize);

  0032b	48 83 bc 24 90
	00 00 00 00	 cmp	 QWORD PTR stInfo$[rsp+8], 0
  00334	74 1c		 je	 SHORT $LN21@fileToFiel
  00336	44 8b 84 24 98
	00 00 00	 mov	 r8d, DWORD PTR stInfo$[rsp+16]
  0033e	48 8b 94 24 90
	00 00 00	 mov	 rdx, QWORD PTR stInfo$[rsp+8]
  00346	48 8b 0d 00 00
	00 00		 mov	 rcx, QWORD PTR ?gs_pMMgr@@3PEAVCMemManager@@EA ; gs_pMMgr
  0034d	e8 00 00 00 00	 call	 ?delBuf@CMemManager@@QEAAXPEADH@Z ; CMemManager::delBuf
$LN21@fileToFiel:

; 449  : 	return bres;

  00352	0f b6 44 24 70	 movzx	 eax, BYTE PTR bres$[rsp]

; 450  : }

  00357	8b f8		 mov	 edi, eax
  00359	48 8b cc	 mov	 rcx, rsp
  0035c	48 8d 15 00 00
	00 00		 lea	 rdx, OFFSET FLAT:?fileToFieldRecord@CFileUtil@@SA_NPEADPEAV?$CTList@VCStringList@@@@D@Z$rtcFrameData
  00363	e8 00 00 00 00	 call	 _RTC_CheckStackVars
  00368	8b c7		 mov	 eax, edi
  0036a	48 8b 8c 24 08
	01 00 00	 mov	 rcx, QWORD PTR __$ArrayPad$[rsp]
  00372	48 33 cc	 xor	 rcx, rsp
  00375	e8 00 00 00 00	 call	 __security_check_cookie
  0037a	48 81 c4 10 01
	00 00		 add	 rsp, 272		; 00000110H
  00381	5f		 pop	 rdi
  00382	c3		 ret	 0
?fileToFieldRecord@CFileUtil@@SA_NPEADPEAV?$CTList@VCStringList@@@@D@Z ENDP ; CFileUtil::fileToFieldRecord
_TEXT	ENDS
text$x	SEGMENT
pFileBuf$ = 56
fileSize$ = 84
pList$ = 104
bres$ = 112
stInfo$ = 136
idx$7 = 180
$T8 = 208
$T9 = 216
$T10 = 224
$T11 = 232
$T12 = 240
tv91 = 248
tv164 = 256
__$ArrayPad$ = 264
pFilePath$ = 288
pLineList$ = 296
ch$ = 304
?dtor$0@?0??fileToFieldRecord@CFileUtil@@SA_NPEADPEAV?$CTList@VCStringList@@@@D@Z@4HA PROC ; `CFileUtil::fileToFieldRecord'::`1'::dtor$0
  00000	48 89 4c 24 08	 mov	 QWORD PTR [rsp+8], rcx
  00005	48 89 54 24 10	 mov	 QWORD PTR [rsp+16], rdx
  0000a	55		 push	 rbp
  0000b	57		 push	 rdi
  0000c	48 83 ec 28	 sub	 rsp, 40			; 00000028H
  00010	48 8b ea	 mov	 rbp, rdx
  00013	48 8d 15 00 00
	00 00		 lea	 rdx, OFFSET FLAT:?nothrow@std@@3Unothrow_t@1@B ; std::nothrow
  0001a	48 8b 8d d8 00
	00 00		 mov	 rcx, QWORD PTR $T9[rbp]
  00021	e8 00 00 00 00	 call	 ??3@YAXPEAXAEBUnothrow_t@std@@@Z ; operator delete
  00026	48 83 c4 28	 add	 rsp, 40			; 00000028H
  0002a	5f		 pop	 rdi
  0002b	5d		 pop	 rbp
  0002c	c3		 ret	 0
?dtor$0@?0??fileToFieldRecord@CFileUtil@@SA_NPEADPEAV?$CTList@VCStringList@@@@D@Z@4HA ENDP ; `CFileUtil::fileToFieldRecord'::`1'::dtor$0
text$x	ENDS
; Function compile flags: /Odtp /RTCsu
text$x	SEGMENT
pFileBuf$ = 56
fileSize$ = 84
pList$ = 104
bres$ = 112
stInfo$ = 136
idx$7 = 180
$T8 = 208
$T9 = 216
$T10 = 224
$T11 = 232
$T12 = 240
tv91 = 248
tv164 = 256
__$ArrayPad$ = 264
pFilePath$ = 288
pLineList$ = 296
ch$ = 304
?dtor$0@?0??fileToFieldRecord@CFileUtil@@SA_NPEADPEAV?$CTList@VCStringList@@@@D@Z@4HA PROC ; `CFileUtil::fileToFieldRecord'::`1'::dtor$0
  00000	48 89 4c 24 08	 mov	 QWORD PTR [rsp+8], rcx
  00005	48 89 54 24 10	 mov	 QWORD PTR [rsp+16], rdx
  0000a	55		 push	 rbp
  0000b	57		 push	 rdi
  0000c	48 83 ec 28	 sub	 rsp, 40			; 00000028H
  00010	48 8b ea	 mov	 rbp, rdx
  00013	48 8d 15 00 00
	00 00		 lea	 rdx, OFFSET FLAT:?nothrow@std@@3Unothrow_t@1@B ; std::nothrow
  0001a	48 8b 8d d8 00
	00 00		 mov	 rcx, QWORD PTR $T9[rbp]
  00021	e8 00 00 00 00	 call	 ??3@YAXPEAXAEBUnothrow_t@std@@@Z ; operator delete
  00026	48 83 c4 28	 add	 rsp, 40			; 00000028H
  0002a	5f		 pop	 rdi
  0002b	5d		 pop	 rbp
  0002c	c3		 ret	 0
?dtor$0@?0??fileToFieldRecord@CFileUtil@@SA_NPEADPEAV?$CTList@VCStringList@@@@D@Z@4HA ENDP ; `CFileUtil::fileToFieldRecord'::`1'::dtor$0
text$x	ENDS
; Function compile flags: /Odtp /RTCsu
; File e:\infinia-library-3.0\com\src\comfileutil.cpp
_TEXT	SEGMENT
nLen$ = 32
pNext$ = 40
word$ = 64
bEnd$ = 580
$T4 = 592
__$ArrayPad$ = 600
pRecord$ = 624
cSeparator$ = 632
pList$ = 640
?getFieldList@CFileUtil@@SA_NPEADDPEAVCStringList@@@Z PROC ; CFileUtil::getFieldList

; 453  : {

$LN18:
  00000	4c 89 44 24 18	 mov	 QWORD PTR [rsp+24], r8
  00005	88 54 24 10	 mov	 BYTE PTR [rsp+16], dl
  00009	48 89 4c 24 08	 mov	 QWORD PTR [rsp+8], rcx
  0000e	57		 push	 rdi
  0000f	48 81 ec 60 02
	00 00		 sub	 rsp, 608		; 00000260H
  00016	48 8b fc	 mov	 rdi, rsp
  00019	b9 98 00 00 00	 mov	 ecx, 152		; 00000098H
  0001e	b8 cc cc cc cc	 mov	 eax, -858993460		; ccccccccH
  00023	f3 ab		 rep stosd
  00025	48 8b 8c 24 70
	02 00 00	 mov	 rcx, QWORD PTR [rsp+624]
  0002d	48 8b 05 00 00
	00 00		 mov	 rax, QWORD PTR __security_cookie
  00034	48 33 c4	 xor	 rax, rsp
  00037	48 89 84 24 58
	02 00 00	 mov	 QWORD PTR __$ArrayPad$[rsp], rax

; 454  : 	int nLen; 
; 455  : 	TCHAR *pNext, word[512];
; 456  : 	bool bEnd=false;

  0003f	c6 84 24 44 02
	00 00 00	 mov	 BYTE PTR bEnd$[rsp], 0

; 457  : 
; 458  : 	if (!cSeparator) {

  00047	0f be 84 24 78
	02 00 00	 movsx	 eax, BYTE PTR cSeparator$[rsp]
  0004f	85 c0		 test	 eax, eax
  00051	75 28		 jne	 SHORT $LN6@getFieldLi

; 459  : 		if (pList->push_back(pRecord)) {

  00053	48 8b 94 24 70
	02 00 00	 mov	 rdx, QWORD PTR pRecord$[rsp]
  0005b	48 8b 8c 24 80
	02 00 00	 mov	 rcx, QWORD PTR pList$[rsp]
  00063	e8 00 00 00 00	 call	 ?push_back@CStringList@@QEAAPEAVCmString@@PEAD@Z ; CStringList::push_back
  00068	48 85 c0	 test	 rax, rax
  0006b	74 07		 je	 SHORT $LN7@getFieldLi

; 460  : 			return true;

  0006d	b0 01		 mov	 al, 1
  0006f	e9 67 01 00 00	 jmp	 $LN1@getFieldLi
$LN7@getFieldLi:

; 461  : 		}
; 462  : 		return false;

  00074	32 c0		 xor	 al, al
  00076	e9 60 01 00 00	 jmp	 $LN1@getFieldLi
$LN6@getFieldLi:
$LN2@getFieldLi:

; 463  : 	}
; 464  : 
; 465  : 	while (*pRecord)

  0007b	48 8b 84 24 70
	02 00 00	 mov	 rax, QWORD PTR pRecord$[rsp]
  00083	0f be 00	 movsx	 eax, BYTE PTR [rax]
  00086	85 c0		 test	 eax, eax
  00088	0f 84 4b 01 00
	00		 je	 $LN3@getFieldLi
$LN4@getFieldLi:

; 466  : 	{
; 467  : 		while (*pRecord == CH_SPC || *pRecord == CH_TAB) pRecord++;

  0008e	48 8b 84 24 70
	02 00 00	 mov	 rax, QWORD PTR pRecord$[rsp]
  00096	0f be 00	 movsx	 eax, BYTE PTR [rax]
  00099	83 f8 20	 cmp	 eax, 32			; 00000020H
  0009c	74 10		 je	 SHORT $LN8@getFieldLi
  0009e	48 8b 84 24 70
	02 00 00	 mov	 rax, QWORD PTR pRecord$[rsp]
  000a6	0f be 00	 movsx	 eax, BYTE PTR [rax]
  000a9	83 f8 09	 cmp	 eax, 9
  000ac	75 15		 jne	 SHORT $LN5@getFieldLi
$LN8@getFieldLi:
  000ae	48 8b 84 24 70
	02 00 00	 mov	 rax, QWORD PTR pRecord$[rsp]
  000b6	48 ff c0	 inc	 rax
  000b9	48 89 84 24 70
	02 00 00	 mov	 QWORD PTR pRecord$[rsp], rax
  000c1	eb cb		 jmp	 SHORT $LN4@getFieldLi
$LN5@getFieldLi:

; 468  : 		pNext = strchr(pRecord, cSeparator);

  000c3	0f be 84 24 78
	02 00 00	 movsx	 eax, BYTE PTR cSeparator$[rsp]
  000cb	8b d0		 mov	 edx, eax
  000cd	48 8b 8c 24 70
	02 00 00	 mov	 rcx, QWORD PTR pRecord$[rsp]
  000d5	e8 00 00 00 00	 call	 ?strchr@@YAPEADQEADH@Z	; strchr
  000da	48 89 44 24 28	 mov	 QWORD PTR pNext$[rsp], rax

; 469  : 		if (!pNext) {

  000df	48 83 7c 24 28
	00		 cmp	 QWORD PTR pNext$[rsp], 0
  000e5	75 52		 jne	 SHORT $LN9@getFieldLi

; 470  : 			if (!pNext) pNext = strchr(pRecord, 0);

  000e7	48 83 7c 24 28
	00		 cmp	 QWORD PTR pNext$[rsp], 0
  000ed	75 14		 jne	 SHORT $LN10@getFieldLi
  000ef	33 d2		 xor	 edx, edx
  000f1	48 8b 8c 24 70
	02 00 00	 mov	 rcx, QWORD PTR pRecord$[rsp]
  000f9	e8 00 00 00 00	 call	 ?strchr@@YAPEADQEADH@Z	; strchr
  000fe	48 89 44 24 28	 mov	 QWORD PTR pNext$[rsp], rax
$LN10@getFieldLi:

; 471  : 			if (!pNext) pNext = strchr(pRecord, g_rc);

  00103	48 83 7c 24 28
	00		 cmp	 QWORD PTR pNext$[rsp], 0
  00109	75 17		 jne	 SHORT $LN11@getFieldLi
  0010b	ba 0a 00 00 00	 mov	 edx, 10
  00110	48 8b 8c 24 70
	02 00 00	 mov	 rcx, QWORD PTR pRecord$[rsp]
  00118	e8 00 00 00 00	 call	 ?strchr@@YAPEADQEADH@Z	; strchr
  0011d	48 89 44 24 28	 mov	 QWORD PTR pNext$[rsp], rax
$LN11@getFieldLi:

; 472  : 			if (!pNext) return false;

  00122	48 83 7c 24 28
	00		 cmp	 QWORD PTR pNext$[rsp], 0
  00128	75 07		 jne	 SHORT $LN12@getFieldLi
  0012a	32 c0		 xor	 al, al
  0012c	e9 aa 00 00 00	 jmp	 $LN1@getFieldLi
$LN12@getFieldLi:

; 473  : 			bEnd = true;

  00131	c6 84 24 44 02
	00 00 01	 mov	 BYTE PTR bEnd$[rsp], 1
$LN9@getFieldLi:

; 474  : 		}
; 475  : 		nLen = (int)(pNext - pRecord);

  00139	48 8b 84 24 70
	02 00 00	 mov	 rax, QWORD PTR pRecord$[rsp]
  00141	48 8b 4c 24 28	 mov	 rcx, QWORD PTR pNext$[rsp]
  00146	48 2b c8	 sub	 rcx, rax
  00149	48 8b c1	 mov	 rax, rcx
  0014c	89 44 24 20	 mov	 DWORD PTR nLen$[rsp], eax

; 476  : 		_tcsncpy(word, pRecord, nLen); word[nLen] = 0;

  00150	48 63 44 24 20	 movsxd	 rax, DWORD PTR nLen$[rsp]
  00155	4c 8b c0	 mov	 r8, rax
  00158	48 8b 94 24 70
	02 00 00	 mov	 rdx, QWORD PTR pRecord$[rsp]
  00160	48 8d 4c 24 40	 lea	 rcx, QWORD PTR word$[rsp]
  00165	e8 00 00 00 00	 call	 _tcsncpy
  0016a	48 63 44 24 20	 movsxd	 rax, DWORD PTR nLen$[rsp]
  0016f	48 89 84 24 50
	02 00 00	 mov	 QWORD PTR $T4[rsp], rax
  00177	48 81 bc 24 50
	02 00 00 00 02
	00 00		 cmp	 QWORD PTR $T4[rsp], 512	; 00000200H
  00183	73 02		 jae	 SHORT $LN16@getFieldLi
  00185	eb 05		 jmp	 SHORT $LN17@getFieldLi
$LN16@getFieldLi:
  00187	e8 00 00 00 00	 call	 __report_rangecheckfailure
$LN17@getFieldLi:
  0018c	48 8b 84 24 50
	02 00 00	 mov	 rax, QWORD PTR $T4[rsp]
  00194	c6 44 04 40 00	 mov	 BYTE PTR word$[rsp+rax], 0

; 477  : 		if (!pList->push_back(word)) {

  00199	48 8d 54 24 40	 lea	 rdx, QWORD PTR word$[rsp]
  0019e	48 8b 8c 24 80
	02 00 00	 mov	 rcx, QWORD PTR pList$[rsp]
  001a6	e8 00 00 00 00	 call	 ?push_back@CStringList@@QEAAPEAVCmString@@PEAD@Z ; CStringList::push_back
  001ab	48 85 c0	 test	 rax, rax
  001ae	75 04		 jne	 SHORT $LN13@getFieldLi

; 478  : 			return false;

  001b0	32 c0		 xor	 al, al
  001b2	eb 27		 jmp	 SHORT $LN1@getFieldLi
$LN13@getFieldLi:

; 479  : 		}
; 480  : 		if (bEnd) return true;

  001b4	0f b6 84 24 44
	02 00 00	 movzx	 eax, BYTE PTR bEnd$[rsp]
  001bc	85 c0		 test	 eax, eax
  001be	74 04		 je	 SHORT $LN14@getFieldLi
  001c0	b0 01		 mov	 al, 1
  001c2	eb 17		 jmp	 SHORT $LN1@getFieldLi
$LN14@getFieldLi:

; 481  : 		pRecord = pNext + 1;

  001c4	48 8b 44 24 28	 mov	 rax, QWORD PTR pNext$[rsp]
  001c9	48 ff c0	 inc	 rax
  001cc	48 89 84 24 70
	02 00 00	 mov	 QWORD PTR pRecord$[rsp], rax

; 482  : 	}

  001d4	e9 a2 fe ff ff	 jmp	 $LN2@getFieldLi
$LN3@getFieldLi:

; 483  : 	return true;

  001d9	b0 01		 mov	 al, 1
$LN1@getFieldLi:
$LN15@getFieldLi:

; 484  : }

  001db	48 8b f8	 mov	 rdi, rax
  001de	48 8b cc	 mov	 rcx, rsp
  001e1	48 8d 15 00 00
	00 00		 lea	 rdx, OFFSET FLAT:?getFieldList@CFileUtil@@SA_NPEADDPEAVCStringList@@@Z$rtcFrameData
  001e8	e8 00 00 00 00	 call	 _RTC_CheckStackVars
  001ed	48 8b c7	 mov	 rax, rdi
  001f0	48 8b 8c 24 58
	02 00 00	 mov	 rcx, QWORD PTR __$ArrayPad$[rsp]
  001f8	48 33 cc	 xor	 rcx, rsp
  001fb	e8 00 00 00 00	 call	 __security_check_cookie
  00200	48 81 c4 60 02
	00 00		 add	 rsp, 608		; 00000260H
  00207	5f		 pop	 rdi
  00208	c3		 ret	 0
?getFieldList@CFileUtil@@SA_NPEADDPEAVCStringList@@@Z ENDP ; CFileUtil::getFieldList
_TEXT	ENDS
; Function compile flags: /Odtp /RTCsu
; File e:\infinia-library-3.0\com\src\comfileutil.cpp
_TEXT	SEGMENT
nSize$ = 32
nBufSize$ = 36
pNextLine$ = 40
bEnd$ = 48
pInfo$ = 80
?getNextLine@CFileUtil@@SAHPEAUSTStrInfo@@@Z PROC	; CFileUtil::getNextLine

; 526  : {

$LN10:
  00000	48 89 4c 24 08	 mov	 QWORD PTR [rsp+8], rcx
  00005	57		 push	 rdi
  00006	48 83 ec 40	 sub	 rsp, 64			; 00000040H
  0000a	48 8b fc	 mov	 rdi, rsp
  0000d	b9 10 00 00 00	 mov	 ecx, 16
  00012	b8 cc cc cc cc	 mov	 eax, -858993460		; ccccccccH
  00017	f3 ab		 rep stosd
  00019	48 8b 4c 24 50	 mov	 rcx, QWORD PTR [rsp+80]

; 527  : 	int nSize = 0, nBufSize;  //g_nChSize

  0001e	c7 44 24 20 00
	00 00 00	 mov	 DWORD PTR nSize$[rsp], 0

; 528  : 	TCHAR *pNextLine = _tcschr(pInfo->pSource, g_rc);

  00026	ba 0a 00 00 00	 mov	 edx, 10
  0002b	48 8b 44 24 50	 mov	 rax, QWORD PTR pInfo$[rsp]
  00030	48 8b 08	 mov	 rcx, QWORD PTR [rax]
  00033	e8 00 00 00 00	 call	 ?_tcschr@@YAPEADPEADI@Z	; _tcschr
  00038	48 89 44 24 28	 mov	 QWORD PTR pNextLine$[rsp], rax

; 529  : 	bool bEnd = false;

  0003d	c6 44 24 30 00	 mov	 BYTE PTR bEnd$[rsp], 0

; 530  : 
; 531  : 	if (pNextLine) {

  00042	48 83 7c 24 28
	00		 cmp	 QWORD PTR pNextLine$[rsp], 0
  00048	74 1b		 je	 SHORT $LN2@getNextLin

; 532  : 		nSize = (int)(pNextLine - pInfo->pSource) + 1;

  0004a	48 8b 44 24 50	 mov	 rax, QWORD PTR pInfo$[rsp]
  0004f	48 8b 00	 mov	 rax, QWORD PTR [rax]
  00052	48 8b 4c 24 28	 mov	 rcx, QWORD PTR pNextLine$[rsp]
  00057	48 2b c8	 sub	 rcx, rax
  0005a	48 8b c1	 mov	 rax, rcx
  0005d	ff c0		 inc	 eax
  0005f	89 44 24 20	 mov	 DWORD PTR nSize$[rsp], eax

; 533  : 	}
; 534  : 	else {

  00063	eb 3f		 jmp	 SHORT $LN3@getNextLin
$LN2@getNextLin:

; 535  : 		pNextLine = _tcschr(pInfo->pSource, 0);

  00065	33 d2		 xor	 edx, edx
  00067	48 8b 44 24 50	 mov	 rax, QWORD PTR pInfo$[rsp]
  0006c	48 8b 08	 mov	 rcx, QWORD PTR [rax]
  0006f	e8 00 00 00 00	 call	 ?_tcschr@@YAPEADPEADI@Z	; _tcschr
  00074	48 89 44 24 28	 mov	 QWORD PTR pNextLine$[rsp], rax

; 536  : 		if(!pNextLine) return 0;

  00079	48 83 7c 24 28
	00		 cmp	 QWORD PTR pNextLine$[rsp], 0
  0007f	75 07		 jne	 SHORT $LN4@getNextLin
  00081	33 c0		 xor	 eax, eax
  00083	e9 0e 01 00 00	 jmp	 $LN1@getNextLin
$LN4@getNextLin:

; 537  : 		nSize = (int)(pNextLine - pInfo->pSource);

  00088	48 8b 44 24 50	 mov	 rax, QWORD PTR pInfo$[rsp]
  0008d	48 8b 00	 mov	 rax, QWORD PTR [rax]
  00090	48 8b 4c 24 28	 mov	 rcx, QWORD PTR pNextLine$[rsp]
  00095	48 2b c8	 sub	 rcx, rax
  00098	48 8b c1	 mov	 rax, rcx
  0009b	89 44 24 20	 mov	 DWORD PTR nSize$[rsp], eax

; 538  : 		bEnd = true;

  0009f	c6 44 24 30 01	 mov	 BYTE PTR bEnd$[rsp], 1
$LN3@getNextLin:

; 539  : 	}
; 540  : 
; 541  : 	*pNextLine = 0;

  000a4	48 8b 44 24 28	 mov	 rax, QWORD PTR pNextLine$[rsp]
  000a9	c6 00 00	 mov	 BYTE PTR [rax], 0

; 542  : 	nBufSize = nSize * g_nChSize;

  000ac	8b 44 24 20	 mov	 eax, DWORD PTR nSize$[rsp]
  000b0	89 44 24 24	 mov	 DWORD PTR nBufSize$[rsp], eax

; 543  : 	if (pInfo->aBufSize < nBufSize) {

  000b4	48 8b 44 24 50	 mov	 rax, QWORD PTR pInfo$[rsp]
  000b9	8b 4c 24 24	 mov	 ecx, DWORD PTR nBufSize$[rsp]
  000bd	39 48 10	 cmp	 DWORD PTR [rax+16], ecx
  000c0	0f 8d 94 00 00
	00		 jge	 $LN5@getNextLin

; 544  : 		if (pInfo->aBufSize) {

  000c6	48 8b 44 24 50	 mov	 rax, QWORD PTR pInfo$[rsp]
  000cb	83 78 10 00	 cmp	 DWORD PTR [rax+16], 0
  000cf	74 1e		 je	 SHORT $LN6@getNextLin

; 545  : 			gs_pMMgr->delBuf(pInfo->pTarget, pInfo->aBufSize);

  000d1	48 8b 44 24 50	 mov	 rax, QWORD PTR pInfo$[rsp]
  000d6	44 8b 40 10	 mov	 r8d, DWORD PTR [rax+16]
  000da	48 8b 44 24 50	 mov	 rax, QWORD PTR pInfo$[rsp]
  000df	48 8b 50 08	 mov	 rdx, QWORD PTR [rax+8]
  000e3	48 8b 0d 00 00
	00 00		 mov	 rcx, QWORD PTR ?gs_pMMgr@@3PEAVCMemManager@@EA ; gs_pMMgr
  000ea	e8 00 00 00 00	 call	 ?delBuf@CMemManager@@QEAAXPEADH@Z ; CMemManager::delBuf
$LN6@getNextLin:

; 546  : 		}
; 547  : 		nBufSize += 1024; // Allocating enough space

  000ef	8b 44 24 24	 mov	 eax, DWORD PTR nBufSize$[rsp]
  000f3	05 00 04 00 00	 add	 eax, 1024		; 00000400H
  000f8	89 44 24 24	 mov	 DWORD PTR nBufSize$[rsp], eax

; 548  : 		pInfo->pTarget = gs_pMMgr->newBuf(nBufSize);

  000fc	8b 54 24 24	 mov	 edx, DWORD PTR nBufSize$[rsp]
  00100	48 8b 0d 00 00
	00 00		 mov	 rcx, QWORD PTR ?gs_pMMgr@@3PEAVCMemManager@@EA ; gs_pMMgr
  00107	e8 00 00 00 00	 call	 ?newBuf@CMemManager@@QEAAPEADH@Z ; CMemManager::newBuf
  0010c	48 8b 4c 24 50	 mov	 rcx, QWORD PTR pInfo$[rsp]
  00111	48 89 41 08	 mov	 QWORD PTR [rcx+8], rax

; 549  : 		if (!pInfo->pTarget) {

  00115	48 8b 44 24 50	 mov	 rax, QWORD PTR pInfo$[rsp]
  0011a	48 83 78 08 00	 cmp	 QWORD PTR [rax+8], 0
  0011f	75 2d		 jne	 SHORT $LN7@getNextLin

; 550  : 			pInfo->aBufSize = 0;

  00121	48 8b 44 24 50	 mov	 rax, QWORD PTR pInfo$[rsp]
  00126	c7 40 10 00 00
	00 00		 mov	 DWORD PTR [rax+16], 0

; 551  : 			gs_cLogger.PutLogQueue(LEVEL_ERROR, _T("CFileUtil::getNextLine gs_pMMgr->newBuf error! size[%ld]"), nBufSize);

  0012d	44 8b 4c 24 24	 mov	 r9d, DWORD PTR nBufSize$[rsp]
  00132	4c 8d 05 00 00
	00 00		 lea	 r8, OFFSET FLAT:$SG86742
  00139	ba 05 00 00 00	 mov	 edx, 5
  0013e	48 8d 0d 00 00
	00 00		 lea	 rcx, OFFSET FLAT:?gs_cLogger@@3VCLogger@@A ; gs_cLogger
  00145	e8 00 00 00 00	 call	 ?PutLogQueue@CLogger@@QEAAXHPEBDZZ ; CLogger::PutLogQueue

; 552  : 			return 0;

  0014a	33 c0		 xor	 eax, eax
  0014c	eb 48		 jmp	 SHORT $LN1@getNextLin
$LN7@getNextLin:

; 553  : 		}
; 554  : 		pInfo->aBufSize = nBufSize;

  0014e	48 8b 44 24 50	 mov	 rax, QWORD PTR pInfo$[rsp]
  00153	8b 4c 24 24	 mov	 ecx, DWORD PTR nBufSize$[rsp]
  00157	89 48 10	 mov	 DWORD PTR [rax+16], ecx
$LN5@getNextLin:

; 555  : 	}
; 556  : 
; 557  : 	_tcscpy(pInfo->pTarget, pInfo->pSource);

  0015a	48 8b 44 24 50	 mov	 rax, QWORD PTR pInfo$[rsp]
  0015f	48 8b 10	 mov	 rdx, QWORD PTR [rax]
  00162	48 8b 44 24 50	 mov	 rax, QWORD PTR pInfo$[rsp]
  00167	48 8b 48 08	 mov	 rcx, QWORD PTR [rax+8]
  0016b	e8 00 00 00 00	 call	 strcpy

; 558  : 	if (bEnd) return 0;

  00170	0f b6 44 24 30	 movzx	 eax, BYTE PTR bEnd$[rsp]
  00175	85 c0		 test	 eax, eax
  00177	74 04		 je	 SHORT $LN8@getNextLin
  00179	33 c0		 xor	 eax, eax
  0017b	eb 19		 jmp	 SHORT $LN1@getNextLin
$LN8@getNextLin:

; 559  : 	pInfo->pSource += nSize;

  0017d	48 63 44 24 20	 movsxd	 rax, DWORD PTR nSize$[rsp]
  00182	48 8b 4c 24 50	 mov	 rcx, QWORD PTR pInfo$[rsp]
  00187	48 03 01	 add	 rax, QWORD PTR [rcx]
  0018a	48 8b 4c 24 50	 mov	 rcx, QWORD PTR pInfo$[rsp]
  0018f	48 89 01	 mov	 QWORD PTR [rcx], rax

; 560  : 	return nSize;

  00192	8b 44 24 20	 mov	 eax, DWORD PTR nSize$[rsp]
$LN1@getNextLin:

; 561  : }

  00196	48 83 c4 40	 add	 rsp, 64			; 00000040H
  0019a	5f		 pop	 rdi
  0019b	c3		 ret	 0
?getNextLine@CFileUtil@@SAHPEAUSTStrInfo@@@Z ENDP	; CFileUtil::getNextLine
_TEXT	ENDS
; Function compile flags: /Odtp /RTCsu
; File e:\infinia-library-3.0\com\src\comfileutil.cpp
_TEXT	SEGMENT
pFile$ = 32
nSize$ = 40
nRead$ = 44
nPos$ = 48
nBufSize$ = 52
pFilePath$ = 80
pBuf$ = 88
aBufSize$ = 96
?readNalloc@CFileUtil@@SAHPEADPEAPEADPEAH@Z PROC	; CFileUtil::readNalloc

; 487  : {

$LN10:
  00000	4c 89 44 24 18	 mov	 QWORD PTR [rsp+24], r8
  00005	48 89 54 24 10	 mov	 QWORD PTR [rsp+16], rdx
  0000a	48 89 4c 24 08	 mov	 QWORD PTR [rsp+8], rcx
  0000f	57		 push	 rdi
  00010	48 83 ec 40	 sub	 rsp, 64			; 00000040H
  00014	48 8b fc	 mov	 rdi, rsp
  00017	b9 10 00 00 00	 mov	 ecx, 16
  0001c	b8 cc cc cc cc	 mov	 eax, -858993460		; ccccccccH
  00021	f3 ab		 rep stosd
  00023	48 8b 4c 24 50	 mov	 rcx, QWORD PTR [rsp+80]

; 488  : 	FILE *pFile = _tfopen(pFilePath, _T("rb"));

  00028	48 8d 15 00 00
	00 00		 lea	 rdx, OFFSET FLAT:$SG86718
  0002f	48 8b 4c 24 50	 mov	 rcx, QWORD PTR pFilePath$[rsp]
  00034	ff 15 00 00 00
	00		 call	 QWORD PTR __imp_fopen
  0003a	48 89 44 24 20	 mov	 QWORD PTR pFile$[rsp], rax

; 489  : 	int nSize = 0, nRead, nPos=0, nBufSize;

  0003f	c7 44 24 28 00
	00 00 00	 mov	 DWORD PTR nSize$[rsp], 0
  00047	c7 44 24 30 00
	00 00 00	 mov	 DWORD PTR nPos$[rsp], 0

; 490  : 
; 491  : 	if (!pFile) {

  0004f	48 83 7c 24 20
	00		 cmp	 QWORD PTR pFile$[rsp], 0
  00055	75 24		 jne	 SHORT $LN4@readNalloc

; 492  : 		gs_cLogger.PutLogQueue(LEVEL_ERROR, _T("CDFSFile::read pFile open FAIL [%s]"), pFilePath);

  00057	4c 8b 4c 24 50	 mov	 r9, QWORD PTR pFilePath$[rsp]
  0005c	4c 8d 05 00 00
	00 00		 lea	 r8, OFFSET FLAT:$SG86720
  00063	ba 05 00 00 00	 mov	 edx, 5
  00068	48 8d 0d 00 00
	00 00		 lea	 rcx, OFFSET FLAT:?gs_cLogger@@3VCLogger@@A ; gs_cLogger
  0006f	e8 00 00 00 00	 call	 ?PutLogQueue@CLogger@@QEAAXHPEBDZZ ; CLogger::PutLogQueue

; 493  : 		return 0;

  00074	33 c0		 xor	 eax, eax
  00076	e9 47 01 00 00	 jmp	 $LN1@readNalloc
$LN4@readNalloc:

; 494  : 	}
; 495  : 	fseek(pFile, 0, SEEK_END);

  0007b	41 b8 02 00 00
	00		 mov	 r8d, 2
  00081	33 d2		 xor	 edx, edx
  00083	48 8b 4c 24 20	 mov	 rcx, QWORD PTR pFile$[rsp]
  00088	ff 15 00 00 00
	00		 call	 QWORD PTR __imp_fseek

; 496  : 	nSize = ftell(pFile);

  0008e	48 8b 4c 24 20	 mov	 rcx, QWORD PTR pFile$[rsp]
  00093	ff 15 00 00 00
	00		 call	 QWORD PTR __imp_ftell
  00099	89 44 24 28	 mov	 DWORD PTR nSize$[rsp], eax

; 497  : 	fseek(pFile, 0, SEEK_SET);

  0009d	45 33 c0	 xor	 r8d, r8d
  000a0	33 d2		 xor	 edx, edx
  000a2	48 8b 4c 24 20	 mov	 rcx, QWORD PTR pFile$[rsp]
  000a7	ff 15 00 00 00
	00		 call	 QWORD PTR __imp_fseek

; 498  : 
; 499  : 	nBufSize = nSize + 1;

  000ad	8b 44 24 28	 mov	 eax, DWORD PTR nSize$[rsp]
  000b1	ff c0		 inc	 eax
  000b3	89 44 24 34	 mov	 DWORD PTR nBufSize$[rsp], eax

; 500  : 	if (*aBufSize < nBufSize) {

  000b7	48 8b 44 24 60	 mov	 rax, QWORD PTR aBufSize$[rsp]
  000bc	8b 4c 24 34	 mov	 ecx, DWORD PTR nBufSize$[rsp]
  000c0	39 08		 cmp	 DWORD PTR [rax], ecx
  000c2	7d 78		 jge	 SHORT $LN5@readNalloc

; 501  : 		if (*aBufSize) {

  000c4	48 8b 44 24 60	 mov	 rax, QWORD PTR aBufSize$[rsp]
  000c9	83 38 00	 cmp	 DWORD PTR [rax], 0
  000cc	74 1c		 je	 SHORT $LN6@readNalloc

; 502  : 			gs_pMMgr->delBuf(*pBuf, *aBufSize);

  000ce	48 8b 44 24 60	 mov	 rax, QWORD PTR aBufSize$[rsp]
  000d3	44 8b 00	 mov	 r8d, DWORD PTR [rax]
  000d6	48 8b 44 24 58	 mov	 rax, QWORD PTR pBuf$[rsp]
  000db	48 8b 10	 mov	 rdx, QWORD PTR [rax]
  000de	48 8b 0d 00 00
	00 00		 mov	 rcx, QWORD PTR ?gs_pMMgr@@3PEAVCMemManager@@EA ; gs_pMMgr
  000e5	e8 00 00 00 00	 call	 ?delBuf@CMemManager@@QEAAXPEADH@Z ; CMemManager::delBuf
$LN6@readNalloc:

; 503  : 		}
; 504  : 		*pBuf = gs_pMMgr->newBuf(nBufSize);

  000ea	8b 54 24 34	 mov	 edx, DWORD PTR nBufSize$[rsp]
  000ee	48 8b 0d 00 00
	00 00		 mov	 rcx, QWORD PTR ?gs_pMMgr@@3PEAVCMemManager@@EA ; gs_pMMgr
  000f5	e8 00 00 00 00	 call	 ?newBuf@CMemManager@@QEAAPEADH@Z ; CMemManager::newBuf
  000fa	48 8b 4c 24 58	 mov	 rcx, QWORD PTR pBuf$[rsp]
  000ff	48 89 01	 mov	 QWORD PTR [rcx], rax

; 505  : 		if (!*pBuf) {

  00102	48 8b 44 24 58	 mov	 rax, QWORD PTR pBuf$[rsp]
  00107	48 83 38 00	 cmp	 QWORD PTR [rax], 0
  0010b	75 24		 jne	 SHORT $LN7@readNalloc

; 506  : 			gs_cLogger.PutLogQueue(LEVEL_ERROR, _T("CFileUtil::readNalloc malloc error! size[%ld]"), nBufSize);

  0010d	44 8b 4c 24 34	 mov	 r9d, DWORD PTR nBufSize$[rsp]
  00112	4c 8d 05 00 00
	00 00		 lea	 r8, OFFSET FLAT:$SG86724
  00119	ba 05 00 00 00	 mov	 edx, 5
  0011e	48 8d 0d 00 00
	00 00		 lea	 rcx, OFFSET FLAT:?gs_cLogger@@3VCLogger@@A ; gs_cLogger
  00125	e8 00 00 00 00	 call	 ?PutLogQueue@CLogger@@QEAAXHPEBDZZ ; CLogger::PutLogQueue

; 507  : 			return 0;

  0012a	33 c0		 xor	 eax, eax
  0012c	e9 91 00 00 00	 jmp	 $LN1@readNalloc
$LN7@readNalloc:

; 508  : 		}
; 509  : 		*aBufSize = nBufSize;

  00131	48 8b 44 24 60	 mov	 rax, QWORD PTR aBufSize$[rsp]
  00136	8b 4c 24 34	 mov	 ecx, DWORD PTR nBufSize$[rsp]
  0013a	89 08		 mov	 DWORD PTR [rax], ecx
$LN5@readNalloc:
$LN2@readNalloc:

; 510  : 	}
; 511  : 
; 512  : 	while ((nRead = (int)fread(*pBuf + nPos, 1, nSize - nPos, pFile)) > 0)

  0013c	8b 44 24 30	 mov	 eax, DWORD PTR nPos$[rsp]
  00140	8b 4c 24 28	 mov	 ecx, DWORD PTR nSize$[rsp]
  00144	2b c8		 sub	 ecx, eax
  00146	8b c1		 mov	 eax, ecx
  00148	48 98		 cdqe
  0014a	48 63 4c 24 30	 movsxd	 rcx, DWORD PTR nPos$[rsp]
  0014f	48 8b 54 24 58	 mov	 rdx, QWORD PTR pBuf$[rsp]
  00154	48 03 0a	 add	 rcx, QWORD PTR [rdx]
  00157	4c 8b 4c 24 20	 mov	 r9, QWORD PTR pFile$[rsp]
  0015c	4c 8b c0	 mov	 r8, rax
  0015f	ba 01 00 00 00	 mov	 edx, 1
  00164	ff 15 00 00 00
	00		 call	 QWORD PTR __imp_fread
  0016a	89 44 24 2c	 mov	 DWORD PTR nRead$[rsp], eax
  0016e	83 7c 24 2c 00	 cmp	 DWORD PTR nRead$[rsp], 0
  00173	7e 12		 jle	 SHORT $LN3@readNalloc

; 513  : 	{
; 514  : 		nPos += nRead;

  00175	8b 44 24 2c	 mov	 eax, DWORD PTR nRead$[rsp]
  00179	8b 4c 24 30	 mov	 ecx, DWORD PTR nPos$[rsp]
  0017d	03 c8		 add	 ecx, eax
  0017f	8b c1		 mov	 eax, ecx
  00181	89 44 24 30	 mov	 DWORD PTR nPos$[rsp], eax

; 515  : 	}

  00185	eb b5		 jmp	 SHORT $LN2@readNalloc
$LN3@readNalloc:

; 516  : 
; 517  : 	if (!nPos) {

  00187	83 7c 24 30 00	 cmp	 DWORD PTR nPos$[rsp], 0
  0018c	75 14		 jne	 SHORT $LN8@readNalloc

; 518  : 		printf("fread errno[%d]\n", errno);

  0018e	ff 15 00 00 00
	00		 call	 QWORD PTR __imp__errno
  00194	8b 10		 mov	 edx, DWORD PTR [rax]
  00196	48 8d 0d 00 00
	00 00		 lea	 rcx, OFFSET FLAT:$SG86726
  0019d	e8 00 00 00 00	 call	 printf
$LN8@readNalloc:

; 519  : 	}
; 520  : 	(*pBuf)[nPos] = 0;

  001a2	48 63 44 24 30	 movsxd	 rax, DWORD PTR nPos$[rsp]
  001a7	48 8b 4c 24 58	 mov	 rcx, QWORD PTR pBuf$[rsp]
  001ac	48 8b 09	 mov	 rcx, QWORD PTR [rcx]
  001af	c6 04 01 00	 mov	 BYTE PTR [rcx+rax], 0

; 521  : 	fclose(pFile);

  001b3	48 8b 4c 24 20	 mov	 rcx, QWORD PTR pFile$[rsp]
  001b8	ff 15 00 00 00
	00		 call	 QWORD PTR __imp_fclose

; 522  : 	return nSize;

  001be	8b 44 24 28	 mov	 eax, DWORD PTR nSize$[rsp]
$LN1@readNalloc:

; 523  : }

  001c2	48 83 c4 40	 add	 rsp, 64			; 00000040H
  001c6	5f		 pop	 rdi
  001c7	c3		 ret	 0
?readNalloc@CFileUtil@@SAHPEADPEAPEADPEAH@Z ENDP	; CFileUtil::readNalloc
_TEXT	ENDS
; Function compile flags: /Odtp /RTCsu
; File e:\infinia-library-3.0\com\src\comfileutil.cpp
_TEXT	SEGMENT
pFile$ = 32
nSize$ = 40
pFilePath$ = 64
pBuf$ = 72
nFileSize$ = 80
?read@CFileUtil@@SAHPEAD0H@Z PROC			; CFileUtil::read

; 384  : {

$LN4:
  00000	44 89 44 24 18	 mov	 DWORD PTR [rsp+24], r8d
  00005	48 89 54 24 10	 mov	 QWORD PTR [rsp+16], rdx
  0000a	48 89 4c 24 08	 mov	 QWORD PTR [rsp+8], rcx
  0000f	57		 push	 rdi
  00010	48 83 ec 30	 sub	 rsp, 48			; 00000030H
  00014	48 8b fc	 mov	 rdi, rsp
  00017	b9 0c 00 00 00	 mov	 ecx, 12
  0001c	b8 cc cc cc cc	 mov	 eax, -858993460		; ccccccccH
  00021	f3 ab		 rep stosd
  00023	48 8b 4c 24 40	 mov	 rcx, QWORD PTR [rsp+64]

; 385  : 	FILE *pFile = _tfopen(pFilePath, _T("rb"));

  00028	48 8d 15 00 00
	00 00		 lea	 rdx, OFFSET FLAT:$SG86573
  0002f	48 8b 4c 24 40	 mov	 rcx, QWORD PTR pFilePath$[rsp]
  00034	ff 15 00 00 00
	00		 call	 QWORD PTR __imp_fopen
  0003a	48 89 44 24 20	 mov	 QWORD PTR pFile$[rsp], rax

; 386  : 	int nSize = 0;

  0003f	c7 44 24 28 00
	00 00 00	 mov	 DWORD PTR nSize$[rsp], 0

; 387  : 
; 388  : 	if (!pFile) {

  00047	48 83 7c 24 20
	00		 cmp	 QWORD PTR pFile$[rsp], 0
  0004d	75 21		 jne	 SHORT $LN2@read

; 389  : 		gs_cLogger.PutLogQueue(LEVEL_ERROR, _T("CDFSFile::read pFile open FAIL [%s]"), pFilePath);

  0004f	4c 8b 4c 24 40	 mov	 r9, QWORD PTR pFilePath$[rsp]
  00054	4c 8d 05 00 00
	00 00		 lea	 r8, OFFSET FLAT:$SG86575
  0005b	ba 05 00 00 00	 mov	 edx, 5
  00060	48 8d 0d 00 00
	00 00		 lea	 rcx, OFFSET FLAT:?gs_cLogger@@3VCLogger@@A ; gs_cLogger
  00067	e8 00 00 00 00	 call	 ?PutLogQueue@CLogger@@QEAAXHPEBDZZ ; CLogger::PutLogQueue

; 390  : 		return 0;

  0006c	33 c0		 xor	 eax, eax
  0006e	eb 3e		 jmp	 SHORT $LN1@read
$LN2@read:

; 391  : 	}
; 392  : 	nSize = (int)fread(pBuf, g_nChSize, nFileSize, pFile);

  00070	48 63 44 24 50	 movsxd	 rax, DWORD PTR nFileSize$[rsp]
  00075	4c 8b 4c 24 20	 mov	 r9, QWORD PTR pFile$[rsp]
  0007a	4c 8b c0	 mov	 r8, rax
  0007d	ba 01 00 00 00	 mov	 edx, 1
  00082	48 8b 4c 24 48	 mov	 rcx, QWORD PTR pBuf$[rsp]
  00087	ff 15 00 00 00
	00		 call	 QWORD PTR __imp_fread
  0008d	89 44 24 28	 mov	 DWORD PTR nSize$[rsp], eax

; 393  : 	pBuf[nSize] = 0;

  00091	48 63 44 24 28	 movsxd	 rax, DWORD PTR nSize$[rsp]
  00096	48 8b 4c 24 48	 mov	 rcx, QWORD PTR pBuf$[rsp]
  0009b	c6 04 01 00	 mov	 BYTE PTR [rcx+rax], 0

; 394  : 	fclose(pFile);

  0009f	48 8b 4c 24 20	 mov	 rcx, QWORD PTR pFile$[rsp]
  000a4	ff 15 00 00 00
	00		 call	 QWORD PTR __imp_fclose

; 395  : 	return nSize;

  000aa	8b 44 24 28	 mov	 eax, DWORD PTR nSize$[rsp]
$LN1@read:

; 396  : }

  000ae	48 83 c4 30	 add	 rsp, 48			; 00000030H
  000b2	5f		 pop	 rdi
  000b3	c3		 ret	 0
?read@CFileUtil@@SAHPEAD0H@Z ENDP			; CFileUtil::read
_TEXT	ENDS
; Function compile flags: /Odtp /RTCsu
; File e:\infinia-library-3.0\com\src\comfileutil.cpp
_TEXT	SEGMENT
pOriDir$ = 48
pNewDir$ = 56
?changeDirName@CFileUtil@@SA_NPEAD0@Z PROC		; CFileUtil::changeDirName

; 374  : {

$LN4:
  00000	48 89 54 24 10	 mov	 QWORD PTR [rsp+16], rdx
  00005	48 89 4c 24 08	 mov	 QWORD PTR [rsp+8], rcx
  0000a	57		 push	 rdi
  0000b	48 83 ec 20	 sub	 rsp, 32			; 00000020H
  0000f	48 8b fc	 mov	 rdi, rsp
  00012	b9 08 00 00 00	 mov	 ecx, 8
  00017	b8 cc cc cc cc	 mov	 eax, -858993460		; ccccccccH
  0001c	f3 ab		 rep stosd
  0001e	48 8b 4c 24 30	 mov	 rcx, QWORD PTR [rsp+48]

; 375  : 	MakeDirectory(pNewDir);

  00023	48 8b 4c 24 38	 mov	 rcx, QWORD PTR pNewDir$[rsp]
  00028	e8 00 00 00 00	 call	 ?MakeDirectory@CFileUtil@@SA_NPEBD@Z ; CFileUtil::MakeDirectory

; 376  : 	if ( _trename(pOriDir, pNewDir) != 0 ) {

  0002d	48 8b 54 24 38	 mov	 rdx, QWORD PTR pNewDir$[rsp]
  00032	48 8b 4c 24 30	 mov	 rcx, QWORD PTR pOriDir$[rsp]
  00037	ff 15 00 00 00
	00		 call	 QWORD PTR __imp_rename
  0003d	85 c0		 test	 eax, eax
  0003f	74 04		 je	 SHORT $LN2@changeDirN

; 377  : 		return false;

  00041	32 c0		 xor	 al, al
  00043	eb 02		 jmp	 SHORT $LN1@changeDirN
$LN2@changeDirN:

; 378  : 	}
; 379  : 	return true;

  00045	b0 01		 mov	 al, 1
$LN1@changeDirN:

; 380  : }

  00047	48 83 c4 20	 add	 rsp, 32			; 00000020H
  0004b	5f		 pop	 rdi
  0004c	c3		 ret	 0
?changeDirName@CFileUtil@@SA_NPEAD0@Z ENDP		; CFileUtil::changeDirName
_TEXT	ENDS
; Function compile flags: /Odtp /RTCsu
; File e:\infinia-library-3.0\com\src\comfileutil.cpp
_TEXT	SEGMENT
nLen$ = 32
pRear$ = 40
i$ = 48
pDir$ = 80
upCount$ = 88
?setDirectory@CFileUtil@@SA_NPEADH@Z PROC		; CFileUtil::setDirectory

; 251  : {

$LN7:
  00000	89 54 24 10	 mov	 DWORD PTR [rsp+16], edx
  00004	48 89 4c 24 08	 mov	 QWORD PTR [rsp+8], rcx
  00009	57		 push	 rdi
  0000a	48 83 ec 40	 sub	 rsp, 64			; 00000040H
  0000e	48 8b fc	 mov	 rdi, rsp
  00011	b9 10 00 00 00	 mov	 ecx, 16
  00016	b8 cc cc cc cc	 mov	 eax, -858993460		; ccccccccH
  0001b	f3 ab		 rep stosd
  0001d	48 8b 4c 24 50	 mov	 rcx, QWORD PTR [rsp+80]

; 252  : 	if (!pDir) {

  00022	48 83 7c 24 50
	00		 cmp	 QWORD PTR pDir$[rsp], 0
  00028	75 07		 jne	 SHORT $LN5@setDirecto

; 253  : 		return false;

  0002a	32 c0		 xor	 al, al
  0002c	e9 ac 00 00 00	 jmp	 $LN1@setDirecto
$LN5@setDirecto:

; 254  : 	}
; 255  : 	size_t	nLen = (int)_tcslen(pDir);

  00031	48 8b 4c 24 50	 mov	 rcx, QWORD PTR pDir$[rsp]
  00036	e8 00 00 00 00	 call	 strlen
  0003b	48 98		 cdqe
  0003d	48 89 44 24 20	 mov	 QWORD PTR nLen$[rsp], rax

; 256  : 	char *pRear = pDir;

  00042	48 8b 44 24 50	 mov	 rax, QWORD PTR pDir$[rsp]
  00047	48 89 44 24 28	 mov	 QWORD PTR pRear$[rsp], rax

; 257  : 
; 258  : 	int i;
; 259  : 	for (i = 0; i < upCount; i++) {

  0004c	c7 44 24 30 00
	00 00 00	 mov	 DWORD PTR i$[rsp], 0
  00054	eb 0a		 jmp	 SHORT $LN4@setDirecto
$LN2@setDirecto:
  00056	8b 44 24 30	 mov	 eax, DWORD PTR i$[rsp]
  0005a	ff c0		 inc	 eax
  0005c	89 44 24 30	 mov	 DWORD PTR i$[rsp], eax
$LN4@setDirecto:
  00060	8b 44 24 58	 mov	 eax, DWORD PTR upCount$[rsp]
  00064	39 44 24 30	 cmp	 DWORD PTR i$[rsp], eax
  00068	7d 1e		 jge	 SHORT $LN3@setDirecto

; 260  : 		pRear = _tcsrchr((TCHAR *)pDir, g_s);

  0006a	ba 5c 00 00 00	 mov	 edx, 92			; 0000005cH
  0006f	48 8b 4c 24 50	 mov	 rcx, QWORD PTR pDir$[rsp]
  00074	e8 00 00 00 00	 call	 ?_tcsrchr@@YAPEADPEADI@Z ; _tcsrchr
  00079	48 89 44 24 28	 mov	 QWORD PTR pRear$[rsp], rax

; 261  : 		*pRear = 0;

  0007e	48 8b 44 24 28	 mov	 rax, QWORD PTR pRear$[rsp]
  00083	c6 00 00	 mov	 BYTE PTR [rax], 0

; 262  : 	}

  00086	eb ce		 jmp	 SHORT $LN2@setDirecto
$LN3@setDirecto:

; 263  : 
; 264  : 	pRear = _tcsrchr((TCHAR *)pDir, g_s);

  00088	ba 5c 00 00 00	 mov	 edx, 92			; 0000005cH
  0008d	48 8b 4c 24 50	 mov	 rcx, QWORD PTR pDir$[rsp]
  00092	e8 00 00 00 00	 call	 ?_tcsrchr@@YAPEADPEADI@Z ; _tcsrchr
  00097	48 89 44 24 28	 mov	 QWORD PTR pRear$[rsp], rax

; 265  : 	nLen = pRear - pDir + 1;

  0009c	48 8b 44 24 50	 mov	 rax, QWORD PTR pDir$[rsp]
  000a1	48 8b 4c 24 28	 mov	 rcx, QWORD PTR pRear$[rsp]
  000a6	48 2b c8	 sub	 rcx, rax
  000a9	48 8b c1	 mov	 rax, rcx
  000ac	48 ff c0	 inc	 rax
  000af	48 89 44 24 20	 mov	 QWORD PTR nLen$[rsp], rax

; 266  : 
; 267  : 	_tcsncpy(pDir, pDir, nLen); pDir[nLen] = 0;

  000b4	4c 8b 44 24 20	 mov	 r8, QWORD PTR nLen$[rsp]
  000b9	48 8b 54 24 50	 mov	 rdx, QWORD PTR pDir$[rsp]
  000be	48 8b 4c 24 50	 mov	 rcx, QWORD PTR pDir$[rsp]
  000c3	e8 00 00 00 00	 call	 _tcsncpy
  000c8	48 8b 44 24 20	 mov	 rax, QWORD PTR nLen$[rsp]
  000cd	48 8b 4c 24 50	 mov	 rcx, QWORD PTR pDir$[rsp]
  000d2	48 03 c8	 add	 rcx, rax
  000d5	48 8b c1	 mov	 rax, rcx
  000d8	c6 00 00	 mov	 BYTE PTR [rax], 0

; 268  : 	return true;

  000db	b0 01		 mov	 al, 1
$LN1@setDirecto:

; 269  : }

  000dd	48 83 c4 40	 add	 rsp, 64			; 00000040H
  000e1	5f		 pop	 rdi
  000e2	c3		 ret	 0
?setDirectory@CFileUtil@@SA_NPEADH@Z ENDP		; CFileUtil::setDirectory
_TEXT	ENDS
; Function compile flags: /Odtp /RTCsu
; File e:\infinia-library-3.0\com\src\comfileutil.cpp
_TEXT	SEGMENT
pPath$ = 16
?IsAbsolutePath@CFileUtil@@SA_NPEBD@Z PROC		; CFileUtil::IsAbsolutePath

; 329  : {

$LN7:
  00000	48 89 4c 24 08	 mov	 QWORD PTR [rsp+8], rcx
  00005	57		 push	 rdi

; 330  : 	if (!pPath)

  00006	48 83 7c 24 10
	00		 cmp	 QWORD PTR pPath$[rsp], 0
  0000c	75 04		 jne	 SHORT $LN2@IsAbsolute

; 331  : 		return false;

  0000e	32 c0		 xor	 al, al
  00010	eb 4d		 jmp	 SHORT $LN1@IsAbsolute
$LN2@IsAbsolute:

; 332  : 
; 333  : 	if (pPath[1] == ':' || pPath[0] == '\\' || pPath[0] == '/')

  00012	b8 01 00 00 00	 mov	 eax, 1
  00017	48 6b c0 01	 imul	 rax, rax, 1
  0001b	48 8b 4c 24 10	 mov	 rcx, QWORD PTR pPath$[rsp]
  00020	0f be 04 01	 movsx	 eax, BYTE PTR [rcx+rax]
  00024	83 f8 3a	 cmp	 eax, 58			; 0000003aH
  00027	74 2e		 je	 SHORT $LN5@IsAbsolute
  00029	b8 01 00 00 00	 mov	 eax, 1
  0002e	48 6b c0 00	 imul	 rax, rax, 0
  00032	48 8b 4c 24 10	 mov	 rcx, QWORD PTR pPath$[rsp]
  00037	0f be 04 01	 movsx	 eax, BYTE PTR [rcx+rax]
  0003b	83 f8 5c	 cmp	 eax, 92			; 0000005cH
  0003e	74 17		 je	 SHORT $LN5@IsAbsolute
  00040	b8 01 00 00 00	 mov	 eax, 1
  00045	48 6b c0 00	 imul	 rax, rax, 0
  00049	48 8b 4c 24 10	 mov	 rcx, QWORD PTR pPath$[rsp]
  0004e	0f be 04 01	 movsx	 eax, BYTE PTR [rcx+rax]
  00052	83 f8 2f	 cmp	 eax, 47			; 0000002fH
  00055	75 06		 jne	 SHORT $LN3@IsAbsolute
$LN5@IsAbsolute:

; 334  : 		return true;

  00057	b0 01		 mov	 al, 1
  00059	eb 04		 jmp	 SHORT $LN1@IsAbsolute

; 335  : 	else

  0005b	eb 02		 jmp	 SHORT $LN4@IsAbsolute
$LN3@IsAbsolute:

; 336  : 		return false;

  0005d	32 c0		 xor	 al, al
$LN4@IsAbsolute:
$LN1@IsAbsolute:

; 337  : }

  0005f	5f		 pop	 rdi
  00060	c3		 ret	 0
?IsAbsolutePath@CFileUtil@@SA_NPEBD@Z ENDP		; CFileUtil::IsAbsolutePath
_TEXT	ENDS
; Function compile flags: /Odtp /RTCsu
; File e:\infinia-library-3.0\com\src\comfileutil.cpp
_TEXT	SEGMENT
szBuf$ = 48
nLen$ = 8248
inFp$ = 8256
outFp$ = 8264
__$ArrayPad$ = 8280
szSrc$ = 8304
szDest$ = 8312
?FileCopy@CFileUtil@@SA_NPEBD0@Z PROC			; CFileUtil::FileCopy

; 341  : {

$LN8:
  00000	48 89 54 24 10	 mov	 QWORD PTR [rsp+16], rdx
  00005	48 89 4c 24 08	 mov	 QWORD PTR [rsp+8], rcx
  0000a	57		 push	 rdi
  0000b	b8 60 20 00 00	 mov	 eax, 8288		; 00002060H
  00010	e8 00 00 00 00	 call	 __chkstk
  00015	48 2b e0	 sub	 rsp, rax
  00018	48 8b fc	 mov	 rdi, rsp
  0001b	b9 18 08 00 00	 mov	 ecx, 2072		; 00000818H
  00020	b8 cc cc cc cc	 mov	 eax, -858993460		; ccccccccH
  00025	f3 ab		 rep stosd
  00027	48 8b 8c 24 70
	20 00 00	 mov	 rcx, QWORD PTR [rsp+8304]
  0002f	48 8b 05 00 00
	00 00		 mov	 rax, QWORD PTR __security_cookie
  00036	48 33 c4	 xor	 rax, rsp
  00039	48 89 84 24 58
	20 00 00	 mov	 QWORD PTR __$ArrayPad$[rsp], rax

; 342  : 
; 343  : 	TCHAR	szBuf[8192];
; 344  : 	size_t	nLen;
; 345  : 	FILE *inFp=NULL, *outFp=NULL;

  00041	48 c7 84 24 40
	20 00 00 00 00
	00 00		 mov	 QWORD PTR inFp$[rsp], 0
  0004d	48 c7 84 24 48
	20 00 00 00 00
	00 00		 mov	 QWORD PTR outFp$[rsp], 0

; 346  : 
; 347  : 	inFp = _tfopen(szSrc, _T("rb"));

  00059	48 8d 15 00 00
	00 00		 lea	 rdx, OFFSET FLAT:$SG86555
  00060	48 8b 8c 24 70
	20 00 00	 mov	 rcx, QWORD PTR szSrc$[rsp]
  00068	ff 15 00 00 00
	00		 call	 QWORD PTR __imp_fopen
  0006e	48 89 84 24 40
	20 00 00	 mov	 QWORD PTR inFp$[rsp], rax

; 348  : 	if(!inFp) {

  00076	48 83 bc 24 40
	20 00 00 00	 cmp	 QWORD PTR inFp$[rsp], 0
  0007f	75 07		 jne	 SHORT $LN4@FileCopy

; 349  : 		return false;

  00081	32 c0		 xor	 al, al
  00083	e9 e4 00 00 00	 jmp	 $LN1@FileCopy
$LN4@FileCopy:

; 350  : 	}
; 351  : 
; 352  : 	outFp = _tfopen(szDest, _T("wb+"));

  00088	48 8d 15 00 00
	00 00		 lea	 rdx, OFFSET FLAT:$SG86557
  0008f	48 8b 8c 24 78
	20 00 00	 mov	 rcx, QWORD PTR szDest$[rsp]
  00097	ff 15 00 00 00
	00		 call	 QWORD PTR __imp_fopen
  0009d	48 89 84 24 48
	20 00 00	 mov	 QWORD PTR outFp$[rsp], rax

; 353  : 	if(!outFp) {

  000a5	48 83 bc 24 48
	20 00 00 00	 cmp	 QWORD PTR outFp$[rsp], 0
  000ae	75 15		 jne	 SHORT $LN5@FileCopy

; 354  : 		fclose(inFp);

  000b0	48 8b 8c 24 40
	20 00 00	 mov	 rcx, QWORD PTR inFp$[rsp]
  000b8	ff 15 00 00 00
	00		 call	 QWORD PTR __imp_fclose

; 355  : 		return false;

  000be	32 c0		 xor	 al, al
  000c0	e9 a7 00 00 00	 jmp	 $LN1@FileCopy
$LN5@FileCopy:

; 356  : 	}
; 357  : 
; 358  : 	nLen = fread(szBuf, g_nChSize, sizeof(szBuf), inFp);

  000c5	4c 8b 8c 24 40
	20 00 00	 mov	 r9, QWORD PTR inFp$[rsp]
  000cd	41 b8 00 20 00
	00		 mov	 r8d, 8192		; 00002000H
  000d3	ba 01 00 00 00	 mov	 edx, 1
  000d8	48 8d 4c 24 30	 lea	 rcx, QWORD PTR szBuf$[rsp]
  000dd	ff 15 00 00 00
	00		 call	 QWORD PTR __imp_fread
  000e3	48 89 84 24 38
	20 00 00	 mov	 QWORD PTR nLen$[rsp], rax
$LN2@FileCopy:

; 359  : 	while (0 < nLen) 

  000eb	48 83 bc 24 38
	20 00 00 00	 cmp	 QWORD PTR nLen$[rsp], 0
  000f4	76 58		 jbe	 SHORT $LN3@FileCopy

; 360  :     {
; 361  : 		fwrite(szBuf, g_nChSize, nLen, outFp);

  000f6	4c 8b 8c 24 48
	20 00 00	 mov	 r9, QWORD PTR outFp$[rsp]
  000fe	4c 8b 84 24 38
	20 00 00	 mov	 r8, QWORD PTR nLen$[rsp]
  00106	ba 01 00 00 00	 mov	 edx, 1
  0010b	48 8d 4c 24 30	 lea	 rcx, QWORD PTR szBuf$[rsp]
  00110	ff 15 00 00 00
	00		 call	 QWORD PTR __imp_fwrite

; 362  : 		if (nLen < sizeof(szBuf))

  00116	48 81 bc 24 38
	20 00 00 00 20
	00 00		 cmp	 QWORD PTR nLen$[rsp], 8192 ; 00002000H
  00122	73 02		 jae	 SHORT $LN6@FileCopy

; 363  : 			break;

  00124	eb 28		 jmp	 SHORT $LN3@FileCopy
$LN6@FileCopy:

; 364  : 
; 365  :         nLen = fread(szBuf, g_nChSize, sizeof(szBuf), inFp);

  00126	4c 8b 8c 24 40
	20 00 00	 mov	 r9, QWORD PTR inFp$[rsp]
  0012e	41 b8 00 20 00
	00		 mov	 r8d, 8192		; 00002000H
  00134	ba 01 00 00 00	 mov	 edx, 1
  00139	48 8d 4c 24 30	 lea	 rcx, QWORD PTR szBuf$[rsp]
  0013e	ff 15 00 00 00
	00		 call	 QWORD PTR __imp_fread
  00144	48 89 84 24 38
	20 00 00	 mov	 QWORD PTR nLen$[rsp], rax

; 366  : 	}

  0014c	eb 9d		 jmp	 SHORT $LN2@FileCopy
$LN3@FileCopy:

; 367  : 
; 368  : 	fclose(inFp);

  0014e	48 8b 8c 24 40
	20 00 00	 mov	 rcx, QWORD PTR inFp$[rsp]
  00156	ff 15 00 00 00
	00		 call	 QWORD PTR __imp_fclose

; 369  : 	fclose(outFp);

  0015c	48 8b 8c 24 48
	20 00 00	 mov	 rcx, QWORD PTR outFp$[rsp]
  00164	ff 15 00 00 00
	00		 call	 QWORD PTR __imp_fclose

; 370  : 	return true;

  0016a	b0 01		 mov	 al, 1
$LN1@FileCopy:

; 371  : }

  0016c	48 8b f8	 mov	 rdi, rax
  0016f	48 8b cc	 mov	 rcx, rsp
  00172	48 8d 15 00 00
	00 00		 lea	 rdx, OFFSET FLAT:?FileCopy@CFileUtil@@SA_NPEBD0@Z$rtcFrameData
  00179	e8 00 00 00 00	 call	 _RTC_CheckStackVars
  0017e	48 8b c7	 mov	 rax, rdi
  00181	48 8b 8c 24 58
	20 00 00	 mov	 rcx, QWORD PTR __$ArrayPad$[rsp]
  00189	48 33 cc	 xor	 rcx, rsp
  0018c	e8 00 00 00 00	 call	 __security_check_cookie
  00191	48 81 c4 60 20
	00 00		 add	 rsp, 8288		; 00002060H
  00198	5f		 pop	 rdi
  00199	c3		 ret	 0
?FileCopy@CFileUtil@@SA_NPEBD0@Z ENDP			; CFileUtil::FileCopy
_TEXT	ENDS
; Function compile flags: /Odtp /RTCsu
; File e:\infinia-library-3.0\com\src\comfileutil.cpp
_TEXT	SEGMENT
tmpBuf$ = 64
ptr$ = 328
dptr$ = 336
len$ = 344
szTmp$ = 360
$T5 = 400
__$ArrayPad$ = 408
dirName$ = 448
?MakeDirectory@CFileUtil@@SA_NPEBD@Z PROC		; CFileUtil::MakeDirectory

; 298  : {

$LN13:
  00000	48 89 4c 24 08	 mov	 QWORD PTR [rsp+8], rcx
  00005	56		 push	 rsi
  00006	57		 push	 rdi
  00007	48 81 ec a8 01
	00 00		 sub	 rsp, 424		; 000001a8H
  0000e	48 8b fc	 mov	 rdi, rsp
  00011	b9 6a 00 00 00	 mov	 ecx, 106		; 0000006aH
  00016	b8 cc cc cc cc	 mov	 eax, -858993460		; ccccccccH
  0001b	f3 ab		 rep stosd
  0001d	48 8b 8c 24 c0
	01 00 00	 mov	 rcx, QWORD PTR [rsp+448]
  00025	48 8b 05 00 00
	00 00		 mov	 rax, QWORD PTR __security_cookie
  0002c	48 33 c4	 xor	 rax, rsp
  0002f	48 89 84 24 98
	01 00 00	 mov	 QWORD PTR __$ArrayPad$[rsp], rax

; 299  : 	TCHAR	tmpBuf[MAX_PATH_LEN];
; 300  : 	TCHAR	*ptr, *dptr = (TCHAR *)dirName;

  00037	48 8b 84 24 c0
	01 00 00	 mov	 rax, QWORD PTR dirName$[rsp]
  0003f	48 89 84 24 50
	01 00 00	 mov	 QWORD PTR dptr$[rsp], rax

; 301  : 	int	len;	
; 302  : 	CheckDirName((TCHAR*)dirName);

  00047	48 8b 8c 24 c0
	01 00 00	 mov	 rcx, QWORD PTR dirName$[rsp]
  0004f	e8 00 00 00 00	 call	 ?CheckDirName@@YAXPEAD@Z ; CheckDirName

; 303  : #ifndef WIN32
; 304  : 	TCHAR szTmp[2][5] = {_T("./"), _T("../")};
; 305  : #else
; 306  : 	TCHAR szTmp[2][5] = {_T(".\\"), _T("..\\")};

  00054	48 8d 84 24 68
	01 00 00	 lea	 rax, QWORD PTR szTmp$[rsp]
  0005c	48 8d 0d 00 00
	00 00		 lea	 rcx, OFFSET FLAT:$SG86528
  00063	48 8b f8	 mov	 rdi, rax
  00066	48 8b f1	 mov	 rsi, rcx
  00069	b9 03 00 00 00	 mov	 ecx, 3
  0006e	f3 a4		 rep movsb
  00070	48 8d 84 24 6b
	01 00 00	 lea	 rax, QWORD PTR szTmp$[rsp+3]
  00078	48 8b f8	 mov	 rdi, rax
  0007b	33 c0		 xor	 eax, eax
  0007d	b9 02 00 00 00	 mov	 ecx, 2
  00082	f3 aa		 rep stosb
  00084	8b 05 00 00 00
	00		 mov	 eax, DWORD PTR $SG86529
  0008a	89 84 24 6d 01
	00 00		 mov	 DWORD PTR szTmp$[rsp+5], eax
  00091	48 8d 84 24 71
	01 00 00	 lea	 rax, QWORD PTR szTmp$[rsp+9]
  00099	48 8b f8	 mov	 rdi, rax
  0009c	33 c0		 xor	 eax, eax
  0009e	b9 01 00 00 00	 mov	 ecx, 1
  000a3	f3 aa		 rep stosb
$LN2@MakeDirect:

; 307  : #endif
; 308  : 	while (dptr && (ptr = _tcschr(dptr, g_s)))

  000a5	48 83 bc 24 50
	01 00 00 00	 cmp	 QWORD PTR dptr$[rsp], 0
  000ae	0f 84 1f 01 00
	00		 je	 $LN3@MakeDirect
  000b4	ba 5c 00 00 00	 mov	 edx, 92			; 0000005cH
  000b9	48 8b 8c 24 50
	01 00 00	 mov	 rcx, QWORD PTR dptr$[rsp]
  000c1	e8 00 00 00 00	 call	 ?_tcschr@@YAPEADPEADI@Z	; _tcschr
  000c6	48 89 84 24 48
	01 00 00	 mov	 QWORD PTR ptr$[rsp], rax
  000ce	48 83 bc 24 48
	01 00 00 00	 cmp	 QWORD PTR ptr$[rsp], 0
  000d7	0f 84 f6 00 00
	00		 je	 $LN3@MakeDirect

; 309  : 	{
; 310  : 		len = (int)(ptr - dirName) + 1;

  000dd	48 8b 84 24 c0
	01 00 00	 mov	 rax, QWORD PTR dirName$[rsp]
  000e5	48 8b 8c 24 48
	01 00 00	 mov	 rcx, QWORD PTR ptr$[rsp]
  000ed	48 2b c8	 sub	 rcx, rax
  000f0	48 8b c1	 mov	 rax, rcx
  000f3	ff c0		 inc	 eax
  000f5	89 84 24 58 01
	00 00		 mov	 DWORD PTR len$[rsp], eax

; 311  : 		_tcsncpy(tmpBuf, dirName, len);

  000fc	48 63 84 24 58
	01 00 00	 movsxd	 rax, DWORD PTR len$[rsp]
  00104	4c 8b c0	 mov	 r8, rax
  00107	48 8b 94 24 c0
	01 00 00	 mov	 rdx, QWORD PTR dirName$[rsp]
  0010f	48 8d 4c 24 40	 lea	 rcx, QWORD PTR tmpBuf$[rsp]
  00114	e8 00 00 00 00	 call	 _tcsncpy

; 312  : 		tmpBuf[len] = 0;

  00119	48 63 84 24 58
	01 00 00	 movsxd	 rax, DWORD PTR len$[rsp]
  00121	48 89 84 24 90
	01 00 00	 mov	 QWORD PTR $T5[rsp], rax
  00129	48 81 bc 24 90
	01 00 00 00 01
	00 00		 cmp	 QWORD PTR $T5[rsp], 256	; 00000100H
  00135	73 02		 jae	 SHORT $LN11@MakeDirect
  00137	eb 05		 jmp	 SHORT $LN12@MakeDirect
$LN11@MakeDirect:
  00139	e8 00 00 00 00	 call	 __report_rangecheckfailure
$LN12@MakeDirect:
  0013e	48 8b 84 24 90
	01 00 00	 mov	 rax, QWORD PTR $T5[rsp]
  00146	c6 44 04 40 00	 mov	 BYTE PTR tmpBuf$[rsp+rax], 0

; 313  : 
; 314  : 		if (strcmp(tmpBuf, szTmp[0]) && strcmp(tmpBuf, szTmp[1])) {

  0014b	b8 05 00 00 00	 mov	 eax, 5
  00150	48 6b c0 00	 imul	 rax, rax, 0
  00154	48 8d 84 04 68
	01 00 00	 lea	 rax, QWORD PTR szTmp$[rsp+rax]
  0015c	48 8b d0	 mov	 rdx, rax
  0015f	48 8d 4c 24 40	 lea	 rcx, QWORD PTR tmpBuf$[rsp]
  00164	e8 00 00 00 00	 call	 strcmp
  00169	85 c0		 test	 eax, eax
  0016b	74 4a		 je	 SHORT $LN4@MakeDirect
  0016d	b8 05 00 00 00	 mov	 eax, 5
  00172	48 6b c0 01	 imul	 rax, rax, 1
  00176	48 8d 84 04 68
	01 00 00	 lea	 rax, QWORD PTR szTmp$[rsp+rax]
  0017e	48 8b d0	 mov	 rdx, rax
  00181	48 8d 4c 24 40	 lea	 rcx, QWORD PTR tmpBuf$[rsp]
  00186	e8 00 00 00 00	 call	 strcmp
  0018b	85 c0		 test	 eax, eax
  0018d	74 28		 je	 SHORT $LN4@MakeDirect

; 315  : 			if (com_isInvalid(tmpBuf)) {

  0018f	48 8d 4c 24 40	 lea	 rcx, QWORD PTR tmpBuf$[rsp]
  00194	e8 00 00 00 00	 call	 ?com_isInvalid@@YA_NPEBD@Z ; com_isInvalid
  00199	0f b6 c0	 movzx	 eax, al
  0019c	85 c0		 test	 eax, eax
  0019e	74 15		 je	 SHORT $LN6@MakeDirect

; 316  : 				if (!com_mkdir(tmpBuf)) goto MDIR_ERROR;

  001a0	48 8d 4c 24 40	 lea	 rcx, QWORD PTR tmpBuf$[rsp]
  001a5	e8 00 00 00 00	 call	 ?com_mkdir@@YA_NPEBD@Z	; com_mkdir
  001aa	0f b6 c0	 movzx	 eax, al
  001ad	85 c0		 test	 eax, eax
  001af	75 04		 jne	 SHORT $LN7@MakeDirect
  001b1	eb 24		 jmp	 SHORT $LN8@MakeDirect
  001b3	eb 22		 jmp	 SHORT $MDIR_ERROR$14
$LN7@MakeDirect:
$LN6@MakeDirect:

; 317  : 			}
; 318  : 		}
; 319  : 		else goto MDIR_ERROR;

  001b5	eb 04		 jmp	 SHORT $LN5@MakeDirect
$LN4@MakeDirect:
  001b7	eb 1e		 jmp	 SHORT $LN9@MakeDirect
  001b9	eb 1c		 jmp	 SHORT $MDIR_ERROR$14
$LN5@MakeDirect:

; 320  : 		dptr = ptr + 1;

  001bb	48 8b 84 24 48
	01 00 00	 mov	 rax, QWORD PTR ptr$[rsp]
  001c3	48 ff c0	 inc	 rax
  001c6	48 89 84 24 50
	01 00 00	 mov	 QWORD PTR dptr$[rsp], rax

; 321  : 	}

  001ce	e9 d2 fe ff ff	 jmp	 $LN2@MakeDirect
$LN3@MakeDirect:

; 322  : 	return true;

  001d3	b0 01		 mov	 al, 1
  001d5	eb 36		 jmp	 SHORT $LN1@MakeDirect
$LN8@MakeDirect:
$LN9@MakeDirect:
$MDIR_ERROR$14:

; 323  : MDIR_ERROR:
; 324  : 	gs_cLogger.DebugLog(LEVEL_ERROR, "com_mkdir has Failed! [%s]", tmpBuf);

  001d7	48 8d 44 24 40	 lea	 rax, QWORD PTR tmpBuf$[rsp]
  001dc	48 89 44 24 28	 mov	 QWORD PTR [rsp+40], rax
  001e1	48 8d 05 00 00
	00 00		 lea	 rax, OFFSET FLAT:$SG86536
  001e8	48 89 44 24 20	 mov	 QWORD PTR [rsp+32], rax
  001ed	41 b9 44 01 00
	00		 mov	 r9d, 324		; 00000144H
  001f3	4c 8d 05 00 00
	00 00		 lea	 r8, OFFSET FLAT:$SG86537
  001fa	ba 05 00 00 00	 mov	 edx, 5
  001ff	48 8d 0d 00 00
	00 00		 lea	 rcx, OFFSET FLAT:?gs_cLogger@@3VCLogger@@A ; gs_cLogger
  00206	e8 00 00 00 00	 call	 ?__debugLog@CLogger@@QEAAXHPEBDH0ZZ ; CLogger::__debugLog

; 325  : 	return false;

  0020b	32 c0		 xor	 al, al
$LN1@MakeDirect:
$LN10@MakeDirect:

; 326  : }

  0020d	48 8b f8	 mov	 rdi, rax
  00210	48 8b cc	 mov	 rcx, rsp
  00213	48 8d 15 00 00
	00 00		 lea	 rdx, OFFSET FLAT:?MakeDirectory@CFileUtil@@SA_NPEBD@Z$rtcFrameData
  0021a	e8 00 00 00 00	 call	 _RTC_CheckStackVars
  0021f	48 8b c7	 mov	 rax, rdi
  00222	48 8b 8c 24 98
	01 00 00	 mov	 rcx, QWORD PTR __$ArrayPad$[rsp]
  0022a	48 33 cc	 xor	 rcx, rsp
  0022d	e8 00 00 00 00	 call	 __security_check_cookie
  00232	48 81 c4 a8 01
	00 00		 add	 rsp, 424		; 000001a8H
  00239	5f		 pop	 rdi
  0023a	5e		 pop	 rsi
  0023b	c3		 ret	 0
?MakeDirectory@CFileUtil@@SA_NPEBD@Z ENDP		; CFileUtil::MakeDirectory
_TEXT	ENDS
; Function compile flags: /Odtp /RTCsu
; File e:\infinia-library-3.0\com\src\comfileutil.cpp
_TEXT	SEGMENT
dir$ = 64
file$ = 96
fname$ = 440
filePath$ = 480
szDir$ = 768
szSubDir$ = 928
nCount$ = 1060
nResult$ = 1064
bDirectory$ = 1068
cFTime$ = 1080
stSubDir$ = 1112
pRes$ = 1144
filterList$ = 1152
$T10 = 1168
$T11 = 1172
$T12 = 1176
$T13 = 1184
$T14 = 1192
$T15 = 1200
$T16 = 1208
tv193 = 1216
__$ArrayPad$ = 1224
pData$ = 1248
filter$ = 1256
?delDirectory@CFileUtil@@SAHPEAUSTDelInfo@@PEAUSTFilterData@@@Z PROC ; CFileUtil::delDirectory

; 149  : {

$LN33:
  00000	48 89 54 24 10	 mov	 QWORD PTR [rsp+16], rdx
  00005	48 89 4c 24 08	 mov	 QWORD PTR [rsp+8], rcx
  0000a	57		 push	 rdi
  0000b	48 81 ec d0 04
	00 00		 sub	 rsp, 1232		; 000004d0H
  00012	48 8b fc	 mov	 rdi, rsp
  00015	b9 34 01 00 00	 mov	 ecx, 308		; 00000134H
  0001a	b8 cc cc cc cc	 mov	 eax, -858993460		; ccccccccH
  0001f	f3 ab		 rep stosd
  00021	48 8b 8c 24 e0
	04 00 00	 mov	 rcx, QWORD PTR [rsp+1248]
  00029	48 c7 84 24 b8
	04 00 00 fe ff
	ff ff		 mov	 QWORD PTR $T16[rsp], -2
  00035	48 8b 05 00 00
	00 00		 mov	 rax, QWORD PTR __security_cookie
  0003c	48 33 c4	 xor	 rax, rsp
  0003f	48 89 84 24 c8
	04 00 00	 mov	 QWORD PTR __$ArrayPad$[rsp], rax

; 150  : 	JPDIR dir;
; 151  : 	JFILEDATA  file;
; 152  : 	TCHAR	*fname = NULL, filePath[256], szDir[128], szSubDir[128];

  00047	48 c7 84 24 b8
	01 00 00 00 00
	00 00		 mov	 QWORD PTR fname$[rsp], 0

; 153  : 	int nCount = 0, nResult;

  00053	c7 84 24 24 04
	00 00 00 00 00
	00		 mov	 DWORD PTR nCount$[rsp], 0

; 154  : 	bool bDirectory = false;

  0005e	c6 84 24 2c 04
	00 00 00	 mov	 BYTE PTR bDirectory$[rsp], 0

; 155  : 	CFileTime cFTime;

  00066	48 8d 8c 24 38
	04 00 00	 lea	 rcx, QWORD PTR cFTime$[rsp]
  0006e	e8 00 00 00 00	 call	 ??0CFileTime@@QEAA@XZ	; CFileTime::CFileTime
  00073	90		 npad	 1

; 156  : 	STDelInfo stSubDir;
; 157  : 	void *pRes = NULL;

  00074	48 c7 84 24 78
	04 00 00 00 00
	00 00		 mov	 QWORD PTR pRes$[rsp], 0

; 158  : 	CStringList *filterList = NULL;

  00080	48 c7 84 24 80
	04 00 00 00 00
	00 00		 mov	 QWORD PTR filterList$[rsp], 0

; 159  : 
; 160  : #ifndef WIN32
; 161  : 	struct  stat st;
; 162  : #endif
; 163  : 
; 164  : 	if (!pData->root) {

  0008c	48 8b 84 24 e0
	04 00 00	 mov	 rax, QWORD PTR pData$[rsp]
  00094	48 83 38 00	 cmp	 QWORD PTR [rax], 0
  00098	75 24		 jne	 SHORT $LN4@delDirecto

; 165  : 		// TODO LOG
; 166  : 		return 0;

  0009a	c7 84 24 90 04
	00 00 00 00 00
	00		 mov	 DWORD PTR $T10[rsp], 0
  000a5	48 8d 8c 24 38
	04 00 00	 lea	 rcx, QWORD PTR cFTime$[rsp]
  000ad	e8 00 00 00 00	 call	 ??1CFileTime@@QEAA@XZ	; CFileTime::~CFileTime
  000b2	8b 84 24 90 04
	00 00		 mov	 eax, DWORD PTR $T10[rsp]
  000b9	e9 87 04 00 00	 jmp	 $LN1@delDirecto
$LN4@delDirecto:

; 167  : 	}
; 168  : 	_tcscpy(szDir, pData->root);

  000be	48 8b 84 24 e0
	04 00 00	 mov	 rax, QWORD PTR pData$[rsp]
  000c6	48 8b 10	 mov	 rdx, QWORD PTR [rax]
  000c9	48 8d 8c 24 00
	03 00 00	 lea	 rcx, QWORD PTR szDir$[rsp]
  000d1	e8 00 00 00 00	 call	 strcpy

; 169  : 
; 170  : 	if (!IsExistDirectory(szDir)) return 0;

  000d6	48 8d 8c 24 00
	03 00 00	 lea	 rcx, QWORD PTR szDir$[rsp]
  000de	e8 00 00 00 00	 call	 ?IsExistDirectory@CFileUtil@@SA_NPEAD@Z ; CFileUtil::IsExistDirectory
  000e3	0f b6 c0	 movzx	 eax, al
  000e6	85 c0		 test	 eax, eax
  000e8	75 24		 jne	 SHORT $LN5@delDirecto
  000ea	c7 84 24 94 04
	00 00 00 00 00
	00		 mov	 DWORD PTR $T11[rsp], 0
  000f5	48 8d 8c 24 38
	04 00 00	 lea	 rcx, QWORD PTR cFTime$[rsp]
  000fd	e8 00 00 00 00	 call	 ??1CFileTime@@QEAA@XZ	; CFileTime::~CFileTime
  00102	8b 84 24 94 04
	00 00		 mov	 eax, DWORD PTR $T11[rsp]
  00109	e9 37 04 00 00	 jmp	 $LN1@delDirecto
$LN5@delDirecto:

; 171  : 
; 172  : 
; 173  : 	dir = com_findFirstFile(szDir, &file);

  0010e	48 8d 54 24 60	 lea	 rdx, QWORD PTR file$[rsp]
  00113	48 8d 8c 24 00
	03 00 00	 lea	 rcx, QWORD PTR szDir$[rsp]
  0011b	e8 00 00 00 00	 call	 ?com_findFirstFile@@YAPEAXPEBDPEAU_WIN32_FIND_DATAA@@@Z ; com_findFirstFile
  00120	48 89 44 24 40	 mov	 QWORD PTR dir$[rsp], rax

; 174  : 	if (0 >= dir) return 0;

  00125	48 83 7c 24 40
	00		 cmp	 QWORD PTR dir$[rsp], 0
  0012b	77 24		 ja	 SHORT $LN2@delDirecto
  0012d	c7 84 24 98 04
	00 00 00 00 00
	00		 mov	 DWORD PTR $T12[rsp], 0
  00138	48 8d 8c 24 38
	04 00 00	 lea	 rcx, QWORD PTR cFTime$[rsp]
  00140	e8 00 00 00 00	 call	 ??1CFileTime@@QEAA@XZ	; CFileTime::~CFileTime
  00145	8b 84 24 98 04
	00 00		 mov	 eax, DWORD PTR $T12[rsp]
  0014c	e9 f4 03 00 00	 jmp	 $LN1@delDirecto
$LN2@delDirecto:

; 175  : 	while (com_nextFile(dir, &file))

  00151	48 8d 54 24 60	 lea	 rdx, QWORD PTR file$[rsp]
  00156	48 8b 4c 24 40	 mov	 rcx, QWORD PTR dir$[rsp]
  0015b	e8 00 00 00 00	 call	 ?com_nextFile@@YA_NPEAXPEAU_WIN32_FIND_DATAA@@@Z ; com_nextFile
  00160	0f b6 c0	 movzx	 eax, al
  00163	85 c0		 test	 eax, eax
  00165	0f 84 ae 02 00
	00		 je	 $LN3@delDirecto

; 176  : 	{
; 177  : 		com_getFileName(&fname, &file);

  0016b	48 8d 54 24 60	 lea	 rdx, QWORD PTR file$[rsp]
  00170	48 8d 8c 24 b8
	01 00 00	 lea	 rcx, QWORD PTR fname$[rsp]
  00178	e8 00 00 00 00	 call	 ?com_getFileName@@YAXPEAPEADPEAU_WIN32_FIND_DATAA@@@Z ; com_getFileName

; 178  : 		if (_tcscmp(fname, _T(".")) == 0
; 179  : 			|| _tcscmp(fname, _T("..")) == 0)

  0017d	48 8d 15 00 00
	00 00		 lea	 rdx, OFFSET FLAT:$SG86383
  00184	48 8b 8c 24 b8
	01 00 00	 mov	 rcx, QWORD PTR fname$[rsp]
  0018c	e8 00 00 00 00	 call	 _tcscmp
  00191	85 c0		 test	 eax, eax
  00193	74 18		 je	 SHORT $LN8@delDirecto
  00195	48 8d 15 00 00
	00 00		 lea	 rdx, OFFSET FLAT:$SG86384
  0019c	48 8b 8c 24 b8
	01 00 00	 mov	 rcx, QWORD PTR fname$[rsp]
  001a4	e8 00 00 00 00	 call	 _tcscmp
  001a9	85 c0		 test	 eax, eax
  001ab	75 02		 jne	 SHORT $LN7@delDirecto
$LN8@delDirecto:

; 180  : 			continue;

  001ad	eb a2		 jmp	 SHORT $LN2@delDirecto
$LN7@delDirecto:

; 181  : 
; 182  : 		_stprintf(filePath, _T("%s%s"), pData->root, fname);

  001af	4c 8b 8c 24 b8
	01 00 00	 mov	 r9, QWORD PTR fname$[rsp]
  001b7	48 8b 84 24 e0
	04 00 00	 mov	 rax, QWORD PTR pData$[rsp]
  001bf	4c 8b 00	 mov	 r8, QWORD PTR [rax]
  001c2	48 8d 15 00 00
	00 00		 lea	 rdx, OFFSET FLAT:$SG86385
  001c9	48 8d 8c 24 e0
	01 00 00	 lea	 rcx, QWORD PTR filePath$[rsp]
  001d1	e8 00 00 00 00	 call	 sprintf

; 183  : #ifndef WIN32 // -- only unix
; 184  : 		stat(filePath, &st);
; 185  : 		if (com_ISDIR(&st)) bDirectory = true;
; 186  : 		if (filter) {
; 187  : 			if (filter->pFunc == filter_dateTimeCompare) { cFTime.setFileTime(st.st_mtime); pRes = &cFTime; }
; 188  : 			else if (filter->pFunc == filter_stringCompare) { pRes = filterList; }
; 189  : 		}
; 190  : #else
; 191  : 		cFTime.setFileTime(&file.ftLastWriteTime);

  001d6	48 8d 54 24 74	 lea	 rdx, QWORD PTR file$[rsp+20]
  001db	48 8d 8c 24 38
	04 00 00	 lea	 rcx, QWORD PTR cFTime$[rsp]
  001e3	e8 00 00 00 00	 call	 ?setFileTime@CFileTime@@QEAAHPEAU_FILETIME@@@Z ; CFileTime::setFileTime

; 192  : 		// windows
; 193  : 		if (com_ISDIR(&file)) bDirectory = true;

  001e8	48 8d 4c 24 60	 lea	 rcx, QWORD PTR file$[rsp]
  001ed	e8 00 00 00 00	 call	 ?jISDIR@@YA_NPEAU_WIN32_FIND_DATAA@@@Z ; jISDIR
  001f2	0f b6 c0	 movzx	 eax, al
  001f5	85 c0		 test	 eax, eax
  001f7	74 08		 je	 SHORT $LN9@delDirecto
  001f9	c6 84 24 2c 04
	00 00 01	 mov	 BYTE PTR bDirectory$[rsp], 1
$LN9@delDirecto:

; 194  : 		if (filter) {

  00201	48 83 bc 24 e8
	04 00 00 00	 cmp	 QWORD PTR filter$[rsp], 0
  0020a	74 4a		 je	 SHORT $LN10@delDirecto

; 195  : 			if (filter->pFunc == filter_dateTimeCompare) { 

  0020c	48 8b 84 24 e8
	04 00 00	 mov	 rax, QWORD PTR filter$[rsp]
  00214	48 8d 0d 00 00
	00 00		 lea	 rcx, OFFSET FLAT:?filter_dateTimeCompare@@YA_NPEADPEAX1@Z ; filter_dateTimeCompare
  0021b	48 39 08	 cmp	 QWORD PTR [rax], rcx
  0021e	75 12		 jne	 SHORT $LN11@delDirecto

; 196  : 				//cFTime.setFileTime(filePath); 
; 197  : 				pRes = &cFTime; 

  00220	48 8d 84 24 38
	04 00 00	 lea	 rax, QWORD PTR cFTime$[rsp]
  00228	48 89 84 24 78
	04 00 00	 mov	 QWORD PTR pRes$[rsp], rax
  00230	eb 24		 jmp	 SHORT $LN10@delDirecto
$LN11@delDirecto:

; 198  : 			}
; 199  : 			else if (filter->pFunc == filter_stringCompare) { pRes = filterList; }

  00232	48 8b 84 24 e8
	04 00 00	 mov	 rax, QWORD PTR filter$[rsp]
  0023a	48 8d 0d 00 00
	00 00		 lea	 rcx, OFFSET FLAT:?filter_stringCompare@@YA_NPEADPEAX1@Z ; filter_stringCompare
  00241	48 39 08	 cmp	 QWORD PTR [rax], rcx
  00244	75 10		 jne	 SHORT $LN10@delDirecto
  00246	48 8b 84 24 80
	04 00 00	 mov	 rax, QWORD PTR filterList$[rsp]
  0024e	48 89 84 24 78
	04 00 00	 mov	 QWORD PTR pRes$[rsp], rax
$LN10@delDirecto:

; 200  : 		}
; 201  : #endif
; 202  : 
; 203  : 		if (bDirectory) {

  00256	0f b6 84 24 2c
	04 00 00	 movzx	 eax, BYTE PTR bDirectory$[rsp]
  0025e	85 c0		 test	 eax, eax
  00260	0f 84 8e 00 00
	00		 je	 $LN14@delDirecto

; 204  : 			if (pData->nFlag & DIR_RECURSIVE) {

  00266	48 8b 84 24 e0
	04 00 00	 mov	 rax, QWORD PTR pData$[rsp]
  0026e	8b 40 08	 mov	 eax, DWORD PTR [rax+8]
  00271	83 e0 01	 and	 eax, 1
  00274	85 c0		 test	 eax, eax
  00276	74 77		 je	 SHORT $LN16@delDirecto

; 205  : 				_stprintf(szSubDir, _T("%s%s%c"), pData->root, fname, g_s);

  00278	c7 44 24 20 5c
	00 00 00	 mov	 DWORD PTR [rsp+32], 92	; 0000005cH
  00280	4c 8b 8c 24 b8
	01 00 00	 mov	 r9, QWORD PTR fname$[rsp]
  00288	48 8b 84 24 e0
	04 00 00	 mov	 rax, QWORD PTR pData$[rsp]
  00290	4c 8b 00	 mov	 r8, QWORD PTR [rax]
  00293	48 8d 15 00 00
	00 00		 lea	 rdx, OFFSET FLAT:$SG86394
  0029a	48 8d 8c 24 a0
	03 00 00	 lea	 rcx, QWORD PTR szSubDir$[rsp]
  002a2	e8 00 00 00 00	 call	 sprintf

; 206  : 				memcpy(&stSubDir, pData, sizeof(STDelInfo));

  002a7	41 b8 18 00 00
	00		 mov	 r8d, 24
  002ad	48 8b 94 24 e0
	04 00 00	 mov	 rdx, QWORD PTR pData$[rsp]
  002b5	48 8d 8c 24 58
	04 00 00	 lea	 rcx, QWORD PTR stSubDir$[rsp]
  002bd	e8 00 00 00 00	 call	 memcpy

; 207  : 				stSubDir.root = szSubDir;

  002c2	48 8d 84 24 a0
	03 00 00	 lea	 rax, QWORD PTR szSubDir$[rsp]
  002ca	48 89 84 24 58
	04 00 00	 mov	 QWORD PTR stSubDir$[rsp], rax

; 208  : 				delDirectory(&stSubDir, filter);

  002d2	48 8b 94 24 e8
	04 00 00	 mov	 rdx, QWORD PTR filter$[rsp]
  002da	48 8d 8c 24 58
	04 00 00	 lea	 rcx, QWORD PTR stSubDir$[rsp]
  002e2	e8 00 00 00 00	 call	 ?delDirectory@CFileUtil@@SAHPEAUSTDelInfo@@PEAUSTFilterData@@@Z ; CFileUtil::delDirectory

; 209  : 				bDirectory = false;

  002e7	c6 84 24 2c 04
	00 00 00	 mov	 BYTE PTR bDirectory$[rsp], 0
$LN16@delDirecto:

; 210  : 			}
; 211  : 		}
; 212  : 		else {

  002ef	e9 20 01 00 00	 jmp	 $LN15@delDirecto
$LN14@delDirecto:

; 213  : 			if (filter) {

  002f4	48 83 bc 24 e8
	04 00 00 00	 cmp	 QWORD PTR filter$[rsp], 0
  002fd	74 47		 je	 SHORT $LN17@delDirecto

; 214  : 				if (filter->pFunc(fname, filter->pData, pRes)) nResult = 1;

  002ff	4c 8b 84 24 78
	04 00 00	 mov	 r8, QWORD PTR pRes$[rsp]
  00307	48 8b 84 24 e8
	04 00 00	 mov	 rax, QWORD PTR filter$[rsp]
  0030f	48 8b 50 08	 mov	 rdx, QWORD PTR [rax+8]
  00313	48 8b 8c 24 b8
	01 00 00	 mov	 rcx, QWORD PTR fname$[rsp]
  0031b	48 8b 84 24 e8
	04 00 00	 mov	 rax, QWORD PTR filter$[rsp]
  00323	ff 10		 call	 QWORD PTR [rax]
  00325	0f b6 c0	 movzx	 eax, al
  00328	85 c0		 test	 eax, eax
  0032a	74 0d		 je	 SHORT $LN19@delDirecto
  0032c	c7 84 24 28 04
	00 00 01 00 00
	00		 mov	 DWORD PTR nResult$[rsp], 1
  00337	eb 0b		 jmp	 SHORT $LN20@delDirecto
$LN19@delDirecto:

; 215  : 				else nResult = 0;

  00339	c7 84 24 28 04
	00 00 00 00 00
	00		 mov	 DWORD PTR nResult$[rsp], 0
$LN20@delDirecto:
  00344	eb 0b		 jmp	 SHORT $LN18@delDirecto
$LN17@delDirecto:

; 216  : 			}
; 217  : 			else nResult = 1;

  00346	c7 84 24 28 04
	00 00 01 00 00
	00		 mov	 DWORD PTR nResult$[rsp], 1
$LN18@delDirecto:

; 218  : 
; 219  : 
; 220  : 			if (nResult) {

  00351	83 bc 24 28 04
	00 00 00	 cmp	 DWORD PTR nResult$[rsp], 0
  00359	0f 84 b5 00 00
	00		 je	 $LN15@delDirecto

; 221  : 				nResult = _tremove(filePath);

  0035f	48 8d 8c 24 e0
	01 00 00	 lea	 rcx, QWORD PTR filePath$[rsp]
  00367	ff 15 00 00 00
	00		 call	 QWORD PTR __imp_remove
  0036d	89 84 24 28 04
	00 00		 mov	 DWORD PTR nResult$[rsp], eax

; 222  : 				if (nResult < 0) {

  00374	83 bc 24 28 04
	00 00 00	 cmp	 DWORD PTR nResult$[rsp], 0
  0037c	7d 44		 jge	 SHORT $LN22@delDirecto

; 223  : 					// TODO ERROR LOG
; 224  : 					gs_cLogger.DebugLog(LEVEL_WARN, _T("FAILED _tremove[%s] nResult[%d]"), filePath, nResult);

  0037e	8b 84 24 28 04
	00 00		 mov	 eax, DWORD PTR nResult$[rsp]
  00385	89 44 24 30	 mov	 DWORD PTR [rsp+48], eax
  00389	48 8d 84 24 e0
	01 00 00	 lea	 rax, QWORD PTR filePath$[rsp]
  00391	48 89 44 24 28	 mov	 QWORD PTR [rsp+40], rax
  00396	48 8d 05 00 00
	00 00		 lea	 rax, OFFSET FLAT:$SG86402
  0039d	48 89 44 24 20	 mov	 QWORD PTR [rsp+32], rax
  003a2	41 b9 e0 00 00
	00		 mov	 r9d, 224		; 000000e0H
  003a8	4c 8d 05 00 00
	00 00		 lea	 r8, OFFSET FLAT:$SG86403
  003af	ba 04 00 00 00	 mov	 edx, 4
  003b4	48 8d 0d 00 00
	00 00		 lea	 rcx, OFFSET FLAT:?gs_cLogger@@3VCLogger@@A ; gs_cLogger
  003bb	e8 00 00 00 00	 call	 ?__debugLog@CLogger@@QEAAXHPEBDH0ZZ ; CLogger::__debugLog

; 225  : 				}
; 226  : 				else {

  003c0	eb 42		 jmp	 SHORT $LN23@delDirecto
$LN22@delDirecto:

; 227  : 					gs_cLogger.DebugLog(LEVEL_INFO, _T("SUCCESS _tremove[%s] nResult[%d]"), filePath, nResult);

  003c2	8b 84 24 28 04
	00 00		 mov	 eax, DWORD PTR nResult$[rsp]
  003c9	89 44 24 30	 mov	 DWORD PTR [rsp+48], eax
  003cd	48 8d 84 24 e0
	01 00 00	 lea	 rax, QWORD PTR filePath$[rsp]
  003d5	48 89 44 24 28	 mov	 QWORD PTR [rsp+40], rax
  003da	48 8d 05 00 00
	00 00		 lea	 rax, OFFSET FLAT:$SG86404
  003e1	48 89 44 24 20	 mov	 QWORD PTR [rsp+32], rax
  003e6	41 b9 e3 00 00
	00		 mov	 r9d, 227		; 000000e3H
  003ec	4c 8d 05 00 00
	00 00		 lea	 r8, OFFSET FLAT:$SG86405
  003f3	ba 03 00 00 00	 mov	 edx, 3
  003f8	48 8d 0d 00 00
	00 00		 lea	 rcx, OFFSET FLAT:?gs_cLogger@@3VCLogger@@A ; gs_cLogger
  003ff	e8 00 00 00 00	 call	 ?__debugLog@CLogger@@QEAAXHPEBDH0ZZ ; CLogger::__debugLog
$LN23@delDirecto:

; 228  : 				}
; 229  : 				// TODO TRACE LOG
; 230  : 				nCount++;

  00404	8b 84 24 24 04
	00 00		 mov	 eax, DWORD PTR nCount$[rsp]
  0040b	ff c0		 inc	 eax
  0040d	89 84 24 24 04
	00 00		 mov	 DWORD PTR nCount$[rsp], eax
$LN15@delDirecto:

; 231  : 			}
; 232  : 		}
; 233  : 	}

  00414	e9 38 fd ff ff	 jmp	 $LN2@delDirecto
$LN3@delDirecto:

; 234  : 	com_dirclose(dir);

  00419	48 8b 4c 24 40	 mov	 rcx, QWORD PTR dir$[rsp]
  0041e	ff 15 00 00 00
	00		 call	 QWORD PTR __imp_FindClose

; 235  : 	if (filterList) delete filterList;

  00424	48 83 bc 24 80
	04 00 00 00	 cmp	 QWORD PTR filterList$[rsp], 0
  0042d	74 53		 je	 SHORT $LN24@delDirecto
  0042f	48 8b 84 24 80
	04 00 00	 mov	 rax, QWORD PTR filterList$[rsp]
  00437	48 89 84 24 a8
	04 00 00	 mov	 QWORD PTR $T14[rsp], rax
  0043f	48 8b 84 24 a8
	04 00 00	 mov	 rax, QWORD PTR $T14[rsp]
  00447	48 89 84 24 a0
	04 00 00	 mov	 QWORD PTR $T13[rsp], rax
  0044f	48 83 bc 24 a0
	04 00 00 00	 cmp	 QWORD PTR $T13[rsp], 0
  00458	74 1c		 je	 SHORT $LN29@delDirecto
  0045a	ba 01 00 00 00	 mov	 edx, 1
  0045f	48 8b 8c 24 a0
	04 00 00	 mov	 rcx, QWORD PTR $T13[rsp]
  00467	e8 00 00 00 00	 call	 ??_GCStringList@@QEAAPEAXI@Z
  0046c	48 89 84 24 c0
	04 00 00	 mov	 QWORD PTR tv193[rsp], rax
  00474	eb 0c		 jmp	 SHORT $LN24@delDirecto
$LN29@delDirecto:
  00476	48 c7 84 24 c0
	04 00 00 00 00
	00 00		 mov	 QWORD PTR tv193[rsp], 0
$LN24@delDirecto:

; 236  : 	if (pData->nFlag & DEL_DIRECTORY) {

  00482	48 8b 84 24 e0
	04 00 00	 mov	 rax, QWORD PTR pData$[rsp]
  0048a	8b 40 08	 mov	 eax, DWORD PTR [rax+8]
  0048d	83 e0 02	 and	 eax, 2
  00490	85 c0		 test	 eax, eax
  00492	0f 84 8b 00 00
	00		 je	 $LN25@delDirecto

; 237  : 		if (com_rmdir(pData->root)) {

  00498	48 8b 84 24 e0
	04 00 00	 mov	 rax, QWORD PTR pData$[rsp]
  004a0	48 8b 08	 mov	 rcx, QWORD PTR [rax]
  004a3	ff 15 00 00 00
	00		 call	 QWORD PTR __imp_RemoveDirectoryA
  004a9	85 c0		 test	 eax, eax
  004ab	74 3c		 je	 SHORT $LN26@delDirecto

; 238  : 			gs_cLogger.DebugLog(LEVEL_INFO, _T("SUCCESS rmdir[%s]"), pData->root);

  004ad	48 8b 84 24 e0
	04 00 00	 mov	 rax, QWORD PTR pData$[rsp]
  004b5	48 8b 00	 mov	 rax, QWORD PTR [rax]
  004b8	48 89 44 24 28	 mov	 QWORD PTR [rsp+40], rax
  004bd	48 8d 05 00 00
	00 00		 lea	 rax, OFFSET FLAT:$SG86410
  004c4	48 89 44 24 20	 mov	 QWORD PTR [rsp+32], rax
  004c9	41 b9 ee 00 00
	00		 mov	 r9d, 238		; 000000eeH
  004cf	4c 8d 05 00 00
	00 00		 lea	 r8, OFFSET FLAT:$SG86411
  004d6	ba 03 00 00 00	 mov	 edx, 3
  004db	48 8d 0d 00 00
	00 00		 lea	 rcx, OFFSET FLAT:?gs_cLogger@@3VCLogger@@A ; gs_cLogger
  004e2	e8 00 00 00 00	 call	 ?__debugLog@CLogger@@QEAAXHPEBDH0ZZ ; CLogger::__debugLog

; 239  : 		}
; 240  : 		else {

  004e7	eb 3a		 jmp	 SHORT $LN25@delDirecto
$LN26@delDirecto:

; 241  : 			gs_cLogger.DebugLog(LEVEL_WARN, _T("FAILED rmdir[%s]"), pData->root);

  004e9	48 8b 84 24 e0
	04 00 00	 mov	 rax, QWORD PTR pData$[rsp]
  004f1	48 8b 00	 mov	 rax, QWORD PTR [rax]
  004f4	48 89 44 24 28	 mov	 QWORD PTR [rsp+40], rax
  004f9	48 8d 05 00 00
	00 00		 lea	 rax, OFFSET FLAT:$SG86412
  00500	48 89 44 24 20	 mov	 QWORD PTR [rsp+32], rax
  00505	41 b9 f1 00 00
	00		 mov	 r9d, 241		; 000000f1H
  0050b	4c 8d 05 00 00
	00 00		 lea	 r8, OFFSET FLAT:$SG86413
  00512	ba 04 00 00 00	 mov	 edx, 4
  00517	48 8d 0d 00 00
	00 00		 lea	 rcx, OFFSET FLAT:?gs_cLogger@@3VCLogger@@A ; gs_cLogger
  0051e	e8 00 00 00 00	 call	 ?__debugLog@CLogger@@QEAAXHPEBDH0ZZ ; CLogger::__debugLog
$LN25@delDirecto:

; 242  : 		}
; 243  : 	}
; 244  : 	return nCount;

  00523	8b 84 24 24 04
	00 00		 mov	 eax, DWORD PTR nCount$[rsp]
  0052a	89 84 24 b0 04
	00 00		 mov	 DWORD PTR $T15[rsp], eax
  00531	48 8d 8c 24 38
	04 00 00	 lea	 rcx, QWORD PTR cFTime$[rsp]
  00539	e8 00 00 00 00	 call	 ??1CFileTime@@QEAA@XZ	; CFileTime::~CFileTime
  0053e	8b 84 24 b0 04
	00 00		 mov	 eax, DWORD PTR $T15[rsp]
$LN1@delDirecto:

; 245  : }

  00545	48 8b f8	 mov	 rdi, rax
  00548	48 8b cc	 mov	 rcx, rsp
  0054b	48 8d 15 00 00
	00 00		 lea	 rdx, OFFSET FLAT:?delDirectory@CFileUtil@@SAHPEAUSTDelInfo@@PEAUSTFilterData@@@Z$rtcFrameData
  00552	e8 00 00 00 00	 call	 _RTC_CheckStackVars
  00557	48 8b c7	 mov	 rax, rdi
  0055a	48 8b 8c 24 c8
	04 00 00	 mov	 rcx, QWORD PTR __$ArrayPad$[rsp]
  00562	48 33 cc	 xor	 rcx, rsp
  00565	e8 00 00 00 00	 call	 __security_check_cookie
  0056a	48 81 c4 d0 04
	00 00		 add	 rsp, 1232		; 000004d0H
  00571	5f		 pop	 rdi
  00572	c3		 ret	 0
?delDirectory@CFileUtil@@SAHPEAUSTDelInfo@@PEAUSTFilterData@@@Z ENDP ; CFileUtil::delDirectory
_TEXT	ENDS
text$x	SEGMENT
dir$ = 64
file$ = 96
fname$ = 440
filePath$ = 480
szDir$ = 768
szSubDir$ = 928
nCount$ = 1060
nResult$ = 1064
bDirectory$ = 1068
cFTime$ = 1080
stSubDir$ = 1112
pRes$ = 1144
filterList$ = 1152
$T10 = 1168
$T11 = 1172
$T12 = 1176
$T13 = 1184
$T14 = 1192
$T15 = 1200
$T16 = 1208
tv193 = 1216
__$ArrayPad$ = 1224
pData$ = 1248
filter$ = 1256
?dtor$0@?0??delDirectory@CFileUtil@@SAHPEAUSTDelInfo@@PEAUSTFilterData@@@Z@4HA PROC ; `CFileUtil::delDirectory'::`1'::dtor$0
  00000	48 89 4c 24 08	 mov	 QWORD PTR [rsp+8], rcx
  00005	48 89 54 24 10	 mov	 QWORD PTR [rsp+16], rdx
  0000a	55		 push	 rbp
  0000b	57		 push	 rdi
  0000c	48 83 ec 28	 sub	 rsp, 40			; 00000028H
  00010	48 8b ea	 mov	 rbp, rdx
  00013	48 8d 8d 38 04
	00 00		 lea	 rcx, QWORD PTR cFTime$[rbp]
  0001a	e8 00 00 00 00	 call	 ??1CFileTime@@QEAA@XZ	; CFileTime::~CFileTime
  0001f	48 83 c4 28	 add	 rsp, 40			; 00000028H
  00023	5f		 pop	 rdi
  00024	5d		 pop	 rbp
  00025	c3		 ret	 0
?dtor$0@?0??delDirectory@CFileUtil@@SAHPEAUSTDelInfo@@PEAUSTFilterData@@@Z@4HA ENDP ; `CFileUtil::delDirectory'::`1'::dtor$0
text$x	ENDS
; Function compile flags: /Odtp /RTCsu
text$x	SEGMENT
dir$ = 64
file$ = 96
fname$ = 440
filePath$ = 480
szDir$ = 768
szSubDir$ = 928
nCount$ = 1060
nResult$ = 1064
bDirectory$ = 1068
cFTime$ = 1080
stSubDir$ = 1112
pRes$ = 1144
filterList$ = 1152
$T10 = 1168
$T11 = 1172
$T12 = 1176
$T13 = 1184
$T14 = 1192
$T15 = 1200
$T16 = 1208
tv193 = 1216
__$ArrayPad$ = 1224
pData$ = 1248
filter$ = 1256
?dtor$0@?0??delDirectory@CFileUtil@@SAHPEAUSTDelInfo@@PEAUSTFilterData@@@Z@4HA PROC ; `CFileUtil::delDirectory'::`1'::dtor$0
  00000	48 89 4c 24 08	 mov	 QWORD PTR [rsp+8], rcx
  00005	48 89 54 24 10	 mov	 QWORD PTR [rsp+16], rdx
  0000a	55		 push	 rbp
  0000b	57		 push	 rdi
  0000c	48 83 ec 28	 sub	 rsp, 40			; 00000028H
  00010	48 8b ea	 mov	 rbp, rdx
  00013	48 8d 8d 38 04
	00 00		 lea	 rcx, QWORD PTR cFTime$[rbp]
  0001a	e8 00 00 00 00	 call	 ??1CFileTime@@QEAA@XZ	; CFileTime::~CFileTime
  0001f	48 83 c4 28	 add	 rsp, 40			; 00000028H
  00023	5f		 pop	 rdi
  00024	5d		 pop	 rbp
  00025	c3		 ret	 0
?dtor$0@?0??delDirectory@CFileUtil@@SAHPEAUSTDelInfo@@PEAUSTFilterData@@@Z@4HA ENDP ; `CFileUtil::delDirectory'::`1'::dtor$0
text$x	ENDS
; Function compile flags: /Odtp /RTCsu
; File e:\infinia-library-3.0\com\src\comfileutil.cpp
_TEXT	SEGMENT
dir$ = 32
file$ = 64
filterList$ = 392
fname$ = 408
fList$ = 424
nCount$ = 432
dirName$ = 464
$T6 = 608
$T7 = 616
tv152 = 624
__$ArrayPad$ = 632
pResult$ = 656
pFilter$ = 664
?GetFileList@CFileUtil@@SA_NPEAUSTFileList@@PEAUSTFilterData@@@Z PROC ; CFileUtil::GetFileList

; 96   : {

$LN18:
  00000	48 89 54 24 10	 mov	 QWORD PTR [rsp+16], rdx
  00005	48 89 4c 24 08	 mov	 QWORD PTR [rsp+8], rcx
  0000a	57		 push	 rdi
  0000b	48 81 ec 80 02
	00 00		 sub	 rsp, 640		; 00000280H
  00012	48 8b fc	 mov	 rdi, rsp
  00015	b9 a0 00 00 00	 mov	 ecx, 160		; 000000a0H
  0001a	b8 cc cc cc cc	 mov	 eax, -858993460		; ccccccccH
  0001f	f3 ab		 rep stosd
  00021	48 8b 8c 24 90
	02 00 00	 mov	 rcx, QWORD PTR [rsp+656]
  00029	48 8b 05 00 00
	00 00		 mov	 rax, QWORD PTR __security_cookie
  00030	48 33 c4	 xor	 rax, rsp
  00033	48 89 84 24 78
	02 00 00	 mov	 QWORD PTR __$ArrayPad$[rsp], rax

; 97   : 	JPDIR dir;
; 98   : 	JFILEDATA  file;
; 99   : 
; 100  : 	CStringList *filterList = NULL;

  0003b	48 c7 84 24 88
	01 00 00 00 00
	00 00		 mov	 QWORD PTR filterList$[rsp], 0

; 101  : 	TCHAR	*fname= NULL;

  00047	48 c7 84 24 98
	01 00 00 00 00
	00 00		 mov	 QWORD PTR fname$[rsp], 0

; 102  : 	CTList<fileInfo> *fList = NULL;

  00053	48 c7 84 24 a8
	01 00 00 00 00
	00 00		 mov	 QWORD PTR fList$[rsp], 0

; 103  : 	int nCount = 0;

  0005f	c7 84 24 b0 01
	00 00 00 00 00
	00		 mov	 DWORD PTR nCount$[rsp], 0

; 104  : 	TCHAR dirName[128];
; 105  : 
; 106  : 	if (!pResult) return false;

  0006a	48 83 bc 24 90
	02 00 00 00	 cmp	 QWORD PTR pResult$[rsp], 0
  00073	75 07		 jne	 SHORT $LN5@GetFileLis
  00075	32 c0		 xor	 al, al
  00077	e9 bc 01 00 00	 jmp	 $LN1@GetFileLis
$LN5@GetFileLis:

; 107  : 	_tcscpy(dirName, pResult->root);

  0007c	48 8b 84 24 90
	02 00 00	 mov	 rax, QWORD PTR pResult$[rsp]
  00084	48 8b 10	 mov	 rdx, QWORD PTR [rax]
  00087	48 8d 8c 24 d0
	01 00 00	 lea	 rcx, QWORD PTR dirName$[rsp]
  0008f	e8 00 00 00 00	 call	 strcpy

; 108  : 
; 109  : #ifndef WIN32
; 110  : 	struct  stat st;
; 111  : #endif
; 112  : 
; 113  : 	if (!IsExistDirectory(dirName)) return false;

  00094	48 8d 8c 24 d0
	01 00 00	 lea	 rcx, QWORD PTR dirName$[rsp]
  0009c	e8 00 00 00 00	 call	 ?IsExistDirectory@CFileUtil@@SA_NPEAD@Z ; CFileUtil::IsExistDirectory
  000a1	0f b6 c0	 movzx	 eax, al
  000a4	85 c0		 test	 eax, eax
  000a6	75 07		 jne	 SHORT $LN6@GetFileLis
  000a8	32 c0		 xor	 al, al
  000aa	e9 89 01 00 00	 jmp	 $LN1@GetFileLis
$LN6@GetFileLis:

; 114  : 
; 115  : 	dir = com_findFirstFile(dirName, &file);

  000af	48 8d 54 24 40	 lea	 rdx, QWORD PTR file$[rsp]
  000b4	48 8d 8c 24 d0
	01 00 00	 lea	 rcx, QWORD PTR dirName$[rsp]
  000bc	e8 00 00 00 00	 call	 ?com_findFirstFile@@YAPEAXPEBDPEAU_WIN32_FIND_DATAA@@@Z ; com_findFirstFile
  000c1	48 89 44 24 20	 mov	 QWORD PTR dir$[rsp], rax

; 116  : 	if (0 >= dir) return false;

  000c6	48 83 7c 24 20
	00		 cmp	 QWORD PTR dir$[rsp], 0
  000cc	77 07		 ja	 SHORT $LN7@GetFileLis
  000ce	32 c0		 xor	 al, al
  000d0	e9 63 01 00 00	 jmp	 $LN1@GetFileLis
$LN7@GetFileLis:
$LN4@GetFileLis:

; 117  : 
; 118  : 	do  {
; 119  : 		com_getFileName(&fname, &file);

  000d5	48 8d 54 24 40	 lea	 rdx, QWORD PTR file$[rsp]
  000da	48 8d 8c 24 98
	01 00 00	 lea	 rcx, QWORD PTR fname$[rsp]
  000e2	e8 00 00 00 00	 call	 ?com_getFileName@@YAXPEAPEADPEAU_WIN32_FIND_DATAA@@@Z ; com_getFileName

; 120  : 
; 121  : 		if (_tcscmp(fname, _T(".")) == 0
; 122  : 			|| _tcscmp(fname, _T("..")) == 0)

  000e7	48 8d 15 00 00
	00 00		 lea	 rdx, OFFSET FLAT:$SG86342
  000ee	48 8b 8c 24 98
	01 00 00	 mov	 rcx, QWORD PTR fname$[rsp]
  000f6	e8 00 00 00 00	 call	 _tcscmp
  000fb	85 c0		 test	 eax, eax
  000fd	74 18		 je	 SHORT $LN9@GetFileLis
  000ff	48 8d 15 00 00
	00 00		 lea	 rdx, OFFSET FLAT:$SG86343
  00106	48 8b 8c 24 98
	01 00 00	 mov	 rcx, QWORD PTR fname$[rsp]
  0010e	e8 00 00 00 00	 call	 _tcscmp
  00113	85 c0		 test	 eax, eax
  00115	75 05		 jne	 SHORT $LN8@GetFileLis
$LN9@GetFileLis:

; 123  : 			continue;

  00117	e9 8e 00 00 00	 jmp	 $LN2@GetFileLis
$LN8@GetFileLis:

; 124  : 
; 125  : #ifndef WIN32 // -- only unix
; 126  : 		_stprintf(filePath, _T("%s%s"), szDir, fname);
; 127  : 		stat(filePath, &st);
; 128  : 		if(com_ISDIR(&st)) { appendFileList(fList, fname, 'D');}
; 129  : 		else if(com_ISREG(&st)) {
; 130  : #else		
; 131  : 		if(com_ISDIR(&file)) { appendFileList(fList, fname, 'D'); }

  0011c	48 8d 4c 24 40	 lea	 rcx, QWORD PTR file$[rsp]
  00121	e8 00 00 00 00	 call	 ?jISDIR@@YA_NPEAU_WIN32_FIND_DATAA@@@Z ; jISDIR
  00126	0f b6 c0	 movzx	 eax, al
  00129	85 c0		 test	 eax, eax
  0012b	74 1a		 je	 SHORT $LN10@GetFileLis
  0012d	41 b0 44	 mov	 r8b, 68			; 00000044H
  00130	48 8b 94 24 98
	01 00 00	 mov	 rdx, QWORD PTR fname$[rsp]
  00138	48 8b 8c 24 a8
	01 00 00	 mov	 rcx, QWORD PTR fList$[rsp]
  00140	e8 00 00 00 00	 call	 ?appendFileList@CFileUtil@@CA_NPEAV?$CTList@UfileInfo@@@@PEBDD@Z ; CFileUtil::appendFileList
  00145	eb 63		 jmp	 SHORT $LN11@GetFileLis
$LN10@GetFileLis:

; 132  : 		else if(com_ISREG(&file)) {

  00147	48 8d 4c 24 40	 lea	 rcx, QWORD PTR file$[rsp]
  0014c	e8 00 00 00 00	 call	 ?jISREG@@YA_NPEAU_WIN32_FIND_DATAA@@@Z ; jISREG
  00151	0f b6 c0	 movzx	 eax, al
  00154	85 c0		 test	 eax, eax
  00156	74 52		 je	 SHORT $LN12@GetFileLis

; 133  : #endif
; 134  : 			if (pFilter) {

  00158	48 83 bc 24 98
	02 00 00 00	 cmp	 QWORD PTR pFilter$[rsp], 0
  00161	74 2f		 je	 SHORT $LN13@GetFileLis

; 135  : 				if (!pFilter->pFunc(fname, pFilter->pData, filterList)) continue;

  00163	4c 8b 84 24 88
	01 00 00	 mov	 r8, QWORD PTR filterList$[rsp]
  0016b	48 8b 84 24 98
	02 00 00	 mov	 rax, QWORD PTR pFilter$[rsp]
  00173	48 8b 50 08	 mov	 rdx, QWORD PTR [rax+8]
  00177	48 8b 8c 24 98
	01 00 00	 mov	 rcx, QWORD PTR fname$[rsp]
  0017f	48 8b 84 24 98
	02 00 00	 mov	 rax, QWORD PTR pFilter$[rsp]
  00187	ff 10		 call	 QWORD PTR [rax]
  00189	0f b6 c0	 movzx	 eax, al
  0018c	85 c0		 test	 eax, eax
  0018e	75 02		 jne	 SHORT $LN14@GetFileLis
  00190	eb 18		 jmp	 SHORT $LN2@GetFileLis
$LN14@GetFileLis:
$LN13@GetFileLis:

; 136  : 			}
; 137  : 			appendFileList(fList, fname, 'F');

  00192	41 b0 46	 mov	 r8b, 70			; 00000046H
  00195	48 8b 94 24 98
	01 00 00	 mov	 rdx, QWORD PTR fname$[rsp]
  0019d	48 8b 8c 24 a8
	01 00 00	 mov	 rcx, QWORD PTR fList$[rsp]
  001a5	e8 00 00 00 00	 call	 ?appendFileList@CFileUtil@@CA_NPEAV?$CTList@UfileInfo@@@@PEBDD@Z ; CFileUtil::appendFileList
$LN12@GetFileLis:
$LN11@GetFileLis:
$LN2@GetFileLis:

; 138  : 		}
; 139  : 	} while (com_nextFile(dir, &file));

  001aa	48 8d 54 24 40	 lea	 rdx, QWORD PTR file$[rsp]
  001af	48 8b 4c 24 20	 mov	 rcx, QWORD PTR dir$[rsp]
  001b4	e8 00 00 00 00	 call	 ?com_nextFile@@YA_NPEAXPEAU_WIN32_FIND_DATAA@@@Z ; com_nextFile
  001b9	0f b6 c0	 movzx	 eax, al
  001bc	85 c0		 test	 eax, eax
  001be	0f 85 11 ff ff
	ff		 jne	 $LN4@GetFileLis

; 140  : 
; 141  : 	com_dirclose(dir);

  001c4	48 8b 4c 24 20	 mov	 rcx, QWORD PTR dir$[rsp]
  001c9	ff 15 00 00 00
	00		 call	 QWORD PTR __imp_FindClose

; 142  : 	pResult->pList = fList;

  001cf	48 8b 84 24 90
	02 00 00	 mov	 rax, QWORD PTR pResult$[rsp]
  001d7	48 8b 8c 24 a8
	01 00 00	 mov	 rcx, QWORD PTR fList$[rsp]
  001df	48 89 48 08	 mov	 QWORD PTR [rax+8], rcx

; 143  : 	delete filterList;

  001e3	48 8b 84 24 88
	01 00 00	 mov	 rax, QWORD PTR filterList$[rsp]
  001eb	48 89 84 24 68
	02 00 00	 mov	 QWORD PTR $T7[rsp], rax
  001f3	48 8b 84 24 68
	02 00 00	 mov	 rax, QWORD PTR $T7[rsp]
  001fb	48 89 84 24 60
	02 00 00	 mov	 QWORD PTR $T6[rsp], rax
  00203	48 83 bc 24 60
	02 00 00 00	 cmp	 QWORD PTR $T6[rsp], 0
  0020c	74 1c		 je	 SHORT $LN16@GetFileLis
  0020e	ba 01 00 00 00	 mov	 edx, 1
  00213	48 8b 8c 24 60
	02 00 00	 mov	 rcx, QWORD PTR $T6[rsp]
  0021b	e8 00 00 00 00	 call	 ??_GCStringList@@QEAAPEAXI@Z
  00220	48 89 84 24 70
	02 00 00	 mov	 QWORD PTR tv152[rsp], rax
  00228	eb 0c		 jmp	 SHORT $LN17@GetFileLis
$LN16@GetFileLis:
  0022a	48 c7 84 24 70
	02 00 00 00 00
	00 00		 mov	 QWORD PTR tv152[rsp], 0
$LN17@GetFileLis:

; 144  : 	return true;

  00236	b0 01		 mov	 al, 1
$LN1@GetFileLis:

; 145  : }

  00238	48 8b f8	 mov	 rdi, rax
  0023b	48 8b cc	 mov	 rcx, rsp
  0023e	48 8d 15 00 00
	00 00		 lea	 rdx, OFFSET FLAT:?GetFileList@CFileUtil@@SA_NPEAUSTFileList@@PEAUSTFilterData@@@Z$rtcFrameData
  00245	e8 00 00 00 00	 call	 _RTC_CheckStackVars
  0024a	48 8b c7	 mov	 rax, rdi
  0024d	48 8b 8c 24 78
	02 00 00	 mov	 rcx, QWORD PTR __$ArrayPad$[rsp]
  00255	48 33 cc	 xor	 rcx, rsp
  00258	e8 00 00 00 00	 call	 __security_check_cookie
  0025d	48 81 c4 80 02
	00 00		 add	 rsp, 640		; 00000280H
  00264	5f		 pop	 rdi
  00265	c3		 ret	 0
?GetFileList@CFileUtil@@SA_NPEAUSTFileList@@PEAUSTFilterData@@@Z ENDP ; CFileUtil::GetFileList
_TEXT	ENDS
; Function compile flags: /Odtp /RTCsu
; File e:\infinia-library-3.0\com\src\comfileutil.cpp
_TEXT	SEGMENT
bRes$ = 32
dirName$ = 64
?IsExistDirectory@CFileUtil@@SA_NPEAD@Z PROC		; CFileUtil::IsExistDirectory

; 79   : {

$LN4:
  00000	48 89 4c 24 08	 mov	 QWORD PTR [rsp+8], rcx
  00005	57		 push	 rdi
  00006	48 83 ec 30	 sub	 rsp, 48			; 00000030H
  0000a	48 8b fc	 mov	 rdi, rsp
  0000d	b9 0c 00 00 00	 mov	 ecx, 12
  00012	b8 cc cc cc cc	 mov	 eax, -858993460		; ccccccccH
  00017	f3 ab		 rep stosd
  00019	48 8b 4c 24 40	 mov	 rcx, QWORD PTR [rsp+64]

; 80   : 	bool bRes = false;

  0001e	c6 44 24 20 00	 mov	 BYTE PTR bRes$[rsp], 0

; 81   : 	if (com_isDirectory(dirName))

  00023	48 8b 4c 24 40	 mov	 rcx, QWORD PTR dirName$[rsp]
  00028	e8 00 00 00 00	 call	 ?com_isDirectory@@YA_NPEAD@Z ; com_isDirectory
  0002d	0f b6 c0	 movzx	 eax, al
  00030	85 c0		 test	 eax, eax
  00032	74 1b		 je	 SHORT $LN2@IsExistDir

; 82   : #ifndef WIN32 // -- only unix
; 83   : 	{
; 84   : 		bRes = true;
; 85   : 	}
; 86   : #else	
; 87   : 	{
; 88   : 		bRes = true;

  00034	c6 44 24 20 01	 mov	 BYTE PTR bRes$[rsp], 1

; 89   : 		_stprintf(dirName, _T("%s*.*"), dirName);

  00039	4c 8b 44 24 40	 mov	 r8, QWORD PTR dirName$[rsp]
  0003e	48 8d 15 00 00
	00 00		 lea	 rdx, OFFSET FLAT:$SG86320
  00045	48 8b 4c 24 40	 mov	 rcx, QWORD PTR dirName$[rsp]
  0004a	e8 00 00 00 00	 call	 sprintf
$LN2@IsExistDir:

; 90   : 	}
; 91   : #endif
; 92   : 	return bRes;

  0004f	0f b6 44 24 20	 movzx	 eax, BYTE PTR bRes$[rsp]

; 93   : }

  00054	48 83 c4 30	 add	 rsp, 48			; 00000030H
  00058	5f		 pop	 rdi
  00059	c3		 ret	 0
?IsExistDirectory@CFileUtil@@SA_NPEAD@Z ENDP		; CFileUtil::IsExistDirectory
_TEXT	ENDS
; Function compile flags: /Odtp /RTCsu
; File e:\infinia-library-3.0\com\src\comfileutil.cpp
_TEXT	SEGMENT
pComperand$ = 32
pComFileTime$ = 40
pFile$ = 64
pData$ = 72
pRes$ = 80
?filter_dateTimeCompare@@YA_NPEADPEAX1@Z PROC		; filter_dateTimeCompare

; 50   : {

$LN4:
  00000	4c 89 44 24 18	 mov	 QWORD PTR [rsp+24], r8
  00005	48 89 54 24 10	 mov	 QWORD PTR [rsp+16], rdx
  0000a	48 89 4c 24 08	 mov	 QWORD PTR [rsp+8], rcx
  0000f	57		 push	 rdi
  00010	48 83 ec 30	 sub	 rsp, 48			; 00000030H
  00014	48 8b fc	 mov	 rdi, rsp
  00017	b9 0c 00 00 00	 mov	 ecx, 12
  0001c	b8 cc cc cc cc	 mov	 eax, -858993460		; ccccccccH
  00021	f3 ab		 rep stosd
  00023	48 8b 4c 24 40	 mov	 rcx, QWORD PTR [rsp+64]

; 51   : 	CFileTime *pComperand = (CFileTime *)pData;

  00028	48 8b 44 24 48	 mov	 rax, QWORD PTR pData$[rsp]
  0002d	48 89 44 24 20	 mov	 QWORD PTR pComperand$[rsp], rax

; 52   : 	CFileTime *pComFileTime = (CFileTime *)pRes;

  00032	48 8b 44 24 50	 mov	 rax, QWORD PTR pRes$[rsp]
  00037	48 89 44 24 28	 mov	 QWORD PTR pComFileTime$[rsp], rax

; 53   : 	if (pComFileTime->isCompare(pComperand, eOperator_LE)) // LE : less or Equal

  0003c	41 b8 06 00 00
	00		 mov	 r8d, 6
  00042	48 8b 54 24 20	 mov	 rdx, QWORD PTR pComperand$[rsp]
  00047	48 8b 4c 24 28	 mov	 rcx, QWORD PTR pComFileTime$[rsp]
  0004c	e8 00 00 00 00	 call	 ?isCompare@CFileTime@@QEAA_NPEAV1@W4E_OPERATOR@@@Z ; CFileTime::isCompare
  00051	0f b6 c0	 movzx	 eax, al
  00054	85 c0		 test	 eax, eax
  00056	74 04		 je	 SHORT $LN2@filter_dat

; 54   : 	{
; 55   : 		return true;

  00058	b0 01		 mov	 al, 1
  0005a	eb 02		 jmp	 SHORT $LN1@filter_dat
$LN2@filter_dat:

; 56   : 	}
; 57   : 	return false;

  0005c	32 c0		 xor	 al, al
$LN1@filter_dat:

; 58   : }

  0005e	48 83 c4 30	 add	 rsp, 48			; 00000030H
  00062	5f		 pop	 rdi
  00063	c3		 ret	 0
?filter_dateTimeCompare@@YA_NPEADPEAX1@Z ENDP		; filter_dateTimeCompare
_TEXT	ENDS
; Function compile flags: /Odtp /RTCsu
; File e:\infinia-library-3.0\com\src\comfileutil.cpp
_TEXT	SEGMENT
filterList$ = 32
pFilter$4 = 40
i$ = 52
filter$ = 72
$T5 = 88
$T6 = 96
$T7 = 104
tv79 = 112
__$ArrayPad$ = 120
pFile$ = 144
pData$ = 152
pRes$ = 160
?filter_stringCompare@@YA_NPEADPEAX1@Z PROC		; filter_stringCompare

; 27   : {

$LN12:
  00000	4c 89 44 24 18	 mov	 QWORD PTR [rsp+24], r8
  00005	48 89 54 24 10	 mov	 QWORD PTR [rsp+16], rdx
  0000a	48 89 4c 24 08	 mov	 QWORD PTR [rsp+8], rcx
  0000f	57		 push	 rdi
  00010	48 81 ec 80 00
	00 00		 sub	 rsp, 128		; 00000080H
  00017	48 8b fc	 mov	 rdi, rsp
  0001a	b9 20 00 00 00	 mov	 ecx, 32			; 00000020H
  0001f	b8 cc cc cc cc	 mov	 eax, -858993460		; ccccccccH
  00024	f3 ab		 rep stosd
  00026	48 8b 8c 24 90
	00 00 00	 mov	 rcx, QWORD PTR [rsp+144]
  0002e	48 c7 44 24 68
	fe ff ff ff	 mov	 QWORD PTR $T7[rsp], -2
  00037	48 8b 05 00 00
	00 00		 mov	 rax, QWORD PTR __security_cookie
  0003e	48 33 c4	 xor	 rax, rsp
  00041	48 89 44 24 78	 mov	 QWORD PTR __$ArrayPad$[rsp], rax

; 28   : 	if (!pData) return true;

  00046	48 83 bc 24 98
	00 00 00 00	 cmp	 QWORD PTR pData$[rsp], 0
  0004f	75 07		 jne	 SHORT $LN4@filter_str
  00051	b0 01		 mov	 al, 1
  00053	e9 fe 00 00 00	 jmp	 $LN1@filter_str
$LN4@filter_str:

; 29   : 	CStringList *filterList = NULL;

  00058	48 c7 44 24 20
	00 00 00 00	 mov	 QWORD PTR filterList$[rsp], 0

; 30   : 	if (!pRes) {

  00061	48 83 bc 24 a0
	00 00 00 00	 cmp	 QWORD PTR pRes$[rsp], 0
  0006a	0f 85 83 00 00
	00		 jne	 $LN5@filter_str

; 31   : 		TCHAR *pFilter = (TCHAR *)pData;

  00070	48 8b 84 24 98
	00 00 00	 mov	 rax, QWORD PTR pData$[rsp]
  00078	48 89 44 24 28	 mov	 QWORD PTR pFilter$4[rsp], rax

; 32   : 		filterList = new CStringList();

  0007d	b9 18 00 00 00	 mov	 ecx, 24
  00082	e8 00 00 00 00	 call	 ??2@YAPEAX_K@Z		; operator new
  00087	48 89 44 24 60	 mov	 QWORD PTR $T6[rsp], rax
  0008c	48 83 7c 24 60
	00		 cmp	 QWORD PTR $T6[rsp], 0
  00092	74 20		 je	 SHORT $LN9@filter_str
  00094	ba 18 00 00 00	 mov	 edx, 24
  00099	48 8b 4c 24 60	 mov	 rcx, QWORD PTR $T6[rsp]
  0009e	e8 00 00 00 00	 call	 ?__autoclassinit2@CStringList@@QEAAX_K@Z
  000a3	48 8b 4c 24 60	 mov	 rcx, QWORD PTR $T6[rsp]
  000a8	e8 00 00 00 00	 call	 ??0CStringList@@QEAA@XZ	; CStringList::CStringList
  000ad	48 89 44 24 70	 mov	 QWORD PTR tv79[rsp], rax
  000b2	eb 09		 jmp	 SHORT $LN10@filter_str
$LN9@filter_str:
  000b4	48 c7 44 24 70
	00 00 00 00	 mov	 QWORD PTR tv79[rsp], 0
$LN10@filter_str:
  000bd	48 8b 44 24 70	 mov	 rax, QWORD PTR tv79[rsp]
  000c2	48 89 44 24 58	 mov	 QWORD PTR $T5[rsp], rax
  000c7	48 8b 44 24 58	 mov	 rax, QWORD PTR $T5[rsp]
  000cc	48 89 44 24 20	 mov	 QWORD PTR filterList$[rsp], rax

; 33   : 		filterList->alloc(4);

  000d1	ba 04 00 00 00	 mov	 edx, 4
  000d6	48 8b 4c 24 20	 mov	 rcx, QWORD PTR filterList$[rsp]
  000db	e8 00 00 00 00	 call	 ?alloc@CStringList@@QEAAHH@Z ; CStringList::alloc

; 34   : 		CFileUtil::getFieldList((char *)pFilter, CH_DELIMITER, filterList);

  000e0	4c 8b 44 24 20	 mov	 r8, QWORD PTR filterList$[rsp]
  000e5	b2 3b		 mov	 dl, 59			; 0000003bH
  000e7	48 8b 4c 24 28	 mov	 rcx, QWORD PTR pFilter$4[rsp]
  000ec	e8 00 00 00 00	 call	 ?getFieldList@CFileUtil@@SA_NPEADDPEAVCStringList@@@Z ; CFileUtil::getFieldList

; 35   : 	}
; 36   : 	else {

  000f1	eb 0d		 jmp	 SHORT $LN6@filter_str
$LN5@filter_str:

; 37   : 		filterList = (CStringList *)pRes;

  000f3	48 8b 84 24 a0
	00 00 00	 mov	 rax, QWORD PTR pRes$[rsp]
  000fb	48 89 44 24 20	 mov	 QWORD PTR filterList$[rsp], rax
$LN6@filter_str:

; 38   : 	}
; 39   : 	int i = 0;

  00100	c7 44 24 34 00
	00 00 00	 mov	 DWORD PTR i$[rsp], 0

; 40   : 	CmString *filter = filterList->getNext(&i);

  00108	48 8d 54 24 34	 lea	 rdx, QWORD PTR i$[rsp]
  0010d	48 8b 4c 24 20	 mov	 rcx, QWORD PTR filterList$[rsp]
  00112	e8 00 00 00 00	 call	 ?getNext@CStringList@@QEAAPEAVCmString@@PEAH@Z ; CStringList::getNext
  00117	48 89 44 24 48	 mov	 QWORD PTR filter$[rsp], rax
$LN2@filter_str:

; 41   : 	while (filter)

  0011c	48 83 7c 24 48
	00		 cmp	 QWORD PTR filter$[rsp], 0
  00122	74 30		 je	 SHORT $LN3@filter_str

; 42   : 	{
; 43   : 		if (filter->compare(pFile)) return true;

  00124	48 8b 94 24 90
	00 00 00	 mov	 rdx, QWORD PTR pFile$[rsp]
  0012c	48 8b 4c 24 48	 mov	 rcx, QWORD PTR filter$[rsp]
  00131	e8 00 00 00 00	 call	 ?compare@CmString@@QEAAHPEBD@Z ; CmString::compare
  00136	85 c0		 test	 eax, eax
  00138	74 04		 je	 SHORT $LN7@filter_str
  0013a	b0 01		 mov	 al, 1
  0013c	eb 18		 jmp	 SHORT $LN1@filter_str
$LN7@filter_str:

; 44   : 		filter = filterList->getNext(&i);

  0013e	48 8d 54 24 34	 lea	 rdx, QWORD PTR i$[rsp]
  00143	48 8b 4c 24 20	 mov	 rcx, QWORD PTR filterList$[rsp]
  00148	e8 00 00 00 00	 call	 ?getNext@CStringList@@QEAAPEAVCmString@@PEAH@Z ; CStringList::getNext
  0014d	48 89 44 24 48	 mov	 QWORD PTR filter$[rsp], rax

; 45   : 	}

  00152	eb c8		 jmp	 SHORT $LN2@filter_str
$LN3@filter_str:

; 46   : 	return false;

  00154	32 c0		 xor	 al, al
$LN1@filter_str:

; 47   : }

  00156	48 8b f8	 mov	 rdi, rax
  00159	48 8b cc	 mov	 rcx, rsp
  0015c	48 8d 15 00 00
	00 00		 lea	 rdx, OFFSET FLAT:?filter_stringCompare@@YA_NPEADPEAX1@Z$rtcFrameData
  00163	e8 00 00 00 00	 call	 _RTC_CheckStackVars
  00168	48 8b c7	 mov	 rax, rdi
  0016b	48 8b 4c 24 78	 mov	 rcx, QWORD PTR __$ArrayPad$[rsp]
  00170	48 33 cc	 xor	 rcx, rsp
  00173	e8 00 00 00 00	 call	 __security_check_cookie
  00178	48 81 c4 80 00
	00 00		 add	 rsp, 128		; 00000080H
  0017f	5f		 pop	 rdi
  00180	c3		 ret	 0
?filter_stringCompare@@YA_NPEADPEAX1@Z ENDP		; filter_stringCompare
_TEXT	ENDS
text$x	SEGMENT
filterList$ = 32
pFilter$4 = 40
i$ = 52
filter$ = 72
$T5 = 88
$T6 = 96
$T7 = 104
tv79 = 112
__$ArrayPad$ = 120
pFile$ = 144
pData$ = 152
pRes$ = 160
?dtor$0@?0??filter_stringCompare@@YA_NPEADPEAX1@Z@4HA PROC ; `filter_stringCompare'::`1'::dtor$0
  00000	48 89 4c 24 08	 mov	 QWORD PTR [rsp+8], rcx
  00005	48 89 54 24 10	 mov	 QWORD PTR [rsp+16], rdx
  0000a	55		 push	 rbp
  0000b	57		 push	 rdi
  0000c	48 83 ec 28	 sub	 rsp, 40			; 00000028H
  00010	48 8b ea	 mov	 rbp, rdx
  00013	ba 18 00 00 00	 mov	 edx, 24
  00018	48 8b 4d 60	 mov	 rcx, QWORD PTR $T6[rbp]
  0001c	e8 00 00 00 00	 call	 ??3@YAXPEAX_K@Z		; operator delete
  00021	48 83 c4 28	 add	 rsp, 40			; 00000028H
  00025	5f		 pop	 rdi
  00026	5d		 pop	 rbp
  00027	c3		 ret	 0
?dtor$0@?0??filter_stringCompare@@YA_NPEADPEAX1@Z@4HA ENDP ; `filter_stringCompare'::`1'::dtor$0
text$x	ENDS
; Function compile flags: /Odtp /RTCsu
text$x	SEGMENT
filterList$ = 32
pFilter$4 = 40
i$ = 52
filter$ = 72
$T5 = 88
$T6 = 96
$T7 = 104
tv79 = 112
__$ArrayPad$ = 120
pFile$ = 144
pData$ = 152
pRes$ = 160
?dtor$0@?0??filter_stringCompare@@YA_NPEADPEAX1@Z@4HA PROC ; `filter_stringCompare'::`1'::dtor$0
  00000	48 89 4c 24 08	 mov	 QWORD PTR [rsp+8], rcx
  00005	48 89 54 24 10	 mov	 QWORD PTR [rsp+16], rdx
  0000a	55		 push	 rbp
  0000b	57		 push	 rdi
  0000c	48 83 ec 28	 sub	 rsp, 40			; 00000028H
  00010	48 8b ea	 mov	 rbp, rdx
  00013	ba 18 00 00 00	 mov	 edx, 24
  00018	48 8b 4d 60	 mov	 rcx, QWORD PTR $T6[rbp]
  0001c	e8 00 00 00 00	 call	 ??3@YAXPEAX_K@Z		; operator delete
  00021	48 83 c4 28	 add	 rsp, 40			; 00000028H
  00025	5f		 pop	 rdi
  00026	5d		 pop	 rbp
  00027	c3		 ret	 0
?dtor$0@?0??filter_stringCompare@@YA_NPEADPEAX1@Z@4HA ENDP ; `filter_stringCompare'::`1'::dtor$0
text$x	ENDS
; Function compile flags: /Odtp /RTCsu
;	COMDAT ??_GCStringList@@QEAAPEAXI@Z
_TEXT	SEGMENT
this$ = 48
__flags$ = 56
??_GCStringList@@QEAAPEAXI@Z PROC			; CStringList::`scalar deleting destructor', COMDAT
$LN4:
  00000	89 54 24 10	 mov	 DWORD PTR [rsp+16], edx
  00004	48 89 4c 24 08	 mov	 QWORD PTR [rsp+8], rcx
  00009	57		 push	 rdi
  0000a	48 83 ec 20	 sub	 rsp, 32			; 00000020H
  0000e	48 8b fc	 mov	 rdi, rsp
  00011	b9 08 00 00 00	 mov	 ecx, 8
  00016	b8 cc cc cc cc	 mov	 eax, -858993460		; ccccccccH
  0001b	f3 ab		 rep stosd
  0001d	48 8b 4c 24 30	 mov	 rcx, QWORD PTR [rsp+48]
  00022	48 8b 4c 24 30	 mov	 rcx, QWORD PTR this$[rsp]
  00027	e8 00 00 00 00	 call	 ??1CStringList@@QEAA@XZ	; CStringList::~CStringList
  0002c	8b 44 24 38	 mov	 eax, DWORD PTR __flags$[rsp]
  00030	83 e0 01	 and	 eax, 1
  00033	85 c0		 test	 eax, eax
  00035	74 0f		 je	 SHORT $LN2@scalar
  00037	ba 18 00 00 00	 mov	 edx, 24
  0003c	48 8b 4c 24 30	 mov	 rcx, QWORD PTR this$[rsp]
  00041	e8 00 00 00 00	 call	 ??3@YAXPEAX_K@Z		; operator delete
$LN2@scalar:
  00046	48 8b 44 24 30	 mov	 rax, QWORD PTR this$[rsp]
  0004b	48 83 c4 20	 add	 rsp, 32			; 00000020H
  0004f	5f		 pop	 rdi
  00050	c3		 ret	 0
??_GCStringList@@QEAAPEAXI@Z ENDP			; CStringList::`scalar deleting destructor'
_TEXT	ENDS
; Function compile flags: /Odtp /RTCsu
;	COMDAT ?__autoclassinit2@CStringList@@QEAAX_K@Z
_TEXT	SEGMENT
this$ = 16
classSize$ = 24
?__autoclassinit2@CStringList@@QEAAX_K@Z PROC		; CStringList::__autoclassinit2, COMDAT
$LN3:
  00000	48 89 54 24 10	 mov	 QWORD PTR [rsp+16], rdx
  00005	48 89 4c 24 08	 mov	 QWORD PTR [rsp+8], rcx
  0000a	57		 push	 rdi
  0000b	48 8b 7c 24 10	 mov	 rdi, QWORD PTR this$[rsp]
  00010	33 c0		 xor	 eax, eax
  00012	48 8b 4c 24 18	 mov	 rcx, QWORD PTR classSize$[rsp]
  00017	f3 aa		 rep stosb
  00019	5f		 pop	 rdi
  0001a	c3		 ret	 0
?__autoclassinit2@CStringList@@QEAAX_K@Z ENDP		; CStringList::__autoclassinit2
_TEXT	ENDS
; Function compile flags: /Odtp /RTCsu
; File e:\infinia-library-3.0\com\include\commstring.h
;	COMDAT ?__getNext@CStringList@@AEAAPEAVCmString@@PEAH@Z
_TEXT	SEGMENT
this$ = 16
i$ = 24
?__getNext@CStringList@@AEAAPEAVCmString@@PEAH@Z PROC	; CStringList::__getNext, COMDAT

; 105  : 	inline CmString *__getNext(int *i) {

$LN7:
  00000	48 89 54 24 10	 mov	 QWORD PTR [rsp+16], rdx
  00005	48 89 4c 24 08	 mov	 QWORD PTR [rsp+8], rcx
  0000a	57		 push	 rdi

; 106  : 		for (*i; *i < m_nListCnt; (*i)++) {

  0000b	eb 10		 jmp	 SHORT $LN4@getNext
$LN2@getNext:
  0000d	48 8b 44 24 18	 mov	 rax, QWORD PTR i$[rsp]
  00012	8b 00		 mov	 eax, DWORD PTR [rax]
  00014	ff c0		 inc	 eax
  00016	48 8b 4c 24 18	 mov	 rcx, QWORD PTR i$[rsp]
  0001b	89 01		 mov	 DWORD PTR [rcx], eax
$LN4@getNext:
  0001d	48 8b 44 24 18	 mov	 rax, QWORD PTR i$[rsp]
  00022	48 8b 4c 24 10	 mov	 rcx, QWORD PTR this$[rsp]
  00027	8b 09		 mov	 ecx, DWORD PTR [rcx]
  00029	39 08		 cmp	 DWORD PTR [rax], ecx
  0002b	7d 31		 jge	 SHORT $LN3@getNext

; 107  : 			if (m_pList[*i]) { return m_pList[*i]; }

  0002d	48 8b 44 24 18	 mov	 rax, QWORD PTR i$[rsp]
  00032	48 63 00	 movsxd	 rax, DWORD PTR [rax]
  00035	48 8b 4c 24 10	 mov	 rcx, QWORD PTR this$[rsp]
  0003a	48 8b 49 10	 mov	 rcx, QWORD PTR [rcx+16]
  0003e	48 83 3c c1 00	 cmp	 QWORD PTR [rcx+rax*8], 0
  00043	74 17		 je	 SHORT $LN5@getNext
  00045	48 8b 44 24 18	 mov	 rax, QWORD PTR i$[rsp]
  0004a	48 63 00	 movsxd	 rax, DWORD PTR [rax]
  0004d	48 8b 4c 24 10	 mov	 rcx, QWORD PTR this$[rsp]
  00052	48 8b 49 10	 mov	 rcx, QWORD PTR [rcx+16]
  00056	48 8b 04 c1	 mov	 rax, QWORD PTR [rcx+rax*8]
  0005a	eb 04		 jmp	 SHORT $LN1@getNext
$LN5@getNext:

; 108  : 		}

  0005c	eb af		 jmp	 SHORT $LN2@getNext
$LN3@getNext:

; 109  : 		return NULL;

  0005e	33 c0		 xor	 eax, eax
$LN1@getNext:

; 110  : 	}

  00060	5f		 pop	 rdi
  00061	c3		 ret	 0
?__getNext@CStringList@@AEAAPEAVCmString@@PEAH@Z ENDP	; CStringList::__getNext
_TEXT	ENDS
; Function compile flags: /Odtp /RTCsu
; File e:\infinia-library-3.0\com\include\commstring.h
;	COMDAT ?getNext@CStringList@@QEAAPEAVCmString@@PEAH@Z
_TEXT	SEGMENT
this$ = 48
i$ = 56
?getNext@CStringList@@QEAAPEAVCmString@@PEAH@Z PROC	; CStringList::getNext, COMDAT

; 90   : 	inline CmString *getNext(int *i) { return __getNext(i);	}

$LN3:
  00000	48 89 54 24 10	 mov	 QWORD PTR [rsp+16], rdx
  00005	48 89 4c 24 08	 mov	 QWORD PTR [rsp+8], rcx
  0000a	57		 push	 rdi
  0000b	48 83 ec 20	 sub	 rsp, 32			; 00000020H
  0000f	48 8b fc	 mov	 rdi, rsp
  00012	b9 08 00 00 00	 mov	 ecx, 8
  00017	b8 cc cc cc cc	 mov	 eax, -858993460		; ccccccccH
  0001c	f3 ab		 rep stosd
  0001e	48 8b 4c 24 30	 mov	 rcx, QWORD PTR [rsp+48]
  00023	48 8b 54 24 38	 mov	 rdx, QWORD PTR i$[rsp]
  00028	48 8b 4c 24 30	 mov	 rcx, QWORD PTR this$[rsp]
  0002d	e8 00 00 00 00	 call	 ?__getNext@CStringList@@AEAAPEAVCmString@@PEAH@Z ; CStringList::__getNext
  00032	48 83 c4 20	 add	 rsp, 32			; 00000020H
  00036	5f		 pop	 rdi
  00037	c3		 ret	 0
?getNext@CStringList@@QEAAPEAVCmString@@PEAH@Z ENDP	; CStringList::getNext
_TEXT	ENDS
; Function compile flags: /Odtp /RTCsu
; File e:\infinia-library-3.0\com\include\commstring.h
;	COMDAT ?push_back@CStringList@@QEAAPEAVCmString@@PEAD@Z
_TEXT	SEGMENT
this$ = 48
pString$ = 56
?push_back@CStringList@@QEAAPEAVCmString@@PEAD@Z PROC	; CStringList::push_back, COMDAT

; 87   : 	CmString * CStringList::push_back(TCHAR* pString) {if (!m_pList[m_nLast]) return __add(pString, m_nLast);return __add(pString, newIdx());}

$LN4:
  00000	48 89 54 24 10	 mov	 QWORD PTR [rsp+16], rdx
  00005	48 89 4c 24 08	 mov	 QWORD PTR [rsp+8], rcx
  0000a	57		 push	 rdi
  0000b	48 83 ec 20	 sub	 rsp, 32			; 00000020H
  0000f	48 8b fc	 mov	 rdi, rsp
  00012	b9 08 00 00 00	 mov	 ecx, 8
  00017	b8 cc cc cc cc	 mov	 eax, -858993460		; ccccccccH
  0001c	f3 ab		 rep stosd
  0001e	48 8b 4c 24 30	 mov	 rcx, QWORD PTR [rsp+48]
  00023	48 8b 44 24 30	 mov	 rax, QWORD PTR this$[rsp]
  00028	48 63 40 08	 movsxd	 rax, DWORD PTR [rax+8]
  0002c	48 8b 4c 24 30	 mov	 rcx, QWORD PTR this$[rsp]
  00031	48 8b 49 10	 mov	 rcx, QWORD PTR [rcx+16]
  00035	48 83 3c c1 00	 cmp	 QWORD PTR [rcx+rax*8], 0
  0003a	75 1a		 jne	 SHORT $LN2@push_back
  0003c	48 8b 44 24 30	 mov	 rax, QWORD PTR this$[rsp]
  00041	44 8b 40 08	 mov	 r8d, DWORD PTR [rax+8]
  00045	48 8b 54 24 38	 mov	 rdx, QWORD PTR pString$[rsp]
  0004a	48 8b 4c 24 30	 mov	 rcx, QWORD PTR this$[rsp]
  0004f	e8 00 00 00 00	 call	 ?__add@CStringList@@AEAAPEAVCmString@@PEADH@Z ; CStringList::__add
  00054	eb 1c		 jmp	 SHORT $LN1@push_back
$LN2@push_back:
  00056	48 8b 4c 24 30	 mov	 rcx, QWORD PTR this$[rsp]
  0005b	e8 00 00 00 00	 call	 ?newIdx@CStringList@@AEAAHXZ ; CStringList::newIdx
  00060	44 8b c0	 mov	 r8d, eax
  00063	48 8b 54 24 38	 mov	 rdx, QWORD PTR pString$[rsp]
  00068	48 8b 4c 24 30	 mov	 rcx, QWORD PTR this$[rsp]
  0006d	e8 00 00 00 00	 call	 ?__add@CStringList@@AEAAPEAVCmString@@PEADH@Z ; CStringList::__add
$LN1@push_back:
  00072	48 83 c4 20	 add	 rsp, 32			; 00000020H
  00076	5f		 pop	 rdi
  00077	c3		 ret	 0
?push_back@CStringList@@QEAAPEAVCmString@@PEAD@Z ENDP	; CStringList::push_back
_TEXT	ENDS
; Function compile flags: /Odtp /RTCsu
; File e:\infinia-library-3.0\com\include\commstring.h
;	COMDAT ?alloc@CStringList@@QEAAHH@Z
_TEXT	SEGMENT
this$ = 48
nMaxCount$ = 56
?alloc@CStringList@@QEAAHH@Z PROC			; CStringList::alloc, COMDAT

; 85   : 	int alloc(int nMaxCount) { m_nListCnt = __alloc(nMaxCount); return m_nListCnt; }

$LN3:
  00000	89 54 24 10	 mov	 DWORD PTR [rsp+16], edx
  00004	48 89 4c 24 08	 mov	 QWORD PTR [rsp+8], rcx
  00009	57		 push	 rdi
  0000a	48 83 ec 20	 sub	 rsp, 32			; 00000020H
  0000e	48 8b fc	 mov	 rdi, rsp
  00011	b9 08 00 00 00	 mov	 ecx, 8
  00016	b8 cc cc cc cc	 mov	 eax, -858993460		; ccccccccH
  0001b	f3 ab		 rep stosd
  0001d	48 8b 4c 24 30	 mov	 rcx, QWORD PTR [rsp+48]
  00022	8b 54 24 38	 mov	 edx, DWORD PTR nMaxCount$[rsp]
  00026	48 8b 4c 24 30	 mov	 rcx, QWORD PTR this$[rsp]
  0002b	e8 00 00 00 00	 call	 ?__alloc@CStringList@@AEAAHH@Z ; CStringList::__alloc
  00030	48 8b 4c 24 30	 mov	 rcx, QWORD PTR this$[rsp]
  00035	89 01		 mov	 DWORD PTR [rcx], eax
  00037	48 8b 44 24 30	 mov	 rax, QWORD PTR this$[rsp]
  0003c	8b 00		 mov	 eax, DWORD PTR [rax]
  0003e	48 83 c4 20	 add	 rsp, 32			; 00000020H
  00042	5f		 pop	 rdi
  00043	c3		 ret	 0
?alloc@CStringList@@QEAAHH@Z ENDP			; CStringList::alloc
_TEXT	ENDS
; Function compile flags: /Odtp /RTCsu
; File e:\infinia-library-3.0\com\include\commemmanager.h
;	COMDAT ?delBuf@CMemManager@@QEAAXPEADH@Z
_TEXT	SEGMENT
nIdx$ = 32
this$ = 64
pBuf$ = 72
nSize$ = 80
?delBuf@CMemManager@@QEAAXPEADH@Z PROC			; CMemManager::delBuf, COMDAT

; 38   : 	inline void delBuf(char *pBuf, int nSize) { int nIdx = getIndex(nSize); delBufByIndex(pBuf, nIdx); }

$LN3:
  00000	44 89 44 24 18	 mov	 DWORD PTR [rsp+24], r8d
  00005	48 89 54 24 10	 mov	 QWORD PTR [rsp+16], rdx
  0000a	48 89 4c 24 08	 mov	 QWORD PTR [rsp+8], rcx
  0000f	57		 push	 rdi
  00010	48 83 ec 30	 sub	 rsp, 48			; 00000030H
  00014	48 8b fc	 mov	 rdi, rsp
  00017	b9 0c 00 00 00	 mov	 ecx, 12
  0001c	b8 cc cc cc cc	 mov	 eax, -858993460		; ccccccccH
  00021	f3 ab		 rep stosd
  00023	48 8b 4c 24 40	 mov	 rcx, QWORD PTR [rsp+64]
  00028	8b 4c 24 50	 mov	 ecx, DWORD PTR nSize$[rsp]
  0002c	e8 00 00 00 00	 call	 ?getIndex@@YAHH@Z	; getIndex
  00031	89 44 24 20	 mov	 DWORD PTR nIdx$[rsp], eax
  00035	44 8b 44 24 20	 mov	 r8d, DWORD PTR nIdx$[rsp]
  0003a	48 8b 54 24 48	 mov	 rdx, QWORD PTR pBuf$[rsp]
  0003f	48 8b 4c 24 40	 mov	 rcx, QWORD PTR this$[rsp]
  00044	e8 00 00 00 00	 call	 ?delBufByIndex@CMemManager@@QEAAXPEADH@Z ; CMemManager::delBufByIndex
  00049	48 83 c4 30	 add	 rsp, 48			; 00000030H
  0004d	5f		 pop	 rdi
  0004e	c3		 ret	 0
?delBuf@CMemManager@@QEAAXPEADH@Z ENDP			; CMemManager::delBuf
_TEXT	ENDS
; Function compile flags: /Odtp /RTCsu
; File e:\infinia-library-3.0\com\include\commemmanager.h
;	COMDAT ?newBuf@CMemManager@@QEAAPEADHPEAH@Z
_TEXT	SEGMENT
this$ = 48
nSize$ = 56
pIndex$ = 64
?newBuf@CMemManager@@QEAAPEADHPEAH@Z PROC		; CMemManager::newBuf, COMDAT

; 35   : 	inline char *newBuf(int nSize, int *pIndex) { *pIndex = getIndex(nSize);  return __newBuf(*pIndex, nSize); }

$LN3:
  00000	4c 89 44 24 18	 mov	 QWORD PTR [rsp+24], r8
  00005	89 54 24 10	 mov	 DWORD PTR [rsp+16], edx
  00009	48 89 4c 24 08	 mov	 QWORD PTR [rsp+8], rcx
  0000e	57		 push	 rdi
  0000f	48 83 ec 20	 sub	 rsp, 32			; 00000020H
  00013	48 8b fc	 mov	 rdi, rsp
  00016	b9 08 00 00 00	 mov	 ecx, 8
  0001b	b8 cc cc cc cc	 mov	 eax, -858993460		; ccccccccH
  00020	f3 ab		 rep stosd
  00022	48 8b 4c 24 30	 mov	 rcx, QWORD PTR [rsp+48]
  00027	8b 4c 24 38	 mov	 ecx, DWORD PTR nSize$[rsp]
  0002b	e8 00 00 00 00	 call	 ?getIndex@@YAHH@Z	; getIndex
  00030	48 8b 4c 24 40	 mov	 rcx, QWORD PTR pIndex$[rsp]
  00035	89 01		 mov	 DWORD PTR [rcx], eax
  00037	48 63 44 24 38	 movsxd	 rax, DWORD PTR nSize$[rsp]
  0003c	4c 8b c0	 mov	 r8, rax
  0003f	48 8b 44 24 40	 mov	 rax, QWORD PTR pIndex$[rsp]
  00044	8b 10		 mov	 edx, DWORD PTR [rax]
  00046	48 8b 4c 24 30	 mov	 rcx, QWORD PTR this$[rsp]
  0004b	e8 00 00 00 00	 call	 ?__newBuf@CMemManager@@AEAAPEADH_K@Z ; CMemManager::__newBuf
  00050	48 83 c4 20	 add	 rsp, 32			; 00000020H
  00054	5f		 pop	 rdi
  00055	c3		 ret	 0
?newBuf@CMemManager@@QEAAPEADHPEAH@Z ENDP		; CMemManager::newBuf
_TEXT	ENDS
; Function compile flags: /Odtp /RTCsu
; File e:\infinia-library-3.0\com\include\commemmanager.h
;	COMDAT ?newBuf@CMemManager@@QEAAPEADH@Z
_TEXT	SEGMENT
nIdx$ = 32
this$ = 64
nSize$ = 72
?newBuf@CMemManager@@QEAAPEADH@Z PROC			; CMemManager::newBuf, COMDAT

; 34   : 	inline char *newBuf(int nSize) { int nIdx = getIndex(nSize);  return __newBuf(nIdx, nSize); }

$LN3:
  00000	89 54 24 10	 mov	 DWORD PTR [rsp+16], edx
  00004	48 89 4c 24 08	 mov	 QWORD PTR [rsp+8], rcx
  00009	57		 push	 rdi
  0000a	48 83 ec 30	 sub	 rsp, 48			; 00000030H
  0000e	48 8b fc	 mov	 rdi, rsp
  00011	b9 0c 00 00 00	 mov	 ecx, 12
  00016	b8 cc cc cc cc	 mov	 eax, -858993460		; ccccccccH
  0001b	f3 ab		 rep stosd
  0001d	48 8b 4c 24 40	 mov	 rcx, QWORD PTR [rsp+64]
  00022	8b 4c 24 48	 mov	 ecx, DWORD PTR nSize$[rsp]
  00026	e8 00 00 00 00	 call	 ?getIndex@@YAHH@Z	; getIndex
  0002b	89 44 24 20	 mov	 DWORD PTR nIdx$[rsp], eax
  0002f	48 63 44 24 48	 movsxd	 rax, DWORD PTR nSize$[rsp]
  00034	4c 8b c0	 mov	 r8, rax
  00037	8b 54 24 20	 mov	 edx, DWORD PTR nIdx$[rsp]
  0003b	48 8b 4c 24 40	 mov	 rcx, QWORD PTR this$[rsp]
  00040	e8 00 00 00 00	 call	 ?__newBuf@CMemManager@@AEAAPEADH_K@Z ; CMemManager::__newBuf
  00045	48 83 c4 30	 add	 rsp, 48			; 00000030H
  00049	5f		 pop	 rdi
  0004a	c3		 ret	 0
?newBuf@CMemManager@@QEAAPEADH@Z ENDP			; CMemManager::newBuf
_TEXT	ENDS
; Function compile flags: /Odtp /RTCsu
; File e:\infinia-library-3.0\com\include\combufpool.h
;	COMDAT ?getIndex@@YAHH@Z
_TEXT	SEGMENT
m$ = 32
$S1$ = 56
tv80 = 68
tv73 = 72
s$ = 96
?getIndex@@YAHH@Z PROC					; getIndex, COMDAT

; 51   : inline int getIndex(int s) { int m; union { double x; int b[2]; }; x = s; m = (b[1] >> 20) - 1023; return m + ((s&(s - (1 << m))) ? 1 : 0); }

$LN5:
  00000	89 4c 24 08	 mov	 DWORD PTR [rsp+8], ecx
  00004	57		 push	 rdi
  00005	48 83 ec 50	 sub	 rsp, 80			; 00000050H
  00009	48 8b fc	 mov	 rdi, rsp
  0000c	b9 14 00 00 00	 mov	 ecx, 20
  00011	b8 cc cc cc cc	 mov	 eax, -858993460		; ccccccccH
  00016	f3 ab		 rep stosd
  00018	8b 4c 24 60	 mov	 ecx, DWORD PTR [rsp+96]
  0001c	f2 0f 2a 44 24
	60		 cvtsi2sd xmm0, DWORD PTR s$[rsp]
  00022	f2 0f 11 44 24
	38		 movsd	 QWORD PTR $S1$[rsp], xmm0
  00028	b8 04 00 00 00	 mov	 eax, 4
  0002d	48 6b c0 01	 imul	 rax, rax, 1
  00031	8b 44 04 38	 mov	 eax, DWORD PTR $S1$[rsp+rax]
  00035	c1 f8 14	 sar	 eax, 20
  00038	2d ff 03 00 00	 sub	 eax, 1023		; 000003ffH
  0003d	89 44 24 20	 mov	 DWORD PTR m$[rsp], eax
  00041	8b 44 24 20	 mov	 eax, DWORD PTR m$[rsp]
  00045	b9 01 00 00 00	 mov	 ecx, 1
  0004a	89 4c 24 44	 mov	 DWORD PTR tv80[rsp], ecx
  0004e	0f b6 c8	 movzx	 ecx, al
  00051	8b 44 24 44	 mov	 eax, DWORD PTR tv80[rsp]
  00055	d3 e0		 shl	 eax, cl
  00057	8b 4c 24 60	 mov	 ecx, DWORD PTR s$[rsp]
  0005b	2b c8		 sub	 ecx, eax
  0005d	8b c1		 mov	 eax, ecx
  0005f	8b 4c 24 60	 mov	 ecx, DWORD PTR s$[rsp]
  00063	23 c8		 and	 ecx, eax
  00065	8b c1		 mov	 eax, ecx
  00067	85 c0		 test	 eax, eax
  00069	74 0a		 je	 SHORT $LN3@getIndex
  0006b	c7 44 24 48 01
	00 00 00	 mov	 DWORD PTR tv73[rsp], 1
  00073	eb 08		 jmp	 SHORT $LN4@getIndex
$LN3@getIndex:
  00075	c7 44 24 48 00
	00 00 00	 mov	 DWORD PTR tv73[rsp], 0
$LN4@getIndex:
  0007d	8b 44 24 48	 mov	 eax, DWORD PTR tv73[rsp]
  00081	8b 4c 24 20	 mov	 ecx, DWORD PTR m$[rsp]
  00085	03 c8		 add	 ecx, eax
  00087	8b c1		 mov	 eax, ecx
  00089	8b f8		 mov	 edi, eax
  0008b	48 8b cc	 mov	 rcx, rsp
  0008e	48 8d 15 00 00
	00 00		 lea	 rdx, OFFSET FLAT:?getIndex@@YAHH@Z$rtcFrameData
  00095	e8 00 00 00 00	 call	 _RTC_CheckStackVars
  0009a	8b c7		 mov	 eax, edi
  0009c	48 83 c4 50	 add	 rsp, 80			; 00000050H
  000a0	5f		 pop	 rdi
  000a1	c3		 ret	 0
?getIndex@@YAHH@Z ENDP					; getIndex
_TEXT	ENDS
; Function compile flags: /Odtp /RTCsu
; File e:\infinia-library-3.0\com\include\comfiletypes.h
;	COMDAT ?jISDIR@@YA_NPEAU_WIN32_FIND_DATAA@@@Z
_TEXT	SEGMENT
tv67 = 0
pFD$ = 32
?jISDIR@@YA_NPEAU_WIN32_FIND_DATAA@@@Z PROC		; jISDIR, COMDAT

; 86   : inline bool jISDIR(LPJFILEDATA pFD)		{return (pFD->dwFileAttributes & FILE_ATTRIBUTE_DIRECTORY)?true:false;} //directory?

$LN5:
  00000	48 89 4c 24 08	 mov	 QWORD PTR [rsp+8], rcx
  00005	57		 push	 rdi
  00006	48 83 ec 10	 sub	 rsp, 16
  0000a	48 8b fc	 mov	 rdi, rsp
  0000d	b9 04 00 00 00	 mov	 ecx, 4
  00012	b8 cc cc cc cc	 mov	 eax, -858993460		; ccccccccH
  00017	f3 ab		 rep stosd
  00019	48 8b 4c 24 20	 mov	 rcx, QWORD PTR [rsp+32]
  0001e	48 8b 44 24 20	 mov	 rax, QWORD PTR pFD$[rsp]
  00023	8b 00		 mov	 eax, DWORD PTR [rax]
  00025	83 e0 10	 and	 eax, 16
  00028	85 c0		 test	 eax, eax
  0002a	74 06		 je	 SHORT $LN3@jISDIR
  0002c	c6 04 24 01	 mov	 BYTE PTR tv67[rsp], 1
  00030	eb 04		 jmp	 SHORT $LN4@jISDIR
$LN3@jISDIR:
  00032	c6 04 24 00	 mov	 BYTE PTR tv67[rsp], 0
$LN4@jISDIR:
  00036	0f b6 04 24	 movzx	 eax, BYTE PTR tv67[rsp]
  0003a	48 83 c4 10	 add	 rsp, 16
  0003e	5f		 pop	 rdi
  0003f	c3		 ret	 0
?jISDIR@@YA_NPEAU_WIN32_FIND_DATAA@@@Z ENDP		; jISDIR
_TEXT	ENDS
; Function compile flags: /Odtp /RTCsu
; File e:\infinia-library-3.0\com\include\comfiletypes.h
;	COMDAT ?jISREG@@YA_NPEAU_WIN32_FIND_DATAA@@@Z
_TEXT	SEGMENT
tv67 = 0
pFD$ = 32
?jISREG@@YA_NPEAU_WIN32_FIND_DATAA@@@Z PROC		; jISREG, COMDAT

; 85   : inline bool jISREG(LPJFILEDATA pFD)		{return (pFD->dwFileAttributes & FILE_ATTRIBUTE_DIRECTORY)? false : true;} //regular file?

$LN5:
  00000	48 89 4c 24 08	 mov	 QWORD PTR [rsp+8], rcx
  00005	57		 push	 rdi
  00006	48 83 ec 10	 sub	 rsp, 16
  0000a	48 8b fc	 mov	 rdi, rsp
  0000d	b9 04 00 00 00	 mov	 ecx, 4
  00012	b8 cc cc cc cc	 mov	 eax, -858993460		; ccccccccH
  00017	f3 ab		 rep stosd
  00019	48 8b 4c 24 20	 mov	 rcx, QWORD PTR [rsp+32]
  0001e	48 8b 44 24 20	 mov	 rax, QWORD PTR pFD$[rsp]
  00023	8b 00		 mov	 eax, DWORD PTR [rax]
  00025	83 e0 10	 and	 eax, 16
  00028	85 c0		 test	 eax, eax
  0002a	74 06		 je	 SHORT $LN3@jISREG
  0002c	c6 04 24 00	 mov	 BYTE PTR tv67[rsp], 0
  00030	eb 04		 jmp	 SHORT $LN4@jISREG
$LN3@jISREG:
  00032	c6 04 24 01	 mov	 BYTE PTR tv67[rsp], 1
$LN4@jISREG:
  00036	0f b6 04 24	 movzx	 eax, BYTE PTR tv67[rsp]
  0003a	48 83 c4 10	 add	 rsp, 16
  0003e	5f		 pop	 rdi
  0003f	c3		 ret	 0
?jISREG@@YA_NPEAU_WIN32_FIND_DATAA@@@Z ENDP		; jISREG
_TEXT	ENDS
; Function compile flags: /Odtp /RTCsu
; File e:\infinia-library-3.0\com\include\comfiletypes.h
;	COMDAT ?com_getFileName@@YAXPEAPEADPEAU_WIN32_FIND_DATAA@@@Z
_TEXT	SEGMENT
pFileName$ = 16
pFileData$ = 24
?com_getFileName@@YAXPEAPEADPEAU_WIN32_FIND_DATAA@@@Z PROC ; com_getFileName, COMDAT

; 83   : inline void com_getFileName(TCHAR **pFileName, LPJFILEDATA pFileData) { *pFileName = pFileData->cFileName;}

$LN3:
  00000	48 89 54 24 10	 mov	 QWORD PTR [rsp+16], rdx
  00005	48 89 4c 24 08	 mov	 QWORD PTR [rsp+8], rcx
  0000a	57		 push	 rdi
  0000b	48 8b 44 24 18	 mov	 rax, QWORD PTR pFileData$[rsp]
  00010	48 83 c0 2c	 add	 rax, 44			; 0000002cH
  00014	48 8b 4c 24 10	 mov	 rcx, QWORD PTR pFileName$[rsp]
  00019	48 89 01	 mov	 QWORD PTR [rcx], rax
  0001c	5f		 pop	 rdi
  0001d	c3		 ret	 0
?com_getFileName@@YAXPEAPEADPEAU_WIN32_FIND_DATAA@@@Z ENDP ; com_getFileName
_TEXT	ENDS
; Function compile flags: /Odtp /RTCsu
; File e:\infinia-library-3.0\com\include\comfiletypes.h
;	COMDAT ?com_nextFile@@YA_NPEAXPEAU_WIN32_FIND_DATAA@@@Z
_TEXT	SEGMENT
tv68 = 32
dir$ = 64
pFileData$ = 72
?com_nextFile@@YA_NPEAXPEAU_WIN32_FIND_DATAA@@@Z PROC	; com_nextFile, COMDAT

; 82   : inline bool com_nextFile(JPDIR dir, LPJFILEDATA pFileData) { return (FindNextFile(dir, pFileData))?true:false; }

$LN5:
  00000	48 89 54 24 10	 mov	 QWORD PTR [rsp+16], rdx
  00005	48 89 4c 24 08	 mov	 QWORD PTR [rsp+8], rcx
  0000a	57		 push	 rdi
  0000b	48 83 ec 30	 sub	 rsp, 48			; 00000030H
  0000f	48 8b fc	 mov	 rdi, rsp
  00012	b9 0c 00 00 00	 mov	 ecx, 12
  00017	b8 cc cc cc cc	 mov	 eax, -858993460		; ccccccccH
  0001c	f3 ab		 rep stosd
  0001e	48 8b 4c 24 40	 mov	 rcx, QWORD PTR [rsp+64]
  00023	48 8b 54 24 48	 mov	 rdx, QWORD PTR pFileData$[rsp]
  00028	48 8b 4c 24 40	 mov	 rcx, QWORD PTR dir$[rsp]
  0002d	ff 15 00 00 00
	00		 call	 QWORD PTR __imp_FindNextFileA
  00033	85 c0		 test	 eax, eax
  00035	74 07		 je	 SHORT $LN3@com_nextFi
  00037	c6 44 24 20 01	 mov	 BYTE PTR tv68[rsp], 1
  0003c	eb 05		 jmp	 SHORT $LN4@com_nextFi
$LN3@com_nextFi:
  0003e	c6 44 24 20 00	 mov	 BYTE PTR tv68[rsp], 0
$LN4@com_nextFi:
  00043	0f b6 44 24 20	 movzx	 eax, BYTE PTR tv68[rsp]
  00048	48 83 c4 30	 add	 rsp, 48			; 00000030H
  0004c	5f		 pop	 rdi
  0004d	c3		 ret	 0
?com_nextFile@@YA_NPEAXPEAU_WIN32_FIND_DATAA@@@Z ENDP	; com_nextFile
_TEXT	ENDS
; Function compile flags: /Odtp /RTCsu
; File e:\infinia-library-3.0\com\include\comfiletypes.h
;	COMDAT ?com_findFirstFile@@YAPEAXPEBDPEAU_WIN32_FIND_DATAA@@@Z
_TEXT	SEGMENT
pDirName$ = 48
pFileData$ = 56
?com_findFirstFile@@YAPEAXPEBDPEAU_WIN32_FIND_DATAA@@@Z PROC ; com_findFirstFile, COMDAT

; 81   : inline JPDIR com_findFirstFile(const TCHAR *pDirName, LPJFILEDATA pFileData) { return FindFirstFile(pDirName, pFileData); }

$LN3:
  00000	48 89 54 24 10	 mov	 QWORD PTR [rsp+16], rdx
  00005	48 89 4c 24 08	 mov	 QWORD PTR [rsp+8], rcx
  0000a	57		 push	 rdi
  0000b	48 83 ec 20	 sub	 rsp, 32			; 00000020H
  0000f	48 8b fc	 mov	 rdi, rsp
  00012	b9 08 00 00 00	 mov	 ecx, 8
  00017	b8 cc cc cc cc	 mov	 eax, -858993460		; ccccccccH
  0001c	f3 ab		 rep stosd
  0001e	48 8b 4c 24 30	 mov	 rcx, QWORD PTR [rsp+48]
  00023	48 8b 54 24 38	 mov	 rdx, QWORD PTR pFileData$[rsp]
  00028	48 8b 4c 24 30	 mov	 rcx, QWORD PTR pDirName$[rsp]
  0002d	ff 15 00 00 00
	00		 call	 QWORD PTR __imp_FindFirstFileA
  00033	48 83 c4 20	 add	 rsp, 32			; 00000020H
  00037	5f		 pop	 rdi
  00038	c3		 ret	 0
?com_findFirstFile@@YAPEAXPEBDPEAU_WIN32_FIND_DATAA@@@Z ENDP ; com_findFirstFile
_TEXT	ENDS
; Function compile flags: /Odtp /RTCsu
; File e:\infinia-library-3.0\com\include\comfiletypes.h
;	COMDAT ?com_isDirectory@@YA_NPEAD@Z
_TEXT	SEGMENT
res$ = 32
dir$ = 64
?com_isDirectory@@YA_NPEAD@Z PROC			; com_isDirectory, COMDAT

; 80   : inline bool com_isDirectory(TCHAR *dir) { int res = GetFileAttributes(dir); if (res == FILE_ATTRIBUTE_DIRECTORY)return true; return false; }

$LN4:
  00000	48 89 4c 24 08	 mov	 QWORD PTR [rsp+8], rcx
  00005	57		 push	 rdi
  00006	48 83 ec 30	 sub	 rsp, 48			; 00000030H
  0000a	48 8b fc	 mov	 rdi, rsp
  0000d	b9 0c 00 00 00	 mov	 ecx, 12
  00012	b8 cc cc cc cc	 mov	 eax, -858993460		; ccccccccH
  00017	f3 ab		 rep stosd
  00019	48 8b 4c 24 40	 mov	 rcx, QWORD PTR [rsp+64]
  0001e	48 8b 4c 24 40	 mov	 rcx, QWORD PTR dir$[rsp]
  00023	ff 15 00 00 00
	00		 call	 QWORD PTR __imp_GetFileAttributesA
  00029	89 44 24 20	 mov	 DWORD PTR res$[rsp], eax
  0002d	83 7c 24 20 10	 cmp	 DWORD PTR res$[rsp], 16
  00032	75 04		 jne	 SHORT $LN2@com_isDire
  00034	b0 01		 mov	 al, 1
  00036	eb 02		 jmp	 SHORT $LN1@com_isDire
$LN2@com_isDire:
  00038	32 c0		 xor	 al, al
$LN1@com_isDire:
  0003a	48 83 c4 30	 add	 rsp, 48			; 00000030H
  0003e	5f		 pop	 rdi
  0003f	c3		 ret	 0
?com_isDirectory@@YA_NPEAD@Z ENDP			; com_isDirectory
_TEXT	ENDS
; Function compile flags: /Odtp /RTCsu
; File e:\infinia-library-3.0\com\include\comfiletypes.h
;	COMDAT ?com_isFile@@YA_NPEBD@Z
_TEXT	SEGMENT
res$ = 32
file$ = 64
?com_isFile@@YA_NPEBD@Z PROC				; com_isFile, COMDAT

; 79   : inline bool com_isFile(const TCHAR *file) { int res = GetFileAttributes(file); if (res == INVALID_FILE_ATTRIBUTES || res == FILE_ATTRIBUTE_DIRECTORY)return false; return true; }

$LN5:
  00000	48 89 4c 24 08	 mov	 QWORD PTR [rsp+8], rcx
  00005	57		 push	 rdi
  00006	48 83 ec 30	 sub	 rsp, 48			; 00000030H
  0000a	48 8b fc	 mov	 rdi, rsp
  0000d	b9 0c 00 00 00	 mov	 ecx, 12
  00012	b8 cc cc cc cc	 mov	 eax, -858993460		; ccccccccH
  00017	f3 ab		 rep stosd
  00019	48 8b 4c 24 40	 mov	 rcx, QWORD PTR [rsp+64]
  0001e	48 8b 4c 24 40	 mov	 rcx, QWORD PTR file$[rsp]
  00023	ff 15 00 00 00
	00		 call	 QWORD PTR __imp_GetFileAttributesA
  00029	89 44 24 20	 mov	 DWORD PTR res$[rsp], eax
  0002d	83 7c 24 20 ff	 cmp	 DWORD PTR res$[rsp], -1	; ffffffffH
  00032	74 07		 je	 SHORT $LN3@com_isFile
  00034	83 7c 24 20 10	 cmp	 DWORD PTR res$[rsp], 16
  00039	75 04		 jne	 SHORT $LN2@com_isFile
$LN3@com_isFile:
  0003b	32 c0		 xor	 al, al
  0003d	eb 02		 jmp	 SHORT $LN1@com_isFile
$LN2@com_isFile:
  0003f	b0 01		 mov	 al, 1
$LN1@com_isFile:
  00041	48 83 c4 30	 add	 rsp, 48			; 00000030H
  00045	5f		 pop	 rdi
  00046	c3		 ret	 0
?com_isFile@@YA_NPEBD@Z ENDP				; com_isFile
_TEXT	ENDS
; Function compile flags: /Odtp /RTCsu
; File e:\infinia-library-3.0\com\include\comfiletypes.h
;	COMDAT ?com_isInvalid@@YA_NPEBD@Z
_TEXT	SEGMENT
fath$ = 48
?com_isInvalid@@YA_NPEBD@Z PROC				; com_isInvalid, COMDAT

; 78   : inline bool com_isInvalid(const TCHAR *fath) { if (GetFileAttributes(fath) == INVALID_FILE_ATTRIBUTES)return true; return false; }

$LN4:
  00000	48 89 4c 24 08	 mov	 QWORD PTR [rsp+8], rcx
  00005	57		 push	 rdi
  00006	48 83 ec 20	 sub	 rsp, 32			; 00000020H
  0000a	48 8b fc	 mov	 rdi, rsp
  0000d	b9 08 00 00 00	 mov	 ecx, 8
  00012	b8 cc cc cc cc	 mov	 eax, -858993460		; ccccccccH
  00017	f3 ab		 rep stosd
  00019	48 8b 4c 24 30	 mov	 rcx, QWORD PTR [rsp+48]
  0001e	48 8b 4c 24 30	 mov	 rcx, QWORD PTR fath$[rsp]
  00023	ff 15 00 00 00
	00		 call	 QWORD PTR __imp_GetFileAttributesA
  00029	83 f8 ff	 cmp	 eax, -1			; ffffffffH
  0002c	75 04		 jne	 SHORT $LN2@com_isInva
  0002e	b0 01		 mov	 al, 1
  00030	eb 02		 jmp	 SHORT $LN1@com_isInva
$LN2@com_isInva:
  00032	32 c0		 xor	 al, al
$LN1@com_isInva:
  00034	48 83 c4 20	 add	 rsp, 32			; 00000020H
  00038	5f		 pop	 rdi
  00039	c3		 ret	 0
?com_isInvalid@@YA_NPEBD@Z ENDP				; com_isInvalid
_TEXT	ENDS
; Function compile flags: /Odtp /RTCsu
; File e:\infinia-library-3.0\com\include\comfiletypes.h
;	COMDAT ?com_mkdir@@YA_NPEBD@Z
_TEXT	SEGMENT
res$ = 32
tv68 = 36
path$ = 64
?com_mkdir@@YA_NPEBD@Z PROC				; com_mkdir, COMDAT

; 75   : inline bool com_mkdir(const TCHAR *path)	{int res = CreateDirectory(path, NULL); return (res)?true:false; }

$LN5:
  00000	48 89 4c 24 08	 mov	 QWORD PTR [rsp+8], rcx
  00005	57		 push	 rdi
  00006	48 83 ec 30	 sub	 rsp, 48			; 00000030H
  0000a	48 8b fc	 mov	 rdi, rsp
  0000d	b9 0c 00 00 00	 mov	 ecx, 12
  00012	b8 cc cc cc cc	 mov	 eax, -858993460		; ccccccccH
  00017	f3 ab		 rep stosd
  00019	48 8b 4c 24 40	 mov	 rcx, QWORD PTR [rsp+64]
  0001e	33 d2		 xor	 edx, edx
  00020	48 8b 4c 24 40	 mov	 rcx, QWORD PTR path$[rsp]
  00025	ff 15 00 00 00
	00		 call	 QWORD PTR __imp_CreateDirectoryA
  0002b	89 44 24 20	 mov	 DWORD PTR res$[rsp], eax
  0002f	83 7c 24 20 00	 cmp	 DWORD PTR res$[rsp], 0
  00034	74 07		 je	 SHORT $LN3@com_mkdir
  00036	c6 44 24 24 01	 mov	 BYTE PTR tv68[rsp], 1
  0003b	eb 05		 jmp	 SHORT $LN4@com_mkdir
$LN3@com_mkdir:
  0003d	c6 44 24 24 00	 mov	 BYTE PTR tv68[rsp], 0
$LN4@com_mkdir:
  00042	0f b6 44 24 24	 movzx	 eax, BYTE PTR tv68[rsp]
  00047	48 83 c4 30	 add	 rsp, 48			; 00000030H
  0004b	5f		 pop	 rdi
  0004c	c3		 ret	 0
?com_mkdir@@YA_NPEBD@Z ENDP				; com_mkdir
_TEXT	ENDS
; Function compile flags: /Odtp /RTCsu
; File c:\program files (x86)\windows kits\10\include\10.0.10240.0\ucrt\tchar.h
;	COMDAT ?_tcsrchr@@YAPEADPEADI@Z
_TEXT	SEGMENT
_S$ = 48
_C$ = 56
?_tcsrchr@@YAPEADPEADI@Z PROC				; _tcsrchr, COMDAT

; 2027 :         {return ((char *)_tcsrchr((const char *)_S, _C)); }

$LN3:
  00000	89 54 24 10	 mov	 DWORD PTR [rsp+16], edx
  00004	48 89 4c 24 08	 mov	 QWORD PTR [rsp+8], rcx
  00009	57		 push	 rdi
  0000a	48 83 ec 20	 sub	 rsp, 32			; 00000020H
  0000e	48 8b fc	 mov	 rdi, rsp
  00011	b9 08 00 00 00	 mov	 ecx, 8
  00016	b8 cc cc cc cc	 mov	 eax, -858993460		; ccccccccH
  0001b	f3 ab		 rep stosd
  0001d	48 8b 4c 24 30	 mov	 rcx, QWORD PTR [rsp+48]
  00022	8b 54 24 38	 mov	 edx, DWORD PTR _C$[rsp]
  00026	48 8b 4c 24 30	 mov	 rcx, QWORD PTR _S$[rsp]
  0002b	e8 00 00 00 00	 call	 _tcsrchr
  00030	48 83 c4 20	 add	 rsp, 32			; 00000020H
  00034	5f		 pop	 rdi
  00035	c3		 ret	 0
?_tcsrchr@@YAPEADPEADI@Z ENDP				; _tcsrchr
_TEXT	ENDS
; Function compile flags: /Odtp /RTCsu
; File c:\program files (x86)\windows kits\10\include\10.0.10240.0\ucrt\tchar.h
;	COMDAT ?_tcschr@@YAPEADPEADI@Z
_TEXT	SEGMENT
_S$ = 48
_C$ = 56
?_tcschr@@YAPEADPEADI@Z PROC				; _tcschr, COMDAT

; 2023 :         {return ((char *)_tcschr((const char *)_S, _C)); }

$LN3:
  00000	89 54 24 10	 mov	 DWORD PTR [rsp+16], edx
  00004	48 89 4c 24 08	 mov	 QWORD PTR [rsp+8], rcx
  00009	57		 push	 rdi
  0000a	48 83 ec 20	 sub	 rsp, 32			; 00000020H
  0000e	48 8b fc	 mov	 rdi, rsp
  00011	b9 08 00 00 00	 mov	 ecx, 8
  00016	b8 cc cc cc cc	 mov	 eax, -858993460		; ccccccccH
  0001b	f3 ab		 rep stosd
  0001d	48 8b 4c 24 30	 mov	 rcx, QWORD PTR [rsp+48]
  00022	8b 54 24 38	 mov	 edx, DWORD PTR _C$[rsp]
  00026	48 8b 4c 24 30	 mov	 rcx, QWORD PTR _S$[rsp]
  0002b	e8 00 00 00 00	 call	 _tcschr
  00030	48 83 c4 20	 add	 rsp, 32			; 00000020H
  00034	5f		 pop	 rdi
  00035	c3		 ret	 0
?_tcschr@@YAPEADPEADI@Z ENDP				; _tcschr
_TEXT	ENDS
; Function compile flags: /Odtp /RTCsu
; File c:\program files (x86)\windows kits\10\include\10.0.10240.0\ucrt\tchar.h
;	COMDAT _tcscmp
_TEXT	SEGMENT
_s1$ = 48
_s2$ = 56
_tcscmp	PROC						; COMDAT

; 1669 : _Check_return_ __inline int _tcscmp(_In_ _CPC _s1,_In_ _CPC _s2) {return _mbscmp((_CPUC)_s1,(_CPUC)_s2);}

$LN3:
  00000	48 89 54 24 10	 mov	 QWORD PTR [rsp+16], rdx
  00005	48 89 4c 24 08	 mov	 QWORD PTR [rsp+8], rcx
  0000a	57		 push	 rdi
  0000b	48 83 ec 20	 sub	 rsp, 32			; 00000020H
  0000f	48 8b fc	 mov	 rdi, rsp
  00012	b9 08 00 00 00	 mov	 ecx, 8
  00017	b8 cc cc cc cc	 mov	 eax, -858993460		; ccccccccH
  0001c	f3 ab		 rep stosd
  0001e	48 8b 4c 24 30	 mov	 rcx, QWORD PTR [rsp+48]
  00023	48 8b 54 24 38	 mov	 rdx, QWORD PTR _s2$[rsp]
  00028	48 8b 4c 24 30	 mov	 rcx, QWORD PTR _s1$[rsp]
  0002d	ff 15 00 00 00
	00		 call	 QWORD PTR __imp__mbscmp
  00033	48 83 c4 20	 add	 rsp, 32			; 00000020H
  00037	5f		 pop	 rdi
  00038	c3		 ret	 0
_tcscmp	ENDP
_TEXT	ENDS
; Function compile flags: /Odtp /RTCsu
; File c:\program files (x86)\windows kits\10\include\10.0.10240.0\ucrt\tchar.h
;	COMDAT _tcsrchr
_TEXT	SEGMENT
_s1$ = 48
_c$ = 56
_tcsrchr PROC						; COMDAT

; 1569 : _Check_return_ __inline _CRPC _tcsrchr(_In_ _CPC _s1,_In_ _UI _c) {return (_CRPC)_mbsrchr((_CPUC)_s1,_c);}

$LN3:
  00000	89 54 24 10	 mov	 DWORD PTR [rsp+16], edx
  00004	48 89 4c 24 08	 mov	 QWORD PTR [rsp+8], rcx
  00009	57		 push	 rdi
  0000a	48 83 ec 20	 sub	 rsp, 32			; 00000020H
  0000e	48 8b fc	 mov	 rdi, rsp
  00011	b9 08 00 00 00	 mov	 ecx, 8
  00016	b8 cc cc cc cc	 mov	 eax, -858993460		; ccccccccH
  0001b	f3 ab		 rep stosd
  0001d	48 8b 4c 24 30	 mov	 rcx, QWORD PTR [rsp+48]
  00022	8b 54 24 38	 mov	 edx, DWORD PTR _c$[rsp]
  00026	48 8b 4c 24 30	 mov	 rcx, QWORD PTR _s1$[rsp]
  0002b	ff 15 00 00 00
	00		 call	 QWORD PTR __imp__mbsrchr
  00031	48 83 c4 20	 add	 rsp, 32			; 00000020H
  00035	5f		 pop	 rdi
  00036	c3		 ret	 0
_tcsrchr ENDP
_TEXT	ENDS
; Function compile flags: /Odtp /RTCsu
; File c:\program files (x86)\windows kits\10\include\10.0.10240.0\ucrt\tchar.h
;	COMDAT _tcsncpy
_TEXT	SEGMENT
_Dst$ = 48
_Source$ = 56
_Count$ = 64
_tcsncpy PROC						; COMDAT

; 1542 : {

$LN3:
  00000	4c 89 44 24 18	 mov	 QWORD PTR [rsp+24], r8
  00005	48 89 54 24 10	 mov	 QWORD PTR [rsp+16], rdx
  0000a	48 89 4c 24 08	 mov	 QWORD PTR [rsp+8], rcx
  0000f	57		 push	 rdi
  00010	48 83 ec 20	 sub	 rsp, 32			; 00000020H
  00014	48 8b fc	 mov	 rdi, rsp
  00017	b9 08 00 00 00	 mov	 ecx, 8
  0001c	b8 cc cc cc cc	 mov	 eax, -858993460		; ccccccccH
  00021	f3 ab		 rep stosd
  00023	48 8b 4c 24 30	 mov	 rcx, QWORD PTR [rsp+48]

; 1543 : #pragma warning(push)
; 1544 : #pragma warning(disable:4996)
; 1545 :     return (char *)_mbsnbcpy((unsigned char *)_Dst,(const unsigned char *)_Source,_Count);

  00028	4c 8b 44 24 40	 mov	 r8, QWORD PTR _Count$[rsp]
  0002d	48 8b 54 24 38	 mov	 rdx, QWORD PTR _Source$[rsp]
  00032	48 8b 4c 24 30	 mov	 rcx, QWORD PTR _Dst$[rsp]
  00037	ff 15 00 00 00
	00		 call	 QWORD PTR __imp__mbsnbcpy

; 1546 : #pragma warning(pop)
; 1547 : }

  0003d	48 83 c4 20	 add	 rsp, 32			; 00000020H
  00041	5f		 pop	 rdi
  00042	c3		 ret	 0
_tcsncpy ENDP
_TEXT	ENDS
; Function compile flags: /Odtp /RTCsu
; File c:\program files (x86)\windows kits\10\include\10.0.10240.0\ucrt\tchar.h
;	COMDAT _tcschr
_TEXT	SEGMENT
_s1$ = 48
_c$ = 56
_tcschr	PROC						; COMDAT

; 1497 : __inline _CRPC _tcschr(_In_ _CPC _s1,_In_ _UI _c) {return (_CRPC)_mbschr((_CPUC)_s1,_c);}

$LN3:
  00000	89 54 24 10	 mov	 DWORD PTR [rsp+16], edx
  00004	48 89 4c 24 08	 mov	 QWORD PTR [rsp+8], rcx
  00009	57		 push	 rdi
  0000a	48 83 ec 20	 sub	 rsp, 32			; 00000020H
  0000e	48 8b fc	 mov	 rdi, rsp
  00011	b9 08 00 00 00	 mov	 ecx, 8
  00016	b8 cc cc cc cc	 mov	 eax, -858993460		; ccccccccH
  0001b	f3 ab		 rep stosd
  0001d	48 8b 4c 24 30	 mov	 rcx, QWORD PTR [rsp+48]
  00022	8b 54 24 38	 mov	 edx, DWORD PTR _c$[rsp]
  00026	48 8b 4c 24 30	 mov	 rcx, QWORD PTR _s1$[rsp]
  0002b	ff 15 00 00 00
	00		 call	 QWORD PTR __imp__mbschr
  00031	48 83 c4 20	 add	 rsp, 32			; 00000020H
  00035	5f		 pop	 rdi
  00036	c3		 ret	 0
_tcschr	ENDP
_TEXT	ENDS
; Function compile flags: /Odtp /RTCsu
; File c:\program files (x86)\windows kits\10\include\10.0.10240.0\ucrt\string.h
;	COMDAT ?strchr@@YAPEADQEADH@Z
_TEXT	SEGMENT
_String$ = 48
_Ch$ = 56
?strchr@@YAPEADQEADH@Z PROC				; strchr, COMDAT

; 518  :     {

$LN3:
  00000	89 54 24 10	 mov	 DWORD PTR [rsp+16], edx
  00004	48 89 4c 24 08	 mov	 QWORD PTR [rsp+8], rcx
  00009	57		 push	 rdi
  0000a	48 83 ec 20	 sub	 rsp, 32			; 00000020H
  0000e	48 8b fc	 mov	 rdi, rsp
  00011	b9 08 00 00 00	 mov	 ecx, 8
  00016	b8 cc cc cc cc	 mov	 eax, -858993460		; ccccccccH
  0001b	f3 ab		 rep stosd
  0001d	48 8b 4c 24 30	 mov	 rcx, QWORD PTR [rsp+48]

; 519  :         return const_cast<char*>(strchr(static_cast<char const*>(_String), _Ch));

  00022	8b 54 24 38	 mov	 edx, DWORD PTR _Ch$[rsp]
  00026	48 8b 4c 24 30	 mov	 rcx, QWORD PTR _String$[rsp]
  0002b	ff 15 00 00 00
	00		 call	 QWORD PTR __imp_strchr

; 520  :     }

  00031	48 83 c4 20	 add	 rsp, 32			; 00000020H
  00035	5f		 pop	 rdi
  00036	c3		 ret	 0
?strchr@@YAPEADQEADH@Z ENDP				; strchr
_TEXT	ENDS
; Function compile flags: /Odtp /RTCsu
; File c:\program files (x86)\windows kits\10\include\10.0.10240.0\ucrt\stdio.h
;	COMDAT sprintf
_TEXT	SEGMENT
_Result$ = 32
_ArgList$ = 56
__$ArrayPad$ = 80
_Buffer$ = 112
_Format$ = 120
sprintf	PROC						; COMDAT

; 1776 : {

$LN3:
  00000	48 89 54 24 10	 mov	 QWORD PTR [rsp+16], rdx
  00005	48 89 4c 24 08	 mov	 QWORD PTR [rsp+8], rcx
  0000a	4c 89 44 24 18	 mov	 QWORD PTR [rsp+24], r8
  0000f	4c 89 4c 24 20	 mov	 QWORD PTR [rsp+32], r9
  00014	57		 push	 rdi
  00015	48 83 ec 60	 sub	 rsp, 96			; 00000060H
  00019	48 8b fc	 mov	 rdi, rsp
  0001c	b9 18 00 00 00	 mov	 ecx, 24
  00021	b8 cc cc cc cc	 mov	 eax, -858993460		; ccccccccH
  00026	f3 ab		 rep stosd
  00028	48 8b 4c 24 70	 mov	 rcx, QWORD PTR [rsp+112]
  0002d	48 8b 05 00 00
	00 00		 mov	 rax, QWORD PTR __security_cookie
  00034	48 33 c4	 xor	 rax, rsp
  00037	48 89 44 24 50	 mov	 QWORD PTR __$ArrayPad$[rsp], rax

; 1777 :     int _Result;
; 1778 :     va_list _ArgList;
; 1779 :     __crt_va_start(_ArgList, _Format);

  0003c	e8 00 00 00 00	 call	 ??$__vcrt_va_start_verify_argument_type@QEBD@@YAXXZ ; __vcrt_va_start_verify_argument_type<char const * __ptr64 const>
  00041	48 8d 84 24 80
	00 00 00	 lea	 rax, QWORD PTR _Format$[rsp+8]
  00049	48 89 44 24 38	 mov	 QWORD PTR _ArgList$[rsp], rax

; 1780 : 
; 1781 :     #pragma warning(push)
; 1782 :     #pragma warning(disable: 4996) // Deprecation
; 1783 :     _Result = _vsprintf_l(_Buffer, _Format, NULL, _ArgList);

  0004e	4c 8b 4c 24 38	 mov	 r9, QWORD PTR _ArgList$[rsp]
  00053	45 33 c0	 xor	 r8d, r8d
  00056	48 8b 54 24 78	 mov	 rdx, QWORD PTR _Format$[rsp]
  0005b	48 8b 4c 24 70	 mov	 rcx, QWORD PTR _Buffer$[rsp]
  00060	e8 00 00 00 00	 call	 _vsprintf_l
  00065	89 44 24 20	 mov	 DWORD PTR _Result$[rsp], eax

; 1784 :     #pragma warning(pop)
; 1785 : 
; 1786 :     __crt_va_end(_ArgList);

  00069	48 c7 44 24 38
	00 00 00 00	 mov	 QWORD PTR _ArgList$[rsp], 0

; 1787 :     return _Result;

  00072	8b 44 24 20	 mov	 eax, DWORD PTR _Result$[rsp]

; 1788 : }

  00076	8b f8		 mov	 edi, eax
  00078	48 8b cc	 mov	 rcx, rsp
  0007b	48 8d 15 00 00
	00 00		 lea	 rdx, OFFSET FLAT:sprintf$rtcFrameData
  00082	e8 00 00 00 00	 call	 _RTC_CheckStackVars
  00087	8b c7		 mov	 eax, edi
  00089	48 8b 4c 24 50	 mov	 rcx, QWORD PTR __$ArrayPad$[rsp]
  0008e	48 33 cc	 xor	 rcx, rsp
  00091	e8 00 00 00 00	 call	 __security_check_cookie
  00096	48 83 c4 60	 add	 rsp, 96			; 00000060H
  0009a	5f		 pop	 rdi
  0009b	c3		 ret	 0
sprintf	ENDP
_TEXT	ENDS
; Function compile flags: /Odtp /RTCsu
; File c:\program files (x86)\windows kits\10\include\10.0.10240.0\ucrt\stdio.h
;	COMDAT _vsprintf_l
_TEXT	SEGMENT
_Buffer$ = 64
_Format$ = 72
_Locale$ = 80
_ArgList$ = 88
_vsprintf_l PROC					; COMDAT

; 1455 : {

$LN3:
  00000	4c 89 4c 24 20	 mov	 QWORD PTR [rsp+32], r9
  00005	4c 89 44 24 18	 mov	 QWORD PTR [rsp+24], r8
  0000a	48 89 54 24 10	 mov	 QWORD PTR [rsp+16], rdx
  0000f	48 89 4c 24 08	 mov	 QWORD PTR [rsp+8], rcx
  00014	57		 push	 rdi
  00015	48 83 ec 30	 sub	 rsp, 48			; 00000030H
  00019	48 8b fc	 mov	 rdi, rsp
  0001c	b9 0c 00 00 00	 mov	 ecx, 12
  00021	b8 cc cc cc cc	 mov	 eax, -858993460		; ccccccccH
  00026	f3 ab		 rep stosd
  00028	48 8b 4c 24 40	 mov	 rcx, QWORD PTR [rsp+64]

; 1456 :     #pragma warning(push)
; 1457 :     #pragma warning(disable: 4996) // Deprecation
; 1458 :     return _vsnprintf_l(_Buffer, (size_t)-1, _Format, _Locale, _ArgList);

  0002d	48 8b 44 24 58	 mov	 rax, QWORD PTR _ArgList$[rsp]
  00032	48 89 44 24 20	 mov	 QWORD PTR [rsp+32], rax
  00037	4c 8b 4c 24 50	 mov	 r9, QWORD PTR _Locale$[rsp]
  0003c	4c 8b 44 24 48	 mov	 r8, QWORD PTR _Format$[rsp]
  00041	48 c7 c2 ff ff
	ff ff		 mov	 rdx, -1
  00048	48 8b 4c 24 40	 mov	 rcx, QWORD PTR _Buffer$[rsp]
  0004d	e8 00 00 00 00	 call	 _vsnprintf_l

; 1459 :     #pragma warning(pop)
; 1460 : }

  00052	48 83 c4 30	 add	 rsp, 48			; 00000030H
  00056	5f		 pop	 rdi
  00057	c3		 ret	 0
_vsprintf_l ENDP
_TEXT	ENDS
; Function compile flags: /Odtp /RTCsu
; File c:\program files (x86)\windows kits\10\include\10.0.10240.0\ucrt\stdio.h
;	COMDAT _vsnprintf_l
_TEXT	SEGMENT
_Result$ = 48
tv74 = 52
_Buffer$ = 80
_BufferCount$ = 88
_Format$ = 96
_Locale$ = 104
_ArgList$ = 112
_vsnprintf_l PROC					; COMDAT

; 1385 : {

$LN5:
  00000	4c 89 4c 24 20	 mov	 QWORD PTR [rsp+32], r9
  00005	4c 89 44 24 18	 mov	 QWORD PTR [rsp+24], r8
  0000a	48 89 54 24 10	 mov	 QWORD PTR [rsp+16], rdx
  0000f	48 89 4c 24 08	 mov	 QWORD PTR [rsp+8], rcx
  00014	57		 push	 rdi
  00015	48 83 ec 40	 sub	 rsp, 64			; 00000040H
  00019	48 8b fc	 mov	 rdi, rsp
  0001c	b9 10 00 00 00	 mov	 ecx, 16
  00021	b8 cc cc cc cc	 mov	 eax, -858993460		; ccccccccH
  00026	f3 ab		 rep stosd
  00028	48 8b 4c 24 50	 mov	 rcx, QWORD PTR [rsp+80]

; 1386 :     int const _Result = __stdio_common_vsprintf(

  0002d	e8 00 00 00 00	 call	 __local_stdio_printf_options
  00032	48 8b 00	 mov	 rax, QWORD PTR [rax]
  00035	48 83 c8 01	 or	 rax, 1
  00039	48 8b 4c 24 70	 mov	 rcx, QWORD PTR _ArgList$[rsp]
  0003e	48 89 4c 24 28	 mov	 QWORD PTR [rsp+40], rcx
  00043	48 8b 4c 24 68	 mov	 rcx, QWORD PTR _Locale$[rsp]
  00048	48 89 4c 24 20	 mov	 QWORD PTR [rsp+32], rcx
  0004d	4c 8b 4c 24 60	 mov	 r9, QWORD PTR _Format$[rsp]
  00052	4c 8b 44 24 58	 mov	 r8, QWORD PTR _BufferCount$[rsp]
  00057	48 8b 54 24 50	 mov	 rdx, QWORD PTR _Buffer$[rsp]
  0005c	48 8b c8	 mov	 rcx, rax
  0005f	ff 15 00 00 00
	00		 call	 QWORD PTR __imp___stdio_common_vsprintf
  00065	89 44 24 30	 mov	 DWORD PTR _Result$[rsp], eax

; 1387 :         _CRT_INTERNAL_LOCAL_PRINTF_OPTIONS | _CRT_INTERNAL_PRINTF_LEGACY_VSPRINTF_NULL_TERMINATION,
; 1388 :         _Buffer, _BufferCount, _Format, _Locale, _ArgList);
; 1389 : 
; 1390 :     return _Result < 0 ? -1 : _Result;

  00069	83 7c 24 30 00	 cmp	 DWORD PTR _Result$[rsp], 0
  0006e	7d 0a		 jge	 SHORT $LN3@vsnprintf_
  00070	c7 44 24 34 ff
	ff ff ff	 mov	 DWORD PTR tv74[rsp], -1
  00078	eb 08		 jmp	 SHORT $LN4@vsnprintf_
$LN3@vsnprintf_:
  0007a	8b 44 24 30	 mov	 eax, DWORD PTR _Result$[rsp]
  0007e	89 44 24 34	 mov	 DWORD PTR tv74[rsp], eax
$LN4@vsnprintf_:
  00082	8b 44 24 34	 mov	 eax, DWORD PTR tv74[rsp]

; 1391 : }

  00086	48 83 c4 40	 add	 rsp, 64			; 00000040H
  0008a	5f		 pop	 rdi
  0008b	c3		 ret	 0
_vsnprintf_l ENDP
_TEXT	ENDS
; Function compile flags: /Odtp /RTCsu
; File c:\program files (x86)\windows kits\10\include\10.0.10240.0\ucrt\stdio.h
;	COMDAT printf
_TEXT	SEGMENT
_Result$ = 32
_ArgList$ = 56
__$ArrayPad$ = 80
_Format$ = 112
printf	PROC						; COMDAT

; 950  : {

$LN3:
  00000	48 89 4c 24 08	 mov	 QWORD PTR [rsp+8], rcx
  00005	48 89 54 24 10	 mov	 QWORD PTR [rsp+16], rdx
  0000a	4c 89 44 24 18	 mov	 QWORD PTR [rsp+24], r8
  0000f	4c 89 4c 24 20	 mov	 QWORD PTR [rsp+32], r9
  00014	57		 push	 rdi
  00015	48 83 ec 60	 sub	 rsp, 96			; 00000060H
  00019	48 8b fc	 mov	 rdi, rsp
  0001c	b9 18 00 00 00	 mov	 ecx, 24
  00021	b8 cc cc cc cc	 mov	 eax, -858993460		; ccccccccH
  00026	f3 ab		 rep stosd
  00028	48 8b 4c 24 70	 mov	 rcx, QWORD PTR [rsp+112]
  0002d	48 8b 05 00 00
	00 00		 mov	 rax, QWORD PTR __security_cookie
  00034	48 33 c4	 xor	 rax, rsp
  00037	48 89 44 24 50	 mov	 QWORD PTR __$ArrayPad$[rsp], rax

; 951  :     int _Result;
; 952  :     va_list _ArgList;
; 953  :     __crt_va_start(_ArgList, _Format);

  0003c	e8 00 00 00 00	 call	 ??$__vcrt_va_start_verify_argument_type@QEBD@@YAXXZ ; __vcrt_va_start_verify_argument_type<char const * __ptr64 const>
  00041	48 8d 44 24 78	 lea	 rax, QWORD PTR _Format$[rsp+8]
  00046	48 89 44 24 38	 mov	 QWORD PTR _ArgList$[rsp], rax

; 954  :     _Result = _vfprintf_l(stdout, _Format, NULL, _ArgList);

  0004b	b9 01 00 00 00	 mov	 ecx, 1
  00050	ff 15 00 00 00
	00		 call	 QWORD PTR __imp___acrt_iob_func
  00056	4c 8b 4c 24 38	 mov	 r9, QWORD PTR _ArgList$[rsp]
  0005b	45 33 c0	 xor	 r8d, r8d
  0005e	48 8b 54 24 70	 mov	 rdx, QWORD PTR _Format$[rsp]
  00063	48 8b c8	 mov	 rcx, rax
  00066	e8 00 00 00 00	 call	 _vfprintf_l
  0006b	89 44 24 20	 mov	 DWORD PTR _Result$[rsp], eax

; 955  :     __crt_va_end(_ArgList);

  0006f	48 c7 44 24 38
	00 00 00 00	 mov	 QWORD PTR _ArgList$[rsp], 0

; 956  :     return _Result;

  00078	8b 44 24 20	 mov	 eax, DWORD PTR _Result$[rsp]

; 957  : }

  0007c	8b f8		 mov	 edi, eax
  0007e	48 8b cc	 mov	 rcx, rsp
  00081	48 8d 15 00 00
	00 00		 lea	 rdx, OFFSET FLAT:printf$rtcFrameData
  00088	e8 00 00 00 00	 call	 _RTC_CheckStackVars
  0008d	8b c7		 mov	 eax, edi
  0008f	48 8b 4c 24 50	 mov	 rcx, QWORD PTR __$ArrayPad$[rsp]
  00094	48 33 cc	 xor	 rcx, rsp
  00097	e8 00 00 00 00	 call	 __security_check_cookie
  0009c	48 83 c4 60	 add	 rsp, 96			; 00000060H
  000a0	5f		 pop	 rdi
  000a1	c3		 ret	 0
printf	ENDP
_TEXT	ENDS
; Function compile flags: /Odtp /RTCsu
; File c:\program files (x86)\microsoft visual studio 14.0\vc\include\vadefs.h
;	COMDAT ??$__vcrt_va_start_verify_argument_type@QEBD@@YAXXZ
_TEXT	SEGMENT
??$__vcrt_va_start_verify_argument_type@QEBD@@YAXXZ PROC ; __vcrt_va_start_verify_argument_type<char const * __ptr64 const>, COMDAT

; 144  :         {

$LN3:
  00000	40 57		 push	 rdi

; 145  :             static_assert(!__vcrt_va_list_is_reference<_Ty>::__the_value, "va_start argument must not have reference type and must not be parenthesized");
; 146  :         }

  00002	5f		 pop	 rdi
  00003	c3		 ret	 0
??$__vcrt_va_start_verify_argument_type@QEBD@@YAXXZ ENDP ; __vcrt_va_start_verify_argument_type<char const * __ptr64 const>
_TEXT	ENDS
; Function compile flags: /Odtp /RTCsu
; File c:\program files (x86)\windows kits\10\include\10.0.10240.0\ucrt\stdio.h
;	COMDAT _vfprintf_l
_TEXT	SEGMENT
_Stream$ = 64
_Format$ = 72
_Locale$ = 80
_ArgList$ = 88
_vfprintf_l PROC					; COMDAT

; 638  : {

$LN3:
  00000	4c 89 4c 24 20	 mov	 QWORD PTR [rsp+32], r9
  00005	4c 89 44 24 18	 mov	 QWORD PTR [rsp+24], r8
  0000a	48 89 54 24 10	 mov	 QWORD PTR [rsp+16], rdx
  0000f	48 89 4c 24 08	 mov	 QWORD PTR [rsp+8], rcx
  00014	57		 push	 rdi
  00015	48 83 ec 30	 sub	 rsp, 48			; 00000030H
  00019	48 8b fc	 mov	 rdi, rsp
  0001c	b9 0c 00 00 00	 mov	 ecx, 12
  00021	b8 cc cc cc cc	 mov	 eax, -858993460		; ccccccccH
  00026	f3 ab		 rep stosd
  00028	48 8b 4c 24 40	 mov	 rcx, QWORD PTR [rsp+64]

; 639  :     return __stdio_common_vfprintf(_CRT_INTERNAL_LOCAL_PRINTF_OPTIONS, _Stream, _Format, _Locale, _ArgList);

  0002d	e8 00 00 00 00	 call	 __local_stdio_printf_options
  00032	48 8b 4c 24 58	 mov	 rcx, QWORD PTR _ArgList$[rsp]
  00037	48 89 4c 24 20	 mov	 QWORD PTR [rsp+32], rcx
  0003c	4c 8b 4c 24 50	 mov	 r9, QWORD PTR _Locale$[rsp]
  00041	4c 8b 44 24 48	 mov	 r8, QWORD PTR _Format$[rsp]
  00046	48 8b 54 24 40	 mov	 rdx, QWORD PTR _Stream$[rsp]
  0004b	48 8b 08	 mov	 rcx, QWORD PTR [rax]
  0004e	ff 15 00 00 00
	00		 call	 QWORD PTR __imp___stdio_common_vfprintf

; 640  : }

  00054	48 83 c4 30	 add	 rsp, 48			; 00000030H
  00058	5f		 pop	 rdi
  00059	c3		 ret	 0
_vfprintf_l ENDP
_TEXT	ENDS
; Function compile flags: /Odtp /RTCsu
; File c:\program files (x86)\windows kits\10\include\10.0.10240.0\ucrt\corecrt_stdio_config.h
;	COMDAT __local_stdio_printf_options
_TEXT	SEGMENT
__local_stdio_printf_options PROC			; COMDAT

; 73   : {

$LN3:
  00000	40 57		 push	 rdi

; 74   :     static unsigned __int64 _OptionsStorage;
; 75   :     return &_OptionsStorage;

  00002	48 8d 05 00 00
	00 00		 lea	 rax, OFFSET FLAT:?_OptionsStorage@?1??__local_stdio_printf_options@@9@4_KA ; `__local_stdio_printf_options'::`2'::_OptionsStorage

; 76   : }

  00009	5f		 pop	 rdi
  0000a	c3		 ret	 0
__local_stdio_printf_options ENDP
_TEXT	ENDS
END
