; Listing generated by Microsoft (R) Optimizing Compiler Version 19.00.24215.1 

include listing.inc

INCLUDELIB MSVCRTD
INCLUDELIB OLDNAMES

PUBLIC	?g_szKeepDuratrion@@3PADA			; g_szKeepDuratrion
PUBLIC	?g_szLogExtension@@3PADA			; g_szLogExtension
_DATA	SEGMENT
?g_szKeepDuratrion@@3PADA DB '15D', 00H			; g_szKeepDuratrion
	ORG $+4
?g_szLogExtension@@3PADA DB 'log', 00H			; g_szLogExtension
	ORG $+4
_DATA	ENDS
CONST	SEGMENT
$SG86377 DB	'LIST_MAX', 00H
$SG86449 DB	00H
$SG86898 DB	00H
	ORG $+5
$SG86378 DB	'DATETIME_EXPRESSION', 00H
$SG86460 DB	'Log', 00H
$SG86381 DB	'CTimeExpManager::initConfig', 00H
$SG86604 DB	'%s', 00H
	ORG $+1
$SG86382 DB	'new CList() is NULL!', 09H, '%s%d', 0aH, 00H
	ORG $+1
$SG86610 DB	'%c', 00H
	ORG $+1
$SG86384 DB	'CTimeExpManager::initConfig', 00H
$SG86613 DB	'%c', 00H
	ORG $+1
$SG86385 DB	'm_pTimeExpList->alloc has Failed!', 09H, '%s%d', 0aH, 00H
$SG86388 DB	'DATETIME_EXPRESSION_%d', 00H
	ORG $+1
$SG86389 DB	'IS_TIME_DELIMETER', 00H
	ORG $+2
$SG86461 DB	'LOGDIR', 00H
	ORG $+1
$SG86635 DB	'%s', 00H
	ORG $+1
$SG86390 DB	'DATE_DELIMETER', 00H
	ORG $+1
$SG86391 DB	'IS_BRACKET_ENCLOSED', 00H
$SG86637 DB	' %s', 00H
$SG86392 DB	'LAST_TYPE', 00H
	ORG $+2
$SG86475 DB	'STL_NO', 00H
	ORG $+1
$SG86653 DB	'a+', 00H
	ORG $+1
$SG86393 DB	'YEAR_LEN', 00H
	ORG $+3
$SG86614 DB	'%02d ', 00H
	ORG $+2
$SG86903 DB	'%s%s%c', 00H
	ORG $+5
$SG86394 DB	'TZ_TYPE', 00H
$SG86424 DB	'CLogger::initDefault', 00H
	ORG $+3
$SG86425 DB	'pDir is NULL', 00H
	ORG $+3
$SG86430 DB	'CLogger::initDefault', 00H
	ORG $+3
$SG86431 DB	'_setLoggerQueue has Failed', 00H
	ORG $+5
$SG86433 DB	'CLogger::initDefault', 00H
	ORG $+3
$SG86434 DB	'_setHeaderFormat has Failed', 00H
$SG86597 DB	'%04d', 00H
	ORG $+7
?gs_fmtStr@@3QAY0M@$$CBDA DB 00H			; gs_fmtStr
	ORG $+11
	DB	'[DEBUG] ', 00H
	ORG $+3
	DB	'[TRACE] ', 00H
	ORG $+3
	DB	'[INFO] ', 00H
	ORG $+4
	DB	'[WARNING] ', 00H
	ORG $+1
	DB	'[ERROR] ', 00H
	ORG $+3
	DB	'[FATAL] ', 00H
	ORG $+3
	DB	'[ALARM] ', 00H
	ORG $+3
$SG86450 DB	'LOGNAME', 00H
$SG86455 DB	'CLogger::initConfig', 00H
	ORG $+4
$SG86456 DB	'LOGNAME is NULL!', 00H
	ORG $+7
$SG86457 DB	'ISENABLE', 00H
	ORG $+7
$SG86462 DB	'EXTENSION', 00H
	ORG $+6
$SG86463 DB	'KEEP_DURATION', 00H
	ORG $+2
$SG86464 DB	'LIST_MAX', 00H
	ORG $+7
$SG86466 DB	'CLogger::initConfig', 00H
	ORG $+4
$SG86467 DB	'_setLoggerQueue has Failed', 00H
	ORG $+5
$SG86468 DB	'TIMESTEMP_NO', 00H
	ORG $+3
$SG86470 DB	'invalid value[%d]! pSection[%s]', 00H
$SG86471 DB	'CLogger::initConfig', 00H
	ORG $+4
$SG86473 DB	'CLogger::initConfig', 00H
	ORG $+4
$SG86474 DB	'_setHeaderFormat has Failed', 00H
	ORG $+4
$SG86476 DB	'LOGTYPE', 00H
$SG86477 DB	'SIZE_LIMIT', 00H
	ORG $+5
$SG86478 DB	'IS_PRINT_LEVEL', 00H
	ORG $+1
$SG86479 DB	'IS_PRINT', 00H
	ORG $+7
$SG86481 DB	'LOGLEVEL', 00H
	ORG $+7
$SG86492 DB	'Logger is not Initialized!', 00H
	ORG $+5
$SG86495 DB	'TYPE_DAILY', 00H
	ORG $+5
$SG86498 DB	'TYPE_HOURLY', 00H
	ORG $+4
$SG86500 DB	'TYPE_FILE', 00H
	ORG $+6
$SG86501 DB	'================================================', 0aH, 00H
	ORG $+6
$SG86502 DB	'Logger Path[%s] Prefix[%s] Extension[%s]', 0aH, 00H
	ORG $+6
$SG86503 DB	'Logger SizeLimit[%d] LogLevel[%d] LogType[%s]', 0aH, 00H
	ORG $+1
$SG86504 DB	'KeepDuration : %02d days %02d:%02d:%02d', 00H
$SG86505 DB	'Logger KeepDuration[%s]', 0aH, 00H
	ORG $+7
$SG86506 DB	'================================================', 0aH, 00H
	ORG $+6
$SG86540 DB	'm_sLogQueue.alloc(20, eAlloc_Type_BufPool) has Failed', 00H
	ORG $+2
$SG86541 DB	'CLogger::_setLoggerQueue', 00H
	ORG $+7
$SG86544 DB	'm_sLogQueue.realloc(%d,true) has Failed', 00H
$SG86545 DB	'CLogger::_setLoggerQueue', 00H
	ORG $+7
$SG86568 DB	'm_pDTE is NULL! nTimeStempNo[%d]', 00H
	ORG $+7
$SG86569 DB	'CLogger::_setHeaderFormat', 00H
	ORG $+6
$SG86577 DB	'%s%d_%s.%s', 00H
	ORG $+5
$SG86580 DB	'%s%d%c%s_%02d.%s', 00H
	ORG $+7
$SG86582 DB	'%s%s.%s', 00H
$SG86611 DB	'%02d', 00H
	ORG $+3
$SG86617 DB	'%02d:%02d:%02d', 00H
	ORG $+1
$SG86618 DB	'%02d%02d%02d', 00H
	ORG $+3
$SG86620 DB	'.%03d', 00H
	ORG $+2
$SG86622 DB	'.%06d', 00H
	ORG $+2
$SG86624 DB	'.%09d', 00H
	ORG $+2
$SG86649 DB	'%s.%d', 00H
	ORG $+2
$SG86655 DB	'Can''t create log file [%s]', 0aH, 00H
$SG86712 DB	' %s ', 00H
	ORG $+7
$SG86733 DB	' nSIdx[%d] Send [%d] PKIdx[%d] ', 00H
$SG86734 DB	' nSIdx[%d] Recv [%d] PKIdx[%d] ', 00H
$SG86735 DB	' nSIdx[%d] send Queue [%d] PKIdx[%d] ', 00H
	ORG $+2
$SG86736 DB	' nSIdx[%d] recv Queue [%d] PKIdx[%d] ', 00H
	ORG $+2
$SG86737 DB	' Undefind nkind[%d] [%d] PKIdx[%d] ', 00H
$SG86740 DB	'%02x ', 00H
	ORG $+6
$SG86761 DB	' %s, %d, %s ', 00H
	ORG $+3
$SG86779 DB	' %s ', 00H
	ORG $+3
$SG86801 DB	'%s/%d_%s.%s', 00H
	ORG $+4
$SG86804 DB	'%s/%d/%s_%02d.%s', 00H
	ORG $+7
$SG86823 DB	'%s/%d_%s', 00H
	ORG $+7
$SG86826 DB	'%s/%d/%s_%02d.%s', 00H
	ORG $+3
$SG86828 DB	'%s/%s', 00H
	ORG $+6
$SG86845 DB	'GetKeepInfo nStrLen < 2', 0aH, 00H
	ORG $+3
$SG86872 DB	'%s%s', 00H
	ORG $+3
$SG86885 DB	'%s%s', 00H
	ORG $+3
$SG86904 DB	'%s%c', 00H
CONST	ENDS
PUBLIC	_tcsncpy
PUBLIC	_tcsrchr
PUBLIC	_tcscmp
PUBLIC	__local_stdio_printf_options
PUBLIC	_vfprintf_l
PUBLIC	fprintf
PUBLIC	??$__vcrt_va_start_verify_argument_type@QEBD@@YAXXZ ; __vcrt_va_start_verify_argument_type<char const * __ptr64 const>
PUBLIC	printf
PUBLIC	_vsnprintf_l
PUBLIC	_vsnprintf
PUBLIC	vsnprintf
PUBLIC	_vsprintf_l
PUBLIC	sprintf
PUBLIC	?ISINCLUDE@@YA_NHH@Z				; ISINCLUDE
PUBLIC	?comGlobalErrorProc@@YAXPEADPEBDH@Z		; comGlobalErrorProc
PUBLIC	?capacity@CQueueS@@QEAAHXZ			; CQueueS::capacity
PUBLIC	?TimezoneString@CDateTime@@QEAAPEBDXZ		; CDateTime::TimezoneString
PUBLIC	?getIndex@@YAHH@Z				; getIndex
PUBLIC	?newBuf@CMemManager@@QEAAPEADH@Z		; CMemManager::newBuf
PUBLIC	?alloc@CSList@@QEAAHHW4E_ALLOC_TYPE@@@Z		; CSList::alloc
PUBLIC	?getObj@CSList@@QEAAPEAXH@Z			; CSList::getObj
PUBLIC	?__autoclassinit2@CSList@@QEAAX_K@Z		; CSList::__autoclassinit2
PUBLIC	??_GCSList@@QEAAPEAXI@Z				; CSList::`scalar deleting destructor'
PUBLIC	??0CTimeExpManager@@QEAA@XZ			; CTimeExpManager::CTimeExpManager
PUBLIC	??1CTimeExpManager@@QEAA@XZ			; CTimeExpManager::~CTimeExpManager
PUBLIC	?initConfig@CTimeExpManager@@QEAA_NPEAD@Z	; CTimeExpManager::initConfig
PUBLIC	?getDTE@CTimeExpManager@@QEAAPEAUSTLogDateTimeExp@@H@Z ; CTimeExpManager::getDTE
PUBLIC	?__autoclassinit2@CTimeExpManager@@QEAAX_K@Z	; CTimeExpManager::__autoclassinit2
PUBLIC	??0CLogger@@QEAA@XZ				; CLogger::CLogger
PUBLIC	??1CLogger@@QEAA@XZ				; CLogger::~CLogger
PUBLIC	?initDefault@CLogger@@QEAA_NPEAD0HHH0@Z		; CLogger::initDefault
PUBLIC	?initConfig@CLogger@@QEAA?AW4E_LOG_INIT_RES@@PEAD0@Z ; CLogger::initConfig
PUBLIC	?OpenLogger@CLogger@@QEAAXXZ			; CLogger::OpenLogger
PUBLIC	?setLogFlag@CLogger@@QEAAXW4E_LOG_FLAG@@@Z	; CLogger::setLogFlag
PUBLIC	?clearLogFlag@CLogger@@QEAAXW4E_LOG_FLAG@@@Z	; CLogger::clearLogFlag
PUBLIC	?isLogFlag@CLogger@@QEAA_NW4E_LOG_FLAG@@@Z	; CLogger::isLogFlag
PUBLIC	?setHeader@CLogger@@QEAAHPEADH@Z		; CLogger::setHeader
PUBLIC	?PutLogQueue@CLogger@@QEAAXHPEBDZZ		; CLogger::PutLogQueue
PUBLIC	?PutLogQueue@CLogger@@QEAAXHPEAD@Z		; CLogger::PutLogQueue
PUBLIC	?Log@CLogger@@QEAAXHPEBD00_N@Z			; CLogger::Log
PUBLIC	?LogPrint@CLogger@@QEAAXPEAD@Z			; CLogger::LogPrint
PUBLIC	?LogPrint@CLogger@@QEAAXHPEBDZZ			; CLogger::LogPrint
PUBLIC	?WritePacket@CLogger@@QEAAXHHHPEADH@Z		; CLogger::WritePacket
PUBLIC	?disable@CLogger@@QEAAXXZ			; CLogger::disable
PUBLIC	?checkChangeProc@CLogger@@QEAAXH@Z		; CLogger::checkChangeProc
PUBLIC	?__debugLog@CLogger@@QEAAXHPEBDH0ZZ		; CLogger::__debugLog
PUBLIC	?getString@CLogger@@QEAAHPEAD@Z			; CLogger::getString
PUBLIC	?putQueue@CLogger@@QEAAXPEAD@Z			; CLogger::putQueue
PUBLIC	?_initCom@CLogger@@AEAAXPEAD000@Z		; CLogger::_initCom
PUBLIC	?_setHeaderFormat@CLogger@@AEAA_NH@Z		; CLogger::_setHeaderFormat
PUBLIC	?_setLoggerBasic@CLogger@@AEAAXHHH@Z		; CLogger::_setLoggerBasic
PUBLIC	?_setLoggerQueue@CLogger@@AEAA_NH@Z		; CLogger::_setLoggerQueue
PUBLIC	?setLogName@CLogger@@AEAAXPEAD@Z		; CLogger::setLogName
PUBLIC	?setDateTimeFormat@CLogger@@AEAAXPEAUSTLogDateTimeExp@@@Z ; CLogger::setDateTimeFormat
PUBLIC	?GetKeepInfo@CLogger@@AEAAHPEBD@Z		; CLogger::GetKeepInfo
PUBLIC	?checkDeleteProc@CLogger@@AEAAXXZ		; CLogger::checkDeleteProc
PUBLIC	?__openLogger@CLogger@@AEAAXPEBDH@Z		; CLogger::__openLogger
PUBLIC	?__autoclassinit2@CLogger@@QEAAX_K@Z		; CLogger::__autoclassinit2
PUBLIC	?changeToAbsolutePath@@YAXPEADPEBD@Z		; changeToAbsolutePath
PUBLIC	?changeToAbsolutePathFile@@YAXPEADPEBD@Z	; changeToAbsolutePathFile
PUBLIC	?GetProfilePath@@YAHPEBD00PEAD0@Z		; GetProfilePath
PUBLIC	?detachFullPath@@YAXPEBDPEAD1@Z			; detachFullPath
PUBLIC	?init@STDelInfo@@QEAAXPEAD_N1PEAX@Z		; STDelInfo::init
PUBLIC	??$__vcrt_va_start_verify_argument_type@PEBD@@YAXXZ ; __vcrt_va_start_verify_argument_type<char const * __ptr64>
PUBLIC	?_OptionsStorage@?1??__local_stdio_printf_options@@9@4_KA ; `__local_stdio_printf_options'::`2'::_OptionsStorage
PUBLIC	??_C@_0BD@KEHDJCKJ@ERROR?$CB?5?$FL?$CFs?3?$CFd?$FN?5?$CFs?6?$AA@ ; `string'
PUBLIC	?gs_cLogger@@3VCLogger@@A			; gs_cLogger
PUBLIC	?gs_DTEManager@@3VCTimeExpManager@@A		; gs_DTEManager
EXTRN	??2@YAPEAX_K@Z:PROC				; operator new
EXTRN	??3@YAXPEAX_K@Z:PROC				; operator delete
EXTRN	??_U@YAPEAX_K@Z:PROC				; operator new[]
EXTRN	??_V@YAXPEAX@Z:PROC				; operator delete[]
EXTRN	atexit:PROC
EXTRN	__report_rangecheckfailure:PROC
EXTRN	memset:PROC
EXTRN	strcpy:PROC
EXTRN	__imp__strdup:PROC
EXTRN	strlen:PROC
EXTRN	__imp__mbscmp:PROC
EXTRN	__imp__mbsnbcpy:PROC
EXTRN	__imp__mbsrchr:PROC
EXTRN	__imp___acrt_iob_func:PROC
EXTRN	__imp_fclose:PROC
EXTRN	__imp_fflush:PROC
EXTRN	__imp_fopen:PROC
EXTRN	__imp___stdio_common_vfprintf:PROC
EXTRN	__imp___stdio_common_vsprintf:PROC
EXTRN	__imp_GetPrivateProfileIntA:PROC
EXTRN	__imp_GetPrivateProfileStringA:PROC
EXTRN	__imp_free:PROC
EXTRN	__imp_malloc:PROC
EXTRN	__imp_atoi:PROC
EXTRN	__imp__time64:PROC
EXTRN	??0CQueueS@@QEAA@XZ:PROC			; CQueueS::CQueueS
EXTRN	??1CQueueS@@QEAA@XZ:PROC			; CQueueS::~CQueueS
EXTRN	?alloc@CQueueS@@QEAA_NHW4E_ALLOC_TYPE@@@Z:PROC	; CQueueS::alloc
EXTRN	?realloc@CQueueS@@QEAA_NH_N@Z:PROC		; CQueueS::realloc
EXTRN	?push@CQueueS@@QEAA_NPEAX@Z:PROC		; CQueueS::push
EXTRN	??0CFileTime@@QEAA@XZ:PROC			; CFileTime::CFileTime
EXTRN	??1CFileTime@@QEAA@XZ:PROC			; CFileTime::~CFileTime
EXTRN	?setFileTime@CFileTime@@QEAAHPEA_J@Z:PROC	; CFileTime::setFileTime
EXTRN	??0CDateTime@@QEAA@W4DT_TYPE@@W4TZ_TYPE@@@Z:PROC ; CDateTime::CDateTime
EXTRN	??1CDateTime@@QEAA@XZ:PROC			; CDateTime::~CDateTime
EXTRN	?SetSecondsValue@CDateTime@@QEAAXH@Z:PROC	; CDateTime::SetSecondsValue
EXTRN	?setString@CDateTime@@QEAAHPEAD0W4DT_FORMAT@@@Z:PROC ; CDateTime::setString
EXTRN	?__newBuf@CMemManager@@AEAAPEADH_K@Z:PROC	; CMemManager::__newBuf
EXTRN	??0CSList@@QEAA@XZ:PROC				; CSList::CSList
EXTRN	??1CSList@@QEAA@XZ:PROC				; CSList::~CSList
EXTRN	?push_back@CSList@@QEAA_NPEAXPEAH@Z:PROC	; CSList::push_back
EXTRN	?__alloc@CSList@@AEAAHH@Z:PROC			; CSList::__alloc
EXTRN	?filter_dateTimeCompare@@YA_NPEADPEAX1@Z:PROC	; filter_dateTimeCompare
EXTRN	?delDirectory@CFileUtil@@SAHPEAUSTDelInfo@@PEAUSTFilterData@@@Z:PROC ; CFileUtil::delDirectory
EXTRN	?MakeDirectory@CFileUtil@@SA_NPEBD@Z:PROC	; CFileUtil::MakeDirectory
EXTRN	?renameFile@CFileUtil@@SA_NPEBD0@Z:PROC		; CFileUtil::renameFile
EXTRN	?initSystem@CEnv@@SAHPEAD@Z:PROC		; CEnv::initSystem
EXTRN	_RTC_CheckStackVars:PROC
EXTRN	_RTC_InitBase:PROC
EXTRN	_RTC_Shutdown:PROC
EXTRN	__CxxFrameHandler3:PROC
EXTRN	__GSHandlerCheck:PROC
EXTRN	__GSHandlerCheck_EH:PROC
EXTRN	__chkstk:PROC
EXTRN	__security_check_cookie:PROC
EXTRN	?g_pWorkDir@@3PEADEA:QWORD			; g_pWorkDir
EXTRN	?g_szSystemError@@3PADA:BYTE			; g_szSystemError
EXTRN	?g_szMessage@@3PADA:BYTE			; g_szMessage
EXTRN	?gs_pMMgr@@3PEAVCMemManager@@EA:QWORD		; gs_pMMgr
EXTRN	?gs_today_time@@3USTTodayTime@@A:BYTE		; gs_today_time
EXTRN	__security_cookie:QWORD
EXTRN	_fltused:DWORD
;	COMDAT ?_OptionsStorage@?1??__local_stdio_printf_options@@9@4_KA
_BSS	SEGMENT
?_OptionsStorage@?1??__local_stdio_printf_options@@9@4_KA DQ 01H DUP (?) ; `__local_stdio_printf_options'::`2'::_OptionsStorage
_BSS	ENDS
_BSS	SEGMENT
?gs_cLogger@@3VCLogger@@A DB 0118H DUP (?)		; gs_cLogger
?gs_DTEManager@@3VCTimeExpManager@@A DQ 01H DUP (?)	; gs_DTEManager
_BSS	ENDS
;	COMDAT pdata
pdata	SEGMENT
$pdata$_tcsncpy DD imagerel $LN3
	DD	imagerel $LN3+67
	DD	imagerel $unwind$_tcsncpy
pdata	ENDS
;	COMDAT pdata
pdata	SEGMENT
$pdata$_tcsrchr DD imagerel $LN3
	DD	imagerel $LN3+55
	DD	imagerel $unwind$_tcsrchr
pdata	ENDS
;	COMDAT pdata
pdata	SEGMENT
$pdata$_tcscmp DD imagerel $LN3
	DD	imagerel $LN3+57
	DD	imagerel $unwind$_tcscmp
pdata	ENDS
;	COMDAT pdata
pdata	SEGMENT
$pdata$__local_stdio_printf_options DD imagerel $LN3
	DD	imagerel $LN3+11
	DD	imagerel $unwind$__local_stdio_printf_options
pdata	ENDS
;	COMDAT pdata
pdata	SEGMENT
$pdata$_vfprintf_l DD imagerel $LN3
	DD	imagerel $LN3+90
	DD	imagerel $unwind$_vfprintf_l
pdata	ENDS
;	COMDAT pdata
pdata	SEGMENT
$pdata$fprintf DD imagerel $LN3
	DD	imagerel $LN3+156
	DD	imagerel $unwind$fprintf
pdata	ENDS
;	COMDAT pdata
pdata	SEGMENT
$pdata$??$__vcrt_va_start_verify_argument_type@QEBD@@YAXXZ DD imagerel $LN3
	DD	imagerel $LN3+4
	DD	imagerel $unwind$??$__vcrt_va_start_verify_argument_type@QEBD@@YAXXZ
pdata	ENDS
;	COMDAT pdata
pdata	SEGMENT
$pdata$printf DD imagerel $LN3
	DD	imagerel $LN3+162
	DD	imagerel $unwind$printf
pdata	ENDS
;	COMDAT pdata
pdata	SEGMENT
$pdata$_vsnprintf_l DD imagerel $LN5
	DD	imagerel $LN5+140
	DD	imagerel $unwind$_vsnprintf_l
pdata	ENDS
;	COMDAT pdata
pdata	SEGMENT
$pdata$_vsnprintf DD imagerel $LN3
	DD	imagerel $LN3+84
	DD	imagerel $unwind$_vsnprintf
pdata	ENDS
;	COMDAT pdata
pdata	SEGMENT
$pdata$vsnprintf DD imagerel $LN5
	DD	imagerel $LN5+139
	DD	imagerel $unwind$vsnprintf
pdata	ENDS
;	COMDAT pdata
pdata	SEGMENT
$pdata$_vsprintf_l DD imagerel $LN3
	DD	imagerel $LN3+88
	DD	imagerel $unwind$_vsprintf_l
pdata	ENDS
;	COMDAT pdata
pdata	SEGMENT
$pdata$sprintf DD imagerel $LN3
	DD	imagerel $LN3+156
	DD	imagerel $unwind$sprintf
pdata	ENDS
pdata	SEGMENT
$pdata$time DD	imagerel time
	DD	imagerel time+47
	DD	imagerel $unwind$time
pdata	ENDS
;	COMDAT pdata
pdata	SEGMENT
$pdata$?ISINCLUDE@@YA_NHH@Z DD imagerel $LN4
	DD	imagerel $LN4+34
	DD	imagerel $unwind$?ISINCLUDE@@YA_NHH@Z
pdata	ENDS
;	COMDAT pdata
pdata	SEGMENT
$pdata$?comGlobalErrorProc@@YAXPEADPEBDH@Z DD imagerel $LN3
	DD	imagerel $LN3+97
	DD	imagerel $unwind$?comGlobalErrorProc@@YAXPEADPEBDH@Z
pdata	ENDS
;	COMDAT pdata
pdata	SEGMENT
$pdata$?capacity@CQueueS@@QEAAHXZ DD imagerel $LN3
	DD	imagerel $LN3+16
	DD	imagerel $unwind$?capacity@CQueueS@@QEAAHXZ
pdata	ENDS
;	COMDAT pdata
pdata	SEGMENT
$pdata$?TimezoneString@CDateTime@@QEAAPEBDXZ DD imagerel $LN3
	DD	imagerel $LN3+17
	DD	imagerel $unwind$?TimezoneString@CDateTime@@QEAAPEBDXZ
pdata	ENDS
;	COMDAT pdata
pdata	SEGMENT
$pdata$?getIndex@@YAHH@Z DD imagerel $LN5
	DD	imagerel $LN5+162
	DD	imagerel $unwind$?getIndex@@YAHH@Z
pdata	ENDS
;	COMDAT pdata
pdata	SEGMENT
$pdata$?newBuf@CMemManager@@QEAAPEADH@Z DD imagerel $LN3
	DD	imagerel $LN3+75
	DD	imagerel $unwind$?newBuf@CMemManager@@QEAAPEADH@Z
pdata	ENDS
;	COMDAT pdata
pdata	SEGMENT
$pdata$?alloc@CSList@@QEAAHHW4E_ALLOC_TYPE@@@Z DD imagerel $LN3
	DD	imagerel $LN3+87
	DD	imagerel $unwind$?alloc@CSList@@QEAAHHW4E_ALLOC_TYPE@@@Z
pdata	ENDS
;	COMDAT pdata
pdata	SEGMENT
$pdata$?getObj@CSList@@QEAAPEAXH@Z DD imagerel $LN4
	DD	imagerel $LN4+85
	DD	imagerel $unwind$?getObj@CSList@@QEAAPEAXH@Z
pdata	ENDS
;	COMDAT pdata
pdata	SEGMENT
$pdata$?__autoclassinit2@CSList@@QEAAX_K@Z DD imagerel $LN3
	DD	imagerel $LN3+27
	DD	imagerel $unwind$?__autoclassinit2@CSList@@QEAAX_K@Z
pdata	ENDS
;	COMDAT pdata
pdata	SEGMENT
$pdata$??_GCSList@@QEAAPEAXI@Z DD imagerel $LN4
	DD	imagerel $LN4+81
	DD	imagerel $unwind$??_GCSList@@QEAAPEAXI@Z
pdata	ENDS
pdata	SEGMENT
$pdata$??0CTimeExpManager@@QEAA@XZ DD imagerel $LN3
	DD	imagerel $LN3+25
	DD	imagerel $unwind$??0CTimeExpManager@@QEAA@XZ
$pdata$??1CTimeExpManager@@QEAA@XZ DD imagerel $LN6
	DD	imagerel $LN6+109
	DD	imagerel $unwind$??1CTimeExpManager@@QEAA@XZ
$pdata$?initConfig@CTimeExpManager@@QEAA_NPEAD@Z DD imagerel $LN13
	DD	imagerel $LN13+888
	DD	imagerel $unwind$?initConfig@CTimeExpManager@@QEAA_NPEAD@Z
pdata	ENDS
pdata	SEGMENT
$pdata$?dtor$0@?0??initConfig@CTimeExpManager@@QEAA_NPEAD@Z@4HA DD imagerel ?dtor$0@?0??initConfig@CTimeExpManager@@QEAA_NPEAD@Z@4HA
	DD	imagerel ?dtor$0@?0??initConfig@CTimeExpManager@@QEAA_NPEAD@Z@4HA+43
	DD	imagerel $unwind$?dtor$0@?0??initConfig@CTimeExpManager@@QEAA_NPEAD@Z@4HA
pdata	ENDS
pdata	SEGMENT
$pdata$?getDTE@CTimeExpManager@@QEAAPEAUSTLogDateTimeExp@@H@Z DD imagerel $LN4
	DD	imagerel $LN4+72
	DD	imagerel $unwind$?getDTE@CTimeExpManager@@QEAAPEAUSTLogDateTimeExp@@H@Z
pdata	ENDS
;	COMDAT pdata
pdata	SEGMENT
$pdata$?__autoclassinit2@CTimeExpManager@@QEAAX_K@Z DD imagerel $LN3
	DD	imagerel $LN3+27
	DD	imagerel $unwind$?__autoclassinit2@CTimeExpManager@@QEAAX_K@Z
pdata	ENDS
pdata	SEGMENT
$pdata$??0CLogger@@QEAA@XZ DD imagerel $LN4
	DD	imagerel $LN4+337
	DD	imagerel $unwind$??0CLogger@@QEAA@XZ
$pdata$??1CLogger@@QEAA@XZ DD imagerel $LN8
	DD	imagerel $LN8+340
	DD	imagerel $unwind$??1CLogger@@QEAA@XZ
$pdata$?initDefault@CLogger@@QEAA_NPEAD0HHH0@Z DD imagerel $LN9
	DD	imagerel $LN9+530
	DD	imagerel $unwind$?initDefault@CLogger@@QEAA_NPEAD0HHH0@Z
$pdata$?initConfig@CLogger@@QEAA?AW4E_LOG_INIT_RES@@PEAD0@Z DD imagerel $LN15
	DD	imagerel $LN15+1229
	DD	imagerel $unwind$?initConfig@CLogger@@QEAA?AW4E_LOG_INIT_RES@@PEAD0@Z
$pdata$?OpenLogger@CLogger@@QEAAXXZ DD imagerel $LN8
	DD	imagerel $LN8+431
	DD	imagerel $unwind$?OpenLogger@CLogger@@QEAAXXZ
pdata	ENDS
;	COMDAT pdata
pdata	SEGMENT
$pdata$?setLogFlag@CLogger@@QEAAXW4E_LOG_FLAG@@@Z DD imagerel $LN3
	DD	imagerel $LN3+40
	DD	imagerel $unwind$?setLogFlag@CLogger@@QEAAXW4E_LOG_FLAG@@@Z
pdata	ENDS
;	COMDAT pdata
pdata	SEGMENT
$pdata$?clearLogFlag@CLogger@@QEAAXW4E_LOG_FLAG@@@Z DD imagerel $LN3
	DD	imagerel $LN3+44
	DD	imagerel $unwind$?clearLogFlag@CLogger@@QEAAXW4E_LOG_FLAG@@@Z
pdata	ENDS
;	COMDAT pdata
pdata	SEGMENT
$pdata$?isLogFlag@CLogger@@QEAA_NW4E_LOG_FLAG@@@Z DD imagerel $LN5
	DD	imagerel $LN5+75
	DD	imagerel $unwind$?isLogFlag@CLogger@@QEAA_NW4E_LOG_FLAG@@@Z
pdata	ENDS
pdata	SEGMENT
$pdata$?setHeader@CLogger@@QEAAHPEADH@Z DD imagerel $LN6
	DD	imagerel $LN6+453
	DD	imagerel $unwind$?setHeader@CLogger@@QEAAHPEADH@Z
pdata	ENDS
pdata	SEGMENT
$pdata$?dtor$0@?0??setHeader@CLogger@@QEAAHPEADH@Z@4HA DD imagerel ?dtor$0@?0??setHeader@CLogger@@QEAAHPEADH@Z@4HA
	DD	imagerel ?dtor$0@?0??setHeader@CLogger@@QEAAHPEADH@Z@4HA+35
	DD	imagerel $unwind$?dtor$0@?0??setHeader@CLogger@@QEAAHPEADH@Z@4HA
pdata	ENDS
pdata	SEGMENT
$pdata$?PutLogQueue@CLogger@@QEAAXHPEBDZZ DD imagerel $LN5
	DD	imagerel $LN5+411
	DD	imagerel $unwind$?PutLogQueue@CLogger@@QEAAXHPEBDZZ
$pdata$?PutLogQueue@CLogger@@QEAAXHPEAD@Z DD imagerel $LN5
	DD	imagerel $LN5+370
	DD	imagerel $unwind$?PutLogQueue@CLogger@@QEAAXHPEAD@Z
$pdata$?Log@CLogger@@QEAAXHPEBD00_N@Z DD imagerel $LN9
	DD	imagerel $LN9+674
	DD	imagerel $unwind$?Log@CLogger@@QEAAXHPEBD00_N@Z
$pdata$?LogPrint@CLogger@@QEAAXPEAD@Z DD imagerel $LN7
	DD	imagerel $LN7+182
	DD	imagerel $unwind$?LogPrint@CLogger@@QEAAXPEAD@Z
$pdata$?LogPrint@CLogger@@QEAAXHPEBDZZ DD imagerel $LN5
	DD	imagerel $LN5+411
	DD	imagerel $unwind$?LogPrint@CLogger@@QEAAXHPEBDZZ
$pdata$?WritePacket@CLogger@@QEAAXHHHPEADH@Z DD imagerel $LN9
	DD	imagerel $LN9+674
	DD	imagerel $unwind$?WritePacket@CLogger@@QEAAXHHHPEADH@Z
$pdata$?disable@CLogger@@QEAAXXZ DD imagerel $LN4
	DD	imagerel $LN4+115
	DD	imagerel $unwind$?disable@CLogger@@QEAAXXZ
$pdata$?checkChangeProc@CLogger@@QEAAXH@Z DD imagerel $LN10
	DD	imagerel $LN10+585
	DD	imagerel $unwind$?checkChangeProc@CLogger@@QEAAXH@Z
$pdata$?__debugLog@CLogger@@QEAAXHPEBDH0ZZ DD imagerel $LN5
	DD	imagerel $LN5+440
	DD	imagerel $unwind$?__debugLog@CLogger@@QEAAXHPEBDH0ZZ
$pdata$?getString@CLogger@@QEAAHPEAD@Z DD imagerel $LN10
	DD	imagerel $LN10+688
	DD	imagerel $unwind$?getString@CLogger@@QEAAHPEAD@Z
pdata	ENDS
pdata	SEGMENT
$pdata$?dtor$0@?0??getString@CLogger@@QEAAHPEAD@Z@4HA DD imagerel ?dtor$0@?0??getString@CLogger@@QEAAHPEAD@Z@4HA
	DD	imagerel ?dtor$0@?0??getString@CLogger@@QEAAHPEAD@Z@4HA+38
	DD	imagerel $unwind$?dtor$0@?0??getString@CLogger@@QEAAHPEAD@Z@4HA
pdata	ENDS
;	COMDAT pdata
pdata	SEGMENT
$pdata$?putQueue@CLogger@@QEAAXPEAD@Z DD imagerel $LN4
	DD	imagerel $LN4+90
	DD	imagerel $unwind$?putQueue@CLogger@@QEAAXPEAD@Z
pdata	ENDS
pdata	SEGMENT
$pdata$?_initCom@CLogger@@AEAAXPEAD000@Z DD imagerel $LN12
	DD	imagerel $LN12+449
	DD	imagerel $unwind$?_initCom@CLogger@@AEAAXPEAD000@Z
$pdata$?_setHeaderFormat@CLogger@@AEAA_NH@Z DD imagerel $LN6
	DD	imagerel $LN6+177
	DD	imagerel $unwind$?_setHeaderFormat@CLogger@@AEAA_NH@Z
$pdata$?_setLoggerBasic@CLogger@@AEAAXHHH@Z DD imagerel $LN12
	DD	imagerel $LN12+380
	DD	imagerel $unwind$?_setLoggerBasic@CLogger@@AEAAXHHH@Z
$pdata$?_setLoggerQueue@CLogger@@AEAA_NH@Z DD imagerel $LN8
	DD	imagerel $LN8+236
	DD	imagerel $unwind$?_setLoggerQueue@CLogger@@AEAA_NH@Z
$pdata$?setLogName@CLogger@@AEAAXPEAD@Z DD imagerel $LN8
	DD	imagerel $LN8+369
	DD	imagerel $unwind$?setLogName@CLogger@@AEAAXPEAD@Z
$pdata$?setDateTimeFormat@CLogger@@AEAAXPEAUSTLogDateTimeExp@@@Z DD imagerel $LN30
	DD	imagerel $LN30+981
	DD	imagerel $unwind$?setDateTimeFormat@CLogger@@AEAAXPEAUSTLogDateTimeExp@@@Z
$pdata$?GetKeepInfo@CLogger@@AEAAHPEBD@Z DD imagerel $LN23
	DD	imagerel $LN23+498
	DD	imagerel $unwind$?GetKeepInfo@CLogger@@AEAAHPEBD@Z
$pdata$?checkDeleteProc@CLogger@@AEAAXXZ DD imagerel $LN5
	DD	imagerel $LN5+344
	DD	imagerel $unwind$?checkDeleteProc@CLogger@@AEAAXXZ
pdata	ENDS
pdata	SEGMENT
$pdata$?dtor$0@?0??checkDeleteProc@CLogger@@AEAAXXZ@4HA DD imagerel ?dtor$0@?0??checkDeleteProc@CLogger@@AEAAXXZ@4HA
	DD	imagerel ?dtor$0@?0??checkDeleteProc@CLogger@@AEAAXXZ@4HA+35
	DD	imagerel $unwind$?dtor$0@?0??checkDeleteProc@CLogger@@AEAAXXZ@4HA
pdata	ENDS
pdata	SEGMENT
$pdata$?__openLogger@CLogger@@AEAAXPEBDH@Z DD imagerel $LN10
	DD	imagerel $LN10+497
	DD	imagerel $unwind$?__openLogger@CLogger@@AEAAXPEBDH@Z
pdata	ENDS
;	COMDAT pdata
pdata	SEGMENT
$pdata$?__autoclassinit2@CLogger@@QEAAX_K@Z DD imagerel $LN3
	DD	imagerel $LN3+27
	DD	imagerel $unwind$?__autoclassinit2@CLogger@@QEAAX_K@Z
pdata	ENDS
pdata	SEGMENT
$pdata$?changeToAbsolutePath@@YAXPEADPEBD@Z DD imagerel $LN10
	DD	imagerel $LN10+423
	DD	imagerel $unwind$?changeToAbsolutePath@@YAXPEADPEBD@Z
$pdata$?changeToAbsolutePathFile@@YAXPEADPEBD@Z DD imagerel $LN7
	DD	imagerel $LN7+323
	DD	imagerel $unwind$?changeToAbsolutePathFile@@YAXPEADPEBD@Z
$pdata$?GetProfilePath@@YAHPEBD00PEAD0@Z DD imagerel $LN8
	DD	imagerel $LN8+334
	DD	imagerel $unwind$?GetProfilePath@@YAHPEBD00PEAD0@Z
$pdata$?detachFullPath@@YAXPEBDPEAD1@Z DD imagerel $LN3
	DD	imagerel $LN3+150
	DD	imagerel $unwind$?detachFullPath@@YAXPEBDPEAD1@Z
pdata	ENDS
;	COMDAT pdata
pdata	SEGMENT
$pdata$?init@STDelInfo@@QEAAXPEAD_N1PEAX@Z DD imagerel $LN5
	DD	imagerel $LN5+111
	DD	imagerel $unwind$?init@STDelInfo@@QEAAXPEAD_N1PEAX@Z
pdata	ENDS
;	COMDAT pdata
pdata	SEGMENT
$pdata$??__Egs_cLogger@@YAXXZ DD imagerel ??__Egs_cLogger@@YAXXZ
	DD	imagerel ??__Egs_cLogger@@YAXXZ+68
	DD	imagerel $unwind$??__Egs_cLogger@@YAXXZ
pdata	ENDS
;	COMDAT pdata
pdata	SEGMENT
$pdata$??__Fgs_cLogger@@YAXXZ DD imagerel ??__Fgs_cLogger@@YAXXZ
	DD	imagerel ??__Fgs_cLogger@@YAXXZ+39
	DD	imagerel $unwind$??__Fgs_cLogger@@YAXXZ
pdata	ENDS
;	COMDAT pdata
pdata	SEGMENT
$pdata$??__Egs_DTEManager@@YAXXZ DD imagerel ??__Egs_DTEManager@@YAXXZ
	DD	imagerel ??__Egs_DTEManager@@YAXXZ+68
	DD	imagerel $unwind$??__Egs_DTEManager@@YAXXZ
pdata	ENDS
;	COMDAT pdata
pdata	SEGMENT
$pdata$??__Fgs_DTEManager@@YAXXZ DD imagerel ??__Fgs_DTEManager@@YAXXZ
	DD	imagerel ??__Fgs_DTEManager@@YAXXZ+39
	DD	imagerel $unwind$??__Fgs_DTEManager@@YAXXZ
pdata	ENDS
;	COMDAT pdata
pdata	SEGMENT
$pdata$??$__vcrt_va_start_verify_argument_type@PEBD@@YAXXZ DD imagerel $LN3
	DD	imagerel $LN3+4
	DD	imagerel $unwind$??$__vcrt_va_start_verify_argument_type@PEBD@@YAXXZ
pdata	ENDS
CRT$XCU	SEGMENT
?gs_cLogger$initializer$@@3P6AXXZEA DQ FLAT:??__Egs_cLogger@@YAXXZ ; gs_cLogger$initializer$
CRT$XCU	ENDS
;	COMDAT rtc$TMZ
rtc$TMZ	SEGMENT
_RTC_Shutdown.rtc$TMZ DQ FLAT:_RTC_Shutdown
rtc$TMZ	ENDS
;	COMDAT rtc$IMZ
rtc$IMZ	SEGMENT
_RTC_InitBase.rtc$IMZ DQ FLAT:_RTC_InitBase
rtc$IMZ	ENDS
;	COMDAT ??_C@_0BD@KEHDJCKJ@ERROR?$CB?5?$FL?$CFs?3?$CFd?$FN?5?$CFs?6?$AA@
CONST	SEGMENT
??_C@_0BD@KEHDJCKJ@ERROR?$CB?5?$FL?$CFs?3?$CFd?$FN?5?$CFs?6?$AA@ DB 'ERRO'
	DB	'R! [%s:%d] %s', 0aH, 00H			; `string'
CONST	ENDS
;	COMDAT xdata
xdata	SEGMENT
$unwind$??$__vcrt_va_start_verify_argument_type@PEBD@@YAXXZ DD 010201H
	DD	07002H
xdata	ENDS
;	COMDAT xdata
xdata	SEGMENT
$unwind$??__Fgs_DTEManager@@YAXXZ DD 021501H
	DD	070023206H
xdata	ENDS
;	COMDAT xdata
xdata	SEGMENT
$unwind$??__Egs_DTEManager@@YAXXZ DD 021501H
	DD	070023206H
xdata	ENDS
;	COMDAT xdata
xdata	SEGMENT
$unwind$??__Fgs_cLogger@@YAXXZ DD 021501H
	DD	070023206H
xdata	ENDS
;	COMDAT xdata
xdata	SEGMENT
$unwind$??__Egs_cLogger@@YAXXZ DD 021501H
	DD	070023206H
xdata	ENDS
;	COMDAT xdata
xdata	SEGMENT
$unwind$?init@STDelInfo@@QEAAXPEAD_N1PEAX@Z DD 011501H
	DD	07015H
xdata	ENDS
;	COMDAT xdata
xdata	SEGMENT
$unwind$?__autoclassinit2@CLogger@@QEAAX_K@Z DD 010b01H
	DD	0700bH
xdata	ENDS
;	COMDAT xdata
xdata	SEGMENT
$unwind$?putQueue@CLogger@@QEAAXPEAD@Z DD 022301H
	DD	0700b320fH
xdata	ENDS
;	COMDAT xdata
xdata	SEGMENT
$unwind$?isLogFlag@CLogger@@QEAA_NW4E_LOG_FLAG@@@Z DD 022201H
	DD	0700a120eH
xdata	ENDS
;	COMDAT xdata
xdata	SEGMENT
$unwind$?clearLogFlag@CLogger@@QEAAXW4E_LOG_FLAG@@@Z DD 010a01H
	DD	0700aH
xdata	ENDS
;	COMDAT xdata
xdata	SEGMENT
$unwind$?setLogFlag@CLogger@@QEAAXW4E_LOG_FLAG@@@Z DD 010a01H
	DD	0700aH
xdata	ENDS
;	COMDAT xdata
xdata	SEGMENT
$unwind$?__autoclassinit2@CTimeExpManager@@QEAAX_K@Z DD 010b01H
	DD	0700bH
xdata	ENDS
CONST	SEGMENT
	ORG $+7
?initConfig@CTimeExpManager@@QEAA_NPEAD@Z$rtcName$0 DB 073H ; CTimeExpManager::initConfig
	DB	07aH
	DB	053H
	DB	065H
	DB	063H
	DB	074H
	DB	069H
	DB	06fH
	DB	06eH
	DB	00H
	ORG $+6
?initConfig@CTimeExpManager@@QEAA_NPEAD@Z$rtcVarDesc DD 030H ; CTimeExpManager::initConfig
	DD	040H
	DQ	FLAT:?initConfig@CTimeExpManager@@QEAA_NPEAD@Z$rtcName$0
	ORG $+48
?initConfig@CTimeExpManager@@QEAA_NPEAD@Z$rtcFrameData DD 01H ; CTimeExpManager::initConfig
	DD	00H
	DQ	FLAT:?initConfig@CTimeExpManager@@QEAA_NPEAD@Z$rtcVarDesc
$cppxdata$?initConfig@CTimeExpManager@@QEAA_NPEAD@Z DD 019930522H
	DD	01H
	DD	imagerel $stateUnwindMap$?initConfig@CTimeExpManager@@QEAA_NPEAD@Z
	DD	00H
	DD	00H
	DD	03H
	DD	imagerel $ip2state$?initConfig@CTimeExpManager@@QEAA_NPEAD@Z
	DD	0a8H
	DD	00H
	DD	01H
$cppxdata$??1CLogger@@QEAA@XZ DD 019930522H
	DD	00H
	DD	00H
	DD	00H
	DD	00H
	DD	01H
	DD	imagerel $ip2state$??1CLogger@@QEAA@XZ
	DD	038H
	DD	00H
	DD	05H
?initDefault@CLogger@@QEAA_NPEAD0HHH0@Z$rtcName$0 DB 073H ; CLogger::initDefault
	DB	07aH
	DB	056H
	DB	061H
	DB	06cH
	DB	075H
	DB	065H
	DB	00H
?initDefault@CLogger@@QEAA_NPEAD0HHH0@Z$rtcName$1 DB 073H ; CLogger::initDefault
	DB	07aH
	DB	056H
	DB	061H
	DB	06cH
	DB	075H
	DB	065H
	DB	032H
	DB	00H
	ORG $+7
?initDefault@CLogger@@QEAA_NPEAD0HHH0@Z$rtcFrameData DD 02H ; CLogger::initDefault
	DD	00H
	DQ	FLAT:?initDefault@CLogger@@QEAA_NPEAD0HHH0@Z$rtcVarDesc
?initConfig@CLogger@@QEAA?AW4E_LOG_INIT_RES@@PEAD0@Z$rtcName$0 DB 073H ; CLogger::initConfig
	DB	07aH
	DB	056H
	DB	061H
	DB	06cH
	DB	075H
	DB	065H
	DB	00H
?initDefault@CLogger@@QEAA_NPEAD0HHH0@Z$rtcVarDesc DD 0e0H ; CLogger::initDefault
	DD	080H
	DQ	FLAT:?initDefault@CLogger@@QEAA_NPEAD0HHH0@Z$rtcName$1
	DD	040H
	DD	080H
	DQ	FLAT:?initDefault@CLogger@@QEAA_NPEAD0HHH0@Z$rtcName$0
	ORG $+96
?initConfig@CLogger@@QEAA?AW4E_LOG_INIT_RES@@PEAD0@Z$rtcName$1 DB 073H ; CLogger::initConfig
	DB	07aH
	DB	056H
	DB	061H
	DB	06cH
	DB	075H
	DB	065H
	DB	032H
	DB	00H
	ORG $+3
?OpenLogger@CLogger@@QEAAXXZ$rtcName$0 DB 073H		; CLogger::OpenLogger
	DB	07aH
	DB	042H
	DB	075H
	DB	066H
	DB	00H
	ORG $+2
?PutLogQueue@CLogger@@QEAAXHPEBDZZ$rtcName$0 DB 06dH	; CLogger::PutLogQueue
	DB	073H
	DB	067H
	DB	042H
	DB	075H
	DB	066H
	DB	00H
	ORG $+1
?PutLogQueue@CLogger@@QEAAXHPEBDZZ$rtcName$2 DB 061H	; CLogger::PutLogQueue
	DB	070H
	DB	00H
	ORG $+1
?initConfig@CLogger@@QEAA?AW4E_LOG_INIT_RES@@PEAD0@Z$rtcName$2 DB 073H ; CLogger::initConfig
	DB	07aH
	DB	056H
	DB	061H
	DB	06cH
	DB	075H
	DB	065H
	DB	033H
	DB	00H
	ORG $+3
?PutLogQueue@CLogger@@QEAAXHPEBDZZ$rtcName$1 DB 068H	; CLogger::PutLogQueue
	DB	065H
	DB	061H
	DB	064H
	DB	065H
	DB	072H
	DB	00H
	ORG $+1
?LogPrint@CLogger@@QEAAXHPEBDZZ$rtcName$2 DB 061H	; CLogger::LogPrint
	DB	070H
	DB	00H
	ORG $+1
?initConfig@CLogger@@QEAA?AW4E_LOG_INIT_RES@@PEAD0@Z$rtcName$3 DB 073H ; CLogger::initConfig
	DB	07aH
	DB	056H
	DB	061H
	DB	06cH
	DB	075H
	DB	065H
	DB	034H
	DB	00H
	ORG $+7
?initConfig@CLogger@@QEAA?AW4E_LOG_INIT_RES@@PEAD0@Z$rtcFrameData DD 04H ; CLogger::initConfig
	DD	00H
	DQ	FLAT:?initConfig@CLogger@@QEAA?AW4E_LOG_INIT_RES@@PEAD0@Z$rtcVarDesc
$cppxdata$?setHeader@CLogger@@QEAAHPEADH@Z DD 019930522H
	DD	01H
	DD	imagerel $stateUnwindMap$?setHeader@CLogger@@QEAAHPEADH@Z
	DD	00H
	DD	00H
	DD	03H
	DD	imagerel $ip2state$?setHeader@CLogger@@QEAAHPEADH@Z
	DD	0b8H
	DD	00H
	DD	01H
?initConfig@CLogger@@QEAA?AW4E_LOG_INIT_RES@@PEAD0@Z$rtcVarDesc DD 01a8H ; CLogger::initConfig
	DD	08H
	DQ	FLAT:?initConfig@CLogger@@QEAA?AW4E_LOG_INIT_RES@@PEAD0@Z$rtcName$3
	DD	0188H
	DD	08H
	DQ	FLAT:?initConfig@CLogger@@QEAA?AW4E_LOG_INIT_RES@@PEAD0@Z$rtcName$2
	DD	0f0H
	DD	080H
	DQ	FLAT:?initConfig@CLogger@@QEAA?AW4E_LOG_INIT_RES@@PEAD0@Z$rtcName$1
	DD	050H
	DD	080H
	DQ	FLAT:?initConfig@CLogger@@QEAA?AW4E_LOG_INIT_RES@@PEAD0@Z$rtcName$0
	ORG $+192
?OpenLogger@CLogger@@QEAAXXZ$rtcVarDesc DD 050H		; CLogger::OpenLogger
	DD	080H
	DQ	FLAT:?OpenLogger@CLogger@@QEAAXXZ$rtcName$0
	ORG $+48
?OpenLogger@CLogger@@QEAAXXZ$rtcFrameData DD 01H	; CLogger::OpenLogger
	DD	00H
	DQ	FLAT:?OpenLogger@CLogger@@QEAAXXZ$rtcVarDesc
?setHeader@CLogger@@QEAAHPEADH@Z$rtcName$0 DB 063H	; CLogger::setHeader
	DB	044H
	DB	061H
	DB	074H
	DB	065H
	DB	054H
	DB	069H
	DB	06dH
	DB	065H
	DB	00H
	ORG $+6
?setHeader@CLogger@@QEAAHPEADH@Z$rtcVarDesc DD 030H	; CLogger::setHeader
	DD	068H
	DQ	FLAT:?setHeader@CLogger@@QEAAHPEADH@Z$rtcName$0
	ORG $+48
?setHeader@CLogger@@QEAAHPEADH@Z$rtcFrameData DD 01H	; CLogger::setHeader
	DD	00H
	DQ	FLAT:?setHeader@CLogger@@QEAAHPEADH@Z$rtcVarDesc
?PutLogQueue@CLogger@@QEAAXHPEBDZZ$rtcVarDesc DD 02278H	; CLogger::PutLogQueue
	DD	08H
	DQ	FLAT:?PutLogQueue@CLogger@@QEAAXHPEBDZZ$rtcName$2
	DD	02060H
	DD	0200H
	DQ	FLAT:?PutLogQueue@CLogger@@QEAAXHPEBDZZ$rtcName$1
	DD	040H
	DD	02000H
	DQ	FLAT:?PutLogQueue@CLogger@@QEAAXHPEBDZZ$rtcName$0
	ORG $+144
?PutLogQueue@CLogger@@QEAAXHPEBDZZ$rtcFrameData DD 03H	; CLogger::PutLogQueue
	DD	00H
	DQ	FLAT:?PutLogQueue@CLogger@@QEAAXHPEBDZZ$rtcVarDesc
?PutLogQueue@CLogger@@QEAAXHPEAD@Z$rtcName$0 DB 068H	; CLogger::PutLogQueue
	DB	065H
	DB	061H
	DB	064H
	DB	065H
	DB	072H
	DB	00H
	ORG $+1
?PutLogQueue@CLogger@@QEAAXHPEAD@Z$rtcFrameData DD 01H	; CLogger::PutLogQueue
	DD	00H
	DQ	FLAT:?PutLogQueue@CLogger@@QEAAXHPEAD@Z$rtcVarDesc
?LogPrint@CLogger@@QEAAXHPEBDZZ$rtcName$0 DB 06dH	; CLogger::LogPrint
	DB	073H
	DB	067H
	DB	042H
	DB	075H
	DB	066H
	DB	00H
	ORG $+1
?PutLogQueue@CLogger@@QEAAXHPEAD@Z$rtcVarDesc DD 030H	; CLogger::PutLogQueue
	DD	0200H
	DQ	FLAT:?PutLogQueue@CLogger@@QEAAXHPEAD@Z$rtcName$0
	ORG $+48
?Log@CLogger@@QEAAXHPEBD00_N@Z$rtcName$0 DB 068H	; CLogger::Log
	DB	065H
	DB	061H
	DB	064H
	DB	065H
	DB	072H
	DB	042H
	DB	075H
	DB	066H
	DB	00H
	ORG $+6
?Log@CLogger@@QEAAXHPEBD00_N@Z$rtcVarDesc DD 040H	; CLogger::Log
	DD	02000H
	DQ	FLAT:?Log@CLogger@@QEAAXHPEBD00_N@Z$rtcName$0
	ORG $+48
?Log@CLogger@@QEAAXHPEBD00_N@Z$rtcFrameData DD 01H	; CLogger::Log
	DD	00H
	DQ	FLAT:?Log@CLogger@@QEAAXHPEBD00_N@Z$rtcVarDesc
?LogPrint@CLogger@@QEAAXHPEBDZZ$rtcName$1 DB 068H	; CLogger::LogPrint
	DB	065H
	DB	061H
	DB	064H
	DB	065H
	DB	072H
	DB	00H
	ORG $+1
?LogPrint@CLogger@@QEAAXHPEBDZZ$rtcFrameData DD 03H	; CLogger::LogPrint
	DD	00H
	DQ	FLAT:?LogPrint@CLogger@@QEAAXHPEBDZZ$rtcVarDesc
?WritePacket@CLogger@@QEAAXHHHPEADH@Z$rtcName$0 DB 068H	; CLogger::WritePacket
	DB	065H
	DB	061H
	DB	064H
	DB	065H
	DB	072H
	DB	00H
	ORG $+1
?LogPrint@CLogger@@QEAAXHPEBDZZ$rtcVarDesc DD 02278H	; CLogger::LogPrint
	DD	08H
	DQ	FLAT:?LogPrint@CLogger@@QEAAXHPEBDZZ$rtcName$2
	DD	02060H
	DD	0200H
	DQ	FLAT:?LogPrint@CLogger@@QEAAXHPEBDZZ$rtcName$1
	DD	040H
	DD	02000H
	DQ	FLAT:?LogPrint@CLogger@@QEAAXHPEBDZZ$rtcName$0
	ORG $+144
?WritePacket@CLogger@@QEAAXHHHPEADH@Z$rtcName$1 DB 066H	; CLogger::WritePacket
	DB	06dH
	DB	074H
	DB	053H
	DB	074H
	DB	072H
	DB	00H
	ORG $+1
?WritePacket@CLogger@@QEAAXHHHPEADH@Z$rtcFrameData DD 02H ; CLogger::WritePacket
	DD	00H
	DQ	FLAT:?WritePacket@CLogger@@QEAAXHHHPEADH@Z$rtcVarDesc
?checkChangeProc@CLogger@@QEAAXH@Z$rtcName$0 DB 073H	; CLogger::checkChangeProc
	DB	07aH
	DB	046H
	DB	069H
	DB	06cH
	DB	065H
	DB	00H
	ORG $+1
?WritePacket@CLogger@@QEAAXHHHPEADH@Z$rtcVarDesc DD 098H ; CLogger::WritePacket
	DD	028H
	DQ	FLAT:?WritePacket@CLogger@@QEAAXHHHPEADH@Z$rtcName$1
	DD	040H
	DD	040H
	DQ	FLAT:?WritePacket@CLogger@@QEAAXHHHPEADH@Z$rtcName$0
	ORG $+96
?checkChangeProc@CLogger@@QEAAXH@Z$rtcVarDesc DD 050H	; CLogger::checkChangeProc
	DD	0200H
	DQ	FLAT:?checkChangeProc@CLogger@@QEAAXH@Z$rtcName$0
	ORG $+48
?checkChangeProc@CLogger@@QEAAXH@Z$rtcFrameData DD 01H	; CLogger::checkChangeProc
	DD	00H
	DQ	FLAT:?checkChangeProc@CLogger@@QEAAXH@Z$rtcVarDesc
?__debugLog@CLogger@@QEAAXHPEBDH0ZZ$rtcName$0 DB 06dH	; CLogger::__debugLog
	DB	073H
	DB	067H
	DB	042H
	DB	075H
	DB	066H
	DB	00H
	ORG $+1
?__debugLog@CLogger@@QEAAXHPEBDH0ZZ$rtcName$1 DB 068H	; CLogger::__debugLog
	DB	065H
	DB	061H
	DB	064H
	DB	065H
	DB	072H
	DB	00H
	ORG $+1
?__debugLog@CLogger@@QEAAXHPEBDH0ZZ$rtcName$2 DB 061H	; CLogger::__debugLog
	DB	070H
	DB	00H
	ORG $+5
?__debugLog@CLogger@@QEAAXHPEBDH0ZZ$rtcFrameData DD 03H	; CLogger::__debugLog
	DD	00H
	DQ	FLAT:?__debugLog@CLogger@@QEAAXHPEBDH0ZZ$rtcVarDesc
?getString@CLogger@@QEAAHPEAD@Z$rtcName$0 DB 073H	; CLogger::getString
	DB	07aH
	DB	042H
	DB	075H
	DB	066H
	DB	00H
	ORG $+2
?__debugLog@CLogger@@QEAAXHPEBDH0ZZ$rtcVarDesc DD 02288H ; CLogger::__debugLog
	DD	08H
	DQ	FLAT:?__debugLog@CLogger@@QEAAXHPEBDH0ZZ$rtcName$2
	DD	02070H
	DD	0200H
	DQ	FLAT:?__debugLog@CLogger@@QEAAXHPEBDH0ZZ$rtcName$1
	DD	050H
	DD	02000H
	DQ	FLAT:?__debugLog@CLogger@@QEAAXHPEBDH0ZZ$rtcName$0
	ORG $+144
?getString@CLogger@@QEAAHPEAD@Z$rtcName$1 DB 063H	; CLogger::getString
	DB	044H
	DB	061H
	DB	074H
	DB	065H
	DB	054H
	DB	069H
	DB	06dH
	DB	065H
	DB	00H
	ORG $+6
?getString@CLogger@@QEAAHPEAD@Z$rtcVarDesc DD 0b0H	; CLogger::getString
	DD	068H
	DQ	FLAT:?getString@CLogger@@QEAAHPEAD@Z$rtcName$1
	DD	050H
	DD	040H
	DQ	FLAT:?getString@CLogger@@QEAAHPEAD@Z$rtcName$0
	ORG $+96
?getString@CLogger@@QEAAHPEAD@Z$rtcFrameData DD 02H	; CLogger::getString
	DD	00H
	DQ	FLAT:?getString@CLogger@@QEAAHPEAD@Z$rtcVarDesc
$cppxdata$?getString@CLogger@@QEAAHPEAD@Z DD 019930522H
	DD	01H
	DD	imagerel $stateUnwindMap$?getString@CLogger@@QEAAHPEAD@Z
	DD	00H
	DD	00H
	DD	03H
	DD	imagerel $ip2state$?getString@CLogger@@QEAAHPEAD@Z
	DD	0138H
	DD	00H
	DD	01H
?setLogName@CLogger@@AEAAXPEAD@Z$rtcName$0 DB 073H	; CLogger::setLogName
	DB	07aH
	DB	042H
	DB	075H
	DB	066H
	DB	00H
	ORG $+2
?setLogName@CLogger@@AEAAXPEAD@Z$rtcVarDesc DD 050H	; CLogger::setLogName
	DD	080H
	DQ	FLAT:?setLogName@CLogger@@AEAAXPEAD@Z$rtcName$0
	ORG $+48
?setLogName@CLogger@@AEAAXPEAD@Z$rtcFrameData DD 01H	; CLogger::setLogName
	DD	00H
	DQ	FLAT:?setLogName@CLogger@@AEAAXPEAD@Z$rtcVarDesc
?GetKeepInfo@CLogger@@AEAAHPEBD@Z$rtcName$0 DB 073H	; CLogger::GetKeepInfo
	DB	07aH
	DB	042H
	DB	075H
	DB	066H
	DB	00H
	ORG $+2
?GetKeepInfo@CLogger@@AEAAHPEBD@Z$rtcFrameData DD 01H	; CLogger::GetKeepInfo
	DD	00H
	DQ	FLAT:?GetKeepInfo@CLogger@@AEAAHPEBD@Z$rtcVarDesc
?checkDeleteProc@CLogger@@AEAAXXZ$rtcName$0 DB 062H	; CLogger::checkDeleteProc
	DB	061H
	DB	073H
	DB	069H
	DB	063H
	DB	00H
	ORG $+2
?GetKeepInfo@CLogger@@AEAAHPEBD@Z$rtcVarDesc DD 028H	; CLogger::GetKeepInfo
	DD	020H
	DQ	FLAT:?GetKeepInfo@CLogger@@AEAAHPEBD@Z$rtcName$0
	ORG $+48
?checkDeleteProc@CLogger@@AEAAXXZ$rtcName$1 DB 063H	; CLogger::checkDeleteProc
	DB	046H
	DB	069H
	DB	06cH
	DB	065H
	DB	054H
	DB	069H
	DB	06dH
	DB	065H
	DB	00H
	ORG $+6
?checkDeleteProc@CLogger@@AEAAXXZ$rtcName$2 DB 073H	; CLogger::checkDeleteProc
	DB	074H
	DB	044H
	DB	065H
	DB	06cH
	DB	049H
	DB	06eH
	DB	066H
	DB	06fH
	DB	00H
	ORG $+6
?checkDeleteProc@CLogger@@AEAAXXZ$rtcName$3 DB 073H	; CLogger::checkDeleteProc
	DB	074H
	DB	046H
	DB	069H
	DB	06cH
	DB	074H
	DB	065H
	DB	072H
	DB	00H
	ORG $+3
?changeToAbsolutePath@@YAXPEADPEBD@Z$rtcName$0 DB 073H	; changeToAbsolutePath
	DB	07aH
	DB	042H
	DB	075H
	DB	066H
	DB	00H
	ORG $+6
?checkDeleteProc@CLogger@@AEAAXXZ$rtcFrameData DD 04H	; CLogger::checkDeleteProc
	DD	00H
	DQ	FLAT:?checkDeleteProc@CLogger@@AEAAXXZ$rtcVarDesc
$cppxdata$?checkDeleteProc@CLogger@@AEAAXXZ DD 019930522H
	DD	01H
	DD	imagerel $stateUnwindMap$?checkDeleteProc@CLogger@@AEAAXXZ
	DD	00H
	DD	00H
	DD	03H
	DD	imagerel $ip2state$?checkDeleteProc@CLogger@@AEAAXXZ
	DD	0e0H
	DD	00H
	DD	01H
?checkDeleteProc@CLogger@@AEAAXXZ$rtcVarDesc DD 0b8H	; CLogger::checkDeleteProc
	DD	010H
	DQ	FLAT:?checkDeleteProc@CLogger@@AEAAXXZ$rtcName$3
	DD	088H
	DD	018H
	DQ	FLAT:?checkDeleteProc@CLogger@@AEAAXXZ$rtcName$2
	DD	068H
	DD	08H
	DQ	FLAT:?checkDeleteProc@CLogger@@AEAAXXZ$rtcName$1
	DD	048H
	DD	08H
	DQ	FLAT:?checkDeleteProc@CLogger@@AEAAXXZ$rtcName$0
	ORG $+192
?__openLogger@CLogger@@AEAAXPEBDH@Z$rtcName$0 DB 073H	; CLogger::__openLogger
	DB	07aH
	DB	046H
	DB	069H
	DB	06cH
	DB	065H
	DB	04eH
	DB	061H
	DB	06dH
	DB	065H
	DB	00H
	ORG $+5
?__openLogger@CLogger@@AEAAXPEBDH@Z$rtcVarDesc DD 030H	; CLogger::__openLogger
	DD	0100H
	DQ	FLAT:?__openLogger@CLogger@@AEAAXPEBDH@Z$rtcName$0
	ORG $+48
?__openLogger@CLogger@@AEAAXPEBDH@Z$rtcFrameData DD 01H	; CLogger::__openLogger
	DD	00H
	DQ	FLAT:?__openLogger@CLogger@@AEAAXPEBDH@Z$rtcVarDesc
?changeToAbsolutePath@@YAXPEADPEBD@Z$rtcVarDesc DD 030H	; changeToAbsolutePath
	DD	0400H
	DQ	FLAT:?changeToAbsolutePath@@YAXPEADPEBD@Z$rtcName$0
	ORG $+48
?changeToAbsolutePath@@YAXPEADPEBD@Z$rtcFrameData DD 01H ; changeToAbsolutePath
	DD	00H
	DQ	FLAT:?changeToAbsolutePath@@YAXPEADPEBD@Z$rtcVarDesc
?changeToAbsolutePathFile@@YAXPEADPEBD@Z$rtcName$0 DB 073H ; changeToAbsolutePathFile
	DB	07aH
	DB	042H
	DB	075H
	DB	066H
	DB	00H
	ORG $+2
?changeToAbsolutePathFile@@YAXPEADPEBD@Z$rtcFrameData DD 01H ; changeToAbsolutePathFile
	DD	00H
	DQ	FLAT:?changeToAbsolutePathFile@@YAXPEADPEBD@Z$rtcVarDesc
?GetProfilePath@@YAHPEBD00PEAD0@Z$rtcName$0 DB 073H	; GetProfilePath
	DB	07aH
	DB	044H
	DB	069H
	DB	072H
	DB	00H
	ORG $+2
?changeToAbsolutePathFile@@YAXPEADPEBD@Z$rtcVarDesc DD 030H ; changeToAbsolutePathFile
	DD	0400H
	DQ	FLAT:?changeToAbsolutePathFile@@YAXPEADPEBD@Z$rtcName$0
	ORG $+48
?GetProfilePath@@YAHPEBD00PEAD0@Z$rtcVarDesc DD 040H	; GetProfilePath
	DD	0100H
	DQ	FLAT:?GetProfilePath@@YAHPEBD00PEAD0@Z$rtcName$0
	ORG $+48
?GetProfilePath@@YAHPEBD00PEAD0@Z$rtcFrameData DD 01H	; GetProfilePath
	DD	00H
	DQ	FLAT:?GetProfilePath@@YAHPEBD00PEAD0@Z$rtcVarDesc
CONST	ENDS
;	COMDAT xdata
xdata	SEGMENT
$unwind$??_GCSList@@QEAAPEAXI@Z DD 022201H
	DD	0700a320eH
xdata	ENDS
;	COMDAT xdata
xdata	SEGMENT
$unwind$?__autoclassinit2@CSList@@QEAAX_K@Z DD 010b01H
	DD	0700bH
xdata	ENDS
;	COMDAT xdata
xdata	SEGMENT
$unwind$?getObj@CSList@@QEAAPEAXH@Z DD 022201H
	DD	0700a320eH
xdata	ENDS
;	COMDAT xdata
xdata	SEGMENT
$unwind$?alloc@CSList@@QEAAHHW4E_ALLOC_TYPE@@@Z DD 022701H
	DD	0700f3213H
xdata	ENDS
;	COMDAT xdata
xdata	SEGMENT
$unwind$?newBuf@CMemManager@@QEAAPEADH@Z DD 022201H
	DD	0700a520eH
xdata	ENDS
;	COMDAT xdata
xdata	SEGMENT
$unwind$?getIndex@@YAHH@Z DD 021c01H
	DD	070059209H
xdata	ENDS
;	COMDAT CONST
CONST	SEGMENT
?getIndex@@YAHH@Z$rtcName$0 DB 024H			; getIndex
	DB	053H
	DB	031H
	DB	00H
	ORG $+12
?getIndex@@YAHH@Z$rtcVarDesc DD 038H			; getIndex
	DD	08H
	DQ	FLAT:?getIndex@@YAHH@Z$rtcName$0
	ORG $+48
?getIndex@@YAHH@Z$rtcFrameData DD 01H			; getIndex
	DD	00H
	DQ	FLAT:?getIndex@@YAHH@Z$rtcVarDesc
CONST	ENDS
;	COMDAT xdata
xdata	SEGMENT
$unwind$?TimezoneString@CDateTime@@QEAAPEBDXZ DD 010601H
	DD	07006H
xdata	ENDS
;	COMDAT xdata
xdata	SEGMENT
$unwind$?capacity@CQueueS@@QEAAHXZ DD 010601H
	DD	07006H
xdata	ENDS
;	COMDAT xdata
xdata	SEGMENT
$unwind$?comGlobalErrorProc@@YAXPEADPEBDH@Z DD 022801H
	DD	070105214H
xdata	ENDS
;	COMDAT xdata
xdata	SEGMENT
$unwind$?ISINCLUDE@@YA_NHH@Z DD 010901H
	DD	07009H
xdata	ENDS
xdata	SEGMENT
$unwind$time DD	021e01H
	DD	07006320aH
$unwind$??0CTimeExpManager@@QEAA@XZ DD 010601H
	DD	07006H
$unwind$??1CTimeExpManager@@QEAA@XZ DD 021e01H
	DD	07006720aH
$unwind$?initConfig@CTimeExpManager@@QEAA_NPEAD@Z DD 034719H
	DD	0180112H
	DD	0700bH
	DD	imagerel __GSHandlerCheck_EH
	DD	imagerel $cppxdata$?initConfig@CTimeExpManager@@QEAA_NPEAD@Z
	DD	0baH
$stateUnwindMap$?initConfig@CTimeExpManager@@QEAA_NPEAD@Z DD 0ffffffffH
	DD	imagerel ?dtor$0@?0??initConfig@CTimeExpManager@@QEAA_NPEAD@Z@4HA
$ip2state$?initConfig@CTimeExpManager@@QEAA_NPEAD@Z DD imagerel ?initConfig@CTimeExpManager@@QEAA_NPEAD@Z
	DD	0ffffffffH
	DD	imagerel ?initConfig@CTimeExpManager@@QEAA_NPEAD@Z+139
	DD	00H
	DD	imagerel ?initConfig@CTimeExpManager@@QEAA_NPEAD@Z+219
	DD	0ffffffffH
$unwind$?dtor$0@?0??initConfig@CTimeExpManager@@QEAA_NPEAD@Z@4HA DD 031001H
	DD	0700c4210H
	DD	0500bH
$unwind$?getDTE@CTimeExpManager@@QEAAPEAUSTLogDateTimeExp@@H@Z DD 022201H
	DD	0700a320eH
$unwind$??0CLogger@@QEAA@XZ DD 021e01H
	DD	07006320aH
$unwind$??1CLogger@@QEAA@XZ DD 022719H
	DD	07006720aH
	DD	imagerel __CxxFrameHandler3
	DD	imagerel $cppxdata$??1CLogger@@QEAA@XZ
$ip2state$??1CLogger@@QEAA@XZ DD imagerel ??1CLogger@@QEAA@XZ
	DD	0ffffffffH
$unwind$?initDefault@CLogger@@QEAA_NPEAD0HHH0@Z DD 034519H
	DD	030011cH
	DD	07015H
	DD	imagerel __GSHandlerCheck
	DD	0170H
$unwind$?initConfig@CLogger@@QEAA?AW4E_LOG_INIT_RES@@PEAD0@Z DD 034019H
	DD	03a0117H
	DD	07010H
	DD	imagerel __GSHandlerCheck
	DD	01c0H
$unwind$?OpenLogger@CLogger@@QEAAXXZ DD 033619H
	DD	01e010dH
	DD	07006H
	DD	imagerel __GSHandlerCheck
	DD	0e0H
$unwind$?setHeader@CLogger@@QEAAHPEADH@Z DD 034c19H
	DD	01a0117H
	DD	07010H
	DD	imagerel __GSHandlerCheck_EH
	DD	imagerel $cppxdata$?setHeader@CLogger@@QEAAHPEADH@Z
	DD	0c2H
$stateUnwindMap$?setHeader@CLogger@@QEAAHPEADH@Z DD 0ffffffffH
	DD	imagerel ?dtor$0@?0??setHeader@CLogger@@QEAAHPEADH@Z@4HA
$ip2state$?setHeader@CLogger@@QEAAHPEADH@Z DD imagerel ?setHeader@CLogger@@QEAAHPEADH@Z
	DD	0ffffffffH
	DD	imagerel ?setHeader@CLogger@@QEAAHPEADH@Z+124
	DD	00H
	DD	imagerel ?setHeader@CLogger@@QEAAHPEADH@Z+392
	DD	0ffffffffH
$unwind$?dtor$0@?0??setHeader@CLogger@@QEAAHPEADH@Z@4HA DD 031001H
	DD	0700c4210H
	DD	0500bH
$unwind$?PutLogQueue@CLogger@@QEAAXHPEBDZZ DD 034a19H
	DD	04540121H
	DD	07014H
	DD	imagerel __GSHandlerCheck
	DD	02298H
$unwind$?PutLogQueue@CLogger@@QEAAXHPEAD@Z DD 033f19H
	DD	04c0116H
	DD	0700fH
	DD	imagerel __GSHandlerCheck
	DD	0250H
$unwind$?Log@CLogger@@QEAAXHPEBD00_N@Z DD 034a19H
	DD	040e0121H
	DD	07014H
	DD	imagerel __GSHandlerCheck
	DD	02060H
$unwind$?LogPrint@CLogger@@QEAAXPEAD@Z DD 022301H
	DD	0700b320fH
$unwind$?LogPrint@CLogger@@QEAAXHPEBDZZ DD 034a19H
	DD	04540121H
	DD	07014H
	DD	imagerel __GSHandlerCheck
	DD	02298H
$unwind$?WritePacket@CLogger@@QEAAXHHHPEADH@Z DD 034419H
	DD	01e011bH
	DD	07014H
	DD	imagerel __GSHandlerCheck
	DD	0e8H
$unwind$?disable@CLogger@@QEAAXXZ DD 021e01H
	DD	07006320aH
$unwind$?checkChangeProc@CLogger@@QEAAXH@Z DD 033a19H
	DD	04e0111H
	DD	0700aH
	DD	imagerel __GSHandlerCheck
	DD	0260H
$unwind$?__debugLog@CLogger@@QEAAXHPEBDH0ZZ DD 034a19H
	DD	04560121H
	DD	07014H
	DD	imagerel __GSHandlerCheck
	DD	022a8H
$unwind$?getString@CLogger@@QEAAHPEAD@Z DD 034719H
	DD	02a0112H
	DD	0700bH
	DD	imagerel __GSHandlerCheck_EH
	DD	imagerel $cppxdata$?getString@CLogger@@QEAAHPEAD@Z
	DD	0142H
$stateUnwindMap$?getString@CLogger@@QEAAHPEAD@Z DD 0ffffffffH
	DD	imagerel ?dtor$0@?0??getString@CLogger@@QEAAHPEAD@Z@4HA
$ip2state$?getString@CLogger@@QEAAHPEAD@Z DD imagerel ?getString@CLogger@@QEAAHPEAD@Z
	DD	0ffffffffH
	DD	imagerel ?getString@CLogger@@QEAAHPEAD@Z+135
	DD	00H
	DD	imagerel ?getString@CLogger@@QEAAHPEAD@Z+624
	DD	0ffffffffH
$unwind$?dtor$0@?0??getString@CLogger@@QEAAHPEAD@Z@4HA DD 031001H
	DD	0700c4210H
	DD	0500bH
$unwind$?_initCom@CLogger@@AEAAXPEAD000@Z DD 022d01H
	DD	070159219H
$unwind$?_setHeaderFormat@CLogger@@AEAA_NH@Z DD 022201H
	DD	0700a520eH
$unwind$?_setLoggerBasic@CLogger@@AEAAXHHH@Z DD 022c01H
	DD	070141218H
$unwind$?_setLoggerQueue@CLogger@@AEAA_NH@Z DD 022201H
	DD	0700a520eH
$unwind$?setLogName@CLogger@@AEAAXPEAD@Z DD 033b19H
	DD	01e0112H
	DD	0700bH
	DD	imagerel __GSHandlerCheck
	DD	0e0H
$unwind$?setDateTimeFormat@CLogger@@AEAAXPEAUSTLogDateTimeExp@@@Z DD 022301H
	DD	0700b520fH
$unwind$?GetKeepInfo@CLogger@@AEAAHPEBD@Z DD 023819H
	DD	0700bf212H
	DD	imagerel __GSHandlerCheck
	DD	078H
$unwind$?checkDeleteProc@CLogger@@AEAAXXZ DD 034219H
	DD	01e010dH
	DD	07006H
	DD	imagerel __GSHandlerCheck_EH
	DD	imagerel $cppxdata$?checkDeleteProc@CLogger@@AEAAXXZ
	DD	0eaH
$stateUnwindMap$?checkDeleteProc@CLogger@@AEAAXXZ DD 0ffffffffH
	DD	imagerel ?dtor$0@?0??checkDeleteProc@CLogger@@AEAAXXZ@4HA
$ip2state$?checkDeleteProc@CLogger@@AEAAXXZ DD imagerel ?checkDeleteProc@CLogger@@AEAAXXZ
	DD	0ffffffffH
	DD	imagerel ?checkDeleteProc@CLogger@@AEAAXXZ+77
	DD	00H
	DD	imagerel ?checkDeleteProc@CLogger@@AEAAXXZ+294
	DD	0ffffffffH
$unwind$?dtor$0@?0??checkDeleteProc@CLogger@@AEAAXXZ@4HA DD 031001H
	DD	0700c4210H
	DD	0500bH
$unwind$?__openLogger@CLogger@@AEAAXPEBDH@Z DD 034019H
	DD	02a0117H
	DD	07010H
	DD	imagerel __GSHandlerCheck
	DD	0140H
$unwind$?changeToAbsolutePath@@YAXPEADPEBD@Z DD 033b19H
	DD	08c0112H
	DD	0700bH
	DD	imagerel __GSHandlerCheck
	DD	0450H
$unwind$?changeToAbsolutePathFile@@YAXPEADPEBD@Z DD 033b19H
	DD	08c0112H
	DD	0700bH
	DD	imagerel __GSHandlerCheck
	DD	0450H
$unwind$?GetProfilePath@@YAHPEBD00PEAD0@Z DD 034519H
	DD	02c011cH
	DD	07015H
	DD	imagerel __GSHandlerCheck
	DD	0150H
$unwind$?detachFullPath@@YAXPEBDPEAD1@Z DD 022801H
	DD	070105214H
xdata	ENDS
;	COMDAT xdata
xdata	SEGMENT
$unwind$sprintf DD 023c19H
	DD	07015b219H
	DD	imagerel __GSHandlerCheck
	DD	050H
xdata	ENDS
;	COMDAT CONST
CONST	SEGMENT
sprintf$rtcName$0 DB 05fH
	DB	041H
	DB	072H
	DB	067H
	DB	04cH
	DB	069H
	DB	073H
	DB	074H
	DB	00H
	ORG $+7
sprintf$rtcVarDesc DD 038H
	DD	08H
	DQ	FLAT:sprintf$rtcName$0
	ORG $+48
sprintf$rtcFrameData DD 01H
	DD	00H
	DQ	FLAT:sprintf$rtcVarDesc
CONST	ENDS
;	COMDAT xdata
xdata	SEGMENT
$unwind$_vsprintf_l DD 022d01H
	DD	070155219H
xdata	ENDS
;	COMDAT xdata
xdata	SEGMENT
$unwind$vsnprintf DD 022d01H
	DD	070157219H
xdata	ENDS
;	COMDAT xdata
xdata	SEGMENT
$unwind$_vsnprintf DD 022d01H
	DD	070155219H
xdata	ENDS
;	COMDAT xdata
xdata	SEGMENT
$unwind$_vsnprintf_l DD 022d01H
	DD	070157219H
xdata	ENDS
;	COMDAT xdata
xdata	SEGMENT
$unwind$printf DD 023c19H
	DD	07015b219H
	DD	imagerel __GSHandlerCheck
	DD	050H
xdata	ENDS
;	COMDAT CONST
CONST	SEGMENT
printf$rtcName$0 DB 05fH
	DB	041H
	DB	072H
	DB	067H
	DB	04cH
	DB	069H
	DB	073H
	DB	074H
	DB	00H
	ORG $+7
printf$rtcVarDesc DD 038H
	DD	08H
	DQ	FLAT:printf$rtcName$0
	ORG $+48
printf$rtcFrameData DD 01H
	DD	00H
	DQ	FLAT:printf$rtcVarDesc
CONST	ENDS
;	COMDAT xdata
xdata	SEGMENT
$unwind$??$__vcrt_va_start_verify_argument_type@QEBD@@YAXXZ DD 010201H
	DD	07002H
xdata	ENDS
;	COMDAT xdata
xdata	SEGMENT
$unwind$fprintf DD 023c19H
	DD	07015b219H
	DD	imagerel __GSHandlerCheck
	DD	050H
xdata	ENDS
;	COMDAT CONST
CONST	SEGMENT
fprintf$rtcName$0 DB 05fH
	DB	041H
	DB	072H
	DB	067H
	DB	04cH
	DB	069H
	DB	073H
	DB	074H
	DB	00H
	ORG $+7
fprintf$rtcVarDesc DD 038H
	DD	08H
	DQ	FLAT:fprintf$rtcName$0
	ORG $+48
fprintf$rtcFrameData DD 01H
	DD	00H
	DQ	FLAT:fprintf$rtcVarDesc
CONST	ENDS
;	COMDAT xdata
xdata	SEGMENT
$unwind$_vfprintf_l DD 022d01H
	DD	070155219H
xdata	ENDS
;	COMDAT xdata
xdata	SEGMENT
$unwind$__local_stdio_printf_options DD 010201H
	DD	07002H
xdata	ENDS
;	COMDAT xdata
xdata	SEGMENT
$unwind$_tcscmp DD 022301H
	DD	0700b320fH
xdata	ENDS
;	COMDAT xdata
xdata	SEGMENT
$unwind$_tcsrchr DD 022201H
	DD	0700a320eH
xdata	ENDS
;	COMDAT xdata
xdata	SEGMENT
$unwind$_tcsncpy DD 022801H
	DD	070103214H
xdata	ENDS
CRT$XCU	SEGMENT
?gs_DTEManager$initializer$@@3P6AXXZEA DQ FLAT:??__Egs_DTEManager@@YAXXZ ; gs_DTEManager$initializer$
CRT$XCU	ENDS
; Function compile flags: /Odtp /RTCsu
; File c:\program files (x86)\microsoft visual studio 14.0\vc\include\vadefs.h
;	COMDAT ??$__vcrt_va_start_verify_argument_type@PEBD@@YAXXZ
_TEXT	SEGMENT
??$__vcrt_va_start_verify_argument_type@PEBD@@YAXXZ PROC ; __vcrt_va_start_verify_argument_type<char const * __ptr64>, COMDAT

; 144  :         {

$LN3:
  00000	40 57		 push	 rdi

; 145  :             static_assert(!__vcrt_va_list_is_reference<_Ty>::__the_value, "va_start argument must not have reference type and must not be parenthesized");
; 146  :         }

  00002	5f		 pop	 rdi
  00003	c3		 ret	 0
??$__vcrt_va_start_verify_argument_type@PEBD@@YAXXZ ENDP ; __vcrt_va_start_verify_argument_type<char const * __ptr64>
_TEXT	ENDS
; Function compile flags: /Odtp /RTCsu
;	COMDAT ??__Fgs_DTEManager@@YAXXZ
text$yd	SEGMENT
??__Fgs_DTEManager@@YAXXZ PROC				; `dynamic atexit destructor for 'gs_DTEManager'', COMDAT
  00000	40 57		 push	 rdi
  00002	48 83 ec 20	 sub	 rsp, 32			; 00000020H
  00006	48 8b fc	 mov	 rdi, rsp
  00009	b9 08 00 00 00	 mov	 ecx, 8
  0000e	b8 cc cc cc cc	 mov	 eax, -858993460		; ccccccccH
  00013	f3 ab		 rep stosd
  00015	48 8d 0d 00 00
	00 00		 lea	 rcx, OFFSET FLAT:?gs_DTEManager@@3VCTimeExpManager@@A ; gs_DTEManager
  0001c	e8 00 00 00 00	 call	 ??1CTimeExpManager@@QEAA@XZ ; CTimeExpManager::~CTimeExpManager
  00021	48 83 c4 20	 add	 rsp, 32			; 00000020H
  00025	5f		 pop	 rdi
  00026	c3		 ret	 0
??__Fgs_DTEManager@@YAXXZ ENDP				; `dynamic atexit destructor for 'gs_DTEManager''
text$yd	ENDS
; Function compile flags: /Odtp /RTCsu
; File e:\infinia-library-3.0\com\src\comlogger.cpp
;	COMDAT ??__Egs_DTEManager@@YAXXZ
text$di	SEGMENT
??__Egs_DTEManager@@YAXXZ PROC				; `dynamic initializer for 'gs_DTEManager'', COMDAT

; 24   : CTimeExpManager gs_DTEManager;

  00000	40 57		 push	 rdi
  00002	48 83 ec 20	 sub	 rsp, 32			; 00000020H
  00006	48 8b fc	 mov	 rdi, rsp
  00009	b9 08 00 00 00	 mov	 ecx, 8
  0000e	b8 cc cc cc cc	 mov	 eax, -858993460		; ccccccccH
  00013	f3 ab		 rep stosd
  00015	ba 08 00 00 00	 mov	 edx, 8
  0001a	48 8d 0d 00 00
	00 00		 lea	 rcx, OFFSET FLAT:?gs_DTEManager@@3VCTimeExpManager@@A ; gs_DTEManager
  00021	e8 00 00 00 00	 call	 ?__autoclassinit2@CTimeExpManager@@QEAAX_K@Z
  00026	48 8d 0d 00 00
	00 00		 lea	 rcx, OFFSET FLAT:?gs_DTEManager@@3VCTimeExpManager@@A ; gs_DTEManager
  0002d	e8 00 00 00 00	 call	 ??0CTimeExpManager@@QEAA@XZ ; CTimeExpManager::CTimeExpManager
  00032	48 8d 0d 00 00
	00 00		 lea	 rcx, OFFSET FLAT:??__Fgs_DTEManager@@YAXXZ ; `dynamic atexit destructor for 'gs_DTEManager''
  00039	e8 00 00 00 00	 call	 atexit
  0003e	48 83 c4 20	 add	 rsp, 32			; 00000020H
  00042	5f		 pop	 rdi
  00043	c3		 ret	 0
??__Egs_DTEManager@@YAXXZ ENDP				; `dynamic initializer for 'gs_DTEManager''
text$di	ENDS
; Function compile flags: /Odtp /RTCsu
;	COMDAT ??__Fgs_cLogger@@YAXXZ
text$yd	SEGMENT
??__Fgs_cLogger@@YAXXZ PROC				; `dynamic atexit destructor for 'gs_cLogger'', COMDAT
  00000	40 57		 push	 rdi
  00002	48 83 ec 20	 sub	 rsp, 32			; 00000020H
  00006	48 8b fc	 mov	 rdi, rsp
  00009	b9 08 00 00 00	 mov	 ecx, 8
  0000e	b8 cc cc cc cc	 mov	 eax, -858993460		; ccccccccH
  00013	f3 ab		 rep stosd
  00015	48 8d 0d 00 00
	00 00		 lea	 rcx, OFFSET FLAT:?gs_cLogger@@3VCLogger@@A ; gs_cLogger
  0001c	e8 00 00 00 00	 call	 ??1CLogger@@QEAA@XZ	; CLogger::~CLogger
  00021	48 83 c4 20	 add	 rsp, 32			; 00000020H
  00025	5f		 pop	 rdi
  00026	c3		 ret	 0
??__Fgs_cLogger@@YAXXZ ENDP				; `dynamic atexit destructor for 'gs_cLogger''
text$yd	ENDS
; Function compile flags: /Odtp /RTCsu
; File e:\infinia-library-3.0\com\src\comlogger.cpp
;	COMDAT ??__Egs_cLogger@@YAXXZ
text$di	SEGMENT
??__Egs_cLogger@@YAXXZ PROC				; `dynamic initializer for 'gs_cLogger'', COMDAT

; 23   : CLogger gs_cLogger;

  00000	40 57		 push	 rdi
  00002	48 83 ec 20	 sub	 rsp, 32			; 00000020H
  00006	48 8b fc	 mov	 rdi, rsp
  00009	b9 08 00 00 00	 mov	 ecx, 8
  0000e	b8 cc cc cc cc	 mov	 eax, -858993460		; ccccccccH
  00013	f3 ab		 rep stosd
  00015	ba 18 01 00 00	 mov	 edx, 280		; 00000118H
  0001a	48 8d 0d 00 00
	00 00		 lea	 rcx, OFFSET FLAT:?gs_cLogger@@3VCLogger@@A ; gs_cLogger
  00021	e8 00 00 00 00	 call	 ?__autoclassinit2@CLogger@@QEAAX_K@Z
  00026	48 8d 0d 00 00
	00 00		 lea	 rcx, OFFSET FLAT:?gs_cLogger@@3VCLogger@@A ; gs_cLogger
  0002d	e8 00 00 00 00	 call	 ??0CLogger@@QEAA@XZ	; CLogger::CLogger
  00032	48 8d 0d 00 00
	00 00		 lea	 rcx, OFFSET FLAT:??__Fgs_cLogger@@YAXXZ ; `dynamic atexit destructor for 'gs_cLogger''
  00039	e8 00 00 00 00	 call	 atexit
  0003e	48 83 c4 20	 add	 rsp, 32			; 00000020H
  00042	5f		 pop	 rdi
  00043	c3		 ret	 0
??__Egs_cLogger@@YAXXZ ENDP				; `dynamic initializer for 'gs_cLogger''
text$di	ENDS
; Function compile flags: /Odtp /RTCsu
; File e:\infinia-library-3.0\com\include\comfileutil.h
;	COMDAT ?init@STDelInfo@@QEAAXPEAD_N1PEAX@Z
_TEXT	SEGMENT
this$ = 16
dir$ = 24
isRecursive$ = 32
bDelDir$ = 40
p$ = 48
?init@STDelInfo@@QEAAXPEAD_N1PEAX@Z PROC		; STDelInfo::init, COMDAT

; 39   : 	{

$LN5:
  00000	44 88 4c 24 20	 mov	 BYTE PTR [rsp+32], r9b
  00005	44 88 44 24 18	 mov	 BYTE PTR [rsp+24], r8b
  0000a	48 89 54 24 10	 mov	 QWORD PTR [rsp+16], rdx
  0000f	48 89 4c 24 08	 mov	 QWORD PTR [rsp+8], rcx
  00014	57		 push	 rdi

; 40   : 		pData = p;

  00015	48 8b 44 24 10	 mov	 rax, QWORD PTR this$[rsp]
  0001a	48 8b 4c 24 30	 mov	 rcx, QWORD PTR p$[rsp]
  0001f	48 89 48 10	 mov	 QWORD PTR [rax+16], rcx

; 41   : 		root = dir;

  00023	48 8b 44 24 10	 mov	 rax, QWORD PTR this$[rsp]
  00028	48 8b 4c 24 18	 mov	 rcx, QWORD PTR dir$[rsp]
  0002d	48 89 08	 mov	 QWORD PTR [rax], rcx

; 42   : 		nFlag = 0;

  00030	48 8b 44 24 10	 mov	 rax, QWORD PTR this$[rsp]
  00035	c7 40 08 00 00
	00 00		 mov	 DWORD PTR [rax+8], 0

; 43   : 		if (isRecursive) nFlag = DIR_RECURSIVE;

  0003c	0f b6 44 24 20	 movzx	 eax, BYTE PTR isRecursive$[rsp]
  00041	85 c0		 test	 eax, eax
  00043	74 0c		 je	 SHORT $LN2@init
  00045	48 8b 44 24 10	 mov	 rax, QWORD PTR this$[rsp]
  0004a	c7 40 08 01 00
	00 00		 mov	 DWORD PTR [rax+8], 1
$LN2@init:

; 44   : 		if (bDelDir) nFlag |= DEL_DIRECTORY;

  00051	0f b6 44 24 28	 movzx	 eax, BYTE PTR bDelDir$[rsp]
  00056	85 c0		 test	 eax, eax
  00058	74 13		 je	 SHORT $LN3@init
  0005a	48 8b 44 24 10	 mov	 rax, QWORD PTR this$[rsp]
  0005f	8b 40 08	 mov	 eax, DWORD PTR [rax+8]
  00062	83 c8 02	 or	 eax, 2
  00065	48 8b 4c 24 10	 mov	 rcx, QWORD PTR this$[rsp]
  0006a	89 41 08	 mov	 DWORD PTR [rcx+8], eax
$LN3@init:

; 45   : 	}

  0006d	5f		 pop	 rdi
  0006e	c3		 ret	 0
?init@STDelInfo@@QEAAXPEAD_N1PEAX@Z ENDP		; STDelInfo::init
_TEXT	ENDS
; Function compile flags: /Odtp /RTCsu
; File e:\infinia-library-3.0\com\src\comlogger.cpp
_TEXT	SEGMENT
nLen$ = 32
pRear$ = 40
fullpath$ = 64
dir$ = 72
name$ = 80
?detachFullPath@@YAXPEBDPEAD1@Z PROC			; detachFullPath

; 859  : {

$LN3:
  00000	4c 89 44 24 18	 mov	 QWORD PTR [rsp+24], r8
  00005	48 89 54 24 10	 mov	 QWORD PTR [rsp+16], rdx
  0000a	48 89 4c 24 08	 mov	 QWORD PTR [rsp+8], rcx
  0000f	57		 push	 rdi
  00010	48 83 ec 30	 sub	 rsp, 48			; 00000030H
  00014	48 8b fc	 mov	 rdi, rsp
  00017	b9 0c 00 00 00	 mov	 ecx, 12
  0001c	b8 cc cc cc cc	 mov	 eax, -858993460		; ccccccccH
  00021	f3 ab		 rep stosd
  00023	48 8b 4c 24 40	 mov	 rcx, QWORD PTR [rsp+64]

; 860  : 	size_t nLen;
; 861  : 
; 862  : 	const TCHAR *pRear = _tcsrchr(fullpath, g_s);

  00028	ba 5c 00 00 00	 mov	 edx, 92			; 0000005cH
  0002d	48 8b 4c 24 40	 mov	 rcx, QWORD PTR fullpath$[rsp]
  00032	e8 00 00 00 00	 call	 _tcsrchr
  00037	48 89 44 24 28	 mov	 QWORD PTR pRear$[rsp], rax

; 863  : 	nLen = pRear - fullpath + 1;

  0003c	48 8b 44 24 40	 mov	 rax, QWORD PTR fullpath$[rsp]
  00041	48 8b 4c 24 28	 mov	 rcx, QWORD PTR pRear$[rsp]
  00046	48 2b c8	 sub	 rcx, rax
  00049	48 8b c1	 mov	 rax, rcx
  0004c	48 ff c0	 inc	 rax
  0004f	48 89 44 24 20	 mov	 QWORD PTR nLen$[rsp], rax

; 864  : 	_tcsncpy(dir, fullpath, nLen);

  00054	4c 8b 44 24 20	 mov	 r8, QWORD PTR nLen$[rsp]
  00059	48 8b 54 24 40	 mov	 rdx, QWORD PTR fullpath$[rsp]
  0005e	48 8b 4c 24 48	 mov	 rcx, QWORD PTR dir$[rsp]
  00063	e8 00 00 00 00	 call	 _tcsncpy

; 865  : 	dir[nLen] = 0;

  00068	48 8b 44 24 20	 mov	 rax, QWORD PTR nLen$[rsp]
  0006d	48 8b 4c 24 48	 mov	 rcx, QWORD PTR dir$[rsp]
  00072	48 03 c8	 add	 rcx, rax
  00075	48 8b c1	 mov	 rax, rcx
  00078	c6 00 00	 mov	 BYTE PTR [rax], 0

; 866  : 	_tcscpy(name, pRear+1);

  0007b	48 8b 44 24 28	 mov	 rax, QWORD PTR pRear$[rsp]
  00080	48 ff c0	 inc	 rax
  00083	48 8b d0	 mov	 rdx, rax
  00086	48 8b 4c 24 50	 mov	 rcx, QWORD PTR name$[rsp]
  0008b	e8 00 00 00 00	 call	 strcpy

; 867  : }

  00090	48 83 c4 30	 add	 rsp, 48			; 00000030H
  00094	5f		 pop	 rdi
  00095	c3		 ret	 0
?detachFullPath@@YAXPEBDPEAD1@Z ENDP			; detachFullPath
_TEXT	ENDS
; Function compile flags: /Odtp /RTCsu
; File e:\infinia-library-3.0\com\src\comlogger.cpp
_TEXT	SEGMENT
szDir$ = 64
nRes$ = 324
__$ArrayPad$ = 336
section$ = 368
key$ = 376
initVal$ = 384
ret$ = 392
fName$ = 400
?GetProfilePath@@YAHPEBD00PEAD0@Z PROC			; GetProfilePath

; 839  : {

$LN8:
  00000	4c 89 4c 24 20	 mov	 QWORD PTR [rsp+32], r9
  00005	4c 89 44 24 18	 mov	 QWORD PTR [rsp+24], r8
  0000a	48 89 54 24 10	 mov	 QWORD PTR [rsp+16], rdx
  0000f	48 89 4c 24 08	 mov	 QWORD PTR [rsp+8], rcx
  00014	57		 push	 rdi
  00015	48 81 ec 60 01
	00 00		 sub	 rsp, 352		; 00000160H
  0001c	48 8b fc	 mov	 rdi, rsp
  0001f	b9 58 00 00 00	 mov	 ecx, 88			; 00000058H
  00024	b8 cc cc cc cc	 mov	 eax, -858993460		; ccccccccH
  00029	f3 ab		 rep stosd
  0002b	48 8b 8c 24 70
	01 00 00	 mov	 rcx, QWORD PTR [rsp+368]
  00033	48 8b 05 00 00
	00 00		 mov	 rax, QWORD PTR __security_cookie
  0003a	48 33 c4	 xor	 rax, rsp
  0003d	48 89 84 24 50
	01 00 00	 mov	 QWORD PTR __$ArrayPad$[rsp], rax

; 840  : 	TCHAR szDir[256];
; 841  : 	int nRes = GetPrivateProfileString(section, key, _T(""), szDir, sizeof(szDir), fName);

  00045	48 8b 84 24 90
	01 00 00	 mov	 rax, QWORD PTR fName$[rsp]
  0004d	48 89 44 24 28	 mov	 QWORD PTR [rsp+40], rax
  00052	c7 44 24 20 00
	01 00 00	 mov	 DWORD PTR [rsp+32], 256	; 00000100H
  0005a	4c 8d 4c 24 40	 lea	 r9, QWORD PTR szDir$[rsp]
  0005f	4c 8d 05 00 00
	00 00		 lea	 r8, OFFSET FLAT:$SG86898
  00066	48 8b 94 24 78
	01 00 00	 mov	 rdx, QWORD PTR key$[rsp]
  0006e	48 8b 8c 24 70
	01 00 00	 mov	 rcx, QWORD PTR section$[rsp]
  00076	ff 15 00 00 00
	00		 call	 QWORD PTR __imp_GetPrivateProfileStringA
  0007c	89 84 24 44 01
	00 00		 mov	 DWORD PTR nRes$[rsp], eax

; 842  : 
; 843  : 	if (!nRes) {

  00083	83 bc 24 44 01
	00 00 00	 cmp	 DWORD PTR nRes$[rsp], 0
  0008b	75 69		 jne	 SHORT $LN2@GetProfile

; 844  : 		if (initVal) {

  0008d	48 83 bc 24 80
	01 00 00 00	 cmp	 QWORD PTR initVal$[rsp], 0
  00096	74 34		 je	 SHORT $LN4@GetProfile

; 845  : 			nRes = _stprintf(ret, "%s%s%c", g_pWorkDir, initVal, g_s);

  00098	c7 44 24 20 5c
	00 00 00	 mov	 DWORD PTR [rsp+32], 92	; 0000005cH
  000a0	4c 8b 8c 24 80
	01 00 00	 mov	 r9, QWORD PTR initVal$[rsp]
  000a8	4c 8b 05 00 00
	00 00		 mov	 r8, QWORD PTR ?g_pWorkDir@@3PEADEA ; g_pWorkDir
  000af	48 8d 15 00 00
	00 00		 lea	 rdx, OFFSET FLAT:$SG86903
  000b6	48 8b 8c 24 88
	01 00 00	 mov	 rcx, QWORD PTR ret$[rsp]
  000be	e8 00 00 00 00	 call	 sprintf
  000c3	89 84 24 44 01
	00 00		 mov	 DWORD PTR nRes$[rsp], eax

; 846  : 		}
; 847  : 		else {

  000ca	eb 28		 jmp	 SHORT $LN5@GetProfile
$LN4@GetProfile:

; 848  : 			nRes = _stprintf(ret, "%s%c", g_pWorkDir, g_s);

  000cc	41 b9 5c 00 00
	00		 mov	 r9d, 92			; 0000005cH
  000d2	4c 8b 05 00 00
	00 00		 mov	 r8, QWORD PTR ?g_pWorkDir@@3PEADEA ; g_pWorkDir
  000d9	48 8d 15 00 00
	00 00		 lea	 rdx, OFFSET FLAT:$SG86904
  000e0	48 8b 8c 24 88
	01 00 00	 mov	 rcx, QWORD PTR ret$[rsp]
  000e8	e8 00 00 00 00	 call	 sprintf
  000ed	89 84 24 44 01
	00 00		 mov	 DWORD PTR nRes$[rsp], eax
$LN5@GetProfile:

; 849  : 		}

  000f4	eb 25		 jmp	 SHORT $LN3@GetProfile
$LN2@GetProfile:

; 850  : 	}
; 851  : 	else if (szDir[0] == '~') {

  000f6	b8 01 00 00 00	 mov	 eax, 1
  000fb	48 6b c0 00	 imul	 rax, rax, 0
  000ff	0f be 44 04 40	 movsx	 eax, BYTE PTR szDir$[rsp+rax]
  00104	83 f8 7e	 cmp	 eax, 126		; 0000007eH
  00107	75 12		 jne	 SHORT $LN6@GetProfile

; 852  : 		changeToAbsolutePath(ret, szDir);

  00109	48 8d 54 24 40	 lea	 rdx, QWORD PTR szDir$[rsp]
  0010e	48 8b 8c 24 88
	01 00 00	 mov	 rcx, QWORD PTR ret$[rsp]
  00116	e8 00 00 00 00	 call	 ?changeToAbsolutePath@@YAXPEADPEBD@Z ; changeToAbsolutePath
$LN6@GetProfile:
$LN3@GetProfile:

; 853  : 	}
; 854  : 	return nRes;

  0011b	8b 84 24 44 01
	00 00		 mov	 eax, DWORD PTR nRes$[rsp]

; 855  : }

  00122	8b f8		 mov	 edi, eax
  00124	48 8b cc	 mov	 rcx, rsp
  00127	48 8d 15 00 00
	00 00		 lea	 rdx, OFFSET FLAT:?GetProfilePath@@YAHPEBD00PEAD0@Z$rtcFrameData
  0012e	e8 00 00 00 00	 call	 _RTC_CheckStackVars
  00133	8b c7		 mov	 eax, edi
  00135	48 8b 8c 24 50
	01 00 00	 mov	 rcx, QWORD PTR __$ArrayPad$[rsp]
  0013d	48 33 cc	 xor	 rcx, rsp
  00140	e8 00 00 00 00	 call	 __security_check_cookie
  00145	48 81 c4 60 01
	00 00		 add	 rsp, 352		; 00000160H
  0014c	5f		 pop	 rdi
  0014d	c3		 ret	 0
?GetProfilePath@@YAHPEBD00PEAD0@Z ENDP			; GetProfilePath
_TEXT	ENDS
; Function compile flags: /Odtp /RTCsu
; File e:\infinia-library-3.0\com\src\comlogger.cpp
_TEXT	SEGMENT
szBuf$ = 48
pBuf$ = 1080
nRes$ = 1088
__$ArrayPad$ = 1104
ret$ = 1136
path$ = 1144
?changeToAbsolutePathFile@@YAXPEADPEBD@Z PROC		; changeToAbsolutePathFile

; 800  : {

$LN7:
  00000	48 89 54 24 10	 mov	 QWORD PTR [rsp+16], rdx
  00005	48 89 4c 24 08	 mov	 QWORD PTR [rsp+8], rcx
  0000a	57		 push	 rdi
  0000b	48 81 ec 60 04
	00 00		 sub	 rsp, 1120		; 00000460H
  00012	48 8b fc	 mov	 rdi, rsp
  00015	b9 18 01 00 00	 mov	 ecx, 280		; 00000118H
  0001a	b8 cc cc cc cc	 mov	 eax, -858993460		; ccccccccH
  0001f	f3 ab		 rep stosd
  00021	48 8b 8c 24 70
	04 00 00	 mov	 rcx, QWORD PTR [rsp+1136]
  00029	48 8b 05 00 00
	00 00		 mov	 rax, QWORD PTR __security_cookie
  00030	48 33 c4	 xor	 rax, rsp
  00033	48 89 84 24 50
	04 00 00	 mov	 QWORD PTR __$ArrayPad$[rsp], rax

; 801  : 	TCHAR szBuf[1024];
; 802  : 	TCHAR *pBuf = (TCHAR *)szBuf;

  0003b	48 8d 44 24 30	 lea	 rax, QWORD PTR szBuf$[rsp]
  00040	48 89 84 24 38
	04 00 00	 mov	 QWORD PTR pBuf$[rsp], rax

; 803  : 	_tcscpy(szBuf, path);

  00048	48 8b 94 24 78
	04 00 00	 mov	 rdx, QWORD PTR path$[rsp]
  00050	48 8d 4c 24 30	 lea	 rcx, QWORD PTR szBuf$[rsp]
  00055	e8 00 00 00 00	 call	 strcpy

; 804  : 	int nRes = 0;

  0005a	c7 84 24 40 04
	00 00 00 00 00
	00		 mov	 DWORD PTR nRes$[rsp], 0

; 805  : 	CEnv::initSystem();

  00065	33 c9		 xor	 ecx, ecx
  00067	e8 00 00 00 00	 call	 ?initSystem@CEnv@@SAHPEAD@Z ; CEnv::initSystem

; 806  : 	if (pBuf[0] == '~') {

  0006c	b8 01 00 00 00	 mov	 eax, 1
  00071	48 6b c0 00	 imul	 rax, rax, 0
  00075	48 8b 8c 24 38
	04 00 00	 mov	 rcx, QWORD PTR pBuf$[rsp]
  0007d	0f be 04 01	 movsx	 eax, BYTE PTR [rcx+rax]
  00081	83 f8 7e	 cmp	 eax, 126		; 0000007eH
  00084	0f 85 91 00 00
	00		 jne	 $LN4@changeToAb

; 807  : 		pBuf++;

  0008a	48 8b 84 24 38
	04 00 00	 mov	 rax, QWORD PTR pBuf$[rsp]
  00092	48 ff c0	 inc	 rax
  00095	48 89 84 24 38
	04 00 00	 mov	 QWORD PTR pBuf$[rsp], rax
$LN2@changeToAb:

; 808  : 		while (*pBuf == '\\' || *pBuf == '/') {

  0009d	48 8b 84 24 38
	04 00 00	 mov	 rax, QWORD PTR pBuf$[rsp]
  000a5	0f be 00	 movsx	 eax, BYTE PTR [rax]
  000a8	83 f8 5c	 cmp	 eax, 92			; 0000005cH
  000ab	74 10		 je	 SHORT $LN5@changeToAb
  000ad	48 8b 84 24 38
	04 00 00	 mov	 rax, QWORD PTR pBuf$[rsp]
  000b5	0f be 00	 movsx	 eax, BYTE PTR [rax]
  000b8	83 f8 2f	 cmp	 eax, 47			; 0000002fH
  000bb	75 20		 jne	 SHORT $LN3@changeToAb
$LN5@changeToAb:

; 809  : 			*pBuf = g_s;

  000bd	48 8b 84 24 38
	04 00 00	 mov	 rax, QWORD PTR pBuf$[rsp]
  000c5	c6 00 5c	 mov	 BYTE PTR [rax], 92	; 0000005cH

; 810  : 			pBuf++;

  000c8	48 8b 84 24 38
	04 00 00	 mov	 rax, QWORD PTR pBuf$[rsp]
  000d0	48 ff c0	 inc	 rax
  000d3	48 89 84 24 38
	04 00 00	 mov	 QWORD PTR pBuf$[rsp], rax

; 811  : 		}

  000db	eb c0		 jmp	 SHORT $LN2@changeToAb
$LN3@changeToAb:

; 812  : 		nRes = _stprintf(ret, _T("%s%s"), g_pWorkDir, pBuf);

  000dd	4c 8b 8c 24 38
	04 00 00	 mov	 r9, QWORD PTR pBuf$[rsp]
  000e5	4c 8b 05 00 00
	00 00		 mov	 r8, QWORD PTR ?g_pWorkDir@@3PEADEA ; g_pWorkDir
  000ec	48 8d 15 00 00
	00 00		 lea	 rdx, OFFSET FLAT:$SG86872
  000f3	48 8b 8c 24 70
	04 00 00	 mov	 rcx, QWORD PTR ret$[rsp]
  000fb	e8 00 00 00 00	 call	 sprintf
  00100	89 84 24 40 04
	00 00		 mov	 DWORD PTR nRes$[rsp], eax

; 813  : 		ret[nRes] = 0;

  00107	48 63 84 24 40
	04 00 00	 movsxd	 rax, DWORD PTR nRes$[rsp]
  0010f	48 8b 8c 24 70
	04 00 00	 mov	 rcx, QWORD PTR ret$[rsp]
  00117	c6 04 01 00	 mov	 BYTE PTR [rcx+rax], 0
$LN4@changeToAb:

; 814  : 	}
; 815  : }

  0011b	48 8b cc	 mov	 rcx, rsp
  0011e	48 8d 15 00 00
	00 00		 lea	 rdx, OFFSET FLAT:?changeToAbsolutePathFile@@YAXPEADPEBD@Z$rtcFrameData
  00125	e8 00 00 00 00	 call	 _RTC_CheckStackVars
  0012a	48 8b 8c 24 50
	04 00 00	 mov	 rcx, QWORD PTR __$ArrayPad$[rsp]
  00132	48 33 cc	 xor	 rcx, rsp
  00135	e8 00 00 00 00	 call	 __security_check_cookie
  0013a	48 81 c4 60 04
	00 00		 add	 rsp, 1120		; 00000460H
  00141	5f		 pop	 rdi
  00142	c3		 ret	 0
?changeToAbsolutePathFile@@YAXPEADPEBD@Z ENDP		; changeToAbsolutePathFile
_TEXT	ENDS
; Function compile flags: /Odtp /RTCsu
; File e:\infinia-library-3.0\com\src\comlogger.cpp
_TEXT	SEGMENT
szBuf$ = 48
pBuf$ = 1080
nRes$ = 1088
__$ArrayPad$ = 1104
ret$ = 1136
path$ = 1144
?changeToAbsolutePath@@YAXPEADPEBD@Z PROC		; changeToAbsolutePath

; 818  : {

$LN10:
  00000	48 89 54 24 10	 mov	 QWORD PTR [rsp+16], rdx
  00005	48 89 4c 24 08	 mov	 QWORD PTR [rsp+8], rcx
  0000a	57		 push	 rdi
  0000b	48 81 ec 60 04
	00 00		 sub	 rsp, 1120		; 00000460H
  00012	48 8b fc	 mov	 rdi, rsp
  00015	b9 18 01 00 00	 mov	 ecx, 280		; 00000118H
  0001a	b8 cc cc cc cc	 mov	 eax, -858993460		; ccccccccH
  0001f	f3 ab		 rep stosd
  00021	48 8b 8c 24 70
	04 00 00	 mov	 rcx, QWORD PTR [rsp+1136]
  00029	48 8b 05 00 00
	00 00		 mov	 rax, QWORD PTR __security_cookie
  00030	48 33 c4	 xor	 rax, rsp
  00033	48 89 84 24 50
	04 00 00	 mov	 QWORD PTR __$ArrayPad$[rsp], rax

; 819  : 	TCHAR szBuf[1024];
; 820  : 	TCHAR *pBuf = (TCHAR *)szBuf;

  0003b	48 8d 44 24 30	 lea	 rax, QWORD PTR szBuf$[rsp]
  00040	48 89 84 24 38
	04 00 00	 mov	 QWORD PTR pBuf$[rsp], rax

; 821  : 	_tcscpy(szBuf, path);

  00048	48 8b 94 24 78
	04 00 00	 mov	 rdx, QWORD PTR path$[rsp]
  00050	48 8d 4c 24 30	 lea	 rcx, QWORD PTR szBuf$[rsp]
  00055	e8 00 00 00 00	 call	 strcpy

; 822  : 	int nRes=0;

  0005a	c7 84 24 40 04
	00 00 00 00 00
	00		 mov	 DWORD PTR nRes$[rsp], 0

; 823  : 	CEnv::initSystem();

  00065	33 c9		 xor	 ecx, ecx
  00067	e8 00 00 00 00	 call	 ?initSystem@CEnv@@SAHPEAD@Z ; CEnv::initSystem

; 824  : 	if (pBuf[0] == '~') {

  0006c	b8 01 00 00 00	 mov	 eax, 1
  00071	48 6b c0 00	 imul	 rax, rax, 0
  00075	48 8b 8c 24 38
	04 00 00	 mov	 rcx, QWORD PTR pBuf$[rsp]
  0007d	0f be 04 01	 movsx	 eax, BYTE PTR [rcx+rax]
  00081	83 f8 7e	 cmp	 eax, 126		; 0000007eH
  00084	0f 85 f5 00 00
	00		 jne	 $LN4@changeToAb

; 825  : 		pBuf++;

  0008a	48 8b 84 24 38
	04 00 00	 mov	 rax, QWORD PTR pBuf$[rsp]
  00092	48 ff c0	 inc	 rax
  00095	48 89 84 24 38
	04 00 00	 mov	 QWORD PTR pBuf$[rsp], rax
$LN2@changeToAb:

; 826  : 		while (*pBuf == '\\' || *pBuf == '/') {

  0009d	48 8b 84 24 38
	04 00 00	 mov	 rax, QWORD PTR pBuf$[rsp]
  000a5	0f be 00	 movsx	 eax, BYTE PTR [rax]
  000a8	83 f8 5c	 cmp	 eax, 92			; 0000005cH
  000ab	74 10		 je	 SHORT $LN5@changeToAb
  000ad	48 8b 84 24 38
	04 00 00	 mov	 rax, QWORD PTR pBuf$[rsp]
  000b5	0f be 00	 movsx	 eax, BYTE PTR [rax]
  000b8	83 f8 2f	 cmp	 eax, 47			; 0000002fH
  000bb	75 20		 jne	 SHORT $LN3@changeToAb
$LN5@changeToAb:

; 827  : 			*pBuf = g_s;

  000bd	48 8b 84 24 38
	04 00 00	 mov	 rax, QWORD PTR pBuf$[rsp]
  000c5	c6 00 5c	 mov	 BYTE PTR [rax], 92	; 0000005cH

; 828  : 			pBuf++;

  000c8	48 8b 84 24 38
	04 00 00	 mov	 rax, QWORD PTR pBuf$[rsp]
  000d0	48 ff c0	 inc	 rax
  000d3	48 89 84 24 38
	04 00 00	 mov	 QWORD PTR pBuf$[rsp], rax

; 829  : 		}

  000db	eb c0		 jmp	 SHORT $LN2@changeToAb
$LN3@changeToAb:

; 830  : 		nRes = _stprintf(ret, _T("%s%s"), g_pWorkDir, pBuf);

  000dd	4c 8b 8c 24 38
	04 00 00	 mov	 r9, QWORD PTR pBuf$[rsp]
  000e5	4c 8b 05 00 00
	00 00		 mov	 r8, QWORD PTR ?g_pWorkDir@@3PEADEA ; g_pWorkDir
  000ec	48 8d 15 00 00
	00 00		 lea	 rdx, OFFSET FLAT:$SG86885
  000f3	48 8b 8c 24 70
	04 00 00	 mov	 rcx, QWORD PTR ret$[rsp]
  000fb	e8 00 00 00 00	 call	 sprintf
  00100	89 84 24 40 04
	00 00		 mov	 DWORD PTR nRes$[rsp], eax

; 831  : 		pBuf = ret+(nRes - 1);

  00107	8b 84 24 40 04
	00 00		 mov	 eax, DWORD PTR nRes$[rsp]
  0010e	ff c8		 dec	 eax
  00110	48 98		 cdqe
  00112	48 8b 8c 24 70
	04 00 00	 mov	 rcx, QWORD PTR ret$[rsp]
  0011a	48 03 c8	 add	 rcx, rax
  0011d	48 8b c1	 mov	 rax, rcx
  00120	48 89 84 24 38
	04 00 00	 mov	 QWORD PTR pBuf$[rsp], rax

; 832  : 		if(*pBuf == '\\' || *pBuf == '/') *pBuf = g_s;

  00128	48 8b 84 24 38
	04 00 00	 mov	 rax, QWORD PTR pBuf$[rsp]
  00130	0f be 00	 movsx	 eax, BYTE PTR [rax]
  00133	83 f8 5c	 cmp	 eax, 92			; 0000005cH
  00136	74 10		 je	 SHORT $LN8@changeToAb
  00138	48 8b 84 24 38
	04 00 00	 mov	 rax, QWORD PTR pBuf$[rsp]
  00140	0f be 00	 movsx	 eax, BYTE PTR [rax]
  00143	83 f8 2f	 cmp	 eax, 47			; 0000002fH
  00146	75 0d		 jne	 SHORT $LN6@changeToAb
$LN8@changeToAb:
  00148	48 8b 84 24 38
	04 00 00	 mov	 rax, QWORD PTR pBuf$[rsp]
  00150	c6 00 5c	 mov	 BYTE PTR [rax], 92	; 0000005cH
  00153	eb 1e		 jmp	 SHORT $LN7@changeToAb
$LN6@changeToAb:

; 833  : 		else { pBuf++; *pBuf = g_s;	}

  00155	48 8b 84 24 38
	04 00 00	 mov	 rax, QWORD PTR pBuf$[rsp]
  0015d	48 ff c0	 inc	 rax
  00160	48 89 84 24 38
	04 00 00	 mov	 QWORD PTR pBuf$[rsp], rax
  00168	48 8b 84 24 38
	04 00 00	 mov	 rax, QWORD PTR pBuf$[rsp]
  00170	c6 00 5c	 mov	 BYTE PTR [rax], 92	; 0000005cH
$LN7@changeToAb:

; 834  : 		*(pBuf + 1) = 0;

  00173	48 8b 84 24 38
	04 00 00	 mov	 rax, QWORD PTR pBuf$[rsp]
  0017b	c6 40 01 00	 mov	 BYTE PTR [rax+1], 0
$LN4@changeToAb:

; 835  : 	}
; 836  : }

  0017f	48 8b cc	 mov	 rcx, rsp
  00182	48 8d 15 00 00
	00 00		 lea	 rdx, OFFSET FLAT:?changeToAbsolutePath@@YAXPEADPEBD@Z$rtcFrameData
  00189	e8 00 00 00 00	 call	 _RTC_CheckStackVars
  0018e	48 8b 8c 24 50
	04 00 00	 mov	 rcx, QWORD PTR __$ArrayPad$[rsp]
  00196	48 33 cc	 xor	 rcx, rsp
  00199	e8 00 00 00 00	 call	 __security_check_cookie
  0019e	48 81 c4 60 04
	00 00		 add	 rsp, 1120		; 00000460H
  001a5	5f		 pop	 rdi
  001a6	c3		 ret	 0
?changeToAbsolutePath@@YAXPEADPEBD@Z ENDP		; changeToAbsolutePath
_TEXT	ENDS
; Function compile flags: /Odtp /RTCsu
;	COMDAT ?__autoclassinit2@CLogger@@QEAAX_K@Z
_TEXT	SEGMENT
this$ = 16
classSize$ = 24
?__autoclassinit2@CLogger@@QEAAX_K@Z PROC		; CLogger::__autoclassinit2, COMDAT
$LN3:
  00000	48 89 54 24 10	 mov	 QWORD PTR [rsp+16], rdx
  00005	48 89 4c 24 08	 mov	 QWORD PTR [rsp+8], rcx
  0000a	57		 push	 rdi
  0000b	48 8b 7c 24 10	 mov	 rdi, QWORD PTR this$[rsp]
  00010	33 c0		 xor	 eax, eax
  00012	48 8b 4c 24 18	 mov	 rcx, QWORD PTR classSize$[rsp]
  00017	f3 aa		 rep stosb
  00019	5f		 pop	 rdi
  0001a	c3		 ret	 0
?__autoclassinit2@CLogger@@QEAAX_K@Z ENDP		; CLogger::__autoclassinit2
_TEXT	ENDS
; Function compile flags: /Odtp /RTCsu
; File e:\infinia-library-3.0\com\src\comlogger.cpp
_TEXT	SEGMENT
szFileName$ = 48
bres$ = 308
__$ArrayPad$ = 320
this$ = 352
pFileName$ = 360
nSeq$ = 368
?__openLogger@CLogger@@AEAAXPEBDH@Z PROC		; CLogger::__openLogger

; 429  : {

$LN10:
  00000	44 89 44 24 18	 mov	 DWORD PTR [rsp+24], r8d
  00005	48 89 54 24 10	 mov	 QWORD PTR [rsp+16], rdx
  0000a	48 89 4c 24 08	 mov	 QWORD PTR [rsp+8], rcx
  0000f	57		 push	 rdi
  00010	48 81 ec 50 01
	00 00		 sub	 rsp, 336		; 00000150H
  00017	48 8b fc	 mov	 rdi, rsp
  0001a	b9 54 00 00 00	 mov	 ecx, 84			; 00000054H
  0001f	b8 cc cc cc cc	 mov	 eax, -858993460		; ccccccccH
  00024	f3 ab		 rep stosd
  00026	48 8b 8c 24 60
	01 00 00	 mov	 rcx, QWORD PTR [rsp+352]
  0002e	48 8b 05 00 00
	00 00		 mov	 rax, QWORD PTR __security_cookie
  00035	48 33 c4	 xor	 rax, rsp
  00038	48 89 84 24 40
	01 00 00	 mov	 QWORD PTR __$ArrayPad$[rsp], rax

; 430  : 	//    
; 431  : 	TCHAR szFileName[256];
; 432  : 	bool bres;
; 433  : 
; 434  : 	//m_cLock.enter();
; 435  : 
; 436  : 	if (m_hFile) {

  00040	48 8b 84 24 60
	01 00 00	 mov	 rax, QWORD PTR this$[rsp]
  00048	48 83 b8 88 00
	00 00 00	 cmp	 QWORD PTR [rax+136], 0
  00050	74 3a		 je	 SHORT $LN2@openLogger

; 437  : 		clearLogFlag(IS_LOG_OPEN);

  00052	ba 00 00 04 00	 mov	 edx, 262144		; 00040000H
  00057	48 8b 8c 24 60
	01 00 00	 mov	 rcx, QWORD PTR this$[rsp]
  0005f	e8 00 00 00 00	 call	 ?clearLogFlag@CLogger@@QEAAXW4E_LOG_FLAG@@@Z ; CLogger::clearLogFlag

; 438  : 		fclose(m_hFile); m_hFile = NULL;

  00064	48 8b 84 24 60
	01 00 00	 mov	 rax, QWORD PTR this$[rsp]
  0006c	48 8b 88 88 00
	00 00		 mov	 rcx, QWORD PTR [rax+136]
  00073	ff 15 00 00 00
	00		 call	 QWORD PTR __imp_fclose
  00079	48 8b 84 24 60
	01 00 00	 mov	 rax, QWORD PTR this$[rsp]
  00081	48 c7 80 88 00
	00 00 00 00 00
	00		 mov	 QWORD PTR [rax+136], 0
$LN2@openLogger:

; 439  : 	}
; 440  : 
; 441  : 	memset(szFileName, 0, sizeof(szFileName));

  0008c	41 b8 00 01 00
	00		 mov	 r8d, 256		; 00000100H
  00092	33 d2		 xor	 edx, edx
  00094	48 8d 4c 24 30	 lea	 rcx, QWORD PTR szFileName$[rsp]
  00099	e8 00 00 00 00	 call	 memset

; 442  : 	if (nSeq) { //    .

  0009e	83 bc 24 70 01
	00 00 00	 cmp	 DWORD PTR nSeq$[rsp], 0
  000a6	74 4d		 je	 SHORT $LN3@openLogger

; 443  : 		_stprintf(szFileName, _T("%s.%d"), pFileName, nSeq); // pFileName == m_pFName

  000a8	44 8b 8c 24 70
	01 00 00	 mov	 r9d, DWORD PTR nSeq$[rsp]
  000b0	4c 8b 84 24 68
	01 00 00	 mov	 r8, QWORD PTR pFileName$[rsp]
  000b8	48 8d 15 00 00
	00 00		 lea	 rdx, OFFSET FLAT:$SG86649
  000bf	48 8d 4c 24 30	 lea	 rcx, QWORD PTR szFileName$[rsp]
  000c4	e8 00 00 00 00	 call	 sprintf

; 444  : 
; 445  : 		bres = CFileUtil::renameFile(pFileName, szFileName);

  000c9	48 8d 54 24 30	 lea	 rdx, QWORD PTR szFileName$[rsp]
  000ce	48 8b 8c 24 68
	01 00 00	 mov	 rcx, QWORD PTR pFileName$[rsp]
  000d6	e8 00 00 00 00	 call	 ?renameFile@CFileUtil@@SA_NPEBD0@Z ; CFileUtil::renameFile
  000db	88 84 24 34 01
	00 00		 mov	 BYTE PTR bres$[rsp], al

; 446  : 		//        .
; 447  : 		if (!bres) {

  000e2	0f b6 84 24 34
	01 00 00	 movzx	 eax, BYTE PTR bres$[rsp]
  000ea	85 c0		 test	 eax, eax
  000ec	75 05		 jne	 SHORT $LN5@openLogger

; 448  : 			//m_cLock.leave();
; 449  : 			return;

  000ee	e9 d6 00 00 00	 jmp	 $LN1@openLogger
$LN5@openLogger:

; 450  : 		}		
; 451  : 	}
; 452  : 	else {

  000f3	eb 44		 jmp	 SHORT $LN4@openLogger
$LN3@openLogger:

; 453  : 		if (m_pFName) free(m_pFName);

  000f5	48 8b 84 24 60
	01 00 00	 mov	 rax, QWORD PTR this$[rsp]
  000fd	48 83 b8 90 00
	00 00 00	 cmp	 QWORD PTR [rax+144], 0
  00105	74 15		 je	 SHORT $LN6@openLogger
  00107	48 8b 84 24 60
	01 00 00	 mov	 rax, QWORD PTR this$[rsp]
  0010f	48 8b 88 90 00
	00 00		 mov	 rcx, QWORD PTR [rax+144]
  00116	ff 15 00 00 00
	00		 call	 QWORD PTR __imp_free
$LN6@openLogger:

; 454  : 		m_pFName = _tcsdup(pFileName);

  0011c	48 8b 8c 24 68
	01 00 00	 mov	 rcx, QWORD PTR pFileName$[rsp]
  00124	ff 15 00 00 00
	00		 call	 QWORD PTR __imp__strdup
  0012a	48 8b 8c 24 60
	01 00 00	 mov	 rcx, QWORD PTR this$[rsp]
  00132	48 89 81 90 00
	00 00		 mov	 QWORD PTR [rcx+144], rax
$LN4@openLogger:

; 455  : 	}
; 456  : 
; 457  : 	bres = CFileUtil::MakeDirectory(pFileName);

  00139	48 8b 8c 24 68
	01 00 00	 mov	 rcx, QWORD PTR pFileName$[rsp]
  00141	e8 00 00 00 00	 call	 ?MakeDirectory@CFileUtil@@SA_NPEBD@Z ; CFileUtil::MakeDirectory
  00146	88 84 24 34 01
	00 00		 mov	 BYTE PTR bres$[rsp], al

; 458  : 
; 459  : 	if (bres) {

  0014d	0f b6 84 24 34
	01 00 00	 movzx	 eax, BYTE PTR bres$[rsp]
  00155	85 c0		 test	 eax, eax
  00157	74 70		 je	 SHORT $LN7@openLogger

; 460  : 		m_hFile = _tfopen(pFileName, _T("a+"));

  00159	48 8d 15 00 00
	00 00		 lea	 rdx, OFFSET FLAT:$SG86653
  00160	48 8b 8c 24 68
	01 00 00	 mov	 rcx, QWORD PTR pFileName$[rsp]
  00168	ff 15 00 00 00
	00		 call	 QWORD PTR __imp_fopen
  0016e	48 8b 8c 24 60
	01 00 00	 mov	 rcx, QWORD PTR this$[rsp]
  00176	48 89 81 88 00
	00 00		 mov	 QWORD PTR [rcx+136], rax

; 461  : 		if (m_hFile == NULL) {

  0017d	48 8b 84 24 60
	01 00 00	 mov	 rax, QWORD PTR this$[rsp]
  00185	48 83 b8 88 00
	00 00 00	 cmp	 QWORD PTR [rax+136], 0
  0018d	75 16		 jne	 SHORT $LN8@openLogger

; 462  : 			_tprintf(_T("Can't create log file [%s]\n"), pFileName);

  0018f	48 8b 94 24 68
	01 00 00	 mov	 rdx, QWORD PTR pFileName$[rsp]
  00197	48 8d 0d 00 00
	00 00		 lea	 rcx, OFFSET FLAT:$SG86655
  0019e	e8 00 00 00 00	 call	 printf

; 463  : 			//m_cLock.leave();
; 464  : 			return;

  001a3	eb 24		 jmp	 SHORT $LN1@openLogger
$LN8@openLogger:

; 465  : 		}
; 466  : 
; 467  : 		m_nLogSize = 0;

  001a5	48 8b 84 24 60
	01 00 00	 mov	 rax, QWORD PTR this$[rsp]
  001ad	c7 80 c4 00 00
	00 00 00 00 00	 mov	 DWORD PTR [rax+196], 0

; 468  : 		setLogFlag(IS_LOG_OPEN);

  001b7	ba 00 00 04 00	 mov	 edx, 262144		; 00040000H
  001bc	48 8b 8c 24 60
	01 00 00	 mov	 rcx, QWORD PTR this$[rsp]
  001c4	e8 00 00 00 00	 call	 ?setLogFlag@CLogger@@QEAAXW4E_LOG_FLAG@@@Z ; CLogger::setLogFlag
$LN7@openLogger:
$LN1@openLogger:

; 469  : 	}
; 470  : 	//m_cLock.leave();
; 471  : }

  001c9	48 8b cc	 mov	 rcx, rsp
  001cc	48 8d 15 00 00
	00 00		 lea	 rdx, OFFSET FLAT:?__openLogger@CLogger@@AEAAXPEBDH@Z$rtcFrameData
  001d3	e8 00 00 00 00	 call	 _RTC_CheckStackVars
  001d8	48 8b 8c 24 40
	01 00 00	 mov	 rcx, QWORD PTR __$ArrayPad$[rsp]
  001e0	48 33 cc	 xor	 rcx, rsp
  001e3	e8 00 00 00 00	 call	 __security_check_cookie
  001e8	48 81 c4 50 01
	00 00		 add	 rsp, 336		; 00000150H
  001ef	5f		 pop	 rdi
  001f0	c3		 ret	 0
?__openLogger@CLogger@@AEAAXPEBDH@Z ENDP		; CLogger::__openLogger
_TEXT	ENDS
; Function compile flags: /Odtp /RTCsu
; File e:\infinia-library-3.0\com\src\comlogger.cpp
_TEXT	SEGMENT
t$ = 48
basic$ = 72
cFileTime$ = 104
stDelInfo$7 = 136
stFilter$8 = 184
$T9 = 224
__$ArrayPad$ = 232
this$ = 256
?checkDeleteProc@CLogger@@AEAAXXZ PROC			; CLogger::checkDeleteProc

; 720  : {

$LN5:
  00000	48 89 4c 24 08	 mov	 QWORD PTR [rsp+8], rcx
  00005	57		 push	 rdi
  00006	48 81 ec f0 00
	00 00		 sub	 rsp, 240		; 000000f0H
  0000d	48 8b fc	 mov	 rdi, rsp
  00010	b9 3c 00 00 00	 mov	 ecx, 60			; 0000003cH
  00015	b8 cc cc cc cc	 mov	 eax, -858993460		; ccccccccH
  0001a	f3 ab		 rep stosd
  0001c	48 8b 8c 24 00
	01 00 00	 mov	 rcx, QWORD PTR [rsp+256]
  00024	48 c7 84 24 e0
	00 00 00 fe ff
	ff ff		 mov	 QWORD PTR $T9[rsp], -2
  00030	48 8b 05 00 00
	00 00		 mov	 rax, QWORD PTR __security_cookie
  00037	48 33 c4	 xor	 rax, rsp
  0003a	48 89 84 24 e8
	00 00 00	 mov	 QWORD PTR __$ArrayPad$[rsp], rax

; 721  : 	time_t t, basic;
; 722  : 	CFileTime cFileTime;

  00042	48 8d 4c 24 68	 lea	 rcx, QWORD PTR cFileTime$[rsp]
  00047	e8 00 00 00 00	 call	 ??0CFileTime@@QEAA@XZ	; CFileTime::CFileTime
  0004c	90		 npad	 1

; 723  : 	t = time(NULL);

  0004d	33 c9		 xor	 ecx, ecx
  0004f	e8 00 00 00 00	 call	 time
  00054	48 89 44 24 30	 mov	 QWORD PTR t$[rsp], rax

; 724  : 	if (m_tDeleteGoal <= t) { // proc delete

  00059	48 8b 84 24 00
	01 00 00	 mov	 rax, QWORD PTR this$[rsp]
  00061	48 8b 4c 24 30	 mov	 rcx, QWORD PTR t$[rsp]
  00066	48 39 88 08 01
	00 00		 cmp	 QWORD PTR [rax+264], rcx
  0006d	0f 8f b3 00 00
	00		 jg	 $LN2@checkDelet

; 725  : 		basic = t - m_nDeleteInterval;

  00073	48 8b 84 24 00
	01 00 00	 mov	 rax, QWORD PTR this$[rsp]
  0007b	48 63 80 10 01
	00 00		 movsxd	 rax, DWORD PTR [rax+272]
  00082	48 8b 4c 24 30	 mov	 rcx, QWORD PTR t$[rsp]
  00087	48 2b c8	 sub	 rcx, rax
  0008a	48 8b c1	 mov	 rax, rcx
  0008d	48 89 44 24 48	 mov	 QWORD PTR basic$[rsp], rax

; 726  : 		cFileTime.setFileTime(&basic);

  00092	48 8d 54 24 48	 lea	 rdx, QWORD PTR basic$[rsp]
  00097	48 8d 4c 24 68	 lea	 rcx, QWORD PTR cFileTime$[rsp]
  0009c	e8 00 00 00 00	 call	 ?setFileTime@CFileTime@@QEAAHPEA_J@Z ; CFileTime::setFileTime

; 727  : 		STDelInfo stDelInfo;
; 728  : 		STFilterData stFilter;
; 729  : 		stDelInfo.init(m_pLogDir, true, true);

  000a1	48 c7 44 24 20
	00 00 00 00	 mov	 QWORD PTR [rsp+32], 0
  000aa	41 b1 01	 mov	 r9b, 1
  000ad	41 b0 01	 mov	 r8b, 1
  000b0	48 8b 84 24 00
	01 00 00	 mov	 rax, QWORD PTR this$[rsp]
  000b8	48 8b 90 98 00
	00 00		 mov	 rdx, QWORD PTR [rax+152]
  000bf	48 8d 8c 24 88
	00 00 00	 lea	 rcx, QWORD PTR stDelInfo$7[rsp]
  000c7	e8 00 00 00 00	 call	 ?init@STDelInfo@@QEAAXPEAD_N1PEAX@Z ; STDelInfo::init

; 730  : 		stFilter.pData = &cFileTime;

  000cc	48 8d 44 24 68	 lea	 rax, QWORD PTR cFileTime$[rsp]
  000d1	48 89 84 24 c0
	00 00 00	 mov	 QWORD PTR stFilter$8[rsp+8], rax

; 731  : 		stFilter.pFunc = filter_dateTimeCompare;

  000d9	48 8d 05 00 00
	00 00		 lea	 rax, OFFSET FLAT:?filter_dateTimeCompare@@YA_NPEADPEAX1@Z ; filter_dateTimeCompare
  000e0	48 89 84 24 b8
	00 00 00	 mov	 QWORD PTR stFilter$8[rsp], rax

; 732  : 		CFileUtil::delDirectory(&stDelInfo, &stFilter);

  000e8	48 8d 94 24 b8
	00 00 00	 lea	 rdx, QWORD PTR stFilter$8[rsp]
  000f0	48 8d 8c 24 88
	00 00 00	 lea	 rcx, QWORD PTR stDelInfo$7[rsp]
  000f8	e8 00 00 00 00	 call	 ?delDirectory@CFileUtil@@SAHPEAUSTDelInfo@@PEAUSTFilterData@@@Z ; CFileUtil::delDirectory

; 733  : 		m_tDeleteGoal = t + m_nDeleteInterval;

  000fd	48 8b 84 24 00
	01 00 00	 mov	 rax, QWORD PTR this$[rsp]
  00105	48 63 80 10 01
	00 00		 movsxd	 rax, DWORD PTR [rax+272]
  0010c	48 8b 4c 24 30	 mov	 rcx, QWORD PTR t$[rsp]
  00111	48 03 c8	 add	 rcx, rax
  00114	48 8b c1	 mov	 rax, rcx
  00117	48 8b 8c 24 00
	01 00 00	 mov	 rcx, QWORD PTR this$[rsp]
  0011f	48 89 81 08 01
	00 00		 mov	 QWORD PTR [rcx+264], rax
$LN2@checkDelet:

; 734  : 	}
; 735  : }

  00126	48 8d 4c 24 68	 lea	 rcx, QWORD PTR cFileTime$[rsp]
  0012b	e8 00 00 00 00	 call	 ??1CFileTime@@QEAA@XZ	; CFileTime::~CFileTime
  00130	48 8b cc	 mov	 rcx, rsp
  00133	48 8d 15 00 00
	00 00		 lea	 rdx, OFFSET FLAT:?checkDeleteProc@CLogger@@AEAAXXZ$rtcFrameData
  0013a	e8 00 00 00 00	 call	 _RTC_CheckStackVars
  0013f	48 8b 8c 24 e8
	00 00 00	 mov	 rcx, QWORD PTR __$ArrayPad$[rsp]
  00147	48 33 cc	 xor	 rcx, rsp
  0014a	e8 00 00 00 00	 call	 __security_check_cookie
  0014f	48 81 c4 f0 00
	00 00		 add	 rsp, 240		; 000000f0H
  00156	5f		 pop	 rdi
  00157	c3		 ret	 0
?checkDeleteProc@CLogger@@AEAAXXZ ENDP			; CLogger::checkDeleteProc
_TEXT	ENDS
text$x	SEGMENT
t$ = 48
basic$ = 72
cFileTime$ = 104
stDelInfo$7 = 136
stFilter$8 = 184
$T9 = 224
__$ArrayPad$ = 232
this$ = 256
?dtor$0@?0??checkDeleteProc@CLogger@@AEAAXXZ@4HA PROC	; `CLogger::checkDeleteProc'::`1'::dtor$0
  00000	48 89 4c 24 08	 mov	 QWORD PTR [rsp+8], rcx
  00005	48 89 54 24 10	 mov	 QWORD PTR [rsp+16], rdx
  0000a	55		 push	 rbp
  0000b	57		 push	 rdi
  0000c	48 83 ec 28	 sub	 rsp, 40			; 00000028H
  00010	48 8b ea	 mov	 rbp, rdx
  00013	48 8d 4d 68	 lea	 rcx, QWORD PTR cFileTime$[rbp]
  00017	e8 00 00 00 00	 call	 ??1CFileTime@@QEAA@XZ	; CFileTime::~CFileTime
  0001c	48 83 c4 28	 add	 rsp, 40			; 00000028H
  00020	5f		 pop	 rdi
  00021	5d		 pop	 rbp
  00022	c3		 ret	 0
?dtor$0@?0??checkDeleteProc@CLogger@@AEAAXXZ@4HA ENDP	; `CLogger::checkDeleteProc'::`1'::dtor$0
text$x	ENDS
; Function compile flags: /Odtp /RTCsu
text$x	SEGMENT
t$ = 48
basic$ = 72
cFileTime$ = 104
stDelInfo$7 = 136
stFilter$8 = 184
$T9 = 224
__$ArrayPad$ = 232
this$ = 256
?dtor$0@?0??checkDeleteProc@CLogger@@AEAAXXZ@4HA PROC	; `CLogger::checkDeleteProc'::`1'::dtor$0
  00000	48 89 4c 24 08	 mov	 QWORD PTR [rsp+8], rcx
  00005	48 89 54 24 10	 mov	 QWORD PTR [rsp+16], rdx
  0000a	55		 push	 rbp
  0000b	57		 push	 rdi
  0000c	48 83 ec 28	 sub	 rsp, 40			; 00000028H
  00010	48 8b ea	 mov	 rbp, rdx
  00013	48 8d 4d 68	 lea	 rcx, QWORD PTR cFileTime$[rbp]
  00017	e8 00 00 00 00	 call	 ??1CFileTime@@QEAA@XZ	; CFileTime::~CFileTime
  0001c	48 83 c4 28	 add	 rsp, 40			; 00000028H
  00020	5f		 pop	 rdi
  00021	5d		 pop	 rbp
  00022	c3		 ret	 0
?dtor$0@?0??checkDeleteProc@CLogger@@AEAAXXZ@4HA ENDP	; `CLogger::checkDeleteProc'::`1'::dtor$0
text$x	ENDS
; Function compile flags: /Odtp /RTCsu
; File e:\infinia-library-3.0\com\src\comlogger.cpp
_TEXT	SEGMENT
szBuf$ = 40
chKeepFileUnit$ = 84
nStrLen$ = 88
nUnitSecond$ = 92
nNum$ = 96
i$ = 100
$T4 = 112
__$ArrayPad$ = 120
this$ = 144
pValue$ = 152
?GetKeepInfo@CLogger@@AEAAHPEBD@Z PROC			; CLogger::GetKeepInfo

; 753  : {

$LN23:
  00000	48 89 54 24 10	 mov	 QWORD PTR [rsp+16], rdx
  00005	48 89 4c 24 08	 mov	 QWORD PTR [rsp+8], rcx
  0000a	57		 push	 rdi
  0000b	48 81 ec 80 00
	00 00		 sub	 rsp, 128		; 00000080H
  00012	48 8b fc	 mov	 rdi, rsp
  00015	b9 20 00 00 00	 mov	 ecx, 32			; 00000020H
  0001a	b8 cc cc cc cc	 mov	 eax, -858993460		; ccccccccH
  0001f	f3 ab		 rep stosd
  00021	48 8b 8c 24 90
	00 00 00	 mov	 rcx, QWORD PTR [rsp+144]
  00029	48 8b 05 00 00
	00 00		 mov	 rax, QWORD PTR __security_cookie
  00030	48 33 c4	 xor	 rax, rsp
  00033	48 89 44 24 78	 mov	 QWORD PTR __$ArrayPad$[rsp], rax

; 754  : 	char szBuf[32];
; 755  : 	char chKeepFileUnit;
; 756  : 	int nStrLen;
; 757  : 	int nUnitSecond, nNum;
; 758  : 
; 759  : 	strcpy(szBuf, pValue);

  00038	48 8b 94 24 98
	00 00 00	 mov	 rdx, QWORD PTR pValue$[rsp]
  00040	48 8d 4c 24 28	 lea	 rcx, QWORD PTR szBuf$[rsp]
  00045	e8 00 00 00 00	 call	 strcpy

; 760  : 	nStrLen = (int)strlen(szBuf);

  0004a	48 8d 4c 24 28	 lea	 rcx, QWORD PTR szBuf$[rsp]
  0004f	e8 00 00 00 00	 call	 strlen
  00054	89 44 24 58	 mov	 DWORD PTR nStrLen$[rsp], eax

; 761  : 	if (nStrLen < 2)

  00058	83 7c 24 58 02	 cmp	 DWORD PTR nStrLen$[rsp], 2
  0005d	7d 16		 jge	 SHORT $LN5@GetKeepInf

; 762  : 	{
; 763  : 		printf("GetKeepInfo nStrLen < 2\n");

  0005f	48 8d 0d 00 00
	00 00		 lea	 rcx, OFFSET FLAT:$SG86845
  00066	e8 00 00 00 00	 call	 printf

; 764  : 		return -1;

  0006b	b8 ff ff ff ff	 mov	 eax, -1
  00070	e9 52 01 00 00	 jmp	 $LN1@GetKeepInf
$LN5@GetKeepInf:

; 765  : 	}
; 766  : 
; 767  : 	nStrLen = nStrLen - 1;

  00075	8b 44 24 58	 mov	 eax, DWORD PTR nStrLen$[rsp]
  00079	ff c8		 dec	 eax
  0007b	89 44 24 58	 mov	 DWORD PTR nStrLen$[rsp], eax

; 768  : 	chKeepFileUnit = szBuf[nStrLen];

  0007f	48 63 44 24 58	 movsxd	 rax, DWORD PTR nStrLen$[rsp]
  00084	0f b6 44 04 28	 movzx	 eax, BYTE PTR szBuf$[rsp+rax]
  00089	88 44 24 54	 mov	 BYTE PTR chKeepFileUnit$[rsp], al

; 769  : 	szBuf[nStrLen] = '\0';

  0008d	48 63 44 24 58	 movsxd	 rax, DWORD PTR nStrLen$[rsp]
  00092	48 89 44 24 70	 mov	 QWORD PTR $T4[rsp], rax
  00097	48 83 7c 24 70
	20		 cmp	 QWORD PTR $T4[rsp], 32	; 00000020H
  0009d	73 02		 jae	 SHORT $LN21@GetKeepInf
  0009f	eb 05		 jmp	 SHORT $LN22@GetKeepInf
$LN21@GetKeepInf:
  000a1	e8 00 00 00 00	 call	 __report_rangecheckfailure
$LN22@GetKeepInf:
  000a6	48 8b 44 24 70	 mov	 rax, QWORD PTR $T4[rsp]
  000ab	c6 44 04 28 00	 mov	 BYTE PTR szBuf$[rsp+rax], 0

; 770  : 
; 771  : 	int i;
; 772  : 	for (i = 0; i < nStrLen; i++) {

  000b0	c7 44 24 64 00
	00 00 00	 mov	 DWORD PTR i$[rsp], 0
  000b8	eb 0a		 jmp	 SHORT $LN4@GetKeepInf
$LN2@GetKeepInf:
  000ba	8b 44 24 64	 mov	 eax, DWORD PTR i$[rsp]
  000be	ff c0		 inc	 eax
  000c0	89 44 24 64	 mov	 DWORD PTR i$[rsp], eax
$LN4@GetKeepInf:
  000c4	8b 44 24 58	 mov	 eax, DWORD PTR nStrLen$[rsp]
  000c8	39 44 24 64	 cmp	 DWORD PTR i$[rsp], eax
  000cc	7d 2a		 jge	 SHORT $LN3@GetKeepInf

; 773  : 		if ((szBuf[i] < '0') || (szBuf[i] > '9')) return -2;

  000ce	48 63 44 24 64	 movsxd	 rax, DWORD PTR i$[rsp]
  000d3	0f be 44 04 28	 movsx	 eax, BYTE PTR szBuf$[rsp+rax]
  000d8	83 f8 30	 cmp	 eax, 48			; 00000030H
  000db	7c 0f		 jl	 SHORT $LN7@GetKeepInf
  000dd	48 63 44 24 64	 movsxd	 rax, DWORD PTR i$[rsp]
  000e2	0f be 44 04 28	 movsx	 eax, BYTE PTR szBuf$[rsp+rax]
  000e7	83 f8 39	 cmp	 eax, 57			; 00000039H
  000ea	7e 0a		 jle	 SHORT $LN6@GetKeepInf
$LN7@GetKeepInf:
  000ec	b8 fe ff ff ff	 mov	 eax, -2
  000f1	e9 d1 00 00 00	 jmp	 $LN1@GetKeepInf
$LN6@GetKeepInf:

; 774  : 	}

  000f6	eb c2		 jmp	 SHORT $LN2@GetKeepInf
$LN3@GetKeepInf:

; 775  : 
; 776  : 	nNum = atoi(szBuf);

  000f8	48 8d 4c 24 28	 lea	 rcx, QWORD PTR szBuf$[rsp]
  000fd	ff 15 00 00 00
	00		 call	 QWORD PTR __imp_atoi
  00103	89 44 24 60	 mov	 DWORD PTR nNum$[rsp], eax

; 777  : 
; 778  : 	if ((chKeepFileUnit == 's') || (chKeepFileUnit == 'S')) {

  00107	0f be 44 24 54	 movsx	 eax, BYTE PTR chKeepFileUnit$[rsp]
  0010c	83 f8 73	 cmp	 eax, 115		; 00000073H
  0010f	74 0a		 je	 SHORT $LN10@GetKeepInf
  00111	0f be 44 24 54	 movsx	 eax, BYTE PTR chKeepFileUnit$[rsp]
  00116	83 f8 53	 cmp	 eax, 83			; 00000053H
  00119	75 0a		 jne	 SHORT $LN8@GetKeepInf
$LN10@GetKeepInf:

; 779  : 		nUnitSecond = 1;

  0011b	c7 44 24 5c 01
	00 00 00	 mov	 DWORD PTR nUnitSecond$[rsp], 1
  00123	eb 61		 jmp	 SHORT $LN9@GetKeepInf
$LN8@GetKeepInf:

; 780  : 	}
; 781  : 	else if ((chKeepFileUnit == 'm') || (chKeepFileUnit == 'M')) {

  00125	0f be 44 24 54	 movsx	 eax, BYTE PTR chKeepFileUnit$[rsp]
  0012a	83 f8 6d	 cmp	 eax, 109		; 0000006dH
  0012d	74 0a		 je	 SHORT $LN13@GetKeepInf
  0012f	0f be 44 24 54	 movsx	 eax, BYTE PTR chKeepFileUnit$[rsp]
  00134	83 f8 4d	 cmp	 eax, 77			; 0000004dH
  00137	75 0a		 jne	 SHORT $LN11@GetKeepInf
$LN13@GetKeepInf:

; 782  : 		nUnitSecond = 60;

  00139	c7 44 24 5c 3c
	00 00 00	 mov	 DWORD PTR nUnitSecond$[rsp], 60 ; 0000003cH
  00141	eb 43		 jmp	 SHORT $LN12@GetKeepInf
$LN11@GetKeepInf:

; 783  : 	}
; 784  : 	else if ((chKeepFileUnit == 'h') || (chKeepFileUnit == 'H')) {

  00143	0f be 44 24 54	 movsx	 eax, BYTE PTR chKeepFileUnit$[rsp]
  00148	83 f8 68	 cmp	 eax, 104		; 00000068H
  0014b	74 0a		 je	 SHORT $LN16@GetKeepInf
  0014d	0f be 44 24 54	 movsx	 eax, BYTE PTR chKeepFileUnit$[rsp]
  00152	83 f8 48	 cmp	 eax, 72			; 00000048H
  00155	75 0a		 jne	 SHORT $LN14@GetKeepInf
$LN16@GetKeepInf:

; 785  : 		nUnitSecond = 60 * 60;

  00157	c7 44 24 5c 10
	0e 00 00	 mov	 DWORD PTR nUnitSecond$[rsp], 3600 ; 00000e10H
  0015f	eb 25		 jmp	 SHORT $LN15@GetKeepInf
$LN14@GetKeepInf:

; 786  : 	}
; 787  : 	else if ((chKeepFileUnit == 'd') || (chKeepFileUnit == 'D')) {

  00161	0f be 44 24 54	 movsx	 eax, BYTE PTR chKeepFileUnit$[rsp]
  00166	83 f8 64	 cmp	 eax, 100		; 00000064H
  00169	74 0a		 je	 SHORT $LN19@GetKeepInf
  0016b	0f be 44 24 54	 movsx	 eax, BYTE PTR chKeepFileUnit$[rsp]
  00170	83 f8 44	 cmp	 eax, 68			; 00000044H
  00173	75 0a		 jne	 SHORT $LN17@GetKeepInf
$LN19@GetKeepInf:

; 788  : 		nUnitSecond = 60 * 60 * 24;

  00175	c7 44 24 5c 80
	51 01 00	 mov	 DWORD PTR nUnitSecond$[rsp], 86400 ; 00015180H

; 789  : 	}
; 790  : 	else

  0017d	eb 07		 jmp	 SHORT $LN18@GetKeepInf
$LN17@GetKeepInf:

; 791  : 	{
; 792  : 		return -5;

  0017f	b8 fb ff ff ff	 mov	 eax, -5
  00184	eb 41		 jmp	 SHORT $LN1@GetKeepInf
$LN18@GetKeepInf:
$LN15@GetKeepInf:
$LN12@GetKeepInf:
$LN9@GetKeepInf:

; 793  : 	}
; 794  : 	m_nDeleteInterval = nNum * nUnitSecond;

  00186	8b 44 24 60	 mov	 eax, DWORD PTR nNum$[rsp]
  0018a	0f af 44 24 5c	 imul	 eax, DWORD PTR nUnitSecond$[rsp]
  0018f	48 8b 8c 24 90
	00 00 00	 mov	 rcx, QWORD PTR this$[rsp]
  00197	89 81 10 01 00
	00		 mov	 DWORD PTR [rcx+272], eax

; 795  : 	m_tDeleteGoal = time(NULL) + m_nDeleteInterval;

  0019d	33 c9		 xor	 ecx, ecx
  0019f	e8 00 00 00 00	 call	 time
  001a4	48 8b 8c 24 90
	00 00 00	 mov	 rcx, QWORD PTR this$[rsp]
  001ac	48 63 89 10 01
	00 00		 movsxd	 rcx, DWORD PTR [rcx+272]
  001b3	48 03 c1	 add	 rax, rcx
  001b6	48 8b 8c 24 90
	00 00 00	 mov	 rcx, QWORD PTR this$[rsp]
  001be	48 89 81 08 01
	00 00		 mov	 QWORD PTR [rcx+264], rax

; 796  : 	return 0;

  001c5	33 c0		 xor	 eax, eax
$LN1@GetKeepInf:
$LN20@GetKeepInf:

; 797  : }

  001c7	48 8b f8	 mov	 rdi, rax
  001ca	48 8b cc	 mov	 rcx, rsp
  001cd	48 8d 15 00 00
	00 00		 lea	 rdx, OFFSET FLAT:?GetKeepInfo@CLogger@@AEAAHPEBD@Z$rtcFrameData
  001d4	e8 00 00 00 00	 call	 _RTC_CheckStackVars
  001d9	48 8b c7	 mov	 rax, rdi
  001dc	48 8b 4c 24 78	 mov	 rcx, QWORD PTR __$ArrayPad$[rsp]
  001e1	48 33 cc	 xor	 rcx, rsp
  001e4	e8 00 00 00 00	 call	 __security_check_cookie
  001e9	48 81 c4 80 00
	00 00		 add	 rsp, 128		; 00000080H
  001f0	5f		 pop	 rdi
  001f1	c3		 ret	 0
?GetKeepInfo@CLogger@@AEAAHPEBD@Z ENDP			; CLogger::GetKeepInfo
_TEXT	ENDS
; Function compile flags: /Odtp /RTCsu
; File e:\infinia-library-3.0\com\src\comlogger.cpp
_TEXT	SEGMENT
nRes$ = 32
tv82 = 36
tv133 = 40
tv197 = 44
this$ = 64
pLogDTE$ = 72
?setDateTimeFormat@CLogger@@AEAAXPEAUSTLogDateTimeExp@@@Z PROC ; CLogger::setDateTimeFormat

; 367  : {

$LN30:
  00000	48 89 54 24 10	 mov	 QWORD PTR [rsp+16], rdx
  00005	48 89 4c 24 08	 mov	 QWORD PTR [rsp+8], rcx
  0000a	57		 push	 rdi
  0000b	48 83 ec 30	 sub	 rsp, 48			; 00000030H
  0000f	48 8b fc	 mov	 rdi, rsp
  00012	b9 0c 00 00 00	 mov	 ecx, 12
  00017	b8 cc cc cc cc	 mov	 eax, -858993460		; ccccccccH
  0001c	f3 ab		 rep stosd
  0001e	48 8b 4c 24 40	 mov	 rcx, QWORD PTR [rsp+64]

; 368  : 	int nRes = 0;

  00023	c7 44 24 20 00
	00 00 00	 mov	 DWORD PTR nRes$[rsp], 0

; 369  : 
; 370  : 	if (pLogDTE->bBracketEnclosed) m_szHeaderFormat[nRes++] = _T('[');

  0002b	48 8b 44 24 48	 mov	 rax, QWORD PTR pLogDTE$[rsp]
  00030	0f be 00	 movsx	 eax, BYTE PTR [rax]
  00033	85 c0		 test	 eax, eax
  00035	74 1c		 je	 SHORT $LN8@setDateTim
  00037	48 63 44 24 20	 movsxd	 rax, DWORD PTR nRes$[rsp]
  0003c	48 8b 4c 24 40	 mov	 rcx, QWORD PTR this$[rsp]
  00041	c6 84 01 c8 00
	00 00 5b	 mov	 BYTE PTR [rcx+rax+200], 91 ; 0000005bH
  00049	8b 44 24 20	 mov	 eax, DWORD PTR nRes$[rsp]
  0004d	ff c0		 inc	 eax
  0004f	89 44 24 20	 mov	 DWORD PTR nRes$[rsp], eax
$LN8@setDateTim:

; 371  : 
; 372  : 	if (pLogDTE->nYearLen == 4) {

  00053	48 8b 44 24 48	 mov	 rax, QWORD PTR pLogDTE$[rsp]
  00058	0f be 40 03	 movsx	 eax, BYTE PTR [rax+3]
  0005c	83 f8 04	 cmp	 eax, 4
  0005f	0f 85 91 00 00
	00		 jne	 $LN9@setDateTim

; 373  : 		_tcscpy(m_szHeaderFormat + nRes, _T("%04d")); nRes += 4;

  00065	48 63 44 24 20	 movsxd	 rax, DWORD PTR nRes$[rsp]
  0006a	48 8b 4c 24 40	 mov	 rcx, QWORD PTR this$[rsp]
  0006f	48 8d 84 01 c8
	00 00 00	 lea	 rax, QWORD PTR [rcx+rax+200]
  00077	48 8d 15 00 00
	00 00		 lea	 rdx, OFFSET FLAT:$SG86597
  0007e	48 8b c8	 mov	 rcx, rax
  00081	e8 00 00 00 00	 call	 strcpy
  00086	8b 44 24 20	 mov	 eax, DWORD PTR nRes$[rsp]
  0008a	83 c0 04	 add	 eax, 4
  0008d	89 44 24 20	 mov	 DWORD PTR nRes$[rsp], eax

; 374  : 		switch (pLogDTE->nLastType) {

  00091	48 8b 44 24 48	 mov	 rax, QWORD PTR pLogDTE$[rsp]
  00096	8b 40 04	 mov	 eax, DWORD PTR [rax+4]
  00099	89 44 24 24	 mov	 DWORD PTR tv82[rsp], eax
  0009d	83 7c 24 24 01	 cmp	 DWORD PTR tv82[rsp], 1
  000a2	74 17		 je	 SHORT $LN11@setDateTim
  000a4	83 7c 24 24 02	 cmp	 DWORD PTR tv82[rsp], 2
  000a9	74 1e		 je	 SHORT $LN12@setDateTim
  000ab	83 7c 24 24 03	 cmp	 DWORD PTR tv82[rsp], 3
  000b0	74 25		 je	 SHORT $LN13@setDateTim
  000b2	83 7c 24 24 04	 cmp	 DWORD PTR tv82[rsp], 4
  000b7	74 2c		 je	 SHORT $LN14@setDateTim
  000b9	eb 36		 jmp	 SHORT $LN2@setDateTim
$LN11@setDateTim:

; 375  : 		case DT_SEC: m_nDateTimeFormat = LOG_DATE_YYYYMMDDHHMMSS; break;

  000bb	48 8b 44 24 40	 mov	 rax, QWORD PTR this$[rsp]
  000c0	c7 40 7c 01 00
	00 00		 mov	 DWORD PTR [rax+124], 1
  000c7	eb 28		 jmp	 SHORT $LN2@setDateTim
$LN12@setDateTim:

; 376  : 		case DT_MILLISEC: m_nDateTimeFormat = LOG_DATE_YYYYMMDDHHMMSS3; break;

  000c9	48 8b 44 24 40	 mov	 rax, QWORD PTR this$[rsp]
  000ce	c7 40 7c 02 00
	00 00		 mov	 DWORD PTR [rax+124], 2
  000d5	eb 1a		 jmp	 SHORT $LN2@setDateTim
$LN13@setDateTim:

; 377  : 		case DT_MICROSEC: m_nDateTimeFormat = LOG_DATE_YYYYMMDDHHMMSS6; break;

  000d7	48 8b 44 24 40	 mov	 rax, QWORD PTR this$[rsp]
  000dc	c7 40 7c 03 00
	00 00		 mov	 DWORD PTR [rax+124], 3
  000e3	eb 0c		 jmp	 SHORT $LN2@setDateTim
$LN14@setDateTim:

; 378  : 		case DT_NANOSEC: m_nDateTimeFormat = LOG_DATE_YYYYMMDDHHMMSS9; break;

  000e5	48 8b 44 24 40	 mov	 rax, QWORD PTR this$[rsp]
  000ea	c7 40 7c 04 00
	00 00		 mov	 DWORD PTR [rax+124], 4
$LN2@setDateTim:

; 379  : 		}
; 380  : 	}
; 381  : 	else if (pLogDTE->nYearLen == 2) {

  000f1	e9 ac 00 00 00	 jmp	 $LN10@setDateTim
$LN9@setDateTim:
  000f6	48 8b 44 24 48	 mov	 rax, QWORD PTR pLogDTE$[rsp]
  000fb	0f be 40 03	 movsx	 eax, BYTE PTR [rax+3]
  000ff	83 f8 02	 cmp	 eax, 2
  00102	0f 85 8e 00 00
	00		 jne	 $LN15@setDateTim

; 382  : 		_tcscpy(m_szHeaderFormat + nRes, _T("%s")); nRes += 2;

  00108	48 63 44 24 20	 movsxd	 rax, DWORD PTR nRes$[rsp]
  0010d	48 8b 4c 24 40	 mov	 rcx, QWORD PTR this$[rsp]
  00112	48 8d 84 01 c8
	00 00 00	 lea	 rax, QWORD PTR [rcx+rax+200]
  0011a	48 8d 15 00 00
	00 00		 lea	 rdx, OFFSET FLAT:$SG86604
  00121	48 8b c8	 mov	 rcx, rax
  00124	e8 00 00 00 00	 call	 strcpy
  00129	8b 44 24 20	 mov	 eax, DWORD PTR nRes$[rsp]
  0012d	83 c0 02	 add	 eax, 2
  00130	89 44 24 20	 mov	 DWORD PTR nRes$[rsp], eax

; 383  : 		switch (pLogDTE->nLastType) {

  00134	48 8b 44 24 48	 mov	 rax, QWORD PTR pLogDTE$[rsp]
  00139	8b 40 04	 mov	 eax, DWORD PTR [rax+4]
  0013c	89 44 24 28	 mov	 DWORD PTR tv133[rsp], eax
  00140	83 7c 24 28 01	 cmp	 DWORD PTR tv133[rsp], 1
  00145	74 17		 je	 SHORT $LN17@setDateTim
  00147	83 7c 24 28 02	 cmp	 DWORD PTR tv133[rsp], 2
  0014c	74 1e		 je	 SHORT $LN18@setDateTim
  0014e	83 7c 24 28 03	 cmp	 DWORD PTR tv133[rsp], 3
  00153	74 25		 je	 SHORT $LN19@setDateTim
  00155	83 7c 24 28 04	 cmp	 DWORD PTR tv133[rsp], 4
  0015a	74 2c		 je	 SHORT $LN20@setDateTim
  0015c	eb 36		 jmp	 SHORT $LN4@setDateTim
$LN17@setDateTim:

; 384  : 		case DT_SEC: m_nDateTimeFormat = LOG_DATE_YYMMDDHHMMSS; break;

  0015e	48 8b 44 24 40	 mov	 rax, QWORD PTR this$[rsp]
  00163	c7 40 7c 05 00
	00 00		 mov	 DWORD PTR [rax+124], 5
  0016a	eb 28		 jmp	 SHORT $LN4@setDateTim
$LN18@setDateTim:

; 385  : 		case DT_MILLISEC: m_nDateTimeFormat = LOG_DATE_YYMMDDHHMMSS3; break;

  0016c	48 8b 44 24 40	 mov	 rax, QWORD PTR this$[rsp]
  00171	c7 40 7c 06 00
	00 00		 mov	 DWORD PTR [rax+124], 6
  00178	eb 1a		 jmp	 SHORT $LN4@setDateTim
$LN19@setDateTim:

; 386  : 		case DT_MICROSEC: m_nDateTimeFormat = LOG_DATE_YYMMDDHHMMSS6; break;

  0017a	48 8b 44 24 40	 mov	 rax, QWORD PTR this$[rsp]
  0017f	c7 40 7c 07 00
	00 00		 mov	 DWORD PTR [rax+124], 7
  00186	eb 0c		 jmp	 SHORT $LN4@setDateTim
$LN20@setDateTim:

; 387  : 		case DT_NANOSEC: m_nDateTimeFormat = LOG_DATE_YYMMDDHHMMSS9; break;

  00188	48 8b 44 24 40	 mov	 rax, QWORD PTR this$[rsp]
  0018d	c7 40 7c 08 00
	00 00		 mov	 DWORD PTR [rax+124], 8
$LN4@setDateTim:

; 388  : 		}
; 389  : 	}
; 390  : 	else {

  00194	eb 0c		 jmp	 SHORT $LN16@setDateTim
$LN15@setDateTim:

; 391  : 		m_nDateTimeFormat = LOG_DATE_NONE;

  00196	48 8b 44 24 40	 mov	 rax, QWORD PTR this$[rsp]
  0019b	c7 40 7c 00 00
	00 00		 mov	 DWORD PTR [rax+124], 0
$LN16@setDateTim:
$LN10@setDateTim:

; 392  : 	}
; 393  : 
; 394  : 	if (pLogDTE->cDateDelimeter) nRes += _stprintf(m_szHeaderFormat + nRes, "%c", pLogDTE->cDateDelimeter);

  001a2	48 8b 44 24 48	 mov	 rax, QWORD PTR pLogDTE$[rsp]
  001a7	0f be 40 01	 movsx	 eax, BYTE PTR [rax+1]
  001ab	85 c0		 test	 eax, eax
  001ad	74 36		 je	 SHORT $LN21@setDateTim
  001af	48 8b 44 24 48	 mov	 rax, QWORD PTR pLogDTE$[rsp]
  001b4	0f be 40 01	 movsx	 eax, BYTE PTR [rax+1]
  001b8	48 63 4c 24 20	 movsxd	 rcx, DWORD PTR nRes$[rsp]
  001bd	48 8b 54 24 40	 mov	 rdx, QWORD PTR this$[rsp]
  001c2	48 8d 8c 0a c8
	00 00 00	 lea	 rcx, QWORD PTR [rdx+rcx+200]
  001ca	44 8b c0	 mov	 r8d, eax
  001cd	48 8d 15 00 00
	00 00		 lea	 rdx, OFFSET FLAT:$SG86610
  001d4	e8 00 00 00 00	 call	 sprintf
  001d9	8b 4c 24 20	 mov	 ecx, DWORD PTR nRes$[rsp]
  001dd	03 c8		 add	 ecx, eax
  001df	8b c1		 mov	 eax, ecx
  001e1	89 44 24 20	 mov	 DWORD PTR nRes$[rsp], eax
$LN21@setDateTim:

; 395  : 	_tcscpy(m_szHeaderFormat + nRes, _T("%02d")); nRes += 4;

  001e5	48 63 44 24 20	 movsxd	 rax, DWORD PTR nRes$[rsp]
  001ea	48 8b 4c 24 40	 mov	 rcx, QWORD PTR this$[rsp]
  001ef	48 8d 84 01 c8
	00 00 00	 lea	 rax, QWORD PTR [rcx+rax+200]
  001f7	48 8d 15 00 00
	00 00		 lea	 rdx, OFFSET FLAT:$SG86611
  001fe	48 8b c8	 mov	 rcx, rax
  00201	e8 00 00 00 00	 call	 strcpy
  00206	8b 44 24 20	 mov	 eax, DWORD PTR nRes$[rsp]
  0020a	83 c0 04	 add	 eax, 4
  0020d	89 44 24 20	 mov	 DWORD PTR nRes$[rsp], eax

; 396  : 	if (pLogDTE->cDateDelimeter) nRes += _stprintf(m_szHeaderFormat + nRes, "%c", pLogDTE->cDateDelimeter);

  00211	48 8b 44 24 48	 mov	 rax, QWORD PTR pLogDTE$[rsp]
  00216	0f be 40 01	 movsx	 eax, BYTE PTR [rax+1]
  0021a	85 c0		 test	 eax, eax
  0021c	74 36		 je	 SHORT $LN22@setDateTim
  0021e	48 8b 44 24 48	 mov	 rax, QWORD PTR pLogDTE$[rsp]
  00223	0f be 40 01	 movsx	 eax, BYTE PTR [rax+1]
  00227	48 63 4c 24 20	 movsxd	 rcx, DWORD PTR nRes$[rsp]
  0022c	48 8b 54 24 40	 mov	 rdx, QWORD PTR this$[rsp]
  00231	48 8d 8c 0a c8
	00 00 00	 lea	 rcx, QWORD PTR [rdx+rcx+200]
  00239	44 8b c0	 mov	 r8d, eax
  0023c	48 8d 15 00 00
	00 00		 lea	 rdx, OFFSET FLAT:$SG86613
  00243	e8 00 00 00 00	 call	 sprintf
  00248	8b 4c 24 20	 mov	 ecx, DWORD PTR nRes$[rsp]
  0024c	03 c8		 add	 ecx, eax
  0024e	8b c1		 mov	 eax, ecx
  00250	89 44 24 20	 mov	 DWORD PTR nRes$[rsp], eax
$LN22@setDateTim:

; 397  : 	_tcscpy(m_szHeaderFormat + nRes, _T("%02d ")); nRes += 5;

  00254	48 63 44 24 20	 movsxd	 rax, DWORD PTR nRes$[rsp]
  00259	48 8b 4c 24 40	 mov	 rcx, QWORD PTR this$[rsp]
  0025e	48 8d 84 01 c8
	00 00 00	 lea	 rax, QWORD PTR [rcx+rax+200]
  00266	48 8d 15 00 00
	00 00		 lea	 rdx, OFFSET FLAT:$SG86614
  0026d	48 8b c8	 mov	 rcx, rax
  00270	e8 00 00 00 00	 call	 strcpy
  00275	8b 44 24 20	 mov	 eax, DWORD PTR nRes$[rsp]
  00279	83 c0 05	 add	 eax, 5
  0027c	89 44 24 20	 mov	 DWORD PTR nRes$[rsp], eax

; 398  : 
; 399  : 	if (pLogDTE->bTimeDelimeter) { _tcscpy(m_szHeaderFormat + nRes, _T("%02d:%02d:%02d")); nRes += 14; }

  00280	48 8b 44 24 48	 mov	 rax, QWORD PTR pLogDTE$[rsp]
  00285	0f be 40 02	 movsx	 eax, BYTE PTR [rax+2]
  00289	85 c0		 test	 eax, eax
  0028b	74 2e		 je	 SHORT $LN23@setDateTim
  0028d	48 63 44 24 20	 movsxd	 rax, DWORD PTR nRes$[rsp]
  00292	48 8b 4c 24 40	 mov	 rcx, QWORD PTR this$[rsp]
  00297	48 8d 84 01 c8
	00 00 00	 lea	 rax, QWORD PTR [rcx+rax+200]
  0029f	48 8d 15 00 00
	00 00		 lea	 rdx, OFFSET FLAT:$SG86617
  002a6	48 8b c8	 mov	 rcx, rax
  002a9	e8 00 00 00 00	 call	 strcpy
  002ae	8b 44 24 20	 mov	 eax, DWORD PTR nRes$[rsp]
  002b2	83 c0 0e	 add	 eax, 14
  002b5	89 44 24 20	 mov	 DWORD PTR nRes$[rsp], eax
  002b9	eb 2c		 jmp	 SHORT $LN24@setDateTim
$LN23@setDateTim:

; 400  : 	else { _tcscpy(m_szHeaderFormat + nRes, _T("%02d%02d%02d")); nRes += 12; }

  002bb	48 63 44 24 20	 movsxd	 rax, DWORD PTR nRes$[rsp]
  002c0	48 8b 4c 24 40	 mov	 rcx, QWORD PTR this$[rsp]
  002c5	48 8d 84 01 c8
	00 00 00	 lea	 rax, QWORD PTR [rcx+rax+200]
  002cd	48 8d 15 00 00
	00 00		 lea	 rdx, OFFSET FLAT:$SG86618
  002d4	48 8b c8	 mov	 rcx, rax
  002d7	e8 00 00 00 00	 call	 strcpy
  002dc	8b 44 24 20	 mov	 eax, DWORD PTR nRes$[rsp]
  002e0	83 c0 0c	 add	 eax, 12
  002e3	89 44 24 20	 mov	 DWORD PTR nRes$[rsp], eax
$LN24@setDateTim:

; 401  : 
; 402  : 	switch (pLogDTE->nLastType) {

  002e7	48 8b 44 24 48	 mov	 rax, QWORD PTR pLogDTE$[rsp]
  002ec	8b 40 04	 mov	 eax, DWORD PTR [rax+4]
  002ef	89 44 24 2c	 mov	 DWORD PTR tv197[rsp], eax
  002f3	83 7c 24 2c 02	 cmp	 DWORD PTR tv197[rsp], 2
  002f8	74 13		 je	 SHORT $LN25@setDateTim
  002fa	83 7c 24 2c 03	 cmp	 DWORD PTR tv197[rsp], 3
  002ff	74 3a		 je	 SHORT $LN26@setDateTim
  00301	83 7c 24 2c 04	 cmp	 DWORD PTR tv197[rsp], 4
  00306	74 61		 je	 SHORT $LN27@setDateTim
  00308	e9 88 00 00 00	 jmp	 $LN6@setDateTim
$LN25@setDateTim:

; 403  : 	case DT_MILLISEC: _tcscpy(m_szHeaderFormat + nRes, _T(".%03d")); nRes += 5; break;

  0030d	48 63 44 24 20	 movsxd	 rax, DWORD PTR nRes$[rsp]
  00312	48 8b 4c 24 40	 mov	 rcx, QWORD PTR this$[rsp]
  00317	48 8d 84 01 c8
	00 00 00	 lea	 rax, QWORD PTR [rcx+rax+200]
  0031f	48 8d 15 00 00
	00 00		 lea	 rdx, OFFSET FLAT:$SG86620
  00326	48 8b c8	 mov	 rcx, rax
  00329	e8 00 00 00 00	 call	 strcpy
  0032e	8b 44 24 20	 mov	 eax, DWORD PTR nRes$[rsp]
  00332	83 c0 05	 add	 eax, 5
  00335	89 44 24 20	 mov	 DWORD PTR nRes$[rsp], eax
  00339	eb 5a		 jmp	 SHORT $LN6@setDateTim
$LN26@setDateTim:

; 404  : 	case DT_MICROSEC: _tcscpy(m_szHeaderFormat + nRes, _T(".%06d")); nRes += 5; break;

  0033b	48 63 44 24 20	 movsxd	 rax, DWORD PTR nRes$[rsp]
  00340	48 8b 4c 24 40	 mov	 rcx, QWORD PTR this$[rsp]
  00345	48 8d 84 01 c8
	00 00 00	 lea	 rax, QWORD PTR [rcx+rax+200]
  0034d	48 8d 15 00 00
	00 00		 lea	 rdx, OFFSET FLAT:$SG86622
  00354	48 8b c8	 mov	 rcx, rax
  00357	e8 00 00 00 00	 call	 strcpy
  0035c	8b 44 24 20	 mov	 eax, DWORD PTR nRes$[rsp]
  00360	83 c0 05	 add	 eax, 5
  00363	89 44 24 20	 mov	 DWORD PTR nRes$[rsp], eax
  00367	eb 2c		 jmp	 SHORT $LN6@setDateTim
$LN27@setDateTim:

; 405  : 	case DT_NANOSEC: _tcscpy(m_szHeaderFormat + nRes, _T(".%09d")); nRes += 5; break;

  00369	48 63 44 24 20	 movsxd	 rax, DWORD PTR nRes$[rsp]
  0036e	48 8b 4c 24 40	 mov	 rcx, QWORD PTR this$[rsp]
  00373	48 8d 84 01 c8
	00 00 00	 lea	 rax, QWORD PTR [rcx+rax+200]
  0037b	48 8d 15 00 00
	00 00		 lea	 rdx, OFFSET FLAT:$SG86624
  00382	48 8b c8	 mov	 rcx, rax
  00385	e8 00 00 00 00	 call	 strcpy
  0038a	8b 44 24 20	 mov	 eax, DWORD PTR nRes$[rsp]
  0038e	83 c0 05	 add	 eax, 5
  00391	89 44 24 20	 mov	 DWORD PTR nRes$[rsp], eax
$LN6@setDateTim:

; 406  : 	}
; 407  : 
; 408  : 	if (pLogDTE->bBracketEnclosed) m_szHeaderFormat[nRes++] = _T(']');

  00395	48 8b 44 24 48	 mov	 rax, QWORD PTR pLogDTE$[rsp]
  0039a	0f be 00	 movsx	 eax, BYTE PTR [rax]
  0039d	85 c0		 test	 eax, eax
  0039f	74 1c		 je	 SHORT $LN28@setDateTim
  003a1	48 63 44 24 20	 movsxd	 rax, DWORD PTR nRes$[rsp]
  003a6	48 8b 4c 24 40	 mov	 rcx, QWORD PTR this$[rsp]
  003ab	c6 84 01 c8 00
	00 00 5d	 mov	 BYTE PTR [rcx+rax+200], 93 ; 0000005dH
  003b3	8b 44 24 20	 mov	 eax, DWORD PTR nRes$[rsp]
  003b7	ff c0		 inc	 eax
  003b9	89 44 24 20	 mov	 DWORD PTR nRes$[rsp], eax
$LN28@setDateTim:

; 409  : 	m_szHeaderFormat[nRes] = 0;

  003bd	48 63 44 24 20	 movsxd	 rax, DWORD PTR nRes$[rsp]
  003c2	48 8b 4c 24 40	 mov	 rcx, QWORD PTR this$[rsp]
  003c7	c6 84 01 c8 00
	00 00 00	 mov	 BYTE PTR [rcx+rax+200], 0

; 410  : }

  003cf	48 83 c4 30	 add	 rsp, 48			; 00000030H
  003d3	5f		 pop	 rdi
  003d4	c3		 ret	 0
?setDateTimeFormat@CLogger@@AEAAXPEAUSTLogDateTimeExp@@@Z ENDP ; CLogger::setDateTimeFormat
_TEXT	ENDS
; Function compile flags: /Odtp /RTCsu
; File e:\infinia-library-3.0\com\src\comlogger.cpp
_TEXT	SEGMENT
szBuf$ = 80
__$ArrayPad$ = 224
this$ = 256
pTarget$ = 264
?setLogName@CLogger@@AEAAXPEAD@Z PROC			; CLogger::setLogName

; 738  : {

$LN8:
  00000	48 89 54 24 10	 mov	 QWORD PTR [rsp+16], rdx
  00005	48 89 4c 24 08	 mov	 QWORD PTR [rsp+8], rcx
  0000a	57		 push	 rdi
  0000b	48 81 ec f0 00
	00 00		 sub	 rsp, 240		; 000000f0H
  00012	48 8b fc	 mov	 rdi, rsp
  00015	b9 3c 00 00 00	 mov	 ecx, 60			; 0000003cH
  0001a	b8 cc cc cc cc	 mov	 eax, -858993460		; ccccccccH
  0001f	f3 ab		 rep stosd
  00021	48 8b 8c 24 00
	01 00 00	 mov	 rcx, QWORD PTR [rsp+256]
  00029	48 8b 05 00 00
	00 00		 mov	 rax, QWORD PTR __security_cookie
  00030	48 33 c4	 xor	 rax, rsp
  00033	48 89 84 24 e0
	00 00 00	 mov	 QWORD PTR __$ArrayPad$[rsp], rax

; 739  : 	TCHAR szBuf[128];
; 740  : 	if (m_nLogFlag & LOG_FLAG_DAILY) {

  0003b	48 8b 84 24 00
	01 00 00	 mov	 rax, QWORD PTR this$[rsp]
  00043	8b 80 b4 00 00
	00		 mov	 eax, DWORD PTR [rax+180]
  00049	25 00 02 00 00	 and	 eax, 512		; 00000200H
  0004e	85 c0		 test	 eax, eax
  00050	74 40		 je	 SHORT $LN2@setLogName

; 741  : 		_stprintf(szBuf, _T("%s/%d_%s"), m_pLogDir, gs_today_time.date, m_pLogName);

  00052	48 8b 84 24 00
	01 00 00	 mov	 rax, QWORD PTR this$[rsp]
  0005a	48 8b 80 a0 00
	00 00		 mov	 rax, QWORD PTR [rax+160]
  00061	48 89 44 24 20	 mov	 QWORD PTR [rsp+32], rax
  00066	44 8b 0d 18 00
	00 00		 mov	 r9d, DWORD PTR ?gs_today_time@@3USTTodayTime@@A+24
  0006d	48 8b 84 24 00
	01 00 00	 mov	 rax, QWORD PTR this$[rsp]
  00075	4c 8b 80 98 00
	00 00		 mov	 r8, QWORD PTR [rax+152]
  0007c	48 8d 15 00 00
	00 00		 lea	 rdx, OFFSET FLAT:$SG86823
  00083	48 8d 4c 24 50	 lea	 rcx, QWORD PTR szBuf$[rsp]
  00088	e8 00 00 00 00	 call	 sprintf
  0008d	e9 b7 00 00 00	 jmp	 $LN3@setLogName
$LN2@setLogName:

; 742  : 	}
; 743  : 	else if (m_nLogFlag & LOG_FLAG_HOURLY) {

  00092	48 8b 84 24 00
	01 00 00	 mov	 rax, QWORD PTR this$[rsp]
  0009a	8b 80 b4 00 00
	00		 mov	 eax, DWORD PTR [rax+180]
  000a0	25 00 04 00 00	 and	 eax, 1024		; 00000400H
  000a5	85 c0		 test	 eax, eax
  000a7	74 5a		 je	 SHORT $LN4@setLogName

; 744  : 		_stprintf(szBuf, _T("%s/%d/%s_%02d.%s"), m_pLogDir, gs_today_time.date, m_pLogName, gs_today_time.hour, m_szFileExtension);

  000a9	48 8b 84 24 00
	01 00 00	 mov	 rax, QWORD PTR this$[rsp]
  000b1	48 05 a8 00 00
	00		 add	 rax, 168		; 000000a8H
  000b7	48 89 44 24 30	 mov	 QWORD PTR [rsp+48], rax
  000bc	8b 05 0c 00 00
	00		 mov	 eax, DWORD PTR ?gs_today_time@@3USTTodayTime@@A+12
  000c2	89 44 24 28	 mov	 DWORD PTR [rsp+40], eax
  000c6	48 8b 84 24 00
	01 00 00	 mov	 rax, QWORD PTR this$[rsp]
  000ce	48 8b 80 a0 00
	00 00		 mov	 rax, QWORD PTR [rax+160]
  000d5	48 89 44 24 20	 mov	 QWORD PTR [rsp+32], rax
  000da	44 8b 0d 18 00
	00 00		 mov	 r9d, DWORD PTR ?gs_today_time@@3USTTodayTime@@A+24
  000e1	48 8b 84 24 00
	01 00 00	 mov	 rax, QWORD PTR this$[rsp]
  000e9	4c 8b 80 98 00
	00 00		 mov	 r8, QWORD PTR [rax+152]
  000f0	48 8d 15 00 00
	00 00		 lea	 rdx, OFFSET FLAT:$SG86826
  000f7	48 8d 4c 24 50	 lea	 rcx, QWORD PTR szBuf$[rsp]
  000fc	e8 00 00 00 00	 call	 sprintf
  00101	eb 46		 jmp	 SHORT $LN5@setLogName
$LN4@setLogName:

; 745  : 	}
; 746  : 	else if (m_nLogFlag & LOG_FLAG_FILE) {

  00103	48 8b 84 24 00
	01 00 00	 mov	 rax, QWORD PTR this$[rsp]
  0010b	8b 80 b4 00 00
	00		 mov	 eax, DWORD PTR [rax+180]
  00111	25 00 08 00 00	 and	 eax, 2048		; 00000800H
  00116	85 c0		 test	 eax, eax
  00118	74 2f		 je	 SHORT $LN6@setLogName

; 747  : 		_stprintf(szBuf, _T("%s/%s"), m_pLogDir, m_pLogName);

  0011a	48 8b 84 24 00
	01 00 00	 mov	 rax, QWORD PTR this$[rsp]
  00122	4c 8b 88 a0 00
	00 00		 mov	 r9, QWORD PTR [rax+160]
  00129	48 8b 84 24 00
	01 00 00	 mov	 rax, QWORD PTR this$[rsp]
  00131	4c 8b 80 98 00
	00 00		 mov	 r8, QWORD PTR [rax+152]
  00138	48 8d 15 00 00
	00 00		 lea	 rdx, OFFSET FLAT:$SG86828
  0013f	48 8d 4c 24 50	 lea	 rcx, QWORD PTR szBuf$[rsp]
  00144	e8 00 00 00 00	 call	 sprintf
$LN6@setLogName:
$LN5@setLogName:
$LN3@setLogName:

; 748  : 	}
; 749  : }

  00149	48 8b cc	 mov	 rcx, rsp
  0014c	48 8d 15 00 00
	00 00		 lea	 rdx, OFFSET FLAT:?setLogName@CLogger@@AEAAXPEAD@Z$rtcFrameData
  00153	e8 00 00 00 00	 call	 _RTC_CheckStackVars
  00158	48 8b 8c 24 e0
	00 00 00	 mov	 rcx, QWORD PTR __$ArrayPad$[rsp]
  00160	48 33 cc	 xor	 rcx, rsp
  00163	e8 00 00 00 00	 call	 __security_check_cookie
  00168	48 81 c4 f0 00
	00 00		 add	 rsp, 240		; 000000f0H
  0016f	5f		 pop	 rdi
  00170	c3		 ret	 0
?setLogName@CLogger@@AEAAXPEAD@Z ENDP			; CLogger::setLogName
_TEXT	ENDS
; Function compile flags: /Odtp /RTCsu
; File e:\infinia-library-3.0\com\src\comlogger.cpp
_TEXT	SEGMENT
nQueueMax$ = 32
this$ = 64
nMax$ = 72
?_setLoggerQueue@CLogger@@AEAA_NH@Z PROC		; CLogger::_setLoggerQueue

; 297  : {

$LN8:
  00000	89 54 24 10	 mov	 DWORD PTR [rsp+16], edx
  00004	48 89 4c 24 08	 mov	 QWORD PTR [rsp+8], rcx
  00009	57		 push	 rdi
  0000a	48 83 ec 30	 sub	 rsp, 48			; 00000030H
  0000e	48 8b fc	 mov	 rdi, rsp
  00011	b9 0c 00 00 00	 mov	 ecx, 12
  00016	b8 cc cc cc cc	 mov	 eax, -858993460		; ccccccccH
  0001b	f3 ab		 rep stosd
  0001d	48 8b 4c 24 40	 mov	 rcx, QWORD PTR [rsp+64]

; 298  : 	int nQueueMax = m_sLogQueue.capacity();

  00022	48 8b 44 24 40	 mov	 rax, QWORD PTR this$[rsp]
  00027	48 8b c8	 mov	 rcx, rax
  0002a	e8 00 00 00 00	 call	 ?capacity@CQueueS@@QEAAHXZ ; CQueueS::capacity
  0002f	89 44 24 20	 mov	 DWORD PTR nQueueMax$[rsp], eax

; 299  : 	if (!nQueueMax) { // empty

  00033	83 7c 24 20 00	 cmp	 DWORD PTR nQueueMax$[rsp], 0
  00038	75 50		 jne	 SHORT $LN2@setLoggerQ

; 300  : 		if (!m_sLogQueue.alloc(nMax, eAlloc_Type_BufPool)) {

  0003a	48 8b 44 24 40	 mov	 rax, QWORD PTR this$[rsp]
  0003f	41 b8 04 00 00
	00		 mov	 r8d, 4
  00045	8b 54 24 48	 mov	 edx, DWORD PTR nMax$[rsp]
  00049	48 8b c8	 mov	 rcx, rax
  0004c	e8 00 00 00 00	 call	 ?alloc@CQueueS@@QEAA_NHW4E_ALLOC_TYPE@@@Z ; CQueueS::alloc
  00051	0f b6 c0	 movzx	 eax, al
  00054	85 c0		 test	 eax, eax
  00056	75 30		 jne	 SHORT $LN4@setLoggerQ

; 301  : 			_stprintf(g_szMessage, _T("m_sLogQueue.alloc(20, eAlloc_Type_BufPool) has Failed"));

  00058	48 8d 15 00 00
	00 00		 lea	 rdx, OFFSET FLAT:$SG86540
  0005f	48 8d 0d 00 00
	00 00		 lea	 rcx, OFFSET FLAT:?g_szMessage@@3PADA ; g_szMessage
  00066	e8 00 00 00 00	 call	 sprintf

; 302  : 			comErrorPrint(g_szMessage);

  0006b	41 b8 2e 01 00
	00		 mov	 r8d, 302		; 0000012eH
  00071	48 8d 15 00 00
	00 00		 lea	 rdx, OFFSET FLAT:$SG86541
  00078	48 8d 0d 00 00
	00 00		 lea	 rcx, OFFSET FLAT:?g_szMessage@@3PADA ; g_szMessage
  0007f	e8 00 00 00 00	 call	 ?comGlobalErrorProc@@YAXPEADPEBDH@Z ; comGlobalErrorProc

; 303  : 			return false;

  00084	32 c0		 xor	 al, al
  00086	eb 5e		 jmp	 SHORT $LN1@setLoggerQ
$LN4@setLoggerQ:

; 304  : 		}
; 305  : 	}

  00088	eb 5a		 jmp	 SHORT $LN3@setLoggerQ
$LN2@setLoggerQ:

; 306  : 	else if (nQueueMax < nMax) {

  0008a	8b 44 24 48	 mov	 eax, DWORD PTR nMax$[rsp]
  0008e	39 44 24 20	 cmp	 DWORD PTR nQueueMax$[rsp], eax
  00092	7d 50		 jge	 SHORT $LN5@setLoggerQ

; 307  : 		if (!m_sLogQueue.realloc(nMax, true)) {

  00094	48 8b 44 24 40	 mov	 rax, QWORD PTR this$[rsp]
  00099	41 b0 01	 mov	 r8b, 1
  0009c	8b 54 24 48	 mov	 edx, DWORD PTR nMax$[rsp]
  000a0	48 8b c8	 mov	 rcx, rax
  000a3	e8 00 00 00 00	 call	 ?realloc@CQueueS@@QEAA_NH_N@Z ; CQueueS::realloc
  000a8	0f b6 c0	 movzx	 eax, al
  000ab	85 c0		 test	 eax, eax
  000ad	75 35		 jne	 SHORT $LN6@setLoggerQ

; 308  : 			_stprintf(g_szMessage, _T("m_sLogQueue.realloc(%d,true) has Failed"), nMax);

  000af	44 8b 44 24 48	 mov	 r8d, DWORD PTR nMax$[rsp]
  000b4	48 8d 15 00 00
	00 00		 lea	 rdx, OFFSET FLAT:$SG86544
  000bb	48 8d 0d 00 00
	00 00		 lea	 rcx, OFFSET FLAT:?g_szMessage@@3PADA ; g_szMessage
  000c2	e8 00 00 00 00	 call	 sprintf

; 309  : 			comErrorPrint(g_szMessage);

  000c7	41 b8 35 01 00
	00		 mov	 r8d, 309		; 00000135H
  000cd	48 8d 15 00 00
	00 00		 lea	 rdx, OFFSET FLAT:$SG86545
  000d4	48 8d 0d 00 00
	00 00		 lea	 rcx, OFFSET FLAT:?g_szMessage@@3PADA ; g_szMessage
  000db	e8 00 00 00 00	 call	 ?comGlobalErrorProc@@YAXPEADPEBDH@Z ; comGlobalErrorProc

; 310  : 			return false;

  000e0	32 c0		 xor	 al, al
  000e2	eb 02		 jmp	 SHORT $LN1@setLoggerQ
$LN6@setLoggerQ:
$LN5@setLoggerQ:
$LN3@setLoggerQ:

; 311  : 		}
; 312  : 	}
; 313  : 	return true;

  000e4	b0 01		 mov	 al, 1
$LN1@setLoggerQ:

; 314  : }

  000e6	48 83 c4 30	 add	 rsp, 48			; 00000030H
  000ea	5f		 pop	 rdi
  000eb	c3		 ret	 0
?_setLoggerQueue@CLogger@@AEAA_NH@Z ENDP		; CLogger::_setLoggerQueue
_TEXT	ENDS
; Function compile flags: /Odtp /RTCsu
; File e:\infinia-library-3.0\com\src\comlogger.cpp
_TEXT	SEGMENT
tv64 = 0
this$ = 32
nLogType$ = 40
nPrintLevel$ = 48
nSizeLimit$ = 56
?_setLoggerBasic@CLogger@@AEAAXHHH@Z PROC		; CLogger::_setLoggerBasic

; 316  : {

$LN12:
  00000	44 89 4c 24 20	 mov	 DWORD PTR [rsp+32], r9d
  00005	44 89 44 24 18	 mov	 DWORD PTR [rsp+24], r8d
  0000a	89 54 24 10	 mov	 DWORD PTR [rsp+16], edx
  0000e	48 89 4c 24 08	 mov	 QWORD PTR [rsp+8], rcx
  00013	57		 push	 rdi
  00014	48 83 ec 10	 sub	 rsp, 16
  00018	48 8b fc	 mov	 rdi, rsp
  0001b	b9 04 00 00 00	 mov	 ecx, 4
  00020	b8 cc cc cc cc	 mov	 eax, -858993460		; ccccccccH
  00025	f3 ab		 rep stosd
  00027	48 8b 4c 24 20	 mov	 rcx, QWORD PTR [rsp+32]

; 317  : 	switch (nLogType){

  0002c	8b 44 24 28	 mov	 eax, DWORD PTR nLogType$[rsp]
  00030	89 04 24	 mov	 DWORD PTR tv64[rsp], eax
  00033	83 3c 24 01	 cmp	 DWORD PTR tv64[rsp], 1
  00037	74 11		 je	 SHORT $LN4@setLoggerB
  00039	83 3c 24 02	 cmp	 DWORD PTR tv64[rsp], 2
  0003d	74 42		 je	 SHORT $LN5@setLoggerB
  0003f	83 3c 24 03	 cmp	 DWORD PTR tv64[rsp], 3
  00043	74 73		 je	 SHORT $LN6@setLoggerB
  00045	e9 a3 00 00 00	 jmp	 $LN2@setLoggerB
$LN4@setLoggerB:

; 318  : 		case LOG_TYPE_DAILY: {
; 319  : 			m_nLogFlag |= LOG_FLAG_DAILY; m_nLogFlag &= ~(LOG_FLAG_HOURLY | LOG_FLAG_FILE);

  0004a	48 8b 44 24 20	 mov	 rax, QWORD PTR this$[rsp]
  0004f	8b 80 b4 00 00
	00		 mov	 eax, DWORD PTR [rax+180]
  00055	0f ba e8 09	 bts	 eax, 9
  00059	48 8b 4c 24 20	 mov	 rcx, QWORD PTR this$[rsp]
  0005e	89 81 b4 00 00
	00		 mov	 DWORD PTR [rcx+180], eax
  00064	48 8b 44 24 20	 mov	 rax, QWORD PTR this$[rsp]
  00069	8b 80 b4 00 00
	00		 mov	 eax, DWORD PTR [rax+180]
  0006f	25 ff f3 ff ff	 and	 eax, -3073		; fffffffffffff3ffH
  00074	48 8b 4c 24 20	 mov	 rcx, QWORD PTR this$[rsp]
  00079	89 81 b4 00 00
	00		 mov	 DWORD PTR [rcx+180], eax

; 320  : 		} break;

  0007f	eb 6c		 jmp	 SHORT $LN2@setLoggerB
$LN5@setLoggerB:

; 321  : 		case LOG_TYPE_HOURLY: {
; 322  : 			m_nLogFlag |= LOG_FLAG_HOURLY; m_nLogFlag &= ~(LOG_FLAG_DAILY | LOG_FLAG_FILE);

  00081	48 8b 44 24 20	 mov	 rax, QWORD PTR this$[rsp]
  00086	8b 80 b4 00 00
	00		 mov	 eax, DWORD PTR [rax+180]
  0008c	0f ba e8 0a	 bts	 eax, 10
  00090	48 8b 4c 24 20	 mov	 rcx, QWORD PTR this$[rsp]
  00095	89 81 b4 00 00
	00		 mov	 DWORD PTR [rcx+180], eax
  0009b	48 8b 44 24 20	 mov	 rax, QWORD PTR this$[rsp]
  000a0	8b 80 b4 00 00
	00		 mov	 eax, DWORD PTR [rax+180]
  000a6	25 ff f5 ff ff	 and	 eax, -2561		; fffffffffffff5ffH
  000ab	48 8b 4c 24 20	 mov	 rcx, QWORD PTR this$[rsp]
  000b0	89 81 b4 00 00
	00		 mov	 DWORD PTR [rcx+180], eax

; 323  : 		}  break;

  000b6	eb 35		 jmp	 SHORT $LN2@setLoggerB
$LN6@setLoggerB:

; 324  : 		case LOG_TYPE_FILE: {
; 325  : 			m_nLogFlag |= LOG_FLAG_FILE; m_nLogFlag &= ~(LOG_FLAG_DAILY | LOG_FLAG_HOURLY);

  000b8	48 8b 44 24 20	 mov	 rax, QWORD PTR this$[rsp]
  000bd	8b 80 b4 00 00
	00		 mov	 eax, DWORD PTR [rax+180]
  000c3	0f ba e8 0b	 bts	 eax, 11
  000c7	48 8b 4c 24 20	 mov	 rcx, QWORD PTR this$[rsp]
  000cc	89 81 b4 00 00
	00		 mov	 DWORD PTR [rcx+180], eax
  000d2	48 8b 44 24 20	 mov	 rax, QWORD PTR this$[rsp]
  000d7	8b 80 b4 00 00
	00		 mov	 eax, DWORD PTR [rax+180]
  000dd	25 ff f9 ff ff	 and	 eax, -1537		; fffffffffffff9ffH
  000e2	48 8b 4c 24 20	 mov	 rcx, QWORD PTR this$[rsp]
  000e7	89 81 b4 00 00
	00		 mov	 DWORD PTR [rcx+180], eax
$LN2@setLoggerB:

; 326  : 		} break;
; 327  : 	}
; 328  : 	if (nPrintLevel) m_nLogFlag |= IS_PRINT_LEVEL;

  000ed	83 7c 24 30 00	 cmp	 DWORD PTR nPrintLevel$[rsp], 0
  000f2	74 1c		 je	 SHORT $LN7@setLoggerB
  000f4	48 8b 44 24 20	 mov	 rax, QWORD PTR this$[rsp]
  000f9	8b 80 b4 00 00
	00		 mov	 eax, DWORD PTR [rax+180]
  000ff	0f ba e8 0e	 bts	 eax, 14
  00103	48 8b 4c 24 20	 mov	 rcx, QWORD PTR this$[rsp]
  00108	89 81 b4 00 00
	00		 mov	 DWORD PTR [rcx+180], eax
  0010e	eb 1a		 jmp	 SHORT $LN8@setLoggerB
$LN7@setLoggerB:

; 329  : 	else m_nLogFlag &= ~IS_PRINT_LEVEL;

  00110	48 8b 44 24 20	 mov	 rax, QWORD PTR this$[rsp]
  00115	8b 80 b4 00 00
	00		 mov	 eax, DWORD PTR [rax+180]
  0011b	0f ba f0 0e	 btr	 eax, 14
  0011f	48 8b 4c 24 20	 mov	 rcx, QWORD PTR this$[rsp]
  00124	89 81 b4 00 00
	00		 mov	 DWORD PTR [rcx+180], eax
$LN8@setLoggerB:

; 330  : 
; 331  : 	if (nSizeLimit) m_nLogFlag |= LOG_FLAG_SIZEOVER;

  0012a	83 7c 24 38 00	 cmp	 DWORD PTR nSizeLimit$[rsp], 0
  0012f	74 1c		 je	 SHORT $LN9@setLoggerB
  00131	48 8b 44 24 20	 mov	 rax, QWORD PTR this$[rsp]
  00136	8b 80 b4 00 00
	00		 mov	 eax, DWORD PTR [rax+180]
  0013c	0f ba e8 0c	 bts	 eax, 12
  00140	48 8b 4c 24 20	 mov	 rcx, QWORD PTR this$[rsp]
  00145	89 81 b4 00 00
	00		 mov	 DWORD PTR [rcx+180], eax
  0014b	eb 1a		 jmp	 SHORT $LN10@setLoggerB
$LN9@setLoggerB:

; 332  : 	else m_nLogFlag &= ~LOG_FLAG_SIZEOVER;

  0014d	48 8b 44 24 20	 mov	 rax, QWORD PTR this$[rsp]
  00152	8b 80 b4 00 00
	00		 mov	 eax, DWORD PTR [rax+180]
  00158	0f ba f0 0c	 btr	 eax, 12
  0015c	48 8b 4c 24 20	 mov	 rcx, QWORD PTR this$[rsp]
  00161	89 81 b4 00 00
	00		 mov	 DWORD PTR [rcx+180], eax
$LN10@setLoggerB:

; 333  : 	m_nSizeLimit = nSizeLimit;

  00167	48 8b 44 24 20	 mov	 rax, QWORD PTR this$[rsp]
  0016c	8b 4c 24 38	 mov	 ecx, DWORD PTR nSizeLimit$[rsp]
  00170	89 88 c0 00 00
	00		 mov	 DWORD PTR [rax+192], ecx

; 334  : }

  00176	48 83 c4 10	 add	 rsp, 16
  0017a	5f		 pop	 rdi
  0017b	c3		 ret	 0
?_setLoggerBasic@CLogger@@AEAAXHHH@Z ENDP		; CLogger::_setLoggerBasic
_TEXT	ENDS
; Function compile flags: /Odtp /RTCsu
; File e:\infinia-library-3.0\com\src\comlogger.cpp
_TEXT	SEGMENT
pDTE$ = 32
this$ = 64
nTimeStempNo$ = 72
?_setHeaderFormat@CLogger@@AEAA_NH@Z PROC		; CLogger::_setHeaderFormat

; 336  : {

$LN6:
  00000	89 54 24 10	 mov	 DWORD PTR [rsp+16], edx
  00004	48 89 4c 24 08	 mov	 QWORD PTR [rsp+8], rcx
  00009	57		 push	 rdi
  0000a	48 83 ec 30	 sub	 rsp, 48			; 00000030H
  0000e	48 8b fc	 mov	 rdi, rsp
  00011	b9 0c 00 00 00	 mov	 ecx, 12
  00016	b8 cc cc cc cc	 mov	 eax, -858993460		; ccccccccH
  0001b	f3 ab		 rep stosd
  0001d	48 8b 4c 24 40	 mov	 rcx, QWORD PTR [rsp+64]

; 337  : 	STLogDateTimeExp *pDTE = gs_DTEManager.getDTE(nTimeStempNo);

  00022	8b 54 24 48	 mov	 edx, DWORD PTR nTimeStempNo$[rsp]
  00026	48 8d 0d 00 00
	00 00		 lea	 rcx, OFFSET FLAT:?gs_DTEManager@@3VCTimeExpManager@@A ; gs_DTEManager
  0002d	e8 00 00 00 00	 call	 ?getDTE@CTimeExpManager@@QEAAPEAUSTLogDateTimeExp@@H@Z ; CTimeExpManager::getDTE
  00032	48 89 44 24 20	 mov	 QWORD PTR pDTE$[rsp], rax

; 338  : 	if (!pDTE) {

  00037	48 83 7c 24 20
	00		 cmp	 QWORD PTR pDTE$[rsp], 0
  0003d	75 37		 jne	 SHORT $LN2@setHeaderF

; 339  : 		_stprintf(g_szMessage, _T("m_pDTE is NULL! nTimeStempNo[%d]"), nTimeStempNo);

  0003f	44 8b 44 24 48	 mov	 r8d, DWORD PTR nTimeStempNo$[rsp]
  00044	48 8d 15 00 00
	00 00		 lea	 rdx, OFFSET FLAT:$SG86568
  0004b	48 8d 0d 00 00
	00 00		 lea	 rcx, OFFSET FLAT:?g_szMessage@@3PADA ; g_szMessage
  00052	e8 00 00 00 00	 call	 sprintf

; 340  : 		comErrorPrint(g_szMessage);

  00057	41 b8 54 01 00
	00		 mov	 r8d, 340		; 00000154H
  0005d	48 8d 15 00 00
	00 00		 lea	 rdx, OFFSET FLAT:$SG86569
  00064	48 8d 0d 00 00
	00 00		 lea	 rcx, OFFSET FLAT:?g_szMessage@@3PADA ; g_szMessage
  0006b	e8 00 00 00 00	 call	 ?comGlobalErrorProc@@YAXPEADPEBDH@Z ; comGlobalErrorProc

; 341  : 		return false;

  00070	32 c0		 xor	 al, al
  00072	eb 37		 jmp	 SHORT $LN1@setHeaderF
  00074	eb 33		 jmp	 SHORT $LN3@setHeaderF
$LN2@setHeaderF:

; 342  : 	}
; 343  : 	else if (m_pDTE != pDTE) {

  00076	48 8b 44 24 40	 mov	 rax, QWORD PTR this$[rsp]
  0007b	48 8b 4c 24 20	 mov	 rcx, QWORD PTR pDTE$[rsp]
  00080	48 39 88 80 00
	00 00		 cmp	 QWORD PTR [rax+128], rcx
  00087	74 20		 je	 SHORT $LN4@setHeaderF

; 344  : 		setDateTimeFormat(pDTE);

  00089	48 8b 54 24 20	 mov	 rdx, QWORD PTR pDTE$[rsp]
  0008e	48 8b 4c 24 40	 mov	 rcx, QWORD PTR this$[rsp]
  00093	e8 00 00 00 00	 call	 ?setDateTimeFormat@CLogger@@AEAAXPEAUSTLogDateTimeExp@@@Z ; CLogger::setDateTimeFormat

; 345  : 		m_pDTE = pDTE;

  00098	48 8b 44 24 40	 mov	 rax, QWORD PTR this$[rsp]
  0009d	48 8b 4c 24 20	 mov	 rcx, QWORD PTR pDTE$[rsp]
  000a2	48 89 88 80 00
	00 00		 mov	 QWORD PTR [rax+128], rcx
$LN4@setHeaderF:
$LN3@setHeaderF:

; 346  : 	}
; 347  : 	return true;

  000a9	b0 01		 mov	 al, 1
$LN1@setHeaderF:

; 348  : }

  000ab	48 83 c4 30	 add	 rsp, 48			; 00000030H
  000af	5f		 pop	 rdi
  000b0	c3		 ret	 0
?_setHeaderFormat@CLogger@@AEAA_NH@Z ENDP		; CLogger::_setHeaderFormat
_TEXT	ENDS
; Function compile flags: /Odtp /RTCsu
; File e:\infinia-library-3.0\com\src\comlogger.cpp
_TEXT	SEGMENT
nStrLen$ = 32
bSet$ = 40
$T1 = 48
$T2 = 56
$T3 = 64
$T4 = 72
this$ = 96
pDir$ = 104
pName$ = 112
pFileExtension$ = 120
pKeepDuration$ = 128
?_initCom@CLogger@@AEAAXPEAD000@Z PROC			; CLogger::_initCom

; 261  : {

$LN12:
  00000	4c 89 4c 24 20	 mov	 QWORD PTR [rsp+32], r9
  00005	4c 89 44 24 18	 mov	 QWORD PTR [rsp+24], r8
  0000a	48 89 54 24 10	 mov	 QWORD PTR [rsp+16], rdx
  0000f	48 89 4c 24 08	 mov	 QWORD PTR [rsp+8], rcx
  00014	57		 push	 rdi
  00015	48 83 ec 50	 sub	 rsp, 80			; 00000050H
  00019	48 8b fc	 mov	 rdi, rsp
  0001c	b9 14 00 00 00	 mov	 ecx, 20
  00021	b8 cc cc cc cc	 mov	 eax, -858993460		; ccccccccH
  00026	f3 ab		 rep stosd
  00028	48 8b 4c 24 60	 mov	 rcx, QWORD PTR [rsp+96]

; 262  : 	size_t nStrLen = _tcslen(pDir);

  0002d	48 8b 4c 24 68	 mov	 rcx, QWORD PTR pDir$[rsp]
  00032	e8 00 00 00 00	 call	 strlen
  00037	48 89 44 24 20	 mov	 QWORD PTR nStrLen$[rsp], rax

; 263  : 	bool bSet = true;

  0003c	c6 44 24 28 01	 mov	 BYTE PTR bSet$[rsp], 1

; 264  : 	if (m_pLogDir) {

  00041	48 8b 44 24 60	 mov	 rax, QWORD PTR this$[rsp]
  00046	48 83 b8 98 00
	00 00 00	 cmp	 QWORD PTR [rax+152], 0
  0004e	74 3c		 je	 SHORT $LN2@initCom

; 265  : 		if (_tcscmp(pDir, m_pLogDir)) {

  00050	48 8b 44 24 60	 mov	 rax, QWORD PTR this$[rsp]
  00055	48 8b 90 98 00
	00 00		 mov	 rdx, QWORD PTR [rax+152]
  0005c	48 8b 4c 24 68	 mov	 rcx, QWORD PTR pDir$[rsp]
  00061	e8 00 00 00 00	 call	 _tcscmp
  00066	85 c0		 test	 eax, eax
  00068	74 1d		 je	 SHORT $LN3@initCom

; 266  : 			delete[] m_pLogDir;

  0006a	48 8b 44 24 60	 mov	 rax, QWORD PTR this$[rsp]
  0006f	48 8b 80 98 00
	00 00		 mov	 rax, QWORD PTR [rax+152]
  00076	48 89 44 24 30	 mov	 QWORD PTR $T1[rsp], rax
  0007b	48 8b 4c 24 30	 mov	 rcx, QWORD PTR $T1[rsp]
  00080	e8 00 00 00 00	 call	 ??_V@YAXPEAX@Z		; operator delete[]
  00085	eb 05		 jmp	 SHORT $LN4@initCom
$LN3@initCom:

; 267  : 		}
; 268  : 		else bSet = false;

  00087	c6 44 24 28 00	 mov	 BYTE PTR bSet$[rsp], 0
$LN4@initCom:
$LN2@initCom:

; 269  : 	}
; 270  : 
; 271  : 	if (bSet) {

  0008c	0f b6 44 24 28	 movzx	 eax, BYTE PTR bSet$[rsp]
  00091	85 c0		 test	 eax, eax
  00093	74 3c		 je	 SHORT $LN5@initCom

; 272  : 		m_pLogDir = new TCHAR[nStrLen + 1];

  00095	48 8b 44 24 20	 mov	 rax, QWORD PTR nStrLen$[rsp]
  0009a	48 ff c0	 inc	 rax
  0009d	48 8b c8	 mov	 rcx, rax
  000a0	e8 00 00 00 00	 call	 ??_U@YAPEAX_K@Z		; operator new[]
  000a5	48 89 44 24 38	 mov	 QWORD PTR $T2[rsp], rax
  000aa	48 8b 44 24 60	 mov	 rax, QWORD PTR this$[rsp]
  000af	48 8b 4c 24 38	 mov	 rcx, QWORD PTR $T2[rsp]
  000b4	48 89 88 98 00
	00 00		 mov	 QWORD PTR [rax+152], rcx

; 273  : 		_tcscpy(m_pLogDir, pDir);

  000bb	48 8b 54 24 68	 mov	 rdx, QWORD PTR pDir$[rsp]
  000c0	48 8b 44 24 60	 mov	 rax, QWORD PTR this$[rsp]
  000c5	48 8b 88 98 00
	00 00		 mov	 rcx, QWORD PTR [rax+152]
  000cc	e8 00 00 00 00	 call	 strcpy
$LN5@initCom:

; 274  : 	}
; 275  : 
; 276  : 	bSet = true;

  000d1	c6 44 24 28 01	 mov	 BYTE PTR bSet$[rsp], 1

; 277  : 	if (m_pLogName) {

  000d6	48 8b 44 24 60	 mov	 rax, QWORD PTR this$[rsp]
  000db	48 83 b8 a0 00
	00 00 00	 cmp	 QWORD PTR [rax+160], 0
  000e3	74 3c		 je	 SHORT $LN6@initCom

; 278  : 		if (_tcscmp(pDir, m_pLogName)) {

  000e5	48 8b 44 24 60	 mov	 rax, QWORD PTR this$[rsp]
  000ea	48 8b 90 a0 00
	00 00		 mov	 rdx, QWORD PTR [rax+160]
  000f1	48 8b 4c 24 68	 mov	 rcx, QWORD PTR pDir$[rsp]
  000f6	e8 00 00 00 00	 call	 _tcscmp
  000fb	85 c0		 test	 eax, eax
  000fd	74 1d		 je	 SHORT $LN7@initCom

; 279  : 			delete[] m_pLogName;

  000ff	48 8b 44 24 60	 mov	 rax, QWORD PTR this$[rsp]
  00104	48 8b 80 a0 00
	00 00		 mov	 rax, QWORD PTR [rax+160]
  0010b	48 89 44 24 40	 mov	 QWORD PTR $T3[rsp], rax
  00110	48 8b 4c 24 40	 mov	 rcx, QWORD PTR $T3[rsp]
  00115	e8 00 00 00 00	 call	 ??_V@YAXPEAX@Z		; operator delete[]
  0011a	eb 05		 jmp	 SHORT $LN8@initCom
$LN7@initCom:

; 280  : 		}
; 281  : 		else bSet = false;

  0011c	c6 44 24 28 00	 mov	 BYTE PTR bSet$[rsp], 0
$LN8@initCom:
$LN6@initCom:

; 282  : 	}
; 283  : 
; 284  : 	if (bSet) {

  00121	0f b6 44 24 28	 movzx	 eax, BYTE PTR bSet$[rsp]
  00126	85 c0		 test	 eax, eax
  00128	74 4b		 je	 SHORT $LN9@initCom

; 285  : 		nStrLen = _tcslen(pName);

  0012a	48 8b 4c 24 70	 mov	 rcx, QWORD PTR pName$[rsp]
  0012f	e8 00 00 00 00	 call	 strlen
  00134	48 89 44 24 20	 mov	 QWORD PTR nStrLen$[rsp], rax

; 286  : 		m_pLogName = new TCHAR[nStrLen + 1];

  00139	48 8b 44 24 20	 mov	 rax, QWORD PTR nStrLen$[rsp]
  0013e	48 ff c0	 inc	 rax
  00141	48 8b c8	 mov	 rcx, rax
  00144	e8 00 00 00 00	 call	 ??_U@YAPEAX_K@Z		; operator new[]
  00149	48 89 44 24 48	 mov	 QWORD PTR $T4[rsp], rax
  0014e	48 8b 44 24 60	 mov	 rax, QWORD PTR this$[rsp]
  00153	48 8b 4c 24 48	 mov	 rcx, QWORD PTR $T4[rsp]
  00158	48 89 88 a0 00
	00 00		 mov	 QWORD PTR [rax+160], rcx

; 287  : 		_tcscpy(m_pLogName, pName);

  0015f	48 8b 54 24 70	 mov	 rdx, QWORD PTR pName$[rsp]
  00164	48 8b 44 24 60	 mov	 rax, QWORD PTR this$[rsp]
  00169	48 8b 88 a0 00
	00 00		 mov	 rcx, QWORD PTR [rax+160]
  00170	e8 00 00 00 00	 call	 strcpy
$LN9@initCom:

; 288  : 	}
; 289  : 
; 290  : 	if (_tcscmp(pFileExtension, m_szFileExtension)) {

  00175	48 8b 44 24 60	 mov	 rax, QWORD PTR this$[rsp]
  0017a	48 05 a8 00 00
	00		 add	 rax, 168		; 000000a8H
  00180	48 8b d0	 mov	 rdx, rax
  00183	48 8b 4c 24 78	 mov	 rcx, QWORD PTR pFileExtension$[rsp]
  00188	e8 00 00 00 00	 call	 _tcscmp
  0018d	85 c0		 test	 eax, eax
  0018f	74 18		 je	 SHORT $LN10@initCom

; 291  : 		_tcscpy(m_szFileExtension, pFileExtension);

  00191	48 8b 44 24 60	 mov	 rax, QWORD PTR this$[rsp]
  00196	48 05 a8 00 00
	00		 add	 rax, 168		; 000000a8H
  0019c	48 8b 54 24 78	 mov	 rdx, QWORD PTR pFileExtension$[rsp]
  001a1	48 8b c8	 mov	 rcx, rax
  001a4	e8 00 00 00 00	 call	 strcpy
$LN10@initCom:

; 292  : 	}
; 293  : 
; 294  : 	GetKeepInfo(pKeepDuration);

  001a9	48 8b 94 24 80
	00 00 00	 mov	 rdx, QWORD PTR pKeepDuration$[rsp]
  001b1	48 8b 4c 24 60	 mov	 rcx, QWORD PTR this$[rsp]
  001b6	e8 00 00 00 00	 call	 ?GetKeepInfo@CLogger@@AEAAHPEBD@Z ; CLogger::GetKeepInfo

; 295  : }

  001bb	48 83 c4 50	 add	 rsp, 80			; 00000050H
  001bf	5f		 pop	 rdi
  001c0	c3		 ret	 0
?_initCom@CLogger@@AEAAXPEAD000@Z ENDP			; CLogger::_initCom
_TEXT	ENDS
; Function compile flags: /Odtp /RTCsu
; File e:\infinia-library-3.0\com\include\comlogger.h
;	COMDAT ?putQueue@CLogger@@QEAAXPEAD@Z
_TEXT	SEGMENT
this$ = 48
p$ = 56
?putQueue@CLogger@@QEAAXPEAD@Z PROC			; CLogger::putQueue, COMDAT

; 207  : 	void putQueue(TCHAR *p) { if (m_sLogQueue.push(p)) m_pCondition->signal(); }

$LN4:
  00000	48 89 54 24 10	 mov	 QWORD PTR [rsp+16], rdx
  00005	48 89 4c 24 08	 mov	 QWORD PTR [rsp+8], rcx
  0000a	57		 push	 rdi
  0000b	48 83 ec 20	 sub	 rsp, 32			; 00000020H
  0000f	48 8b fc	 mov	 rdi, rsp
  00012	b9 08 00 00 00	 mov	 ecx, 8
  00017	b8 cc cc cc cc	 mov	 eax, -858993460		; ccccccccH
  0001c	f3 ab		 rep stosd
  0001e	48 8b 4c 24 30	 mov	 rcx, QWORD PTR [rsp+48]
  00023	48 8b 44 24 30	 mov	 rax, QWORD PTR this$[rsp]
  00028	48 8b 54 24 38	 mov	 rdx, QWORD PTR p$[rsp]
  0002d	48 8b c8	 mov	 rcx, rax
  00030	e8 00 00 00 00	 call	 ?push@CQueueS@@QEAA_NPEAX@Z ; CQueueS::push
  00035	0f b6 c0	 movzx	 eax, al
  00038	85 c0		 test	 eax, eax
  0003a	74 18		 je	 SHORT $LN2@putQueue
  0003c	48 8b 44 24 30	 mov	 rax, QWORD PTR this$[rsp]
  00041	48 8b 40 68	 mov	 rax, QWORD PTR [rax+104]
  00045	48 8b 4c 24 30	 mov	 rcx, QWORD PTR this$[rsp]
  0004a	48 8b 49 68	 mov	 rcx, QWORD PTR [rcx+104]
  0004e	48 8b 00	 mov	 rax, QWORD PTR [rax]
  00051	ff 50 08	 call	 QWORD PTR [rax+8]
$LN2@putQueue:
  00054	48 83 c4 20	 add	 rsp, 32			; 00000020H
  00058	5f		 pop	 rdi
  00059	c3		 ret	 0
?putQueue@CLogger@@QEAAXPEAD@Z ENDP			; CLogger::putQueue
_TEXT	ENDS
; Function compile flags: /Odtp /RTCsu
; File e:\infinia-library-3.0\com\src\comlogger.cpp
_TEXT	SEGMENT
nLen$ = 48
szBuf$ = 80
cDateTime$ = 176
$T5 = 304
$T6 = 312
__$ArrayPad$ = 320
this$ = 352
pDest$ = 360
?getString@CLogger@@QEAAHPEAD@Z PROC			; CLogger::getString

; 229  : {

$LN10:
  00000	48 89 54 24 10	 mov	 QWORD PTR [rsp+16], rdx
  00005	48 89 4c 24 08	 mov	 QWORD PTR [rsp+8], rcx
  0000a	57		 push	 rdi
  0000b	48 81 ec 50 01
	00 00		 sub	 rsp, 336		; 00000150H
  00012	48 8b fc	 mov	 rdi, rsp
  00015	b9 54 00 00 00	 mov	 ecx, 84			; 00000054H
  0001a	b8 cc cc cc cc	 mov	 eax, -858993460		; ccccccccH
  0001f	f3 ab		 rep stosd
  00021	48 8b 8c 24 60
	01 00 00	 mov	 rcx, QWORD PTR [rsp+352]
  00029	48 c7 84 24 38
	01 00 00 fe ff
	ff ff		 mov	 QWORD PTR $T6[rsp], -2
  00035	48 8b 05 00 00
	00 00		 mov	 rax, QWORD PTR __security_cookie
  0003c	48 33 c4	 xor	 rax, rsp
  0003f	48 89 84 24 40
	01 00 00	 mov	 QWORD PTR __$ArrayPad$[rsp], rax

; 230  : 	int nLen;
; 231  : 	if (!isLogFlag(IS_LOG_SET_COMPLETE)) {

  00047	ba 00 00 02 00	 mov	 edx, 131072		; 00020000H
  0004c	48 8b 8c 24 60
	01 00 00	 mov	 rcx, QWORD PTR this$[rsp]
  00054	e8 00 00 00 00	 call	 ?isLogFlag@CLogger@@QEAA_NW4E_LOG_FLAG@@@Z ; CLogger::isLogFlag
  00059	0f b6 c0	 movzx	 eax, al
  0005c	85 c0		 test	 eax, eax
  0005e	75 14		 jne	 SHORT $LN2@getString

; 232  : 		_tcscpy(pDest, _T("Logger is not Initialized!"));

  00060	48 8d 15 00 00
	00 00		 lea	 rdx, OFFSET FLAT:$SG86492
  00067	48 8b 8c 24 68
	01 00 00	 mov	 rcx, QWORD PTR pDest$[rsp]
  0006f	e8 00 00 00 00	 call	 strcpy
$LN2@getString:

; 233  : 	}
; 234  : 
; 235  : 	TCHAR szBuf[64];
; 236  : 	CDateTime cDateTime(DT_NONE);

  00074	45 33 c0	 xor	 r8d, r8d
  00077	33 d2		 xor	 edx, edx
  00079	48 8d 8c 24 b0
	00 00 00	 lea	 rcx, QWORD PTR cDateTime$[rsp]
  00081	e8 00 00 00 00	 call	 ??0CDateTime@@QEAA@W4DT_TYPE@@W4TZ_TYPE@@@Z ; CDateTime::CDateTime
  00086	90		 npad	 1

; 237  : 
; 238  : 	if (m_nLogFlag & LOG_FLAG_DAILY) {

  00087	48 8b 84 24 60
	01 00 00	 mov	 rax, QWORD PTR this$[rsp]
  0008f	8b 80 b4 00 00
	00		 mov	 eax, DWORD PTR [rax+180]
  00095	25 00 02 00 00	 and	 eax, 512		; 00000200H
  0009a	85 c0		 test	 eax, eax
  0009c	74 13		 je	 SHORT $LN3@getString

; 239  : 		_tcscpy(szBuf, _T("TYPE_DAILY"));

  0009e	48 8d 15 00 00
	00 00		 lea	 rdx, OFFSET FLAT:$SG86495
  000a5	48 8d 4c 24 50	 lea	 rcx, QWORD PTR szBuf$[rsp]
  000aa	e8 00 00 00 00	 call	 strcpy
  000af	eb 52		 jmp	 SHORT $LN4@getString
$LN3@getString:

; 240  : 	}
; 241  : 	else if (m_nLogFlag & LOG_FLAG_HOURLY) {

  000b1	48 8b 84 24 60
	01 00 00	 mov	 rax, QWORD PTR this$[rsp]
  000b9	8b 80 b4 00 00
	00		 mov	 eax, DWORD PTR [rax+180]
  000bf	25 00 04 00 00	 and	 eax, 1024		; 00000400H
  000c4	85 c0		 test	 eax, eax
  000c6	74 13		 je	 SHORT $LN5@getString

; 242  : 		_tcscpy(szBuf, _T("TYPE_HOURLY"));

  000c8	48 8d 15 00 00
	00 00		 lea	 rdx, OFFSET FLAT:$SG86498
  000cf	48 8d 4c 24 50	 lea	 rcx, QWORD PTR szBuf$[rsp]
  000d4	e8 00 00 00 00	 call	 strcpy
  000d9	eb 28		 jmp	 SHORT $LN4@getString
$LN5@getString:

; 243  : 	}
; 244  : 	else if (m_nLogFlag & LOG_FLAG_FILE) {

  000db	48 8b 84 24 60
	01 00 00	 mov	 rax, QWORD PTR this$[rsp]
  000e3	8b 80 b4 00 00
	00		 mov	 eax, DWORD PTR [rax+180]
  000e9	25 00 08 00 00	 and	 eax, 2048		; 00000800H
  000ee	85 c0		 test	 eax, eax
  000f0	74 11		 je	 SHORT $LN4@getString

; 245  : 		_tcscpy(szBuf, _T("TYPE_FILE"));

  000f2	48 8d 15 00 00
	00 00		 lea	 rdx, OFFSET FLAT:$SG86500
  000f9	48 8d 4c 24 50	 lea	 rcx, QWORD PTR szBuf$[rsp]
  000fe	e8 00 00 00 00	 call	 strcpy
$LN4@getString:

; 246  : 	}
; 247  : 
; 248  : 	nLen = _stprintf(pDest, _T("================================================\n"));

  00103	48 8d 15 00 00
	00 00		 lea	 rdx, OFFSET FLAT:$SG86501
  0010a	48 8b 8c 24 68
	01 00 00	 mov	 rcx, QWORD PTR pDest$[rsp]
  00112	e8 00 00 00 00	 call	 sprintf
  00117	89 44 24 30	 mov	 DWORD PTR nLen$[rsp], eax

; 249  : 	nLen += _stprintf(pDest + nLen, _T("Logger Path[%s] Prefix[%s] Extension[%s]\n"), m_pLogDir, m_pLogName, m_szFileExtension);

  0011b	48 8b 84 24 60
	01 00 00	 mov	 rax, QWORD PTR this$[rsp]
  00123	48 05 a8 00 00
	00		 add	 rax, 168		; 000000a8H
  00129	48 63 4c 24 30	 movsxd	 rcx, DWORD PTR nLen$[rsp]
  0012e	48 8b 94 24 68
	01 00 00	 mov	 rdx, QWORD PTR pDest$[rsp]
  00136	48 03 d1	 add	 rdx, rcx
  00139	48 8b ca	 mov	 rcx, rdx
  0013c	48 89 44 24 20	 mov	 QWORD PTR [rsp+32], rax
  00141	48 8b 84 24 60
	01 00 00	 mov	 rax, QWORD PTR this$[rsp]
  00149	4c 8b 88 a0 00
	00 00		 mov	 r9, QWORD PTR [rax+160]
  00150	48 8b 84 24 60
	01 00 00	 mov	 rax, QWORD PTR this$[rsp]
  00158	4c 8b 80 98 00
	00 00		 mov	 r8, QWORD PTR [rax+152]
  0015f	48 8d 15 00 00
	00 00		 lea	 rdx, OFFSET FLAT:$SG86502
  00166	e8 00 00 00 00	 call	 sprintf
  0016b	8b 4c 24 30	 mov	 ecx, DWORD PTR nLen$[rsp]
  0016f	03 c8		 add	 ecx, eax
  00171	8b c1		 mov	 eax, ecx
  00173	89 44 24 30	 mov	 DWORD PTR nLen$[rsp], eax

; 250  : 	nLen += _stprintf(pDest + nLen, _T("Logger SizeLimit[%d] LogLevel[%d] LogType[%s]\n"), m_nSizeLimit, m_nLogLevel, szBuf);

  00177	48 63 44 24 30	 movsxd	 rax, DWORD PTR nLen$[rsp]
  0017c	48 8b 8c 24 68
	01 00 00	 mov	 rcx, QWORD PTR pDest$[rsp]
  00184	48 03 c8	 add	 rcx, rax
  00187	48 8b c1	 mov	 rax, rcx
  0018a	48 8d 4c 24 50	 lea	 rcx, QWORD PTR szBuf$[rsp]
  0018f	48 89 4c 24 20	 mov	 QWORD PTR [rsp+32], rcx
  00194	48 8b 8c 24 60
	01 00 00	 mov	 rcx, QWORD PTR this$[rsp]
  0019c	44 8b 49 78	 mov	 r9d, DWORD PTR [rcx+120]
  001a0	48 8b 8c 24 60
	01 00 00	 mov	 rcx, QWORD PTR this$[rsp]
  001a8	44 8b 81 c0 00
	00 00		 mov	 r8d, DWORD PTR [rcx+192]
  001af	48 8d 15 00 00
	00 00		 lea	 rdx, OFFSET FLAT:$SG86503
  001b6	48 8b c8	 mov	 rcx, rax
  001b9	e8 00 00 00 00	 call	 sprintf
  001be	8b 4c 24 30	 mov	 ecx, DWORD PTR nLen$[rsp]
  001c2	03 c8		 add	 ecx, eax
  001c4	8b c1		 mov	 eax, ecx
  001c6	89 44 24 30	 mov	 DWORD PTR nLen$[rsp], eax

; 251  : 
; 252  : 	cDateTime.SetSecondsValue(m_nDeleteInterval);

  001ca	48 8b 84 24 60
	01 00 00	 mov	 rax, QWORD PTR this$[rsp]
  001d2	8b 90 10 01 00
	00		 mov	 edx, DWORD PTR [rax+272]
  001d8	48 8d 8c 24 b0
	00 00 00	 lea	 rcx, QWORD PTR cDateTime$[rsp]
  001e0	e8 00 00 00 00	 call	 ?SetSecondsValue@CDateTime@@QEAAXH@Z ; CDateTime::SetSecondsValue

; 253  : 	cDateTime.setString(szBuf, _T("KeepDuration : %02d days %02d:%02d:%02d"), LOG_DATE_DDHHMMSS);

  001e5	41 b9 09 00 00
	00		 mov	 r9d, 9
  001eb	4c 8d 05 00 00
	00 00		 lea	 r8, OFFSET FLAT:$SG86504
  001f2	48 8d 54 24 50	 lea	 rdx, QWORD PTR szBuf$[rsp]
  001f7	48 8d 8c 24 b0
	00 00 00	 lea	 rcx, QWORD PTR cDateTime$[rsp]
  001ff	e8 00 00 00 00	 call	 ?setString@CDateTime@@QEAAHPEAD0W4DT_FORMAT@@@Z ; CDateTime::setString

; 254  : 
; 255  : 	nLen += _stprintf(pDest + nLen, _T("Logger KeepDuration[%s]\n"), szBuf);

  00204	48 63 44 24 30	 movsxd	 rax, DWORD PTR nLen$[rsp]
  00209	48 8b 8c 24 68
	01 00 00	 mov	 rcx, QWORD PTR pDest$[rsp]
  00211	48 03 c8	 add	 rcx, rax
  00214	48 8b c1	 mov	 rax, rcx
  00217	4c 8d 44 24 50	 lea	 r8, QWORD PTR szBuf$[rsp]
  0021c	48 8d 15 00 00
	00 00		 lea	 rdx, OFFSET FLAT:$SG86505
  00223	48 8b c8	 mov	 rcx, rax
  00226	e8 00 00 00 00	 call	 sprintf
  0022b	8b 4c 24 30	 mov	 ecx, DWORD PTR nLen$[rsp]
  0022f	03 c8		 add	 ecx, eax
  00231	8b c1		 mov	 eax, ecx
  00233	89 44 24 30	 mov	 DWORD PTR nLen$[rsp], eax

; 256  : 	nLen += _stprintf(pDest + nLen, _T("================================================\n"));

  00237	48 63 44 24 30	 movsxd	 rax, DWORD PTR nLen$[rsp]
  0023c	48 8b 8c 24 68
	01 00 00	 mov	 rcx, QWORD PTR pDest$[rsp]
  00244	48 03 c8	 add	 rcx, rax
  00247	48 8b c1	 mov	 rax, rcx
  0024a	48 8d 15 00 00
	00 00		 lea	 rdx, OFFSET FLAT:$SG86506
  00251	48 8b c8	 mov	 rcx, rax
  00254	e8 00 00 00 00	 call	 sprintf
  00259	8b 4c 24 30	 mov	 ecx, DWORD PTR nLen$[rsp]
  0025d	03 c8		 add	 ecx, eax
  0025f	8b c1		 mov	 eax, ecx
  00261	89 44 24 30	 mov	 DWORD PTR nLen$[rsp], eax

; 257  : 	return nLen;

  00265	8b 44 24 30	 mov	 eax, DWORD PTR nLen$[rsp]
  00269	89 84 24 30 01
	00 00		 mov	 DWORD PTR $T5[rsp], eax
  00270	48 8d 8c 24 b0
	00 00 00	 lea	 rcx, QWORD PTR cDateTime$[rsp]
  00278	e8 00 00 00 00	 call	 ??1CDateTime@@QEAA@XZ	; CDateTime::~CDateTime
  0027d	8b 84 24 30 01
	00 00		 mov	 eax, DWORD PTR $T5[rsp]

; 258  : }

  00284	8b f8		 mov	 edi, eax
  00286	48 8b cc	 mov	 rcx, rsp
  00289	48 8d 15 00 00
	00 00		 lea	 rdx, OFFSET FLAT:?getString@CLogger@@QEAAHPEAD@Z$rtcFrameData
  00290	e8 00 00 00 00	 call	 _RTC_CheckStackVars
  00295	8b c7		 mov	 eax, edi
  00297	48 8b 8c 24 40
	01 00 00	 mov	 rcx, QWORD PTR __$ArrayPad$[rsp]
  0029f	48 33 cc	 xor	 rcx, rsp
  002a2	e8 00 00 00 00	 call	 __security_check_cookie
  002a7	48 81 c4 50 01
	00 00		 add	 rsp, 336		; 00000150H
  002ae	5f		 pop	 rdi
  002af	c3		 ret	 0
?getString@CLogger@@QEAAHPEAD@Z ENDP			; CLogger::getString
_TEXT	ENDS
text$x	SEGMENT
nLen$ = 48
szBuf$ = 80
cDateTime$ = 176
$T5 = 304
$T6 = 312
__$ArrayPad$ = 320
this$ = 352
pDest$ = 360
?dtor$0@?0??getString@CLogger@@QEAAHPEAD@Z@4HA PROC	; `CLogger::getString'::`1'::dtor$0
  00000	48 89 4c 24 08	 mov	 QWORD PTR [rsp+8], rcx
  00005	48 89 54 24 10	 mov	 QWORD PTR [rsp+16], rdx
  0000a	55		 push	 rbp
  0000b	57		 push	 rdi
  0000c	48 83 ec 28	 sub	 rsp, 40			; 00000028H
  00010	48 8b ea	 mov	 rbp, rdx
  00013	48 8d 8d b0 00
	00 00		 lea	 rcx, QWORD PTR cDateTime$[rbp]
  0001a	e8 00 00 00 00	 call	 ??1CDateTime@@QEAA@XZ	; CDateTime::~CDateTime
  0001f	48 83 c4 28	 add	 rsp, 40			; 00000028H
  00023	5f		 pop	 rdi
  00024	5d		 pop	 rbp
  00025	c3		 ret	 0
?dtor$0@?0??getString@CLogger@@QEAAHPEAD@Z@4HA ENDP	; `CLogger::getString'::`1'::dtor$0
text$x	ENDS
; Function compile flags: /Odtp /RTCsu
text$x	SEGMENT
nLen$ = 48
szBuf$ = 80
cDateTime$ = 176
$T5 = 304
$T6 = 312
__$ArrayPad$ = 320
this$ = 352
pDest$ = 360
?dtor$0@?0??getString@CLogger@@QEAAHPEAD@Z@4HA PROC	; `CLogger::getString'::`1'::dtor$0
  00000	48 89 4c 24 08	 mov	 QWORD PTR [rsp+8], rcx
  00005	48 89 54 24 10	 mov	 QWORD PTR [rsp+16], rdx
  0000a	55		 push	 rbp
  0000b	57		 push	 rdi
  0000c	48 83 ec 28	 sub	 rsp, 40			; 00000028H
  00010	48 8b ea	 mov	 rbp, rdx
  00013	48 8d 8d b0 00
	00 00		 lea	 rcx, QWORD PTR cDateTime$[rbp]
  0001a	e8 00 00 00 00	 call	 ??1CDateTime@@QEAA@XZ	; CDateTime::~CDateTime
  0001f	48 83 c4 28	 add	 rsp, 40			; 00000028H
  00023	5f		 pop	 rdi
  00024	5d		 pop	 rbp
  00025	c3		 ret	 0
?dtor$0@?0??getString@CLogger@@QEAAHPEAD@Z@4HA ENDP	; `CLogger::getString'::`1'::dtor$0
text$x	ENDS
; Function compile flags: /Odtp /RTCsu
; File e:\infinia-library-3.0\com\src\comlogger.cpp
_TEXT	SEGMENT
nLen$ = 48
nLen2$ = 52
msgBuf$ = 80
header$ = 8304
ap$ = 8840
pBuf$ = 8856
__$ArrayPad$ = 8872
this$ = 8896
level$ = 8904
_szFunc$ = 8912
_nLine$ = 8920
_szFormat$ = 8928
?__debugLog@CLogger@@QEAAXHPEBDH0ZZ PROC		; CLogger::__debugLog

; 607  : {

$LN5:
  00000	44 89 4c 24 20	 mov	 DWORD PTR [rsp+32], r9d
  00005	4c 89 44 24 18	 mov	 QWORD PTR [rsp+24], r8
  0000a	89 54 24 10	 mov	 DWORD PTR [rsp+16], edx
  0000e	48 89 4c 24 08	 mov	 QWORD PTR [rsp+8], rcx
  00013	57		 push	 rdi
  00014	b8 b0 22 00 00	 mov	 eax, 8880		; 000022b0H
  00019	e8 00 00 00 00	 call	 __chkstk
  0001e	48 2b e0	 sub	 rsp, rax
  00021	48 8b fc	 mov	 rdi, rsp
  00024	b9 ac 08 00 00	 mov	 ecx, 2220		; 000008acH
  00029	b8 cc cc cc cc	 mov	 eax, -858993460		; ccccccccH
  0002e	f3 ab		 rep stosd
  00030	48 8b 8c 24 c0
	22 00 00	 mov	 rcx, QWORD PTR [rsp+8896]
  00038	48 8b 05 00 00
	00 00		 mov	 rax, QWORD PTR __security_cookie
  0003f	48 33 c4	 xor	 rax, rsp
  00042	48 89 84 24 a8
	22 00 00	 mov	 QWORD PTR __$ArrayPad$[rsp], rax

; 608  : 	if (!isLogFlag(IS_LOG_ENABLE)) return;

  0004a	ba 00 00 08 00	 mov	 edx, 524288		; 00080000H
  0004f	48 8b 8c 24 c0
	22 00 00	 mov	 rcx, QWORD PTR this$[rsp]
  00057	e8 00 00 00 00	 call	 ?isLogFlag@CLogger@@QEAA_NW4E_LOG_FLAG@@@Z ; CLogger::isLogFlag
  0005c	0f b6 c0	 movzx	 eax, al
  0005f	85 c0		 test	 eax, eax
  00061	75 05		 jne	 SHORT $LN2@debugLog
  00063	e9 28 01 00 00	 jmp	 $LN1@debugLog
$LN2@debugLog:

; 609  : 	if (level < m_nLogLevel) return;

  00068	48 8b 84 24 c0
	22 00 00	 mov	 rax, QWORD PTR this$[rsp]
  00070	8b 40 78	 mov	 eax, DWORD PTR [rax+120]
  00073	39 84 24 c8 22
	00 00		 cmp	 DWORD PTR level$[rsp], eax
  0007a	7d 05		 jge	 SHORT $LN3@debugLog
  0007c	e9 0f 01 00 00	 jmp	 $LN1@debugLog
$LN3@debugLog:

; 610  : 
; 611  : //	TCHAR tmpBuf[512];
; 612  : 	int nLen, nLen2=0;

  00081	c7 44 24 34 00
	00 00 00	 mov	 DWORD PTR nLen2$[rsp], 0

; 613  : 
; 614  : 	TCHAR	msgBuf[MAX_LOGBUF_LEN];
; 615  : 	TCHAR	header[512];
; 616  : 	va_list	ap;
; 617  : 
; 618  : 	nLen2 = setHeader(header, level);

  00089	44 8b 84 24 c8
	22 00 00	 mov	 r8d, DWORD PTR level$[rsp]
  00091	48 8d 94 24 70
	20 00 00	 lea	 rdx, QWORD PTR header$[rsp]
  00099	48 8b 8c 24 c0
	22 00 00	 mov	 rcx, QWORD PTR this$[rsp]
  000a1	e8 00 00 00 00	 call	 ?setHeader@CLogger@@QEAAHPEADH@Z ; CLogger::setHeader
  000a6	89 44 24 34	 mov	 DWORD PTR nLen2$[rsp], eax

; 619  : 	sprintf(header+nLen2, " %s, %d, %s ", _szFunc, _nLine, _szFormat);

  000aa	48 63 44 24 34	 movsxd	 rax, DWORD PTR nLen2$[rsp]
  000af	48 8d 84 04 70
	20 00 00	 lea	 rax, QWORD PTR header$[rsp+rax]
  000b7	48 8b 8c 24 e0
	22 00 00	 mov	 rcx, QWORD PTR _szFormat$[rsp]
  000bf	48 89 4c 24 20	 mov	 QWORD PTR [rsp+32], rcx
  000c4	44 8b 8c 24 d8
	22 00 00	 mov	 r9d, DWORD PTR _nLine$[rsp]
  000cc	4c 8b 84 24 d0
	22 00 00	 mov	 r8, QWORD PTR _szFunc$[rsp]
  000d4	48 8d 15 00 00
	00 00		 lea	 rdx, OFFSET FLAT:$SG86761
  000db	48 8b c8	 mov	 rcx, rax
  000de	e8 00 00 00 00	 call	 sprintf

; 620  : 	va_start(ap, _szFormat);

  000e3	e8 00 00 00 00	 call	 ??$__vcrt_va_start_verify_argument_type@PEBD@@YAXXZ ; __vcrt_va_start_verify_argument_type<char const * __ptr64>
  000e8	48 8d 84 24 e8
	22 00 00	 lea	 rax, QWORD PTR _szFormat$[rsp+8]
  000f0	48 89 84 24 88
	22 00 00	 mov	 QWORD PTR ap$[rsp], rax

; 621  : 	nLen = vsnprintf(msgBuf, MAX_LOGBUF_LEN - 1, header, ap);

  000f8	4c 8b 8c 24 88
	22 00 00	 mov	 r9, QWORD PTR ap$[rsp]
  00100	4c 8d 84 24 70
	20 00 00	 lea	 r8, QWORD PTR header$[rsp]
  00108	ba ff 1f 00 00	 mov	 edx, 8191		; 00001fffH
  0010d	48 8d 4c 24 50	 lea	 rcx, QWORD PTR msgBuf$[rsp]
  00112	e8 00 00 00 00	 call	 vsnprintf
  00117	89 44 24 30	 mov	 DWORD PTR nLen$[rsp], eax

; 622  : 	va_end(ap);

  0011b	48 c7 84 24 88
	22 00 00 00 00
	00 00		 mov	 QWORD PTR ap$[rsp], 0

; 623  : 
; 624  : 	TCHAR *pBuf = (TCHAR *)gs_pMMgr->newBuf(LEN_TO_SIZE(nLen + 2));

  00127	8b 44 24 30	 mov	 eax, DWORD PTR nLen$[rsp]
  0012b	83 c0 02	 add	 eax, 2
  0012e	8b d0		 mov	 edx, eax
  00130	48 8b 0d 00 00
	00 00		 mov	 rcx, QWORD PTR ?gs_pMMgr@@3PEAVCMemManager@@EA ; gs_pMMgr
  00137	e8 00 00 00 00	 call	 ?newBuf@CMemManager@@QEAAPEADH@Z ; CMemManager::newBuf
  0013c	48 89 84 24 98
	22 00 00	 mov	 QWORD PTR pBuf$[rsp], rax

; 625  : 	_tcscpy(pBuf, msgBuf);

  00144	48 8d 54 24 50	 lea	 rdx, QWORD PTR msgBuf$[rsp]
  00149	48 8b 8c 24 98
	22 00 00	 mov	 rcx, QWORD PTR pBuf$[rsp]
  00151	e8 00 00 00 00	 call	 strcpy

; 626  : 	pBuf[nLen] = '\n';

  00156	48 63 44 24 30	 movsxd	 rax, DWORD PTR nLen$[rsp]
  0015b	48 8b 8c 24 98
	22 00 00	 mov	 rcx, QWORD PTR pBuf$[rsp]
  00163	c6 04 01 0a	 mov	 BYTE PTR [rcx+rax], 10

; 627  : 	pBuf[nLen + 1] = 0;

  00167	8b 44 24 30	 mov	 eax, DWORD PTR nLen$[rsp]
  0016b	ff c0		 inc	 eax
  0016d	48 98		 cdqe
  0016f	48 8b 8c 24 98
	22 00 00	 mov	 rcx, QWORD PTR pBuf$[rsp]
  00177	c6 04 01 00	 mov	 BYTE PTR [rcx+rax], 0

; 628  : 
; 629  : 	putQueue(pBuf);

  0017b	48 8b 94 24 98
	22 00 00	 mov	 rdx, QWORD PTR pBuf$[rsp]
  00183	48 8b 8c 24 c0
	22 00 00	 mov	 rcx, QWORD PTR this$[rsp]
  0018b	e8 00 00 00 00	 call	 ?putQueue@CLogger@@QEAAXPEAD@Z ; CLogger::putQueue
$LN1@debugLog:

; 630  : }

  00190	48 8b cc	 mov	 rcx, rsp
  00193	48 8d 15 00 00
	00 00		 lea	 rdx, OFFSET FLAT:?__debugLog@CLogger@@QEAAXHPEBDH0ZZ$rtcFrameData
  0019a	e8 00 00 00 00	 call	 _RTC_CheckStackVars
  0019f	48 8b 8c 24 a8
	22 00 00	 mov	 rcx, QWORD PTR __$ArrayPad$[rsp]
  001a7	48 33 cc	 xor	 rcx, rsp
  001aa	e8 00 00 00 00	 call	 __security_check_cookie
  001af	48 81 c4 b0 22
	00 00		 add	 rsp, 8880		; 000022b0H
  001b6	5f		 pop	 rdi
  001b7	c3		 ret	 0
?__debugLog@CLogger@@QEAAXHPEBDH0ZZ ENDP		; CLogger::__debugLog
_TEXT	ENDS
; Function compile flags: /Odtp /RTCsu
; File e:\infinia-library-3.0\com\src\comlogger.cpp
_TEXT	SEGMENT
szFile$ = 80
__$ArrayPad$ = 608
this$ = 640
nFlag$ = 648
?checkChangeProc@CLogger@@QEAAXH@Z PROC			; CLogger::checkChangeProc

; 685  : {

$LN10:
  00000	89 54 24 10	 mov	 DWORD PTR [rsp+16], edx
  00004	48 89 4c 24 08	 mov	 QWORD PTR [rsp+8], rcx
  00009	57		 push	 rdi
  0000a	48 81 ec 70 02
	00 00		 sub	 rsp, 624		; 00000270H
  00011	48 8b fc	 mov	 rdi, rsp
  00014	b9 9c 00 00 00	 mov	 ecx, 156		; 0000009cH
  00019	b8 cc cc cc cc	 mov	 eax, -858993460		; ccccccccH
  0001e	f3 ab		 rep stosd
  00020	48 8b 8c 24 80
	02 00 00	 mov	 rcx, QWORD PTR [rsp+640]
  00028	48 8b 05 00 00
	00 00		 mov	 rax, QWORD PTR __security_cookie
  0002f	48 33 c4	 xor	 rax, rsp
  00032	48 89 84 24 60
	02 00 00	 mov	 QWORD PTR __$ArrayPad$[rsp], rax

; 686  : 	TCHAR szFile[512];
; 687  : 
; 688  : 	// delete proc
; 689  : 	if (m_nDeleteInterval) checkDeleteProc();

  0003a	48 8b 84 24 80
	02 00 00	 mov	 rax, QWORD PTR this$[rsp]
  00042	83 b8 10 01 00
	00 00		 cmp	 DWORD PTR [rax+272], 0
  00049	74 0d		 je	 SHORT $LN2@checkChang
  0004b	48 8b 8c 24 80
	02 00 00	 mov	 rcx, QWORD PTR this$[rsp]
  00053	e8 00 00 00 00	 call	 ?checkDeleteProc@CLogger@@AEAAXXZ ; CLogger::checkDeleteProc
$LN2@checkChang:

; 690  : 
; 691  : 	if (nFlag & LOG_FLAG_DAYCHANGE) {

  00058	8b 84 24 88 02
	00 00		 mov	 eax, DWORD PTR nFlag$[rsp]
  0005f	83 e0 01	 and	 eax, 1
  00062	85 c0		 test	 eax, eax
  00064	0f 84 91 00 00
	00		 je	 $LN3@checkChang

; 692  : 		if (m_nLogFlag & LOG_FLAG_DAILY) { 

  0006a	48 8b 84 24 80
	02 00 00	 mov	 rax, QWORD PTR this$[rsp]
  00072	8b 80 b4 00 00
	00		 mov	 eax, DWORD PTR [rax+180]
  00078	25 00 02 00 00	 and	 eax, 512		; 00000200H
  0007d	85 c0		 test	 eax, eax
  0007f	74 7a		 je	 SHORT $LN4@checkChang

; 693  : 			_stprintf(szFile, _T("%s/%d_%s.%s"), m_pLogDir, gs_today_time.date, m_pLogName, m_szFileExtension);

  00081	48 8b 84 24 80
	02 00 00	 mov	 rax, QWORD PTR this$[rsp]
  00089	48 05 a8 00 00
	00		 add	 rax, 168		; 000000a8H
  0008f	48 89 44 24 28	 mov	 QWORD PTR [rsp+40], rax
  00094	48 8b 84 24 80
	02 00 00	 mov	 rax, QWORD PTR this$[rsp]
  0009c	48 8b 80 a0 00
	00 00		 mov	 rax, QWORD PTR [rax+160]
  000a3	48 89 44 24 20	 mov	 QWORD PTR [rsp+32], rax
  000a8	44 8b 0d 18 00
	00 00		 mov	 r9d, DWORD PTR ?gs_today_time@@3USTTodayTime@@A+24
  000af	48 8b 84 24 80
	02 00 00	 mov	 rax, QWORD PTR this$[rsp]
  000b7	4c 8b 80 98 00
	00 00		 mov	 r8, QWORD PTR [rax+152]
  000be	48 8d 15 00 00
	00 00		 lea	 rdx, OFFSET FLAT:$SG86801
  000c5	48 8d 4c 24 50	 lea	 rcx, QWORD PTR szFile$[rsp]
  000ca	e8 00 00 00 00	 call	 sprintf

; 694  : 			__openLogger(szFile);

  000cf	45 33 c0	 xor	 r8d, r8d
  000d2	48 8d 54 24 50	 lea	 rdx, QWORD PTR szFile$[rsp]
  000d7	48 8b 8c 24 80
	02 00 00	 mov	 rcx, QWORD PTR this$[rsp]
  000df	e8 00 00 00 00	 call	 ?__openLogger@CLogger@@AEAAXPEBDH@Z ; CLogger::__openLogger

; 695  : 			m_nSeq = 0;

  000e4	48 8b 84 24 80
	02 00 00	 mov	 rax, QWORD PTR this$[rsp]
  000ec	c7 80 b8 00 00
	00 00 00 00 00	 mov	 DWORD PTR [rax+184], 0

; 696  : 			return;

  000f6	e9 26 01 00 00	 jmp	 $LN1@checkChang
$LN4@checkChang:
$LN3@checkChang:

; 697  : 		}
; 698  : 	}
; 699  : 	if (nFlag & LOG_FLAG_HOURCHANGE) {

  000fb	8b 84 24 88 02
	00 00		 mov	 eax, DWORD PTR nFlag$[rsp]
  00102	83 e0 02	 and	 eax, 2
  00105	85 c0		 test	 eax, eax
  00107	0f 84 9c 00 00
	00		 je	 $LN5@checkChang

; 700  : 		if (m_nLogFlag & LOG_FLAG_HOURLY) {

  0010d	48 8b 84 24 80
	02 00 00	 mov	 rax, QWORD PTR this$[rsp]
  00115	8b 80 b4 00 00
	00		 mov	 eax, DWORD PTR [rax+180]
  0011b	25 00 04 00 00	 and	 eax, 1024		; 00000400H
  00120	85 c0		 test	 eax, eax
  00122	0f 84 81 00 00
	00		 je	 $LN6@checkChang

; 701  : 			_stprintf(szFile, _T("%s/%d/%s_%02d.%s"), m_pLogDir, gs_today_time.date, m_pLogName, gs_today_time.hour, m_szFileExtension);

  00128	48 8b 84 24 80
	02 00 00	 mov	 rax, QWORD PTR this$[rsp]
  00130	48 05 a8 00 00
	00		 add	 rax, 168		; 000000a8H
  00136	48 89 44 24 30	 mov	 QWORD PTR [rsp+48], rax
  0013b	8b 05 0c 00 00
	00		 mov	 eax, DWORD PTR ?gs_today_time@@3USTTodayTime@@A+12
  00141	89 44 24 28	 mov	 DWORD PTR [rsp+40], eax
  00145	48 8b 84 24 80
	02 00 00	 mov	 rax, QWORD PTR this$[rsp]
  0014d	48 8b 80 a0 00
	00 00		 mov	 rax, QWORD PTR [rax+160]
  00154	48 89 44 24 20	 mov	 QWORD PTR [rsp+32], rax
  00159	44 8b 0d 18 00
	00 00		 mov	 r9d, DWORD PTR ?gs_today_time@@3USTTodayTime@@A+24
  00160	48 8b 84 24 80
	02 00 00	 mov	 rax, QWORD PTR this$[rsp]
  00168	4c 8b 80 98 00
	00 00		 mov	 r8, QWORD PTR [rax+152]
  0016f	48 8d 15 00 00
	00 00		 lea	 rdx, OFFSET FLAT:$SG86804
  00176	48 8d 4c 24 50	 lea	 rcx, QWORD PTR szFile$[rsp]
  0017b	e8 00 00 00 00	 call	 sprintf

; 702  : 			__openLogger(szFile);

  00180	45 33 c0	 xor	 r8d, r8d
  00183	48 8d 54 24 50	 lea	 rdx, QWORD PTR szFile$[rsp]
  00188	48 8b 8c 24 80
	02 00 00	 mov	 rcx, QWORD PTR this$[rsp]
  00190	e8 00 00 00 00	 call	 ?__openLogger@CLogger@@AEAAXPEBDH@Z ; CLogger::__openLogger

; 703  : 			m_nSeq = 0;

  00195	48 8b 84 24 80
	02 00 00	 mov	 rax, QWORD PTR this$[rsp]
  0019d	c7 80 b8 00 00
	00 00 00 00 00	 mov	 DWORD PTR [rax+184], 0

; 704  : 			return;

  001a7	eb 78		 jmp	 SHORT $LN1@checkChang
$LN6@checkChang:
$LN5@checkChang:

; 705  : 		}
; 706  : 	}
; 707  : 	if(m_nSizeLimit) {

  001a9	48 8b 84 24 80
	02 00 00	 mov	 rax, QWORD PTR this$[rsp]
  001b1	83 b8 c0 00 00
	00 00		 cmp	 DWORD PTR [rax+192], 0
  001b8	74 67		 je	 SHORT $LN7@checkChang

; 708  : 		if (m_nSizeLimit < m_nLogSize) {

  001ba	48 8b 84 24 80
	02 00 00	 mov	 rax, QWORD PTR this$[rsp]
  001c2	48 8b 8c 24 80
	02 00 00	 mov	 rcx, QWORD PTR this$[rsp]
  001ca	8b 89 c4 00 00
	00		 mov	 ecx, DWORD PTR [rcx+196]
  001d0	39 88 c0 00 00
	00		 cmp	 DWORD PTR [rax+192], ecx
  001d6	73 49		 jae	 SHORT $LN8@checkChang

; 709  : 			m_nSeq++;

  001d8	48 8b 84 24 80
	02 00 00	 mov	 rax, QWORD PTR this$[rsp]
  001e0	8b 80 b8 00 00
	00		 mov	 eax, DWORD PTR [rax+184]
  001e6	ff c0		 inc	 eax
  001e8	48 8b 8c 24 80
	02 00 00	 mov	 rcx, QWORD PTR this$[rsp]
  001f0	89 81 b8 00 00
	00		 mov	 DWORD PTR [rcx+184], eax

; 710  : 			__openLogger(m_pFName, m_nSeq);

  001f6	48 8b 84 24 80
	02 00 00	 mov	 rax, QWORD PTR this$[rsp]
  001fe	44 8b 80 b8 00
	00 00		 mov	 r8d, DWORD PTR [rax+184]
  00205	48 8b 84 24 80
	02 00 00	 mov	 rax, QWORD PTR this$[rsp]
  0020d	48 8b 90 90 00
	00 00		 mov	 rdx, QWORD PTR [rax+144]
  00214	48 8b 8c 24 80
	02 00 00	 mov	 rcx, QWORD PTR this$[rsp]
  0021c	e8 00 00 00 00	 call	 ?__openLogger@CLogger@@AEAAXPEBDH@Z ; CLogger::__openLogger
$LN8@checkChang:
$LN7@checkChang:
$LN1@checkChang:

; 711  : 		}
; 712  : 	}
; 713  : 
; 714  : 	// LOG_FLAG_FILE
; 715  : 	// no need to open a new file
; 716  : 
; 717  : }

  00221	48 8b cc	 mov	 rcx, rsp
  00224	48 8d 15 00 00
	00 00		 lea	 rdx, OFFSET FLAT:?checkChangeProc@CLogger@@QEAAXH@Z$rtcFrameData
  0022b	e8 00 00 00 00	 call	 _RTC_CheckStackVars
  00230	48 8b 8c 24 60
	02 00 00	 mov	 rcx, QWORD PTR __$ArrayPad$[rsp]
  00238	48 33 cc	 xor	 rcx, rsp
  0023b	e8 00 00 00 00	 call	 __security_check_cookie
  00240	48 81 c4 70 02
	00 00		 add	 rsp, 624		; 00000270H
  00247	5f		 pop	 rdi
  00248	c3		 ret	 0
?checkChangeProc@CLogger@@QEAAXH@Z ENDP			; CLogger::checkChangeProc
_TEXT	ENDS
; Function compile flags: /Odtp /RTCsu
; File e:\infinia-library-3.0\com\src\comlogger.cpp
_TEXT	SEGMENT
this$ = 48
?disable@CLogger@@QEAAXXZ PROC				; CLogger::disable

; 474  : {

$LN4:
  00000	48 89 4c 24 08	 mov	 QWORD PTR [rsp+8], rcx
  00005	57		 push	 rdi
  00006	48 83 ec 20	 sub	 rsp, 32			; 00000020H
  0000a	48 8b fc	 mov	 rdi, rsp
  0000d	b9 08 00 00 00	 mov	 ecx, 8
  00012	b8 cc cc cc cc	 mov	 eax, -858993460		; ccccccccH
  00017	f3 ab		 rep stosd
  00019	48 8b 4c 24 30	 mov	 rcx, QWORD PTR [rsp+48]

; 475  : 	clearLogFlag(IS_LOG_ENABLE);

  0001e	ba 00 00 08 00	 mov	 edx, 524288		; 00080000H
  00023	48 8b 4c 24 30	 mov	 rcx, QWORD PTR this$[rsp]
  00028	e8 00 00 00 00	 call	 ?clearLogFlag@CLogger@@QEAAXW4E_LOG_FLAG@@@Z ; CLogger::clearLogFlag

; 476  : 	if (m_hFile) {

  0002d	48 8b 44 24 30	 mov	 rax, QWORD PTR this$[rsp]
  00032	48 83 b8 88 00
	00 00 00	 cmp	 QWORD PTR [rax+136], 0
  0003a	74 31		 je	 SHORT $LN2@disable

; 477  : 		clearLogFlag(IS_LOG_OPEN);

  0003c	ba 00 00 04 00	 mov	 edx, 262144		; 00040000H
  00041	48 8b 4c 24 30	 mov	 rcx, QWORD PTR this$[rsp]
  00046	e8 00 00 00 00	 call	 ?clearLogFlag@CLogger@@QEAAXW4E_LOG_FLAG@@@Z ; CLogger::clearLogFlag

; 478  : 		fclose(m_hFile); m_hFile = NULL;

  0004b	48 8b 44 24 30	 mov	 rax, QWORD PTR this$[rsp]
  00050	48 8b 88 88 00
	00 00		 mov	 rcx, QWORD PTR [rax+136]
  00057	ff 15 00 00 00
	00		 call	 QWORD PTR __imp_fclose
  0005d	48 8b 44 24 30	 mov	 rax, QWORD PTR this$[rsp]
  00062	48 c7 80 88 00
	00 00 00 00 00
	00		 mov	 QWORD PTR [rax+136], 0
$LN2@disable:

; 479  : 	}
; 480  : }

  0006d	48 83 c4 20	 add	 rsp, 32			; 00000020H
  00071	5f		 pop	 rdi
  00072	c3		 ret	 0
?disable@CLogger@@QEAAXXZ ENDP				; CLogger::disable
_TEXT	ENDS
; Function compile flags: /Odtp /RTCsu
; File e:\infinia-library-3.0\com\src\comlogger.cpp
_TEXT	SEGMENT
header$ = 64
fmtStr$ = 152
i$ = 196
nLCompare$ = 200
nLen$ = 204
pBuf$ = 208
tv132 = 224
__$ArrayPad$ = 232
this$ = 256
nLevel$ = 264
nKind$ = 272
nSocket$ = 280
szBuffer$ = 288
nPacketSize$ = 296
?WritePacket@CLogger@@QEAAXHHHPEADH@Z PROC		; CLogger::WritePacket

; 569  : {

$LN9:
  00000	44 89 4c 24 20	 mov	 DWORD PTR [rsp+32], r9d
  00005	44 89 44 24 18	 mov	 DWORD PTR [rsp+24], r8d
  0000a	89 54 24 10	 mov	 DWORD PTR [rsp+16], edx
  0000e	48 89 4c 24 08	 mov	 QWORD PTR [rsp+8], rcx
  00013	57		 push	 rdi
  00014	48 81 ec f0 00
	00 00		 sub	 rsp, 240		; 000000f0H
  0001b	48 8b fc	 mov	 rdi, rsp
  0001e	b9 3c 00 00 00	 mov	 ecx, 60			; 0000003cH
  00023	b8 cc cc cc cc	 mov	 eax, -858993460		; ccccccccH
  00028	f3 ab		 rep stosd
  0002a	48 8b 8c 24 00
	01 00 00	 mov	 rcx, QWORD PTR [rsp+256]
  00032	48 8b 05 00 00
	00 00		 mov	 rax, QWORD PTR __security_cookie
  00039	48 33 c4	 xor	 rax, rsp
  0003c	48 89 84 24 e8
	00 00 00	 mov	 QWORD PTR __$ArrayPad$[rsp], rax

; 570  : 	if (!isLogFlag(IS_LOG_ENABLE)) return;

  00044	ba 00 00 08 00	 mov	 edx, 524288		; 00080000H
  00049	48 8b 8c 24 00
	01 00 00	 mov	 rcx, QWORD PTR this$[rsp]
  00051	e8 00 00 00 00	 call	 ?isLogFlag@CLogger@@QEAA_NW4E_LOG_FLAG@@@Z ; CLogger::isLogFlag
  00056	0f b6 c0	 movzx	 eax, al
  00059	85 c0		 test	 eax, eax
  0005b	75 05		 jne	 SHORT $LN4@WritePacke
  0005d	e9 18 02 00 00	 jmp	 $LN1@WritePacke
$LN4@WritePacke:

; 571  : 	if (nLevel < m_nLogLevel) return;

  00062	48 8b 84 24 00
	01 00 00	 mov	 rax, QWORD PTR this$[rsp]
  0006a	8b 40 78	 mov	 eax, DWORD PTR [rax+120]
  0006d	39 84 24 08 01
	00 00		 cmp	 DWORD PTR nLevel$[rsp], eax
  00074	7d 05		 jge	 SHORT $LN5@WritePacke
  00076	e9 ff 01 00 00	 jmp	 $LN1@WritePacke
$LN5@WritePacke:

; 572  : 
; 573  : 	TCHAR header[LEN_LOG_HEADER];
; 574  : 	const TCHAR	*fmtStr[5] = {
; 575  : 		_T(" nSIdx[%d] Send [%d] PKIdx[%d] "),

  0007b	48 8d 05 00 00
	00 00		 lea	 rax, OFFSET FLAT:$SG86733
  00082	48 89 84 24 98
	00 00 00	 mov	 QWORD PTR fmtStr$[rsp], rax

; 576  : 		_T(" nSIdx[%d] Recv [%d] PKIdx[%d] "),

  0008a	48 8d 05 00 00
	00 00		 lea	 rax, OFFSET FLAT:$SG86734
  00091	48 89 84 24 a0
	00 00 00	 mov	 QWORD PTR fmtStr$[rsp+8], rax

; 577  : 		_T(" nSIdx[%d] send Queue [%d] PKIdx[%d] "),

  00099	48 8d 05 00 00
	00 00		 lea	 rax, OFFSET FLAT:$SG86735
  000a0	48 89 84 24 a8
	00 00 00	 mov	 QWORD PTR fmtStr$[rsp+16], rax

; 578  : 		_T(" nSIdx[%d] recv Queue [%d] PKIdx[%d] "),

  000a8	48 8d 05 00 00
	00 00		 lea	 rax, OFFSET FLAT:$SG86736
  000af	48 89 84 24 b0
	00 00 00	 mov	 QWORD PTR fmtStr$[rsp+24], rax

; 579  : 		_T(" Undefind nkind[%d] [%d] PKIdx[%d] ")

  000b7	48 8d 05 00 00
	00 00		 lea	 rax, OFFSET FLAT:$SG86737
  000be	48 89 84 24 b8
	00 00 00	 mov	 QWORD PTR fmtStr$[rsp+32], rax

; 580  : 	};
; 581  : 
; 582  : 	if (nKind < 0 || nKind > 4) nKind = 4;

  000c6	83 bc 24 10 01
	00 00 00	 cmp	 DWORD PTR nKind$[rsp], 0
  000ce	7c 0a		 jl	 SHORT $LN7@WritePacke
  000d0	83 bc 24 10 01
	00 00 04	 cmp	 DWORD PTR nKind$[rsp], 4
  000d8	7e 0b		 jle	 SHORT $LN6@WritePacke
$LN7@WritePacke:
  000da	c7 84 24 10 01
	00 00 04 00 00
	00		 mov	 DWORD PTR nKind$[rsp], 4
$LN6@WritePacke:

; 583  : 
; 584  : 	int	i=0, nLCompare, nLen;

  000e5	c7 84 24 c4 00
	00 00 00 00 00
	00		 mov	 DWORD PTR i$[rsp], 0

; 585  : 	nLen = setHeader(header, nLevel);

  000f0	44 8b 84 24 08
	01 00 00	 mov	 r8d, DWORD PTR nLevel$[rsp]
  000f8	48 8d 54 24 40	 lea	 rdx, QWORD PTR header$[rsp]
  000fd	48 8b 8c 24 00
	01 00 00	 mov	 rcx, QWORD PTR this$[rsp]
  00105	e8 00 00 00 00	 call	 ?setHeader@CLogger@@QEAAHPEADH@Z ; CLogger::setHeader
  0010a	89 84 24 cc 00
	00 00		 mov	 DWORD PTR nLen$[rsp], eax

; 586  : 
; 587  : 
; 588  : 	nLen += _stprintf(header +nLen, fmtStr[nKind], nSocket, nPacketSize, nKind);

  00111	48 63 84 24 10
	01 00 00	 movsxd	 rax, DWORD PTR nKind$[rsp]
  00119	48 63 8c 24 cc
	00 00 00	 movsxd	 rcx, DWORD PTR nLen$[rsp]
  00121	48 8d 4c 0c 40	 lea	 rcx, QWORD PTR header$[rsp+rcx]
  00126	8b 94 24 10 01
	00 00		 mov	 edx, DWORD PTR nKind$[rsp]
  0012d	89 54 24 20	 mov	 DWORD PTR [rsp+32], edx
  00131	44 8b 8c 24 28
	01 00 00	 mov	 r9d, DWORD PTR nPacketSize$[rsp]
  00139	44 8b 84 24 18
	01 00 00	 mov	 r8d, DWORD PTR nSocket$[rsp]
  00141	48 8b 94 c4 98
	00 00 00	 mov	 rdx, QWORD PTR fmtStr$[rsp+rax*8]
  00149	e8 00 00 00 00	 call	 sprintf
  0014e	8b 8c 24 cc 00
	00 00		 mov	 ecx, DWORD PTR nLen$[rsp]
  00155	03 c8		 add	 ecx, eax
  00157	8b c1		 mov	 eax, ecx
  00159	89 84 24 cc 00
	00 00		 mov	 DWORD PTR nLen$[rsp], eax

; 589  : 	nLCompare = (int)_tcslen(szBuffer);

  00160	48 8b 8c 24 20
	01 00 00	 mov	 rcx, QWORD PTR szBuffer$[rsp]
  00168	e8 00 00 00 00	 call	 strlen
  0016d	89 84 24 c8 00
	00 00		 mov	 DWORD PTR nLCompare$[rsp], eax

; 590  : 	
; 591  : 	TCHAR *pBuf = (TCHAR *)gs_pMMgr->newBuf(LEN_TO_SIZE(nLen + nLCompare + 2));

  00174	8b 84 24 cc 00
	00 00		 mov	 eax, DWORD PTR nLen$[rsp]
  0017b	8b 8c 24 c8 00
	00 00		 mov	 ecx, DWORD PTR nLCompare$[rsp]
  00182	8d 44 08 02	 lea	 eax, DWORD PTR [rax+rcx+2]
  00186	8b d0		 mov	 edx, eax
  00188	48 8b 0d 00 00
	00 00		 mov	 rcx, QWORD PTR ?gs_pMMgr@@3PEAVCMemManager@@EA ; gs_pMMgr
  0018f	e8 00 00 00 00	 call	 ?newBuf@CMemManager@@QEAAPEADH@Z ; CMemManager::newBuf
  00194	48 89 84 24 d0
	00 00 00	 mov	 QWORD PTR pBuf$[rsp], rax

; 592  : 
; 593  : 	_tcscpy(pBuf, header);

  0019c	48 8d 54 24 40	 lea	 rdx, QWORD PTR header$[rsp]
  001a1	48 8b 8c 24 d0
	00 00 00	 mov	 rcx, QWORD PTR pBuf$[rsp]
  001a9	e8 00 00 00 00	 call	 strcpy
$LN2@WritePacke:

; 594  : 
; 595  : 	while (nPacketSize--) {

  001ae	8b 84 24 28 01
	00 00		 mov	 eax, DWORD PTR nPacketSize$[rsp]
  001b5	89 84 24 e0 00
	00 00		 mov	 DWORD PTR tv132[rsp], eax
  001bc	8b 84 24 28 01
	00 00		 mov	 eax, DWORD PTR nPacketSize$[rsp]
  001c3	ff c8		 dec	 eax
  001c5	89 84 24 28 01
	00 00		 mov	 DWORD PTR nPacketSize$[rsp], eax
  001cc	83 bc 24 e0 00
	00 00 00	 cmp	 DWORD PTR tv132[rsp], 0
  001d4	74 64		 je	 SHORT $LN3@WritePacke

; 596  : 		_stprintf(pBuf+nLen, _T("%02x "), szBuffer[i] & 0x0ff);

  001d6	48 63 84 24 c4
	00 00 00	 movsxd	 rax, DWORD PTR i$[rsp]
  001de	48 8b 8c 24 20
	01 00 00	 mov	 rcx, QWORD PTR szBuffer$[rsp]
  001e6	0f be 04 01	 movsx	 eax, BYTE PTR [rcx+rax]
  001ea	25 ff 00 00 00	 and	 eax, 255		; 000000ffH
  001ef	48 63 8c 24 cc
	00 00 00	 movsxd	 rcx, DWORD PTR nLen$[rsp]
  001f7	48 8b 94 24 d0
	00 00 00	 mov	 rdx, QWORD PTR pBuf$[rsp]
  001ff	48 03 d1	 add	 rdx, rcx
  00202	48 8b ca	 mov	 rcx, rdx
  00205	44 8b c0	 mov	 r8d, eax
  00208	48 8d 15 00 00
	00 00		 lea	 rdx, OFFSET FLAT:$SG86740
  0020f	e8 00 00 00 00	 call	 sprintf

; 597  : 		nLen += 3; i++;

  00214	8b 84 24 cc 00
	00 00		 mov	 eax, DWORD PTR nLen$[rsp]
  0021b	83 c0 03	 add	 eax, 3
  0021e	89 84 24 cc 00
	00 00		 mov	 DWORD PTR nLen$[rsp], eax
  00225	8b 84 24 c4 00
	00 00		 mov	 eax, DWORD PTR i$[rsp]
  0022c	ff c0		 inc	 eax
  0022e	89 84 24 c4 00
	00 00		 mov	 DWORD PTR i$[rsp], eax

; 598  : 	}

  00235	e9 74 ff ff ff	 jmp	 $LN2@WritePacke
$LN3@WritePacke:

; 599  : 	pBuf[nLen] = '\n';

  0023a	48 63 84 24 cc
	00 00 00	 movsxd	 rax, DWORD PTR nLen$[rsp]
  00242	48 8b 8c 24 d0
	00 00 00	 mov	 rcx, QWORD PTR pBuf$[rsp]
  0024a	c6 04 01 0a	 mov	 BYTE PTR [rcx+rax], 10

; 600  : 	pBuf[nLen + 1] = 0;

  0024e	8b 84 24 cc 00
	00 00		 mov	 eax, DWORD PTR nLen$[rsp]
  00255	ff c0		 inc	 eax
  00257	48 98		 cdqe
  00259	48 8b 8c 24 d0
	00 00 00	 mov	 rcx, QWORD PTR pBuf$[rsp]
  00261	c6 04 01 00	 mov	 BYTE PTR [rcx+rax], 0

; 601  : 
; 602  : 	putQueue(pBuf);

  00265	48 8b 94 24 d0
	00 00 00	 mov	 rdx, QWORD PTR pBuf$[rsp]
  0026d	48 8b 8c 24 00
	01 00 00	 mov	 rcx, QWORD PTR this$[rsp]
  00275	e8 00 00 00 00	 call	 ?putQueue@CLogger@@QEAAXPEAD@Z ; CLogger::putQueue
$LN1@WritePacke:

; 603  : }

  0027a	48 8b cc	 mov	 rcx, rsp
  0027d	48 8d 15 00 00
	00 00		 lea	 rdx, OFFSET FLAT:?WritePacket@CLogger@@QEAAXHHHPEADH@Z$rtcFrameData
  00284	e8 00 00 00 00	 call	 _RTC_CheckStackVars
  00289	48 8b 8c 24 e8
	00 00 00	 mov	 rcx, QWORD PTR __$ArrayPad$[rsp]
  00291	48 33 cc	 xor	 rcx, rsp
  00294	e8 00 00 00 00	 call	 __security_check_cookie
  00299	48 81 c4 f0 00
	00 00		 add	 rsp, 240		; 000000f0H
  002a0	5f		 pop	 rdi
  002a1	c3		 ret	 0
?WritePacket@CLogger@@QEAAXHHHPEADH@Z ENDP		; CLogger::WritePacket
_TEXT	ENDS
; Function compile flags: /Odtp /RTCsu
; File e:\infinia-library-3.0\com\src\comlogger.cpp
_TEXT	SEGMENT
nLen$ = 32
msgBuf$ = 64
header$ = 8288
ap$ = 8824
pBuf$ = 8840
__$ArrayPad$ = 8856
this$ = 8880
level$ = 8888
_szFormat$ = 8896
?LogPrint@CLogger@@QEAAXHPEBDZZ PROC			; CLogger::LogPrint

; 542  : {

$LN5:
  00000	4c 89 44 24 18	 mov	 QWORD PTR [rsp+24], r8
  00005	89 54 24 10	 mov	 DWORD PTR [rsp+16], edx
  00009	48 89 4c 24 08	 mov	 QWORD PTR [rsp+8], rcx
  0000e	4c 89 4c 24 20	 mov	 QWORD PTR [rsp+32], r9
  00013	57		 push	 rdi
  00014	b8 a0 22 00 00	 mov	 eax, 8864		; 000022a0H
  00019	e8 00 00 00 00	 call	 __chkstk
  0001e	48 2b e0	 sub	 rsp, rax
  00021	48 8b fc	 mov	 rdi, rsp
  00024	b9 a8 08 00 00	 mov	 ecx, 2216		; 000008a8H
  00029	b8 cc cc cc cc	 mov	 eax, -858993460		; ccccccccH
  0002e	f3 ab		 rep stosd
  00030	48 8b 8c 24 b0
	22 00 00	 mov	 rcx, QWORD PTR [rsp+8880]
  00038	48 8b 05 00 00
	00 00		 mov	 rax, QWORD PTR __security_cookie
  0003f	48 33 c4	 xor	 rax, rsp
  00042	48 89 84 24 98
	22 00 00	 mov	 QWORD PTR __$ArrayPad$[rsp], rax

; 543  : 	if (!isLogFlag(IS_LOG_ENABLE)) return;

  0004a	ba 00 00 08 00	 mov	 edx, 524288		; 00080000H
  0004f	48 8b 8c 24 b0
	22 00 00	 mov	 rcx, QWORD PTR this$[rsp]
  00057	e8 00 00 00 00	 call	 ?isLogFlag@CLogger@@QEAA_NW4E_LOG_FLAG@@@Z ; CLogger::isLogFlag
  0005c	0f b6 c0	 movzx	 eax, al
  0005f	85 c0		 test	 eax, eax
  00061	75 05		 jne	 SHORT $LN2@LogPrint
  00063	e9 0b 01 00 00	 jmp	 $LN1@LogPrint
$LN2@LogPrint:

; 544  : 	if (level < m_nLogLevel) return;

  00068	48 8b 84 24 b0
	22 00 00	 mov	 rax, QWORD PTR this$[rsp]
  00070	8b 40 78	 mov	 eax, DWORD PTR [rax+120]
  00073	39 84 24 b8 22
	00 00		 cmp	 DWORD PTR level$[rsp], eax
  0007a	7d 05		 jge	 SHORT $LN3@LogPrint
  0007c	e9 f2 00 00 00	 jmp	 $LN1@LogPrint
$LN3@LogPrint:

; 545  : 
; 546  : //	char tmpBuf[512];
; 547  : 	int nLen;
; 548  : 
; 549  : 	TCHAR	msgBuf[MAX_LOGBUF_LEN];
; 550  : 	TCHAR	header[512];
; 551  : 	va_list	ap;
; 552  : 
; 553  : 	nLen = setHeader(header, level);

  00081	44 8b 84 24 b8
	22 00 00	 mov	 r8d, DWORD PTR level$[rsp]
  00089	48 8d 94 24 60
	20 00 00	 lea	 rdx, QWORD PTR header$[rsp]
  00091	48 8b 8c 24 b0
	22 00 00	 mov	 rcx, QWORD PTR this$[rsp]
  00099	e8 00 00 00 00	 call	 ?setHeader@CLogger@@QEAAHPEADH@Z ; CLogger::setHeader
  0009e	89 44 24 20	 mov	 DWORD PTR nLen$[rsp], eax

; 554  : 	sprintf(header + nLen, " %s ", _szFormat);

  000a2	48 63 44 24 20	 movsxd	 rax, DWORD PTR nLen$[rsp]
  000a7	48 8d 84 04 60
	20 00 00	 lea	 rax, QWORD PTR header$[rsp+rax]
  000af	4c 8b 84 24 c0
	22 00 00	 mov	 r8, QWORD PTR _szFormat$[rsp]
  000b7	48 8d 15 00 00
	00 00		 lea	 rdx, OFFSET FLAT:$SG86712
  000be	48 8b c8	 mov	 rcx, rax
  000c1	e8 00 00 00 00	 call	 sprintf

; 555  : 	va_start(ap, _szFormat);

  000c6	e8 00 00 00 00	 call	 ??$__vcrt_va_start_verify_argument_type@PEBD@@YAXXZ ; __vcrt_va_start_verify_argument_type<char const * __ptr64>
  000cb	48 8d 84 24 c8
	22 00 00	 lea	 rax, QWORD PTR _szFormat$[rsp+8]
  000d3	48 89 84 24 78
	22 00 00	 mov	 QWORD PTR ap$[rsp], rax

; 556  : 	nLen = vsnprintf(msgBuf, MAX_LOGBUF_LEN - 1, header, ap);

  000db	4c 8b 8c 24 78
	22 00 00	 mov	 r9, QWORD PTR ap$[rsp]
  000e3	4c 8d 84 24 60
	20 00 00	 lea	 r8, QWORD PTR header$[rsp]
  000eb	ba ff 1f 00 00	 mov	 edx, 8191		; 00001fffH
  000f0	48 8d 4c 24 40	 lea	 rcx, QWORD PTR msgBuf$[rsp]
  000f5	e8 00 00 00 00	 call	 vsnprintf
  000fa	89 44 24 20	 mov	 DWORD PTR nLen$[rsp], eax

; 557  : 	va_end(ap);

  000fe	48 c7 84 24 78
	22 00 00 00 00
	00 00		 mov	 QWORD PTR ap$[rsp], 0

; 558  : 
; 559  : 	TCHAR *pBuf = (TCHAR *)gs_pMMgr->newBuf(LEN_TO_SIZE(nLen + 2));

  0010a	8b 44 24 20	 mov	 eax, DWORD PTR nLen$[rsp]
  0010e	83 c0 02	 add	 eax, 2
  00111	8b d0		 mov	 edx, eax
  00113	48 8b 0d 00 00
	00 00		 mov	 rcx, QWORD PTR ?gs_pMMgr@@3PEAVCMemManager@@EA ; gs_pMMgr
  0011a	e8 00 00 00 00	 call	 ?newBuf@CMemManager@@QEAAPEADH@Z ; CMemManager::newBuf
  0011f	48 89 84 24 88
	22 00 00	 mov	 QWORD PTR pBuf$[rsp], rax

; 560  : 	_tcscpy(pBuf, msgBuf);

  00127	48 8d 54 24 40	 lea	 rdx, QWORD PTR msgBuf$[rsp]
  0012c	48 8b 8c 24 88
	22 00 00	 mov	 rcx, QWORD PTR pBuf$[rsp]
  00134	e8 00 00 00 00	 call	 strcpy

; 561  : 	pBuf[nLen] = '\n';

  00139	48 63 44 24 20	 movsxd	 rax, DWORD PTR nLen$[rsp]
  0013e	48 8b 8c 24 88
	22 00 00	 mov	 rcx, QWORD PTR pBuf$[rsp]
  00146	c6 04 01 0a	 mov	 BYTE PTR [rcx+rax], 10

; 562  : 	pBuf[nLen + 1] = 0;

  0014a	8b 44 24 20	 mov	 eax, DWORD PTR nLen$[rsp]
  0014e	ff c0		 inc	 eax
  00150	48 98		 cdqe
  00152	48 8b 8c 24 88
	22 00 00	 mov	 rcx, QWORD PTR pBuf$[rsp]
  0015a	c6 04 01 00	 mov	 BYTE PTR [rcx+rax], 0

; 563  : 
; 564  : 	LogPrint(pBuf);

  0015e	48 8b 94 24 88
	22 00 00	 mov	 rdx, QWORD PTR pBuf$[rsp]
  00166	48 8b 8c 24 b0
	22 00 00	 mov	 rcx, QWORD PTR this$[rsp]
  0016e	e8 00 00 00 00	 call	 ?LogPrint@CLogger@@QEAAXPEAD@Z ; CLogger::LogPrint
$LN1@LogPrint:

; 565  : }

  00173	48 8b cc	 mov	 rcx, rsp
  00176	48 8d 15 00 00
	00 00		 lea	 rdx, OFFSET FLAT:?LogPrint@CLogger@@QEAAXHPEBDZZ$rtcFrameData
  0017d	e8 00 00 00 00	 call	 _RTC_CheckStackVars
  00182	48 8b 8c 24 98
	22 00 00	 mov	 rcx, QWORD PTR __$ArrayPad$[rsp]
  0018a	48 33 cc	 xor	 rcx, rsp
  0018d	e8 00 00 00 00	 call	 __security_check_cookie
  00192	48 81 c4 a0 22
	00 00		 add	 rsp, 8864		; 000022a0H
  00199	5f		 pop	 rdi
  0019a	c3		 ret	 0
?LogPrint@CLogger@@QEAAXHPEBDZZ ENDP			; CLogger::LogPrint
_TEXT	ENDS
; Function compile flags: /Odtp /RTCsu
; File e:\infinia-library-3.0\com\src\comlogger.cpp
_TEXT	SEGMENT
this$ = 48
pLog$ = 56
?LogPrint@CLogger@@QEAAXPEAD@Z PROC			; CLogger::LogPrint

; 483  : {

$LN7:
  00000	48 89 54 24 10	 mov	 QWORD PTR [rsp+16], rdx
  00005	48 89 4c 24 08	 mov	 QWORD PTR [rsp+8], rcx
  0000a	57		 push	 rdi
  0000b	48 83 ec 20	 sub	 rsp, 32			; 00000020H
  0000f	48 8b fc	 mov	 rdi, rsp
  00012	b9 08 00 00 00	 mov	 ecx, 8
  00017	b8 cc cc cc cc	 mov	 eax, -858993460		; ccccccccH
  0001c	f3 ab		 rep stosd
  0001e	48 8b 4c 24 30	 mov	 rcx, QWORD PTR [rsp+48]

; 484  : 	if (m_fpDataProc) m_fpDataProc(pLog, m_pObj);

  00023	48 8b 44 24 30	 mov	 rax, QWORD PTR this$[rsp]
  00028	48 83 78 60 00	 cmp	 QWORD PTR [rax+96], 0
  0002d	74 16		 je	 SHORT $LN2@LogPrint
  0002f	48 8b 44 24 30	 mov	 rax, QWORD PTR this$[rsp]
  00034	48 8b 50 70	 mov	 rdx, QWORD PTR [rax+112]
  00038	48 8b 4c 24 38	 mov	 rcx, QWORD PTR pLog$[rsp]
  0003d	48 8b 44 24 30	 mov	 rax, QWORD PTR this$[rsp]
  00042	ff 50 60	 call	 QWORD PTR [rax+96]
$LN2@LogPrint:

; 485  : 	if (m_hFile) {

  00045	48 8b 44 24 30	 mov	 rax, QWORD PTR this$[rsp]
  0004a	48 83 b8 88 00
	00 00 00	 cmp	 QWORD PTR [rax+136], 0
  00052	74 5c		 je	 SHORT $LN3@LogPrint

; 486  : 		if (m_nLogFlag & IS_PRINT) _tprintf(pLog);

  00054	48 8b 44 24 30	 mov	 rax, QWORD PTR this$[rsp]
  00059	8b 80 b4 00 00
	00		 mov	 eax, DWORD PTR [rax+180]
  0005f	25 00 20 00 00	 and	 eax, 8192		; 00002000H
  00064	85 c0		 test	 eax, eax
  00066	74 0a		 je	 SHORT $LN4@LogPrint
  00068	48 8b 4c 24 38	 mov	 rcx, QWORD PTR pLog$[rsp]
  0006d	e8 00 00 00 00	 call	 printf
$LN4@LogPrint:

; 487  : 		if (isLogFlag(IS_LOG_OPEN)) {

  00072	ba 00 00 04 00	 mov	 edx, 262144		; 00040000H
  00077	48 8b 4c 24 30	 mov	 rcx, QWORD PTR this$[rsp]
  0007c	e8 00 00 00 00	 call	 ?isLogFlag@CLogger@@QEAA_NW4E_LOG_FLAG@@@Z ; CLogger::isLogFlag
  00081	0f b6 c0	 movzx	 eax, al
  00084	85 c0		 test	 eax, eax
  00086	74 28		 je	 SHORT $LN5@LogPrint

; 488  : 			_ftprintf(m_hFile, pLog);

  00088	48 8b 54 24 38	 mov	 rdx, QWORD PTR pLog$[rsp]
  0008d	48 8b 44 24 30	 mov	 rax, QWORD PTR this$[rsp]
  00092	48 8b 88 88 00
	00 00		 mov	 rcx, QWORD PTR [rax+136]
  00099	e8 00 00 00 00	 call	 fprintf

; 489  : 			fflush(m_hFile);

  0009e	48 8b 44 24 30	 mov	 rax, QWORD PTR this$[rsp]
  000a3	48 8b 88 88 00
	00 00		 mov	 rcx, QWORD PTR [rax+136]
  000aa	ff 15 00 00 00
	00		 call	 QWORD PTR __imp_fflush
$LN5@LogPrint:
$LN3@LogPrint:

; 490  : 		}
; 491  : 		//else {
; 492  : 		//	//m_cLock.enter();
; 493  : 		//	_ftprintf(m_hFile, pLog);
; 494  : 		//	fflush(m_hFile);
; 495  : 		//	//m_cLock.leave();
; 496  : 		//}
; 497  : 
; 498  : 	}
; 499  : }

  000b0	48 83 c4 20	 add	 rsp, 32			; 00000020H
  000b4	5f		 pop	 rdi
  000b5	c3		 ret	 0
?LogPrint@CLogger@@QEAAXPEAD@Z ENDP			; CLogger::LogPrint
_TEXT	ENDS
; Function compile flags: /Odtp /RTCsu
; File e:\infinia-library-3.0\com\src\comlogger.cpp
_TEXT	SEGMENT
headerLen$ = 32
bodyLen$ = 36
totlen$ = 40
headerBuf$ = 64
pBuf$ = 8264
tv88 = 8280
__$ArrayPad$ = 8288
this$ = 8320
level$ = 8328
body$ = 8336
header$ = 8344
tail$ = 8352
bToFile$ = 8360
?Log@CLogger@@QEAAXHPEBD00_N@Z PROC			; CLogger::Log

; 502  : {

$LN9:
  00000	4c 89 4c 24 20	 mov	 QWORD PTR [rsp+32], r9
  00005	4c 89 44 24 18	 mov	 QWORD PTR [rsp+24], r8
  0000a	89 54 24 10	 mov	 DWORD PTR [rsp+16], edx
  0000e	48 89 4c 24 08	 mov	 QWORD PTR [rsp+8], rcx
  00013	57		 push	 rdi
  00014	b8 70 20 00 00	 mov	 eax, 8304		; 00002070H
  00019	e8 00 00 00 00	 call	 __chkstk
  0001e	48 2b e0	 sub	 rsp, rax
  00021	48 8b fc	 mov	 rdi, rsp
  00024	b9 1c 08 00 00	 mov	 ecx, 2076		; 0000081cH
  00029	b8 cc cc cc cc	 mov	 eax, -858993460		; ccccccccH
  0002e	f3 ab		 rep stosd
  00030	48 8b 8c 24 80
	20 00 00	 mov	 rcx, QWORD PTR [rsp+8320]
  00038	48 8b 05 00 00
	00 00		 mov	 rax, QWORD PTR __security_cookie
  0003f	48 33 c4	 xor	 rax, rsp
  00042	48 89 84 24 60
	20 00 00	 mov	 QWORD PTR __$ArrayPad$[rsp], rax

; 503  : 	if (!isLogFlag(IS_LOG_ENABLE)) return;

  0004a	ba 00 00 08 00	 mov	 edx, 524288		; 00080000H
  0004f	48 8b 8c 24 80
	20 00 00	 mov	 rcx, QWORD PTR this$[rsp]
  00057	e8 00 00 00 00	 call	 ?isLogFlag@CLogger@@QEAA_NW4E_LOG_FLAG@@@Z ; CLogger::isLogFlag
  0005c	0f b6 c0	 movzx	 eax, al
  0005f	85 c0		 test	 eax, eax
  00061	75 05		 jne	 SHORT $LN2@Log
  00063	e9 12 02 00 00	 jmp	 $LN1@Log
$LN2@Log:

; 504  : 	if (level < m_nLogLevel) return;

  00068	48 8b 84 24 80
	20 00 00	 mov	 rax, QWORD PTR this$[rsp]
  00070	8b 40 78	 mov	 eax, DWORD PTR [rax+120]
  00073	39 84 24 88 20
	00 00		 cmp	 DWORD PTR level$[rsp], eax
  0007a	7d 05		 jge	 SHORT $LN3@Log
  0007c	e9 f9 01 00 00	 jmp	 $LN1@Log
$LN3@Log:

; 505  : 
; 506  : 	int headerLen, bodyLen=0, totlen=0;

  00081	c7 44 24 24 00
	00 00 00	 mov	 DWORD PTR bodyLen$[rsp], 0
  00089	c7 44 24 28 00
	00 00 00	 mov	 DWORD PTR totlen$[rsp], 0

; 507  : 
; 508  : 	TCHAR    headerBuf[MAX_LOGBUF_LEN];
; 509  : 	TCHAR *pBuf;
; 510  : 
; 511  : 	headerLen = setHeader(headerBuf, level);

  00091	44 8b 84 24 88
	20 00 00	 mov	 r8d, DWORD PTR level$[rsp]
  00099	48 8d 54 24 40	 lea	 rdx, QWORD PTR headerBuf$[rsp]
  0009e	48 8b 8c 24 80
	20 00 00	 mov	 rcx, QWORD PTR this$[rsp]
  000a6	e8 00 00 00 00	 call	 ?setHeader@CLogger@@QEAAHPEADH@Z ; CLogger::setHeader
  000ab	89 44 24 20	 mov	 DWORD PTR headerLen$[rsp], eax

; 512  : 
; 513  : 	// calculate total length ----------------
; 514  : 	if (header) {

  000af	48 83 bc 24 98
	20 00 00 00	 cmp	 QWORD PTR header$[rsp], 0
  000b8	74 33		 je	 SHORT $LN4@Log

; 515  : 		_tcscpy(headerBuf + headerLen, header); headerLen += (int)_tcslen(header);;

  000ba	48 63 44 24 20	 movsxd	 rax, DWORD PTR headerLen$[rsp]
  000bf	48 8d 44 04 40	 lea	 rax, QWORD PTR headerBuf$[rsp+rax]
  000c4	48 8b 94 24 98
	20 00 00	 mov	 rdx, QWORD PTR header$[rsp]
  000cc	48 8b c8	 mov	 rcx, rax
  000cf	e8 00 00 00 00	 call	 strcpy
  000d4	48 8b 8c 24 98
	20 00 00	 mov	 rcx, QWORD PTR header$[rsp]
  000dc	e8 00 00 00 00	 call	 strlen
  000e1	8b 4c 24 20	 mov	 ecx, DWORD PTR headerLen$[rsp]
  000e5	03 c8		 add	 ecx, eax
  000e7	8b c1		 mov	 eax, ecx
  000e9	89 44 24 20	 mov	 DWORD PTR headerLen$[rsp], eax
$LN4@Log:

; 516  : 	}
; 517  : 	bodyLen = (int)_tcslen(body);

  000ed	48 8b 8c 24 90
	20 00 00	 mov	 rcx, QWORD PTR body$[rsp]
  000f5	e8 00 00 00 00	 call	 strlen
  000fa	89 44 24 24	 mov	 DWORD PTR bodyLen$[rsp], eax

; 518  : 	if (tail) { 

  000fe	48 83 bc 24 a0
	20 00 00 00	 cmp	 QWORD PTR tail$[rsp], 0
  00107	0f 84 ae 00 00
	00		 je	 $LN5@Log

; 519  : 		totlen = headerLen + bodyLen + (int)_tcslen(tail);

  0010d	8b 44 24 24	 mov	 eax, DWORD PTR bodyLen$[rsp]
  00111	8b 4c 24 20	 mov	 ecx, DWORD PTR headerLen$[rsp]
  00115	03 c8		 add	 ecx, eax
  00117	8b c1		 mov	 eax, ecx
  00119	89 84 24 58 20
	00 00		 mov	 DWORD PTR tv88[rsp], eax
  00120	48 8b 8c 24 a0
	20 00 00	 mov	 rcx, QWORD PTR tail$[rsp]
  00128	e8 00 00 00 00	 call	 strlen
  0012d	8b 8c 24 58 20
	00 00		 mov	 ecx, DWORD PTR tv88[rsp]
  00134	03 c8		 add	 ecx, eax
  00136	8b c1		 mov	 eax, ecx
  00138	89 44 24 28	 mov	 DWORD PTR totlen$[rsp], eax

; 520  : 		pBuf = (TCHAR *)gs_pMMgr->newBuf(LEN_TO_SIZE(totlen + 2));

  0013c	8b 44 24 28	 mov	 eax, DWORD PTR totlen$[rsp]
  00140	83 c0 02	 add	 eax, 2
  00143	8b d0		 mov	 edx, eax
  00145	48 8b 0d 00 00
	00 00		 mov	 rcx, QWORD PTR ?gs_pMMgr@@3PEAVCMemManager@@EA ; gs_pMMgr
  0014c	e8 00 00 00 00	 call	 ?newBuf@CMemManager@@QEAAPEADH@Z ; CMemManager::newBuf
  00151	48 89 84 24 48
	20 00 00	 mov	 QWORD PTR pBuf$[rsp], rax

; 521  : 		_tcscpy(pBuf, headerBuf);

  00159	48 8d 54 24 40	 lea	 rdx, QWORD PTR headerBuf$[rsp]
  0015e	48 8b 8c 24 48
	20 00 00	 mov	 rcx, QWORD PTR pBuf$[rsp]
  00166	e8 00 00 00 00	 call	 strcpy

; 522  : 		_tcscpy(pBuf + headerLen, body);

  0016b	48 63 44 24 20	 movsxd	 rax, DWORD PTR headerLen$[rsp]
  00170	48 8b 8c 24 48
	20 00 00	 mov	 rcx, QWORD PTR pBuf$[rsp]
  00178	48 03 c8	 add	 rcx, rax
  0017b	48 8b c1	 mov	 rax, rcx
  0017e	48 8b 94 24 90
	20 00 00	 mov	 rdx, QWORD PTR body$[rsp]
  00186	48 8b c8	 mov	 rcx, rax
  00189	e8 00 00 00 00	 call	 strcpy

; 523  : 		_tcscpy(pBuf + headerLen + bodyLen, tail);

  0018e	48 63 44 24 20	 movsxd	 rax, DWORD PTR headerLen$[rsp]
  00193	48 8b 8c 24 48
	20 00 00	 mov	 rcx, QWORD PTR pBuf$[rsp]
  0019b	48 03 c8	 add	 rcx, rax
  0019e	48 8b c1	 mov	 rax, rcx
  001a1	48 63 4c 24 24	 movsxd	 rcx, DWORD PTR bodyLen$[rsp]
  001a6	48 03 c1	 add	 rax, rcx
  001a9	48 8b 94 24 a0
	20 00 00	 mov	 rdx, QWORD PTR tail$[rsp]
  001b1	48 8b c8	 mov	 rcx, rax
  001b4	e8 00 00 00 00	 call	 strcpy

; 524  : 	}
; 525  : 	else {

  001b9	eb 62		 jmp	 SHORT $LN6@Log
$LN5@Log:

; 526  : 		totlen = headerLen + bodyLen;

  001bb	8b 44 24 24	 mov	 eax, DWORD PTR bodyLen$[rsp]
  001bf	8b 4c 24 20	 mov	 ecx, DWORD PTR headerLen$[rsp]
  001c3	03 c8		 add	 ecx, eax
  001c5	8b c1		 mov	 eax, ecx
  001c7	89 44 24 28	 mov	 DWORD PTR totlen$[rsp], eax

; 527  : 		pBuf = (TCHAR *)gs_pMMgr->newBuf(LEN_TO_SIZE(totlen + 2));

  001cb	8b 44 24 28	 mov	 eax, DWORD PTR totlen$[rsp]
  001cf	83 c0 02	 add	 eax, 2
  001d2	8b d0		 mov	 edx, eax
  001d4	48 8b 0d 00 00
	00 00		 mov	 rcx, QWORD PTR ?gs_pMMgr@@3PEAVCMemManager@@EA ; gs_pMMgr
  001db	e8 00 00 00 00	 call	 ?newBuf@CMemManager@@QEAAPEADH@Z ; CMemManager::newBuf
  001e0	48 89 84 24 48
	20 00 00	 mov	 QWORD PTR pBuf$[rsp], rax

; 528  : 		_tcscpy(pBuf, headerBuf);

  001e8	48 8d 54 24 40	 lea	 rdx, QWORD PTR headerBuf$[rsp]
  001ed	48 8b 8c 24 48
	20 00 00	 mov	 rcx, QWORD PTR pBuf$[rsp]
  001f5	e8 00 00 00 00	 call	 strcpy

; 529  : 		_tcscpy(pBuf + headerLen, body);

  001fa	48 63 44 24 20	 movsxd	 rax, DWORD PTR headerLen$[rsp]
  001ff	48 8b 8c 24 48
	20 00 00	 mov	 rcx, QWORD PTR pBuf$[rsp]
  00207	48 03 c8	 add	 rcx, rax
  0020a	48 8b c1	 mov	 rax, rcx
  0020d	48 8b 94 24 90
	20 00 00	 mov	 rdx, QWORD PTR body$[rsp]
  00215	48 8b c8	 mov	 rcx, rax
  00218	e8 00 00 00 00	 call	 strcpy
$LN6@Log:

; 530  : 	}
; 531  : 	// calcuate end -------------------------
; 532  : 
; 533  : 	pBuf[totlen] = '\n';

  0021d	48 63 44 24 28	 movsxd	 rax, DWORD PTR totlen$[rsp]
  00222	48 8b 8c 24 48
	20 00 00	 mov	 rcx, QWORD PTR pBuf$[rsp]
  0022a	c6 04 01 0a	 mov	 BYTE PTR [rcx+rax], 10

; 534  : 	pBuf[totlen+1] = 0;

  0022e	8b 44 24 28	 mov	 eax, DWORD PTR totlen$[rsp]
  00232	ff c0		 inc	 eax
  00234	48 98		 cdqe
  00236	48 8b 8c 24 48
	20 00 00	 mov	 rcx, QWORD PTR pBuf$[rsp]
  0023e	c6 04 01 00	 mov	 BYTE PTR [rcx+rax], 0

; 535  : 	if (bToFile) {

  00242	0f b6 84 24 a8
	20 00 00	 movzx	 eax, BYTE PTR bToFile$[rsp]
  0024a	85 c0		 test	 eax, eax
  0024c	74 17		 je	 SHORT $LN7@Log

; 536  : 		LogPrint(pBuf); return;

  0024e	48 8b 94 24 48
	20 00 00	 mov	 rdx, QWORD PTR pBuf$[rsp]
  00256	48 8b 8c 24 80
	20 00 00	 mov	 rcx, QWORD PTR this$[rsp]
  0025e	e8 00 00 00 00	 call	 ?LogPrint@CLogger@@QEAAXPEAD@Z ; CLogger::LogPrint
  00263	eb 15		 jmp	 SHORT $LN1@Log
$LN7@Log:

; 537  : 	}
; 538  : 	putQueue(pBuf);

  00265	48 8b 94 24 48
	20 00 00	 mov	 rdx, QWORD PTR pBuf$[rsp]
  0026d	48 8b 8c 24 80
	20 00 00	 mov	 rcx, QWORD PTR this$[rsp]
  00275	e8 00 00 00 00	 call	 ?putQueue@CLogger@@QEAAXPEAD@Z ; CLogger::putQueue
$LN1@Log:

; 539  : }

  0027a	48 8b cc	 mov	 rcx, rsp
  0027d	48 8d 15 00 00
	00 00		 lea	 rdx, OFFSET FLAT:?Log@CLogger@@QEAAXHPEBD00_N@Z$rtcFrameData
  00284	e8 00 00 00 00	 call	 _RTC_CheckStackVars
  00289	48 8b 8c 24 60
	20 00 00	 mov	 rcx, QWORD PTR __$ArrayPad$[rsp]
  00291	48 33 cc	 xor	 rcx, rsp
  00294	e8 00 00 00 00	 call	 __security_check_cookie
  00299	48 81 c4 70 20
	00 00		 add	 rsp, 8304		; 00002070H
  002a0	5f		 pop	 rdi
  002a1	c3		 ret	 0
?Log@CLogger@@QEAAXHPEBD00_N@Z ENDP			; CLogger::Log
_TEXT	ENDS
; Function compile flags: /Odtp /RTCsu
; File e:\infinia-library-3.0\com\src\comlogger.cpp
_TEXT	SEGMENT
header$ = 48
nLen2$ = 564
nLen$ = 568
pBuf$ = 576
__$ArrayPad$ = 592
this$ = 624
level$ = 632
pBody$ = 640
?PutLogQueue@CLogger@@QEAAXHPEAD@Z PROC			; CLogger::PutLogQueue

; 667  : {

$LN5:
  00000	4c 89 44 24 18	 mov	 QWORD PTR [rsp+24], r8
  00005	89 54 24 10	 mov	 DWORD PTR [rsp+16], edx
  00009	48 89 4c 24 08	 mov	 QWORD PTR [rsp+8], rcx
  0000e	57		 push	 rdi
  0000f	48 81 ec 60 02
	00 00		 sub	 rsp, 608		; 00000260H
  00016	48 8b fc	 mov	 rdi, rsp
  00019	b9 98 00 00 00	 mov	 ecx, 152		; 00000098H
  0001e	b8 cc cc cc cc	 mov	 eax, -858993460		; ccccccccH
  00023	f3 ab		 rep stosd
  00025	48 8b 8c 24 70
	02 00 00	 mov	 rcx, QWORD PTR [rsp+624]
  0002d	48 8b 05 00 00
	00 00		 mov	 rax, QWORD PTR __security_cookie
  00034	48 33 c4	 xor	 rax, rsp
  00037	48 89 84 24 50
	02 00 00	 mov	 QWORD PTR __$ArrayPad$[rsp], rax

; 668  : 	if (!isLogFlag(IS_LOG_ENABLE)) return;

  0003f	ba 00 00 08 00	 mov	 edx, 524288		; 00080000H
  00044	48 8b 8c 24 70
	02 00 00	 mov	 rcx, QWORD PTR this$[rsp]
  0004c	e8 00 00 00 00	 call	 ?isLogFlag@CLogger@@QEAA_NW4E_LOG_FLAG@@@Z ; CLogger::isLogFlag
  00051	0f b6 c0	 movzx	 eax, al
  00054	85 c0		 test	 eax, eax
  00056	75 05		 jne	 SHORT $LN2@PutLogQueu
  00058	e9 ed 00 00 00	 jmp	 $LN1@PutLogQueu
$LN2@PutLogQueu:

; 669  : 	if (level < m_nLogLevel) return;

  0005d	48 8b 84 24 70
	02 00 00	 mov	 rax, QWORD PTR this$[rsp]
  00065	8b 40 78	 mov	 eax, DWORD PTR [rax+120]
  00068	39 84 24 78 02
	00 00		 cmp	 DWORD PTR level$[rsp], eax
  0006f	7d 05		 jge	 SHORT $LN3@PutLogQueu
  00071	e9 d4 00 00 00	 jmp	 $LN1@PutLogQueu
$LN3@PutLogQueu:

; 670  : 	
; 671  : 	TCHAR	header[512];
; 672  : 
; 673  : 	int nLen2	= setHeader(header, level);

  00076	44 8b 84 24 78
	02 00 00	 mov	 r8d, DWORD PTR level$[rsp]
  0007e	48 8d 54 24 30	 lea	 rdx, QWORD PTR header$[rsp]
  00083	48 8b 8c 24 70
	02 00 00	 mov	 rcx, QWORD PTR this$[rsp]
  0008b	e8 00 00 00 00	 call	 ?setHeader@CLogger@@QEAAHPEADH@Z ; CLogger::setHeader
  00090	89 84 24 34 02
	00 00		 mov	 DWORD PTR nLen2$[rsp], eax

; 674  : 	int nLen = (int)_tcslen(pBody) + nLen2;

  00097	48 8b 8c 24 80
	02 00 00	 mov	 rcx, QWORD PTR pBody$[rsp]
  0009f	e8 00 00 00 00	 call	 strlen
  000a4	03 84 24 34 02
	00 00		 add	 eax, DWORD PTR nLen2$[rsp]
  000ab	89 84 24 38 02
	00 00		 mov	 DWORD PTR nLen$[rsp], eax

; 675  : 
; 676  : 	TCHAR *pBuf = (TCHAR *)gs_pMMgr->newBuf(LEN_TO_SIZE(nLen + 2));

  000b2	8b 84 24 38 02
	00 00		 mov	 eax, DWORD PTR nLen$[rsp]
  000b9	83 c0 02	 add	 eax, 2
  000bc	8b d0		 mov	 edx, eax
  000be	48 8b 0d 00 00
	00 00		 mov	 rcx, QWORD PTR ?gs_pMMgr@@3PEAVCMemManager@@EA ; gs_pMMgr
  000c5	e8 00 00 00 00	 call	 ?newBuf@CMemManager@@QEAAPEADH@Z ; CMemManager::newBuf
  000ca	48 89 84 24 40
	02 00 00	 mov	 QWORD PTR pBuf$[rsp], rax

; 677  : 	_tcscpy(pBuf, header);

  000d2	48 8d 54 24 30	 lea	 rdx, QWORD PTR header$[rsp]
  000d7	48 8b 8c 24 40
	02 00 00	 mov	 rcx, QWORD PTR pBuf$[rsp]
  000df	e8 00 00 00 00	 call	 strcpy

; 678  : 	_tcscpy(pBuf + nLen2, pBody);

  000e4	48 63 84 24 34
	02 00 00	 movsxd	 rax, DWORD PTR nLen2$[rsp]
  000ec	48 8b 8c 24 40
	02 00 00	 mov	 rcx, QWORD PTR pBuf$[rsp]
  000f4	48 03 c8	 add	 rcx, rax
  000f7	48 8b c1	 mov	 rax, rcx
  000fa	48 8b 94 24 80
	02 00 00	 mov	 rdx, QWORD PTR pBody$[rsp]
  00102	48 8b c8	 mov	 rcx, rax
  00105	e8 00 00 00 00	 call	 strcpy

; 679  : 	pBuf[nLen] = '\n';

  0010a	48 63 84 24 38
	02 00 00	 movsxd	 rax, DWORD PTR nLen$[rsp]
  00112	48 8b 8c 24 40
	02 00 00	 mov	 rcx, QWORD PTR pBuf$[rsp]
  0011a	c6 04 01 0a	 mov	 BYTE PTR [rcx+rax], 10

; 680  : 	pBuf[nLen + 1] = 0;

  0011e	8b 84 24 38 02
	00 00		 mov	 eax, DWORD PTR nLen$[rsp]
  00125	ff c0		 inc	 eax
  00127	48 98		 cdqe
  00129	48 8b 8c 24 40
	02 00 00	 mov	 rcx, QWORD PTR pBuf$[rsp]
  00131	c6 04 01 00	 mov	 BYTE PTR [rcx+rax], 0

; 681  : 	putQueue(pBuf);

  00135	48 8b 94 24 40
	02 00 00	 mov	 rdx, QWORD PTR pBuf$[rsp]
  0013d	48 8b 8c 24 70
	02 00 00	 mov	 rcx, QWORD PTR this$[rsp]
  00145	e8 00 00 00 00	 call	 ?putQueue@CLogger@@QEAAXPEAD@Z ; CLogger::putQueue
$LN1@PutLogQueu:

; 682  : }

  0014a	48 8b cc	 mov	 rcx, rsp
  0014d	48 8d 15 00 00
	00 00		 lea	 rdx, OFFSET FLAT:?PutLogQueue@CLogger@@QEAAXHPEAD@Z$rtcFrameData
  00154	e8 00 00 00 00	 call	 _RTC_CheckStackVars
  00159	48 8b 8c 24 50
	02 00 00	 mov	 rcx, QWORD PTR __$ArrayPad$[rsp]
  00161	48 33 cc	 xor	 rcx, rsp
  00164	e8 00 00 00 00	 call	 __security_check_cookie
  00169	48 81 c4 60 02
	00 00		 add	 rsp, 608		; 00000260H
  00170	5f		 pop	 rdi
  00171	c3		 ret	 0
?PutLogQueue@CLogger@@QEAAXHPEAD@Z ENDP			; CLogger::PutLogQueue
_TEXT	ENDS
; Function compile flags: /Odtp /RTCsu
; File e:\infinia-library-3.0\com\src\comlogger.cpp
_TEXT	SEGMENT
nLen$ = 32
msgBuf$ = 64
header$ = 8288
ap$ = 8824
pBuf$ = 8840
__$ArrayPad$ = 8856
this$ = 8880
level$ = 8888
_szFormat$ = 8896
?PutLogQueue@CLogger@@QEAAXHPEBDZZ PROC			; CLogger::PutLogQueue

; 644  : {

$LN5:
  00000	4c 89 44 24 18	 mov	 QWORD PTR [rsp+24], r8
  00005	89 54 24 10	 mov	 DWORD PTR [rsp+16], edx
  00009	48 89 4c 24 08	 mov	 QWORD PTR [rsp+8], rcx
  0000e	4c 89 4c 24 20	 mov	 QWORD PTR [rsp+32], r9
  00013	57		 push	 rdi
  00014	b8 a0 22 00 00	 mov	 eax, 8864		; 000022a0H
  00019	e8 00 00 00 00	 call	 __chkstk
  0001e	48 2b e0	 sub	 rsp, rax
  00021	48 8b fc	 mov	 rdi, rsp
  00024	b9 a8 08 00 00	 mov	 ecx, 2216		; 000008a8H
  00029	b8 cc cc cc cc	 mov	 eax, -858993460		; ccccccccH
  0002e	f3 ab		 rep stosd
  00030	48 8b 8c 24 b0
	22 00 00	 mov	 rcx, QWORD PTR [rsp+8880]
  00038	48 8b 05 00 00
	00 00		 mov	 rax, QWORD PTR __security_cookie
  0003f	48 33 c4	 xor	 rax, rsp
  00042	48 89 84 24 98
	22 00 00	 mov	 QWORD PTR __$ArrayPad$[rsp], rax

; 645  : 	if (!isLogFlag(IS_LOG_ENABLE)) return;

  0004a	ba 00 00 08 00	 mov	 edx, 524288		; 00080000H
  0004f	48 8b 8c 24 b0
	22 00 00	 mov	 rcx, QWORD PTR this$[rsp]
  00057	e8 00 00 00 00	 call	 ?isLogFlag@CLogger@@QEAA_NW4E_LOG_FLAG@@@Z ; CLogger::isLogFlag
  0005c	0f b6 c0	 movzx	 eax, al
  0005f	85 c0		 test	 eax, eax
  00061	75 05		 jne	 SHORT $LN2@PutLogQueu
  00063	e9 0b 01 00 00	 jmp	 $LN1@PutLogQueu
$LN2@PutLogQueu:

; 646  : 	if (level < m_nLogLevel) return;

  00068	48 8b 84 24 b0
	22 00 00	 mov	 rax, QWORD PTR this$[rsp]
  00070	8b 40 78	 mov	 eax, DWORD PTR [rax+120]
  00073	39 84 24 b8 22
	00 00		 cmp	 DWORD PTR level$[rsp], eax
  0007a	7d 05		 jge	 SHORT $LN3@PutLogQueu
  0007c	e9 f2 00 00 00	 jmp	 $LN1@PutLogQueu
$LN3@PutLogQueu:

; 647  : 
; 648  : 	int nLen;
; 649  : 
; 650  : 	TCHAR	msgBuf[MAX_LOGBUF_LEN];
; 651  : 	TCHAR	header[512];
; 652  : 	va_list	ap;
; 653  : 
; 654  : 	nLen = setHeader(header, level);

  00081	44 8b 84 24 b8
	22 00 00	 mov	 r8d, DWORD PTR level$[rsp]
  00089	48 8d 94 24 60
	20 00 00	 lea	 rdx, QWORD PTR header$[rsp]
  00091	48 8b 8c 24 b0
	22 00 00	 mov	 rcx, QWORD PTR this$[rsp]
  00099	e8 00 00 00 00	 call	 ?setHeader@CLogger@@QEAAHPEADH@Z ; CLogger::setHeader
  0009e	89 44 24 20	 mov	 DWORD PTR nLen$[rsp], eax

; 655  : 	sprintf(header + nLen, " %s ", _szFormat);

  000a2	48 63 44 24 20	 movsxd	 rax, DWORD PTR nLen$[rsp]
  000a7	48 8d 84 04 60
	20 00 00	 lea	 rax, QWORD PTR header$[rsp+rax]
  000af	4c 8b 84 24 c0
	22 00 00	 mov	 r8, QWORD PTR _szFormat$[rsp]
  000b7	48 8d 15 00 00
	00 00		 lea	 rdx, OFFSET FLAT:$SG86779
  000be	48 8b c8	 mov	 rcx, rax
  000c1	e8 00 00 00 00	 call	 sprintf

; 656  : 	va_start(ap, _szFormat);

  000c6	e8 00 00 00 00	 call	 ??$__vcrt_va_start_verify_argument_type@PEBD@@YAXXZ ; __vcrt_va_start_verify_argument_type<char const * __ptr64>
  000cb	48 8d 84 24 c8
	22 00 00	 lea	 rax, QWORD PTR _szFormat$[rsp+8]
  000d3	48 89 84 24 78
	22 00 00	 mov	 QWORD PTR ap$[rsp], rax

; 657  : 	nLen = _vsntprintf(msgBuf, MAX_LOGBUF_LEN - 1, header, ap);

  000db	4c 8b 8c 24 78
	22 00 00	 mov	 r9, QWORD PTR ap$[rsp]
  000e3	4c 8d 84 24 60
	20 00 00	 lea	 r8, QWORD PTR header$[rsp]
  000eb	ba ff 1f 00 00	 mov	 edx, 8191		; 00001fffH
  000f0	48 8d 4c 24 40	 lea	 rcx, QWORD PTR msgBuf$[rsp]
  000f5	e8 00 00 00 00	 call	 _vsnprintf
  000fa	89 44 24 20	 mov	 DWORD PTR nLen$[rsp], eax

; 658  : 	va_end(ap);

  000fe	48 c7 84 24 78
	22 00 00 00 00
	00 00		 mov	 QWORD PTR ap$[rsp], 0

; 659  : 	TCHAR *pBuf = (TCHAR *)gs_pMMgr->newBuf(LEN_TO_SIZE(nLen+2));

  0010a	8b 44 24 20	 mov	 eax, DWORD PTR nLen$[rsp]
  0010e	83 c0 02	 add	 eax, 2
  00111	8b d0		 mov	 edx, eax
  00113	48 8b 0d 00 00
	00 00		 mov	 rcx, QWORD PTR ?gs_pMMgr@@3PEAVCMemManager@@EA ; gs_pMMgr
  0011a	e8 00 00 00 00	 call	 ?newBuf@CMemManager@@QEAAPEADH@Z ; CMemManager::newBuf
  0011f	48 89 84 24 88
	22 00 00	 mov	 QWORD PTR pBuf$[rsp], rax

; 660  : 	_tcscpy(pBuf, msgBuf);

  00127	48 8d 54 24 40	 lea	 rdx, QWORD PTR msgBuf$[rsp]
  0012c	48 8b 8c 24 88
	22 00 00	 mov	 rcx, QWORD PTR pBuf$[rsp]
  00134	e8 00 00 00 00	 call	 strcpy

; 661  : 	pBuf[nLen] = '\n';

  00139	48 63 44 24 20	 movsxd	 rax, DWORD PTR nLen$[rsp]
  0013e	48 8b 8c 24 88
	22 00 00	 mov	 rcx, QWORD PTR pBuf$[rsp]
  00146	c6 04 01 0a	 mov	 BYTE PTR [rcx+rax], 10

; 662  : 	pBuf[nLen + 1] = 0;

  0014a	8b 44 24 20	 mov	 eax, DWORD PTR nLen$[rsp]
  0014e	ff c0		 inc	 eax
  00150	48 98		 cdqe
  00152	48 8b 8c 24 88
	22 00 00	 mov	 rcx, QWORD PTR pBuf$[rsp]
  0015a	c6 04 01 00	 mov	 BYTE PTR [rcx+rax], 0

; 663  : 	putQueue(pBuf);

  0015e	48 8b 94 24 88
	22 00 00	 mov	 rdx, QWORD PTR pBuf$[rsp]
  00166	48 8b 8c 24 b0
	22 00 00	 mov	 rcx, QWORD PTR this$[rsp]
  0016e	e8 00 00 00 00	 call	 ?putQueue@CLogger@@QEAAXPEAD@Z ; CLogger::putQueue
$LN1@PutLogQueu:

; 664  : }

  00173	48 8b cc	 mov	 rcx, rsp
  00176	48 8d 15 00 00
	00 00		 lea	 rdx, OFFSET FLAT:?PutLogQueue@CLogger@@QEAAXHPEBDZZ$rtcFrameData
  0017d	e8 00 00 00 00	 call	 _RTC_CheckStackVars
  00182	48 8b 8c 24 98
	22 00 00	 mov	 rcx, QWORD PTR __$ArrayPad$[rsp]
  0018a	48 33 cc	 xor	 rcx, rsp
  0018d	e8 00 00 00 00	 call	 __security_check_cookie
  00192	48 81 c4 a0 22
	00 00		 add	 rsp, 8864		; 000022a0H
  00199	5f		 pop	 rdi
  0019a	c3		 ret	 0
?PutLogQueue@CLogger@@QEAAXHPEBDZZ ENDP			; CLogger::PutLogQueue
_TEXT	ENDS
; Function compile flags: /Odtp /RTCsu
; File e:\infinia-library-3.0\com\src\comlogger.cpp
_TEXT	SEGMENT
cDateTime$ = 48
nLen$ = 164
$T4 = 176
$T5 = 184
__$ArrayPad$ = 192
this$ = 224
pHeader$ = 232
nLevel$ = 240
?setHeader@CLogger@@QEAAHPEADH@Z PROC			; CLogger::setHeader

; 414  : {

$LN6:
  00000	44 89 44 24 18	 mov	 DWORD PTR [rsp+24], r8d
  00005	48 89 54 24 10	 mov	 QWORD PTR [rsp+16], rdx
  0000a	48 89 4c 24 08	 mov	 QWORD PTR [rsp+8], rcx
  0000f	57		 push	 rdi
  00010	48 81 ec d0 00
	00 00		 sub	 rsp, 208		; 000000d0H
  00017	48 8b fc	 mov	 rdi, rsp
  0001a	b9 34 00 00 00	 mov	 ecx, 52			; 00000034H
  0001f	b8 cc cc cc cc	 mov	 eax, -858993460		; ccccccccH
  00024	f3 ab		 rep stosd
  00026	48 8b 8c 24 e0
	00 00 00	 mov	 rcx, QWORD PTR [rsp+224]
  0002e	48 c7 84 24 b8
	00 00 00 fe ff
	ff ff		 mov	 QWORD PTR $T5[rsp], -2
  0003a	48 8b 05 00 00
	00 00		 mov	 rax, QWORD PTR __security_cookie
  00041	48 33 c4	 xor	 rax, rsp
  00044	48 89 84 24 c0
	00 00 00	 mov	 QWORD PTR __$ArrayPad$[rsp], rax

; 415  : 	CDateTime	cDateTime(m_pDTE->nLastType, m_pDTE->nTZType);

  0004c	48 8b 84 24 e0
	00 00 00	 mov	 rax, QWORD PTR this$[rsp]
  00054	48 8b 80 80 00
	00 00		 mov	 rax, QWORD PTR [rax+128]
  0005b	48 8b 8c 24 e0
	00 00 00	 mov	 rcx, QWORD PTR this$[rsp]
  00063	48 8b 89 80 00
	00 00		 mov	 rcx, QWORD PTR [rcx+128]
  0006a	44 8b 40 08	 mov	 r8d, DWORD PTR [rax+8]
  0006e	8b 51 04	 mov	 edx, DWORD PTR [rcx+4]
  00071	48 8d 4c 24 30	 lea	 rcx, QWORD PTR cDateTime$[rsp]
  00076	e8 00 00 00 00	 call	 ??0CDateTime@@QEAA@W4DT_TYPE@@W4TZ_TYPE@@@Z ; CDateTime::CDateTime
  0007b	90		 npad	 1

; 416  : 	int nLen = 0;

  0007c	c7 84 24 a4 00
	00 00 00 00 00
	00		 mov	 DWORD PTR nLen$[rsp], 0

; 417  : 	nLen = cDateTime.setString(pHeader, m_szHeaderFormat, (DT_FORMAT)m_nDateTimeFormat);

  00087	48 8b 84 24 e0
	00 00 00	 mov	 rax, QWORD PTR this$[rsp]
  0008f	48 05 c8 00 00
	00		 add	 rax, 200		; 000000c8H
  00095	48 8b 8c 24 e0
	00 00 00	 mov	 rcx, QWORD PTR this$[rsp]
  0009d	44 8b 49 7c	 mov	 r9d, DWORD PTR [rcx+124]
  000a1	4c 8b c0	 mov	 r8, rax
  000a4	48 8b 94 24 e8
	00 00 00	 mov	 rdx, QWORD PTR pHeader$[rsp]
  000ac	48 8d 4c 24 30	 lea	 rcx, QWORD PTR cDateTime$[rsp]
  000b1	e8 00 00 00 00	 call	 ?setString@CDateTime@@QEAAHPEAD0W4DT_FORMAT@@@Z ; CDateTime::setString
  000b6	89 84 24 a4 00
	00 00		 mov	 DWORD PTR nLen$[rsp], eax

; 418  : 	if (m_pDTE->nTZType) {

  000bd	48 8b 84 24 e0
	00 00 00	 mov	 rax, QWORD PTR this$[rsp]
  000c5	48 8b 80 80 00
	00 00		 mov	 rax, QWORD PTR [rax+128]
  000cc	83 78 08 00	 cmp	 DWORD PTR [rax+8], 0
  000d0	74 41		 je	 SHORT $LN2@setHeader

; 419  : 		nLen += _stprintf(pHeader + nLen, _T("%s"), cDateTime.TimezoneString());

  000d2	48 8d 4c 24 30	 lea	 rcx, QWORD PTR cDateTime$[rsp]
  000d7	e8 00 00 00 00	 call	 ?TimezoneString@CDateTime@@QEAAPEBDXZ ; CDateTime::TimezoneString
  000dc	48 63 8c 24 a4
	00 00 00	 movsxd	 rcx, DWORD PTR nLen$[rsp]
  000e4	48 8b 94 24 e8
	00 00 00	 mov	 rdx, QWORD PTR pHeader$[rsp]
  000ec	48 03 d1	 add	 rdx, rcx
  000ef	48 8b ca	 mov	 rcx, rdx
  000f2	4c 8b c0	 mov	 r8, rax
  000f5	48 8d 15 00 00
	00 00		 lea	 rdx, OFFSET FLAT:$SG86635
  000fc	e8 00 00 00 00	 call	 sprintf
  00101	8b 8c 24 a4 00
	00 00		 mov	 ecx, DWORD PTR nLen$[rsp]
  00108	03 c8		 add	 ecx, eax
  0010a	8b c1		 mov	 eax, ecx
  0010c	89 84 24 a4 00
	00 00		 mov	 DWORD PTR nLen$[rsp], eax
$LN2@setHeader:

; 420  : 	}
; 421  : 	if (m_nLogFlag & IS_PRINT_LEVEL)

  00113	48 8b 84 24 e0
	00 00 00	 mov	 rax, QWORD PTR this$[rsp]
  0011b	8b 80 b4 00 00
	00		 mov	 eax, DWORD PTR [rax+180]
  00121	25 00 40 00 00	 and	 eax, 16384		; 00004000H
  00126	85 c0		 test	 eax, eax
  00128	74 50		 je	 SHORT $LN3@setHeader

; 422  : 	{
; 423  : 		nLen += _stprintf(pHeader + nLen,_T(" %s"), gs_fmtStr[nLevel]);

  0012a	48 63 84 24 f0
	00 00 00	 movsxd	 rax, DWORD PTR nLevel$[rsp]
  00132	48 6b c0 0c	 imul	 rax, rax, 12
  00136	48 8d 0d 00 00
	00 00		 lea	 rcx, OFFSET FLAT:?gs_fmtStr@@3QAY0M@$$CBDA
  0013d	48 03 c8	 add	 rcx, rax
  00140	48 8b c1	 mov	 rax, rcx
  00143	48 63 8c 24 a4
	00 00 00	 movsxd	 rcx, DWORD PTR nLen$[rsp]
  0014b	48 8b 94 24 e8
	00 00 00	 mov	 rdx, QWORD PTR pHeader$[rsp]
  00153	48 03 d1	 add	 rdx, rcx
  00156	48 8b ca	 mov	 rcx, rdx
  00159	4c 8b c0	 mov	 r8, rax
  0015c	48 8d 15 00 00
	00 00		 lea	 rdx, OFFSET FLAT:$SG86637
  00163	e8 00 00 00 00	 call	 sprintf
  00168	8b 8c 24 a4 00
	00 00		 mov	 ecx, DWORD PTR nLen$[rsp]
  0016f	03 c8		 add	 ecx, eax
  00171	8b c1		 mov	 eax, ecx
  00173	89 84 24 a4 00
	00 00		 mov	 DWORD PTR nLen$[rsp], eax
$LN3@setHeader:

; 424  : 	}
; 425  : 	return nLen;

  0017a	8b 84 24 a4 00
	00 00		 mov	 eax, DWORD PTR nLen$[rsp]
  00181	89 84 24 b0 00
	00 00		 mov	 DWORD PTR $T4[rsp], eax
  00188	48 8d 4c 24 30	 lea	 rcx, QWORD PTR cDateTime$[rsp]
  0018d	e8 00 00 00 00	 call	 ??1CDateTime@@QEAA@XZ	; CDateTime::~CDateTime
  00192	8b 84 24 b0 00
	00 00		 mov	 eax, DWORD PTR $T4[rsp]

; 426  : }

  00199	8b f8		 mov	 edi, eax
  0019b	48 8b cc	 mov	 rcx, rsp
  0019e	48 8d 15 00 00
	00 00		 lea	 rdx, OFFSET FLAT:?setHeader@CLogger@@QEAAHPEADH@Z$rtcFrameData
  001a5	e8 00 00 00 00	 call	 _RTC_CheckStackVars
  001aa	8b c7		 mov	 eax, edi
  001ac	48 8b 8c 24 c0
	00 00 00	 mov	 rcx, QWORD PTR __$ArrayPad$[rsp]
  001b4	48 33 cc	 xor	 rcx, rsp
  001b7	e8 00 00 00 00	 call	 __security_check_cookie
  001bc	48 81 c4 d0 00
	00 00		 add	 rsp, 208		; 000000d0H
  001c3	5f		 pop	 rdi
  001c4	c3		 ret	 0
?setHeader@CLogger@@QEAAHPEADH@Z ENDP			; CLogger::setHeader
_TEXT	ENDS
text$x	SEGMENT
cDateTime$ = 48
nLen$ = 164
$T4 = 176
$T5 = 184
__$ArrayPad$ = 192
this$ = 224
pHeader$ = 232
nLevel$ = 240
?dtor$0@?0??setHeader@CLogger@@QEAAHPEADH@Z@4HA PROC	; `CLogger::setHeader'::`1'::dtor$0
  00000	48 89 4c 24 08	 mov	 QWORD PTR [rsp+8], rcx
  00005	48 89 54 24 10	 mov	 QWORD PTR [rsp+16], rdx
  0000a	55		 push	 rbp
  0000b	57		 push	 rdi
  0000c	48 83 ec 28	 sub	 rsp, 40			; 00000028H
  00010	48 8b ea	 mov	 rbp, rdx
  00013	48 8d 4d 30	 lea	 rcx, QWORD PTR cDateTime$[rbp]
  00017	e8 00 00 00 00	 call	 ??1CDateTime@@QEAA@XZ	; CDateTime::~CDateTime
  0001c	48 83 c4 28	 add	 rsp, 40			; 00000028H
  00020	5f		 pop	 rdi
  00021	5d		 pop	 rbp
  00022	c3		 ret	 0
?dtor$0@?0??setHeader@CLogger@@QEAAHPEADH@Z@4HA ENDP	; `CLogger::setHeader'::`1'::dtor$0
text$x	ENDS
; Function compile flags: /Odtp /RTCsu
text$x	SEGMENT
cDateTime$ = 48
nLen$ = 164
$T4 = 176
$T5 = 184
__$ArrayPad$ = 192
this$ = 224
pHeader$ = 232
nLevel$ = 240
?dtor$0@?0??setHeader@CLogger@@QEAAHPEADH@Z@4HA PROC	; `CLogger::setHeader'::`1'::dtor$0
  00000	48 89 4c 24 08	 mov	 QWORD PTR [rsp+8], rcx
  00005	48 89 54 24 10	 mov	 QWORD PTR [rsp+16], rdx
  0000a	55		 push	 rbp
  0000b	57		 push	 rdi
  0000c	48 83 ec 28	 sub	 rsp, 40			; 00000028H
  00010	48 8b ea	 mov	 rbp, rdx
  00013	48 8d 4d 30	 lea	 rcx, QWORD PTR cDateTime$[rbp]
  00017	e8 00 00 00 00	 call	 ??1CDateTime@@QEAA@XZ	; CDateTime::~CDateTime
  0001c	48 83 c4 28	 add	 rsp, 40			; 00000028H
  00020	5f		 pop	 rdi
  00021	5d		 pop	 rbp
  00022	c3		 ret	 0
?dtor$0@?0??setHeader@CLogger@@QEAAHPEADH@Z@4HA ENDP	; `CLogger::setHeader'::`1'::dtor$0
text$x	ENDS
; Function compile flags: /Odtp /RTCsu
; File e:\infinia-library-3.0\com\include\comlogger.h
;	COMDAT ?isLogFlag@CLogger@@QEAA_NW4E_LOG_FLAG@@@Z
_TEXT	SEGMENT
tv67 = 0
this$ = 32
nFlag$ = 40
?isLogFlag@CLogger@@QEAA_NW4E_LOG_FLAG@@@Z PROC		; CLogger::isLogFlag, COMDAT

; 185  : 	inline bool isLogFlag(E_LOG_FLAG nFlag) { return (m_nLogFlag & nFlag)?true:false; }

$LN5:
  00000	89 54 24 10	 mov	 DWORD PTR [rsp+16], edx
  00004	48 89 4c 24 08	 mov	 QWORD PTR [rsp+8], rcx
  00009	57		 push	 rdi
  0000a	48 83 ec 10	 sub	 rsp, 16
  0000e	48 8b fc	 mov	 rdi, rsp
  00011	b9 04 00 00 00	 mov	 ecx, 4
  00016	b8 cc cc cc cc	 mov	 eax, -858993460		; ccccccccH
  0001b	f3 ab		 rep stosd
  0001d	48 8b 4c 24 20	 mov	 rcx, QWORD PTR [rsp+32]
  00022	48 8b 44 24 20	 mov	 rax, QWORD PTR this$[rsp]
  00027	8b 4c 24 28	 mov	 ecx, DWORD PTR nFlag$[rsp]
  0002b	8b 80 b4 00 00
	00		 mov	 eax, DWORD PTR [rax+180]
  00031	23 c1		 and	 eax, ecx
  00033	85 c0		 test	 eax, eax
  00035	74 06		 je	 SHORT $LN3@isLogFlag
  00037	c6 04 24 01	 mov	 BYTE PTR tv67[rsp], 1
  0003b	eb 04		 jmp	 SHORT $LN4@isLogFlag
$LN3@isLogFlag:
  0003d	c6 04 24 00	 mov	 BYTE PTR tv67[rsp], 0
$LN4@isLogFlag:
  00041	0f b6 04 24	 movzx	 eax, BYTE PTR tv67[rsp]
  00045	48 83 c4 10	 add	 rsp, 16
  00049	5f		 pop	 rdi
  0004a	c3		 ret	 0
?isLogFlag@CLogger@@QEAA_NW4E_LOG_FLAG@@@Z ENDP		; CLogger::isLogFlag
_TEXT	ENDS
; Function compile flags: /Odtp /RTCsu
; File e:\infinia-library-3.0\com\include\comlogger.h
;	COMDAT ?clearLogFlag@CLogger@@QEAAXW4E_LOG_FLAG@@@Z
_TEXT	SEGMENT
this$ = 16
nFlag$ = 24
?clearLogFlag@CLogger@@QEAAXW4E_LOG_FLAG@@@Z PROC	; CLogger::clearLogFlag, COMDAT

; 184  : 	inline void clearLogFlag(E_LOG_FLAG nFlag) { m_nLogFlag &= ~nFlag; }

$LN3:
  00000	89 54 24 10	 mov	 DWORD PTR [rsp+16], edx
  00004	48 89 4c 24 08	 mov	 QWORD PTR [rsp+8], rcx
  00009	57		 push	 rdi
  0000a	8b 44 24 18	 mov	 eax, DWORD PTR nFlag$[rsp]
  0000e	f7 d0		 not	 eax
  00010	48 8b 4c 24 10	 mov	 rcx, QWORD PTR this$[rsp]
  00015	8b 89 b4 00 00
	00		 mov	 ecx, DWORD PTR [rcx+180]
  0001b	23 c8		 and	 ecx, eax
  0001d	8b c1		 mov	 eax, ecx
  0001f	48 8b 4c 24 10	 mov	 rcx, QWORD PTR this$[rsp]
  00024	89 81 b4 00 00
	00		 mov	 DWORD PTR [rcx+180], eax
  0002a	5f		 pop	 rdi
  0002b	c3		 ret	 0
?clearLogFlag@CLogger@@QEAAXW4E_LOG_FLAG@@@Z ENDP	; CLogger::clearLogFlag
_TEXT	ENDS
; Function compile flags: /Odtp /RTCsu
; File e:\infinia-library-3.0\com\include\comlogger.h
;	COMDAT ?setLogFlag@CLogger@@QEAAXW4E_LOG_FLAG@@@Z
_TEXT	SEGMENT
this$ = 16
nFlag$ = 24
?setLogFlag@CLogger@@QEAAXW4E_LOG_FLAG@@@Z PROC		; CLogger::setLogFlag, COMDAT

; 183  : 	inline void setLogFlag(E_LOG_FLAG nFlag) { m_nLogFlag |= nFlag; }

$LN3:
  00000	89 54 24 10	 mov	 DWORD PTR [rsp+16], edx
  00004	48 89 4c 24 08	 mov	 QWORD PTR [rsp+8], rcx
  00009	57		 push	 rdi
  0000a	48 8b 44 24 10	 mov	 rax, QWORD PTR this$[rsp]
  0000f	8b 4c 24 18	 mov	 ecx, DWORD PTR nFlag$[rsp]
  00013	8b 80 b4 00 00
	00		 mov	 eax, DWORD PTR [rax+180]
  00019	0b c1		 or	 eax, ecx
  0001b	48 8b 4c 24 10	 mov	 rcx, QWORD PTR this$[rsp]
  00020	89 81 b4 00 00
	00		 mov	 DWORD PTR [rcx+180], eax
  00026	5f		 pop	 rdi
  00027	c3		 ret	 0
?setLogFlag@CLogger@@QEAAXW4E_LOG_FLAG@@@Z ENDP		; CLogger::setLogFlag
_TEXT	ENDS
; Function compile flags: /Odtp /RTCsu
; File e:\infinia-library-3.0\com\src\comlogger.cpp
_TEXT	SEGMENT
szBuf$ = 80
__$ArrayPad$ = 224
this$ = 256
?OpenLogger@CLogger@@QEAAXXZ PROC			; CLogger::OpenLogger

; 351  : {

$LN8:
  00000	48 89 4c 24 08	 mov	 QWORD PTR [rsp+8], rcx
  00005	57		 push	 rdi
  00006	48 81 ec f0 00
	00 00		 sub	 rsp, 240		; 000000f0H
  0000d	48 8b fc	 mov	 rdi, rsp
  00010	b9 3c 00 00 00	 mov	 ecx, 60			; 0000003cH
  00015	b8 cc cc cc cc	 mov	 eax, -858993460		; ccccccccH
  0001a	f3 ab		 rep stosd
  0001c	48 8b 8c 24 00
	01 00 00	 mov	 rcx, QWORD PTR [rsp+256]
  00024	48 8b 05 00 00
	00 00		 mov	 rax, QWORD PTR __security_cookie
  0002b	48 33 c4	 xor	 rax, rsp
  0002e	48 89 84 24 e0
	00 00 00	 mov	 QWORD PTR __$ArrayPad$[rsp], rax

; 352  : 	TCHAR szBuf[128];
; 353  : 	if (m_nLogFlag & LOG_FLAG_DAILY) {

  00036	48 8b 84 24 00
	01 00 00	 mov	 rax, QWORD PTR this$[rsp]
  0003e	8b 80 b4 00 00
	00		 mov	 eax, DWORD PTR [rax+180]
  00044	25 00 02 00 00	 and	 eax, 512		; 00000200H
  00049	85 c0		 test	 eax, eax
  0004b	74 53		 je	 SHORT $LN2@OpenLogger

; 354  : 		_stprintf(szBuf, _T("%s%d_%s.%s"), m_pLogDir, gs_today_time.date, m_pLogName, m_szFileExtension);

  0004d	48 8b 84 24 00
	01 00 00	 mov	 rax, QWORD PTR this$[rsp]
  00055	48 05 a8 00 00
	00		 add	 rax, 168		; 000000a8H
  0005b	48 89 44 24 28	 mov	 QWORD PTR [rsp+40], rax
  00060	48 8b 84 24 00
	01 00 00	 mov	 rax, QWORD PTR this$[rsp]
  00068	48 8b 80 a0 00
	00 00		 mov	 rax, QWORD PTR [rax+160]
  0006f	48 89 44 24 20	 mov	 QWORD PTR [rsp+32], rax
  00074	44 8b 0d 18 00
	00 00		 mov	 r9d, DWORD PTR ?gs_today_time@@3USTTodayTime@@A+24
  0007b	48 8b 84 24 00
	01 00 00	 mov	 rax, QWORD PTR this$[rsp]
  00083	4c 8b 80 98 00
	00 00		 mov	 r8, QWORD PTR [rax+152]
  0008a	48 8d 15 00 00
	00 00		 lea	 rdx, OFFSET FLAT:$SG86577
  00091	48 8d 4c 24 50	 lea	 rcx, QWORD PTR szBuf$[rsp]
  00096	e8 00 00 00 00	 call	 sprintf
  0009b	e9 d2 00 00 00	 jmp	 $LN3@OpenLogger
$LN2@OpenLogger:

; 355  : 	}
; 356  : 	else if (m_nLogFlag & LOG_FLAG_HOURLY) {

  000a0	48 8b 84 24 00
	01 00 00	 mov	 rax, QWORD PTR this$[rsp]
  000a8	8b 80 b4 00 00
	00		 mov	 eax, DWORD PTR [rax+180]
  000ae	25 00 04 00 00	 and	 eax, 1024		; 00000400H
  000b3	85 c0		 test	 eax, eax
  000b5	74 62		 je	 SHORT $LN4@OpenLogger

; 357  : 		_stprintf(szBuf, _T("%s%d%c%s_%02d.%s"), m_pLogDir, gs_today_time.date, g_s, m_pLogName, gs_today_time.hour, m_szFileExtension);

  000b7	48 8b 84 24 00
	01 00 00	 mov	 rax, QWORD PTR this$[rsp]
  000bf	48 05 a8 00 00
	00		 add	 rax, 168		; 000000a8H
  000c5	48 89 44 24 38	 mov	 QWORD PTR [rsp+56], rax
  000ca	8b 05 0c 00 00
	00		 mov	 eax, DWORD PTR ?gs_today_time@@3USTTodayTime@@A+12
  000d0	89 44 24 30	 mov	 DWORD PTR [rsp+48], eax
  000d4	48 8b 84 24 00
	01 00 00	 mov	 rax, QWORD PTR this$[rsp]
  000dc	48 8b 80 a0 00
	00 00		 mov	 rax, QWORD PTR [rax+160]
  000e3	48 89 44 24 28	 mov	 QWORD PTR [rsp+40], rax
  000e8	c7 44 24 20 5c
	00 00 00	 mov	 DWORD PTR [rsp+32], 92	; 0000005cH
  000f0	44 8b 0d 18 00
	00 00		 mov	 r9d, DWORD PTR ?gs_today_time@@3USTTodayTime@@A+24
  000f7	48 8b 84 24 00
	01 00 00	 mov	 rax, QWORD PTR this$[rsp]
  000ff	4c 8b 80 98 00
	00 00		 mov	 r8, QWORD PTR [rax+152]
  00106	48 8d 15 00 00
	00 00		 lea	 rdx, OFFSET FLAT:$SG86580
  0010d	48 8d 4c 24 50	 lea	 rcx, QWORD PTR szBuf$[rsp]
  00112	e8 00 00 00 00	 call	 sprintf
  00117	eb 59		 jmp	 SHORT $LN5@OpenLogger
$LN4@OpenLogger:

; 358  : 	}
; 359  : 	else if (m_nLogFlag & LOG_FLAG_FILE) {

  00119	48 8b 84 24 00
	01 00 00	 mov	 rax, QWORD PTR this$[rsp]
  00121	8b 80 b4 00 00
	00		 mov	 eax, DWORD PTR [rax+180]
  00127	25 00 08 00 00	 and	 eax, 2048		; 00000800H
  0012c	85 c0		 test	 eax, eax
  0012e	74 42		 je	 SHORT $LN6@OpenLogger

; 360  : 		_stprintf(szBuf, _T("%s%s.%s"), m_pLogDir, m_pLogName, m_szFileExtension);

  00130	48 8b 84 24 00
	01 00 00	 mov	 rax, QWORD PTR this$[rsp]
  00138	48 05 a8 00 00
	00		 add	 rax, 168		; 000000a8H
  0013e	48 89 44 24 20	 mov	 QWORD PTR [rsp+32], rax
  00143	48 8b 84 24 00
	01 00 00	 mov	 rax, QWORD PTR this$[rsp]
  0014b	4c 8b 88 a0 00
	00 00		 mov	 r9, QWORD PTR [rax+160]
  00152	48 8b 84 24 00
	01 00 00	 mov	 rax, QWORD PTR this$[rsp]
  0015a	4c 8b 80 98 00
	00 00		 mov	 r8, QWORD PTR [rax+152]
  00161	48 8d 15 00 00
	00 00		 lea	 rdx, OFFSET FLAT:$SG86582
  00168	48 8d 4c 24 50	 lea	 rcx, QWORD PTR szBuf$[rsp]
  0016d	e8 00 00 00 00	 call	 sprintf
$LN6@OpenLogger:
$LN5@OpenLogger:
$LN3@OpenLogger:

; 361  : 	}
; 362  : 
; 363  : 	__openLogger(szBuf);

  00172	45 33 c0	 xor	 r8d, r8d
  00175	48 8d 54 24 50	 lea	 rdx, QWORD PTR szBuf$[rsp]
  0017a	48 8b 8c 24 00
	01 00 00	 mov	 rcx, QWORD PTR this$[rsp]
  00182	e8 00 00 00 00	 call	 ?__openLogger@CLogger@@AEAAXPEBDH@Z ; CLogger::__openLogger

; 364  : }

  00187	48 8b cc	 mov	 rcx, rsp
  0018a	48 8d 15 00 00
	00 00		 lea	 rdx, OFFSET FLAT:?OpenLogger@CLogger@@QEAAXXZ$rtcFrameData
  00191	e8 00 00 00 00	 call	 _RTC_CheckStackVars
  00196	48 8b 8c 24 e0
	00 00 00	 mov	 rcx, QWORD PTR __$ArrayPad$[rsp]
  0019e	48 33 cc	 xor	 rcx, rsp
  001a1	e8 00 00 00 00	 call	 __security_check_cookie
  001a6	48 81 c4 f0 00
	00 00		 add	 rsp, 240		; 000000f0H
  001ad	5f		 pop	 rdi
  001ae	c3		 ret	 0
?OpenLogger@CLogger@@QEAAXXZ ENDP			; CLogger::OpenLogger
_TEXT	ENDS
; Function compile flags: /Odtp /RTCsu
; File e:\infinia-library-3.0\com\src\comlogger.cpp
_TEXT	SEGMENT
nMax$ = 48
nRes$ = 52
nVal$ = 56
szValue$ = 80
szValue2$ = 240
szValue3$ = 392
szValue4$ = 424
eRes$ = 436
__$ArrayPad$ = 448
this$ = 480
pConfig$ = 488
pSection$ = 496
?initConfig@CLogger@@QEAA?AW4E_LOG_INIT_RES@@PEAD0@Z PROC ; CLogger::initConfig

; 172  : {

$LN15:
  00000	4c 89 44 24 18	 mov	 QWORD PTR [rsp+24], r8
  00005	48 89 54 24 10	 mov	 QWORD PTR [rsp+16], rdx
  0000a	48 89 4c 24 08	 mov	 QWORD PTR [rsp+8], rcx
  0000f	57		 push	 rdi
  00010	48 81 ec d0 01
	00 00		 sub	 rsp, 464		; 000001d0H
  00017	48 8b fc	 mov	 rdi, rsp
  0001a	b9 74 00 00 00	 mov	 ecx, 116		; 00000074H
  0001f	b8 cc cc cc cc	 mov	 eax, -858993460		; ccccccccH
  00024	f3 ab		 rep stosd
  00026	48 8b 8c 24 e0
	01 00 00	 mov	 rcx, QWORD PTR [rsp+480]
  0002e	48 8b 05 00 00
	00 00		 mov	 rax, QWORD PTR __security_cookie
  00035	48 33 c4	 xor	 rax, rsp
  00038	48 89 84 24 c0
	01 00 00	 mov	 QWORD PTR __$ArrayPad$[rsp], rax

; 173  : 	int nMax, nRes, nVal;
; 174  : 	TCHAR szValue[128], szValue2[128], szValue3[8], szValue4[8];
; 175  : 	E_LOG_INIT_RES eRes;
; 176  : 
; 177  : 	nRes = GetPrivateProfileString(pSection, "LOGNAME", "", szValue2, 128, pConfig);

  00040	48 8b 84 24 e8
	01 00 00	 mov	 rax, QWORD PTR pConfig$[rsp]
  00048	48 89 44 24 28	 mov	 QWORD PTR [rsp+40], rax
  0004d	c7 44 24 20 80
	00 00 00	 mov	 DWORD PTR [rsp+32], 128	; 00000080H
  00055	4c 8d 8c 24 f0
	00 00 00	 lea	 r9, QWORD PTR szValue2$[rsp]
  0005d	4c 8d 05 00 00
	00 00		 lea	 r8, OFFSET FLAT:$SG86449
  00064	48 8d 15 00 00
	00 00		 lea	 rdx, OFFSET FLAT:$SG86450
  0006b	48 8b 8c 24 f0
	01 00 00	 mov	 rcx, QWORD PTR pSection$[rsp]
  00073	ff 15 00 00 00
	00		 call	 QWORD PTR __imp_GetPrivateProfileStringA
  00079	89 44 24 34	 mov	 DWORD PTR nRes$[rsp], eax

; 178  : 	if (!nRes) {

  0007d	83 7c 24 34 00	 cmp	 DWORD PTR nRes$[rsp], 0
  00082	75 4b		 jne	 SHORT $LN2@initConfig

; 179  : 		if (&gs_cLogger == this) { eRes = LOG_INIT_NO_FILE; goto SET_DISABLE; }

  00084	48 8d 05 00 00
	00 00		 lea	 rax, OFFSET FLAT:?gs_cLogger@@3VCLogger@@A ; gs_cLogger
  0008b	48 3b 84 24 e0
	01 00 00	 cmp	 rax, QWORD PTR this$[rsp]
  00093	75 17		 jne	 SHORT $LN3@initConfig
  00095	c7 84 24 b4 01
	00 00 00 00 00
	00		 mov	 DWORD PTR eRes$[rsp], 0
  000a0	e9 c8 03 00 00	 jmp	 $LN5@initConfig
  000a5	e9 c3 03 00 00	 jmp	 $SET_DISABLE$16
  000aa	eb 23		 jmp	 SHORT $LN4@initConfig
$LN3@initConfig:

; 180  : 		else {	comErrorPrint(_T("LOGNAME is NULL!"));	return LOG_INIT_ERROR;}

  000ac	41 b8 b4 00 00
	00		 mov	 r8d, 180		; 000000b4H
  000b2	48 8d 15 00 00
	00 00		 lea	 rdx, OFFSET FLAT:$SG86455
  000b9	48 8d 0d 00 00
	00 00		 lea	 rcx, OFFSET FLAT:$SG86456
  000c0	e8 00 00 00 00	 call	 ?comGlobalErrorProc@@YAXPEADPEBDH@Z ; comGlobalErrorProc
  000c5	b8 ff ff ff ff	 mov	 eax, -1
  000ca	e9 d0 03 00 00	 jmp	 $LN1@initConfig
$LN4@initConfig:
$LN2@initConfig:

; 181  : 	}
; 182  : 	nRes = GetPrivateProfileInt(pSection, _T("ISENABLE"), 0, pConfig);

  000cf	4c 8b 8c 24 e8
	01 00 00	 mov	 r9, QWORD PTR pConfig$[rsp]
  000d7	45 33 c0	 xor	 r8d, r8d
  000da	48 8d 15 00 00
	00 00		 lea	 rdx, OFFSET FLAT:$SG86457
  000e1	48 8b 8c 24 f0
	01 00 00	 mov	 rcx, QWORD PTR pSection$[rsp]
  000e9	ff 15 00 00 00
	00		 call	 QWORD PTR __imp_GetPrivateProfileIntA
  000ef	89 44 24 34	 mov	 DWORD PTR nRes$[rsp], eax

; 183  : 	if (!nRes) { eRes = LOG_INIT_SUCCESS; goto SET_DISABLE; }

  000f3	83 7c 24 34 00	 cmp	 DWORD PTR nRes$[rsp], 0
  000f8	75 15		 jne	 SHORT $LN6@initConfig
  000fa	c7 84 24 b4 01
	00 00 01 00 00
	00		 mov	 DWORD PTR eRes$[rsp], 1
  00105	e9 63 03 00 00	 jmp	 $LN7@initConfig
  0010a	e9 5e 03 00 00	 jmp	 $SET_DISABLE$16
$LN6@initConfig:

; 184  : 
; 185  : 	nRes = GetProfilePath(pSection, _T("LOGDIR"), _T("Log"), szValue, pConfig);

  0010f	48 8b 84 24 e8
	01 00 00	 mov	 rax, QWORD PTR pConfig$[rsp]
  00117	48 89 44 24 20	 mov	 QWORD PTR [rsp+32], rax
  0011c	4c 8d 4c 24 50	 lea	 r9, QWORD PTR szValue$[rsp]
  00121	4c 8d 05 00 00
	00 00		 lea	 r8, OFFSET FLAT:$SG86460
  00128	48 8d 15 00 00
	00 00		 lea	 rdx, OFFSET FLAT:$SG86461
  0012f	48 8b 8c 24 f0
	01 00 00	 mov	 rcx, QWORD PTR pSection$[rsp]
  00137	e8 00 00 00 00	 call	 ?GetProfilePath@@YAHPEBD00PEAD0@Z ; GetProfilePath
  0013c	89 44 24 34	 mov	 DWORD PTR nRes$[rsp], eax

; 186  : 	GetPrivateProfileString(pSection, _T("EXTENSION"), g_szLogExtension, szValue3, sizeof(szValue3), pConfig);

  00140	48 8b 84 24 e8
	01 00 00	 mov	 rax, QWORD PTR pConfig$[rsp]
  00148	48 89 44 24 28	 mov	 QWORD PTR [rsp+40], rax
  0014d	c7 44 24 20 08
	00 00 00	 mov	 DWORD PTR [rsp+32], 8
  00155	4c 8d 8c 24 88
	01 00 00	 lea	 r9, QWORD PTR szValue3$[rsp]
  0015d	4c 8d 05 00 00
	00 00		 lea	 r8, OFFSET FLAT:?g_szLogExtension@@3PADA ; g_szLogExtension
  00164	48 8d 15 00 00
	00 00		 lea	 rdx, OFFSET FLAT:$SG86462
  0016b	48 8b 8c 24 f0
	01 00 00	 mov	 rcx, QWORD PTR pSection$[rsp]
  00173	ff 15 00 00 00
	00		 call	 QWORD PTR __imp_GetPrivateProfileStringA

; 187  : 	GetPrivateProfileString(pSection, _T("KEEP_DURATION"), g_szKeepDuratrion, szValue4, sizeof(szValue4), pConfig);

  00179	48 8b 84 24 e8
	01 00 00	 mov	 rax, QWORD PTR pConfig$[rsp]
  00181	48 89 44 24 28	 mov	 QWORD PTR [rsp+40], rax
  00186	c7 44 24 20 08
	00 00 00	 mov	 DWORD PTR [rsp+32], 8
  0018e	4c 8d 8c 24 a8
	01 00 00	 lea	 r9, QWORD PTR szValue4$[rsp]
  00196	4c 8d 05 00 00
	00 00		 lea	 r8, OFFSET FLAT:?g_szKeepDuratrion@@3PADA ; g_szKeepDuratrion
  0019d	48 8d 15 00 00
	00 00		 lea	 rdx, OFFSET FLAT:$SG86463
  001a4	48 8b 8c 24 f0
	01 00 00	 mov	 rcx, QWORD PTR pSection$[rsp]
  001ac	ff 15 00 00 00
	00		 call	 QWORD PTR __imp_GetPrivateProfileStringA

; 188  : 	_initCom(szValue, szValue2, szValue3, szValue4);

  001b2	48 8d 84 24 a8
	01 00 00	 lea	 rax, QWORD PTR szValue4$[rsp]
  001ba	48 89 44 24 20	 mov	 QWORD PTR [rsp+32], rax
  001bf	4c 8d 8c 24 88
	01 00 00	 lea	 r9, QWORD PTR szValue3$[rsp]
  001c7	4c 8d 84 24 f0
	00 00 00	 lea	 r8, QWORD PTR szValue2$[rsp]
  001cf	48 8d 54 24 50	 lea	 rdx, QWORD PTR szValue$[rsp]
  001d4	48 8b 8c 24 e0
	01 00 00	 mov	 rcx, QWORD PTR this$[rsp]
  001dc	e8 00 00 00 00	 call	 ?_initCom@CLogger@@AEAAXPEAD000@Z ; CLogger::_initCom

; 189  : 
; 190  : 	nMax = GetPrivateProfileInt(pSection, _T("LIST_MAX"), eLDOPT_LISTMAX, pConfig);

  001e1	4c 8b 8c 24 e8
	01 00 00	 mov	 r9, QWORD PTR pConfig$[rsp]
  001e9	41 b8 14 00 00
	00		 mov	 r8d, 20
  001ef	48 8d 15 00 00
	00 00		 lea	 rdx, OFFSET FLAT:$SG86464
  001f6	48 8b 8c 24 f0
	01 00 00	 mov	 rcx, QWORD PTR pSection$[rsp]
  001fe	ff 15 00 00 00
	00		 call	 QWORD PTR __imp_GetPrivateProfileIntA
  00204	89 44 24 30	 mov	 DWORD PTR nMax$[rsp], eax

; 191  : 	if (!_setLoggerQueue(nMax)) {

  00208	8b 54 24 30	 mov	 edx, DWORD PTR nMax$[rsp]
  0020c	48 8b 8c 24 e0
	01 00 00	 mov	 rcx, QWORD PTR this$[rsp]
  00214	e8 00 00 00 00	 call	 ?_setLoggerQueue@CLogger@@AEAA_NH@Z ; CLogger::_setLoggerQueue
  00219	0f b6 c0	 movzx	 eax, al
  0021c	85 c0		 test	 eax, eax
  0021e	75 23		 jne	 SHORT $LN8@initConfig

; 192  : 		comErrorPrint(_T("_setLoggerQueue has Failed"));

  00220	41 b8 c0 00 00
	00		 mov	 r8d, 192		; 000000c0H
  00226	48 8d 15 00 00
	00 00		 lea	 rdx, OFFSET FLAT:$SG86466
  0022d	48 8d 0d 00 00
	00 00		 lea	 rcx, OFFSET FLAT:$SG86467
  00234	e8 00 00 00 00	 call	 ?comGlobalErrorProc@@YAXPEADPEBDH@Z ; comGlobalErrorProc

; 193  : 		return LOG_INIT_ERROR;

  00239	b8 ff ff ff ff	 mov	 eax, -1
  0023e	e9 5c 02 00 00	 jmp	 $LN1@initConfig
$LN8@initConfig:

; 194  : 	}
; 195  : 	nRes = GetPrivateProfileInt(pSection, _T("TIMESTEMP_NO"), eLDOPT_TIMESTEMP_NO, pConfig);

  00243	4c 8b 8c 24 e8
	01 00 00	 mov	 r9, QWORD PTR pConfig$[rsp]
  0024b	45 33 c0	 xor	 r8d, r8d
  0024e	48 8d 15 00 00
	00 00		 lea	 rdx, OFFSET FLAT:$SG86468
  00255	48 8b 8c 24 f0
	01 00 00	 mov	 rcx, QWORD PTR pSection$[rsp]
  0025d	ff 15 00 00 00
	00		 call	 QWORD PTR __imp_GetPrivateProfileIntA
  00263	89 44 24 34	 mov	 DWORD PTR nRes$[rsp], eax

; 196  : 	if (nRes < 0) {

  00267	83 7c 24 34 00	 cmp	 DWORD PTR nRes$[rsp], 0
  0026c	7d 43		 jge	 SHORT $LN9@initConfig

; 197  : 		_stprintf(g_szMessage, _T("invalid value[%d]! pSection[%s]"), nRes, pSection);

  0026e	4c 8b 8c 24 f0
	01 00 00	 mov	 r9, QWORD PTR pSection$[rsp]
  00276	44 8b 44 24 34	 mov	 r8d, DWORD PTR nRes$[rsp]
  0027b	48 8d 15 00 00
	00 00		 lea	 rdx, OFFSET FLAT:$SG86470
  00282	48 8d 0d 00 00
	00 00		 lea	 rcx, OFFSET FLAT:?g_szMessage@@3PADA ; g_szMessage
  00289	e8 00 00 00 00	 call	 sprintf

; 198  : 		comErrorPrint(g_szMessage);

  0028e	41 b8 c6 00 00
	00		 mov	 r8d, 198		; 000000c6H
  00294	48 8d 15 00 00
	00 00		 lea	 rdx, OFFSET FLAT:$SG86471
  0029b	48 8d 0d 00 00
	00 00		 lea	 rcx, OFFSET FLAT:?g_szMessage@@3PADA ; g_szMessage
  002a2	e8 00 00 00 00	 call	 ?comGlobalErrorProc@@YAXPEADPEBDH@Z ; comGlobalErrorProc

; 199  : 		return LOG_INIT_ERROR;

  002a7	b8 ff ff ff ff	 mov	 eax, -1
  002ac	e9 ee 01 00 00	 jmp	 $LN1@initConfig
$LN9@initConfig:

; 200  : 	}
; 201  : 	if (!_setHeaderFormat(nRes)) {

  002b1	8b 54 24 34	 mov	 edx, DWORD PTR nRes$[rsp]
  002b5	48 8b 8c 24 e0
	01 00 00	 mov	 rcx, QWORD PTR this$[rsp]
  002bd	e8 00 00 00 00	 call	 ?_setHeaderFormat@CLogger@@AEAA_NH@Z ; CLogger::_setHeaderFormat
  002c2	0f b6 c0	 movzx	 eax, al
  002c5	85 c0		 test	 eax, eax
  002c7	75 23		 jne	 SHORT $LN10@initConfig

; 202  : 		comErrorPrint(_T("_setHeaderFormat has Failed"));

  002c9	41 b8 ca 00 00
	00		 mov	 r8d, 202		; 000000caH
  002cf	48 8d 15 00 00
	00 00		 lea	 rdx, OFFSET FLAT:$SG86473
  002d6	48 8d 0d 00 00
	00 00		 lea	 rcx, OFFSET FLAT:$SG86474
  002dd	e8 00 00 00 00	 call	 ?comGlobalErrorProc@@YAXPEADPEBDH@Z ; comGlobalErrorProc

; 203  : 		return LOG_INIT_ERROR;

  002e2	b8 ff ff ff ff	 mov	 eax, -1
  002e7	e9 b3 01 00 00	 jmp	 $LN1@initConfig
$LN10@initConfig:

; 204  : 	}
; 205  : 	m_nStlNo = GetPrivateProfileInt(pSection, _T("STL_NO"), eLDOPT_STL_NO, pConfig);

  002ec	4c 8b 8c 24 e8
	01 00 00	 mov	 r9, QWORD PTR pConfig$[rsp]
  002f4	45 33 c0	 xor	 r8d, r8d
  002f7	48 8d 15 00 00
	00 00		 lea	 rdx, OFFSET FLAT:$SG86475
  002fe	48 8b 8c 24 f0
	01 00 00	 mov	 rcx, QWORD PTR pSection$[rsp]
  00306	ff 15 00 00 00
	00		 call	 QWORD PTR __imp_GetPrivateProfileIntA
  0030c	48 8b 8c 24 e0
	01 00 00	 mov	 rcx, QWORD PTR this$[rsp]
  00314	89 81 bc 00 00
	00		 mov	 DWORD PTR [rcx+188], eax

; 206  : 
; 207  : 	nRes = GetPrivateProfileInt(pSection, _T("LOGTYPE"), eLDOPT_LOGTYPE, pConfig);

  0031a	4c 8b 8c 24 e8
	01 00 00	 mov	 r9, QWORD PTR pConfig$[rsp]
  00322	41 b8 03 00 00
	00		 mov	 r8d, 3
  00328	48 8d 15 00 00
	00 00		 lea	 rdx, OFFSET FLAT:$SG86476
  0032f	48 8b 8c 24 f0
	01 00 00	 mov	 rcx, QWORD PTR pSection$[rsp]
  00337	ff 15 00 00 00
	00		 call	 QWORD PTR __imp_GetPrivateProfileIntA
  0033d	89 44 24 34	 mov	 DWORD PTR nRes$[rsp], eax

; 208  : 	m_nSizeLimit = GetPrivateProfileInt(pSection, _T("SIZE_LIMIT"), eLDOPT_SIZE_LIMIT, pConfig);

  00341	4c 8b 8c 24 e8
	01 00 00	 mov	 r9, QWORD PTR pConfig$[rsp]
  00349	45 33 c0	 xor	 r8d, r8d
  0034c	48 8d 15 00 00
	00 00		 lea	 rdx, OFFSET FLAT:$SG86477
  00353	48 8b 8c 24 f0
	01 00 00	 mov	 rcx, QWORD PTR pSection$[rsp]
  0035b	ff 15 00 00 00
	00		 call	 QWORD PTR __imp_GetPrivateProfileIntA
  00361	48 8b 8c 24 e0
	01 00 00	 mov	 rcx, QWORD PTR this$[rsp]
  00369	89 81 c0 00 00
	00		 mov	 DWORD PTR [rcx+192], eax

; 209  : 	nVal = GetPrivateProfileInt(pSection, _T("IS_PRINT_LEVEL"), eLDOPT_IS_PRINT_LEVEL, pConfig);

  0036f	4c 8b 8c 24 e8
	01 00 00	 mov	 r9, QWORD PTR pConfig$[rsp]
  00377	41 b8 01 00 00
	00		 mov	 r8d, 1
  0037d	48 8d 15 00 00
	00 00		 lea	 rdx, OFFSET FLAT:$SG86478
  00384	48 8b 8c 24 f0
	01 00 00	 mov	 rcx, QWORD PTR pSection$[rsp]
  0038c	ff 15 00 00 00
	00		 call	 QWORD PTR __imp_GetPrivateProfileIntA
  00392	89 44 24 38	 mov	 DWORD PTR nVal$[rsp], eax

; 210  : 	_setLoggerBasic(nRes, nVal, m_nSizeLimit);

  00396	48 8b 84 24 e0
	01 00 00	 mov	 rax, QWORD PTR this$[rsp]
  0039e	44 8b 88 c0 00
	00 00		 mov	 r9d, DWORD PTR [rax+192]
  003a5	44 8b 44 24 38	 mov	 r8d, DWORD PTR nVal$[rsp]
  003aa	8b 54 24 34	 mov	 edx, DWORD PTR nRes$[rsp]
  003ae	48 8b 8c 24 e0
	01 00 00	 mov	 rcx, QWORD PTR this$[rsp]
  003b6	e8 00 00 00 00	 call	 ?_setLoggerBasic@CLogger@@AEAAXHHH@Z ; CLogger::_setLoggerBasic

; 211  : 
; 212  : 	nRes = GetPrivateProfileInt(pSection, _T("IS_PRINT"), eLDOPT_ISPRINTF, pConfig);

  003bb	4c 8b 8c 24 e8
	01 00 00	 mov	 r9, QWORD PTR pConfig$[rsp]
  003c3	45 33 c0	 xor	 r8d, r8d
  003c6	48 8d 15 00 00
	00 00		 lea	 rdx, OFFSET FLAT:$SG86479
  003cd	48 8b 8c 24 f0
	01 00 00	 mov	 rcx, QWORD PTR pSection$[rsp]
  003d5	ff 15 00 00 00
	00		 call	 QWORD PTR __imp_GetPrivateProfileIntA
  003db	89 44 24 34	 mov	 DWORD PTR nRes$[rsp], eax

; 213  : 	if (nRes) m_nLogFlag |= IS_PRINT;

  003df	83 7c 24 34 00	 cmp	 DWORD PTR nRes$[rsp], 0
  003e4	74 20		 je	 SHORT $LN11@initConfig
  003e6	48 8b 84 24 e0
	01 00 00	 mov	 rax, QWORD PTR this$[rsp]
  003ee	8b 80 b4 00 00
	00		 mov	 eax, DWORD PTR [rax+180]
  003f4	0f ba e8 0d	 bts	 eax, 13
  003f8	48 8b 8c 24 e0
	01 00 00	 mov	 rcx, QWORD PTR this$[rsp]
  00400	89 81 b4 00 00
	00		 mov	 DWORD PTR [rcx+180], eax
$LN11@initConfig:

; 214  : 	m_nLogLevel = GetPrivateProfileInt(pSection, _T("LOGLEVEL"), eLDOPT_LOGLEVEL, pConfig);

  00406	4c 8b 8c 24 e8
	01 00 00	 mov	 r9, QWORD PTR pConfig$[rsp]
  0040e	41 b8 03 00 00
	00		 mov	 r8d, 3
  00414	48 8d 15 00 00
	00 00		 lea	 rdx, OFFSET FLAT:$SG86481
  0041b	48 8b 8c 24 f0
	01 00 00	 mov	 rcx, QWORD PTR pSection$[rsp]
  00423	ff 15 00 00 00
	00		 call	 QWORD PTR __imp_GetPrivateProfileIntA
  00429	48 8b 8c 24 e0
	01 00 00	 mov	 rcx, QWORD PTR this$[rsp]
  00431	89 41 78	 mov	 DWORD PTR [rcx+120], eax

; 215  : 
; 216  : 	if (isLogFlag(IS_LOG_ENABLE)) return LOG_INIT_CHANGED_SUCCESS;

  00434	ba 00 00 08 00	 mov	 edx, 524288		; 00080000H
  00439	48 8b 8c 24 e0
	01 00 00	 mov	 rcx, QWORD PTR this$[rsp]
  00441	e8 00 00 00 00	 call	 ?isLogFlag@CLogger@@QEAA_NW4E_LOG_FLAG@@@Z ; CLogger::isLogFlag
  00446	0f b6 c0	 movzx	 eax, al
  00449	85 c0		 test	 eax, eax
  0044b	74 07		 je	 SHORT $LN12@initConfig
  0044d	b8 02 00 00 00	 mov	 eax, 2
  00452	eb 4b		 jmp	 SHORT $LN1@initConfig
$LN12@initConfig:

; 217  : 
; 218  : 	setLogFlag(IS_LOG_SET_COMPLETE);

  00454	ba 00 00 02 00	 mov	 edx, 131072		; 00020000H
  00459	48 8b 8c 24 e0
	01 00 00	 mov	 rcx, QWORD PTR this$[rsp]
  00461	e8 00 00 00 00	 call	 ?setLogFlag@CLogger@@QEAAXW4E_LOG_FLAG@@@Z ; CLogger::setLogFlag

; 219  : 	return LOG_INIT_SUCCESS;

  00466	b8 01 00 00 00	 mov	 eax, 1
  0046b	eb 32		 jmp	 SHORT $LN1@initConfig
$LN5@initConfig:
$LN7@initConfig:
$SET_DISABLE$16:

; 220  : 
; 221  : SET_DISABLE : 
; 222  : 	if (isLogFlag(IS_LOG_ENABLE)) {

  0046d	ba 00 00 08 00	 mov	 edx, 524288		; 00080000H
  00472	48 8b 8c 24 e0
	01 00 00	 mov	 rcx, QWORD PTR this$[rsp]
  0047a	e8 00 00 00 00	 call	 ?isLogFlag@CLogger@@QEAA_NW4E_LOG_FLAG@@@Z ; CLogger::isLogFlag
  0047f	0f b6 c0	 movzx	 eax, al
  00482	85 c0		 test	 eax, eax
  00484	74 12		 je	 SHORT $LN13@initConfig

; 223  : 		clearLogFlag(IS_LOG_ENABLE);

  00486	ba 00 00 08 00	 mov	 edx, 524288		; 00080000H
  0048b	48 8b 8c 24 e0
	01 00 00	 mov	 rcx, QWORD PTR this$[rsp]
  00493	e8 00 00 00 00	 call	 ?clearLogFlag@CLogger@@QEAAXW4E_LOG_FLAG@@@Z ; CLogger::clearLogFlag
$LN13@initConfig:

; 224  : 	}
; 225  : 	return eRes;

  00498	8b 84 24 b4 01
	00 00		 mov	 eax, DWORD PTR eRes$[rsp]
$LN1@initConfig:

; 226  : }

  0049f	48 8b f8	 mov	 rdi, rax
  004a2	48 8b cc	 mov	 rcx, rsp
  004a5	48 8d 15 00 00
	00 00		 lea	 rdx, OFFSET FLAT:?initConfig@CLogger@@QEAA?AW4E_LOG_INIT_RES@@PEAD0@Z$rtcFrameData
  004ac	e8 00 00 00 00	 call	 _RTC_CheckStackVars
  004b1	48 8b c7	 mov	 rax, rdi
  004b4	48 8b 8c 24 c0
	01 00 00	 mov	 rcx, QWORD PTR __$ArrayPad$[rsp]
  004bc	48 33 cc	 xor	 rcx, rsp
  004bf	e8 00 00 00 00	 call	 __security_check_cookie
  004c4	48 81 c4 d0 01
	00 00		 add	 rsp, 464		; 000001d0H
  004cb	5f		 pop	 rdi
  004cc	c3		 ret	 0
?initConfig@CLogger@@QEAA?AW4E_LOG_INIT_RES@@PEAD0@Z ENDP ; CLogger::initConfig
_TEXT	ENDS
; Function compile flags: /Odtp /RTCsu
; File e:\infinia-library-3.0\com\src\comlogger.cpp
_TEXT	SEGMENT
szValue$ = 64
szValue2$ = 224
__$ArrayPad$ = 368
this$ = 400
pDir$ = 408
pName$ = 416
nLogType$ = 424
nLogLevel$ = 432
nSizeLimit$ = 440
pFileExtension$ = 448
?initDefault@CLogger@@QEAA_NPEAD0HHH0@Z PROC		; CLogger::initDefault

; 135  : {

$LN9:
  00000	44 89 4c 24 20	 mov	 DWORD PTR [rsp+32], r9d
  00005	4c 89 44 24 18	 mov	 QWORD PTR [rsp+24], r8
  0000a	48 89 54 24 10	 mov	 QWORD PTR [rsp+16], rdx
  0000f	48 89 4c 24 08	 mov	 QWORD PTR [rsp+8], rcx
  00014	57		 push	 rdi
  00015	48 81 ec 80 01
	00 00		 sub	 rsp, 384		; 00000180H
  0001c	48 8b fc	 mov	 rdi, rsp
  0001f	b9 60 00 00 00	 mov	 ecx, 96			; 00000060H
  00024	b8 cc cc cc cc	 mov	 eax, -858993460		; ccccccccH
  00029	f3 ab		 rep stosd
  0002b	48 8b 8c 24 90
	01 00 00	 mov	 rcx, QWORD PTR [rsp+400]
  00033	48 8b 05 00 00
	00 00		 mov	 rax, QWORD PTR __security_cookie
  0003a	48 33 c4	 xor	 rax, rsp
  0003d	48 89 84 24 70
	01 00 00	 mov	 QWORD PTR __$ArrayPad$[rsp], rax

; 136  : 	TCHAR szValue[128], szValue2[128];
; 137  : 
; 138  : 	if (!pDir) {

  00045	48 83 bc 24 98
	01 00 00 00	 cmp	 QWORD PTR pDir$[rsp], 0
  0004e	75 20		 jne	 SHORT $LN2@initDefaul

; 139  : 		comErrorPrint(_T("pDir is NULL"));

  00050	41 b8 8b 00 00
	00		 mov	 r8d, 139		; 0000008bH
  00056	48 8d 15 00 00
	00 00		 lea	 rdx, OFFSET FLAT:$SG86424
  0005d	48 8d 0d 00 00
	00 00		 lea	 rcx, OFFSET FLAT:$SG86425
  00064	e8 00 00 00 00	 call	 ?comGlobalErrorProc@@YAXPEADPEBDH@Z ; comGlobalErrorProc

; 140  : 		return false;

  00069	32 c0		 xor	 al, al
  0006b	e9 74 01 00 00	 jmp	 $LN1@initDefaul
$LN2@initDefaul:

; 141  : 	}
; 142  : 	if (pName) {

  00070	48 83 bc 24 a0
	01 00 00 00	 cmp	 QWORD PTR pName$[rsp], 0
  00079	74 3b		 je	 SHORT $LN3@initDefaul

; 143  : 		if (pDir[0] == '~') {

  0007b	b8 01 00 00 00	 mov	 eax, 1
  00080	48 6b c0 00	 imul	 rax, rax, 0
  00084	48 8b 8c 24 98
	01 00 00	 mov	 rcx, QWORD PTR pDir$[rsp]
  0008c	0f be 04 01	 movsx	 eax, BYTE PTR [rcx+rax]
  00090	83 f8 7e	 cmp	 eax, 126		; 0000007eH
  00093	75 1f		 jne	 SHORT $LN5@initDefaul

; 144  : 			changeToAbsolutePath(szValue, pDir);

  00095	48 8b 94 24 98
	01 00 00	 mov	 rdx, QWORD PTR pDir$[rsp]
  0009d	48 8d 4c 24 40	 lea	 rcx, QWORD PTR szValue$[rsp]
  000a2	e8 00 00 00 00	 call	 ?changeToAbsolutePath@@YAXPEADPEBD@Z ; changeToAbsolutePath

; 145  : 			pDir = szValue;

  000a7	48 8d 44 24 40	 lea	 rax, QWORD PTR szValue$[rsp]
  000ac	48 89 84 24 98
	01 00 00	 mov	 QWORD PTR pDir$[rsp], rax
$LN5@initDefaul:

; 146  : 		}
; 147  : 	}
; 148  : 	else {

  000b4	eb 37		 jmp	 SHORT $LN4@initDefaul
$LN3@initDefaul:

; 149  : 		detachFullPath(pDir, szValue, szValue2);

  000b6	4c 8d 84 24 e0
	00 00 00	 lea	 r8, QWORD PTR szValue2$[rsp]
  000be	48 8d 54 24 40	 lea	 rdx, QWORD PTR szValue$[rsp]
  000c3	48 8b 8c 24 98
	01 00 00	 mov	 rcx, QWORD PTR pDir$[rsp]
  000cb	e8 00 00 00 00	 call	 ?detachFullPath@@YAXPEBDPEAD1@Z ; detachFullPath

; 150  : 		pDir = szValue; pName = szValue2;

  000d0	48 8d 44 24 40	 lea	 rax, QWORD PTR szValue$[rsp]
  000d5	48 89 84 24 98
	01 00 00	 mov	 QWORD PTR pDir$[rsp], rax
  000dd	48 8d 84 24 e0
	00 00 00	 lea	 rax, QWORD PTR szValue2$[rsp]
  000e5	48 89 84 24 a0
	01 00 00	 mov	 QWORD PTR pName$[rsp], rax
$LN4@initDefaul:

; 151  : 	}
; 152  : 
; 153  : 	_initCom(pDir, pName, pFileExtension);

  000ed	48 8d 05 00 00
	00 00		 lea	 rax, OFFSET FLAT:?g_szKeepDuratrion@@3PADA ; g_szKeepDuratrion
  000f4	48 89 44 24 20	 mov	 QWORD PTR [rsp+32], rax
  000f9	4c 8b 8c 24 c0
	01 00 00	 mov	 r9, QWORD PTR pFileExtension$[rsp]
  00101	4c 8b 84 24 a0
	01 00 00	 mov	 r8, QWORD PTR pName$[rsp]
  00109	48 8b 94 24 98
	01 00 00	 mov	 rdx, QWORD PTR pDir$[rsp]
  00111	48 8b 8c 24 90
	01 00 00	 mov	 rcx, QWORD PTR this$[rsp]
  00119	e8 00 00 00 00	 call	 ?_initCom@CLogger@@AEAAXPEAD000@Z ; CLogger::_initCom

; 154  : 
; 155  : 	if (!_setLoggerQueue(eLDOPT_LISTMAX)) {

  0011e	ba 14 00 00 00	 mov	 edx, 20
  00123	48 8b 8c 24 90
	01 00 00	 mov	 rcx, QWORD PTR this$[rsp]
  0012b	e8 00 00 00 00	 call	 ?_setLoggerQueue@CLogger@@AEAA_NH@Z ; CLogger::_setLoggerQueue
  00130	0f b6 c0	 movzx	 eax, al
  00133	85 c0		 test	 eax, eax
  00135	75 20		 jne	 SHORT $LN6@initDefaul

; 156  : 		comErrorPrint(_T("_setLoggerQueue has Failed"));

  00137	41 b8 9c 00 00
	00		 mov	 r8d, 156		; 0000009cH
  0013d	48 8d 15 00 00
	00 00		 lea	 rdx, OFFSET FLAT:$SG86430
  00144	48 8d 0d 00 00
	00 00		 lea	 rcx, OFFSET FLAT:$SG86431
  0014b	e8 00 00 00 00	 call	 ?comGlobalErrorProc@@YAXPEADPEBDH@Z ; comGlobalErrorProc

; 157  : 		return false;

  00150	32 c0		 xor	 al, al
  00152	e9 8d 00 00 00	 jmp	 $LN1@initDefaul
$LN6@initDefaul:

; 158  : 	}
; 159  : 	if (!_setHeaderFormat(eLDOPT_TIMESTEMP_NO)) {

  00157	33 d2		 xor	 edx, edx
  00159	48 8b 8c 24 90
	01 00 00	 mov	 rcx, QWORD PTR this$[rsp]
  00161	e8 00 00 00 00	 call	 ?_setHeaderFormat@CLogger@@AEAA_NH@Z ; CLogger::_setHeaderFormat
  00166	0f b6 c0	 movzx	 eax, al
  00169	85 c0		 test	 eax, eax
  0016b	75 1d		 jne	 SHORT $LN7@initDefaul

; 160  : 		comErrorPrint(_T("_setHeaderFormat has Failed"));

  0016d	41 b8 a0 00 00
	00		 mov	 r8d, 160		; 000000a0H
  00173	48 8d 15 00 00
	00 00		 lea	 rdx, OFFSET FLAT:$SG86433
  0017a	48 8d 0d 00 00
	00 00		 lea	 rcx, OFFSET FLAT:$SG86434
  00181	e8 00 00 00 00	 call	 ?comGlobalErrorProc@@YAXPEADPEBDH@Z ; comGlobalErrorProc

; 161  : 		return false;

  00186	32 c0		 xor	 al, al
  00188	eb 5a		 jmp	 SHORT $LN1@initDefaul
$LN7@initDefaul:

; 162  : 	}
; 163  : 
; 164  : 	m_nStlNo = 0;

  0018a	48 8b 84 24 90
	01 00 00	 mov	 rax, QWORD PTR this$[rsp]
  00192	c7 80 bc 00 00
	00 00 00 00 00	 mov	 DWORD PTR [rax+188], 0

; 165  : 	m_nLogLevel = nLogLevel;

  0019c	48 8b 84 24 90
	01 00 00	 mov	 rax, QWORD PTR this$[rsp]
  001a4	8b 8c 24 b0 01
	00 00		 mov	 ecx, DWORD PTR nLogLevel$[rsp]
  001ab	89 48 78	 mov	 DWORD PTR [rax+120], ecx

; 166  : 	_setLoggerBasic(nLogType, eLDOPT_IS_PRINT_LEVEL, nSizeLimit);

  001ae	44 8b 8c 24 b8
	01 00 00	 mov	 r9d, DWORD PTR nSizeLimit$[rsp]
  001b6	41 b8 01 00 00
	00		 mov	 r8d, 1
  001bc	8b 94 24 a8 01
	00 00		 mov	 edx, DWORD PTR nLogType$[rsp]
  001c3	48 8b 8c 24 90
	01 00 00	 mov	 rcx, QWORD PTR this$[rsp]
  001cb	e8 00 00 00 00	 call	 ?_setLoggerBasic@CLogger@@AEAAXHHH@Z ; CLogger::_setLoggerBasic

; 167  : 	setLogFlag(IS_LOG_SET_COMPLETE);

  001d0	ba 00 00 02 00	 mov	 edx, 131072		; 00020000H
  001d5	48 8b 8c 24 90
	01 00 00	 mov	 rcx, QWORD PTR this$[rsp]
  001dd	e8 00 00 00 00	 call	 ?setLogFlag@CLogger@@QEAAXW4E_LOG_FLAG@@@Z ; CLogger::setLogFlag

; 168  : 	return true;

  001e2	b0 01		 mov	 al, 1
$LN1@initDefaul:

; 169  : }

  001e4	48 8b f8	 mov	 rdi, rax
  001e7	48 8b cc	 mov	 rcx, rsp
  001ea	48 8d 15 00 00
	00 00		 lea	 rdx, OFFSET FLAT:?initDefault@CLogger@@QEAA_NPEAD0HHH0@Z$rtcFrameData
  001f1	e8 00 00 00 00	 call	 _RTC_CheckStackVars
  001f6	48 8b c7	 mov	 rax, rdi
  001f9	48 8b 8c 24 70
	01 00 00	 mov	 rcx, QWORD PTR __$ArrayPad$[rsp]
  00201	48 33 cc	 xor	 rcx, rsp
  00204	e8 00 00 00 00	 call	 __security_check_cookie
  00209	48 81 c4 80 01
	00 00		 add	 rsp, 384		; 00000180H
  00210	5f		 pop	 rdi
  00211	c3		 ret	 0
?initDefault@CLogger@@QEAA_NPEAD0HHH0@Z ENDP		; CLogger::initDefault
_TEXT	ENDS
; Function compile flags: /Odtp /RTCsu
; File e:\infinia-library-3.0\com\src\comlogger.cpp
_TEXT	SEGMENT
$T1 = 32
$T2 = 40
$T3 = 48
$T4 = 56
this$ = 80
??1CLogger@@QEAA@XZ PROC				; CLogger::~CLogger

; 118  : {

$LN8:
  00000	48 89 4c 24 08	 mov	 QWORD PTR [rsp+8], rcx
  00005	57		 push	 rdi
  00006	48 83 ec 40	 sub	 rsp, 64			; 00000040H
  0000a	48 8b fc	 mov	 rdi, rsp
  0000d	b9 10 00 00 00	 mov	 ecx, 16
  00012	b8 cc cc cc cc	 mov	 eax, -858993460		; ccccccccH
  00017	f3 ab		 rep stosd
  00019	48 8b 4c 24 50	 mov	 rcx, QWORD PTR [rsp+80]
  0001e	48 c7 44 24 38
	fe ff ff ff	 mov	 QWORD PTR $T4[rsp], -2

; 119  : 	if (isLogFlag(IS_LOG_ENABLE)) {

  00027	ba 00 00 08 00	 mov	 edx, 524288		; 00080000H
  0002c	48 8b 4c 24 50	 mov	 rcx, QWORD PTR this$[rsp]
  00031	e8 00 00 00 00	 call	 ?isLogFlag@CLogger@@QEAA_NW4E_LOG_FLAG@@@Z ; CLogger::isLogFlag
  00036	90		 npad	 1
  00037	0f b6 c0	 movzx	 eax, al
  0003a	85 c0		 test	 eax, eax
  0003c	74 10		 je	 SHORT $LN2@CLogger

; 120  : 		clearLogFlag(IS_LOG_ENABLE);

  0003e	ba 00 00 08 00	 mov	 edx, 524288		; 00080000H
  00043	48 8b 4c 24 50	 mov	 rcx, QWORD PTR this$[rsp]
  00048	e8 00 00 00 00	 call	 ?clearLogFlag@CLogger@@QEAAXW4E_LOG_FLAG@@@Z ; CLogger::clearLogFlag
  0004d	90		 npad	 1
$LN2@CLogger:

; 121  : 	}
; 122  : 	if (m_hFile) { fclose(m_hFile); m_hFile = NULL;	}

  0004e	48 8b 44 24 50	 mov	 rax, QWORD PTR this$[rsp]
  00053	48 83 b8 88 00
	00 00 00	 cmp	 QWORD PTR [rax+136], 0
  0005b	74 23		 je	 SHORT $LN3@CLogger
  0005d	48 8b 44 24 50	 mov	 rax, QWORD PTR this$[rsp]
  00062	48 8b 88 88 00
	00 00		 mov	 rcx, QWORD PTR [rax+136]
  00069	ff 15 00 00 00
	00		 call	 QWORD PTR __imp_fclose
  0006f	90		 npad	 1
  00070	48 8b 44 24 50	 mov	 rax, QWORD PTR this$[rsp]
  00075	48 c7 80 88 00
	00 00 00 00 00
	00		 mov	 QWORD PTR [rax+136], 0
$LN3@CLogger:

; 123  : 	if (m_pLogDir) {

  00080	48 8b 44 24 50	 mov	 rax, QWORD PTR this$[rsp]
  00085	48 83 b8 98 00
	00 00 00	 cmp	 QWORD PTR [rax+152], 0
  0008d	74 31		 je	 SHORT $LN4@CLogger

; 124  : 		delete m_pLogDir; m_pLogDir = NULL;

  0008f	48 8b 44 24 50	 mov	 rax, QWORD PTR this$[rsp]
  00094	48 8b 80 98 00
	00 00		 mov	 rax, QWORD PTR [rax+152]
  0009b	48 89 44 24 20	 mov	 QWORD PTR $T1[rsp], rax
  000a0	ba 01 00 00 00	 mov	 edx, 1
  000a5	48 8b 4c 24 20	 mov	 rcx, QWORD PTR $T1[rsp]
  000aa	e8 00 00 00 00	 call	 ??3@YAXPEAX_K@Z		; operator delete
  000af	90		 npad	 1
  000b0	48 8b 44 24 50	 mov	 rax, QWORD PTR this$[rsp]
  000b5	48 c7 80 98 00
	00 00 00 00 00
	00		 mov	 QWORD PTR [rax+152], 0
$LN4@CLogger:

; 125  : 	}
; 126  : 	if (m_pLogName) {

  000c0	48 8b 44 24 50	 mov	 rax, QWORD PTR this$[rsp]
  000c5	48 83 b8 a0 00
	00 00 00	 cmp	 QWORD PTR [rax+160], 0
  000cd	74 31		 je	 SHORT $LN5@CLogger

; 127  : 		delete m_pLogName; m_pLogName = NULL;

  000cf	48 8b 44 24 50	 mov	 rax, QWORD PTR this$[rsp]
  000d4	48 8b 80 a0 00
	00 00		 mov	 rax, QWORD PTR [rax+160]
  000db	48 89 44 24 28	 mov	 QWORD PTR $T2[rsp], rax
  000e0	ba 01 00 00 00	 mov	 edx, 1
  000e5	48 8b 4c 24 28	 mov	 rcx, QWORD PTR $T2[rsp]
  000ea	e8 00 00 00 00	 call	 ??3@YAXPEAX_K@Z		; operator delete
  000ef	90		 npad	 1
  000f0	48 8b 44 24 50	 mov	 rax, QWORD PTR this$[rsp]
  000f5	48 c7 80 a0 00
	00 00 00 00 00
	00		 mov	 QWORD PTR [rax+160], 0
$LN5@CLogger:

; 128  : 	}
; 129  : 	if (m_pFName) {

  00100	48 8b 44 24 50	 mov	 rax, QWORD PTR this$[rsp]
  00105	48 83 b8 90 00
	00 00 00	 cmp	 QWORD PTR [rax+144], 0
  0010d	74 31		 je	 SHORT $LN6@CLogger

; 130  : 		delete m_pFName; m_pFName = NULL;

  0010f	48 8b 44 24 50	 mov	 rax, QWORD PTR this$[rsp]
  00114	48 8b 80 90 00
	00 00		 mov	 rax, QWORD PTR [rax+144]
  0011b	48 89 44 24 30	 mov	 QWORD PTR $T3[rsp], rax
  00120	ba 01 00 00 00	 mov	 edx, 1
  00125	48 8b 4c 24 30	 mov	 rcx, QWORD PTR $T3[rsp]
  0012a	e8 00 00 00 00	 call	 ??3@YAXPEAX_K@Z		; operator delete
  0012f	90		 npad	 1
  00130	48 8b 44 24 50	 mov	 rax, QWORD PTR this$[rsp]
  00135	48 c7 80 90 00
	00 00 00 00 00
	00		 mov	 QWORD PTR [rax+144], 0
$LN6@CLogger:

; 131  : 	}
; 132  : }

  00140	48 8b 44 24 50	 mov	 rax, QWORD PTR this$[rsp]
  00145	48 8b c8	 mov	 rcx, rax
  00148	e8 00 00 00 00	 call	 ??1CQueueS@@QEAA@XZ	; CQueueS::~CQueueS
  0014d	90		 npad	 1
  0014e	48 83 c4 40	 add	 rsp, 64			; 00000040H
  00152	5f		 pop	 rdi
  00153	c3		 ret	 0
??1CLogger@@QEAA@XZ ENDP				; CLogger::~CLogger
_TEXT	ENDS
; Function compile flags: /Odtp /RTCsu
; File e:\infinia-library-3.0\com\src\comlogger.cpp
_TEXT	SEGMENT
this$ = 48
??0CLogger@@QEAA@XZ PROC				; CLogger::CLogger

; 90   : {

$LN4:
  00000	48 89 4c 24 08	 mov	 QWORD PTR [rsp+8], rcx
  00005	57		 push	 rdi
  00006	48 83 ec 20	 sub	 rsp, 32			; 00000020H
  0000a	48 8b fc	 mov	 rdi, rsp
  0000d	b9 08 00 00 00	 mov	 ecx, 8
  00012	b8 cc cc cc cc	 mov	 eax, -858993460		; ccccccccH
  00017	f3 ab		 rep stosd
  00019	48 8b 4c 24 30	 mov	 rcx, QWORD PTR [rsp+48]
  0001e	48 8b 44 24 30	 mov	 rax, QWORD PTR this$[rsp]
  00023	48 8b c8	 mov	 rcx, rax
  00026	e8 00 00 00 00	 call	 ??0CQueueS@@QEAA@XZ	; CQueueS::CQueueS

; 91   : 	m_hFile = NULL;

  0002b	48 8b 44 24 30	 mov	 rax, QWORD PTR this$[rsp]
  00030	48 c7 80 88 00
	00 00 00 00 00
	00		 mov	 QWORD PTR [rax+136], 0

; 92   : 	m_pFName = NULL;

  0003b	48 8b 44 24 30	 mov	 rax, QWORD PTR this$[rsp]
  00040	48 c7 80 90 00
	00 00 00 00 00
	00		 mov	 QWORD PTR [rax+144], 0

; 93   : 
; 94   : 	m_nLogLevel = eLDOPT_LOGLEVEL;

  0004b	48 8b 44 24 30	 mov	 rax, QWORD PTR this$[rsp]
  00050	c7 40 78 03 00
	00 00		 mov	 DWORD PTR [rax+120], 3

; 95   : 	m_nLogSize = 0;

  00057	48 8b 44 24 30	 mov	 rax, QWORD PTR this$[rsp]
  0005c	c7 80 c4 00 00
	00 00 00 00 00	 mov	 DWORD PTR [rax+196], 0

; 96   : 	m_nLogFlag = 0;

  00066	48 8b 44 24 30	 mov	 rax, QWORD PTR this$[rsp]
  0006b	c7 80 b4 00 00
	00 00 00 00 00	 mov	 DWORD PTR [rax+180], 0

; 97   : 	m_nStlNo = eLDOPT_STL_NO;

  00075	48 8b 44 24 30	 mov	 rax, QWORD PTR this$[rsp]
  0007a	c7 80 bc 00 00
	00 00 00 00 00	 mov	 DWORD PTR [rax+188], 0

; 98   : 
; 99   : 	m_pLogDir = NULL;

  00084	48 8b 44 24 30	 mov	 rax, QWORD PTR this$[rsp]
  00089	48 c7 80 98 00
	00 00 00 00 00
	00		 mov	 QWORD PTR [rax+152], 0

; 100  : 	m_pLogName = NULL;

  00094	48 8b 44 24 30	 mov	 rax, QWORD PTR this$[rsp]
  00099	48 c7 80 a0 00
	00 00 00 00 00
	00		 mov	 QWORD PTR [rax+160], 0

; 101  : 	strcpy(m_szFileExtension,g_szLogExtension);

  000a4	48 8b 44 24 30	 mov	 rax, QWORD PTR this$[rsp]
  000a9	48 05 a8 00 00
	00		 add	 rax, 168		; 000000a8H
  000af	48 8d 15 00 00
	00 00		 lea	 rdx, OFFSET FLAT:?g_szLogExtension@@3PADA ; g_szLogExtension
  000b6	48 8b c8	 mov	 rcx, rax
  000b9	e8 00 00 00 00	 call	 strcpy

; 102  : 	m_nSeq = 0;

  000be	48 8b 44 24 30	 mov	 rax, QWORD PTR this$[rsp]
  000c3	c7 80 b8 00 00
	00 00 00 00 00	 mov	 DWORD PTR [rax+184], 0

; 103  : 	m_nSizeLimit = eLDOPT_SIZE_LIMIT;

  000cd	48 8b 44 24 30	 mov	 rax, QWORD PTR this$[rsp]
  000d2	c7 80 c0 00 00
	00 00 00 00 00	 mov	 DWORD PTR [rax+192], 0

; 104  : 	m_nLogSize = 0;

  000dc	48 8b 44 24 30	 mov	 rax, QWORD PTR this$[rsp]
  000e1	c7 80 c4 00 00
	00 00 00 00 00	 mov	 DWORD PTR [rax+196], 0

; 105  : 	m_nDateTimeFormat = 0;

  000eb	48 8b 44 24 30	 mov	 rax, QWORD PTR this$[rsp]
  000f0	c7 40 7c 00 00
	00 00		 mov	 DWORD PTR [rax+124], 0

; 106  : 	m_fpDataProc = NULL;

  000f7	48 8b 44 24 30	 mov	 rax, QWORD PTR this$[rsp]
  000fc	48 c7 40 60 00
	00 00 00	 mov	 QWORD PTR [rax+96], 0

; 107  : 
; 108  : 	m_szHeaderFormat[0] = 0;

  00104	b8 01 00 00 00	 mov	 eax, 1
  00109	48 6b c0 00	 imul	 rax, rax, 0
  0010d	48 8b 4c 24 30	 mov	 rcx, QWORD PTR this$[rsp]
  00112	c6 84 01 c8 00
	00 00 00	 mov	 BYTE PTR [rcx+rax+200], 0

; 109  : 	m_pObj = NULL;

  0011a	48 8b 44 24 30	 mov	 rax, QWORD PTR this$[rsp]
  0011f	48 c7 40 70 00
	00 00 00	 mov	 QWORD PTR [rax+112], 0

; 110  : 
; 111  : 	m_nDeleteInterval = 0;

  00127	48 8b 44 24 30	 mov	 rax, QWORD PTR this$[rsp]
  0012c	c7 80 10 01 00
	00 00 00 00 00	 mov	 DWORD PTR [rax+272], 0

; 112  : 	m_tDeleteGoal = 0;

  00136	48 8b 44 24 30	 mov	 rax, QWORD PTR this$[rsp]
  0013b	48 c7 80 08 01
	00 00 00 00 00
	00		 mov	 QWORD PTR [rax+264], 0

; 113  : }

  00146	48 8b 44 24 30	 mov	 rax, QWORD PTR this$[rsp]
  0014b	48 83 c4 20	 add	 rsp, 32			; 00000020H
  0014f	5f		 pop	 rdi
  00150	c3		 ret	 0
??0CLogger@@QEAA@XZ ENDP				; CLogger::CLogger
_TEXT	ENDS
; Function compile flags: /Odtp /RTCsu
;	COMDAT ?__autoclassinit2@CTimeExpManager@@QEAAX_K@Z
_TEXT	SEGMENT
this$ = 16
classSize$ = 24
?__autoclassinit2@CTimeExpManager@@QEAAX_K@Z PROC	; CTimeExpManager::__autoclassinit2, COMDAT
$LN3:
  00000	48 89 54 24 10	 mov	 QWORD PTR [rsp+16], rdx
  00005	48 89 4c 24 08	 mov	 QWORD PTR [rsp+8], rcx
  0000a	57		 push	 rdi
  0000b	48 8b 7c 24 10	 mov	 rdi, QWORD PTR this$[rsp]
  00010	33 c0		 xor	 eax, eax
  00012	48 8b 4c 24 18	 mov	 rcx, QWORD PTR classSize$[rsp]
  00017	f3 aa		 rep stosb
  00019	5f		 pop	 rdi
  0001a	c3		 ret	 0
?__autoclassinit2@CTimeExpManager@@QEAAX_K@Z ENDP	; CTimeExpManager::__autoclassinit2
_TEXT	ENDS
; Function compile flags: /Odtp /RTCsu
; File e:\infinia-library-3.0\com\src\comlogger.cpp
_TEXT	SEGMENT
this$ = 48
nIdx$ = 56
?getDTE@CTimeExpManager@@QEAAPEAUSTLogDateTimeExp@@H@Z PROC ; CTimeExpManager::getDTE

; 38   : STLogDateTimeExp *CTimeExpManager::getDTE(int nIdx) { if (!m_pTimeExpList) return NULL;  return (STLogDateTimeExp *)m_pTimeExpList->getObj(nIdx); }

$LN4:
  00000	89 54 24 10	 mov	 DWORD PTR [rsp+16], edx
  00004	48 89 4c 24 08	 mov	 QWORD PTR [rsp+8], rcx
  00009	57		 push	 rdi
  0000a	48 83 ec 20	 sub	 rsp, 32			; 00000020H
  0000e	48 8b fc	 mov	 rdi, rsp
  00011	b9 08 00 00 00	 mov	 ecx, 8
  00016	b8 cc cc cc cc	 mov	 eax, -858993460		; ccccccccH
  0001b	f3 ab		 rep stosd
  0001d	48 8b 4c 24 30	 mov	 rcx, QWORD PTR [rsp+48]
  00022	48 8b 44 24 30	 mov	 rax, QWORD PTR this$[rsp]
  00027	48 83 38 00	 cmp	 QWORD PTR [rax], 0
  0002b	75 04		 jne	 SHORT $LN2@getDTE
  0002d	33 c0		 xor	 eax, eax
  0002f	eb 11		 jmp	 SHORT $LN1@getDTE
$LN2@getDTE:
  00031	8b 54 24 38	 mov	 edx, DWORD PTR nIdx$[rsp]
  00035	48 8b 44 24 30	 mov	 rax, QWORD PTR this$[rsp]
  0003a	48 8b 08	 mov	 rcx, QWORD PTR [rax]
  0003d	e8 00 00 00 00	 call	 ?getObj@CSList@@QEAAPEAXH@Z ; CSList::getObj
$LN1@getDTE:
  00042	48 83 c4 20	 add	 rsp, 32			; 00000020H
  00046	5f		 pop	 rdi
  00047	c3		 ret	 0
?getDTE@CTimeExpManager@@QEAAPEAUSTLogDateTimeExp@@H@Z ENDP ; CTimeExpManager::getDTE
_TEXT	ENDS
; Function compile flags: /Odtp /RTCsu
; File e:\infinia-library-3.0\com\src\comlogger.cpp
_TEXT	SEGMENT
szSection$ = 48
pDTE$ = 120
nDTESize$ = 128
nCount$ = 136
i$ = 140
$T4 = 152
$T5 = 160
$T6 = 168
tv83 = 176
__$ArrayPad$ = 184
this$ = 208
pConfig$ = 216
?initConfig@CTimeExpManager@@QEAA_NPEAD@Z PROC		; CTimeExpManager::initConfig

; 41   : {

$LN13:
  00000	48 89 54 24 10	 mov	 QWORD PTR [rsp+16], rdx
  00005	48 89 4c 24 08	 mov	 QWORD PTR [rsp+8], rcx
  0000a	57		 push	 rdi
  0000b	48 81 ec c0 00
	00 00		 sub	 rsp, 192		; 000000c0H
  00012	48 8b fc	 mov	 rdi, rsp
  00015	b9 30 00 00 00	 mov	 ecx, 48			; 00000030H
  0001a	b8 cc cc cc cc	 mov	 eax, -858993460		; ccccccccH
  0001f	f3 ab		 rep stosd
  00021	48 8b 8c 24 d0
	00 00 00	 mov	 rcx, QWORD PTR [rsp+208]
  00029	48 c7 84 24 a8
	00 00 00 fe ff
	ff ff		 mov	 QWORD PTR $T6[rsp], -2
  00035	48 8b 05 00 00
	00 00		 mov	 rax, QWORD PTR __security_cookie
  0003c	48 33 c4	 xor	 rax, rsp
  0003f	48 89 84 24 b8
	00 00 00	 mov	 QWORD PTR __$ArrayPad$[rsp], rax

; 42   : 	TCHAR szSection[64];
; 43   : 	STLogDateTimeExp *pDTE;
; 44   : 	size_t nDTESize = sizeof(STLogDateTimeExp);

  00047	48 c7 84 24 80
	00 00 00 0c 00
	00 00		 mov	 QWORD PTR nDTESize$[rsp], 12

; 45   : 	int nCount;
; 46   : 
; 47   : 
; 48   : 	nCount = GetPrivateProfileInt(_T("DATETIME_EXPRESSION"), _T("LIST_MAX"), 0, pConfig);

  00053	4c 8b 8c 24 d8
	00 00 00	 mov	 r9, QWORD PTR pConfig$[rsp]
  0005b	45 33 c0	 xor	 r8d, r8d
  0005e	48 8d 15 00 00
	00 00		 lea	 rdx, OFFSET FLAT:$SG86377
  00065	48 8d 0d 00 00
	00 00		 lea	 rcx, OFFSET FLAT:$SG86378
  0006c	ff 15 00 00 00
	00		 call	 QWORD PTR __imp_GetPrivateProfileIntA
  00072	89 84 24 88 00
	00 00		 mov	 DWORD PTR nCount$[rsp], eax

; 49   : 	int i;
; 50   : 	m_pTimeExpList = new CSList();

  00079	b9 20 00 00 00	 mov	 ecx, 32			; 00000020H
  0007e	e8 00 00 00 00	 call	 ??2@YAPEAX_K@Z		; operator new
  00083	48 89 84 24 a0
	00 00 00	 mov	 QWORD PTR $T5[rsp], rax
  0008b	48 83 bc 24 a0
	00 00 00 00	 cmp	 QWORD PTR $T5[rsp], 0
  00094	74 29		 je	 SHORT $LN10@initConfig
  00096	ba 20 00 00 00	 mov	 edx, 32			; 00000020H
  0009b	48 8b 8c 24 a0
	00 00 00	 mov	 rcx, QWORD PTR $T5[rsp]
  000a3	e8 00 00 00 00	 call	 ?__autoclassinit2@CSList@@QEAAX_K@Z
  000a8	48 8b 8c 24 a0
	00 00 00	 mov	 rcx, QWORD PTR $T5[rsp]
  000b0	e8 00 00 00 00	 call	 ??0CSList@@QEAA@XZ	; CSList::CSList
  000b5	48 89 84 24 b0
	00 00 00	 mov	 QWORD PTR tv83[rsp], rax
  000bd	eb 0c		 jmp	 SHORT $LN11@initConfig
$LN10@initConfig:
  000bf	48 c7 84 24 b0
	00 00 00 00 00
	00 00		 mov	 QWORD PTR tv83[rsp], 0
$LN11@initConfig:
  000cb	48 8b 84 24 b0
	00 00 00	 mov	 rax, QWORD PTR tv83[rsp]
  000d3	48 89 84 24 98
	00 00 00	 mov	 QWORD PTR $T4[rsp], rax
  000db	48 8b 84 24 d0
	00 00 00	 mov	 rax, QWORD PTR this$[rsp]
  000e3	48 8b 8c 24 98
	00 00 00	 mov	 rcx, QWORD PTR $T4[rsp]
  000eb	48 89 08	 mov	 QWORD PTR [rax], rcx

; 51   : 	if (!m_pTimeExpList) {

  000ee	48 8b 84 24 d0
	00 00 00	 mov	 rax, QWORD PTR this$[rsp]
  000f6	48 83 38 00	 cmp	 QWORD PTR [rax], 0
  000fa	75 20		 jne	 SHORT $LN5@initConfig

; 52   : 		printf("new CList() is NULL!\t%s%d\n", __FUNCTION__, __LINE__);

  000fc	41 b8 34 00 00
	00		 mov	 r8d, 52			; 00000034H
  00102	48 8d 15 00 00
	00 00		 lea	 rdx, OFFSET FLAT:$SG86381
  00109	48 8d 0d 00 00
	00 00		 lea	 rcx, OFFSET FLAT:$SG86382
  00110	e8 00 00 00 00	 call	 printf

; 53   : 		return false;

  00115	32 c0		 xor	 al, al
  00117	e9 2e 02 00 00	 jmp	 $LN1@initConfig
$LN5@initConfig:

; 54   : 	}
; 55   : 	if (!m_pTimeExpList->alloc(nCount + LIST_ADD_COUNT, eAlloc_Type_alloc)) {

  0011c	8b 84 24 88 00
	00 00		 mov	 eax, DWORD PTR nCount$[rsp]
  00123	83 c0 0a	 add	 eax, 10
  00126	41 b8 03 00 00
	00		 mov	 r8d, 3
  0012c	8b d0		 mov	 edx, eax
  0012e	48 8b 84 24 d0
	00 00 00	 mov	 rax, QWORD PTR this$[rsp]
  00136	48 8b 08	 mov	 rcx, QWORD PTR [rax]
  00139	e8 00 00 00 00	 call	 ?alloc@CSList@@QEAAHHW4E_ALLOC_TYPE@@@Z ; CSList::alloc
  0013e	85 c0		 test	 eax, eax
  00140	75 20		 jne	 SHORT $LN6@initConfig

; 56   : 		printf("m_pTimeExpList->alloc has Failed!\t%s%d\n", __FUNCTION__, __LINE__);

  00142	41 b8 38 00 00
	00		 mov	 r8d, 56			; 00000038H
  00148	48 8d 15 00 00
	00 00		 lea	 rdx, OFFSET FLAT:$SG86384
  0014f	48 8d 0d 00 00
	00 00		 lea	 rcx, OFFSET FLAT:$SG86385
  00156	e8 00 00 00 00	 call	 printf

; 57   : 		return false;

  0015b	32 c0		 xor	 al, al
  0015d	e9 e8 01 00 00	 jmp	 $LN1@initConfig
$LN6@initConfig:

; 58   : 	}
; 59   : 	
; 60   : 	// Default
; 61   : 	if (!nCount) {

  00162	83 bc 24 88 00
	00 00 00	 cmp	 DWORD PTR nCount$[rsp], 0
  0016a	75 76		 jne	 SHORT $LN7@initConfig

; 62   : 		nCount = 1;

  0016c	c7 84 24 88 00
	00 00 01 00 00
	00		 mov	 DWORD PTR nCount$[rsp], 1

; 63   : 		pDTE = (STLogDateTimeExp *)malloc(nDTESize);

  00177	48 8b 8c 24 80
	00 00 00	 mov	 rcx, QWORD PTR nDTESize$[rsp]
  0017f	ff 15 00 00 00
	00		 call	 QWORD PTR __imp_malloc
  00185	48 89 44 24 78	 mov	 QWORD PTR pDTE$[rsp], rax

; 64   : 		pDTE->bTimeDelimeter = 1;

  0018a	48 8b 44 24 78	 mov	 rax, QWORD PTR pDTE$[rsp]
  0018f	c6 40 02 01	 mov	 BYTE PTR [rax+2], 1

; 65   : 		pDTE->cDateDelimeter = '/';

  00193	48 8b 44 24 78	 mov	 rax, QWORD PTR pDTE$[rsp]
  00198	c6 40 01 2f	 mov	 BYTE PTR [rax+1], 47	; 0000002fH

; 66   : 		pDTE->bBracketEnclosed = 1;

  0019c	48 8b 44 24 78	 mov	 rax, QWORD PTR pDTE$[rsp]
  001a1	c6 00 01	 mov	 BYTE PTR [rax], 1

; 67   : 		pDTE->nLastType = DT_MILLISEC;

  001a4	48 8b 44 24 78	 mov	 rax, QWORD PTR pDTE$[rsp]
  001a9	c7 40 04 02 00
	00 00		 mov	 DWORD PTR [rax+4], 2

; 68   : 		pDTE->nYearLen = 4;

  001b0	48 8b 44 24 78	 mov	 rax, QWORD PTR pDTE$[rsp]
  001b5	c6 40 03 04	 mov	 BYTE PTR [rax+3], 4

; 69   : 		pDTE->nTZType = TZ_NONE;

  001b9	48 8b 44 24 78	 mov	 rax, QWORD PTR pDTE$[rsp]
  001be	c7 40 08 00 00
	00 00		 mov	 DWORD PTR [rax+8], 0

; 70   : 		m_pTimeExpList->push_back(pDTE);

  001c5	45 33 c0	 xor	 r8d, r8d
  001c8	48 8b 54 24 78	 mov	 rdx, QWORD PTR pDTE$[rsp]
  001cd	48 8b 84 24 d0
	00 00 00	 mov	 rax, QWORD PTR this$[rsp]
  001d5	48 8b 08	 mov	 rcx, QWORD PTR [rax]
  001d8	e8 00 00 00 00	 call	 ?push_back@CSList@@QEAA_NPEAXPEAH@Z ; CSList::push_back

; 71   : 	}
; 72   : 	else {

  001dd	e9 66 01 00 00	 jmp	 $LN8@initConfig
$LN7@initConfig:

; 73   : 		for (i = 0; i < nCount; i++) {

  001e2	c7 84 24 8c 00
	00 00 00 00 00
	00		 mov	 DWORD PTR i$[rsp], 0
  001ed	eb 10		 jmp	 SHORT $LN4@initConfig
$LN2@initConfig:
  001ef	8b 84 24 8c 00
	00 00		 mov	 eax, DWORD PTR i$[rsp]
  001f6	ff c0		 inc	 eax
  001f8	89 84 24 8c 00
	00 00		 mov	 DWORD PTR i$[rsp], eax
$LN4@initConfig:
  001ff	8b 84 24 88 00
	00 00		 mov	 eax, DWORD PTR nCount$[rsp]
  00206	39 84 24 8c 00
	00 00		 cmp	 DWORD PTR i$[rsp], eax
  0020d	0f 8d 35 01 00
	00		 jge	 $LN8@initConfig

; 74   : 			pDTE = (STLogDateTimeExp *)malloc(nDTESize);

  00213	48 8b 8c 24 80
	00 00 00	 mov	 rcx, QWORD PTR nDTESize$[rsp]
  0021b	ff 15 00 00 00
	00		 call	 QWORD PTR __imp_malloc
  00221	48 89 44 24 78	 mov	 QWORD PTR pDTE$[rsp], rax

; 75   : 			_stprintf(szSection, _T("DATETIME_EXPRESSION_%d"), i);

  00226	44 8b 84 24 8c
	00 00 00	 mov	 r8d, DWORD PTR i$[rsp]
  0022e	48 8d 15 00 00
	00 00		 lea	 rdx, OFFSET FLAT:$SG86388
  00235	48 8d 4c 24 30	 lea	 rcx, QWORD PTR szSection$[rsp]
  0023a	e8 00 00 00 00	 call	 sprintf

; 76   : 			pDTE->bTimeDelimeter = GetPrivateProfileInt(szSection, _T("IS_TIME_DELIMETER"), 1, pConfig);

  0023f	4c 8b 8c 24 d8
	00 00 00	 mov	 r9, QWORD PTR pConfig$[rsp]
  00247	41 b8 01 00 00
	00		 mov	 r8d, 1
  0024d	48 8d 15 00 00
	00 00		 lea	 rdx, OFFSET FLAT:$SG86389
  00254	48 8d 4c 24 30	 lea	 rcx, QWORD PTR szSection$[rsp]
  00259	ff 15 00 00 00
	00		 call	 QWORD PTR __imp_GetPrivateProfileIntA
  0025f	48 8b 4c 24 78	 mov	 rcx, QWORD PTR pDTE$[rsp]
  00264	88 41 02	 mov	 BYTE PTR [rcx+2], al

; 77   : 			pDTE->cDateDelimeter = (char)GetPrivateProfileInt(szSection, _T("DATE_DELIMETER"), '/', pConfig);

  00267	4c 8b 8c 24 d8
	00 00 00	 mov	 r9, QWORD PTR pConfig$[rsp]
  0026f	41 b8 2f 00 00
	00		 mov	 r8d, 47			; 0000002fH
  00275	48 8d 15 00 00
	00 00		 lea	 rdx, OFFSET FLAT:$SG86390
  0027c	48 8d 4c 24 30	 lea	 rcx, QWORD PTR szSection$[rsp]
  00281	ff 15 00 00 00
	00		 call	 QWORD PTR __imp_GetPrivateProfileIntA
  00287	48 8b 4c 24 78	 mov	 rcx, QWORD PTR pDTE$[rsp]
  0028c	88 41 01	 mov	 BYTE PTR [rcx+1], al

; 78   : 			pDTE->bBracketEnclosed = GetPrivateProfileInt(szSection, _T("IS_BRACKET_ENCLOSED"), 1, pConfig);

  0028f	4c 8b 8c 24 d8
	00 00 00	 mov	 r9, QWORD PTR pConfig$[rsp]
  00297	41 b8 01 00 00
	00		 mov	 r8d, 1
  0029d	48 8d 15 00 00
	00 00		 lea	 rdx, OFFSET FLAT:$SG86391
  002a4	48 8d 4c 24 30	 lea	 rcx, QWORD PTR szSection$[rsp]
  002a9	ff 15 00 00 00
	00		 call	 QWORD PTR __imp_GetPrivateProfileIntA
  002af	48 8b 4c 24 78	 mov	 rcx, QWORD PTR pDTE$[rsp]
  002b4	88 01		 mov	 BYTE PTR [rcx], al

; 79   : 			pDTE->nLastType = (DT_TYPE)GetPrivateProfileInt(szSection, _T("LAST_TYPE"), DT_MILLISEC, pConfig);

  002b6	4c 8b 8c 24 d8
	00 00 00	 mov	 r9, QWORD PTR pConfig$[rsp]
  002be	41 b8 02 00 00
	00		 mov	 r8d, 2
  002c4	48 8d 15 00 00
	00 00		 lea	 rdx, OFFSET FLAT:$SG86392
  002cb	48 8d 4c 24 30	 lea	 rcx, QWORD PTR szSection$[rsp]
  002d0	ff 15 00 00 00
	00		 call	 QWORD PTR __imp_GetPrivateProfileIntA
  002d6	48 8b 4c 24 78	 mov	 rcx, QWORD PTR pDTE$[rsp]
  002db	89 41 04	 mov	 DWORD PTR [rcx+4], eax

; 80   : 			pDTE->nYearLen = GetPrivateProfileInt(szSection, _T("YEAR_LEN"), 4, pConfig);

  002de	4c 8b 8c 24 d8
	00 00 00	 mov	 r9, QWORD PTR pConfig$[rsp]
  002e6	41 b8 04 00 00
	00		 mov	 r8d, 4
  002ec	48 8d 15 00 00
	00 00		 lea	 rdx, OFFSET FLAT:$SG86393
  002f3	48 8d 4c 24 30	 lea	 rcx, QWORD PTR szSection$[rsp]
  002f8	ff 15 00 00 00
	00		 call	 QWORD PTR __imp_GetPrivateProfileIntA
  002fe	48 8b 4c 24 78	 mov	 rcx, QWORD PTR pDTE$[rsp]
  00303	88 41 03	 mov	 BYTE PTR [rcx+3], al

; 81   : 			pDTE->nTZType = (TZ_TYPE)GetPrivateProfileInt(szSection, _T("TZ_TYPE"), TZ_NONE, pConfig);

  00306	4c 8b 8c 24 d8
	00 00 00	 mov	 r9, QWORD PTR pConfig$[rsp]
  0030e	45 33 c0	 xor	 r8d, r8d
  00311	48 8d 15 00 00
	00 00		 lea	 rdx, OFFSET FLAT:$SG86394
  00318	48 8d 4c 24 30	 lea	 rcx, QWORD PTR szSection$[rsp]
  0031d	ff 15 00 00 00
	00		 call	 QWORD PTR __imp_GetPrivateProfileIntA
  00323	48 8b 4c 24 78	 mov	 rcx, QWORD PTR pDTE$[rsp]
  00328	89 41 08	 mov	 DWORD PTR [rcx+8], eax

; 82   : 			m_pTimeExpList->push_back(pDTE);

  0032b	45 33 c0	 xor	 r8d, r8d
  0032e	48 8b 54 24 78	 mov	 rdx, QWORD PTR pDTE$[rsp]
  00333	48 8b 84 24 d0
	00 00 00	 mov	 rax, QWORD PTR this$[rsp]
  0033b	48 8b 08	 mov	 rcx, QWORD PTR [rax]
  0033e	e8 00 00 00 00	 call	 ?push_back@CSList@@QEAA_NPEAXPEAH@Z ; CSList::push_back

; 83   : 		}

  00343	e9 a7 fe ff ff	 jmp	 $LN2@initConfig
$LN8@initConfig:

; 84   : 	}
; 85   : 	return true;

  00348	b0 01		 mov	 al, 1
$LN1@initConfig:

; 86   : }

  0034a	48 8b f8	 mov	 rdi, rax
  0034d	48 8b cc	 mov	 rcx, rsp
  00350	48 8d 15 00 00
	00 00		 lea	 rdx, OFFSET FLAT:?initConfig@CTimeExpManager@@QEAA_NPEAD@Z$rtcFrameData
  00357	e8 00 00 00 00	 call	 _RTC_CheckStackVars
  0035c	48 8b c7	 mov	 rax, rdi
  0035f	48 8b 8c 24 b8
	00 00 00	 mov	 rcx, QWORD PTR __$ArrayPad$[rsp]
  00367	48 33 cc	 xor	 rcx, rsp
  0036a	e8 00 00 00 00	 call	 __security_check_cookie
  0036f	48 81 c4 c0 00
	00 00		 add	 rsp, 192		; 000000c0H
  00376	5f		 pop	 rdi
  00377	c3		 ret	 0
?initConfig@CTimeExpManager@@QEAA_NPEAD@Z ENDP		; CTimeExpManager::initConfig
_TEXT	ENDS
text$x	SEGMENT
szSection$ = 48
pDTE$ = 120
nDTESize$ = 128
nCount$ = 136
i$ = 140
$T4 = 152
$T5 = 160
$T6 = 168
tv83 = 176
__$ArrayPad$ = 184
this$ = 208
pConfig$ = 216
?dtor$0@?0??initConfig@CTimeExpManager@@QEAA_NPEAD@Z@4HA PROC ; `CTimeExpManager::initConfig'::`1'::dtor$0
  00000	48 89 4c 24 08	 mov	 QWORD PTR [rsp+8], rcx
  00005	48 89 54 24 10	 mov	 QWORD PTR [rsp+16], rdx
  0000a	55		 push	 rbp
  0000b	57		 push	 rdi
  0000c	48 83 ec 28	 sub	 rsp, 40			; 00000028H
  00010	48 8b ea	 mov	 rbp, rdx
  00013	ba 20 00 00 00	 mov	 edx, 32			; 00000020H
  00018	48 8b 8d a0 00
	00 00		 mov	 rcx, QWORD PTR $T5[rbp]
  0001f	e8 00 00 00 00	 call	 ??3@YAXPEAX_K@Z		; operator delete
  00024	48 83 c4 28	 add	 rsp, 40			; 00000028H
  00028	5f		 pop	 rdi
  00029	5d		 pop	 rbp
  0002a	c3		 ret	 0
?dtor$0@?0??initConfig@CTimeExpManager@@QEAA_NPEAD@Z@4HA ENDP ; `CTimeExpManager::initConfig'::`1'::dtor$0
text$x	ENDS
; Function compile flags: /Odtp /RTCsu
text$x	SEGMENT
szSection$ = 48
pDTE$ = 120
nDTESize$ = 128
nCount$ = 136
i$ = 140
$T4 = 152
$T5 = 160
$T6 = 168
tv83 = 176
__$ArrayPad$ = 184
this$ = 208
pConfig$ = 216
?dtor$0@?0??initConfig@CTimeExpManager@@QEAA_NPEAD@Z@4HA PROC ; `CTimeExpManager::initConfig'::`1'::dtor$0
  00000	48 89 4c 24 08	 mov	 QWORD PTR [rsp+8], rcx
  00005	48 89 54 24 10	 mov	 QWORD PTR [rsp+16], rdx
  0000a	55		 push	 rbp
  0000b	57		 push	 rdi
  0000c	48 83 ec 28	 sub	 rsp, 40			; 00000028H
  00010	48 8b ea	 mov	 rbp, rdx
  00013	ba 20 00 00 00	 mov	 edx, 32			; 00000020H
  00018	48 8b 8d a0 00
	00 00		 mov	 rcx, QWORD PTR $T5[rbp]
  0001f	e8 00 00 00 00	 call	 ??3@YAXPEAX_K@Z		; operator delete
  00024	48 83 c4 28	 add	 rsp, 40			; 00000028H
  00028	5f		 pop	 rdi
  00029	5d		 pop	 rbp
  0002a	c3		 ret	 0
?dtor$0@?0??initConfig@CTimeExpManager@@QEAA_NPEAD@Z@4HA ENDP ; `CTimeExpManager::initConfig'::`1'::dtor$0
text$x	ENDS
; Function compile flags: /Odtp /RTCsu
; File e:\infinia-library-3.0\com\src\comlogger.cpp
_TEXT	SEGMENT
$T1 = 32
$T2 = 40
tv71 = 48
this$ = 80
??1CTimeExpManager@@QEAA@XZ PROC			; CTimeExpManager::~CTimeExpManager

; 34   : {

$LN6:
  00000	48 89 4c 24 08	 mov	 QWORD PTR [rsp+8], rcx
  00005	57		 push	 rdi
  00006	48 83 ec 40	 sub	 rsp, 64			; 00000040H
  0000a	48 8b fc	 mov	 rdi, rsp
  0000d	b9 10 00 00 00	 mov	 ecx, 16
  00012	b8 cc cc cc cc	 mov	 eax, -858993460		; ccccccccH
  00017	f3 ab		 rep stosd
  00019	48 8b 4c 24 50	 mov	 rcx, QWORD PTR [rsp+80]

; 35   : 	if (m_pTimeExpList) delete m_pTimeExpList; //  malloc   destroy

  0001e	48 8b 44 24 50	 mov	 rax, QWORD PTR this$[rsp]
  00023	48 83 38 00	 cmp	 QWORD PTR [rax], 0
  00027	74 3e		 je	 SHORT $LN2@CTimeExpMa
  00029	48 8b 44 24 50	 mov	 rax, QWORD PTR this$[rsp]
  0002e	48 8b 00	 mov	 rax, QWORD PTR [rax]
  00031	48 89 44 24 28	 mov	 QWORD PTR $T2[rsp], rax
  00036	48 8b 44 24 28	 mov	 rax, QWORD PTR $T2[rsp]
  0003b	48 89 44 24 20	 mov	 QWORD PTR $T1[rsp], rax
  00040	48 83 7c 24 20
	00		 cmp	 QWORD PTR $T1[rsp], 0
  00046	74 16		 je	 SHORT $LN4@CTimeExpMa
  00048	ba 01 00 00 00	 mov	 edx, 1
  0004d	48 8b 4c 24 20	 mov	 rcx, QWORD PTR $T1[rsp]
  00052	e8 00 00 00 00	 call	 ??_GCSList@@QEAAPEAXI@Z
  00057	48 89 44 24 30	 mov	 QWORD PTR tv71[rsp], rax
  0005c	eb 09		 jmp	 SHORT $LN2@CTimeExpMa
$LN4@CTimeExpMa:
  0005e	48 c7 44 24 30
	00 00 00 00	 mov	 QWORD PTR tv71[rsp], 0
$LN2@CTimeExpMa:

; 36   : }

  00067	48 83 c4 40	 add	 rsp, 64			; 00000040H
  0006b	5f		 pop	 rdi
  0006c	c3		 ret	 0
??1CTimeExpManager@@QEAA@XZ ENDP			; CTimeExpManager::~CTimeExpManager
_TEXT	ENDS
; Function compile flags: /Odtp /RTCsu
; File e:\infinia-library-3.0\com\src\comlogger.cpp
_TEXT	SEGMENT
this$ = 16
??0CTimeExpManager@@QEAA@XZ PROC			; CTimeExpManager::CTimeExpManager

; 30   : {

$LN3:
  00000	48 89 4c 24 08	 mov	 QWORD PTR [rsp+8], rcx
  00005	57		 push	 rdi

; 31   : 	m_pTimeExpList = NULL;

  00006	48 8b 44 24 10	 mov	 rax, QWORD PTR this$[rsp]
  0000b	48 c7 00 00 00
	00 00		 mov	 QWORD PTR [rax], 0

; 32   : }

  00012	48 8b 44 24 10	 mov	 rax, QWORD PTR this$[rsp]
  00017	5f		 pop	 rdi
  00018	c3		 ret	 0
??0CTimeExpManager@@QEAA@XZ ENDP			; CTimeExpManager::CTimeExpManager
_TEXT	ENDS
; Function compile flags: /Odtp /RTCsu
;	COMDAT ??_GCSList@@QEAAPEAXI@Z
_TEXT	SEGMENT
this$ = 48
__flags$ = 56
??_GCSList@@QEAAPEAXI@Z PROC				; CSList::`scalar deleting destructor', COMDAT
$LN4:
  00000	89 54 24 10	 mov	 DWORD PTR [rsp+16], edx
  00004	48 89 4c 24 08	 mov	 QWORD PTR [rsp+8], rcx
  00009	57		 push	 rdi
  0000a	48 83 ec 20	 sub	 rsp, 32			; 00000020H
  0000e	48 8b fc	 mov	 rdi, rsp
  00011	b9 08 00 00 00	 mov	 ecx, 8
  00016	b8 cc cc cc cc	 mov	 eax, -858993460		; ccccccccH
  0001b	f3 ab		 rep stosd
  0001d	48 8b 4c 24 30	 mov	 rcx, QWORD PTR [rsp+48]
  00022	48 8b 4c 24 30	 mov	 rcx, QWORD PTR this$[rsp]
  00027	e8 00 00 00 00	 call	 ??1CSList@@QEAA@XZ	; CSList::~CSList
  0002c	8b 44 24 38	 mov	 eax, DWORD PTR __flags$[rsp]
  00030	83 e0 01	 and	 eax, 1
  00033	85 c0		 test	 eax, eax
  00035	74 0f		 je	 SHORT $LN2@scalar
  00037	ba 20 00 00 00	 mov	 edx, 32			; 00000020H
  0003c	48 8b 4c 24 30	 mov	 rcx, QWORD PTR this$[rsp]
  00041	e8 00 00 00 00	 call	 ??3@YAXPEAX_K@Z		; operator delete
$LN2@scalar:
  00046	48 8b 44 24 30	 mov	 rax, QWORD PTR this$[rsp]
  0004b	48 83 c4 20	 add	 rsp, 32			; 00000020H
  0004f	5f		 pop	 rdi
  00050	c3		 ret	 0
??_GCSList@@QEAAPEAXI@Z ENDP				; CSList::`scalar deleting destructor'
_TEXT	ENDS
; Function compile flags: /Odtp /RTCsu
;	COMDAT ?__autoclassinit2@CSList@@QEAAX_K@Z
_TEXT	SEGMENT
this$ = 16
classSize$ = 24
?__autoclassinit2@CSList@@QEAAX_K@Z PROC		; CSList::__autoclassinit2, COMDAT
$LN3:
  00000	48 89 54 24 10	 mov	 QWORD PTR [rsp+16], rdx
  00005	48 89 4c 24 08	 mov	 QWORD PTR [rsp+8], rcx
  0000a	57		 push	 rdi
  0000b	48 8b 7c 24 10	 mov	 rdi, QWORD PTR this$[rsp]
  00010	33 c0		 xor	 eax, eax
  00012	48 8b 4c 24 18	 mov	 rcx, QWORD PTR classSize$[rsp]
  00017	f3 aa		 rep stosb
  00019	5f		 pop	 rdi
  0001a	c3		 ret	 0
?__autoclassinit2@CSList@@QEAAX_K@Z ENDP		; CSList::__autoclassinit2
_TEXT	ENDS
; Function compile flags: /Odtp /RTCsu
; File e:\infinia-library-3.0\com\include\comlist.h
;	COMDAT ?getObj@CSList@@QEAAPEAXH@Z
_TEXT	SEGMENT
this$ = 48
i$ = 56
?getObj@CSList@@QEAAPEAXH@Z PROC			; CSList::getObj, COMDAT

; 33   : 	inline void* getObj(int i) { if (ISINCLUDE(i, m_nMax)) return m_pArray[i]; return NULL; }

$LN4:
  00000	89 54 24 10	 mov	 DWORD PTR [rsp+16], edx
  00004	48 89 4c 24 08	 mov	 QWORD PTR [rsp+8], rcx
  00009	57		 push	 rdi
  0000a	48 83 ec 20	 sub	 rsp, 32			; 00000020H
  0000e	48 8b fc	 mov	 rdi, rsp
  00011	b9 08 00 00 00	 mov	 ecx, 8
  00016	b8 cc cc cc cc	 mov	 eax, -858993460		; ccccccccH
  0001b	f3 ab		 rep stosd
  0001d	48 8b 4c 24 30	 mov	 rcx, QWORD PTR [rsp+48]
  00022	48 8b 44 24 30	 mov	 rax, QWORD PTR this$[rsp]
  00027	8b 50 14	 mov	 edx, DWORD PTR [rax+20]
  0002a	8b 4c 24 38	 mov	 ecx, DWORD PTR i$[rsp]
  0002e	e8 00 00 00 00	 call	 ?ISINCLUDE@@YA_NHH@Z	; ISINCLUDE
  00033	0f b6 c0	 movzx	 eax, al
  00036	85 c0		 test	 eax, eax
  00038	74 13		 je	 SHORT $LN2@getObj
  0003a	48 63 44 24 38	 movsxd	 rax, DWORD PTR i$[rsp]
  0003f	48 8b 4c 24 30	 mov	 rcx, QWORD PTR this$[rsp]
  00044	48 8b 09	 mov	 rcx, QWORD PTR [rcx]
  00047	48 8b 04 c1	 mov	 rax, QWORD PTR [rcx+rax*8]
  0004b	eb 02		 jmp	 SHORT $LN1@getObj
$LN2@getObj:
  0004d	33 c0		 xor	 eax, eax
$LN1@getObj:
  0004f	48 83 c4 20	 add	 rsp, 32			; 00000020H
  00053	5f		 pop	 rdi
  00054	c3		 ret	 0
?getObj@CSList@@QEAAPEAXH@Z ENDP			; CSList::getObj
_TEXT	ENDS
; Function compile flags: /Odtp /RTCsu
; File e:\infinia-library-3.0\com\include\comlist.h
;	COMDAT ?alloc@CSList@@QEAAHHW4E_ALLOC_TYPE@@@Z
_TEXT	SEGMENT
this$ = 48
nMaxCount$ = 56
type$ = 64
?alloc@CSList@@QEAAHHW4E_ALLOC_TYPE@@@Z PROC		; CSList::alloc, COMDAT

; 27   : 	inline int alloc(int nMaxCount, E_ALLOC_TYPE type = eAlloc_Type_new) { m_nObjAllocType = type;  m_nMax = __alloc(nMaxCount); return m_nMax; }

$LN3:
  00000	44 89 44 24 18	 mov	 DWORD PTR [rsp+24], r8d
  00005	89 54 24 10	 mov	 DWORD PTR [rsp+16], edx
  00009	48 89 4c 24 08	 mov	 QWORD PTR [rsp+8], rcx
  0000e	57		 push	 rdi
  0000f	48 83 ec 20	 sub	 rsp, 32			; 00000020H
  00013	48 8b fc	 mov	 rdi, rsp
  00016	b9 08 00 00 00	 mov	 ecx, 8
  0001b	b8 cc cc cc cc	 mov	 eax, -858993460		; ccccccccH
  00020	f3 ab		 rep stosd
  00022	48 8b 4c 24 30	 mov	 rcx, QWORD PTR [rsp+48]
  00027	48 8b 44 24 30	 mov	 rax, QWORD PTR this$[rsp]
  0002c	8b 4c 24 40	 mov	 ecx, DWORD PTR type$[rsp]
  00030	89 48 18	 mov	 DWORD PTR [rax+24], ecx
  00033	8b 54 24 38	 mov	 edx, DWORD PTR nMaxCount$[rsp]
  00037	48 8b 4c 24 30	 mov	 rcx, QWORD PTR this$[rsp]
  0003c	e8 00 00 00 00	 call	 ?__alloc@CSList@@AEAAHH@Z ; CSList::__alloc
  00041	48 8b 4c 24 30	 mov	 rcx, QWORD PTR this$[rsp]
  00046	89 41 14	 mov	 DWORD PTR [rcx+20], eax
  00049	48 8b 44 24 30	 mov	 rax, QWORD PTR this$[rsp]
  0004e	8b 40 14	 mov	 eax, DWORD PTR [rax+20]
  00051	48 83 c4 20	 add	 rsp, 32			; 00000020H
  00055	5f		 pop	 rdi
  00056	c3		 ret	 0
?alloc@CSList@@QEAAHHW4E_ALLOC_TYPE@@@Z ENDP		; CSList::alloc
_TEXT	ENDS
; Function compile flags: /Odtp /RTCsu
; File e:\infinia-library-3.0\com\include\commemmanager.h
;	COMDAT ?newBuf@CMemManager@@QEAAPEADH@Z
_TEXT	SEGMENT
nIdx$ = 32
this$ = 64
nSize$ = 72
?newBuf@CMemManager@@QEAAPEADH@Z PROC			; CMemManager::newBuf, COMDAT

; 34   : 	inline char *newBuf(int nSize) { int nIdx = getIndex(nSize);  return __newBuf(nIdx, nSize); }

$LN3:
  00000	89 54 24 10	 mov	 DWORD PTR [rsp+16], edx
  00004	48 89 4c 24 08	 mov	 QWORD PTR [rsp+8], rcx
  00009	57		 push	 rdi
  0000a	48 83 ec 30	 sub	 rsp, 48			; 00000030H
  0000e	48 8b fc	 mov	 rdi, rsp
  00011	b9 0c 00 00 00	 mov	 ecx, 12
  00016	b8 cc cc cc cc	 mov	 eax, -858993460		; ccccccccH
  0001b	f3 ab		 rep stosd
  0001d	48 8b 4c 24 40	 mov	 rcx, QWORD PTR [rsp+64]
  00022	8b 4c 24 48	 mov	 ecx, DWORD PTR nSize$[rsp]
  00026	e8 00 00 00 00	 call	 ?getIndex@@YAHH@Z	; getIndex
  0002b	89 44 24 20	 mov	 DWORD PTR nIdx$[rsp], eax
  0002f	48 63 44 24 48	 movsxd	 rax, DWORD PTR nSize$[rsp]
  00034	4c 8b c0	 mov	 r8, rax
  00037	8b 54 24 20	 mov	 edx, DWORD PTR nIdx$[rsp]
  0003b	48 8b 4c 24 40	 mov	 rcx, QWORD PTR this$[rsp]
  00040	e8 00 00 00 00	 call	 ?__newBuf@CMemManager@@AEAAPEADH_K@Z ; CMemManager::__newBuf
  00045	48 83 c4 30	 add	 rsp, 48			; 00000030H
  00049	5f		 pop	 rdi
  0004a	c3		 ret	 0
?newBuf@CMemManager@@QEAAPEADH@Z ENDP			; CMemManager::newBuf
_TEXT	ENDS
; Function compile flags: /Odtp /RTCsu
; File e:\infinia-library-3.0\com\include\combufpool.h
;	COMDAT ?getIndex@@YAHH@Z
_TEXT	SEGMENT
m$ = 32
$S1$ = 56
tv80 = 68
tv73 = 72
s$ = 96
?getIndex@@YAHH@Z PROC					; getIndex, COMDAT

; 51   : inline int getIndex(int s) { int m; union { double x; int b[2]; }; x = s; m = (b[1] >> 20) - 1023; return m + ((s&(s - (1 << m))) ? 1 : 0); }

$LN5:
  00000	89 4c 24 08	 mov	 DWORD PTR [rsp+8], ecx
  00004	57		 push	 rdi
  00005	48 83 ec 50	 sub	 rsp, 80			; 00000050H
  00009	48 8b fc	 mov	 rdi, rsp
  0000c	b9 14 00 00 00	 mov	 ecx, 20
  00011	b8 cc cc cc cc	 mov	 eax, -858993460		; ccccccccH
  00016	f3 ab		 rep stosd
  00018	8b 4c 24 60	 mov	 ecx, DWORD PTR [rsp+96]
  0001c	f2 0f 2a 44 24
	60		 cvtsi2sd xmm0, DWORD PTR s$[rsp]
  00022	f2 0f 11 44 24
	38		 movsd	 QWORD PTR $S1$[rsp], xmm0
  00028	b8 04 00 00 00	 mov	 eax, 4
  0002d	48 6b c0 01	 imul	 rax, rax, 1
  00031	8b 44 04 38	 mov	 eax, DWORD PTR $S1$[rsp+rax]
  00035	c1 f8 14	 sar	 eax, 20
  00038	2d ff 03 00 00	 sub	 eax, 1023		; 000003ffH
  0003d	89 44 24 20	 mov	 DWORD PTR m$[rsp], eax
  00041	8b 44 24 20	 mov	 eax, DWORD PTR m$[rsp]
  00045	b9 01 00 00 00	 mov	 ecx, 1
  0004a	89 4c 24 44	 mov	 DWORD PTR tv80[rsp], ecx
  0004e	0f b6 c8	 movzx	 ecx, al
  00051	8b 44 24 44	 mov	 eax, DWORD PTR tv80[rsp]
  00055	d3 e0		 shl	 eax, cl
  00057	8b 4c 24 60	 mov	 ecx, DWORD PTR s$[rsp]
  0005b	2b c8		 sub	 ecx, eax
  0005d	8b c1		 mov	 eax, ecx
  0005f	8b 4c 24 60	 mov	 ecx, DWORD PTR s$[rsp]
  00063	23 c8		 and	 ecx, eax
  00065	8b c1		 mov	 eax, ecx
  00067	85 c0		 test	 eax, eax
  00069	74 0a		 je	 SHORT $LN3@getIndex
  0006b	c7 44 24 48 01
	00 00 00	 mov	 DWORD PTR tv73[rsp], 1
  00073	eb 08		 jmp	 SHORT $LN4@getIndex
$LN3@getIndex:
  00075	c7 44 24 48 00
	00 00 00	 mov	 DWORD PTR tv73[rsp], 0
$LN4@getIndex:
  0007d	8b 44 24 48	 mov	 eax, DWORD PTR tv73[rsp]
  00081	8b 4c 24 20	 mov	 ecx, DWORD PTR m$[rsp]
  00085	03 c8		 add	 ecx, eax
  00087	8b c1		 mov	 eax, ecx
  00089	8b f8		 mov	 edi, eax
  0008b	48 8b cc	 mov	 rcx, rsp
  0008e	48 8d 15 00 00
	00 00		 lea	 rdx, OFFSET FLAT:?getIndex@@YAHH@Z$rtcFrameData
  00095	e8 00 00 00 00	 call	 _RTC_CheckStackVars
  0009a	8b c7		 mov	 eax, edi
  0009c	48 83 c4 50	 add	 rsp, 80			; 00000050H
  000a0	5f		 pop	 rdi
  000a1	c3		 ret	 0
?getIndex@@YAHH@Z ENDP					; getIndex
_TEXT	ENDS
; Function compile flags: /Odtp /RTCsu
; File e:\infinia-library-3.0\com\include\comdatetime.h
;	COMDAT ?TimezoneString@CDateTime@@QEAAPEBDXZ
_TEXT	SEGMENT
this$ = 16
?TimezoneString@CDateTime@@QEAAPEBDXZ PROC		; CDateTime::TimezoneString, COMDAT

; 224  : 	inline const TCHAR *TimezoneString() { return m_szTimezone; }

$LN3:
  00000	48 89 4c 24 08	 mov	 QWORD PTR [rsp+8], rcx
  00005	57		 push	 rdi
  00006	48 8b 44 24 10	 mov	 rax, QWORD PTR this$[rsp]
  0000b	48 83 c0 5c	 add	 rax, 92			; 0000005cH
  0000f	5f		 pop	 rdi
  00010	c3		 ret	 0
?TimezoneString@CDateTime@@QEAAPEBDXZ ENDP		; CDateTime::TimezoneString
_TEXT	ENDS
; Function compile flags: /Odtp /RTCsu
; File e:\infinia-library-3.0\com\include\comqueue.h
;	COMDAT ?capacity@CQueueS@@QEAAHXZ
_TEXT	SEGMENT
this$ = 16
?capacity@CQueueS@@QEAAHXZ PROC				; CQueueS::capacity, COMDAT

; 43   :     inline int  capacity()   { return m_nMax; }

$LN3:
  00000	48 89 4c 24 08	 mov	 QWORD PTR [rsp+8], rcx
  00005	57		 push	 rdi
  00006	48 8b 44 24 10	 mov	 rax, QWORD PTR this$[rsp]
  0000b	8b 40 10	 mov	 eax, DWORD PTR [rax+16]
  0000e	5f		 pop	 rdi
  0000f	c3		 ret	 0
?capacity@CQueueS@@QEAAHXZ ENDP				; CQueueS::capacity
_TEXT	ENDS
; Function compile flags: /Odtp /RTCsu
; File e:\infinia-library-3.0\com\include\comtypes.h
;	COMDAT ?comGlobalErrorProc@@YAXPEADPEBDH@Z
_TEXT	SEGMENT
pMsg$ = 64
_szFunc$ = 72
_nLine$ = 80
?comGlobalErrorProc@@YAXPEADPEBDH@Z PROC		; comGlobalErrorProc, COMDAT

; 324  : inline void comGlobalErrorProc(char *pMsg, const char *_szFunc, const int _nLine) {

$LN3:
  00000	44 89 44 24 18	 mov	 DWORD PTR [rsp+24], r8d
  00005	48 89 54 24 10	 mov	 QWORD PTR [rsp+16], rdx
  0000a	48 89 4c 24 08	 mov	 QWORD PTR [rsp+8], rcx
  0000f	57		 push	 rdi
  00010	48 83 ec 30	 sub	 rsp, 48			; 00000030H
  00014	48 8b fc	 mov	 rdi, rsp
  00017	b9 0c 00 00 00	 mov	 ecx, 12
  0001c	b8 cc cc cc cc	 mov	 eax, -858993460		; ccccccccH
  00021	f3 ab		 rep stosd
  00023	48 8b 4c 24 40	 mov	 rcx, QWORD PTR [rsp+64]

; 325  : 	sprintf(g_szSystemError, "ERROR! [%s:%d] %s\n", _szFunc, _nLine, pMsg);

  00028	48 8b 44 24 40	 mov	 rax, QWORD PTR pMsg$[rsp]
  0002d	48 89 44 24 20	 mov	 QWORD PTR [rsp+32], rax
  00032	44 8b 4c 24 50	 mov	 r9d, DWORD PTR _nLine$[rsp]
  00037	4c 8b 44 24 48	 mov	 r8, QWORD PTR _szFunc$[rsp]
  0003c	48 8d 15 00 00
	00 00		 lea	 rdx, OFFSET FLAT:??_C@_0BD@KEHDJCKJ@ERROR?$CB?5?$FL?$CFs?3?$CFd?$FN?5?$CFs?6?$AA@
  00043	48 8d 0d 00 00
	00 00		 lea	 rcx, OFFSET FLAT:?g_szSystemError@@3PADA ; g_szSystemError
  0004a	e8 00 00 00 00	 call	 sprintf

; 326  : 	printf(g_szSystemError);

  0004f	48 8d 0d 00 00
	00 00		 lea	 rcx, OFFSET FLAT:?g_szSystemError@@3PADA ; g_szSystemError
  00056	e8 00 00 00 00	 call	 printf

; 327  : }

  0005b	48 83 c4 30	 add	 rsp, 48			; 00000030H
  0005f	5f		 pop	 rdi
  00060	c3		 ret	 0
?comGlobalErrorProc@@YAXPEADPEBDH@Z ENDP		; comGlobalErrorProc
_TEXT	ENDS
; Function compile flags: /Odtp /RTCsu
; File e:\infinia-library-3.0\com\include\comtypes.h
;	COMDAT ?ISINCLUDE@@YA_NHH@Z
_TEXT	SEGMENT
i$ = 16
max$ = 24
?ISINCLUDE@@YA_NHH@Z PROC				; ISINCLUDE, COMDAT

; 322  : inline bool ISINCLUDE(int i, int max) { if (0 <= i && i < max) return true; return false; }

$LN4:
  00000	89 54 24 10	 mov	 DWORD PTR [rsp+16], edx
  00004	89 4c 24 08	 mov	 DWORD PTR [rsp+8], ecx
  00008	57		 push	 rdi
  00009	83 7c 24 10 00	 cmp	 DWORD PTR i$[rsp], 0
  0000e	7c 0e		 jl	 SHORT $LN2@ISINCLUDE
  00010	8b 44 24 18	 mov	 eax, DWORD PTR max$[rsp]
  00014	39 44 24 10	 cmp	 DWORD PTR i$[rsp], eax
  00018	7d 04		 jge	 SHORT $LN2@ISINCLUDE
  0001a	b0 01		 mov	 al, 1
  0001c	eb 02		 jmp	 SHORT $LN1@ISINCLUDE
$LN2@ISINCLUDE:
  0001e	32 c0		 xor	 al, al
$LN1@ISINCLUDE:
  00020	5f		 pop	 rdi
  00021	c3		 ret	 0
?ISINCLUDE@@YA_NHH@Z ENDP				; ISINCLUDE
_TEXT	ENDS
; Function compile flags: /Odtp /RTCsu
; File c:\program files (x86)\windows kits\10\include\10.0.10240.0\ucrt\time.h
_TEXT	SEGMENT
_Time$ = 48
time	PROC

; 534  :         {

  00000	48 89 4c 24 08	 mov	 QWORD PTR [rsp+8], rcx
  00005	57		 push	 rdi
  00006	48 83 ec 20	 sub	 rsp, 32			; 00000020H
  0000a	48 8b fc	 mov	 rdi, rsp
  0000d	b9 08 00 00 00	 mov	 ecx, 8
  00012	b8 cc cc cc cc	 mov	 eax, -858993460		; ccccccccH
  00017	f3 ab		 rep stosd
  00019	48 8b 4c 24 30	 mov	 rcx, QWORD PTR [rsp+48]

; 535  :             return _time64(_Time);

  0001e	48 8b 4c 24 30	 mov	 rcx, QWORD PTR _Time$[rsp]
  00023	ff 15 00 00 00
	00		 call	 QWORD PTR __imp__time64

; 536  :         }

  00029	48 83 c4 20	 add	 rsp, 32			; 00000020H
  0002d	5f		 pop	 rdi
  0002e	c3		 ret	 0
time	ENDP
_TEXT	ENDS
; Function compile flags: /Odtp /RTCsu
; File c:\program files (x86)\windows kits\10\include\10.0.10240.0\ucrt\stdio.h
;	COMDAT sprintf
_TEXT	SEGMENT
_Result$ = 32
_ArgList$ = 56
__$ArrayPad$ = 80
_Buffer$ = 112
_Format$ = 120
sprintf	PROC						; COMDAT

; 1776 : {

$LN3:
  00000	48 89 54 24 10	 mov	 QWORD PTR [rsp+16], rdx
  00005	48 89 4c 24 08	 mov	 QWORD PTR [rsp+8], rcx
  0000a	4c 89 44 24 18	 mov	 QWORD PTR [rsp+24], r8
  0000f	4c 89 4c 24 20	 mov	 QWORD PTR [rsp+32], r9
  00014	57		 push	 rdi
  00015	48 83 ec 60	 sub	 rsp, 96			; 00000060H
  00019	48 8b fc	 mov	 rdi, rsp
  0001c	b9 18 00 00 00	 mov	 ecx, 24
  00021	b8 cc cc cc cc	 mov	 eax, -858993460		; ccccccccH
  00026	f3 ab		 rep stosd
  00028	48 8b 4c 24 70	 mov	 rcx, QWORD PTR [rsp+112]
  0002d	48 8b 05 00 00
	00 00		 mov	 rax, QWORD PTR __security_cookie
  00034	48 33 c4	 xor	 rax, rsp
  00037	48 89 44 24 50	 mov	 QWORD PTR __$ArrayPad$[rsp], rax

; 1777 :     int _Result;
; 1778 :     va_list _ArgList;
; 1779 :     __crt_va_start(_ArgList, _Format);

  0003c	e8 00 00 00 00	 call	 ??$__vcrt_va_start_verify_argument_type@QEBD@@YAXXZ ; __vcrt_va_start_verify_argument_type<char const * __ptr64 const>
  00041	48 8d 84 24 80
	00 00 00	 lea	 rax, QWORD PTR _Format$[rsp+8]
  00049	48 89 44 24 38	 mov	 QWORD PTR _ArgList$[rsp], rax

; 1780 : 
; 1781 :     #pragma warning(push)
; 1782 :     #pragma warning(disable: 4996) // Deprecation
; 1783 :     _Result = _vsprintf_l(_Buffer, _Format, NULL, _ArgList);

  0004e	4c 8b 4c 24 38	 mov	 r9, QWORD PTR _ArgList$[rsp]
  00053	45 33 c0	 xor	 r8d, r8d
  00056	48 8b 54 24 78	 mov	 rdx, QWORD PTR _Format$[rsp]
  0005b	48 8b 4c 24 70	 mov	 rcx, QWORD PTR _Buffer$[rsp]
  00060	e8 00 00 00 00	 call	 _vsprintf_l
  00065	89 44 24 20	 mov	 DWORD PTR _Result$[rsp], eax

; 1784 :     #pragma warning(pop)
; 1785 : 
; 1786 :     __crt_va_end(_ArgList);

  00069	48 c7 44 24 38
	00 00 00 00	 mov	 QWORD PTR _ArgList$[rsp], 0

; 1787 :     return _Result;

  00072	8b 44 24 20	 mov	 eax, DWORD PTR _Result$[rsp]

; 1788 : }

  00076	8b f8		 mov	 edi, eax
  00078	48 8b cc	 mov	 rcx, rsp
  0007b	48 8d 15 00 00
	00 00		 lea	 rdx, OFFSET FLAT:sprintf$rtcFrameData
  00082	e8 00 00 00 00	 call	 _RTC_CheckStackVars
  00087	8b c7		 mov	 eax, edi
  00089	48 8b 4c 24 50	 mov	 rcx, QWORD PTR __$ArrayPad$[rsp]
  0008e	48 33 cc	 xor	 rcx, rsp
  00091	e8 00 00 00 00	 call	 __security_check_cookie
  00096	48 83 c4 60	 add	 rsp, 96			; 00000060H
  0009a	5f		 pop	 rdi
  0009b	c3		 ret	 0
sprintf	ENDP
_TEXT	ENDS
; Function compile flags: /Odtp /RTCsu
; File c:\program files (x86)\windows kits\10\include\10.0.10240.0\ucrt\stdio.h
;	COMDAT _vsprintf_l
_TEXT	SEGMENT
_Buffer$ = 64
_Format$ = 72
_Locale$ = 80
_ArgList$ = 88
_vsprintf_l PROC					; COMDAT

; 1455 : {

$LN3:
  00000	4c 89 4c 24 20	 mov	 QWORD PTR [rsp+32], r9
  00005	4c 89 44 24 18	 mov	 QWORD PTR [rsp+24], r8
  0000a	48 89 54 24 10	 mov	 QWORD PTR [rsp+16], rdx
  0000f	48 89 4c 24 08	 mov	 QWORD PTR [rsp+8], rcx
  00014	57		 push	 rdi
  00015	48 83 ec 30	 sub	 rsp, 48			; 00000030H
  00019	48 8b fc	 mov	 rdi, rsp
  0001c	b9 0c 00 00 00	 mov	 ecx, 12
  00021	b8 cc cc cc cc	 mov	 eax, -858993460		; ccccccccH
  00026	f3 ab		 rep stosd
  00028	48 8b 4c 24 40	 mov	 rcx, QWORD PTR [rsp+64]

; 1456 :     #pragma warning(push)
; 1457 :     #pragma warning(disable: 4996) // Deprecation
; 1458 :     return _vsnprintf_l(_Buffer, (size_t)-1, _Format, _Locale, _ArgList);

  0002d	48 8b 44 24 58	 mov	 rax, QWORD PTR _ArgList$[rsp]
  00032	48 89 44 24 20	 mov	 QWORD PTR [rsp+32], rax
  00037	4c 8b 4c 24 50	 mov	 r9, QWORD PTR _Locale$[rsp]
  0003c	4c 8b 44 24 48	 mov	 r8, QWORD PTR _Format$[rsp]
  00041	48 c7 c2 ff ff
	ff ff		 mov	 rdx, -1
  00048	48 8b 4c 24 40	 mov	 rcx, QWORD PTR _Buffer$[rsp]
  0004d	e8 00 00 00 00	 call	 _vsnprintf_l

; 1459 :     #pragma warning(pop)
; 1460 : }

  00052	48 83 c4 30	 add	 rsp, 48			; 00000030H
  00056	5f		 pop	 rdi
  00057	c3		 ret	 0
_vsprintf_l ENDP
_TEXT	ENDS
; Function compile flags: /Odtp /RTCsu
; File c:\program files (x86)\windows kits\10\include\10.0.10240.0\ucrt\stdio.h
;	COMDAT vsnprintf
_TEXT	SEGMENT
_Result$ = 48
tv74 = 52
_Buffer$ = 80
_BufferCount$ = 88
_Format$ = 96
_ArgList$ = 104
vsnprintf PROC						; COMDAT

; 1435 : {

$LN5:
  00000	4c 89 4c 24 20	 mov	 QWORD PTR [rsp+32], r9
  00005	4c 89 44 24 18	 mov	 QWORD PTR [rsp+24], r8
  0000a	48 89 54 24 10	 mov	 QWORD PTR [rsp+16], rdx
  0000f	48 89 4c 24 08	 mov	 QWORD PTR [rsp+8], rcx
  00014	57		 push	 rdi
  00015	48 83 ec 40	 sub	 rsp, 64			; 00000040H
  00019	48 8b fc	 mov	 rdi, rsp
  0001c	b9 10 00 00 00	 mov	 ecx, 16
  00021	b8 cc cc cc cc	 mov	 eax, -858993460		; ccccccccH
  00026	f3 ab		 rep stosd
  00028	48 8b 4c 24 50	 mov	 rcx, QWORD PTR [rsp+80]

; 1436 :     int const _Result = __stdio_common_vsprintf(

  0002d	e8 00 00 00 00	 call	 __local_stdio_printf_options
  00032	48 8b 00	 mov	 rax, QWORD PTR [rax]
  00035	48 83 c8 02	 or	 rax, 2
  00039	48 8b 4c 24 68	 mov	 rcx, QWORD PTR _ArgList$[rsp]
  0003e	48 89 4c 24 28	 mov	 QWORD PTR [rsp+40], rcx
  00043	48 c7 44 24 20
	00 00 00 00	 mov	 QWORD PTR [rsp+32], 0
  0004c	4c 8b 4c 24 60	 mov	 r9, QWORD PTR _Format$[rsp]
  00051	4c 8b 44 24 58	 mov	 r8, QWORD PTR _BufferCount$[rsp]
  00056	48 8b 54 24 50	 mov	 rdx, QWORD PTR _Buffer$[rsp]
  0005b	48 8b c8	 mov	 rcx, rax
  0005e	ff 15 00 00 00
	00		 call	 QWORD PTR __imp___stdio_common_vsprintf
  00064	89 44 24 30	 mov	 DWORD PTR _Result$[rsp], eax

; 1437 :         _CRT_INTERNAL_LOCAL_PRINTF_OPTIONS | _CRT_INTERNAL_PRINTF_STANDARD_SNPRINTF_BEHAVIOR,
; 1438 :         _Buffer, _BufferCount, _Format, NULL, _ArgList);
; 1439 : 
; 1440 :     return _Result < 0 ? -1 : _Result;

  00068	83 7c 24 30 00	 cmp	 DWORD PTR _Result$[rsp], 0
  0006d	7d 0a		 jge	 SHORT $LN3@vsnprintf
  0006f	c7 44 24 34 ff
	ff ff ff	 mov	 DWORD PTR tv74[rsp], -1
  00077	eb 08		 jmp	 SHORT $LN4@vsnprintf
$LN3@vsnprintf:
  00079	8b 44 24 30	 mov	 eax, DWORD PTR _Result$[rsp]
  0007d	89 44 24 34	 mov	 DWORD PTR tv74[rsp], eax
$LN4@vsnprintf:
  00081	8b 44 24 34	 mov	 eax, DWORD PTR tv74[rsp]

; 1441 : }

  00085	48 83 c4 40	 add	 rsp, 64			; 00000040H
  00089	5f		 pop	 rdi
  0008a	c3		 ret	 0
vsnprintf ENDP
_TEXT	ENDS
; Function compile flags: /Odtp /RTCsu
; File c:\program files (x86)\windows kits\10\include\10.0.10240.0\ucrt\stdio.h
;	COMDAT _vsnprintf
_TEXT	SEGMENT
_Buffer$ = 64
_BufferCount$ = 72
_Format$ = 80
_ArgList$ = 88
_vsnprintf PROC						; COMDAT

; 1405 : {

$LN3:
  00000	4c 89 4c 24 20	 mov	 QWORD PTR [rsp+32], r9
  00005	4c 89 44 24 18	 mov	 QWORD PTR [rsp+24], r8
  0000a	48 89 54 24 10	 mov	 QWORD PTR [rsp+16], rdx
  0000f	48 89 4c 24 08	 mov	 QWORD PTR [rsp+8], rcx
  00014	57		 push	 rdi
  00015	48 83 ec 30	 sub	 rsp, 48			; 00000030H
  00019	48 8b fc	 mov	 rdi, rsp
  0001c	b9 0c 00 00 00	 mov	 ecx, 12
  00021	b8 cc cc cc cc	 mov	 eax, -858993460		; ccccccccH
  00026	f3 ab		 rep stosd
  00028	48 8b 4c 24 40	 mov	 rcx, QWORD PTR [rsp+64]

; 1406 :     #pragma warning(push)
; 1407 :     #pragma warning(disable: 4996) // Deprecation
; 1408 :     return _vsnprintf_l(_Buffer, _BufferCount, _Format, NULL, _ArgList);

  0002d	48 8b 44 24 58	 mov	 rax, QWORD PTR _ArgList$[rsp]
  00032	48 89 44 24 20	 mov	 QWORD PTR [rsp+32], rax
  00037	45 33 c9	 xor	 r9d, r9d
  0003a	4c 8b 44 24 50	 mov	 r8, QWORD PTR _Format$[rsp]
  0003f	48 8b 54 24 48	 mov	 rdx, QWORD PTR _BufferCount$[rsp]
  00044	48 8b 4c 24 40	 mov	 rcx, QWORD PTR _Buffer$[rsp]
  00049	e8 00 00 00 00	 call	 _vsnprintf_l

; 1409 :     #pragma warning(pop)
; 1410 : }

  0004e	48 83 c4 30	 add	 rsp, 48			; 00000030H
  00052	5f		 pop	 rdi
  00053	c3		 ret	 0
_vsnprintf ENDP
_TEXT	ENDS
; Function compile flags: /Odtp /RTCsu
; File c:\program files (x86)\windows kits\10\include\10.0.10240.0\ucrt\stdio.h
;	COMDAT _vsnprintf_l
_TEXT	SEGMENT
_Result$ = 48
tv74 = 52
_Buffer$ = 80
_BufferCount$ = 88
_Format$ = 96
_Locale$ = 104
_ArgList$ = 112
_vsnprintf_l PROC					; COMDAT

; 1385 : {

$LN5:
  00000	4c 89 4c 24 20	 mov	 QWORD PTR [rsp+32], r9
  00005	4c 89 44 24 18	 mov	 QWORD PTR [rsp+24], r8
  0000a	48 89 54 24 10	 mov	 QWORD PTR [rsp+16], rdx
  0000f	48 89 4c 24 08	 mov	 QWORD PTR [rsp+8], rcx
  00014	57		 push	 rdi
  00015	48 83 ec 40	 sub	 rsp, 64			; 00000040H
  00019	48 8b fc	 mov	 rdi, rsp
  0001c	b9 10 00 00 00	 mov	 ecx, 16
  00021	b8 cc cc cc cc	 mov	 eax, -858993460		; ccccccccH
  00026	f3 ab		 rep stosd
  00028	48 8b 4c 24 50	 mov	 rcx, QWORD PTR [rsp+80]

; 1386 :     int const _Result = __stdio_common_vsprintf(

  0002d	e8 00 00 00 00	 call	 __local_stdio_printf_options
  00032	48 8b 00	 mov	 rax, QWORD PTR [rax]
  00035	48 83 c8 01	 or	 rax, 1
  00039	48 8b 4c 24 70	 mov	 rcx, QWORD PTR _ArgList$[rsp]
  0003e	48 89 4c 24 28	 mov	 QWORD PTR [rsp+40], rcx
  00043	48 8b 4c 24 68	 mov	 rcx, QWORD PTR _Locale$[rsp]
  00048	48 89 4c 24 20	 mov	 QWORD PTR [rsp+32], rcx
  0004d	4c 8b 4c 24 60	 mov	 r9, QWORD PTR _Format$[rsp]
  00052	4c 8b 44 24 58	 mov	 r8, QWORD PTR _BufferCount$[rsp]
  00057	48 8b 54 24 50	 mov	 rdx, QWORD PTR _Buffer$[rsp]
  0005c	48 8b c8	 mov	 rcx, rax
  0005f	ff 15 00 00 00
	00		 call	 QWORD PTR __imp___stdio_common_vsprintf
  00065	89 44 24 30	 mov	 DWORD PTR _Result$[rsp], eax

; 1387 :         _CRT_INTERNAL_LOCAL_PRINTF_OPTIONS | _CRT_INTERNAL_PRINTF_LEGACY_VSPRINTF_NULL_TERMINATION,
; 1388 :         _Buffer, _BufferCount, _Format, _Locale, _ArgList);
; 1389 : 
; 1390 :     return _Result < 0 ? -1 : _Result;

  00069	83 7c 24 30 00	 cmp	 DWORD PTR _Result$[rsp], 0
  0006e	7d 0a		 jge	 SHORT $LN3@vsnprintf_
  00070	c7 44 24 34 ff
	ff ff ff	 mov	 DWORD PTR tv74[rsp], -1
  00078	eb 08		 jmp	 SHORT $LN4@vsnprintf_
$LN3@vsnprintf_:
  0007a	8b 44 24 30	 mov	 eax, DWORD PTR _Result$[rsp]
  0007e	89 44 24 34	 mov	 DWORD PTR tv74[rsp], eax
$LN4@vsnprintf_:
  00082	8b 44 24 34	 mov	 eax, DWORD PTR tv74[rsp]

; 1391 : }

  00086	48 83 c4 40	 add	 rsp, 64			; 00000040H
  0008a	5f		 pop	 rdi
  0008b	c3		 ret	 0
_vsnprintf_l ENDP
_TEXT	ENDS
; Function compile flags: /Odtp /RTCsu
; File c:\program files (x86)\windows kits\10\include\10.0.10240.0\ucrt\stdio.h
;	COMDAT printf
_TEXT	SEGMENT
_Result$ = 32
_ArgList$ = 56
__$ArrayPad$ = 80
_Format$ = 112
printf	PROC						; COMDAT

; 950  : {

$LN3:
  00000	48 89 4c 24 08	 mov	 QWORD PTR [rsp+8], rcx
  00005	48 89 54 24 10	 mov	 QWORD PTR [rsp+16], rdx
  0000a	4c 89 44 24 18	 mov	 QWORD PTR [rsp+24], r8
  0000f	4c 89 4c 24 20	 mov	 QWORD PTR [rsp+32], r9
  00014	57		 push	 rdi
  00015	48 83 ec 60	 sub	 rsp, 96			; 00000060H
  00019	48 8b fc	 mov	 rdi, rsp
  0001c	b9 18 00 00 00	 mov	 ecx, 24
  00021	b8 cc cc cc cc	 mov	 eax, -858993460		; ccccccccH
  00026	f3 ab		 rep stosd
  00028	48 8b 4c 24 70	 mov	 rcx, QWORD PTR [rsp+112]
  0002d	48 8b 05 00 00
	00 00		 mov	 rax, QWORD PTR __security_cookie
  00034	48 33 c4	 xor	 rax, rsp
  00037	48 89 44 24 50	 mov	 QWORD PTR __$ArrayPad$[rsp], rax

; 951  :     int _Result;
; 952  :     va_list _ArgList;
; 953  :     __crt_va_start(_ArgList, _Format);

  0003c	e8 00 00 00 00	 call	 ??$__vcrt_va_start_verify_argument_type@QEBD@@YAXXZ ; __vcrt_va_start_verify_argument_type<char const * __ptr64 const>
  00041	48 8d 44 24 78	 lea	 rax, QWORD PTR _Format$[rsp+8]
  00046	48 89 44 24 38	 mov	 QWORD PTR _ArgList$[rsp], rax

; 954  :     _Result = _vfprintf_l(stdout, _Format, NULL, _ArgList);

  0004b	b9 01 00 00 00	 mov	 ecx, 1
  00050	ff 15 00 00 00
	00		 call	 QWORD PTR __imp___acrt_iob_func
  00056	4c 8b 4c 24 38	 mov	 r9, QWORD PTR _ArgList$[rsp]
  0005b	45 33 c0	 xor	 r8d, r8d
  0005e	48 8b 54 24 70	 mov	 rdx, QWORD PTR _Format$[rsp]
  00063	48 8b c8	 mov	 rcx, rax
  00066	e8 00 00 00 00	 call	 _vfprintf_l
  0006b	89 44 24 20	 mov	 DWORD PTR _Result$[rsp], eax

; 955  :     __crt_va_end(_ArgList);

  0006f	48 c7 44 24 38
	00 00 00 00	 mov	 QWORD PTR _ArgList$[rsp], 0

; 956  :     return _Result;

  00078	8b 44 24 20	 mov	 eax, DWORD PTR _Result$[rsp]

; 957  : }

  0007c	8b f8		 mov	 edi, eax
  0007e	48 8b cc	 mov	 rcx, rsp
  00081	48 8d 15 00 00
	00 00		 lea	 rdx, OFFSET FLAT:printf$rtcFrameData
  00088	e8 00 00 00 00	 call	 _RTC_CheckStackVars
  0008d	8b c7		 mov	 eax, edi
  0008f	48 8b 4c 24 50	 mov	 rcx, QWORD PTR __$ArrayPad$[rsp]
  00094	48 33 cc	 xor	 rcx, rsp
  00097	e8 00 00 00 00	 call	 __security_check_cookie
  0009c	48 83 c4 60	 add	 rsp, 96			; 00000060H
  000a0	5f		 pop	 rdi
  000a1	c3		 ret	 0
printf	ENDP
_TEXT	ENDS
; Function compile flags: /Odtp /RTCsu
; File c:\program files (x86)\microsoft visual studio 14.0\vc\include\vadefs.h
;	COMDAT ??$__vcrt_va_start_verify_argument_type@QEBD@@YAXXZ
_TEXT	SEGMENT
??$__vcrt_va_start_verify_argument_type@QEBD@@YAXXZ PROC ; __vcrt_va_start_verify_argument_type<char const * __ptr64 const>, COMDAT

; 144  :         {

$LN3:
  00000	40 57		 push	 rdi

; 145  :             static_assert(!__vcrt_va_list_is_reference<_Ty>::__the_value, "va_start argument must not have reference type and must not be parenthesized");
; 146  :         }

  00002	5f		 pop	 rdi
  00003	c3		 ret	 0
??$__vcrt_va_start_verify_argument_type@QEBD@@YAXXZ ENDP ; __vcrt_va_start_verify_argument_type<char const * __ptr64 const>
_TEXT	ENDS
; Function compile flags: /Odtp /RTCsu
; File c:\program files (x86)\windows kits\10\include\10.0.10240.0\ucrt\stdio.h
;	COMDAT fprintf
_TEXT	SEGMENT
_Result$ = 32
_ArgList$ = 56
__$ArrayPad$ = 80
_Stream$ = 112
_Format$ = 120
fprintf	PROC						; COMDAT

; 831  : {

$LN3:
  00000	48 89 54 24 10	 mov	 QWORD PTR [rsp+16], rdx
  00005	48 89 4c 24 08	 mov	 QWORD PTR [rsp+8], rcx
  0000a	4c 89 44 24 18	 mov	 QWORD PTR [rsp+24], r8
  0000f	4c 89 4c 24 20	 mov	 QWORD PTR [rsp+32], r9
  00014	57		 push	 rdi
  00015	48 83 ec 60	 sub	 rsp, 96			; 00000060H
  00019	48 8b fc	 mov	 rdi, rsp
  0001c	b9 18 00 00 00	 mov	 ecx, 24
  00021	b8 cc cc cc cc	 mov	 eax, -858993460		; ccccccccH
  00026	f3 ab		 rep stosd
  00028	48 8b 4c 24 70	 mov	 rcx, QWORD PTR [rsp+112]
  0002d	48 8b 05 00 00
	00 00		 mov	 rax, QWORD PTR __security_cookie
  00034	48 33 c4	 xor	 rax, rsp
  00037	48 89 44 24 50	 mov	 QWORD PTR __$ArrayPad$[rsp], rax

; 832  :     int _Result;
; 833  :     va_list _ArgList;
; 834  :     __crt_va_start(_ArgList, _Format);

  0003c	e8 00 00 00 00	 call	 ??$__vcrt_va_start_verify_argument_type@QEBD@@YAXXZ ; __vcrt_va_start_verify_argument_type<char const * __ptr64 const>
  00041	48 8d 84 24 80
	00 00 00	 lea	 rax, QWORD PTR _Format$[rsp+8]
  00049	48 89 44 24 38	 mov	 QWORD PTR _ArgList$[rsp], rax

; 835  :     _Result = _vfprintf_l(_Stream, _Format, NULL, _ArgList);

  0004e	4c 8b 4c 24 38	 mov	 r9, QWORD PTR _ArgList$[rsp]
  00053	45 33 c0	 xor	 r8d, r8d
  00056	48 8b 54 24 78	 mov	 rdx, QWORD PTR _Format$[rsp]
  0005b	48 8b 4c 24 70	 mov	 rcx, QWORD PTR _Stream$[rsp]
  00060	e8 00 00 00 00	 call	 _vfprintf_l
  00065	89 44 24 20	 mov	 DWORD PTR _Result$[rsp], eax

; 836  :     __crt_va_end(_ArgList);

  00069	48 c7 44 24 38
	00 00 00 00	 mov	 QWORD PTR _ArgList$[rsp], 0

; 837  :     return _Result;

  00072	8b 44 24 20	 mov	 eax, DWORD PTR _Result$[rsp]

; 838  : }

  00076	8b f8		 mov	 edi, eax
  00078	48 8b cc	 mov	 rcx, rsp
  0007b	48 8d 15 00 00
	00 00		 lea	 rdx, OFFSET FLAT:fprintf$rtcFrameData
  00082	e8 00 00 00 00	 call	 _RTC_CheckStackVars
  00087	8b c7		 mov	 eax, edi
  00089	48 8b 4c 24 50	 mov	 rcx, QWORD PTR __$ArrayPad$[rsp]
  0008e	48 33 cc	 xor	 rcx, rsp
  00091	e8 00 00 00 00	 call	 __security_check_cookie
  00096	48 83 c4 60	 add	 rsp, 96			; 00000060H
  0009a	5f		 pop	 rdi
  0009b	c3		 ret	 0
fprintf	ENDP
_TEXT	ENDS
; Function compile flags: /Odtp /RTCsu
; File c:\program files (x86)\windows kits\10\include\10.0.10240.0\ucrt\stdio.h
;	COMDAT _vfprintf_l
_TEXT	SEGMENT
_Stream$ = 64
_Format$ = 72
_Locale$ = 80
_ArgList$ = 88
_vfprintf_l PROC					; COMDAT

; 638  : {

$LN3:
  00000	4c 89 4c 24 20	 mov	 QWORD PTR [rsp+32], r9
  00005	4c 89 44 24 18	 mov	 QWORD PTR [rsp+24], r8
  0000a	48 89 54 24 10	 mov	 QWORD PTR [rsp+16], rdx
  0000f	48 89 4c 24 08	 mov	 QWORD PTR [rsp+8], rcx
  00014	57		 push	 rdi
  00015	48 83 ec 30	 sub	 rsp, 48			; 00000030H
  00019	48 8b fc	 mov	 rdi, rsp
  0001c	b9 0c 00 00 00	 mov	 ecx, 12
  00021	b8 cc cc cc cc	 mov	 eax, -858993460		; ccccccccH
  00026	f3 ab		 rep stosd
  00028	48 8b 4c 24 40	 mov	 rcx, QWORD PTR [rsp+64]

; 639  :     return __stdio_common_vfprintf(_CRT_INTERNAL_LOCAL_PRINTF_OPTIONS, _Stream, _Format, _Locale, _ArgList);

  0002d	e8 00 00 00 00	 call	 __local_stdio_printf_options
  00032	48 8b 4c 24 58	 mov	 rcx, QWORD PTR _ArgList$[rsp]
  00037	48 89 4c 24 20	 mov	 QWORD PTR [rsp+32], rcx
  0003c	4c 8b 4c 24 50	 mov	 r9, QWORD PTR _Locale$[rsp]
  00041	4c 8b 44 24 48	 mov	 r8, QWORD PTR _Format$[rsp]
  00046	48 8b 54 24 40	 mov	 rdx, QWORD PTR _Stream$[rsp]
  0004b	48 8b 08	 mov	 rcx, QWORD PTR [rax]
  0004e	ff 15 00 00 00
	00		 call	 QWORD PTR __imp___stdio_common_vfprintf

; 640  : }

  00054	48 83 c4 30	 add	 rsp, 48			; 00000030H
  00058	5f		 pop	 rdi
  00059	c3		 ret	 0
_vfprintf_l ENDP
_TEXT	ENDS
; Function compile flags: /Odtp /RTCsu
; File c:\program files (x86)\windows kits\10\include\10.0.10240.0\ucrt\corecrt_stdio_config.h
;	COMDAT __local_stdio_printf_options
_TEXT	SEGMENT
__local_stdio_printf_options PROC			; COMDAT

; 73   : {

$LN3:
  00000	40 57		 push	 rdi

; 74   :     static unsigned __int64 _OptionsStorage;
; 75   :     return &_OptionsStorage;

  00002	48 8d 05 00 00
	00 00		 lea	 rax, OFFSET FLAT:?_OptionsStorage@?1??__local_stdio_printf_options@@9@4_KA ; `__local_stdio_printf_options'::`2'::_OptionsStorage

; 76   : }

  00009	5f		 pop	 rdi
  0000a	c3		 ret	 0
__local_stdio_printf_options ENDP
_TEXT	ENDS
; Function compile flags: /Odtp /RTCsu
; File c:\program files (x86)\windows kits\10\include\10.0.10240.0\ucrt\tchar.h
;	COMDAT _tcscmp
_TEXT	SEGMENT
_s1$ = 48
_s2$ = 56
_tcscmp	PROC						; COMDAT

; 1669 : _Check_return_ __inline int _tcscmp(_In_ _CPC _s1,_In_ _CPC _s2) {return _mbscmp((_CPUC)_s1,(_CPUC)_s2);}

$LN3:
  00000	48 89 54 24 10	 mov	 QWORD PTR [rsp+16], rdx
  00005	48 89 4c 24 08	 mov	 QWORD PTR [rsp+8], rcx
  0000a	57		 push	 rdi
  0000b	48 83 ec 20	 sub	 rsp, 32			; 00000020H
  0000f	48 8b fc	 mov	 rdi, rsp
  00012	b9 08 00 00 00	 mov	 ecx, 8
  00017	b8 cc cc cc cc	 mov	 eax, -858993460		; ccccccccH
  0001c	f3 ab		 rep stosd
  0001e	48 8b 4c 24 30	 mov	 rcx, QWORD PTR [rsp+48]
  00023	48 8b 54 24 38	 mov	 rdx, QWORD PTR _s2$[rsp]
  00028	48 8b 4c 24 30	 mov	 rcx, QWORD PTR _s1$[rsp]
  0002d	ff 15 00 00 00
	00		 call	 QWORD PTR __imp__mbscmp
  00033	48 83 c4 20	 add	 rsp, 32			; 00000020H
  00037	5f		 pop	 rdi
  00038	c3		 ret	 0
_tcscmp	ENDP
_TEXT	ENDS
; Function compile flags: /Odtp /RTCsu
; File c:\program files (x86)\windows kits\10\include\10.0.10240.0\ucrt\tchar.h
;	COMDAT _tcsrchr
_TEXT	SEGMENT
_s1$ = 48
_c$ = 56
_tcsrchr PROC						; COMDAT

; 1569 : _Check_return_ __inline _CRPC _tcsrchr(_In_ _CPC _s1,_In_ _UI _c) {return (_CRPC)_mbsrchr((_CPUC)_s1,_c);}

$LN3:
  00000	89 54 24 10	 mov	 DWORD PTR [rsp+16], edx
  00004	48 89 4c 24 08	 mov	 QWORD PTR [rsp+8], rcx
  00009	57		 push	 rdi
  0000a	48 83 ec 20	 sub	 rsp, 32			; 00000020H
  0000e	48 8b fc	 mov	 rdi, rsp
  00011	b9 08 00 00 00	 mov	 ecx, 8
  00016	b8 cc cc cc cc	 mov	 eax, -858993460		; ccccccccH
  0001b	f3 ab		 rep stosd
  0001d	48 8b 4c 24 30	 mov	 rcx, QWORD PTR [rsp+48]
  00022	8b 54 24 38	 mov	 edx, DWORD PTR _c$[rsp]
  00026	48 8b 4c 24 30	 mov	 rcx, QWORD PTR _s1$[rsp]
  0002b	ff 15 00 00 00
	00		 call	 QWORD PTR __imp__mbsrchr
  00031	48 83 c4 20	 add	 rsp, 32			; 00000020H
  00035	5f		 pop	 rdi
  00036	c3		 ret	 0
_tcsrchr ENDP
_TEXT	ENDS
; Function compile flags: /Odtp /RTCsu
; File c:\program files (x86)\windows kits\10\include\10.0.10240.0\ucrt\tchar.h
;	COMDAT _tcsncpy
_TEXT	SEGMENT
_Dst$ = 48
_Source$ = 56
_Count$ = 64
_tcsncpy PROC						; COMDAT

; 1542 : {

$LN3:
  00000	4c 89 44 24 18	 mov	 QWORD PTR [rsp+24], r8
  00005	48 89 54 24 10	 mov	 QWORD PTR [rsp+16], rdx
  0000a	48 89 4c 24 08	 mov	 QWORD PTR [rsp+8], rcx
  0000f	57		 push	 rdi
  00010	48 83 ec 20	 sub	 rsp, 32			; 00000020H
  00014	48 8b fc	 mov	 rdi, rsp
  00017	b9 08 00 00 00	 mov	 ecx, 8
  0001c	b8 cc cc cc cc	 mov	 eax, -858993460		; ccccccccH
  00021	f3 ab		 rep stosd
  00023	48 8b 4c 24 30	 mov	 rcx, QWORD PTR [rsp+48]

; 1543 : #pragma warning(push)
; 1544 : #pragma warning(disable:4996)
; 1545 :     return (char *)_mbsnbcpy((unsigned char *)_Dst,(const unsigned char *)_Source,_Count);

  00028	4c 8b 44 24 40	 mov	 r8, QWORD PTR _Count$[rsp]
  0002d	48 8b 54 24 38	 mov	 rdx, QWORD PTR _Source$[rsp]
  00032	48 8b 4c 24 30	 mov	 rcx, QWORD PTR _Dst$[rsp]
  00037	ff 15 00 00 00
	00		 call	 QWORD PTR __imp__mbsnbcpy

; 1546 : #pragma warning(pop)
; 1547 : }

  0003d	48 83 c4 20	 add	 rsp, 32			; 00000020H
  00041	5f		 pop	 rdi
  00042	c3		 ret	 0
_tcsncpy ENDP
_TEXT	ENDS
END
