; Listing generated by Microsoft (R) Optimizing Compiler Version 19.00.24215.1 

include listing.inc

INCLUDELIB MSVCRTD
INCLUDELIB OLDNAMES

CONST	SEGMENT
$SG79470 DB	'getmsec : %lld, %ld (milli seconds)', 0aH, 00H
CONST	ENDS
PUBLIC	__local_stdio_printf_options
PUBLIC	_vfprintf_l
PUBLIC	??$__vcrt_va_start_verify_argument_type@QEBD@@YAXXZ ; __vcrt_va_start_verify_argument_type<char const * __ptr64 const>
PUBLIC	printf
PUBLIC	?m_Sleep@Misc@@SAXH@Z				; Misc::m_Sleep
PUBLIC	?u_Sleep@Misc@@SAXH@Z				; Misc::u_Sleep
PUBLIC	?timespec_diff_ns@Misc@@SAXPEAUtimespec@@00@Z	; Misc::timespec_diff_ns
PUBLIC	?timespec_diff_ms@Misc@@SAXPEAUtimespec@@00@Z	; Misc::timespec_diff_ms
PUBLIC	?getmsec@Misc@@SAXPEAUtimespec@@@Z		; Misc::getmsec
PUBLIC	?_OptionsStorage@?1??__local_stdio_printf_options@@9@4_KA ; `__local_stdio_printf_options'::`2'::_OptionsStorage
EXTRN	__imp___acrt_iob_func:PROC
EXTRN	__imp___stdio_common_vfprintf:PROC
EXTRN	__imp__time64:PROC
EXTRN	__imp_Sleep:PROC
EXTRN	__imp_GetSystemTime:PROC
EXTRN	_RTC_CheckStackVars:PROC
EXTRN	_RTC_InitBase:PROC
EXTRN	_RTC_Shutdown:PROC
EXTRN	__GSHandlerCheck:PROC
EXTRN	__security_check_cookie:PROC
EXTRN	__security_cookie:QWORD
;	COMDAT ?_OptionsStorage@?1??__local_stdio_printf_options@@9@4_KA
_BSS	SEGMENT
?_OptionsStorage@?1??__local_stdio_printf_options@@9@4_KA DQ 01H DUP (?) ; `__local_stdio_printf_options'::`2'::_OptionsStorage
_BSS	ENDS
;	COMDAT pdata
pdata	SEGMENT
$pdata$__local_stdio_printf_options DD imagerel $LN3
	DD	imagerel $LN3+11
	DD	imagerel $unwind$__local_stdio_printf_options
pdata	ENDS
;	COMDAT pdata
pdata	SEGMENT
$pdata$_vfprintf_l DD imagerel $LN3
	DD	imagerel $LN3+90
	DD	imagerel $unwind$_vfprintf_l
pdata	ENDS
;	COMDAT pdata
pdata	SEGMENT
$pdata$??$__vcrt_va_start_verify_argument_type@QEBD@@YAXXZ DD imagerel $LN3
	DD	imagerel $LN3+4
	DD	imagerel $unwind$??$__vcrt_va_start_verify_argument_type@QEBD@@YAXXZ
pdata	ENDS
;	COMDAT pdata
pdata	SEGMENT
$pdata$printf DD imagerel $LN3
	DD	imagerel $LN3+162
	DD	imagerel $unwind$printf
pdata	ENDS
pdata	SEGMENT
$pdata$time DD	imagerel time
	DD	imagerel time+47
	DD	imagerel $unwind$time
$pdata$?m_Sleep@Misc@@SAXH@Z DD imagerel $LN3
	DD	imagerel $LN3+44
	DD	imagerel $unwind$?m_Sleep@Misc@@SAXH@Z
$pdata$?u_Sleep@Misc@@SAXH@Z DD imagerel $LN3
	DD	imagerel $LN3+54
	DD	imagerel $unwind$?u_Sleep@Misc@@SAXH@Z
$pdata$?timespec_diff_ns@Misc@@SAXPEAUtimespec@@00@Z DD imagerel $LN5
	DD	imagerel $LN5+156
	DD	imagerel $unwind$?timespec_diff_ns@Misc@@SAXPEAUtimespec@@00@Z
$pdata$?timespec_diff_ms@Misc@@SAXPEAUtimespec@@00@Z DD imagerel $LN5
	DD	imagerel $LN5+156
	DD	imagerel $unwind$?timespec_diff_ms@Misc@@SAXPEAUtimespec@@00@Z
$pdata$?getmsec@Misc@@SAXPEAUtimespec@@@Z DD imagerel $LN3
	DD	imagerel $LN3+149
	DD	imagerel $unwind$?getmsec@Misc@@SAXPEAUtimespec@@@Z
pdata	ENDS
;	COMDAT rtc$TMZ
rtc$TMZ	SEGMENT
_RTC_Shutdown.rtc$TMZ DQ FLAT:_RTC_Shutdown
rtc$TMZ	ENDS
;	COMDAT rtc$IMZ
rtc$IMZ	SEGMENT
_RTC_InitBase.rtc$IMZ DQ FLAT:_RTC_InitBase
rtc$IMZ	ENDS
CONST	SEGMENT
	ORG $+3
?getmsec@Misc@@SAXPEAUtimespec@@@Z$rtcName$0 DB 073H	; Misc::getmsec
	DB	079H
	DB	073H
	DB	054H
	DB	06dH
	DB	00H
	ORG $+2
?getmsec@Misc@@SAXPEAUtimespec@@@Z$rtcVarDesc DD 028H	; Misc::getmsec
	DD	010H
	DQ	FLAT:?getmsec@Misc@@SAXPEAUtimespec@@@Z$rtcName$0
	ORG $+48
?getmsec@Misc@@SAXPEAUtimespec@@@Z$rtcFrameData DD 01H	; Misc::getmsec
	DD	00H
	DQ	FLAT:?getmsec@Misc@@SAXPEAUtimespec@@@Z$rtcVarDesc
CONST	ENDS
xdata	SEGMENT
$unwind$time DD	021e01H
	DD	07006320aH
$unwind$?m_Sleep@Misc@@SAXH@Z DD 021c01H
	DD	070053209H
$unwind$?u_Sleep@Misc@@SAXH@Z DD 021c01H
	DD	070053209H
$unwind$?timespec_diff_ns@Misc@@SAXPEAUtimespec@@00@Z DD 011001H
	DD	07010H
$unwind$?timespec_diff_ms@Misc@@SAXPEAUtimespec@@00@Z DD 011001H
	DD	07010H
$unwind$?getmsec@Misc@@SAXPEAUtimespec@@@Z DD 022d19H
	DD	07006b20aH
	DD	imagerel __GSHandlerCheck
	DD	050H
xdata	ENDS
;	COMDAT xdata
xdata	SEGMENT
$unwind$printf DD 023c19H
	DD	07015b219H
	DD	imagerel __GSHandlerCheck
	DD	050H
xdata	ENDS
;	COMDAT CONST
CONST	SEGMENT
printf$rtcName$0 DB 05fH
	DB	041H
	DB	072H
	DB	067H
	DB	04cH
	DB	069H
	DB	073H
	DB	074H
	DB	00H
	ORG $+7
printf$rtcVarDesc DD 038H
	DD	08H
	DQ	FLAT:printf$rtcName$0
	ORG $+48
printf$rtcFrameData DD 01H
	DD	00H
	DQ	FLAT:printf$rtcVarDesc
CONST	ENDS
;	COMDAT xdata
xdata	SEGMENT
$unwind$??$__vcrt_va_start_verify_argument_type@QEBD@@YAXXZ DD 010201H
	DD	07002H
xdata	ENDS
;	COMDAT xdata
xdata	SEGMENT
$unwind$_vfprintf_l DD 022d01H
	DD	070155219H
xdata	ENDS
;	COMDAT xdata
xdata	SEGMENT
$unwind$__local_stdio_printf_options DD 010201H
	DD	07002H
xdata	ENDS
; Function compile flags: /Odtp /RTCsu
; File d:\newproject2\com\src\commisc.cpp
_TEXT	SEGMENT
sysTm$ = 40
__$ArrayPad$ = 80
cur$ = 112
?getmsec@Misc@@SAXPEAUtimespec@@@Z PROC			; Misc::getmsec

; 65   : 	{

$LN3:
  00000	48 89 4c 24 08	 mov	 QWORD PTR [rsp+8], rcx
  00005	57		 push	 rdi
  00006	48 83 ec 60	 sub	 rsp, 96			; 00000060H
  0000a	48 8b fc	 mov	 rdi, rsp
  0000d	b9 18 00 00 00	 mov	 ecx, 24
  00012	b8 cc cc cc cc	 mov	 eax, -858993460		; ccccccccH
  00017	f3 ab		 rep stosd
  00019	48 8b 4c 24 70	 mov	 rcx, QWORD PTR [rsp+112]
  0001e	48 8b 05 00 00
	00 00		 mov	 rax, QWORD PTR __security_cookie
  00025	48 33 c4	 xor	 rax, rsp
  00028	48 89 44 24 50	 mov	 QWORD PTR __$ArrayPad$[rsp], rax

; 66   : #ifndef WIN32
; 67   : 		clock_gettime(CLOCK_REALTIME, cur);
; 68   : 		cur->tv_nsec = cur->tv_nsec / 1000000L;
; 69   : #else
; 70   : 		SYSTEMTIME	sysTm;
; 71   : 		GetSystemTime(&sysTm);

  0002d	48 8d 4c 24 28	 lea	 rcx, QWORD PTR sysTm$[rsp]
  00032	ff 15 00 00 00
	00		 call	 QWORD PTR __imp_GetSystemTime

; 72   : 		cur->tv_sec = (int)time(NULL);

  00038	33 c9		 xor	 ecx, ecx
  0003a	e8 00 00 00 00	 call	 time
  0003f	48 98		 cdqe
  00041	48 8b 4c 24 70	 mov	 rcx, QWORD PTR cur$[rsp]
  00046	48 89 01	 mov	 QWORD PTR [rcx], rax

; 73   : 		cur->tv_nsec = sysTm.wMilliseconds;

  00049	0f b7 44 24 36	 movzx	 eax, WORD PTR sysTm$[rsp+14]
  0004e	48 8b 4c 24 70	 mov	 rcx, QWORD PTR cur$[rsp]
  00053	89 41 08	 mov	 DWORD PTR [rcx+8], eax

; 74   : 		printf("getmsec : %lld, %ld (milli seconds)\n", cur->tv_sec, cur->tv_nsec);

  00056	48 8b 44 24 70	 mov	 rax, QWORD PTR cur$[rsp]
  0005b	44 8b 40 08	 mov	 r8d, DWORD PTR [rax+8]
  0005f	48 8b 44 24 70	 mov	 rax, QWORD PTR cur$[rsp]
  00064	48 8b 10	 mov	 rdx, QWORD PTR [rax]
  00067	48 8d 0d 00 00
	00 00		 lea	 rcx, OFFSET FLAT:$SG79470
  0006e	e8 00 00 00 00	 call	 printf

; 75   : #endif
; 76   : 	}

  00073	48 8b cc	 mov	 rcx, rsp
  00076	48 8d 15 00 00
	00 00		 lea	 rdx, OFFSET FLAT:?getmsec@Misc@@SAXPEAUtimespec@@@Z$rtcFrameData
  0007d	e8 00 00 00 00	 call	 _RTC_CheckStackVars
  00082	48 8b 4c 24 50	 mov	 rcx, QWORD PTR __$ArrayPad$[rsp]
  00087	48 33 cc	 xor	 rcx, rsp
  0008a	e8 00 00 00 00	 call	 __security_check_cookie
  0008f	48 83 c4 60	 add	 rsp, 96			; 00000060H
  00093	5f		 pop	 rdi
  00094	c3		 ret	 0
?getmsec@Misc@@SAXPEAUtimespec@@@Z ENDP			; Misc::getmsec
_TEXT	ENDS
; Function compile flags: /Odtp /RTCsu
; File d:\newproject2\com\src\commisc.cpp
_TEXT	SEGMENT
start$ = 16
stop$ = 24
result$ = 32
?timespec_diff_ms@Misc@@SAXPEAUtimespec@@00@Z PROC	; Misc::timespec_diff_ms

; 53   : 	{

$LN5:
  00000	4c 89 44 24 18	 mov	 QWORD PTR [rsp+24], r8
  00005	48 89 54 24 10	 mov	 QWORD PTR [rsp+16], rdx
  0000a	48 89 4c 24 08	 mov	 QWORD PTR [rsp+8], rcx
  0000f	57		 push	 rdi

; 54   : 		if ((stop->tv_nsec - start->tv_nsec) < 0) {

  00010	48 8b 44 24 18	 mov	 rax, QWORD PTR stop$[rsp]
  00015	48 8b 4c 24 10	 mov	 rcx, QWORD PTR start$[rsp]
  0001a	8b 49 08	 mov	 ecx, DWORD PTR [rcx+8]
  0001d	8b 40 08	 mov	 eax, DWORD PTR [rax+8]
  00020	2b c1		 sub	 eax, ecx
  00022	85 c0		 test	 eax, eax
  00024	7d 3f		 jge	 SHORT $LN2@timespec_d

; 55   : 			result->tv_sec = stop->tv_sec - start->tv_sec - 1;

  00026	48 8b 44 24 18	 mov	 rax, QWORD PTR stop$[rsp]
  0002b	48 8b 4c 24 10	 mov	 rcx, QWORD PTR start$[rsp]
  00030	48 8b 09	 mov	 rcx, QWORD PTR [rcx]
  00033	48 8b 00	 mov	 rax, QWORD PTR [rax]
  00036	48 2b c1	 sub	 rax, rcx
  00039	48 ff c8	 dec	 rax
  0003c	48 8b 4c 24 20	 mov	 rcx, QWORD PTR result$[rsp]
  00041	48 89 01	 mov	 QWORD PTR [rcx], rax

; 56   : 			result->tv_nsec = stop->tv_nsec - start->tv_nsec + MSEC_PER_SEC;

  00044	48 8b 44 24 18	 mov	 rax, QWORD PTR stop$[rsp]
  00049	48 8b 4c 24 10	 mov	 rcx, QWORD PTR start$[rsp]
  0004e	8b 49 08	 mov	 ecx, DWORD PTR [rcx+8]
  00051	8b 40 08	 mov	 eax, DWORD PTR [rax+8]
  00054	2b c1		 sub	 eax, ecx
  00056	05 40 42 0f 00	 add	 eax, 1000000		; 000f4240H
  0005b	48 8b 4c 24 20	 mov	 rcx, QWORD PTR result$[rsp]
  00060	89 41 08	 mov	 DWORD PTR [rcx+8], eax

; 57   : 		}
; 58   : 		else {

  00063	eb 35		 jmp	 SHORT $LN3@timespec_d
$LN2@timespec_d:

; 59   : 			result->tv_sec = stop->tv_sec - start->tv_sec;

  00065	48 8b 44 24 18	 mov	 rax, QWORD PTR stop$[rsp]
  0006a	48 8b 4c 24 10	 mov	 rcx, QWORD PTR start$[rsp]
  0006f	48 8b 09	 mov	 rcx, QWORD PTR [rcx]
  00072	48 8b 00	 mov	 rax, QWORD PTR [rax]
  00075	48 2b c1	 sub	 rax, rcx
  00078	48 8b 4c 24 20	 mov	 rcx, QWORD PTR result$[rsp]
  0007d	48 89 01	 mov	 QWORD PTR [rcx], rax

; 60   : 			result->tv_nsec = stop->tv_nsec - start->tv_nsec;

  00080	48 8b 44 24 18	 mov	 rax, QWORD PTR stop$[rsp]
  00085	48 8b 4c 24 10	 mov	 rcx, QWORD PTR start$[rsp]
  0008a	8b 49 08	 mov	 ecx, DWORD PTR [rcx+8]
  0008d	8b 40 08	 mov	 eax, DWORD PTR [rax+8]
  00090	2b c1		 sub	 eax, ecx
  00092	48 8b 4c 24 20	 mov	 rcx, QWORD PTR result$[rsp]
  00097	89 41 08	 mov	 DWORD PTR [rcx+8], eax
$LN3@timespec_d:

; 61   : 		}
; 62   : 	}

  0009a	5f		 pop	 rdi
  0009b	c3		 ret	 0
?timespec_diff_ms@Misc@@SAXPEAUtimespec@@00@Z ENDP	; Misc::timespec_diff_ms
_TEXT	ENDS
; Function compile flags: /Odtp /RTCsu
; File d:\newproject2\com\src\commisc.cpp
_TEXT	SEGMENT
start$ = 16
stop$ = 24
result$ = 32
?timespec_diff_ns@Misc@@SAXPEAUtimespec@@00@Z PROC	; Misc::timespec_diff_ns

; 42   : 	{

$LN5:
  00000	4c 89 44 24 18	 mov	 QWORD PTR [rsp+24], r8
  00005	48 89 54 24 10	 mov	 QWORD PTR [rsp+16], rdx
  0000a	48 89 4c 24 08	 mov	 QWORD PTR [rsp+8], rcx
  0000f	57		 push	 rdi

; 43   : 		if ((stop->tv_nsec - start->tv_nsec) < 0) {

  00010	48 8b 44 24 18	 mov	 rax, QWORD PTR stop$[rsp]
  00015	48 8b 4c 24 10	 mov	 rcx, QWORD PTR start$[rsp]
  0001a	8b 49 08	 mov	 ecx, DWORD PTR [rcx+8]
  0001d	8b 40 08	 mov	 eax, DWORD PTR [rax+8]
  00020	2b c1		 sub	 eax, ecx
  00022	85 c0		 test	 eax, eax
  00024	7d 3f		 jge	 SHORT $LN2@timespec_d

; 44   : 			result->tv_sec = stop->tv_sec - start->tv_sec - 1;

  00026	48 8b 44 24 18	 mov	 rax, QWORD PTR stop$[rsp]
  0002b	48 8b 4c 24 10	 mov	 rcx, QWORD PTR start$[rsp]
  00030	48 8b 09	 mov	 rcx, QWORD PTR [rcx]
  00033	48 8b 00	 mov	 rax, QWORD PTR [rax]
  00036	48 2b c1	 sub	 rax, rcx
  00039	48 ff c8	 dec	 rax
  0003c	48 8b 4c 24 20	 mov	 rcx, QWORD PTR result$[rsp]
  00041	48 89 01	 mov	 QWORD PTR [rcx], rax

; 45   : 			result->tv_nsec = stop->tv_nsec - start->tv_nsec + NSEC_PER_SEC;

  00044	48 8b 44 24 18	 mov	 rax, QWORD PTR stop$[rsp]
  00049	48 8b 4c 24 10	 mov	 rcx, QWORD PTR start$[rsp]
  0004e	8b 49 08	 mov	 ecx, DWORD PTR [rcx+8]
  00051	8b 40 08	 mov	 eax, DWORD PTR [rax+8]
  00054	2b c1		 sub	 eax, ecx
  00056	05 00 ca 9a 3b	 add	 eax, 1000000000		; 3b9aca00H
  0005b	48 8b 4c 24 20	 mov	 rcx, QWORD PTR result$[rsp]
  00060	89 41 08	 mov	 DWORD PTR [rcx+8], eax

; 46   : 		}
; 47   : 		else {

  00063	eb 35		 jmp	 SHORT $LN3@timespec_d
$LN2@timespec_d:

; 48   : 			result->tv_sec = stop->tv_sec - start->tv_sec;

  00065	48 8b 44 24 18	 mov	 rax, QWORD PTR stop$[rsp]
  0006a	48 8b 4c 24 10	 mov	 rcx, QWORD PTR start$[rsp]
  0006f	48 8b 09	 mov	 rcx, QWORD PTR [rcx]
  00072	48 8b 00	 mov	 rax, QWORD PTR [rax]
  00075	48 2b c1	 sub	 rax, rcx
  00078	48 8b 4c 24 20	 mov	 rcx, QWORD PTR result$[rsp]
  0007d	48 89 01	 mov	 QWORD PTR [rcx], rax

; 49   : 			result->tv_nsec = stop->tv_nsec - start->tv_nsec;

  00080	48 8b 44 24 18	 mov	 rax, QWORD PTR stop$[rsp]
  00085	48 8b 4c 24 10	 mov	 rcx, QWORD PTR start$[rsp]
  0008a	8b 49 08	 mov	 ecx, DWORD PTR [rcx+8]
  0008d	8b 40 08	 mov	 eax, DWORD PTR [rax+8]
  00090	2b c1		 sub	 eax, ecx
  00092	48 8b 4c 24 20	 mov	 rcx, QWORD PTR result$[rsp]
  00097	89 41 08	 mov	 DWORD PTR [rcx+8], eax
$LN3@timespec_d:

; 50   : 		}
; 51   : 	}

  0009a	5f		 pop	 rdi
  0009b	c3		 ret	 0
?timespec_diff_ns@Misc@@SAXPEAUtimespec@@00@Z ENDP	; Misc::timespec_diff_ns
_TEXT	ENDS
; Function compile flags: /Odtp /RTCsu
; File d:\newproject2\com\src\commisc.cpp
_TEXT	SEGMENT
iuSec$ = 48
?u_Sleep@Misc@@SAXH@Z PROC				; Misc::u_Sleep

; 29   : {

$LN3:
  00000	89 4c 24 08	 mov	 DWORD PTR [rsp+8], ecx
  00004	57		 push	 rdi
  00005	48 83 ec 20	 sub	 rsp, 32			; 00000020H
  00009	48 8b fc	 mov	 rdi, rsp
  0000c	b9 08 00 00 00	 mov	 ecx, 8
  00011	b8 cc cc cc cc	 mov	 eax, -858993460		; ccccccccH
  00016	f3 ab		 rep stosd
  00018	8b 4c 24 30	 mov	 ecx, DWORD PTR [rsp+48]

; 30   : #ifndef WIN32
; 31   : 	//struct  timeval timedelay;
; 32   : 	//timedelay.tv_sec = (iuSec) / 1000000;
; 33   : 	//timedelay.tv_usec = (iuSec) % 1000000;
; 34   : 	//select(0,(fd_set*)0,(fd_set*)0,(fd_set*)0,&timedelay);
; 35   : 	usleep(iuSec);
; 36   : #else
; 37   : 	Sleep(iuSec / 1000);

  0001c	8b 44 24 30	 mov	 eax, DWORD PTR iuSec$[rsp]
  00020	99		 cdq
  00021	b9 e8 03 00 00	 mov	 ecx, 1000		; 000003e8H
  00026	f7 f9		 idiv	 ecx
  00028	8b c8		 mov	 ecx, eax
  0002a	ff 15 00 00 00
	00		 call	 QWORD PTR __imp_Sleep

; 38   : 	//WINDOW 에서 10ms 이하는 정확하게 보장할수 없음
; 39   : #endif
; 40   : }

  00030	48 83 c4 20	 add	 rsp, 32			; 00000020H
  00034	5f		 pop	 rdi
  00035	c3		 ret	 0
?u_Sleep@Misc@@SAXH@Z ENDP				; Misc::u_Sleep
_TEXT	ENDS
; Function compile flags: /Odtp /RTCsu
; File d:\newproject2\com\src\commisc.cpp
_TEXT	SEGMENT
iMiliSec$ = 48
?m_Sleep@Misc@@SAXH@Z PROC				; Misc::m_Sleep

; 16   : {

$LN3:
  00000	89 4c 24 08	 mov	 DWORD PTR [rsp+8], ecx
  00004	57		 push	 rdi
  00005	48 83 ec 20	 sub	 rsp, 32			; 00000020H
  00009	48 8b fc	 mov	 rdi, rsp
  0000c	b9 08 00 00 00	 mov	 ecx, 8
  00011	b8 cc cc cc cc	 mov	 eax, -858993460		; ccccccccH
  00016	f3 ab		 rep stosd
  00018	8b 4c 24 30	 mov	 ecx, DWORD PTR [rsp+48]

; 17   : #ifndef WIN32
; 18   : 	//struct  timeval timedelay;
; 19   : 	//timedelay.tv_sec = (iMiliSec * 1000) / 1000000;
; 20   : 	//timedelay.tv_usec = (iMiliSec * 1000) % 1000000;
; 21   : 	//select(0,(fd_set*)0,(fd_set*)0,(fd_set*)0,&timedelay);
; 22   : 	usleep(iMiliSec * 1000);
; 23   : #else
; 24   : 	Sleep(iMiliSec);

  0001c	8b 4c 24 30	 mov	 ecx, DWORD PTR iMiliSec$[rsp]
  00020	ff 15 00 00 00
	00		 call	 QWORD PTR __imp_Sleep

; 25   : #endif
; 26   : }

  00026	48 83 c4 20	 add	 rsp, 32			; 00000020H
  0002a	5f		 pop	 rdi
  0002b	c3		 ret	 0
?m_Sleep@Misc@@SAXH@Z ENDP				; Misc::m_Sleep
_TEXT	ENDS
; Function compile flags: /Odtp /RTCsu
; File c:\program files (x86)\windows kits\10\include\10.0.10240.0\ucrt\time.h
_TEXT	SEGMENT
_Time$ = 48
time	PROC

; 534  :         {

  00000	48 89 4c 24 08	 mov	 QWORD PTR [rsp+8], rcx
  00005	57		 push	 rdi
  00006	48 83 ec 20	 sub	 rsp, 32			; 00000020H
  0000a	48 8b fc	 mov	 rdi, rsp
  0000d	b9 08 00 00 00	 mov	 ecx, 8
  00012	b8 cc cc cc cc	 mov	 eax, -858993460		; ccccccccH
  00017	f3 ab		 rep stosd
  00019	48 8b 4c 24 30	 mov	 rcx, QWORD PTR [rsp+48]

; 535  :             return _time64(_Time);

  0001e	48 8b 4c 24 30	 mov	 rcx, QWORD PTR _Time$[rsp]
  00023	ff 15 00 00 00
	00		 call	 QWORD PTR __imp__time64

; 536  :         }

  00029	48 83 c4 20	 add	 rsp, 32			; 00000020H
  0002d	5f		 pop	 rdi
  0002e	c3		 ret	 0
time	ENDP
_TEXT	ENDS
; Function compile flags: /Odtp /RTCsu
; File c:\program files (x86)\windows kits\10\include\10.0.10240.0\ucrt\stdio.h
;	COMDAT printf
_TEXT	SEGMENT
_Result$ = 32
_ArgList$ = 56
__$ArrayPad$ = 80
_Format$ = 112
printf	PROC						; COMDAT

; 950  : {

$LN3:
  00000	48 89 4c 24 08	 mov	 QWORD PTR [rsp+8], rcx
  00005	48 89 54 24 10	 mov	 QWORD PTR [rsp+16], rdx
  0000a	4c 89 44 24 18	 mov	 QWORD PTR [rsp+24], r8
  0000f	4c 89 4c 24 20	 mov	 QWORD PTR [rsp+32], r9
  00014	57		 push	 rdi
  00015	48 83 ec 60	 sub	 rsp, 96			; 00000060H
  00019	48 8b fc	 mov	 rdi, rsp
  0001c	b9 18 00 00 00	 mov	 ecx, 24
  00021	b8 cc cc cc cc	 mov	 eax, -858993460		; ccccccccH
  00026	f3 ab		 rep stosd
  00028	48 8b 4c 24 70	 mov	 rcx, QWORD PTR [rsp+112]
  0002d	48 8b 05 00 00
	00 00		 mov	 rax, QWORD PTR __security_cookie
  00034	48 33 c4	 xor	 rax, rsp
  00037	48 89 44 24 50	 mov	 QWORD PTR __$ArrayPad$[rsp], rax

; 951  :     int _Result;
; 952  :     va_list _ArgList;
; 953  :     __crt_va_start(_ArgList, _Format);

  0003c	e8 00 00 00 00	 call	 ??$__vcrt_va_start_verify_argument_type@QEBD@@YAXXZ ; __vcrt_va_start_verify_argument_type<char const * __ptr64 const>
  00041	48 8d 44 24 78	 lea	 rax, QWORD PTR _Format$[rsp+8]
  00046	48 89 44 24 38	 mov	 QWORD PTR _ArgList$[rsp], rax

; 954  :     _Result = _vfprintf_l(stdout, _Format, NULL, _ArgList);

  0004b	b9 01 00 00 00	 mov	 ecx, 1
  00050	ff 15 00 00 00
	00		 call	 QWORD PTR __imp___acrt_iob_func
  00056	4c 8b 4c 24 38	 mov	 r9, QWORD PTR _ArgList$[rsp]
  0005b	45 33 c0	 xor	 r8d, r8d
  0005e	48 8b 54 24 70	 mov	 rdx, QWORD PTR _Format$[rsp]
  00063	48 8b c8	 mov	 rcx, rax
  00066	e8 00 00 00 00	 call	 _vfprintf_l
  0006b	89 44 24 20	 mov	 DWORD PTR _Result$[rsp], eax

; 955  :     __crt_va_end(_ArgList);

  0006f	48 c7 44 24 38
	00 00 00 00	 mov	 QWORD PTR _ArgList$[rsp], 0

; 956  :     return _Result;

  00078	8b 44 24 20	 mov	 eax, DWORD PTR _Result$[rsp]

; 957  : }

  0007c	8b f8		 mov	 edi, eax
  0007e	48 8b cc	 mov	 rcx, rsp
  00081	48 8d 15 00 00
	00 00		 lea	 rdx, OFFSET FLAT:printf$rtcFrameData
  00088	e8 00 00 00 00	 call	 _RTC_CheckStackVars
  0008d	8b c7		 mov	 eax, edi
  0008f	48 8b 4c 24 50	 mov	 rcx, QWORD PTR __$ArrayPad$[rsp]
  00094	48 33 cc	 xor	 rcx, rsp
  00097	e8 00 00 00 00	 call	 __security_check_cookie
  0009c	48 83 c4 60	 add	 rsp, 96			; 00000060H
  000a0	5f		 pop	 rdi
  000a1	c3		 ret	 0
printf	ENDP
_TEXT	ENDS
; Function compile flags: /Odtp /RTCsu
; File c:\program files (x86)\microsoft visual studio 14.0\vc\include\vadefs.h
;	COMDAT ??$__vcrt_va_start_verify_argument_type@QEBD@@YAXXZ
_TEXT	SEGMENT
??$__vcrt_va_start_verify_argument_type@QEBD@@YAXXZ PROC ; __vcrt_va_start_verify_argument_type<char const * __ptr64 const>, COMDAT

; 144  :         {

$LN3:
  00000	40 57		 push	 rdi

; 145  :             static_assert(!__vcrt_va_list_is_reference<_Ty>::__the_value, "va_start argument must not have reference type and must not be parenthesized");
; 146  :         }

  00002	5f		 pop	 rdi
  00003	c3		 ret	 0
??$__vcrt_va_start_verify_argument_type@QEBD@@YAXXZ ENDP ; __vcrt_va_start_verify_argument_type<char const * __ptr64 const>
_TEXT	ENDS
; Function compile flags: /Odtp /RTCsu
; File c:\program files (x86)\windows kits\10\include\10.0.10240.0\ucrt\stdio.h
;	COMDAT _vfprintf_l
_TEXT	SEGMENT
_Stream$ = 64
_Format$ = 72
_Locale$ = 80
_ArgList$ = 88
_vfprintf_l PROC					; COMDAT

; 638  : {

$LN3:
  00000	4c 89 4c 24 20	 mov	 QWORD PTR [rsp+32], r9
  00005	4c 89 44 24 18	 mov	 QWORD PTR [rsp+24], r8
  0000a	48 89 54 24 10	 mov	 QWORD PTR [rsp+16], rdx
  0000f	48 89 4c 24 08	 mov	 QWORD PTR [rsp+8], rcx
  00014	57		 push	 rdi
  00015	48 83 ec 30	 sub	 rsp, 48			; 00000030H
  00019	48 8b fc	 mov	 rdi, rsp
  0001c	b9 0c 00 00 00	 mov	 ecx, 12
  00021	b8 cc cc cc cc	 mov	 eax, -858993460		; ccccccccH
  00026	f3 ab		 rep stosd
  00028	48 8b 4c 24 40	 mov	 rcx, QWORD PTR [rsp+64]

; 639  :     return __stdio_common_vfprintf(_CRT_INTERNAL_LOCAL_PRINTF_OPTIONS, _Stream, _Format, _Locale, _ArgList);

  0002d	e8 00 00 00 00	 call	 __local_stdio_printf_options
  00032	48 8b 4c 24 58	 mov	 rcx, QWORD PTR _ArgList$[rsp]
  00037	48 89 4c 24 20	 mov	 QWORD PTR [rsp+32], rcx
  0003c	4c 8b 4c 24 50	 mov	 r9, QWORD PTR _Locale$[rsp]
  00041	4c 8b 44 24 48	 mov	 r8, QWORD PTR _Format$[rsp]
  00046	48 8b 54 24 40	 mov	 rdx, QWORD PTR _Stream$[rsp]
  0004b	48 8b 08	 mov	 rcx, QWORD PTR [rax]
  0004e	ff 15 00 00 00
	00		 call	 QWORD PTR __imp___stdio_common_vfprintf

; 640  : }

  00054	48 83 c4 30	 add	 rsp, 48			; 00000030H
  00058	5f		 pop	 rdi
  00059	c3		 ret	 0
_vfprintf_l ENDP
_TEXT	ENDS
; Function compile flags: /Odtp /RTCsu
; File c:\program files (x86)\windows kits\10\include\10.0.10240.0\ucrt\corecrt_stdio_config.h
;	COMDAT __local_stdio_printf_options
_TEXT	SEGMENT
__local_stdio_printf_options PROC			; COMDAT

; 73   : {

$LN3:
  00000	40 57		 push	 rdi

; 74   :     static unsigned __int64 _OptionsStorage;
; 75   :     return &_OptionsStorage;

  00002	48 8d 05 00 00
	00 00		 lea	 rax, OFFSET FLAT:?_OptionsStorage@?1??__local_stdio_printf_options@@9@4_KA ; `__local_stdio_printf_options'::`2'::_OptionsStorage

; 76   : }

  00009	5f		 pop	 rdi
  0000a	c3		 ret	 0
__local_stdio_printf_options ENDP
_TEXT	ENDS
END
