; Listing generated by Microsoft (R) Optimizing Compiler Version 19.00.24215.1 

include listing.inc

INCLUDELIB MSVCRTD
INCLUDELIB OLDNAMES

_DATA	SEGMENT
$SG85892 DB	'%d', 00H
_DATA	ENDS
PUBLIC	PutPrivateProfileInt
PUBLIC	PutPrivateProfileString
PUBLIC	SavePrivateProfile
PUBLIC	confEntryDestroy
PUBLIC	__local_stdio_printf_options
PUBLIC	_vsnprintf_l
PUBLIC	_vsprintf_l
PUBLIC	sprintf
EXTRN	memset:PROC
EXTRN	__imp___stdio_common_vsprintf:PROC
EXTRN	__imp_WritePrivateProfileStringA:PROC
EXTRN	_RTC_CheckStackVars:PROC
EXTRN	_RTC_InitBase:PROC
EXTRN	_RTC_Shutdown:PROC
EXTRN	__GSHandlerCheck:PROC
EXTRN	__security_check_cookie:PROC
EXTRN	__security_cookie:QWORD
_DATA	SEGMENT
COMM	?_OptionsStorage@?1??__local_stdio_printf_options@@9@9:QWORD							; `__local_stdio_printf_options'::`2'::_OptionsStorage
_DATA	ENDS
pdata	SEGMENT
$pdata$PutPrivateProfileInt DD imagerel $LN3
	DD	imagerel $LN3+175
	DD	imagerel $unwind$PutPrivateProfileInt
$pdata$PutPrivateProfileString DD imagerel $LN3
	DD	imagerel $LN3+77
	DD	imagerel $unwind$PutPrivateProfileString
$pdata$SavePrivateProfile DD imagerel $LN3
	DD	imagerel $LN3+4
	DD	imagerel $unwind$SavePrivateProfile
$pdata$confEntryDestroy DD imagerel $LN3
	DD	imagerel $LN3+4
	DD	imagerel $unwind$confEntryDestroy
pdata	ENDS
;	COMDAT pdata
pdata	SEGMENT
$pdata$__local_stdio_printf_options DD imagerel $LN3
	DD	imagerel $LN3+11
	DD	imagerel $unwind$__local_stdio_printf_options
pdata	ENDS
;	COMDAT pdata
pdata	SEGMENT
$pdata$_vsnprintf_l DD imagerel $LN5
	DD	imagerel $LN5+140
	DD	imagerel $unwind$_vsnprintf_l
pdata	ENDS
;	COMDAT pdata
pdata	SEGMENT
$pdata$_vsprintf_l DD imagerel $LN3
	DD	imagerel $LN3+88
	DD	imagerel $unwind$_vsprintf_l
pdata	ENDS
;	COMDAT pdata
pdata	SEGMENT
$pdata$sprintf DD imagerel $LN3
	DD	imagerel $LN3+151
	DD	imagerel $unwind$sprintf
pdata	ENDS
;	COMDAT rtc$TMZ
rtc$TMZ	SEGMENT
_RTC_Shutdown.rtc$TMZ DQ FLAT:_RTC_Shutdown
rtc$TMZ	ENDS
;	COMDAT rtc$IMZ
rtc$IMZ	SEGMENT
_RTC_InitBase.rtc$IMZ DQ FLAT:_RTC_InitBase
rtc$IMZ	ENDS
;	COMDAT xdata
xdata	SEGMENT
$unwind$sprintf DD 023c19H
	DD	07015b219H
	DD	imagerel __GSHandlerCheck
	DD	050H
xdata	ENDS
;	COMDAT CONST
CONST	SEGMENT
sprintf$rtcName$0 DB 05fH
	DB	041H
	DB	072H
	DB	067H
	DB	04cH
	DB	069H
	DB	073H
	DB	074H
	DB	00H
	ORG $+7
sprintf$rtcVarDesc DD 038H
	DD	08H
	DQ	FLAT:sprintf$rtcName$0
	ORG $+48
sprintf$rtcFrameData DD 01H
	DD	00H
	DQ	FLAT:sprintf$rtcVarDesc
CONST	ENDS
;	COMDAT xdata
xdata	SEGMENT
$unwind$_vsprintf_l DD 022d01H
	DD	070155219H
xdata	ENDS
;	COMDAT xdata
xdata	SEGMENT
$unwind$_vsnprintf_l DD 022d01H
	DD	070157219H
xdata	ENDS
;	COMDAT xdata
xdata	SEGMENT
$unwind$__local_stdio_printf_options DD 010201H
	DD	07002H
xdata	ENDS
xdata	SEGMENT
$unwind$PutPrivateProfileInt DD 023f19H
	DD	07015d219H
	DD	imagerel __GSHandlerCheck
	DD	060H
$unwind$PutPrivateProfileString DD 022d01H
	DD	070153219H
$unwind$SavePrivateProfile DD 010201H
	DD	07002H
$unwind$confEntryDestroy DD 010201H
	DD	07002H
xdata	ENDS
CONST	SEGMENT
PutPrivateProfileInt$rtcName$0 DB 073H
	DB	07aH
	DB	056H
	DB	061H
	DB	06cH
	DB	00H
	ORG $+10
PutPrivateProfileInt$rtcVarDesc DD 028H
	DD	020H
	DQ	FLAT:PutPrivateProfileInt$rtcName$0
	ORG $+48
PutPrivateProfileInt$rtcFrameData DD 01H
	DD	00H
	DQ	FLAT:PutPrivateProfileInt$rtcVarDesc
CONST	ENDS
; Function compile flags: /Odtp /RTCsu
; File c:\program files (x86)\windows kits\10\include\10.0.10240.0\ucrt\stdio.h
;	COMDAT sprintf
_TEXT	SEGMENT
_Result$ = 32
_ArgList$ = 56
__$ArrayPad$ = 80
_Buffer$ = 112
_Format$ = 120
sprintf	PROC						; COMDAT

; 1776 : {

$LN3:
  00000	48 89 54 24 10	 mov	 QWORD PTR [rsp+16], rdx
  00005	48 89 4c 24 08	 mov	 QWORD PTR [rsp+8], rcx
  0000a	4c 89 44 24 18	 mov	 QWORD PTR [rsp+24], r8
  0000f	4c 89 4c 24 20	 mov	 QWORD PTR [rsp+32], r9
  00014	57		 push	 rdi
  00015	48 83 ec 60	 sub	 rsp, 96			; 00000060H
  00019	48 8b fc	 mov	 rdi, rsp
  0001c	b9 18 00 00 00	 mov	 ecx, 24
  00021	b8 cc cc cc cc	 mov	 eax, -858993460		; ccccccccH
  00026	f3 ab		 rep stosd
  00028	48 8b 4c 24 70	 mov	 rcx, QWORD PTR [rsp+112]
  0002d	48 8b 05 00 00
	00 00		 mov	 rax, QWORD PTR __security_cookie
  00034	48 33 c4	 xor	 rax, rsp
  00037	48 89 44 24 50	 mov	 QWORD PTR __$ArrayPad$[rsp], rax

; 1777 :     int _Result;
; 1778 :     va_list _ArgList;
; 1779 :     __crt_va_start(_ArgList, _Format);

  0003c	48 8d 84 24 80
	00 00 00	 lea	 rax, QWORD PTR _Format$[rsp+8]
  00044	48 89 44 24 38	 mov	 QWORD PTR _ArgList$[rsp], rax

; 1780 : 
; 1781 :     #pragma warning(push)
; 1782 :     #pragma warning(disable: 4996) // Deprecation
; 1783 :     _Result = _vsprintf_l(_Buffer, _Format, NULL, _ArgList);

  00049	4c 8b 4c 24 38	 mov	 r9, QWORD PTR _ArgList$[rsp]
  0004e	45 33 c0	 xor	 r8d, r8d
  00051	48 8b 54 24 78	 mov	 rdx, QWORD PTR _Format$[rsp]
  00056	48 8b 4c 24 70	 mov	 rcx, QWORD PTR _Buffer$[rsp]
  0005b	e8 00 00 00 00	 call	 _vsprintf_l
  00060	89 44 24 20	 mov	 DWORD PTR _Result$[rsp], eax

; 1784 :     #pragma warning(pop)
; 1785 : 
; 1786 :     __crt_va_end(_ArgList);

  00064	48 c7 44 24 38
	00 00 00 00	 mov	 QWORD PTR _ArgList$[rsp], 0

; 1787 :     return _Result;

  0006d	8b 44 24 20	 mov	 eax, DWORD PTR _Result$[rsp]

; 1788 : }

  00071	8b f8		 mov	 edi, eax
  00073	48 8b cc	 mov	 rcx, rsp
  00076	48 8d 15 00 00
	00 00		 lea	 rdx, OFFSET FLAT:sprintf$rtcFrameData
  0007d	e8 00 00 00 00	 call	 _RTC_CheckStackVars
  00082	8b c7		 mov	 eax, edi
  00084	48 8b 4c 24 50	 mov	 rcx, QWORD PTR __$ArrayPad$[rsp]
  00089	48 33 cc	 xor	 rcx, rsp
  0008c	e8 00 00 00 00	 call	 __security_check_cookie
  00091	48 83 c4 60	 add	 rsp, 96			; 00000060H
  00095	5f		 pop	 rdi
  00096	c3		 ret	 0
sprintf	ENDP
_TEXT	ENDS
; Function compile flags: /Odtp /RTCsu
; File c:\program files (x86)\windows kits\10\include\10.0.10240.0\ucrt\stdio.h
;	COMDAT _vsprintf_l
_TEXT	SEGMENT
_Buffer$ = 64
_Format$ = 72
_Locale$ = 80
_ArgList$ = 88
_vsprintf_l PROC					; COMDAT

; 1455 : {

$LN3:
  00000	4c 89 4c 24 20	 mov	 QWORD PTR [rsp+32], r9
  00005	4c 89 44 24 18	 mov	 QWORD PTR [rsp+24], r8
  0000a	48 89 54 24 10	 mov	 QWORD PTR [rsp+16], rdx
  0000f	48 89 4c 24 08	 mov	 QWORD PTR [rsp+8], rcx
  00014	57		 push	 rdi
  00015	48 83 ec 30	 sub	 rsp, 48			; 00000030H
  00019	48 8b fc	 mov	 rdi, rsp
  0001c	b9 0c 00 00 00	 mov	 ecx, 12
  00021	b8 cc cc cc cc	 mov	 eax, -858993460		; ccccccccH
  00026	f3 ab		 rep stosd
  00028	48 8b 4c 24 40	 mov	 rcx, QWORD PTR [rsp+64]

; 1456 :     #pragma warning(push)
; 1457 :     #pragma warning(disable: 4996) // Deprecation
; 1458 :     return _vsnprintf_l(_Buffer, (size_t)-1, _Format, _Locale, _ArgList);

  0002d	48 8b 44 24 58	 mov	 rax, QWORD PTR _ArgList$[rsp]
  00032	48 89 44 24 20	 mov	 QWORD PTR [rsp+32], rax
  00037	4c 8b 4c 24 50	 mov	 r9, QWORD PTR _Locale$[rsp]
  0003c	4c 8b 44 24 48	 mov	 r8, QWORD PTR _Format$[rsp]
  00041	48 c7 c2 ff ff
	ff ff		 mov	 rdx, -1
  00048	48 8b 4c 24 40	 mov	 rcx, QWORD PTR _Buffer$[rsp]
  0004d	e8 00 00 00 00	 call	 _vsnprintf_l

; 1459 :     #pragma warning(pop)
; 1460 : }

  00052	48 83 c4 30	 add	 rsp, 48			; 00000030H
  00056	5f		 pop	 rdi
  00057	c3		 ret	 0
_vsprintf_l ENDP
_TEXT	ENDS
; Function compile flags: /Odtp /RTCsu
; File c:\program files (x86)\windows kits\10\include\10.0.10240.0\ucrt\stdio.h
;	COMDAT _vsnprintf_l
_TEXT	SEGMENT
_Result$ = 48
tv74 = 52
_Buffer$ = 80
_BufferCount$ = 88
_Format$ = 96
_Locale$ = 104
_ArgList$ = 112
_vsnprintf_l PROC					; COMDAT

; 1385 : {

$LN5:
  00000	4c 89 4c 24 20	 mov	 QWORD PTR [rsp+32], r9
  00005	4c 89 44 24 18	 mov	 QWORD PTR [rsp+24], r8
  0000a	48 89 54 24 10	 mov	 QWORD PTR [rsp+16], rdx
  0000f	48 89 4c 24 08	 mov	 QWORD PTR [rsp+8], rcx
  00014	57		 push	 rdi
  00015	48 83 ec 40	 sub	 rsp, 64			; 00000040H
  00019	48 8b fc	 mov	 rdi, rsp
  0001c	b9 10 00 00 00	 mov	 ecx, 16
  00021	b8 cc cc cc cc	 mov	 eax, -858993460		; ccccccccH
  00026	f3 ab		 rep stosd
  00028	48 8b 4c 24 50	 mov	 rcx, QWORD PTR [rsp+80]

; 1386 :     int const _Result = __stdio_common_vsprintf(

  0002d	e8 00 00 00 00	 call	 __local_stdio_printf_options
  00032	48 8b 00	 mov	 rax, QWORD PTR [rax]
  00035	48 83 c8 01	 or	 rax, 1
  00039	48 8b 4c 24 70	 mov	 rcx, QWORD PTR _ArgList$[rsp]
  0003e	48 89 4c 24 28	 mov	 QWORD PTR [rsp+40], rcx
  00043	48 8b 4c 24 68	 mov	 rcx, QWORD PTR _Locale$[rsp]
  00048	48 89 4c 24 20	 mov	 QWORD PTR [rsp+32], rcx
  0004d	4c 8b 4c 24 60	 mov	 r9, QWORD PTR _Format$[rsp]
  00052	4c 8b 44 24 58	 mov	 r8, QWORD PTR _BufferCount$[rsp]
  00057	48 8b 54 24 50	 mov	 rdx, QWORD PTR _Buffer$[rsp]
  0005c	48 8b c8	 mov	 rcx, rax
  0005f	ff 15 00 00 00
	00		 call	 QWORD PTR __imp___stdio_common_vsprintf
  00065	89 44 24 30	 mov	 DWORD PTR _Result$[rsp], eax

; 1387 :         _CRT_INTERNAL_LOCAL_PRINTF_OPTIONS | _CRT_INTERNAL_PRINTF_LEGACY_VSPRINTF_NULL_TERMINATION,
; 1388 :         _Buffer, _BufferCount, _Format, _Locale, _ArgList);
; 1389 : 
; 1390 :     return _Result < 0 ? -1 : _Result;

  00069	83 7c 24 30 00	 cmp	 DWORD PTR _Result$[rsp], 0
  0006e	7d 0a		 jge	 SHORT $LN3@vsnprintf_
  00070	c7 44 24 34 ff
	ff ff ff	 mov	 DWORD PTR tv74[rsp], -1
  00078	eb 08		 jmp	 SHORT $LN4@vsnprintf_
$LN3@vsnprintf_:
  0007a	8b 44 24 30	 mov	 eax, DWORD PTR _Result$[rsp]
  0007e	89 44 24 34	 mov	 DWORD PTR tv74[rsp], eax
$LN4@vsnprintf_:
  00082	8b 44 24 34	 mov	 eax, DWORD PTR tv74[rsp]

; 1391 : }

  00086	48 83 c4 40	 add	 rsp, 64			; 00000040H
  0008a	5f		 pop	 rdi
  0008b	c3		 ret	 0
_vsnprintf_l ENDP
_TEXT	ENDS
; Function compile flags: /Odtp /RTCsu
; File c:\program files (x86)\windows kits\10\include\10.0.10240.0\ucrt\corecrt_stdio_config.h
;	COMDAT __local_stdio_printf_options
_TEXT	SEGMENT
__local_stdio_printf_options PROC			; COMDAT

; 73   : {

$LN3:
  00000	40 57		 push	 rdi

; 74   :     static unsigned __int64 _OptionsStorage;
; 75   :     return &_OptionsStorage;

  00002	48 8d 05 00 00
	00 00		 lea	 rax, OFFSET FLAT:?_OptionsStorage@?1??__local_stdio_printf_options@@9@9 ; `__local_stdio_printf_options'::`2'::_OptionsStorage

; 76   : }

  00009	5f		 pop	 rdi
  0000a	c3		 ret	 0
__local_stdio_printf_options ENDP
_TEXT	ENDS
; Function compile flags: /Odtp /RTCsu
; File e:\infinia-library-3.0\com\src\comprofileutil.c
_TEXT	SEGMENT
confEntryDestroy PROC

; 638  : void  confEntryDestroy() {}

$LN3:
  00000	40 57		 push	 rdi
  00002	5f		 pop	 rdi
  00003	c3		 ret	 0
confEntryDestroy ENDP
_TEXT	ENDS
; Function compile flags: /Odtp /RTCsu
; File e:\infinia-library-3.0\com\src\comprofileutil.c
_TEXT	SEGMENT
SavePrivateProfile PROC

; 637  : void  SavePrivateProfile() {}

$LN3:
  00000	40 57		 push	 rdi
  00002	5f		 pop	 rdi
  00003	c3		 ret	 0
SavePrivateProfile ENDP
_TEXT	ENDS
; Function compile flags: /Odtp /RTCsu
; File e:\infinia-library-3.0\com\src\comprofileutil.c
_TEXT	SEGMENT
section$ = 48
key$ = 56
val$ = 64
fName$ = 72
PutPrivateProfileString PROC

; 629  : {

$LN3:
  00000	4c 89 4c 24 20	 mov	 QWORD PTR [rsp+32], r9
  00005	4c 89 44 24 18	 mov	 QWORD PTR [rsp+24], r8
  0000a	48 89 54 24 10	 mov	 QWORD PTR [rsp+16], rdx
  0000f	48 89 4c 24 08	 mov	 QWORD PTR [rsp+8], rcx
  00014	57		 push	 rdi
  00015	48 83 ec 20	 sub	 rsp, 32			; 00000020H
  00019	48 8b fc	 mov	 rdi, rsp
  0001c	b9 08 00 00 00	 mov	 ecx, 8
  00021	b8 cc cc cc cc	 mov	 eax, -858993460		; ccccccccH
  00026	f3 ab		 rep stosd
  00028	48 8b 4c 24 30	 mov	 rcx, QWORD PTR [rsp+48]

; 630  : #ifndef UNICODE
; 631  : 	WritePrivateProfileStringA(section, key, val, fName);

  0002d	4c 8b 4c 24 48	 mov	 r9, QWORD PTR fName$[rsp]
  00032	4c 8b 44 24 40	 mov	 r8, QWORD PTR val$[rsp]
  00037	48 8b 54 24 38	 mov	 rdx, QWORD PTR key$[rsp]
  0003c	48 8b 4c 24 30	 mov	 rcx, QWORD PTR section$[rsp]
  00041	ff 15 00 00 00
	00		 call	 QWORD PTR __imp_WritePrivateProfileStringA

; 632  : #else
; 633  : 	WritePrivateProfileString(section, key, val, fName);
; 634  : #endif
; 635  : }

  00047	48 83 c4 20	 add	 rsp, 32			; 00000020H
  0004b	5f		 pop	 rdi
  0004c	c3		 ret	 0
PutPrivateProfileString ENDP
_TEXT	ENDS
; Function compile flags: /Odtp /RTCsu
; File e:\infinia-library-3.0\com\src\comprofileutil.c
_TEXT	SEGMENT
szVal$ = 40
__$ArrayPad$ = 96
section$ = 128
key$ = 136
val$ = 144
fName$ = 152
PutPrivateProfileInt PROC

; 613  : {

$LN3:
  00000	4c 89 4c 24 20	 mov	 QWORD PTR [rsp+32], r9
  00005	44 89 44 24 18	 mov	 DWORD PTR [rsp+24], r8d
  0000a	48 89 54 24 10	 mov	 QWORD PTR [rsp+16], rdx
  0000f	48 89 4c 24 08	 mov	 QWORD PTR [rsp+8], rcx
  00014	57		 push	 rdi
  00015	48 83 ec 70	 sub	 rsp, 112		; 00000070H
  00019	48 8b fc	 mov	 rdi, rsp
  0001c	b9 1c 00 00 00	 mov	 ecx, 28
  00021	b8 cc cc cc cc	 mov	 eax, -858993460		; ccccccccH
  00026	f3 ab		 rep stosd
  00028	48 8b 8c 24 80
	00 00 00	 mov	 rcx, QWORD PTR [rsp+128]
  00030	48 8b 05 00 00
	00 00		 mov	 rax, QWORD PTR __security_cookie
  00037	48 33 c4	 xor	 rax, rsp
  0003a	48 89 44 24 60	 mov	 QWORD PTR __$ArrayPad$[rsp], rax

; 614  : 	TCHAR	szVal[32];
; 615  : 
; 616  : 	memset(szVal, 0x00, sizeof(szVal));

  0003f	41 b8 20 00 00
	00		 mov	 r8d, 32			; 00000020H
  00045	33 d2		 xor	 edx, edx
  00047	48 8d 4c 24 28	 lea	 rcx, QWORD PTR szVal$[rsp]
  0004c	e8 00 00 00 00	 call	 memset

; 617  : 	_stprintf(szVal, _T("%d"), val);

  00051	44 8b 84 24 90
	00 00 00	 mov	 r8d, DWORD PTR val$[rsp]
  00059	48 8d 15 00 00
	00 00		 lea	 rdx, OFFSET FLAT:$SG85892
  00060	48 8d 4c 24 28	 lea	 rcx, QWORD PTR szVal$[rsp]
  00065	e8 00 00 00 00	 call	 sprintf

; 618  : #ifndef UNICODE
; 619  : 	WritePrivateProfileStringA(section, key, szVal, fName);

  0006a	4c 8b 8c 24 98
	00 00 00	 mov	 r9, QWORD PTR fName$[rsp]
  00072	4c 8d 44 24 28	 lea	 r8, QWORD PTR szVal$[rsp]
  00077	48 8b 94 24 88
	00 00 00	 mov	 rdx, QWORD PTR key$[rsp]
  0007f	48 8b 8c 24 80
	00 00 00	 mov	 rcx, QWORD PTR section$[rsp]
  00087	ff 15 00 00 00
	00		 call	 QWORD PTR __imp_WritePrivateProfileStringA

; 620  : #else
; 621  : 	WritePrivateProfileString(section, key, szVal, fName);
; 622  : #endif
; 623  : 
; 624  : }

  0008d	48 8b cc	 mov	 rcx, rsp
  00090	48 8d 15 00 00
	00 00		 lea	 rdx, OFFSET FLAT:PutPrivateProfileInt$rtcFrameData
  00097	e8 00 00 00 00	 call	 _RTC_CheckStackVars
  0009c	48 8b 4c 24 60	 mov	 rcx, QWORD PTR __$ArrayPad$[rsp]
  000a1	48 33 cc	 xor	 rcx, rsp
  000a4	e8 00 00 00 00	 call	 __security_check_cookie
  000a9	48 83 c4 70	 add	 rsp, 112		; 00000070H
  000ad	5f		 pop	 rdi
  000ae	c3		 ret	 0
PutPrivateProfileInt ENDP
_TEXT	ENDS
END
