; Listing generated by Microsoft (R) Optimizing Compiler Version 19.00.24215.1 

include listing.inc

INCLUDELIB MSVCRTD
INCLUDELIB OLDNAMES

PUBLIC	?gs_pLogger@@3PEAVCSTLogger@@EA			; gs_pLogger
PUBLIC	?gs_pToday_time@@3PEAUSTTodayTime@@EA		; gs_pToday_time
_BSS	SEGMENT
?gs_pLogger@@3PEAVCSTLogger@@EA DQ 01H DUP (?)		; gs_pLogger
?gs_pToday_time@@3PEAUSTTodayTime@@EA DQ 01H DUP (?)	; gs_pToday_time
_BSS	ENDS
CONST	SEGMENT
$SG44304 DB	'LIST_MAX', 00H
$SG44402 DB	00H
$SG44429 DB	00H
	ORG $+1
$SG44305 DB	'LOG', 00H
$SG44306 DB	'IDX_BUF_%d', 00H
	ORG $+1
$SG44307 DB	'MPOOL', 00H
	ORG $+2
$SG44485 DB	'%s', 00H
	ORG $+1
$SG44308 DB	'IDX_BUF_%d', 00H
	ORG $+1
$SG44309 DB	'MPOOL', 00H
	ORG $+6
$SG44310 DB	'IDX_BUF_%d', 00H
	ORG $+1
$SG44311 DB	'MPOOL', 00H
	ORG $+6
$SG44319 DB	'CSTLogger::initMemory ERROR! IS_CREATE_LOGGER flag off', 00H
	ORG $+1
$SG44321 DB	'CSTLogger::initMemory ERROR! m_sLogQueue.pList is NULL', 00H
	ORG $+1
$SG44339 DB	'CSTLogger::initCSLogger ERROR! IS_CREATE_LOGGER flag off'
	DB	00H
	ORG $+3
$SG44380 DB	'%02x ', 00H
	ORG $+6
$SG44350 DB	'CSTLogger::Start ERROR! IS_CREATE_LOGGER flag off', 00H
	ORG $+6
$SG44352 DB	'FAIL CREATE LogThread !!', 0aH, 00H
	ORG $+6
$SG44373 DB	'[%04d%02d%02d %02d%02d%02d] nSIdx[%d] Send [%d] PKIdx[%d'
	DB	'] ', 00H
	ORG $+5
$SG44374 DB	'[%04d%02d%02d %02d%02d%02d] nSIdx[%d] Recv [%d] PKIdx[%d'
	DB	'] ', 00H
	ORG $+5
$SG44377 DB	'[%04d%02d%02d %02d%02d%02d] Undefind nkind[%d] [%d] PKId'
	DB	'x[%d] ', 00H
	ORG $+1
$SG44406 DB	'[INFO] ', 00H
$SG44375 DB	'[%04d%02d%02d %02d%02d%02d] nSIdx[%d] send Queue [%d] PK'
	DB	'Idx[%d] ', 00H
	ORG $+7
$SG44405 DB	'[WARNING] ', 00H
	ORG $+5
$SG44408 DB	'[FATAL] [ALARM] ', 00H
	ORG $+3
$SG44482 DB	'%s%s', 0aH, 00H
	ORG $+6
$SG44409 DB	'[%s %s] %s', 00H
	ORG $+5
$SG44433 DB	'[INFO] ', 00H
$SG44376 DB	'[%04d%02d%02d %02d%02d%02d] nSIdx[%d] recv Queue [%d] PK'
	DB	'Idx[%d] ', 00H
	ORG $+7
$SG44403 DB	'[DEBUG] ', 00H
	ORG $+7
$SG44404 DB	'[TRACE] ', 00H
	ORG $+7
$SG44407 DB	'[ERROR] ', 00H
	ORG $+7
$SG44430 DB	'[DEBUG] ', 00H
	ORG $+7
$SG44431 DB	'[TRACE] ', 00H
	ORG $+7
$SG44432 DB	'[WARNING] ', 00H
	ORG $+5
$SG44434 DB	'[ERROR] ', 00H
	ORG $+7
$SG44435 DB	'[FATAL] [ALARM] ', 00H
	ORG $+7
$SG44436 DB	'[%s %s] %s', 00H
	ORG $+5
$SG44454 DB	'[%s %s] [ERROR] %s %s %d ', 00H
	ORG $+6
$SG44472 DB	'[%s %s] [DEBUG] %s %s %d ', 00H
	ORG $+6
$SG44484 DB	'CSTLogger::_putLogQueue m_sLogQueue is FULL!! ', 0aH, 0aH
	DB	00H
	ORG $+7
$SG44520 DB	'm_pfDayChange Proc', 00H
	ORG $+5
$SG44527 DB	'nLogSize[%d] nLimitSize[%d] [%s-%s]', 00H
	ORG $+4
$SG44535 DB	'CSTLogger::dayChangedProc Day Changed! ', 00H
$SG44537 DB	'delete log file count[%d] date[%s]', 00H
	ORG $+5
$SG44549 DB	'%s/%s-%s-%d.log', 00H
$SG44552 DB	'%s/%s_%d.log', 00H
	ORG $+3
$SG44553 DB	'delete Log[%s] nRes[%d]', 00H
$SG44556 DB	'%s/%s_%d.log', 00H
	ORG $+3
$SG44557 DB	'delete Log[%s] nRes[%d]', 00H
$SG44559 DB	'%s/%s_%d.log', 00H
	ORG $+3
$SG44560 DB	'delete Log[%s] nRes[%d]', 00H
$SG44561 DB	'%s/%s_%d.log', 00H
	ORG $+3
$SG44562 DB	'[%s] Logger Open', 0aH, 00H
CONST	ENDS
PUBLIC	?SetLogLevel@CLogger@@QEAAXH@Z			; CLogger::SetLogLevel
PUBLIC	?SetDateTimeFlag@CLogger@@QEAAXH@Z		; CLogger::SetDateTimeFlag
PUBLIC	?__autoclassinit2@CLogger@@QEAAX_K@Z		; CLogger::__autoclassinit2
PUBLIC	??_GCLogger@@QEAAPEAXI@Z			; CLogger::`scalar deleting destructor'
PUBLIC	__local_stdio_printf_options
PUBLIC	_vfprintf_l
PUBLIC	??$__vcrt_va_start_verify_argument_type@QEBD@@YAXXZ ; __vcrt_va_start_verify_argument_type<char const * __ptr64 const>
PUBLIC	printf
PUBLIC	_vsnprintf_l
PUBLIC	_vsnprintf
PUBLIC	_vsprintf_l
PUBLIC	sprintf
PUBLIC	??1abstract_condition@common@@UEAA@XZ		; common::abstract_condition::~abstract_condition
PUBLIC	??0abstract_condition@common@@QEAA@XZ		; common::abstract_condition::abstract_condition
PUBLIC	??_Gabstract_condition@common@@UEAAPEAXI@Z	; common::abstract_condition::`scalar deleting destructor'
PUBLIC	??0condition@win32@common@@QEAA@XZ		; common::win32::condition::condition
PUBLIC	??1condition@win32@common@@UEAA@XZ		; common::win32::condition::~condition
PUBLIC	?signal@condition@win32@common@@UEAAXXZ		; common::win32::condition::signal
PUBLIC	?signal_all@condition@win32@common@@UEAAXXZ	; common::win32::condition::signal_all
PUBLIC	?wait@condition@win32@common@@QEAA_NHPEAVcritical_section@23@@Z ; common::win32::condition::wait
PUBLIC	??_Gcondition@win32@common@@UEAAPEAXI@Z		; common::win32::condition::`scalar deleting destructor'
PUBLIC	??0win_atomic@win32@common@@QEAA@XZ		; common::win32::win_atomic::win_atomic
PUBLIC	??1win_atomic@win32@common@@QEAA@XZ		; common::win32::win_atomic::~win_atomic
PUBLIC	?size@StCOMQueue@@QEAAHXZ			; StCOMQueue::size
PUBLIC	?pop@StCOMQueue@@QEAAXXZ			; StCOMQueue::pop
PUBLIC	?push@StCOMQueue@@QEAAXPEAX@Z			; StCOMQueue::push
PUBLIC	?isFull@StCOMQueue@@QEAA_NXZ			; StCOMQueue::isFull
PUBLIC	?front@StCOMQueue@@QEAAPEAXXZ			; StCOMQueue::front
PUBLIC	?Year@CDateTime@@QEAAHXZ			; CDateTime::Year
PUBLIC	?Month@CDateTime@@QEAAHXZ			; CDateTime::Month
PUBLIC	?Mday@CDateTime@@QEAAHXZ			; CDateTime::Mday
PUBLIC	?Wday@CDateTime@@QEAAHXZ			; CDateTime::Wday
PUBLIC	?Hour@CDateTime@@QEAAHXZ			; CDateTime::Hour
PUBLIC	?Minute@CDateTime@@QEAAHXZ			; CDateTime::Minute
PUBLIC	?Sec@CDateTime@@QEAAHXZ				; CDateTime::Sec
PUBLIC	??0CSTLogger@@QEAA@XZ				; CSTLogger::CSTLogger
PUBLIC	??0CSTLogger@@QEAA@_N@Z				; CSTLogger::CSTLogger
PUBLIC	??1CSTLogger@@QEAA@XZ				; CSTLogger::~CSTLogger
PUBLIC	?initSystem@CSTLogger@@QEAA_NXZ			; CSTLogger::initSystem
PUBLIC	?init@CSTLogger@@QEAA_NH@Z			; CSTLogger::init
PUBLIC	?initCSLogger@CSTLogger@@QEAAXPEBD0H@Z		; CSTLogger::initCSLogger
PUBLIC	?Start@CSTLogger@@QEAA_NXZ			; CSTLogger::Start
PUBLIC	?DoWritePacket@CSTLogger@@QEAAXHHHPEADH@Z	; CSTLogger::DoWritePacket
PUBLIC	?PutLogQueue@CSTLogger@@QEAAXHPEBDZZ		; CSTLogger::PutLogQueue
PUBLIC	?PutLogQueueL@CSTLogger@@QEAAXHHPEBDZZ		; CSTLogger::PutLogQueueL
PUBLIC	?GetQueue@CSTLogger@@QEAAXXZ			; CSTLogger::GetQueue
PUBLIC	?LogThread@CSTLogger@@SAKPEAX@Z			; CSTLogger::LogThread
PUBLIC	?setPFDayChange@CSTLogger@@QEAAXP6AXH@Z@Z	; CSTLogger::setPFDayChange
PUBLIC	?setPFHourChange@CSTLogger@@QEAAXP6AXH@Z@Z	; CSTLogger::setPFHourChange
PUBLIC	?setPFProcessDataFromQueue@CSTLogger@@QEAAXP6AXPEAX0@Z0@Z ; CSTLogger::setPFProcessDataFromQueue
PUBLIC	?TimeProc@CSTLogger@@QEAAXPEAVCDateTime@@@Z	; CSTLogger::TimeProc
PUBLIC	?addSeq@CSTLogger@@QEAAXXZ			; CSTLogger::addSeq
PUBLIC	?_ErrorLog@CSTLogger@@QEAAXPEBD0H0ZZ		; CSTLogger::_ErrorLog
PUBLIC	?_DebugLog@CSTLogger@@QEAAXPEBD0H0ZZ		; CSTLogger::_DebugLog
PUBLIC	?dayChangedProc@CSTLogger@@AEAAXPEAVCDateTime@@@Z ; CSTLogger::dayChangedProc
PUBLIC	?myLoggerOpen@CSTLogger@@AEAAXPEAVCDateTime@@@Z	; CSTLogger::myLoggerOpen
PUBLIC	?_putLogQueue@CSTLogger@@AEAAXPEAD0H0@Z		; CSTLogger::_putLogQueue
PUBLIC	?_initClass@CSTLogger@@AEAAX_N@Z		; CSTLogger::_initClass
PUBLIC	??$__vcrt_va_start_verify_argument_type@PEBD@@YAXXZ ; __vcrt_va_start_verify_argument_type<char const * __ptr64>
PUBLIC	?_OptionsStorage@?1??__local_stdio_printf_options@@9@4_KA ; `__local_stdio_printf_options'::`2'::_OptionsStorage
PUBLIC	??_7abstract_condition@common@@6B@		; common::abstract_condition::`vftable'
PUBLIC	??_7condition@win32@common@@6B@			; common::win32::condition::`vftable'
PUBLIC	??_R4abstract_condition@common@@6B@		; common::abstract_condition::`RTTI Complete Object Locator'
PUBLIC	??_R0?AVabstract_condition@common@@@8		; common::abstract_condition `RTTI Type Descriptor'
PUBLIC	??_R3abstract_condition@common@@8		; common::abstract_condition::`RTTI Class Hierarchy Descriptor'
PUBLIC	??_R2abstract_condition@common@@8		; common::abstract_condition::`RTTI Base Class Array'
PUBLIC	??_R1A@?0A@EA@abstract_condition@common@@8	; common::abstract_condition::`RTTI Base Class Descriptor at (0,-1,0,64)'
PUBLIC	??_R4condition@win32@common@@6B@		; common::win32::condition::`RTTI Complete Object Locator'
PUBLIC	??_R0?AVcondition@win32@common@@@8		; common::win32::condition `RTTI Type Descriptor'
PUBLIC	??_R3condition@win32@common@@8			; common::win32::condition::`RTTI Class Hierarchy Descriptor'
PUBLIC	??_R2condition@win32@common@@8			; common::win32::condition::`RTTI Base Class Array'
PUBLIC	??_R1A@?0A@EA@condition@win32@common@@8		; common::win32::condition::`RTTI Base Class Descriptor at (0,-1,0,64)'
EXTRN	_purecall:PROC
EXTRN	??2@YAPEAX_K@Z:PROC				; operator new
EXTRN	??3@YAXPEAX_K@Z:PROC				; operator delete
EXTRN	??_U@YAPEAX_K@Z:PROC				; operator new[]
EXTRN	atexit:PROC
EXTRN	memset:PROC
EXTRN	strcpy:PROC
EXTRN	strlen:PROC
EXTRN	??0CLogger@@QEAA@XZ:PROC			; CLogger::CLogger
EXTRN	??1CLogger@@QEAA@XZ:PROC			; CLogger::~CLogger
EXTRN	?OpenLogger@CLogger@@QEAAXPEBD@Z:PROC		; CLogger::OpenLogger
EXTRN	?LogPrint@CLogger@@QEAAXPEAD@Z:PROC		; CLogger::LogPrint
EXTRN	?getLogSize@CLogger@@QEAAHXZ:PROC		; CLogger::getLogSize
EXTRN	__imp___acrt_iob_func:PROC
EXTRN	__imp_remove:PROC
EXTRN	__imp___stdio_common_vfprintf:PROC
EXTRN	__imp___stdio_common_vsprintf:PROC
EXTRN	__imp_calloc:PROC
EXTRN	__imp_free:PROC
EXTRN	__imp_abort:PROC
EXTRN	__imp_atoi:PROC
EXTRN	__imp_CreateThread:PROC
EXTRN	__imp_SetEvent:PROC
EXTRN	__imp_ResetEvent:PROC
EXTRN	__imp_WaitForSingleObject:PROC
EXTRN	__imp_CloseHandle:PROC
EXTRN	__imp_CreateEventA:PROC
EXTRN	__imp_GetPrivateProfileIntA:PROC
EXTRN	??_Eabstract_condition@common@@UEAAPEAXI@Z:PROC	; common::abstract_condition::`vector deleting destructor'
EXTRN	??_Econdition@win32@common@@UEAAPEAXI@Z:PROC	; common::win32::condition::`vector deleting destructor'
EXTRN	initSpinLock:PROC
EXTRN	acquireSpinLock:PROC
EXTRN	releaseSpinLock:PROC
EXTRN	?init@CMemManager@@QEAAXPEAUSTBufConf@@@Z:PROC	; CMemManager::init
EXTRN	?newBuf@CMemManager@@QEAAPEAD_K@Z:PROC		; CMemManager::newBuf
EXTRN	?newBuf@CMemManager@@QEAAPEAD_KPEAH@Z:PROC	; CMemManager::newBuf
EXTRN	?delBuf@CMemManager@@QEAAXPEAD_K@Z:PROC		; CMemManager::delBuf
EXTRN	??0CDateTime@@QEAA@XZ:PROC			; CDateTime::CDateTime
EXTRN	??1CDateTime@@QEAA@XZ:PROC			; CDateTime::~CDateTime
EXTRN	?DateString@CDateTime@@QEAAPEBDHD@Z:PROC	; CDateTime::DateString
EXTRN	?DateString@CDateTime@@QEAAPEBDD@Z:PROC		; CDateTime::DateString
EXTRN	?TimeString@CDateTime@@QEAAPEBDD@Z:PROC		; CDateTime::TimeString
EXTRN	?DateString2@CDateTime@@QEAAPEBDXZ:PROC		; CDateTime::DateString2
EXTRN	?TimeString2@CDateTime@@QEAAPEBDXZ:PROC		; CDateTime::TimeString2
EXTRN	?TimeString3@CDateTime@@QEAAPEBDXZ:PROC		; CDateTime::TimeString3
EXTRN	?delSSFile@CFileUtil@@SAHPEADH0@Z:PROC		; CFileUtil::delSSFile
EXTRN	?initSystem@CEnv@@SAHPEAD@Z:PROC		; CEnv::initSystem
EXTRN	?getPathSystem@CEnv@@SAPEADXZ:PROC		; CEnv::getPathSystem
EXTRN	_RTC_CheckStackVars:PROC
EXTRN	_RTC_InitBase:PROC
EXTRN	_RTC_Shutdown:PROC
EXTRN	__CxxFrameHandler3:PROC
EXTRN	__GSHandlerCheck:PROC
EXTRN	__GSHandlerCheck_EH:PROC
EXTRN	__chkstk:PROC
EXTRN	__security_check_cookie:PROC
EXTRN	?g_cMMgr@@3VCMemManager@@A:BYTE			; g_cMMgr
EXTRN	??_7type_info@@6B@:BYTE				; type_info::`vftable'
EXTRN	__security_cookie:QWORD
;	COMDAT ?_OptionsStorage@?1??__local_stdio_printf_options@@9@4_KA
_BSS	SEGMENT
?_OptionsStorage@?1??__local_stdio_printf_options@@9@4_KA DQ 01H DUP (?) ; `__local_stdio_printf_options'::`2'::_OptionsStorage
_BSS	ENDS
_BSS	SEGMENT
?Lock_Logger@@3Vwin_atomic@win32@common@@A DD 01H DUP (?) ; Lock_Logger
?gs_today_time@@3USTTodayTime@@A DB 01cH DUP (?)	; gs_today_time
_BSS	ENDS
;	COMDAT pdata
pdata	SEGMENT
$pdata$?SetLogLevel@CLogger@@QEAAXH@Z DD imagerel $LN3
	DD	imagerel $LN3+23
	DD	imagerel $unwind$?SetLogLevel@CLogger@@QEAAXH@Z
pdata	ENDS
;	COMDAT pdata
pdata	SEGMENT
$pdata$?SetDateTimeFlag@CLogger@@QEAAXH@Z DD imagerel $LN3
	DD	imagerel $LN3+24
	DD	imagerel $unwind$?SetDateTimeFlag@CLogger@@QEAAXH@Z
pdata	ENDS
;	COMDAT pdata
pdata	SEGMENT
$pdata$?__autoclassinit2@CLogger@@QEAAX_K@Z DD imagerel $LN3
	DD	imagerel $LN3+27
	DD	imagerel $unwind$?__autoclassinit2@CLogger@@QEAAX_K@Z
pdata	ENDS
;	COMDAT pdata
pdata	SEGMENT
$pdata$??_GCLogger@@QEAAPEAXI@Z DD imagerel $LN4
	DD	imagerel $LN4+81
	DD	imagerel $unwind$??_GCLogger@@QEAAPEAXI@Z
pdata	ENDS
;	COMDAT pdata
pdata	SEGMENT
$pdata$__local_stdio_printf_options DD imagerel $LN3
	DD	imagerel $LN3+11
	DD	imagerel $unwind$__local_stdio_printf_options
pdata	ENDS
;	COMDAT pdata
pdata	SEGMENT
$pdata$_vfprintf_l DD imagerel $LN3
	DD	imagerel $LN3+90
	DD	imagerel $unwind$_vfprintf_l
pdata	ENDS
;	COMDAT pdata
pdata	SEGMENT
$pdata$??$__vcrt_va_start_verify_argument_type@QEBD@@YAXXZ DD imagerel $LN3
	DD	imagerel $LN3+4
	DD	imagerel $unwind$??$__vcrt_va_start_verify_argument_type@QEBD@@YAXXZ
pdata	ENDS
;	COMDAT pdata
pdata	SEGMENT
$pdata$printf DD imagerel $LN3
	DD	imagerel $LN3+162
	DD	imagerel $unwind$printf
pdata	ENDS
;	COMDAT pdata
pdata	SEGMENT
$pdata$_vsnprintf_l DD imagerel $LN5
	DD	imagerel $LN5+140
	DD	imagerel $unwind$_vsnprintf_l
pdata	ENDS
;	COMDAT pdata
pdata	SEGMENT
$pdata$_vsnprintf DD imagerel $LN3
	DD	imagerel $LN3+84
	DD	imagerel $unwind$_vsnprintf
pdata	ENDS
;	COMDAT pdata
pdata	SEGMENT
$pdata$_vsprintf_l DD imagerel $LN3
	DD	imagerel $LN3+88
	DD	imagerel $unwind$_vsprintf_l
pdata	ENDS
;	COMDAT pdata
pdata	SEGMENT
$pdata$sprintf DD imagerel $LN3
	DD	imagerel $LN3+156
	DD	imagerel $unwind$sprintf
pdata	ENDS
;	COMDAT pdata
pdata	SEGMENT
$pdata$??1abstract_condition@common@@UEAA@XZ DD imagerel $LN3
	DD	imagerel $LN3+23
	DD	imagerel $unwind$??1abstract_condition@common@@UEAA@XZ
pdata	ENDS
;	COMDAT pdata
pdata	SEGMENT
$pdata$??0abstract_condition@common@@QEAA@XZ DD imagerel $LN3
	DD	imagerel $LN3+28
	DD	imagerel $unwind$??0abstract_condition@common@@QEAA@XZ
pdata	ENDS
;	COMDAT pdata
pdata	SEGMENT
$pdata$??_Gabstract_condition@common@@UEAAPEAXI@Z DD imagerel $LN4
	DD	imagerel $LN4+81
	DD	imagerel $unwind$??_Gabstract_condition@common@@UEAAPEAXI@Z
pdata	ENDS
;	COMDAT pdata
pdata	SEGMENT
$pdata$??0condition@win32@common@@QEAA@XZ DD imagerel $LN4
	DD	imagerel $LN4+94
	DD	imagerel $unwind$??0condition@win32@common@@QEAA@XZ
pdata	ENDS
;	COMDAT pdata
pdata	SEGMENT
$pdata$??1condition@win32@common@@UEAA@XZ DD imagerel $LN3
	DD	imagerel $LN3+76
	DD	imagerel $unwind$??1condition@win32@common@@UEAA@XZ
pdata	ENDS
;	COMDAT pdata
pdata	SEGMENT
$pdata$?signal@condition@win32@common@@UEAAXXZ DD imagerel $LN3
	DD	imagerel $LN3+51
	DD	imagerel $unwind$?signal@condition@win32@common@@UEAAXXZ
pdata	ENDS
;	COMDAT pdata
pdata	SEGMENT
$pdata$?signal_all@condition@win32@common@@UEAAXXZ DD imagerel $LN3
	DD	imagerel $LN3+42
	DD	imagerel $unwind$?signal_all@condition@win32@common@@UEAAXXZ
pdata	ENDS
;	COMDAT pdata
pdata	SEGMENT
$pdata$?wait@condition@win32@common@@QEAA_NHPEAVcritical_section@23@@Z DD imagerel $LN9
	DD	imagerel $LN9+198
	DD	imagerel $unwind$?wait@condition@win32@common@@QEAA_NHPEAVcritical_section@23@@Z
pdata	ENDS
;	COMDAT pdata
pdata	SEGMENT
$pdata$??_Gcondition@win32@common@@UEAAPEAXI@Z DD imagerel $LN4
	DD	imagerel $LN4+81
	DD	imagerel $unwind$??_Gcondition@win32@common@@UEAAPEAXI@Z
pdata	ENDS
;	COMDAT pdata
pdata	SEGMENT
$pdata$??0win_atomic@win32@common@@QEAA@XZ DD imagerel $LN3
	DD	imagerel $LN3+24
	DD	imagerel $unwind$??0win_atomic@win32@common@@QEAA@XZ
pdata	ENDS
;	COMDAT pdata
pdata	SEGMENT
$pdata$??1win_atomic@win32@common@@QEAA@XZ DD imagerel $LN3
	DD	imagerel $LN3+8
	DD	imagerel $unwind$??1win_atomic@win32@common@@QEAA@XZ
pdata	ENDS
;	COMDAT pdata
pdata	SEGMENT
$pdata$?size@StCOMQueue@@QEAAHXZ DD imagerel $LN4
	DD	imagerel $LN4+72
	DD	imagerel $unwind$?size@StCOMQueue@@QEAAHXZ
pdata	ENDS
;	COMDAT pdata
pdata	SEGMENT
$pdata$?pop@StCOMQueue@@QEAAXXZ DD imagerel $LN4
	DD	imagerel $LN4+82
	DD	imagerel $unwind$?pop@StCOMQueue@@QEAAXXZ
pdata	ENDS
;	COMDAT pdata
pdata	SEGMENT
$pdata$?push@StCOMQueue@@QEAAXPEAX@Z DD imagerel $LN4
	DD	imagerel $LN4+83
	DD	imagerel $unwind$?push@StCOMQueue@@QEAAXPEAX@Z
pdata	ENDS
;	COMDAT pdata
pdata	SEGMENT
$pdata$?isFull@StCOMQueue@@QEAA_NXZ DD imagerel $LN5
	DD	imagerel $LN5+79
	DD	imagerel $unwind$?isFull@StCOMQueue@@QEAA_NXZ
pdata	ENDS
;	COMDAT pdata
pdata	SEGMENT
$pdata$?front@StCOMQueue@@QEAAPEAXXZ DD imagerel $LN3
	DD	imagerel $LN3+30
	DD	imagerel $unwind$?front@StCOMQueue@@QEAAPEAXXZ
pdata	ENDS
;	COMDAT pdata
pdata	SEGMENT
$pdata$?Year@CDateTime@@QEAAHXZ DD imagerel $LN3
	DD	imagerel $LN3+21
	DD	imagerel $unwind$?Year@CDateTime@@QEAAHXZ
pdata	ENDS
;	COMDAT pdata
pdata	SEGMENT
$pdata$?Month@CDateTime@@QEAAHXZ DD imagerel $LN3
	DD	imagerel $LN3+18
	DD	imagerel $unwind$?Month@CDateTime@@QEAAHXZ
pdata	ENDS
;	COMDAT pdata
pdata	SEGMENT
$pdata$?Mday@CDateTime@@QEAAHXZ DD imagerel $LN3
	DD	imagerel $LN3+16
	DD	imagerel $unwind$?Mday@CDateTime@@QEAAHXZ
pdata	ENDS
;	COMDAT pdata
pdata	SEGMENT
$pdata$?Wday@CDateTime@@QEAAHXZ DD imagerel $LN3
	DD	imagerel $LN3+16
	DD	imagerel $unwind$?Wday@CDateTime@@QEAAHXZ
pdata	ENDS
;	COMDAT pdata
pdata	SEGMENT
$pdata$?Hour@CDateTime@@QEAAHXZ DD imagerel $LN3
	DD	imagerel $LN3+16
	DD	imagerel $unwind$?Hour@CDateTime@@QEAAHXZ
pdata	ENDS
;	COMDAT pdata
pdata	SEGMENT
$pdata$?Minute@CDateTime@@QEAAHXZ DD imagerel $LN3
	DD	imagerel $LN3+16
	DD	imagerel $unwind$?Minute@CDateTime@@QEAAHXZ
pdata	ENDS
;	COMDAT pdata
pdata	SEGMENT
$pdata$?Sec@CDateTime@@QEAAHXZ DD imagerel $LN3
	DD	imagerel $LN3+15
	DD	imagerel $unwind$?Sec@CDateTime@@QEAAHXZ
pdata	ENDS
pdata	SEGMENT
$pdata$??0CSTLogger@@QEAA@XZ DD imagerel $LN4
	DD	imagerel $LN4+81
	DD	imagerel $unwind$??0CSTLogger@@QEAA@XZ
pdata	ENDS
pdata	SEGMENT
$pdata$?dtor$0@?0???0CSTLogger@@QEAA@XZ@4HA DD imagerel ?dtor$0@?0???0CSTLogger@@QEAA@XZ@4HA
	DD	imagerel ?dtor$0@?0???0CSTLogger@@QEAA@XZ@4HA+39
	DD	imagerel $unwind$?dtor$0@?0???0CSTLogger@@QEAA@XZ@4HA
pdata	ENDS
pdata	SEGMENT
$pdata$??0CSTLogger@@QEAA@_N@Z DD imagerel $LN4
	DD	imagerel $LN4+88
	DD	imagerel $unwind$??0CSTLogger@@QEAA@_N@Z
pdata	ENDS
pdata	SEGMENT
$pdata$?dtor$0@?0???0CSTLogger@@QEAA@_N@Z@4HA DD imagerel ?dtor$0@?0???0CSTLogger@@QEAA@_N@Z@4HA
	DD	imagerel ?dtor$0@?0???0CSTLogger@@QEAA@_N@Z@4HA+39
	DD	imagerel $unwind$?dtor$0@?0???0CSTLogger@@QEAA@_N@Z@4HA
pdata	ENDS
pdata	SEGMENT
$pdata$??1CSTLogger@@QEAA@XZ DD imagerel $LN9
	DD	imagerel $LN9+310
	DD	imagerel $unwind$??1CSTLogger@@QEAA@XZ
$pdata$?initSystem@CSTLogger@@QEAA_NXZ DD imagerel $LN13
	DD	imagerel $LN13+667
	DD	imagerel $unwind$?initSystem@CSTLogger@@QEAA_NXZ
$pdata$?init@CSTLogger@@QEAA_NH@Z DD imagerel $LN5
	DD	imagerel $LN5+184
	DD	imagerel $unwind$?init@CSTLogger@@QEAA_NH@Z
$pdata$?initCSLogger@CSTLogger@@QEAAXPEBD0H@Z DD imagerel $LN8
	DD	imagerel $LN8+604
	DD	imagerel $unwind$?initCSLogger@CSTLogger@@QEAAXPEBD0H@Z
pdata	ENDS
pdata	SEGMENT
$pdata$?dtor$0@?0??initCSLogger@CSTLogger@@QEAAXPEBD0H@Z@4HA DD imagerel ?dtor$0@?0??initCSLogger@CSTLogger@@QEAAXPEBD0H@Z@4HA
	DD	imagerel ?dtor$0@?0??initCSLogger@CSTLogger@@QEAAXPEBD0H@Z@4HA+35
	DD	imagerel $unwind$?dtor$0@?0??initCSLogger@CSTLogger@@QEAAXPEBD0H@Z@4HA
$pdata$?dtor$1@?0??initCSLogger@CSTLogger@@QEAAXPEBD0H@Z@4HA DD imagerel ?dtor$1@?0??initCSLogger@CSTLogger@@QEAAXPEBD0H@Z@4HA
	DD	imagerel ?dtor$1@?0??initCSLogger@CSTLogger@@QEAAXPEBD0H@Z@4HA+43
	DD	imagerel $unwind$?dtor$1@?0??initCSLogger@CSTLogger@@QEAAXPEBD0H@Z@4HA
pdata	ENDS
pdata	SEGMENT
$pdata$?Start@CSTLogger@@QEAA_NXZ DD imagerel $LN5
	DD	imagerel $LN5+137
	DD	imagerel $unwind$?Start@CSTLogger@@QEAA_NXZ
$pdata$?DoWritePacket@CSTLogger@@QEAAXHHHPEADH@Z DD imagerel $LN11
	DD	imagerel $LN11+779
	DD	imagerel $unwind$?DoWritePacket@CSTLogger@@QEAAXHHHPEADH@Z
pdata	ENDS
pdata	SEGMENT
$pdata$?dtor$0@?0??DoWritePacket@CSTLogger@@QEAAXHHHPEADH@Z@4HA DD imagerel ?dtor$0@?0??DoWritePacket@CSTLogger@@QEAAXHHHPEADH@Z@4HA
	DD	imagerel ?dtor$0@?0??DoWritePacket@CSTLogger@@QEAAXHHHPEADH@Z@4HA+35
	DD	imagerel $unwind$?dtor$0@?0??DoWritePacket@CSTLogger@@QEAAXHHHPEADH@Z@4HA
pdata	ENDS
pdata	SEGMENT
$pdata$?PutLogQueue@CSTLogger@@QEAAXHPEBDZZ DD imagerel $LN6
	DD	imagerel $LN6+579
	DD	imagerel $unwind$?PutLogQueue@CSTLogger@@QEAAXHPEBDZZ
pdata	ENDS
pdata	SEGMENT
$pdata$?dtor$0@?0??PutLogQueue@CSTLogger@@QEAAXHPEBDZZ@4HA DD imagerel ?dtor$0@?0??PutLogQueue@CSTLogger@@QEAAXHPEBDZZ@4HA
	DD	imagerel ?dtor$0@?0??PutLogQueue@CSTLogger@@QEAAXHPEBDZZ@4HA+35
	DD	imagerel $unwind$?dtor$0@?0??PutLogQueue@CSTLogger@@QEAAXHPEBDZZ@4HA
pdata	ENDS
pdata	SEGMENT
$pdata$?PutLogQueueL@CSTLogger@@QEAAXHHPEBDZZ DD imagerel $LN6
	DD	imagerel $LN6+654
	DD	imagerel $unwind$?PutLogQueueL@CSTLogger@@QEAAXHHPEBDZZ
pdata	ENDS
pdata	SEGMENT
$pdata$?dtor$0@?0??PutLogQueueL@CSTLogger@@QEAAXHHPEBDZZ@4HA DD imagerel ?dtor$0@?0??PutLogQueueL@CSTLogger@@QEAAXHHPEBDZZ@4HA
	DD	imagerel ?dtor$0@?0??PutLogQueueL@CSTLogger@@QEAAXHHPEBDZZ@4HA+35
	DD	imagerel $unwind$?dtor$0@?0??PutLogQueueL@CSTLogger@@QEAAXHHPEBDZZ@4HA
pdata	ENDS
pdata	SEGMENT
$pdata$?GetQueue@CSTLogger@@QEAAXXZ DD imagerel $LN9
	DD	imagerel $LN9+240
	DD	imagerel $unwind$?GetQueue@CSTLogger@@QEAAXXZ
$pdata$?LogThread@CSTLogger@@SAKPEAX@Z DD imagerel $LN7
	DD	imagerel $LN7+140
	DD	imagerel $unwind$?LogThread@CSTLogger@@SAKPEAX@Z
$pdata$?setPFDayChange@CSTLogger@@QEAAXP6AXH@Z@Z DD imagerel $LN3
	DD	imagerel $LN3+26
	DD	imagerel $unwind$?setPFDayChange@CSTLogger@@QEAAXP6AXH@Z@Z
$pdata$?setPFHourChange@CSTLogger@@QEAAXP6AXH@Z@Z DD imagerel $LN3
	DD	imagerel $LN3+27
	DD	imagerel $unwind$?setPFHourChange@CSTLogger@@QEAAXP6AXH@Z@Z
$pdata$?setPFProcessDataFromQueue@CSTLogger@@QEAAXP6AXPEAX0@Z0@Z DD imagerel $LN3
	DD	imagerel $LN3+65
	DD	imagerel $unwind$?setPFProcessDataFromQueue@CSTLogger@@QEAAXP6AXPEAX0@Z0@Z
$pdata$?TimeProc@CSTLogger@@QEAAXPEAVCDateTime@@@Z DD imagerel $LN14
	DD	imagerel $LN14+721
	DD	imagerel $unwind$?TimeProc@CSTLogger@@QEAAXPEAVCDateTime@@@Z
pdata	ENDS
;	COMDAT pdata
pdata	SEGMENT
$pdata$?addSeq@CSTLogger@@QEAAXXZ DD imagerel $LN4
	DD	imagerel $LN4+52
	DD	imagerel $unwind$?addSeq@CSTLogger@@QEAAXXZ
pdata	ENDS
pdata	SEGMENT
$pdata$?_ErrorLog@CSTLogger@@QEAAXPEBD0H0ZZ DD imagerel $LN5
	DD	imagerel $LN5+430
	DD	imagerel $unwind$?_ErrorLog@CSTLogger@@QEAAXPEBD0H0ZZ
pdata	ENDS
pdata	SEGMENT
$pdata$?dtor$0@?0??_ErrorLog@CSTLogger@@QEAAXPEBD0H0ZZ@4HA DD imagerel ?dtor$0@?0??_ErrorLog@CSTLogger@@QEAAXPEBD0H0ZZ@4HA
	DD	imagerel ?dtor$0@?0??_ErrorLog@CSTLogger@@QEAAXPEBD0H0ZZ@4HA+35
	DD	imagerel $unwind$?dtor$0@?0??_ErrorLog@CSTLogger@@QEAAXPEBD0H0ZZ@4HA
pdata	ENDS
pdata	SEGMENT
$pdata$?_DebugLog@CSTLogger@@QEAAXPEBD0H0ZZ DD imagerel $LN5
	DD	imagerel $LN5+430
	DD	imagerel $unwind$?_DebugLog@CSTLogger@@QEAAXPEBD0H0ZZ
pdata	ENDS
pdata	SEGMENT
$pdata$?dtor$0@?0??_DebugLog@CSTLogger@@QEAAXPEBD0H0ZZ@4HA DD imagerel ?dtor$0@?0??_DebugLog@CSTLogger@@QEAAXPEBD0H0ZZ@4HA
	DD	imagerel ?dtor$0@?0??_DebugLog@CSTLogger@@QEAAXPEBD0H0ZZ@4HA+35
	DD	imagerel $unwind$?dtor$0@?0??_DebugLog@CSTLogger@@QEAAXPEBD0H0ZZ@4HA
pdata	ENDS
pdata	SEGMENT
$pdata$?dayChangedProc@CSTLogger@@AEAAXPEAVCDateTime@@@Z DD imagerel $LN5
	DD	imagerel $LN5+309
	DD	imagerel $unwind$?dayChangedProc@CSTLogger@@AEAAXPEAVCDateTime@@@Z
pdata	ENDS
pdata	SEGMENT
$pdata$?dtor$0@?0??dayChangedProc@CSTLogger@@AEAAXPEAVCDateTime@@@Z@4HA DD imagerel ?dtor$0@?0??dayChangedProc@CSTLogger@@AEAAXPEAVCDateTime@@@Z@4HA
	DD	imagerel ?dtor$0@?0??dayChangedProc@CSTLogger@@AEAAXPEAVCDateTime@@@Z@4HA+35
	DD	imagerel $unwind$?dtor$0@?0??dayChangedProc@CSTLogger@@AEAAXPEAVCDateTime@@@Z@4HA
pdata	ENDS
pdata	SEGMENT
$pdata$?myLoggerOpen@CSTLogger@@AEAAXPEAVCDateTime@@@Z DD imagerel $LN12
	DD	imagerel $LN12+811
	DD	imagerel $unwind$?myLoggerOpen@CSTLogger@@AEAAXPEAVCDateTime@@@Z
$pdata$?_putLogQueue@CSTLogger@@AEAAXPEAD0H0@Z DD imagerel $LN5
	DD	imagerel $LN5+282
	DD	imagerel $unwind$?_putLogQueue@CSTLogger@@AEAAXPEAD0H0@Z
$pdata$?_initClass@CSTLogger@@AEAAX_N@Z DD imagerel $LN6
	DD	imagerel $LN6+539
	DD	imagerel $unwind$?_initClass@CSTLogger@@AEAAX_N@Z
pdata	ENDS
pdata	SEGMENT
$pdata$?dtor$0@?0??_initClass@CSTLogger@@AEAAX_N@Z@4HA DD imagerel ?dtor$0@?0??_initClass@CSTLogger@@AEAAX_N@Z@4HA
	DD	imagerel ?dtor$0@?0??_initClass@CSTLogger@@AEAAX_N@Z@4HA+35
	DD	imagerel $unwind$?dtor$0@?0??_initClass@CSTLogger@@AEAAX_N@Z@4HA
pdata	ENDS
;	COMDAT pdata
pdata	SEGMENT
$pdata$??__ELock_Logger@@YAXXZ DD imagerel ??__ELock_Logger@@YAXXZ
	DD	imagerel ??__ELock_Logger@@YAXXZ+51
	DD	imagerel $unwind$??__ELock_Logger@@YAXXZ
pdata	ENDS
;	COMDAT pdata
pdata	SEGMENT
$pdata$??__FLock_Logger@@YAXXZ DD imagerel ??__FLock_Logger@@YAXXZ
	DD	imagerel ??__FLock_Logger@@YAXXZ+39
	DD	imagerel $unwind$??__FLock_Logger@@YAXXZ
pdata	ENDS
;	COMDAT pdata
pdata	SEGMENT
$pdata$??$__vcrt_va_start_verify_argument_type@PEBD@@YAXXZ DD imagerel $LN3
	DD	imagerel $LN3+4
	DD	imagerel $unwind$??$__vcrt_va_start_verify_argument_type@PEBD@@YAXXZ
pdata	ENDS
CRT$XCU	SEGMENT
?Lock_Logger$initializer$@@3P6AXXZEA DQ FLAT:??__ELock_Logger@@YAXXZ ; Lock_Logger$initializer$
CRT$XCU	ENDS
;	COMDAT rtc$TMZ
rtc$TMZ	SEGMENT
_RTC_Shutdown.rtc$TMZ DQ FLAT:_RTC_Shutdown
rtc$TMZ	ENDS
;	COMDAT rtc$IMZ
rtc$IMZ	SEGMENT
_RTC_InitBase.rtc$IMZ DQ FLAT:_RTC_InitBase
rtc$IMZ	ENDS
;	COMDAT ??_R1A@?0A@EA@condition@win32@common@@8
rdata$r	SEGMENT
??_R1A@?0A@EA@condition@win32@common@@8 DD imagerel ??_R0?AVcondition@win32@common@@@8 ; common::win32::condition::`RTTI Base Class Descriptor at (0,-1,0,64)'
	DD	01H
	DD	00H
	DD	0ffffffffH
	DD	00H
	DD	040H
	DD	imagerel ??_R3condition@win32@common@@8
rdata$r	ENDS
;	COMDAT ??_R2condition@win32@common@@8
rdata$r	SEGMENT
??_R2condition@win32@common@@8 DD imagerel ??_R1A@?0A@EA@condition@win32@common@@8 ; common::win32::condition::`RTTI Base Class Array'
	DD	imagerel ??_R1A@?0A@EA@abstract_condition@common@@8
	ORG $+3
rdata$r	ENDS
;	COMDAT ??_R3condition@win32@common@@8
rdata$r	SEGMENT
??_R3condition@win32@common@@8 DD 00H			; common::win32::condition::`RTTI Class Hierarchy Descriptor'
	DD	00H
	DD	02H
	DD	imagerel ??_R2condition@win32@common@@8
rdata$r	ENDS
;	COMDAT ??_R0?AVcondition@win32@common@@@8
data$r	SEGMENT
??_R0?AVcondition@win32@common@@@8 DQ FLAT:??_7type_info@@6B@ ; common::win32::condition `RTTI Type Descriptor'
	DQ	0000000000000000H
	DB	'.?AVcondition@win32@common@@', 00H
data$r	ENDS
;	COMDAT ??_R4condition@win32@common@@6B@
rdata$r	SEGMENT
??_R4condition@win32@common@@6B@ DD 01H			; common::win32::condition::`RTTI Complete Object Locator'
	DD	00H
	DD	00H
	DD	imagerel ??_R0?AVcondition@win32@common@@@8
	DD	imagerel ??_R3condition@win32@common@@8
	DD	imagerel ??_R4condition@win32@common@@6B@
rdata$r	ENDS
;	COMDAT ??_R1A@?0A@EA@abstract_condition@common@@8
rdata$r	SEGMENT
??_R1A@?0A@EA@abstract_condition@common@@8 DD imagerel ??_R0?AVabstract_condition@common@@@8 ; common::abstract_condition::`RTTI Base Class Descriptor at (0,-1,0,64)'
	DD	00H
	DD	00H
	DD	0ffffffffH
	DD	00H
	DD	040H
	DD	imagerel ??_R3abstract_condition@common@@8
rdata$r	ENDS
;	COMDAT ??_R2abstract_condition@common@@8
rdata$r	SEGMENT
??_R2abstract_condition@common@@8 DD imagerel ??_R1A@?0A@EA@abstract_condition@common@@8 ; common::abstract_condition::`RTTI Base Class Array'
	ORG $+3
rdata$r	ENDS
;	COMDAT ??_R3abstract_condition@common@@8
rdata$r	SEGMENT
??_R3abstract_condition@common@@8 DD 00H		; common::abstract_condition::`RTTI Class Hierarchy Descriptor'
	DD	00H
	DD	01H
	DD	imagerel ??_R2abstract_condition@common@@8
rdata$r	ENDS
;	COMDAT ??_R0?AVabstract_condition@common@@@8
data$r	SEGMENT
??_R0?AVabstract_condition@common@@@8 DQ FLAT:??_7type_info@@6B@ ; common::abstract_condition `RTTI Type Descriptor'
	DQ	0000000000000000H
	DB	'.?AVabstract_condition@common@@', 00H
data$r	ENDS
;	COMDAT ??_R4abstract_condition@common@@6B@
rdata$r	SEGMENT
??_R4abstract_condition@common@@6B@ DD 01H		; common::abstract_condition::`RTTI Complete Object Locator'
	DD	00H
	DD	00H
	DD	imagerel ??_R0?AVabstract_condition@common@@@8
	DD	imagerel ??_R3abstract_condition@common@@8
	DD	imagerel ??_R4abstract_condition@common@@6B@
rdata$r	ENDS
;	COMDAT ??_7condition@win32@common@@6B@
CONST	SEGMENT
??_7condition@win32@common@@6B@ DQ FLAT:??_R4condition@win32@common@@6B@ ; common::win32::condition::`vftable'
	DQ	FLAT:??_Econdition@win32@common@@UEAAPEAXI@Z
	DQ	FLAT:?signal@condition@win32@common@@UEAAXXZ
	DQ	FLAT:?signal_all@condition@win32@common@@UEAAXXZ
CONST	ENDS
;	COMDAT ??_7abstract_condition@common@@6B@
CONST	SEGMENT
??_7abstract_condition@common@@6B@ DQ FLAT:??_R4abstract_condition@common@@6B@ ; common::abstract_condition::`vftable'
	DQ	FLAT:??_Eabstract_condition@common@@UEAAPEAXI@Z
	DQ	FLAT:_purecall
	DQ	FLAT:_purecall
CONST	ENDS
;	COMDAT xdata
xdata	SEGMENT
$unwind$??$__vcrt_va_start_verify_argument_type@PEBD@@YAXXZ DD 010201H
	DD	07002H
xdata	ENDS
;	COMDAT xdata
xdata	SEGMENT
$unwind$??__FLock_Logger@@YAXXZ DD 021501H
	DD	070023206H
xdata	ENDS
;	COMDAT xdata
xdata	SEGMENT
$unwind$??__ELock_Logger@@YAXXZ DD 021501H
	DD	070023206H
xdata	ENDS
;	COMDAT xdata
xdata	SEGMENT
$unwind$?addSeq@CSTLogger@@QEAAXXZ DD 010601H
	DD	07006H
xdata	ENDS
CONST	SEGMENT
	ORG $+6
$cppxdata$??0CSTLogger@@QEAA@XZ DD 019930522H
	DD	01H
	DD	imagerel $stateUnwindMap$??0CSTLogger@@QEAA@XZ
	DD	00H
	DD	00H
	DD	03H
	DD	imagerel $ip2state$??0CSTLogger@@QEAA@XZ
	DD	020H
	DD	00H
	DD	01H
$cppxdata$??0CSTLogger@@QEAA@_N@Z DD 019930522H
	DD	01H
	DD	imagerel $stateUnwindMap$??0CSTLogger@@QEAA@_N@Z
	DD	00H
	DD	00H
	DD	03H
	DD	imagerel $ip2state$??0CSTLogger@@QEAA@_N@Z
	DD	020H
	DD	00H
	DD	01H
?initSystem@CSTLogger@@QEAA_NXZ$rtcName$0 DB 073H	; CSTLogger::initSystem
	DB	07aH
	DB	043H
	DB	06fH
	DB	06eH
	DB	066H
	DB	00H
	ORG $+1
?initSystem@CSTLogger@@QEAA_NXZ$rtcName$1 DB 073H	; CSTLogger::initSystem
	DB	07aH
	DB	04bH
	DB	065H
	DB	079H
	DB	00H
	ORG $+2
?initSystem@CSTLogger@@QEAA_NXZ$rtcFrameData DD 02H	; CSTLogger::initSystem
	DD	00H
	DQ	FLAT:?initSystem@CSTLogger@@QEAA_NXZ$rtcVarDesc
?initCSLogger@CSTLogger@@QEAAXPEBD0H@Z$rtcName$0 DB 063H ; CSTLogger::initCSLogger
	DB	075H
	DB	072H
	DB	054H
	DB	06dH
	DB	00H
	ORG $+2
?initSystem@CSTLogger@@QEAA_NXZ$rtcVarDesc DD 0a8H	; CSTLogger::initSystem
	DD	010H
	DQ	FLAT:?initSystem@CSTLogger@@QEAA_NXZ$rtcName$1
	DD	030H
	DD	058H
	DQ	FLAT:?initSystem@CSTLogger@@QEAA_NXZ$rtcName$0
	ORG $+96
?initCSLogger@CSTLogger@@QEAAXPEBD0H@Z$rtcVarDesc DD 030H ; CSTLogger::initCSLogger
	DD	074H
	DQ	FLAT:?initCSLogger@CSTLogger@@QEAAXPEBD0H@Z$rtcName$0
	ORG $+48
?initCSLogger@CSTLogger@@QEAAXPEBD0H@Z$rtcFrameData DD 01H ; CSTLogger::initCSLogger
	DD	00H
	DQ	FLAT:?initCSLogger@CSTLogger@@QEAAXPEBD0H@Z$rtcVarDesc
$cppxdata$?initCSLogger@CSTLogger@@QEAAXPEBD0H@Z DD 019930522H
	DD	02H
	DD	imagerel $stateUnwindMap$?initCSLogger@CSTLogger@@QEAAXPEBD0H@Z
	DD	00H
	DD	00H
	DD	05H
	DD	imagerel $ip2state$?initCSLogger@CSTLogger@@QEAAXPEBD0H@Z
	DD	0e8H
	DD	00H
	DD	01H
?DoWritePacket@CSTLogger@@QEAAXHHHPEADH@Z$rtcName$0 DB 063H ; CSTLogger::DoWritePacket
	DB	075H
	DB	072H
	DB	054H
	DB	06dH
	DB	00H
	ORG $+2
?DoWritePacket@CSTLogger@@QEAAXHHHPEADH@Z$rtcName$1 DB 070H ; CSTLogger::DoWritePacket
	DB	061H
	DB	063H
	DB	06bH
	DB	065H
	DB	074H
	DB	042H
	DB	075H
	DB	066H
	DB	00H
	ORG $+2
?DoWritePacket@CSTLogger@@QEAAXHHHPEADH@Z$rtcName$2 DB 074H ; CSTLogger::DoWritePacket
	DB	06dH
	DB	070H
	DB	042H
	DB	075H
	DB	066H
	DB	00H
	ORG $+1
?DoWritePacket@CSTLogger@@QEAAXHHHPEADH@Z$rtcName$3 DB 066H ; CSTLogger::DoWritePacket
	DB	06dH
	DB	074H
	DB	053H
	DB	074H
	DB	072H
	DB	00H
	ORG $+5
?DoWritePacket@CSTLogger@@QEAAXHHHPEADH@Z$rtcVarDesc DD 01198H ; CSTLogger::DoWritePacket
	DD	028H
	DQ	FLAT:?DoWritePacket@CSTLogger@@QEAAXHHHPEADH@Z$rtcName$3
	DD	01130H
	DD	046H
	DQ	FLAT:?DoWritePacket@CSTLogger@@QEAAXHHHPEADH@Z$rtcName$2
	DD	0110H
	DD	01000H
	DQ	FLAT:?DoWritePacket@CSTLogger@@QEAAXHHHPEADH@Z$rtcName$1
	DD	070H
	DD	074H
	DQ	FLAT:?DoWritePacket@CSTLogger@@QEAAXHHHPEADH@Z$rtcName$0
	ORG $+192
?DoWritePacket@CSTLogger@@QEAAXHHHPEADH@Z$rtcFrameData DD 04H ; CSTLogger::DoWritePacket
	DD	00H
	DQ	FLAT:?DoWritePacket@CSTLogger@@QEAAXHHHPEADH@Z$rtcVarDesc
$cppxdata$?DoWritePacket@CSTLogger@@QEAAXHHHPEADH@Z DD 019930522H
	DD	01H
	DD	imagerel $stateUnwindMap$?DoWritePacket@CSTLogger@@QEAAXHHHPEADH@Z
	DD	00H
	DD	00H
	DD	03H
	DD	imagerel $ip2state$?DoWritePacket@CSTLogger@@QEAAXHHHPEADH@Z
	DD	011e0H
	DD	00H
	DD	01H
?PutLogQueue@CSTLogger@@QEAAXHPEBDZZ$rtcName$0 DB 063H	; CSTLogger::PutLogQueue
	DB	075H
	DB	072H
	DB	054H
	DB	06dH
	DB	00H
	ORG $+2
?PutLogQueue@CSTLogger@@QEAAXHPEBDZZ$rtcName$1 DB 074H	; CSTLogger::PutLogQueue
	DB	06dH
	DB	070H
	DB	042H
	DB	075H
	DB	066H
	DB	00H
	ORG $+1
?PutLogQueue@CSTLogger@@QEAAXHPEBDZZ$rtcName$2 DB 066H	; CSTLogger::PutLogQueue
	DB	06dH
	DB	074H
	DB	053H
	DB	074H
	DB	072H
	DB	00H
	ORG $+1
?PutLogQueue@CSTLogger@@QEAAXHPEBDZZ$rtcName$3 DB 06dH	; CSTLogger::PutLogQueue
	DB	073H
	DB	067H
	DB	042H
	DB	075H
	DB	066H
	DB	00H
	ORG $+1
?PutLogQueue@CSTLogger@@QEAAXHPEBDZZ$rtcName$4 DB 061H	; CSTLogger::PutLogQueue
	DB	070H
	DB	00H
	ORG $+5
?PutLogQueue@CSTLogger@@QEAAXHPEBDZZ$rtcVarDesc DD 011b8H ; CSTLogger::PutLogQueue
	DD	08H
	DQ	FLAT:?PutLogQueue@CSTLogger@@QEAAXHPEBDZZ$rtcName$4
	DD	01a0H
	DD	01000H
	DQ	FLAT:?PutLogQueue@CSTLogger@@QEAAXHPEBDZZ$rtcName$3
	DD	0140H
	DD	040H
	DQ	FLAT:?PutLogQueue@CSTLogger@@QEAAXHPEBDZZ$rtcName$2
	DD	0e0H
	DD	040H
	DQ	FLAT:?PutLogQueue@CSTLogger@@QEAAXHPEBDZZ$rtcName$1
	DD	040H
	DD	074H
	DQ	FLAT:?PutLogQueue@CSTLogger@@QEAAXHPEBDZZ$rtcName$0
	ORG $+240
?PutLogQueue@CSTLogger@@QEAAXHPEBDZZ$rtcFrameData DD 05H ; CSTLogger::PutLogQueue
	DD	00H
	DQ	FLAT:?PutLogQueue@CSTLogger@@QEAAXHPEBDZZ$rtcVarDesc
$cppxdata$?PutLogQueue@CSTLogger@@QEAAXHPEBDZZ DD 019930522H
	DD	01H
	DD	imagerel $stateUnwindMap$?PutLogQueue@CSTLogger@@QEAAXHPEBDZZ
	DD	00H
	DD	00H
	DD	03H
	DD	imagerel $ip2state$?PutLogQueue@CSTLogger@@QEAAXHPEBDZZ
	DD	011d0H
	DD	00H
	DD	01H
?PutLogQueueL@CSTLogger@@QEAAXHHPEBDZZ$rtcName$0 DB 063H ; CSTLogger::PutLogQueueL
	DB	075H
	DB	072H
	DB	054H
	DB	06dH
	DB	00H
	ORG $+2
?PutLogQueueL@CSTLogger@@QEAAXHHPEBDZZ$rtcName$1 DB 074H ; CSTLogger::PutLogQueueL
	DB	06dH
	DB	070H
	DB	042H
	DB	075H
	DB	066H
	DB	00H
	ORG $+1
?PutLogQueueL@CSTLogger@@QEAAXHHPEBDZZ$rtcName$2 DB 066H ; CSTLogger::PutLogQueueL
	DB	06dH
	DB	074H
	DB	053H
	DB	074H
	DB	072H
	DB	00H
	ORG $+1
?PutLogQueueL@CSTLogger@@QEAAXHHPEBDZZ$rtcName$3 DB 06eH ; CSTLogger::PutLogQueueL
	DB	049H
	DB	064H
	DB	078H
	DB	00H
	ORG $+3
?PutLogQueueL@CSTLogger@@QEAAXHHPEBDZZ$rtcName$4 DB 061H ; CSTLogger::PutLogQueueL
	DB	070H
	DB	00H
	ORG $+5
?PutLogQueueL@CSTLogger@@QEAAXHHPEBDZZ$rtcVarDesc DD 01b8H ; CSTLogger::PutLogQueueL
	DD	08H
	DQ	FLAT:?PutLogQueueL@CSTLogger@@QEAAXHHPEBDZZ$rtcName$4
	DD	0194H
	DD	04H
	DQ	FLAT:?PutLogQueueL@CSTLogger@@QEAAXHHPEBDZZ$rtcName$3
	DD	0140H
	DD	040H
	DQ	FLAT:?PutLogQueueL@CSTLogger@@QEAAXHHPEBDZZ$rtcName$2
	DD	0e0H
	DD	040H
	DQ	FLAT:?PutLogQueueL@CSTLogger@@QEAAXHHPEBDZZ$rtcName$1
	DD	040H
	DD	074H
	DQ	FLAT:?PutLogQueueL@CSTLogger@@QEAAXHHPEBDZZ$rtcName$0
	ORG $+240
?PutLogQueueL@CSTLogger@@QEAAXHHPEBDZZ$rtcFrameData DD 05H ; CSTLogger::PutLogQueueL
	DD	00H
	DQ	FLAT:?PutLogQueueL@CSTLogger@@QEAAXHHPEBDZZ$rtcVarDesc
$cppxdata$?PutLogQueueL@CSTLogger@@QEAAXHHPEBDZZ DD 019930522H
	DD	01H
	DD	imagerel $stateUnwindMap$?PutLogQueueL@CSTLogger@@QEAAXHHPEBDZZ
	DD	00H
	DD	00H
	DD	03H
	DD	imagerel $ip2state$?PutLogQueueL@CSTLogger@@QEAAXHHPEBDZZ
	DD	01d0H
	DD	00H
	DD	01H
?TimeProc@CSTLogger@@QEAAXPEAVCDateTime@@@Z$rtcName$0 DB 06cH ; CSTLogger::TimeProc
	DB	074H
	DB	06dH
	DB	00H
	ORG $+4
?TimeProc@CSTLogger@@QEAAXPEAVCDateTime@@@Z$rtcVarDesc DD 050H ; CSTLogger::TimeProc
	DD	074H
	DQ	FLAT:?TimeProc@CSTLogger@@QEAAXPEAVCDateTime@@@Z$rtcName$0
	ORG $+48
?TimeProc@CSTLogger@@QEAAXPEAVCDateTime@@@Z$rtcFrameData DD 01H ; CSTLogger::TimeProc
	DD	00H
	DQ	FLAT:?TimeProc@CSTLogger@@QEAAXPEAVCDateTime@@@Z$rtcVarDesc
?_ErrorLog@CSTLogger@@QEAAXPEBD0H0ZZ$rtcName$0 DB 063H	; CSTLogger::_ErrorLog
	DB	075H
	DB	072H
	DB	054H
	DB	06dH
	DB	00H
	ORG $+2
?_ErrorLog@CSTLogger@@QEAAXPEBD0H0ZZ$rtcName$1 DB 074H	; CSTLogger::_ErrorLog
	DB	06dH
	DB	070H
	DB	042H
	DB	075H
	DB	066H
	DB	00H
	ORG $+1
?_ErrorLog@CSTLogger@@QEAAXPEBD0H0ZZ$rtcName$2 DB 06dH	; CSTLogger::_ErrorLog
	DB	073H
	DB	067H
	DB	042H
	DB	075H
	DB	066H
	DB	00H
	ORG $+1
?_ErrorLog@CSTLogger@@QEAAXPEBD0H0ZZ$rtcName$3 DB 061H	; CSTLogger::_ErrorLog
	DB	070H
	DB	00H
	ORG $+5
?_ErrorLog@CSTLogger@@QEAAXPEBD0H0ZZ$rtcVarDesc DD 01328H ; CSTLogger::_ErrorLog
	DD	08H
	DQ	FLAT:?_ErrorLog@CSTLogger@@QEAAXPEBD0H0ZZ$rtcName$3
	DD	0310H
	DD	01000H
	DQ	FLAT:?_ErrorLog@CSTLogger@@QEAAXPEBD0H0ZZ$rtcName$2
	DD	0f0H
	DD	0200H
	DQ	FLAT:?_ErrorLog@CSTLogger@@QEAAXPEBD0H0ZZ$rtcName$1
	DD	050H
	DD	074H
	DQ	FLAT:?_ErrorLog@CSTLogger@@QEAAXPEBD0H0ZZ$rtcName$0
	ORG $+192
?_ErrorLog@CSTLogger@@QEAAXPEBD0H0ZZ$rtcFrameData DD 04H ; CSTLogger::_ErrorLog
	DD	00H
	DQ	FLAT:?_ErrorLog@CSTLogger@@QEAAXPEBD0H0ZZ$rtcVarDesc
$cppxdata$?_ErrorLog@CSTLogger@@QEAAXPEBD0H0ZZ DD 019930522H
	DD	01H
	DD	imagerel $stateUnwindMap$?_ErrorLog@CSTLogger@@QEAAXPEBD0H0ZZ
	DD	00H
	DD	00H
	DD	03H
	DD	imagerel $ip2state$?_ErrorLog@CSTLogger@@QEAAXPEBD0H0ZZ
	DD	01340H
	DD	00H
	DD	01H
?_DebugLog@CSTLogger@@QEAAXPEBD0H0ZZ$rtcName$0 DB 063H	; CSTLogger::_DebugLog
	DB	075H
	DB	072H
	DB	054H
	DB	06dH
	DB	00H
	ORG $+2
?_DebugLog@CSTLogger@@QEAAXPEBD0H0ZZ$rtcName$1 DB 074H	; CSTLogger::_DebugLog
	DB	06dH
	DB	070H
	DB	042H
	DB	075H
	DB	066H
	DB	00H
	ORG $+1
?_DebugLog@CSTLogger@@QEAAXPEBD0H0ZZ$rtcName$2 DB 06dH	; CSTLogger::_DebugLog
	DB	073H
	DB	067H
	DB	042H
	DB	075H
	DB	066H
	DB	00H
	ORG $+1
?_DebugLog@CSTLogger@@QEAAXPEBD0H0ZZ$rtcName$3 DB 061H	; CSTLogger::_DebugLog
	DB	070H
	DB	00H
	ORG $+5
?_DebugLog@CSTLogger@@QEAAXPEBD0H0ZZ$rtcFrameData DD 04H ; CSTLogger::_DebugLog
	DD	00H
	DQ	FLAT:?_DebugLog@CSTLogger@@QEAAXPEBD0H0ZZ$rtcVarDesc
$cppxdata$?_DebugLog@CSTLogger@@QEAAXPEBD0H0ZZ DD 019930522H
	DD	01H
	DD	imagerel $stateUnwindMap$?_DebugLog@CSTLogger@@QEAAXPEBD0H0ZZ
	DD	00H
	DD	00H
	DD	03H
	DD	imagerel $ip2state$?_DebugLog@CSTLogger@@QEAAXPEBD0H0ZZ
	DD	01340H
	DD	00H
	DD	01H
?_DebugLog@CSTLogger@@QEAAXPEBD0H0ZZ$rtcVarDesc DD 01328H ; CSTLogger::_DebugLog
	DD	08H
	DQ	FLAT:?_DebugLog@CSTLogger@@QEAAXPEBD0H0ZZ$rtcName$3
	DD	0310H
	DD	01000H
	DQ	FLAT:?_DebugLog@CSTLogger@@QEAAXPEBD0H0ZZ$rtcName$2
	DD	0f0H
	DD	0200H
	DQ	FLAT:?_DebugLog@CSTLogger@@QEAAXPEBD0H0ZZ$rtcName$1
	DD	050H
	DD	074H
	DQ	FLAT:?_DebugLog@CSTLogger@@QEAAXPEBD0H0ZZ$rtcName$0
	ORG $+192
?dayChangedProc@CSTLogger@@AEAAXPEAVCDateTime@@@Z$rtcName$0 DB 073H ; CSTLogger::dayChangedProc
	DB	07aH
	DB	044H
	DB	061H
	DB	074H
	DB	065H
	DB	00H
	ORG $+1
?dayChangedProc@CSTLogger@@AEAAXPEAVCDateTime@@@Z$rtcName$1 DB 063H ; CSTLogger::dayChangedProc
	DB	075H
	DB	072H
	DB	054H
	DB	06dH
	DB	00H
	ORG $+2
?dayChangedProc@CSTLogger@@AEAAXPEAVCDateTime@@@Z$rtcVarDesc DD 070H ; CSTLogger::dayChangedProc
	DD	074H
	DQ	FLAT:?dayChangedProc@CSTLogger@@AEAAXPEAVCDateTime@@@Z$rtcName$1
	DD	038H
	DD	018H
	DQ	FLAT:?dayChangedProc@CSTLogger@@AEAAXPEAVCDateTime@@@Z$rtcName$0
	ORG $+96
?dayChangedProc@CSTLogger@@AEAAXPEAVCDateTime@@@Z$rtcFrameData DD 02H ; CSTLogger::dayChangedProc
	DD	00H
	DQ	FLAT:?dayChangedProc@CSTLogger@@AEAAXPEAVCDateTime@@@Z$rtcVarDesc
$cppxdata$?dayChangedProc@CSTLogger@@AEAAXPEAVCDateTime@@@Z DD 019930522H
	DD	01H
	DD	imagerel $stateUnwindMap$?dayChangedProc@CSTLogger@@AEAAXPEAVCDateTime@@@Z
	DD	00H
	DD	00H
	DD	03H
	DD	imagerel $ip2state$?dayChangedProc@CSTLogger@@AEAAXPEAVCDateTime@@@Z
	DD	0100H
	DD	00H
	DD	01H
?myLoggerOpen@CSTLogger@@AEAAXPEAVCDateTime@@@Z$rtcName$0 DB 073H ; CSTLogger::myLoggerOpen
	DB	07aH
	DB	04cH
	DB	06fH
	DB	067H
	DB	04eH
	DB	061H
	DB	06dH
	DB	065H
	DB	00H
	ORG $+6
?myLoggerOpen@CSTLogger@@AEAAXPEAVCDateTime@@@Z$rtcFrameData DD 01H ; CSTLogger::myLoggerOpen
	DD	00H
	DQ	FLAT:?myLoggerOpen@CSTLogger@@AEAAXPEAVCDateTime@@@Z$rtcVarDesc
?_initClass@CSTLogger@@AEAAX_N@Z$rtcName$0 DB 063H	; CSTLogger::_initClass
	DB	075H
	DB	072H
	DB	054H
	DB	06dH
	DB	00H
	ORG $+2
?myLoggerOpen@CSTLogger@@AEAAXPEAVCDateTime@@@Z$rtcVarDesc DD 040H ; CSTLogger::myLoggerOpen
	DD	0100H
	DQ	FLAT:?myLoggerOpen@CSTLogger@@AEAAXPEAVCDateTime@@@Z$rtcName$0
	ORG $+48
?_initClass@CSTLogger@@AEAAX_N@Z$rtcVarDesc DD 030H	; CSTLogger::_initClass
	DD	074H
	DQ	FLAT:?_initClass@CSTLogger@@AEAAX_N@Z$rtcName$0
	ORG $+48
?_initClass@CSTLogger@@AEAAX_N@Z$rtcFrameData DD 01H	; CSTLogger::_initClass
	DD	00H
	DQ	FLAT:?_initClass@CSTLogger@@AEAAX_N@Z$rtcVarDesc
$cppxdata$?_initClass@CSTLogger@@AEAAX_N@Z DD 019930522H
	DD	01H
	DD	imagerel $stateUnwindMap$?_initClass@CSTLogger@@AEAAX_N@Z
	DD	00H
	DD	00H
	DD	03H
	DD	imagerel $ip2state$?_initClass@CSTLogger@@AEAAX_N@Z
	DD	0c0H
	DD	00H
	DD	01H
CONST	ENDS
xdata	SEGMENT
$unwind$??0CSTLogger@@QEAA@XZ DD 022711H
	DD	07006520aH
	DD	imagerel __CxxFrameHandler3
	DD	imagerel $cppxdata$??0CSTLogger@@QEAA@XZ
$stateUnwindMap$??0CSTLogger@@QEAA@XZ DD 0ffffffffH
	DD	imagerel ?dtor$0@?0???0CSTLogger@@QEAA@XZ@4HA
$ip2state$??0CSTLogger@@QEAA@XZ DD imagerel ??0CSTLogger@@QEAA@XZ
	DD	0ffffffffH
	DD	imagerel ??0CSTLogger@@QEAA@XZ+57
	DD	00H
	DD	imagerel ??0CSTLogger@@QEAA@XZ+70
	DD	0ffffffffH
$unwind$?dtor$0@?0???0CSTLogger@@QEAA@XZ@4HA DD 031001H
	DD	0700c4210H
	DD	0500bH
$unwind$??0CSTLogger@@QEAA@_N@Z DD 022b11H
	DD	0700a520eH
	DD	imagerel __CxxFrameHandler3
	DD	imagerel $cppxdata$??0CSTLogger@@QEAA@_N@Z
$stateUnwindMap$??0CSTLogger@@QEAA@_N@Z DD 0ffffffffH
	DD	imagerel ?dtor$0@?0???0CSTLogger@@QEAA@_N@Z@4HA
$ip2state$??0CSTLogger@@QEAA@_N@Z DD imagerel ??0CSTLogger@@QEAA@_N@Z
	DD	0ffffffffH
	DD	imagerel ??0CSTLogger@@QEAA@_N@Z+61
	DD	00H
	DD	imagerel ??0CSTLogger@@QEAA@_N@Z+77
	DD	0ffffffffH
$unwind$?dtor$0@?0???0CSTLogger@@QEAA@_N@Z@4HA DD 031001H
	DD	0700c4210H
	DD	0500bH
$unwind$??1CSTLogger@@QEAA@XZ DD 021e01H
	DD	07006920aH
$unwind$?initSystem@CSTLogger@@QEAA_NXZ DD 033619H
	DD	01e010dH
	DD	07006H
	DD	imagerel __GSHandlerCheck
	DD	0e8H
$unwind$?init@CSTLogger@@QEAA_NH@Z DD 022201H
	DD	0700a320eH
$unwind$?initCSLogger@CSTLogger@@QEAAXPEBD0H@Z DD 035119H
	DD	020011cH
	DD	07015H
	DD	imagerel __GSHandlerCheck_EH
	DD	imagerel $cppxdata$?initCSLogger@CSTLogger@@QEAAXPEBD0H@Z
	DD	0faH
$stateUnwindMap$?initCSLogger@CSTLogger@@QEAAXPEBD0H@Z DD 0ffffffffH
	DD	imagerel ?dtor$0@?0??initCSLogger@CSTLogger@@QEAAXPEBD0H@Z@4HA
	DD	00H
	DD	imagerel ?dtor$1@?0??initCSLogger@CSTLogger@@QEAAXPEBD0H@Z@4HA
$ip2state$?initCSLogger@CSTLogger@@QEAAXPEBD0H@Z DD imagerel ?initCSLogger@CSTLogger@@QEAAXPEBD0H@Z
	DD	0ffffffffH
	DD	imagerel ?initCSLogger@CSTLogger@@QEAAXPEBD0H@Z+122
	DD	00H
	DD	imagerel ?initCSLogger@CSTLogger@@QEAAXPEBD0H@Z+392
	DD	01H
	DD	imagerel ?initCSLogger@CSTLogger@@QEAAXPEBD0H@Z+472
	DD	00H
	DD	imagerel ?initCSLogger@CSTLogger@@QEAAXPEBD0H@Z+554
	DD	0ffffffffH
$unwind$?dtor$0@?0??initCSLogger@CSTLogger@@QEAAXPEBD0H@Z@4HA DD 031001H
	DD	0700c4210H
	DD	0500bH
$unwind$?dtor$1@?0??initCSLogger@CSTLogger@@QEAAXPEBD0H@Z@4HA DD 031001H
	DD	0700c4210H
	DD	0500bH
$unwind$?Start@CSTLogger@@QEAA_NXZ DD 021e01H
	DD	07006720aH
$unwind$?DoWritePacket@CSTLogger@@QEAAXHHHPEADH@Z DD 035619H
	DD	02420121H
	DD	07014H
	DD	imagerel __GSHandlerCheck_EH
	DD	imagerel $cppxdata$?DoWritePacket@CSTLogger@@QEAAXHHHPEADH@Z
	DD	01202H
$stateUnwindMap$?DoWritePacket@CSTLogger@@QEAAXHHHPEADH@Z DD 0ffffffffH
	DD	imagerel ?dtor$0@?0??DoWritePacket@CSTLogger@@QEAAXHHHPEADH@Z@4HA
$ip2state$?DoWritePacket@CSTLogger@@QEAAXHHHPEADH@Z DD imagerel ?DoWritePacket@CSTLogger@@QEAAXHHHPEADH@Z
	DD	0ffffffffH
	DD	imagerel ?DoWritePacket@CSTLogger@@QEAAXHHHPEADH@Z+145
	DD	00H
	DD	imagerel ?DoWritePacket@CSTLogger@@QEAAXHHHPEADH@Z+729
	DD	0ffffffffH
$unwind$?dtor$0@?0??DoWritePacket@CSTLogger@@QEAAXHHHPEADH@Z@4HA DD 031001H
	DD	0700c4210H
	DD	0500bH
$unwind$?PutLogQueue@CSTLogger@@QEAAXHPEBDZZ DD 035619H
	DD	023e0121H
	DD	07014H
	DD	imagerel __GSHandlerCheck_EH
	DD	imagerel $cppxdata$?PutLogQueue@CSTLogger@@QEAAXHPEBDZZ
	DD	011eaH
$stateUnwindMap$?PutLogQueue@CSTLogger@@QEAAXHPEBDZZ DD 0ffffffffH
	DD	imagerel ?dtor$0@?0??PutLogQueue@CSTLogger@@QEAAXHPEBDZZ@4HA
$ip2state$?PutLogQueue@CSTLogger@@QEAAXHPEBDZZ DD imagerel ?PutLogQueue@CSTLogger@@QEAAXHPEBDZZ
	DD	0ffffffffH
	DD	imagerel ?PutLogQueue@CSTLogger@@QEAAXHPEBDZZ+145
	DD	00H
	DD	imagerel ?PutLogQueue@CSTLogger@@QEAAXHPEBDZZ+529
	DD	0ffffffffH
$unwind$?dtor$0@?0??PutLogQueue@CSTLogger@@QEAAXHPEBDZZ@4HA DD 031001H
	DD	0700c4210H
	DD	0500bH
$unwind$?PutLogQueueL@CSTLogger@@QEAAXHHPEBDZZ DD 035019H
	DD	03e011bH
	DD	07014H
	DD	imagerel __GSHandlerCheck_EH
	DD	imagerel $cppxdata$?PutLogQueueL@CSTLogger@@QEAAXHHPEBDZZ
	DD	01eaH
$stateUnwindMap$?PutLogQueueL@CSTLogger@@QEAAXHHPEBDZZ DD 0ffffffffH
	DD	imagerel ?dtor$0@?0??PutLogQueueL@CSTLogger@@QEAAXHHPEBDZZ@4HA
$ip2state$?PutLogQueueL@CSTLogger@@QEAAXHHPEBDZZ DD imagerel ?PutLogQueueL@CSTLogger@@QEAAXHHPEBDZZ
	DD	0ffffffffH
	DD	imagerel ?PutLogQueueL@CSTLogger@@QEAAXHHPEBDZZ+139
	DD	00H
	DD	imagerel ?PutLogQueueL@CSTLogger@@QEAAXHHPEBDZZ+604
	DD	0ffffffffH
$unwind$?dtor$0@?0??PutLogQueueL@CSTLogger@@QEAAXHHPEBDZZ@4HA DD 031001H
	DD	0700c4210H
	DD	0500bH
$unwind$?GetQueue@CSTLogger@@QEAAXXZ DD 021e01H
	DD	07006720aH
$unwind$?LogThread@CSTLogger@@SAKPEAX@Z DD 021e01H
	DD	07006520aH
$unwind$?setPFDayChange@CSTLogger@@QEAAXP6AXH@Z@Z DD 010b01H
	DD	0700bH
$unwind$?setPFHourChange@CSTLogger@@QEAAXP6AXH@Z@Z DD 010b01H
	DD	0700bH
$unwind$?setPFProcessDataFromQueue@CSTLogger@@QEAAXP6AXPEAX0@Z0@Z DD 011001H
	DD	07010H
$unwind$?TimeProc@CSTLogger@@QEAAXPEAVCDateTime@@@Z DD 033b19H
	DD	0200112H
	DD	0700bH
	DD	imagerel __GSHandlerCheck
	DD	0f0H
$unwind$?_ErrorLog@CSTLogger@@QEAAXPEBD0H0ZZ DD 035719H
	DD	026c0122H
	DD	07015H
	DD	imagerel __GSHandlerCheck_EH
	DD	imagerel $cppxdata$?_ErrorLog@CSTLogger@@QEAAXPEBD0H0ZZ
	DD	01352H
$stateUnwindMap$?_ErrorLog@CSTLogger@@QEAAXPEBD0H0ZZ DD 0ffffffffH
	DD	imagerel ?dtor$0@?0??_ErrorLog@CSTLogger@@QEAAXPEBD0H0ZZ@4HA
$ip2state$?_ErrorLog@CSTLogger@@QEAAXPEBD0H0ZZ DD imagerel ?_ErrorLog@CSTLogger@@QEAAXPEBD0H0ZZ
	DD	0ffffffffH
	DD	imagerel ?_ErrorLog@CSTLogger@@QEAAXPEBD0H0ZZ+121
	DD	00H
	DD	imagerel ?_ErrorLog@CSTLogger@@QEAAXPEBD0H0ZZ+380
	DD	0ffffffffH
$unwind$?dtor$0@?0??_ErrorLog@CSTLogger@@QEAAXPEBD0H0ZZ@4HA DD 031001H
	DD	0700c4210H
	DD	0500bH
$unwind$?_DebugLog@CSTLogger@@QEAAXPEBD0H0ZZ DD 035719H
	DD	026c0122H
	DD	07015H
	DD	imagerel __GSHandlerCheck_EH
	DD	imagerel $cppxdata$?_DebugLog@CSTLogger@@QEAAXPEBD0H0ZZ
	DD	01352H
$stateUnwindMap$?_DebugLog@CSTLogger@@QEAAXPEBD0H0ZZ DD 0ffffffffH
	DD	imagerel ?dtor$0@?0??_DebugLog@CSTLogger@@QEAAXPEBD0H0ZZ@4HA
$ip2state$?_DebugLog@CSTLogger@@QEAAXPEBD0H0ZZ DD imagerel ?_DebugLog@CSTLogger@@QEAAXPEBD0H0ZZ
	DD	0ffffffffH
	DD	imagerel ?_DebugLog@CSTLogger@@QEAAXPEBD0H0ZZ+121
	DD	00H
	DD	imagerel ?_DebugLog@CSTLogger@@QEAAXPEBD0H0ZZ+380
	DD	0ffffffffH
$unwind$?dtor$0@?0??_DebugLog@CSTLogger@@QEAAXPEBD0H0ZZ@4HA DD 031001H
	DD	0700c4210H
	DD	0500bH
$unwind$?dayChangedProc@CSTLogger@@AEAAXPEAVCDateTime@@@Z DD 034719H
	DD	0220112H
	DD	0700bH
	DD	imagerel __GSHandlerCheck_EH
	DD	imagerel $cppxdata$?dayChangedProc@CSTLogger@@AEAAXPEAVCDateTime@@@Z
	DD	010aH
$stateUnwindMap$?dayChangedProc@CSTLogger@@AEAAXPEAVCDateTime@@@Z DD 0ffffffffH
	DD	imagerel ?dtor$0@?0??dayChangedProc@CSTLogger@@AEAAXPEAVCDateTime@@@Z@4HA
$ip2state$?dayChangedProc@CSTLogger@@AEAAXPEAVCDateTime@@@Z DD imagerel ?dayChangedProc@CSTLogger@@AEAAXPEAVCDateTime@@@Z
	DD	0ffffffffH
	DD	imagerel ?dayChangedProc@CSTLogger@@AEAAXPEAVCDateTime@@@Z+146
	DD	00H
	DD	imagerel ?dayChangedProc@CSTLogger@@AEAAXPEAVCDateTime@@@Z+259
	DD	0ffffffffH
$unwind$?dtor$0@?0??dayChangedProc@CSTLogger@@AEAAXPEAVCDateTime@@@Z@4HA DD 031001H
	DD	0700c4210H
	DD	0500bH
$unwind$?myLoggerOpen@CSTLogger@@AEAAXPEAVCDateTime@@@Z DD 033b19H
	DD	02c0112H
	DD	0700bH
	DD	imagerel __GSHandlerCheck
	DD	0158H
$unwind$?_putLogQueue@CSTLogger@@AEAAXPEAD0H0@Z DD 022d01H
	DD	070155219H
$unwind$?_initClass@CSTLogger@@AEAAX_N@Z DD 034619H
	DD	01a0111H
	DD	0700aH
	DD	imagerel __GSHandlerCheck_EH
	DD	imagerel $cppxdata$?_initClass@CSTLogger@@AEAAX_N@Z
	DD	0caH
$stateUnwindMap$?_initClass@CSTLogger@@AEAAX_N@Z DD 0ffffffffH
	DD	imagerel ?dtor$0@?0??_initClass@CSTLogger@@AEAAX_N@Z@4HA
$ip2state$?_initClass@CSTLogger@@AEAAX_N@Z DD imagerel ?_initClass@CSTLogger@@AEAAX_N@Z
	DD	0ffffffffH
	DD	imagerel ?_initClass@CSTLogger@@AEAAX_N@Z+351
	DD	00H
	DD	imagerel ?_initClass@CSTLogger@@AEAAX_N@Z+489
	DD	0ffffffffH
$unwind$?dtor$0@?0??_initClass@CSTLogger@@AEAAX_N@Z@4HA DD 031001H
	DD	0700c4210H
	DD	0500bH
xdata	ENDS
;	COMDAT xdata
xdata	SEGMENT
$unwind$?Sec@CDateTime@@QEAAHXZ DD 010601H
	DD	07006H
xdata	ENDS
;	COMDAT xdata
xdata	SEGMENT
$unwind$?Minute@CDateTime@@QEAAHXZ DD 010601H
	DD	07006H
xdata	ENDS
;	COMDAT xdata
xdata	SEGMENT
$unwind$?Hour@CDateTime@@QEAAHXZ DD 010601H
	DD	07006H
xdata	ENDS
;	COMDAT xdata
xdata	SEGMENT
$unwind$?Wday@CDateTime@@QEAAHXZ DD 010601H
	DD	07006H
xdata	ENDS
;	COMDAT xdata
xdata	SEGMENT
$unwind$?Mday@CDateTime@@QEAAHXZ DD 010601H
	DD	07006H
xdata	ENDS
;	COMDAT xdata
xdata	SEGMENT
$unwind$?Month@CDateTime@@QEAAHXZ DD 010601H
	DD	07006H
xdata	ENDS
;	COMDAT xdata
xdata	SEGMENT
$unwind$?Year@CDateTime@@QEAAHXZ DD 010601H
	DD	07006H
xdata	ENDS
;	COMDAT xdata
xdata	SEGMENT
$unwind$?front@StCOMQueue@@QEAAPEAXXZ DD 010601H
	DD	07006H
xdata	ENDS
;	COMDAT xdata
xdata	SEGMENT
$unwind$?isFull@StCOMQueue@@QEAA_NXZ DD 021e01H
	DD	07006520aH
xdata	ENDS
;	COMDAT xdata
xdata	SEGMENT
$unwind$?push@StCOMQueue@@QEAAXPEAX@Z DD 010b01H
	DD	0700bH
xdata	ENDS
;	COMDAT xdata
xdata	SEGMENT
$unwind$?pop@StCOMQueue@@QEAAXXZ DD 010601H
	DD	07006H
xdata	ENDS
;	COMDAT xdata
xdata	SEGMENT
$unwind$?size@StCOMQueue@@QEAAHXZ DD 021e01H
	DD	07006120aH
xdata	ENDS
;	COMDAT xdata
xdata	SEGMENT
$unwind$??1win_atomic@win32@common@@QEAA@XZ DD 010601H
	DD	07006H
xdata	ENDS
;	COMDAT xdata
xdata	SEGMENT
$unwind$??0win_atomic@win32@common@@QEAA@XZ DD 010601H
	DD	07006H
xdata	ENDS
;	COMDAT xdata
xdata	SEGMENT
$unwind$??_Gcondition@win32@common@@UEAAPEAXI@Z DD 022201H
	DD	0700a320eH
xdata	ENDS
;	COMDAT xdata
xdata	SEGMENT
$unwind$?wait@condition@win32@common@@QEAA_NHPEAVcritical_section@23@@Z DD 022701H
	DD	0700f5213H
xdata	ENDS
;	COMDAT xdata
xdata	SEGMENT
$unwind$?signal_all@condition@win32@common@@UEAAXXZ DD 021e01H
	DD	07006320aH
xdata	ENDS
;	COMDAT xdata
xdata	SEGMENT
$unwind$?signal@condition@win32@common@@UEAAXXZ DD 021e01H
	DD	07006320aH
xdata	ENDS
;	COMDAT xdata
xdata	SEGMENT
$unwind$??1condition@win32@common@@UEAA@XZ DD 021e01H
	DD	07006320aH
xdata	ENDS
;	COMDAT xdata
xdata	SEGMENT
$unwind$??0condition@win32@common@@QEAA@XZ DD 021e01H
	DD	07006320aH
xdata	ENDS
;	COMDAT xdata
xdata	SEGMENT
$unwind$??_Gabstract_condition@common@@UEAAPEAXI@Z DD 022201H
	DD	0700a320eH
xdata	ENDS
;	COMDAT xdata
xdata	SEGMENT
$unwind$??0abstract_condition@common@@QEAA@XZ DD 010601H
	DD	07006H
xdata	ENDS
;	COMDAT xdata
xdata	SEGMENT
$unwind$??1abstract_condition@common@@UEAA@XZ DD 010601H
	DD	07006H
xdata	ENDS
;	COMDAT xdata
xdata	SEGMENT
$unwind$sprintf DD 023c19H
	DD	07015b219H
	DD	imagerel __GSHandlerCheck
	DD	050H
xdata	ENDS
;	COMDAT CONST
CONST	SEGMENT
sprintf$rtcName$0 DB 05fH
	DB	041H
	DB	072H
	DB	067H
	DB	04cH
	DB	069H
	DB	073H
	DB	074H
	DB	00H
	ORG $+7
sprintf$rtcVarDesc DD 038H
	DD	08H
	DQ	FLAT:sprintf$rtcName$0
	ORG $+48
sprintf$rtcFrameData DD 01H
	DD	00H
	DQ	FLAT:sprintf$rtcVarDesc
CONST	ENDS
;	COMDAT xdata
xdata	SEGMENT
$unwind$_vsprintf_l DD 022d01H
	DD	070155219H
xdata	ENDS
;	COMDAT xdata
xdata	SEGMENT
$unwind$_vsnprintf DD 022d01H
	DD	070155219H
xdata	ENDS
;	COMDAT xdata
xdata	SEGMENT
$unwind$_vsnprintf_l DD 022d01H
	DD	070157219H
xdata	ENDS
;	COMDAT xdata
xdata	SEGMENT
$unwind$printf DD 023c19H
	DD	07015b219H
	DD	imagerel __GSHandlerCheck
	DD	050H
xdata	ENDS
;	COMDAT CONST
CONST	SEGMENT
printf$rtcName$0 DB 05fH
	DB	041H
	DB	072H
	DB	067H
	DB	04cH
	DB	069H
	DB	073H
	DB	074H
	DB	00H
	ORG $+7
printf$rtcVarDesc DD 038H
	DD	08H
	DQ	FLAT:printf$rtcName$0
	ORG $+48
printf$rtcFrameData DD 01H
	DD	00H
	DQ	FLAT:printf$rtcVarDesc
CONST	ENDS
;	COMDAT xdata
xdata	SEGMENT
$unwind$??$__vcrt_va_start_verify_argument_type@QEBD@@YAXXZ DD 010201H
	DD	07002H
xdata	ENDS
;	COMDAT xdata
xdata	SEGMENT
$unwind$_vfprintf_l DD 022d01H
	DD	070155219H
xdata	ENDS
;	COMDAT xdata
xdata	SEGMENT
$unwind$__local_stdio_printf_options DD 010201H
	DD	07002H
xdata	ENDS
;	COMDAT xdata
xdata	SEGMENT
$unwind$??_GCLogger@@QEAAPEAXI@Z DD 022201H
	DD	0700a320eH
xdata	ENDS
;	COMDAT xdata
xdata	SEGMENT
$unwind$?__autoclassinit2@CLogger@@QEAAX_K@Z DD 010b01H
	DD	0700bH
xdata	ENDS
;	COMDAT xdata
xdata	SEGMENT
$unwind$?SetDateTimeFlag@CLogger@@QEAAXH@Z DD 010a01H
	DD	0700aH
xdata	ENDS
;	COMDAT xdata
xdata	SEGMENT
$unwind$?SetLogLevel@CLogger@@QEAAXH@Z DD 010a01H
	DD	0700aH
xdata	ENDS
; Function compile flags: /Odtp /RTCsu
; File c:\program files (x86)\microsoft visual studio 14.0\vc\include\vadefs.h
;	COMDAT ??$__vcrt_va_start_verify_argument_type@PEBD@@YAXXZ
_TEXT	SEGMENT
??$__vcrt_va_start_verify_argument_type@PEBD@@YAXXZ PROC ; __vcrt_va_start_verify_argument_type<char const * __ptr64>, COMDAT

; 144  :         {

$LN3:
  00000	40 57		 push	 rdi

; 145  :             static_assert(!__vcrt_va_list_is_reference<_Ty>::__the_value, "va_start argument must not have reference type and must not be parenthesized");
; 146  :         }

  00002	5f		 pop	 rdi
  00003	c3		 ret	 0
??$__vcrt_va_start_verify_argument_type@PEBD@@YAXXZ ENDP ; __vcrt_va_start_verify_argument_type<char const * __ptr64>
_TEXT	ENDS
; Function compile flags: /Odtp /RTCsu
;	COMDAT ??__FLock_Logger@@YAXXZ
text$yd	SEGMENT
??__FLock_Logger@@YAXXZ PROC				; `dynamic atexit destructor for 'Lock_Logger'', COMDAT
  00000	40 57		 push	 rdi
  00002	48 83 ec 20	 sub	 rsp, 32			; 00000020H
  00006	48 8b fc	 mov	 rdi, rsp
  00009	b9 08 00 00 00	 mov	 ecx, 8
  0000e	b8 cc cc cc cc	 mov	 eax, -858993460		; ccccccccH
  00013	f3 ab		 rep stosd
  00015	48 8d 0d 00 00
	00 00		 lea	 rcx, OFFSET FLAT:?Lock_Logger@@3Vwin_atomic@win32@common@@A
  0001c	e8 00 00 00 00	 call	 ??1win_atomic@win32@common@@QEAA@XZ ; common::win32::win_atomic::~win_atomic
  00021	48 83 c4 20	 add	 rsp, 32			; 00000020H
  00025	5f		 pop	 rdi
  00026	c3		 ret	 0
??__FLock_Logger@@YAXXZ ENDP				; `dynamic atexit destructor for 'Lock_Logger''
text$yd	ENDS
; Function compile flags: /Odtp /RTCsu
; File d:\newproject2\com\src\comstlogger.cpp
;	COMDAT ??__ELock_Logger@@YAXXZ
text$di	SEGMENT
??__ELock_Logger@@YAXXZ PROC				; `dynamic initializer for 'Lock_Logger'', COMDAT

; 13   : static FAST_LOCK Lock_Logger;

  00000	40 57		 push	 rdi
  00002	48 83 ec 20	 sub	 rsp, 32			; 00000020H
  00006	48 8b fc	 mov	 rdi, rsp
  00009	b9 08 00 00 00	 mov	 ecx, 8
  0000e	b8 cc cc cc cc	 mov	 eax, -858993460		; ccccccccH
  00013	f3 ab		 rep stosd
  00015	48 8d 0d 00 00
	00 00		 lea	 rcx, OFFSET FLAT:?Lock_Logger@@3Vwin_atomic@win32@common@@A
  0001c	e8 00 00 00 00	 call	 ??0win_atomic@win32@common@@QEAA@XZ ; common::win32::win_atomic::win_atomic
  00021	48 8d 0d 00 00
	00 00		 lea	 rcx, OFFSET FLAT:??__FLock_Logger@@YAXXZ ; `dynamic atexit destructor for 'Lock_Logger''
  00028	e8 00 00 00 00	 call	 atexit
  0002d	48 83 c4 20	 add	 rsp, 32			; 00000020H
  00031	5f		 pop	 rdi
  00032	c3		 ret	 0
??__ELock_Logger@@YAXXZ ENDP				; `dynamic initializer for 'Lock_Logger''
text$di	ENDS
; Function compile flags: /Odtp /RTCsu
; File d:\newproject2\com\src\comstlogger.cpp
_TEXT	SEGMENT
curTm$ = 48
$T4 = 192
__$ArrayPad$ = 200
this$ = 224
bAble$ = 232
?_initClass@CSTLogger@@AEAAX_N@Z PROC			; CSTLogger::_initClass

; 25   : {

$LN6:
  00000	88 54 24 10	 mov	 BYTE PTR [rsp+16], dl
  00004	48 89 4c 24 08	 mov	 QWORD PTR [rsp+8], rcx
  00009	57		 push	 rdi
  0000a	48 81 ec d0 00
	00 00		 sub	 rsp, 208		; 000000d0H
  00011	48 8b fc	 mov	 rdi, rsp
  00014	b9 34 00 00 00	 mov	 ecx, 52			; 00000034H
  00019	b8 cc cc cc cc	 mov	 eax, -858993460		; ccccccccH
  0001e	f3 ab		 rep stosd
  00020	48 8b 8c 24 e0
	00 00 00	 mov	 rcx, QWORD PTR [rsp+224]
  00028	48 c7 84 24 c0
	00 00 00 fe ff
	ff ff		 mov	 QWORD PTR $T4[rsp], -2
  00034	48 8b 05 00 00
	00 00		 mov	 rax, QWORD PTR __security_cookie
  0003b	48 33 c4	 xor	 rax, rsp
  0003e	48 89 84 24 c8
	00 00 00	 mov	 QWORD PTR __$ArrayPad$[rsp], rax

; 26   : 	m_pLogger = NULL;

  00046	48 8b 84 24 e0
	00 00 00	 mov	 rax, QWORD PTR this$[rsp]
  0004e	48 c7 40 18 00
	00 00 00	 mov	 QWORD PTR [rax+24], 0

; 27   : 	m_pLogDir = NULL;

  00056	48 8b 84 24 e0
	00 00 00	 mov	 rax, QWORD PTR this$[rsp]
  0005e	48 c7 40 28 00
	00 00 00	 mov	 QWORD PTR [rax+40], 0

; 28   : 	m_pLogName = NULL;

  00066	48 8b 84 24 e0
	00 00 00	 mov	 rax, QWORD PTR this$[rsp]
  0006e	48 c7 40 30 00
	00 00 00	 mov	 QWORD PTR [rax+48], 0

; 29   : 	m_bQuit = false;

  00076	48 8b 84 24 e0
	00 00 00	 mov	 rax, QWORD PTR this$[rsp]
  0007e	c6 40 20 00	 mov	 BYTE PTR [rax+32], 0

; 30   : 	m_nLogLevel = 0;

  00082	48 8b 84 24 e0
	00 00 00	 mov	 rax, QWORD PTR this$[rsp]
  0008a	c7 40 24 00 00
	00 00		 mov	 DWORD PTR [rax+36], 0

; 31   : 	memset(&m_sLogQueue, 0, sizeof(m_sLogQueue));

  00091	48 8b 84 24 e0
	00 00 00	 mov	 rax, QWORD PTR this$[rsp]
  00099	48 83 c0 50	 add	 rax, 80			; 00000050H
  0009d	41 b8 18 00 00
	00		 mov	 r8d, 24
  000a3	33 d2		 xor	 edx, edx
  000a5	48 8b c8	 mov	 rcx, rax
  000a8	e8 00 00 00 00	 call	 memset

; 32   : 	gs_pToday_time = &gs_today_time;

  000ad	48 8d 05 00 00
	00 00		 lea	 rax, OFFSET FLAT:?gs_today_time@@3USTTodayTime@@A
  000b4	48 89 05 00 00
	00 00		 mov	 QWORD PTR ?gs_pToday_time@@3PEAUSTTodayTime@@EA, rax ; gs_pToday_time

; 33   : 	memset(gs_pToday_time, 0, sizeof(STTodayTime));

  000bb	41 b8 1c 00 00
	00		 mov	 r8d, 28
  000c1	33 d2		 xor	 edx, edx
  000c3	48 8b 0d 00 00
	00 00		 mov	 rcx, QWORD PTR ?gs_pToday_time@@3PEAUSTTodayTime@@EA ; gs_pToday_time
  000ca	e8 00 00 00 00	 call	 memset

; 34   : 
; 35   : 	//  
; 36   : 	m_pfDayChange = NULL;

  000cf	48 8b 84 24 e0
	00 00 00	 mov	 rax, QWORD PTR this$[rsp]
  000d7	48 c7 00 00 00
	00 00		 mov	 QWORD PTR [rax], 0

; 37   : 	m_pfHourChange = NULL;

  000de	48 8b 84 24 e0
	00 00 00	 mov	 rax, QWORD PTR this$[rsp]
  000e6	48 c7 40 08 00
	00 00 00	 mov	 QWORD PTR [rax+8], 0

; 38   : 	m_pfProcessDataFromQueue = NULL;

  000ee	48 8b 84 24 e0
	00 00 00	 mov	 rax, QWORD PTR this$[rsp]
  000f6	48 c7 40 10 00
	00 00 00	 mov	 QWORD PTR [rax+16], 0

; 39   : 
; 40   : 	m_nSizeLimit = 0;

  000fe	48 8b 84 24 e0
	00 00 00	 mov	 rax, QWORD PTR this$[rsp]
  00106	c7 40 40 00 00
	00 00		 mov	 DWORD PTR [rax+64], 0

; 41   : 	m_nDaysExistence = 0;

  0010d	48 8b 84 24 e0
	00 00 00	 mov	 rax, QWORD PTR this$[rsp]
  00115	c7 40 44 00 00
	00 00		 mov	 DWORD PTR [rax+68], 0

; 42   : 	
; 43   : 	if(bAble) m_nFlag = IS_CREATE_THREAD;

  0011c	0f b6 84 24 e8
	00 00 00	 movzx	 eax, BYTE PTR bAble$[rsp]
  00124	85 c0		 test	 eax, eax
  00126	74 11		 je	 SHORT $LN2@initClass
  00128	48 8b 84 24 e0
	00 00 00	 mov	 rax, QWORD PTR this$[rsp]
  00130	c7 40 38 01 00
	00 00		 mov	 DWORD PTR [rax+56], 1
  00137	eb 0f		 jmp	 SHORT $LN3@initClass
$LN2@initClass:

; 44   : 	else m_nFlag = 0;

  00139	48 8b 84 24 e0
	00 00 00	 mov	 rax, QWORD PTR this$[rsp]
  00141	c7 40 38 00 00
	00 00		 mov	 DWORD PTR [rax+56], 0
$LN3@initClass:

; 45   : 
; 46   : 	FAST_LOCK_INIT(&Lock_Logger);

  00148	48 8d 0d 00 00
	00 00		 lea	 rcx, OFFSET FLAT:?Lock_Logger@@3Vwin_atomic@win32@common@@A
  0014f	e8 00 00 00 00	 call	 initSpinLock

; 47   : 
; 48   : 	CDateTime curTm;

  00154	48 8d 4c 24 30	 lea	 rcx, QWORD PTR curTm$[rsp]
  00159	e8 00 00 00 00	 call	 ??0CDateTime@@QEAA@XZ	; CDateTime::CDateTime
  0015e	90		 npad	 1

; 49   : 
; 50   : 	gs_today_time.date  = _ttoi(curTm.DateString());

  0015f	33 d2		 xor	 edx, edx
  00161	48 8d 4c 24 30	 lea	 rcx, QWORD PTR curTm$[rsp]
  00166	e8 00 00 00 00	 call	 ?DateString@CDateTime@@QEAAPEBDD@Z ; CDateTime::DateString
  0016b	48 8b c8	 mov	 rcx, rax
  0016e	ff 15 00 00 00
	00		 call	 QWORD PTR __imp_atoi
  00174	89 05 18 00 00
	00		 mov	 DWORD PTR ?gs_today_time@@3USTTodayTime@@A+24, eax

; 51   : 	gs_today_time.year	= curTm.Year();

  0017a	48 8d 4c 24 30	 lea	 rcx, QWORD PTR curTm$[rsp]
  0017f	e8 00 00 00 00	 call	 ?Year@CDateTime@@QEAAHXZ ; CDateTime::Year
  00184	89 05 00 00 00
	00		 mov	 DWORD PTR ?gs_today_time@@3USTTodayTime@@A, eax

; 52   : 	gs_today_time.month	= curTm.Month();

  0018a	48 8d 4c 24 30	 lea	 rcx, QWORD PTR curTm$[rsp]
  0018f	e8 00 00 00 00	 call	 ?Month@CDateTime@@QEAAHXZ ; CDateTime::Month
  00194	89 05 04 00 00
	00		 mov	 DWORD PTR ?gs_today_time@@3USTTodayTime@@A+4, eax

; 53   : 	gs_today_time.mday	= curTm.Mday();

  0019a	48 8d 4c 24 30	 lea	 rcx, QWORD PTR curTm$[rsp]
  0019f	e8 00 00 00 00	 call	 ?Mday@CDateTime@@QEAAHXZ ; CDateTime::Mday
  001a4	89 05 08 00 00
	00		 mov	 DWORD PTR ?gs_today_time@@3USTTodayTime@@A+8, eax

; 54   : 	gs_today_time.wday	= curTm.Wday();

  001aa	48 8d 4c 24 30	 lea	 rcx, QWORD PTR curTm$[rsp]
  001af	e8 00 00 00 00	 call	 ?Wday@CDateTime@@QEAAHXZ ; CDateTime::Wday
  001b4	89 05 0c 00 00
	00		 mov	 DWORD PTR ?gs_today_time@@3USTTodayTime@@A+12, eax

; 55   : 	gs_today_time.hour  = curTm.Hour();

  001ba	48 8d 4c 24 30	 lea	 rcx, QWORD PTR curTm$[rsp]
  001bf	e8 00 00 00 00	 call	 ?Hour@CDateTime@@QEAAHXZ ; CDateTime::Hour
  001c4	89 05 10 00 00
	00		 mov	 DWORD PTR ?gs_today_time@@3USTTodayTime@@A+16, eax

; 56   : 	gs_today_time.minute = curTm.Minute();

  001ca	48 8d 4c 24 30	 lea	 rcx, QWORD PTR curTm$[rsp]
  001cf	e8 00 00 00 00	 call	 ?Minute@CDateTime@@QEAAHXZ ; CDateTime::Minute
  001d4	89 05 14 00 00
	00		 mov	 DWORD PTR ?gs_today_time@@3USTTodayTime@@A+20, eax

; 57   : 	m_nSeq = 0;

  001da	48 8b 84 24 e0
	00 00 00	 mov	 rax, QWORD PTR this$[rsp]
  001e2	c7 40 3c 00 00
	00 00		 mov	 DWORD PTR [rax+60], 0

; 58   : 
; 59   : }

  001e9	48 8d 4c 24 30	 lea	 rcx, QWORD PTR curTm$[rsp]
  001ee	e8 00 00 00 00	 call	 ??1CDateTime@@QEAA@XZ	; CDateTime::~CDateTime
  001f3	48 8b cc	 mov	 rcx, rsp
  001f6	48 8d 15 00 00
	00 00		 lea	 rdx, OFFSET FLAT:?_initClass@CSTLogger@@AEAAX_N@Z$rtcFrameData
  001fd	e8 00 00 00 00	 call	 _RTC_CheckStackVars
  00202	48 8b 8c 24 c8
	00 00 00	 mov	 rcx, QWORD PTR __$ArrayPad$[rsp]
  0020a	48 33 cc	 xor	 rcx, rsp
  0020d	e8 00 00 00 00	 call	 __security_check_cookie
  00212	48 81 c4 d0 00
	00 00		 add	 rsp, 208		; 000000d0H
  00219	5f		 pop	 rdi
  0021a	c3		 ret	 0
?_initClass@CSTLogger@@AEAAX_N@Z ENDP			; CSTLogger::_initClass
_TEXT	ENDS
text$x	SEGMENT
curTm$ = 48
$T4 = 192
__$ArrayPad$ = 200
this$ = 224
bAble$ = 232
?dtor$0@?0??_initClass@CSTLogger@@AEAAX_N@Z@4HA PROC	; `CSTLogger::_initClass'::`1'::dtor$0
  00000	48 89 4c 24 08	 mov	 QWORD PTR [rsp+8], rcx
  00005	48 89 54 24 10	 mov	 QWORD PTR [rsp+16], rdx
  0000a	55		 push	 rbp
  0000b	57		 push	 rdi
  0000c	48 83 ec 28	 sub	 rsp, 40			; 00000028H
  00010	48 8b ea	 mov	 rbp, rdx
  00013	48 8d 4d 30	 lea	 rcx, QWORD PTR curTm$[rbp]
  00017	e8 00 00 00 00	 call	 ??1CDateTime@@QEAA@XZ	; CDateTime::~CDateTime
  0001c	48 83 c4 28	 add	 rsp, 40			; 00000028H
  00020	5f		 pop	 rdi
  00021	5d		 pop	 rbp
  00022	c3		 ret	 0
?dtor$0@?0??_initClass@CSTLogger@@AEAAX_N@Z@4HA ENDP	; `CSTLogger::_initClass'::`1'::dtor$0
text$x	ENDS
; Function compile flags: /Odtp /RTCsu
text$x	SEGMENT
curTm$ = 48
$T4 = 192
__$ArrayPad$ = 200
this$ = 224
bAble$ = 232
?dtor$0@?0??_initClass@CSTLogger@@AEAAX_N@Z@4HA PROC	; `CSTLogger::_initClass'::`1'::dtor$0
  00000	48 89 4c 24 08	 mov	 QWORD PTR [rsp+8], rcx
  00005	48 89 54 24 10	 mov	 QWORD PTR [rsp+16], rdx
  0000a	55		 push	 rbp
  0000b	57		 push	 rdi
  0000c	48 83 ec 28	 sub	 rsp, 40			; 00000028H
  00010	48 8b ea	 mov	 rbp, rdx
  00013	48 8d 4d 30	 lea	 rcx, QWORD PTR curTm$[rbp]
  00017	e8 00 00 00 00	 call	 ??1CDateTime@@QEAA@XZ	; CDateTime::~CDateTime
  0001c	48 83 c4 28	 add	 rsp, 40			; 00000028H
  00020	5f		 pop	 rdi
  00021	5d		 pop	 rbp
  00022	c3		 ret	 0
?dtor$0@?0??_initClass@CSTLogger@@AEAAX_N@Z@4HA ENDP	; `CSTLogger::_initClass'::`1'::dtor$0
text$x	ENDS
; Function compile flags: /Odtp /RTCsu
; File d:\newproject2\com\src\comstlogger.cpp
_TEXT	SEGMENT
tv132 = 32
this$ = 64
pLogHeader$ = 72
pMsg$ = 80
nSize$ = 88
pBuf$ = 96
?_putLogQueue@CSTLogger@@AEAAXPEAD0H0@Z PROC		; CSTLogger::_putLogQueue

; 453  : {

$LN5:
  00000	44 89 4c 24 20	 mov	 DWORD PTR [rsp+32], r9d
  00005	4c 89 44 24 18	 mov	 QWORD PTR [rsp+24], r8
  0000a	48 89 54 24 10	 mov	 QWORD PTR [rsp+16], rdx
  0000f	48 89 4c 24 08	 mov	 QWORD PTR [rsp+8], rcx
  00014	57		 push	 rdi
  00015	48 83 ec 30	 sub	 rsp, 48			; 00000030H
  00019	48 8b fc	 mov	 rdi, rsp
  0001c	b9 0c 00 00 00	 mov	 ecx, 12
  00021	b8 cc cc cc cc	 mov	 eax, -858993460		; ccccccccH
  00026	f3 ab		 rep stosd
  00028	48 8b 4c 24 40	 mov	 rcx, QWORD PTR [rsp+64]

; 454  : 	if (!pBuf) {

  0002d	48 83 7c 24 60
	00		 cmp	 QWORD PTR pBuf$[rsp], 0
  00033	75 3f		 jne	 SHORT $LN2@putLogQueu

; 455  : 		nSize += 2; //\n + \0

  00035	8b 44 24 58	 mov	 eax, DWORD PTR nSize$[rsp]
  00039	83 c0 02	 add	 eax, 2
  0003c	89 44 24 58	 mov	 DWORD PTR nSize$[rsp], eax

; 456  : 		pBuf = g_cMMgr.newBuf(nSize);

  00040	48 63 44 24 58	 movsxd	 rax, DWORD PTR nSize$[rsp]
  00045	48 8b d0	 mov	 rdx, rax
  00048	48 8d 0d 00 00
	00 00		 lea	 rcx, OFFSET FLAT:?g_cMMgr@@3VCMemManager@@A ; g_cMMgr
  0004f	e8 00 00 00 00	 call	 ?newBuf@CMemManager@@QEAAPEAD_K@Z ; CMemManager::newBuf
  00054	48 89 44 24 60	 mov	 QWORD PTR pBuf$[rsp], rax

; 457  : 		_stprintf(pBuf, _T("%s%s\n"), pLogHeader, pMsg);

  00059	4c 8b 4c 24 50	 mov	 r9, QWORD PTR pMsg$[rsp]
  0005e	4c 8b 44 24 48	 mov	 r8, QWORD PTR pLogHeader$[rsp]
  00063	48 8d 15 00 00
	00 00		 lea	 rdx, OFFSET FLAT:$SG44482
  0006a	48 8b 4c 24 60	 mov	 rcx, QWORD PTR pBuf$[rsp]
  0006f	e8 00 00 00 00	 call	 sprintf
$LN2@putLogQueu:

; 458  : 	}
; 459  : 	if(m_sLogQueue.isFull()) {

  00074	48 8b 44 24 40	 mov	 rax, QWORD PTR this$[rsp]
  00079	48 83 c0 50	 add	 rax, 80			; 00000050H
  0007d	48 8b c8	 mov	 rcx, rax
  00080	e8 00 00 00 00	 call	 ?isFull@StCOMQueue@@QEAA_NXZ ; StCOMQueue::isFull
  00085	0f b6 c0	 movzx	 eax, al
  00088	85 c0		 test	 eax, eax
  0008a	74 27		 je	 SHORT $LN3@putLogQueu

; 460  : 		printf("CSTLogger::_putLogQueue m_sLogQueue is FULL!! \n\n");

  0008c	48 8d 0d 00 00
	00 00		 lea	 rcx, OFFSET FLAT:$SG44484
  00093	e8 00 00 00 00	 call	 printf

; 461  : 		g_cMMgr.delBuf(pBuf, nSize);

  00098	48 63 44 24 58	 movsxd	 rax, DWORD PTR nSize$[rsp]
  0009d	4c 8b c0	 mov	 r8, rax
  000a0	48 8b 54 24 60	 mov	 rdx, QWORD PTR pBuf$[rsp]
  000a5	48 8d 0d 00 00
	00 00		 lea	 rcx, OFFSET FLAT:?g_cMMgr@@3VCMemManager@@A ; g_cMMgr
  000ac	e8 00 00 00 00	 call	 ?delBuf@CMemManager@@QEAAXPEAD_K@Z ; CMemManager::delBuf

; 462  : 		return;

  000b1	eb 61		 jmp	 SHORT $LN1@putLogQueu
$LN3@putLogQueu:

; 463  : 	}
; 464  : 	printf("%s", pBuf);

  000b3	48 8b 54 24 60	 mov	 rdx, QWORD PTR pBuf$[rsp]
  000b8	48 8d 0d 00 00
	00 00		 lea	 rcx, OFFSET FLAT:$SG44485
  000bf	e8 00 00 00 00	 call	 printf

; 465  :     FAST_LOCK_ENTER(&Lock_Logger);

  000c4	48 8d 0d 00 00
	00 00		 lea	 rcx, OFFSET FLAT:?Lock_Logger@@3Vwin_atomic@win32@common@@A
  000cb	e8 00 00 00 00	 call	 acquireSpinLock

; 466  : 	m_sLogQueue.push((void *)pBuf);

  000d0	48 8b 44 24 40	 mov	 rax, QWORD PTR this$[rsp]
  000d5	48 83 c0 50	 add	 rax, 80			; 00000050H
  000d9	48 8b 54 24 60	 mov	 rdx, QWORD PTR pBuf$[rsp]
  000de	48 8b c8	 mov	 rcx, rax
  000e1	e8 00 00 00 00	 call	 ?push@StCOMQueue@@QEAAXPEAX@Z ; StCOMQueue::push

; 467  :     FAST_LOCK_LEAVE(&Lock_Logger);

  000e6	48 8d 0d 00 00
	00 00		 lea	 rcx, OFFSET FLAT:?Lock_Logger@@3Vwin_atomic@win32@common@@A
  000ed	e8 00 00 00 00	 call	 releaseSpinLock

; 468  : 
; 469  :     m_thCondLog.signal();

  000f2	48 8b 44 24 40	 mov	 rax, QWORD PTR this$[rsp]
  000f7	48 83 c0 68	 add	 rax, 104		; 00000068H
  000fb	48 8b 4c 24 40	 mov	 rcx, QWORD PTR this$[rsp]
  00100	48 8b 49 68	 mov	 rcx, QWORD PTR [rcx+104]
  00104	48 89 4c 24 20	 mov	 QWORD PTR tv132[rsp], rcx
  00109	48 8b c8	 mov	 rcx, rax
  0010c	48 8b 44 24 20	 mov	 rax, QWORD PTR tv132[rsp]
  00111	ff 50 08	 call	 QWORD PTR [rax+8]
$LN1@putLogQueu:

; 470  : }

  00114	48 83 c4 30	 add	 rsp, 48			; 00000030H
  00118	5f		 pop	 rdi
  00119	c3		 ret	 0
?_putLogQueue@CSTLogger@@AEAAXPEAD0H0@Z ENDP		; CSTLogger::_putLogQueue
_TEXT	ENDS
; Function compile flags: /Odtp /RTCsu
; File d:\newproject2\com\src\comstlogger.cpp
_TEXT	SEGMENT
szLogName$ = 64
nRes$4 = 324
nSeq$5 = 328
__$ArrayPad$ = 344
this$ = 368
curDT$ = 376
?myLoggerOpen@CSTLogger@@AEAAXPEAVCDateTime@@@Z PROC	; CSTLogger::myLoggerOpen

; 579  : {

$LN12:
  00000	48 89 54 24 10	 mov	 QWORD PTR [rsp+16], rdx
  00005	48 89 4c 24 08	 mov	 QWORD PTR [rsp+8], rcx
  0000a	57		 push	 rdi
  0000b	48 81 ec 60 01
	00 00		 sub	 rsp, 352		; 00000160H
  00012	48 8b fc	 mov	 rdi, rsp
  00015	b9 58 00 00 00	 mov	 ecx, 88			; 00000058H
  0001a	b8 cc cc cc cc	 mov	 eax, -858993460		; ccccccccH
  0001f	f3 ab		 rep stosd
  00021	48 8b 8c 24 70
	01 00 00	 mov	 rcx, QWORD PTR [rsp+368]
  00029	48 8b 05 00 00
	00 00		 mov	 rax, QWORD PTR __security_cookie
  00030	48 33 c4	 xor	 rax, rsp
  00033	48 89 84 24 58
	01 00 00	 mov	 QWORD PTR __$ArrayPad$[rsp], rax

; 580  : 	// Logger 
; 581  : 	TCHAR szLogName[256];  // jSERVER#_#_DATE.log -> 1 # :  , 2 # : 
; 582  : 
; 583  : 	memset(szLogName,  0, sizeof(szLogName));

  0003b	41 b8 00 01 00
	00		 mov	 r8d, 256		; 00000100H
  00041	33 d2		 xor	 edx, edx
  00043	48 8d 4c 24 40	 lea	 rcx, QWORD PTR szLogName$[rsp]
  00048	e8 00 00 00 00	 call	 memset

; 584  : 
; 585  : 	if (m_nFlag & IS_ACTIVE_DAYCHANGE_LOG) {

  0004d	48 8b 84 24 70
	01 00 00	 mov	 rax, QWORD PTR this$[rsp]
  00055	8b 40 38	 mov	 eax, DWORD PTR [rax+56]
  00058	83 e0 10	 and	 eax, 16
  0005b	85 c0		 test	 eax, eax
  0005d	74 51		 je	 SHORT $LN4@myLoggerOp

; 586  : 		_stprintf(szLogName, _T("%s/%s-%s-%d.log"), m_pLogDir, m_pLogName, curDT->DateString(), m_nSeq);

  0005f	33 d2		 xor	 edx, edx
  00061	48 8b 8c 24 78
	01 00 00	 mov	 rcx, QWORD PTR curDT$[rsp]
  00069	e8 00 00 00 00	 call	 ?DateString@CDateTime@@QEAAPEBDD@Z ; CDateTime::DateString
  0006e	48 8b 8c 24 70
	01 00 00	 mov	 rcx, QWORD PTR this$[rsp]
  00076	8b 49 3c	 mov	 ecx, DWORD PTR [rcx+60]
  00079	89 4c 24 28	 mov	 DWORD PTR [rsp+40], ecx
  0007d	48 89 44 24 20	 mov	 QWORD PTR [rsp+32], rax
  00082	48 8b 84 24 70
	01 00 00	 mov	 rax, QWORD PTR this$[rsp]
  0008a	4c 8b 48 30	 mov	 r9, QWORD PTR [rax+48]
  0008e	48 8b 84 24 70
	01 00 00	 mov	 rax, QWORD PTR this$[rsp]
  00096	4c 8b 40 28	 mov	 r8, QWORD PTR [rax+40]
  0009a	48 8d 15 00 00
	00 00		 lea	 rdx, OFFSET FLAT:$SG44549
  000a1	48 8d 4c 24 40	 lea	 rcx, QWORD PTR szLogName$[rsp]
  000a6	e8 00 00 00 00	 call	 sprintf

; 587  : 	}
; 588  : 	else {

  000ab	e9 10 02 00 00	 jmp	 $LN5@myLoggerOp
$LN4@myLoggerOp:

; 589  : 		int nRes = 0; // 0 : ,  : 

  000b0	c7 84 24 44 01
	00 00 00 00 00
	00		 mov	 DWORD PTR nRes$4[rsp], 0

; 590  : 		if (2 < m_nSeq) {

  000bb	48 8b 84 24 70
	01 00 00	 mov	 rax, QWORD PTR this$[rsp]
  000c3	83 78 3c 02	 cmp	 DWORD PTR [rax+60], 2
  000c7	0f 8e ba 00 00
	00		 jle	 $LN6@myLoggerOp

; 591  : 			int nSeq = m_nSeq - 2;

  000cd	48 8b 84 24 70
	01 00 00	 mov	 rax, QWORD PTR this$[rsp]
  000d5	8b 40 3c	 mov	 eax, DWORD PTR [rax+60]
  000d8	83 e8 02	 sub	 eax, 2
  000db	89 84 24 48 01
	00 00		 mov	 DWORD PTR nSeq$5[rsp], eax
$LN2@myLoggerOp:

; 592  : 			while (!nRes && nSeq) {

  000e2	83 bc 24 44 01
	00 00 00	 cmp	 DWORD PTR nRes$4[rsp], 0
  000ea	0f 85 92 00 00
	00		 jne	 $LN3@myLoggerOp
  000f0	83 bc 24 48 01
	00 00 00	 cmp	 DWORD PTR nSeq$5[rsp], 0
  000f8	0f 84 84 00 00
	00		 je	 $LN3@myLoggerOp

; 593  : 				_stprintf(szLogName, _T("%s/%s_%d.log"), m_pLogDir, m_pLogName, nSeq);

  000fe	8b 84 24 48 01
	00 00		 mov	 eax, DWORD PTR nSeq$5[rsp]
  00105	89 44 24 20	 mov	 DWORD PTR [rsp+32], eax
  00109	48 8b 84 24 70
	01 00 00	 mov	 rax, QWORD PTR this$[rsp]
  00111	4c 8b 48 30	 mov	 r9, QWORD PTR [rax+48]
  00115	48 8b 84 24 70
	01 00 00	 mov	 rax, QWORD PTR this$[rsp]
  0011d	4c 8b 40 28	 mov	 r8, QWORD PTR [rax+40]
  00121	48 8d 15 00 00
	00 00		 lea	 rdx, OFFSET FLAT:$SG44552
  00128	48 8d 4c 24 40	 lea	 rcx, QWORD PTR szLogName$[rsp]
  0012d	e8 00 00 00 00	 call	 sprintf

; 594  : 				nRes = remove(szLogName);

  00132	48 8d 4c 24 40	 lea	 rcx, QWORD PTR szLogName$[rsp]
  00137	ff 15 00 00 00
	00		 call	 QWORD PTR __imp_remove
  0013d	89 84 24 44 01
	00 00		 mov	 DWORD PTR nRes$4[rsp], eax

; 595  : 				CSTLogger::PutLogQueue(LOG_INFO, _T("delete Log[%s] nRes[%d]"), szLogName, nRes);

  00144	8b 84 24 44 01
	00 00		 mov	 eax, DWORD PTR nRes$4[rsp]
  0014b	89 44 24 20	 mov	 DWORD PTR [rsp+32], eax
  0014f	4c 8d 4c 24 40	 lea	 r9, QWORD PTR szLogName$[rsp]
  00154	4c 8d 05 00 00
	00 00		 lea	 r8, OFFSET FLAT:$SG44553
  0015b	ba 04 00 00 00	 mov	 edx, 4
  00160	48 8b 8c 24 70
	01 00 00	 mov	 rcx, QWORD PTR this$[rsp]
  00168	e8 00 00 00 00	 call	 ?PutLogQueue@CSTLogger@@QEAAXHPEBDZZ ; CSTLogger::PutLogQueue

; 596  : 				nSeq--;

  0016d	8b 84 24 48 01
	00 00		 mov	 eax, DWORD PTR nSeq$5[rsp]
  00174	ff c8		 dec	 eax
  00176	89 84 24 48 01
	00 00		 mov	 DWORD PTR nSeq$5[rsp], eax

; 597  : 			}

  0017d	e9 60 ff ff ff	 jmp	 $LN2@myLoggerOp
$LN3@myLoggerOp:

; 598  : 		}
; 599  : 		else if (m_nSeq == 2) {

  00182	e9 f6 00 00 00	 jmp	 $LN7@myLoggerOp
$LN6@myLoggerOp:
  00187	48 8b 84 24 70
	01 00 00	 mov	 rax, QWORD PTR this$[rsp]
  0018f	83 78 3c 02	 cmp	 DWORD PTR [rax+60], 2
  00193	75 6e		 jne	 SHORT $LN8@myLoggerOp

; 600  : 			_stprintf(szLogName, _T("%s/%s_%d.log"), m_pLogDir, m_pLogName, MAX_SEQ);

  00195	c7 44 24 20 7f
	96 98 00	 mov	 DWORD PTR [rsp+32], 9999999 ; 0098967fH
  0019d	48 8b 84 24 70
	01 00 00	 mov	 rax, QWORD PTR this$[rsp]
  001a5	4c 8b 48 30	 mov	 r9, QWORD PTR [rax+48]
  001a9	48 8b 84 24 70
	01 00 00	 mov	 rax, QWORD PTR this$[rsp]
  001b1	4c 8b 40 28	 mov	 r8, QWORD PTR [rax+40]
  001b5	48 8d 15 00 00
	00 00		 lea	 rdx, OFFSET FLAT:$SG44556
  001bc	48 8d 4c 24 40	 lea	 rcx, QWORD PTR szLogName$[rsp]
  001c1	e8 00 00 00 00	 call	 sprintf

; 601  : 			nRes = remove(szLogName);

  001c6	48 8d 4c 24 40	 lea	 rcx, QWORD PTR szLogName$[rsp]
  001cb	ff 15 00 00 00
	00		 call	 QWORD PTR __imp_remove
  001d1	89 84 24 44 01
	00 00		 mov	 DWORD PTR nRes$4[rsp], eax

; 602  : 			CSTLogger::PutLogQueue(LOG_INFO, _T("delete Log[%s] nRes[%d]"), szLogName, nRes);

  001d8	8b 84 24 44 01
	00 00		 mov	 eax, DWORD PTR nRes$4[rsp]
  001df	89 44 24 20	 mov	 DWORD PTR [rsp+32], eax
  001e3	4c 8d 4c 24 40	 lea	 r9, QWORD PTR szLogName$[rsp]
  001e8	4c 8d 05 00 00
	00 00		 lea	 r8, OFFSET FLAT:$SG44557
  001ef	ba 04 00 00 00	 mov	 edx, 4
  001f4	48 8b 8c 24 70
	01 00 00	 mov	 rcx, QWORD PTR this$[rsp]
  001fc	e8 00 00 00 00	 call	 ?PutLogQueue@CSTLogger@@QEAAXHPEBDZZ ; CSTLogger::PutLogQueue
  00201	eb 7a		 jmp	 SHORT $LN9@myLoggerOp
$LN8@myLoggerOp:

; 603  : 		}
; 604  : 		else if (m_nSeq == 1) {

  00203	48 8b 84 24 70
	01 00 00	 mov	 rax, QWORD PTR this$[rsp]
  0020b	83 78 3c 01	 cmp	 DWORD PTR [rax+60], 1
  0020f	75 6c		 jne	 SHORT $LN10@myLoggerOp

; 605  : 			_stprintf(szLogName, _T("%s/%s_%d.log"), m_pLogDir, m_pLogName, MAX_SEQ-1);

  00211	c7 44 24 20 7e
	96 98 00	 mov	 DWORD PTR [rsp+32], 9999998 ; 0098967eH
  00219	48 8b 84 24 70
	01 00 00	 mov	 rax, QWORD PTR this$[rsp]
  00221	4c 8b 48 30	 mov	 r9, QWORD PTR [rax+48]
  00225	48 8b 84 24 70
	01 00 00	 mov	 rax, QWORD PTR this$[rsp]
  0022d	4c 8b 40 28	 mov	 r8, QWORD PTR [rax+40]
  00231	48 8d 15 00 00
	00 00		 lea	 rdx, OFFSET FLAT:$SG44559
  00238	48 8d 4c 24 40	 lea	 rcx, QWORD PTR szLogName$[rsp]
  0023d	e8 00 00 00 00	 call	 sprintf

; 606  : 			nRes = remove(szLogName);

  00242	48 8d 4c 24 40	 lea	 rcx, QWORD PTR szLogName$[rsp]
  00247	ff 15 00 00 00
	00		 call	 QWORD PTR __imp_remove
  0024d	89 84 24 44 01
	00 00		 mov	 DWORD PTR nRes$4[rsp], eax

; 607  : 			CSTLogger::PutLogQueue(LOG_INFO, _T("delete Log[%s] nRes[%d]"), szLogName, nRes);

  00254	8b 84 24 44 01
	00 00		 mov	 eax, DWORD PTR nRes$4[rsp]
  0025b	89 44 24 20	 mov	 DWORD PTR [rsp+32], eax
  0025f	4c 8d 4c 24 40	 lea	 r9, QWORD PTR szLogName$[rsp]
  00264	4c 8d 05 00 00
	00 00		 lea	 r8, OFFSET FLAT:$SG44560
  0026b	ba 04 00 00 00	 mov	 edx, 4
  00270	48 8b 8c 24 70
	01 00 00	 mov	 rcx, QWORD PTR this$[rsp]
  00278	e8 00 00 00 00	 call	 ?PutLogQueue@CSTLogger@@QEAAXHPEBDZZ ; CSTLogger::PutLogQueue
$LN10@myLoggerOp:
$LN9@myLoggerOp:
$LN7@myLoggerOp:

; 608  : 		}
; 609  : 		_stprintf(szLogName, _T("%s/%s_%d.log"), m_pLogDir, m_pLogName, m_nSeq);

  0027d	48 8b 84 24 70
	01 00 00	 mov	 rax, QWORD PTR this$[rsp]
  00285	8b 40 3c	 mov	 eax, DWORD PTR [rax+60]
  00288	89 44 24 20	 mov	 DWORD PTR [rsp+32], eax
  0028c	48 8b 84 24 70
	01 00 00	 mov	 rax, QWORD PTR this$[rsp]
  00294	4c 8b 48 30	 mov	 r9, QWORD PTR [rax+48]
  00298	48 8b 84 24 70
	01 00 00	 mov	 rax, QWORD PTR this$[rsp]
  002a0	4c 8b 40 28	 mov	 r8, QWORD PTR [rax+40]
  002a4	48 8d 15 00 00
	00 00		 lea	 rdx, OFFSET FLAT:$SG44561
  002ab	48 8d 4c 24 40	 lea	 rcx, QWORD PTR szLogName$[rsp]
  002b0	e8 00 00 00 00	 call	 sprintf

; 610  : 		remove(szLogName);

  002b5	48 8d 4c 24 40	 lea	 rcx, QWORD PTR szLogName$[rsp]
  002ba	ff 15 00 00 00
	00		 call	 QWORD PTR __imp_remove
$LN5@myLoggerOp:

; 611  : 	}
; 612  : 
; 613  : 
; 614  : 	_tprintf(_T("[%s] Logger Open\n"),szLogName);

  002c0	48 8d 54 24 40	 lea	 rdx, QWORD PTR szLogName$[rsp]
  002c5	48 8d 0d 00 00
	00 00		 lea	 rcx, OFFSET FLAT:$SG44562
  002cc	e8 00 00 00 00	 call	 printf

; 615  : 	m_pLogger->OpenLogger(szLogName);			// Logger Open

  002d1	48 8d 54 24 40	 lea	 rdx, QWORD PTR szLogName$[rsp]
  002d6	48 8b 84 24 70
	01 00 00	 mov	 rax, QWORD PTR this$[rsp]
  002de	48 8b 48 18	 mov	 rcx, QWORD PTR [rax+24]
  002e2	e8 00 00 00 00	 call	 ?OpenLogger@CLogger@@QEAAXPEBD@Z ; CLogger::OpenLogger

; 616  : 	m_pLogger->SetLogLevel(m_nLogLevel);		// Logger Level setting

  002e7	48 8b 84 24 70
	01 00 00	 mov	 rax, QWORD PTR this$[rsp]
  002ef	8b 50 24	 mov	 edx, DWORD PTR [rax+36]
  002f2	48 8b 84 24 70
	01 00 00	 mov	 rax, QWORD PTR this$[rsp]
  002fa	48 8b 48 18	 mov	 rcx, QWORD PTR [rax+24]
  002fe	e8 00 00 00 00	 call	 ?SetLogLevel@CLogger@@QEAAXH@Z ; CLogger::SetLogLevel

; 617  : }

  00303	48 8b cc	 mov	 rcx, rsp
  00306	48 8d 15 00 00
	00 00		 lea	 rdx, OFFSET FLAT:?myLoggerOpen@CSTLogger@@AEAAXPEAVCDateTime@@@Z$rtcFrameData
  0030d	e8 00 00 00 00	 call	 _RTC_CheckStackVars
  00312	48 8b 8c 24 58
	01 00 00	 mov	 rcx, QWORD PTR __$ArrayPad$[rsp]
  0031a	48 33 cc	 xor	 rcx, rsp
  0031d	e8 00 00 00 00	 call	 __security_check_cookie
  00322	48 81 c4 60 01
	00 00		 add	 rsp, 352		; 00000160H
  00329	5f		 pop	 rdi
  0032a	c3		 ret	 0
?myLoggerOpen@CSTLogger@@AEAAXPEAVCDateTime@@@Z ENDP	; CSTLogger::myLoggerOpen
_TEXT	ENDS
; Function compile flags: /Odtp /RTCsu
; File d:\newproject2\com\src\comstlogger.cpp
_TEXT	SEGMENT
szDate$5 = 56
res$6 = 84
curTm$7 = 112
$T8 = 256
__$ArrayPad$ = 264
this$ = 288
curDT$ = 296
?dayChangedProc@CSTLogger@@AEAAXPEAVCDateTime@@@Z PROC	; CSTLogger::dayChangedProc

; 562  : {

$LN5:
  00000	48 89 54 24 10	 mov	 QWORD PTR [rsp+16], rdx
  00005	48 89 4c 24 08	 mov	 QWORD PTR [rsp+8], rcx
  0000a	57		 push	 rdi
  0000b	48 81 ec 10 01
	00 00		 sub	 rsp, 272		; 00000110H
  00012	48 8b fc	 mov	 rdi, rsp
  00015	b9 44 00 00 00	 mov	 ecx, 68			; 00000044H
  0001a	b8 cc cc cc cc	 mov	 eax, -858993460		; ccccccccH
  0001f	f3 ab		 rep stosd
  00021	48 8b 8c 24 20
	01 00 00	 mov	 rcx, QWORD PTR [rsp+288]
  00029	48 c7 84 24 00
	01 00 00 fe ff
	ff ff		 mov	 QWORD PTR $T8[rsp], -2
  00035	48 8b 05 00 00
	00 00		 mov	 rax, QWORD PTR __security_cookie
  0003c	48 33 c4	 xor	 rax, rsp
  0003f	48 89 84 24 08
	01 00 00	 mov	 QWORD PTR __$ArrayPad$[rsp], rax

; 563  : 	myLoggerOpen(curDT);

  00047	48 8b 94 24 28
	01 00 00	 mov	 rdx, QWORD PTR curDT$[rsp]
  0004f	48 8b 8c 24 20
	01 00 00	 mov	 rcx, QWORD PTR this$[rsp]
  00057	e8 00 00 00 00	 call	 ?myLoggerOpen@CSTLogger@@AEAAXPEAVCDateTime@@@Z ; CSTLogger::myLoggerOpen

; 564  : 	PutLogQueue(LOG_INFO, _T("CSTLogger::dayChangedProc Day Changed! "));

  0005c	4c 8d 05 00 00
	00 00		 lea	 r8, OFFSET FLAT:$SG44535
  00063	ba 04 00 00 00	 mov	 edx, 4
  00068	48 8b 8c 24 20
	01 00 00	 mov	 rcx, QWORD PTR this$[rsp]
  00070	e8 00 00 00 00	 call	 ?PutLogQueue@CSTLogger@@QEAAXHPEBDZZ ; CSTLogger::PutLogQueue

; 565  : 
; 566  : 	// delete proc
; 567  : 	if (m_nDaysExistence) {

  00075	48 8b 84 24 20
	01 00 00	 mov	 rax, QWORD PTR this$[rsp]
  0007d	83 78 44 00	 cmp	 DWORD PTR [rax+68], 0
  00081	0f 84 86 00 00
	00		 je	 $LN2@dayChanged

; 568  : 		char szDate[24];
; 569  : 		int res;
; 570  : 		CDateTime	curTm;

  00087	48 8d 4c 24 70	 lea	 rcx, QWORD PTR curTm$7[rsp]
  0008c	e8 00 00 00 00	 call	 ??0CDateTime@@QEAA@XZ	; CDateTime::CDateTime
  00091	90		 npad	 1

; 571  : 		strcpy(szDate, curTm.DateString(m_nDaysExistence-1));

  00092	48 8b 84 24 20
	01 00 00	 mov	 rax, QWORD PTR this$[rsp]
  0009a	8b 40 44	 mov	 eax, DWORD PTR [rax+68]
  0009d	ff c8		 dec	 eax
  0009f	45 33 c0	 xor	 r8d, r8d
  000a2	8b d0		 mov	 edx, eax
  000a4	48 8d 4c 24 70	 lea	 rcx, QWORD PTR curTm$7[rsp]
  000a9	e8 00 00 00 00	 call	 ?DateString@CDateTime@@QEAAPEBDHD@Z ; CDateTime::DateString
  000ae	48 8b d0	 mov	 rdx, rax
  000b1	48 8d 4c 24 38	 lea	 rcx, QWORD PTR szDate$5[rsp]
  000b6	e8 00 00 00 00	 call	 strcpy

; 572  : 		res = CFileUtil::delSSFile(m_pLogDir, 1, szDate);

  000bb	4c 8d 44 24 38	 lea	 r8, QWORD PTR szDate$5[rsp]
  000c0	ba 01 00 00 00	 mov	 edx, 1
  000c5	48 8b 84 24 20
	01 00 00	 mov	 rax, QWORD PTR this$[rsp]
  000cd	48 8b 48 28	 mov	 rcx, QWORD PTR [rax+40]
  000d1	e8 00 00 00 00	 call	 ?delSSFile@CFileUtil@@SAHPEADH0@Z ; CFileUtil::delSSFile
  000d6	89 44 24 54	 mov	 DWORD PTR res$6[rsp], eax

; 573  : 		PutLogQueue(LOG_INFO, _T("delete log file count[%d] date[%s]"), res, szDate);

  000da	48 8d 44 24 38	 lea	 rax, QWORD PTR szDate$5[rsp]
  000df	48 89 44 24 20	 mov	 QWORD PTR [rsp+32], rax
  000e4	44 8b 4c 24 54	 mov	 r9d, DWORD PTR res$6[rsp]
  000e9	4c 8d 05 00 00
	00 00		 lea	 r8, OFFSET FLAT:$SG44537
  000f0	ba 04 00 00 00	 mov	 edx, 4
  000f5	48 8b 8c 24 20
	01 00 00	 mov	 rcx, QWORD PTR this$[rsp]
  000fd	e8 00 00 00 00	 call	 ?PutLogQueue@CSTLogger@@QEAAXHPEBDZZ ; CSTLogger::PutLogQueue
  00102	90		 npad	 1

; 574  : 	}

  00103	48 8d 4c 24 70	 lea	 rcx, QWORD PTR curTm$7[rsp]
  00108	e8 00 00 00 00	 call	 ??1CDateTime@@QEAA@XZ	; CDateTime::~CDateTime
$LN2@dayChanged:

; 575  : 
; 576  : }

  0010d	48 8b cc	 mov	 rcx, rsp
  00110	48 8d 15 00 00
	00 00		 lea	 rdx, OFFSET FLAT:?dayChangedProc@CSTLogger@@AEAAXPEAVCDateTime@@@Z$rtcFrameData
  00117	e8 00 00 00 00	 call	 _RTC_CheckStackVars
  0011c	48 8b 8c 24 08
	01 00 00	 mov	 rcx, QWORD PTR __$ArrayPad$[rsp]
  00124	48 33 cc	 xor	 rcx, rsp
  00127	e8 00 00 00 00	 call	 __security_check_cookie
  0012c	48 81 c4 10 01
	00 00		 add	 rsp, 272		; 00000110H
  00133	5f		 pop	 rdi
  00134	c3		 ret	 0
?dayChangedProc@CSTLogger@@AEAAXPEAVCDateTime@@@Z ENDP	; CSTLogger::dayChangedProc
_TEXT	ENDS
text$x	SEGMENT
szDate$5 = 56
res$6 = 84
curTm$7 = 112
$T8 = 256
__$ArrayPad$ = 264
this$ = 288
curDT$ = 296
?dtor$0@?0??dayChangedProc@CSTLogger@@AEAAXPEAVCDateTime@@@Z@4HA PROC ; `CSTLogger::dayChangedProc'::`1'::dtor$0
  00000	48 89 4c 24 08	 mov	 QWORD PTR [rsp+8], rcx
  00005	48 89 54 24 10	 mov	 QWORD PTR [rsp+16], rdx
  0000a	55		 push	 rbp
  0000b	57		 push	 rdi
  0000c	48 83 ec 28	 sub	 rsp, 40			; 00000028H
  00010	48 8b ea	 mov	 rbp, rdx
  00013	48 8d 4d 70	 lea	 rcx, QWORD PTR curTm$7[rbp]
  00017	e8 00 00 00 00	 call	 ??1CDateTime@@QEAA@XZ	; CDateTime::~CDateTime
  0001c	48 83 c4 28	 add	 rsp, 40			; 00000028H
  00020	5f		 pop	 rdi
  00021	5d		 pop	 rbp
  00022	c3		 ret	 0
?dtor$0@?0??dayChangedProc@CSTLogger@@AEAAXPEAVCDateTime@@@Z@4HA ENDP ; `CSTLogger::dayChangedProc'::`1'::dtor$0
text$x	ENDS
; Function compile flags: /Odtp /RTCsu
text$x	SEGMENT
szDate$5 = 56
res$6 = 84
curTm$7 = 112
$T8 = 256
__$ArrayPad$ = 264
this$ = 288
curDT$ = 296
?dtor$0@?0??dayChangedProc@CSTLogger@@AEAAXPEAVCDateTime@@@Z@4HA PROC ; `CSTLogger::dayChangedProc'::`1'::dtor$0
  00000	48 89 4c 24 08	 mov	 QWORD PTR [rsp+8], rcx
  00005	48 89 54 24 10	 mov	 QWORD PTR [rsp+16], rdx
  0000a	55		 push	 rbp
  0000b	57		 push	 rdi
  0000c	48 83 ec 28	 sub	 rsp, 40			; 00000028H
  00010	48 8b ea	 mov	 rbp, rdx
  00013	48 8d 4d 70	 lea	 rcx, QWORD PTR curTm$7[rbp]
  00017	e8 00 00 00 00	 call	 ??1CDateTime@@QEAA@XZ	; CDateTime::~CDateTime
  0001c	48 83 c4 28	 add	 rsp, 40			; 00000028H
  00020	5f		 pop	 rdi
  00021	5d		 pop	 rbp
  00022	c3		 ret	 0
?dtor$0@?0??dayChangedProc@CSTLogger@@AEAAXPEAVCDateTime@@@Z@4HA ENDP ; `CSTLogger::dayChangedProc'::`1'::dtor$0
text$x	ENDS
; Function compile flags: /Odtp /RTCsu
; File d:\newproject2\com\src\comstlogger.cpp
_TEXT	SEGMENT
curTm$ = 80
tmpBuf$ = 240
nLen$ = 756
msgBuf$ = 784
ap$ = 4904
$T7 = 4928
tv75 = 4936
__$ArrayPad$ = 4944
this$ = 4976
_szFile$ = 4984
_szFunc$ = 4992
_nLine$ = 5000
_szFormat$ = 5008
?_DebugLog@CSTLogger@@QEAAXPEBD0H0ZZ PROC		; CSTLogger::_DebugLog

; 329  : {

$LN5:
  00000	44 89 4c 24 20	 mov	 DWORD PTR [rsp+32], r9d
  00005	4c 89 44 24 18	 mov	 QWORD PTR [rsp+24], r8
  0000a	48 89 54 24 10	 mov	 QWORD PTR [rsp+16], rdx
  0000f	48 89 4c 24 08	 mov	 QWORD PTR [rsp+8], rcx
  00014	57		 push	 rdi
  00015	b8 60 13 00 00	 mov	 eax, 4960		; 00001360H
  0001a	e8 00 00 00 00	 call	 __chkstk
  0001f	48 2b e0	 sub	 rsp, rax
  00022	48 8b fc	 mov	 rdi, rsp
  00025	b9 d8 04 00 00	 mov	 ecx, 1240		; 000004d8H
  0002a	b8 cc cc cc cc	 mov	 eax, -858993460		; ccccccccH
  0002f	f3 ab		 rep stosd
  00031	48 8b 8c 24 70
	13 00 00	 mov	 rcx, QWORD PTR [rsp+4976]
  00039	48 c7 84 24 40
	13 00 00 fe ff
	ff ff		 mov	 QWORD PTR $T7[rsp], -2
  00045	48 8b 05 00 00
	00 00		 mov	 rax, QWORD PTR __security_cookie
  0004c	48 33 c4	 xor	 rax, rsp
  0004f	48 89 84 24 50
	13 00 00	 mov	 QWORD PTR __$ArrayPad$[rsp], rax

; 330  : 	if (!(m_nFlag & IS_ACTIVE_PUT_QUEUE)) return;

  00057	48 8b 84 24 70
	13 00 00	 mov	 rax, QWORD PTR this$[rsp]
  0005f	8b 40 38	 mov	 eax, DWORD PTR [rax+56]
  00062	83 e0 04	 and	 eax, 4
  00065	85 c0		 test	 eax, eax
  00067	75 05		 jne	 SHORT $LN2@DebugLog
  00069	e9 18 01 00 00	 jmp	 $LN1@DebugLog
$LN2@DebugLog:

; 331  : 
; 332  : 	CDateTime	curTm;

  0006e	48 8d 4c 24 50	 lea	 rcx, QWORD PTR curTm$[rsp]
  00073	e8 00 00 00 00	 call	 ??0CDateTime@@QEAA@XZ	; CDateTime::CDateTime
  00078	90		 npad	 1

; 333  : 	TCHAR    tmpBuf[512];
; 334  : 	int nLen = _stprintf(tmpBuf, _T("[%s %s] [DEBUG] %s %s %d "), curTm.DateString2(), curTm.TimeString2(), _szFile, _szFunc, _nLine);

  00079	48 8d 4c 24 50	 lea	 rcx, QWORD PTR curTm$[rsp]
  0007e	e8 00 00 00 00	 call	 ?TimeString2@CDateTime@@QEAAPEBDXZ ; CDateTime::TimeString2
  00083	48 89 84 24 48
	13 00 00	 mov	 QWORD PTR tv75[rsp], rax
  0008b	48 8d 4c 24 50	 lea	 rcx, QWORD PTR curTm$[rsp]
  00090	e8 00 00 00 00	 call	 ?DateString2@CDateTime@@QEAAPEBDXZ ; CDateTime::DateString2
  00095	8b 8c 24 88 13
	00 00		 mov	 ecx, DWORD PTR _nLine$[rsp]
  0009c	89 4c 24 30	 mov	 DWORD PTR [rsp+48], ecx
  000a0	48 8b 8c 24 80
	13 00 00	 mov	 rcx, QWORD PTR _szFunc$[rsp]
  000a8	48 89 4c 24 28	 mov	 QWORD PTR [rsp+40], rcx
  000ad	48 8b 8c 24 78
	13 00 00	 mov	 rcx, QWORD PTR _szFile$[rsp]
  000b5	48 89 4c 24 20	 mov	 QWORD PTR [rsp+32], rcx
  000ba	48 8b 8c 24 48
	13 00 00	 mov	 rcx, QWORD PTR tv75[rsp]
  000c2	4c 8b c9	 mov	 r9, rcx
  000c5	4c 8b c0	 mov	 r8, rax
  000c8	48 8d 15 00 00
	00 00		 lea	 rdx, OFFSET FLAT:$SG44472
  000cf	48 8d 8c 24 f0
	00 00 00	 lea	 rcx, QWORD PTR tmpBuf$[rsp]
  000d7	e8 00 00 00 00	 call	 sprintf
  000dc	89 84 24 f4 02
	00 00		 mov	 DWORD PTR nLen$[rsp], eax

; 335  : 
; 336  : 	TCHAR	msgBuf[MAX_LOGBUF_LEN];
; 337  : 	memset(msgBuf, 0, MAX_LOGBUF_LEN);

  000e3	41 b8 00 10 00
	00		 mov	 r8d, 4096		; 00001000H
  000e9	33 d2		 xor	 edx, edx
  000eb	48 8d 8c 24 10
	03 00 00	 lea	 rcx, QWORD PTR msgBuf$[rsp]
  000f3	e8 00 00 00 00	 call	 memset

; 338  : 	va_list	ap;
; 339  : 	va_start(ap, _szFormat);

  000f8	e8 00 00 00 00	 call	 ??$__vcrt_va_start_verify_argument_type@PEBD@@YAXXZ ; __vcrt_va_start_verify_argument_type<char const * __ptr64>
  000fd	48 8d 84 24 98
	13 00 00	 lea	 rax, QWORD PTR _szFormat$[rsp+8]
  00105	48 89 84 24 28
	13 00 00	 mov	 QWORD PTR ap$[rsp], rax

; 340  : 
; 341  : 	nLen += _vsntprintf(msgBuf, MAX_LOGBUF_LEN - 1, _szFormat, ap);

  0010d	4c 8b 8c 24 28
	13 00 00	 mov	 r9, QWORD PTR ap$[rsp]
  00115	4c 8b 84 24 90
	13 00 00	 mov	 r8, QWORD PTR _szFormat$[rsp]
  0011d	ba ff 0f 00 00	 mov	 edx, 4095		; 00000fffH
  00122	48 8d 8c 24 10
	03 00 00	 lea	 rcx, QWORD PTR msgBuf$[rsp]
  0012a	e8 00 00 00 00	 call	 _vsnprintf
  0012f	8b 8c 24 f4 02
	00 00		 mov	 ecx, DWORD PTR nLen$[rsp]
  00136	03 c8		 add	 ecx, eax
  00138	8b c1		 mov	 eax, ecx
  0013a	89 84 24 f4 02
	00 00		 mov	 DWORD PTR nLen$[rsp], eax

; 342  : 	va_end(ap);

  00141	48 c7 84 24 28
	13 00 00 00 00
	00 00		 mov	 QWORD PTR ap$[rsp], 0

; 343  : 
; 344  : 	_putLogQueue(tmpBuf, msgBuf, nLen);

  0014d	48 c7 44 24 20
	00 00 00 00	 mov	 QWORD PTR [rsp+32], 0
  00156	44 8b 8c 24 f4
	02 00 00	 mov	 r9d, DWORD PTR nLen$[rsp]
  0015e	4c 8d 84 24 10
	03 00 00	 lea	 r8, QWORD PTR msgBuf$[rsp]
  00166	48 8d 94 24 f0
	00 00 00	 lea	 rdx, QWORD PTR tmpBuf$[rsp]
  0016e	48 8b 8c 24 70
	13 00 00	 mov	 rcx, QWORD PTR this$[rsp]
  00176	e8 00 00 00 00	 call	 ?_putLogQueue@CSTLogger@@AEAAXPEAD0H0@Z ; CSTLogger::_putLogQueue
  0017b	90		 npad	 1

; 345  : }

  0017c	48 8d 4c 24 50	 lea	 rcx, QWORD PTR curTm$[rsp]
  00181	e8 00 00 00 00	 call	 ??1CDateTime@@QEAA@XZ	; CDateTime::~CDateTime
$LN1@DebugLog:
  00186	48 8b cc	 mov	 rcx, rsp
  00189	48 8d 15 00 00
	00 00		 lea	 rdx, OFFSET FLAT:?_DebugLog@CSTLogger@@QEAAXPEBD0H0ZZ$rtcFrameData
  00190	e8 00 00 00 00	 call	 _RTC_CheckStackVars
  00195	48 8b 8c 24 50
	13 00 00	 mov	 rcx, QWORD PTR __$ArrayPad$[rsp]
  0019d	48 33 cc	 xor	 rcx, rsp
  001a0	e8 00 00 00 00	 call	 __security_check_cookie
  001a5	48 81 c4 60 13
	00 00		 add	 rsp, 4960		; 00001360H
  001ac	5f		 pop	 rdi
  001ad	c3		 ret	 0
?_DebugLog@CSTLogger@@QEAAXPEBD0H0ZZ ENDP		; CSTLogger::_DebugLog
_TEXT	ENDS
text$x	SEGMENT
curTm$ = 80
tmpBuf$ = 240
nLen$ = 756
msgBuf$ = 784
ap$ = 4904
$T7 = 4928
tv75 = 4936
__$ArrayPad$ = 4944
this$ = 4976
_szFile$ = 4984
_szFunc$ = 4992
_nLine$ = 5000
_szFormat$ = 5008
?dtor$0@?0??_DebugLog@CSTLogger@@QEAAXPEBD0H0ZZ@4HA PROC ; `CSTLogger::_DebugLog'::`1'::dtor$0
  00000	48 89 4c 24 08	 mov	 QWORD PTR [rsp+8], rcx
  00005	48 89 54 24 10	 mov	 QWORD PTR [rsp+16], rdx
  0000a	55		 push	 rbp
  0000b	57		 push	 rdi
  0000c	48 83 ec 28	 sub	 rsp, 40			; 00000028H
  00010	48 8b ea	 mov	 rbp, rdx
  00013	48 8d 4d 50	 lea	 rcx, QWORD PTR curTm$[rbp]
  00017	e8 00 00 00 00	 call	 ??1CDateTime@@QEAA@XZ	; CDateTime::~CDateTime
  0001c	48 83 c4 28	 add	 rsp, 40			; 00000028H
  00020	5f		 pop	 rdi
  00021	5d		 pop	 rbp
  00022	c3		 ret	 0
?dtor$0@?0??_DebugLog@CSTLogger@@QEAAXPEBD0H0ZZ@4HA ENDP ; `CSTLogger::_DebugLog'::`1'::dtor$0
text$x	ENDS
; Function compile flags: /Odtp /RTCsu
text$x	SEGMENT
curTm$ = 80
tmpBuf$ = 240
nLen$ = 756
msgBuf$ = 784
ap$ = 4904
$T7 = 4928
tv75 = 4936
__$ArrayPad$ = 4944
this$ = 4976
_szFile$ = 4984
_szFunc$ = 4992
_nLine$ = 5000
_szFormat$ = 5008
?dtor$0@?0??_DebugLog@CSTLogger@@QEAAXPEBD0H0ZZ@4HA PROC ; `CSTLogger::_DebugLog'::`1'::dtor$0
  00000	48 89 4c 24 08	 mov	 QWORD PTR [rsp+8], rcx
  00005	48 89 54 24 10	 mov	 QWORD PTR [rsp+16], rdx
  0000a	55		 push	 rbp
  0000b	57		 push	 rdi
  0000c	48 83 ec 28	 sub	 rsp, 40			; 00000028H
  00010	48 8b ea	 mov	 rbp, rdx
  00013	48 8d 4d 50	 lea	 rcx, QWORD PTR curTm$[rbp]
  00017	e8 00 00 00 00	 call	 ??1CDateTime@@QEAA@XZ	; CDateTime::~CDateTime
  0001c	48 83 c4 28	 add	 rsp, 40			; 00000028H
  00020	5f		 pop	 rdi
  00021	5d		 pop	 rbp
  00022	c3		 ret	 0
?dtor$0@?0??_DebugLog@CSTLogger@@QEAAXPEBD0H0ZZ@4HA ENDP ; `CSTLogger::_DebugLog'::`1'::dtor$0
text$x	ENDS
; Function compile flags: /Odtp /RTCsu
; File d:\newproject2\com\src\comstlogger.cpp
_TEXT	SEGMENT
curTm$ = 80
tmpBuf$ = 240
nLen$ = 756
msgBuf$ = 784
ap$ = 4904
$T7 = 4928
tv75 = 4936
__$ArrayPad$ = 4944
this$ = 4976
_szFile$ = 4984
_szFunc$ = 4992
_nLine$ = 5000
_szFormat$ = 5008
?_ErrorLog@CSTLogger@@QEAAXPEBD0H0ZZ PROC		; CSTLogger::_ErrorLog

; 309  : {

$LN5:
  00000	44 89 4c 24 20	 mov	 DWORD PTR [rsp+32], r9d
  00005	4c 89 44 24 18	 mov	 QWORD PTR [rsp+24], r8
  0000a	48 89 54 24 10	 mov	 QWORD PTR [rsp+16], rdx
  0000f	48 89 4c 24 08	 mov	 QWORD PTR [rsp+8], rcx
  00014	57		 push	 rdi
  00015	b8 60 13 00 00	 mov	 eax, 4960		; 00001360H
  0001a	e8 00 00 00 00	 call	 __chkstk
  0001f	48 2b e0	 sub	 rsp, rax
  00022	48 8b fc	 mov	 rdi, rsp
  00025	b9 d8 04 00 00	 mov	 ecx, 1240		; 000004d8H
  0002a	b8 cc cc cc cc	 mov	 eax, -858993460		; ccccccccH
  0002f	f3 ab		 rep stosd
  00031	48 8b 8c 24 70
	13 00 00	 mov	 rcx, QWORD PTR [rsp+4976]
  00039	48 c7 84 24 40
	13 00 00 fe ff
	ff ff		 mov	 QWORD PTR $T7[rsp], -2
  00045	48 8b 05 00 00
	00 00		 mov	 rax, QWORD PTR __security_cookie
  0004c	48 33 c4	 xor	 rax, rsp
  0004f	48 89 84 24 50
	13 00 00	 mov	 QWORD PTR __$ArrayPad$[rsp], rax

; 310  : 	if (!(m_nFlag & IS_ACTIVE_PUT_QUEUE)) return;

  00057	48 8b 84 24 70
	13 00 00	 mov	 rax, QWORD PTR this$[rsp]
  0005f	8b 40 38	 mov	 eax, DWORD PTR [rax+56]
  00062	83 e0 04	 and	 eax, 4
  00065	85 c0		 test	 eax, eax
  00067	75 05		 jne	 SHORT $LN2@ErrorLog
  00069	e9 18 01 00 00	 jmp	 $LN1@ErrorLog
$LN2@ErrorLog:

; 311  : 
; 312  : 	CDateTime	curTm;

  0006e	48 8d 4c 24 50	 lea	 rcx, QWORD PTR curTm$[rsp]
  00073	e8 00 00 00 00	 call	 ??0CDateTime@@QEAA@XZ	; CDateTime::CDateTime
  00078	90		 npad	 1

; 313  : 	TCHAR    tmpBuf[512];
; 314  : 	int nLen = _stprintf(tmpBuf, _T("[%s %s] [ERROR] %s %s %d "), curTm.DateString2(), curTm.TimeString2(), _szFile, _szFunc, _nLine);

  00079	48 8d 4c 24 50	 lea	 rcx, QWORD PTR curTm$[rsp]
  0007e	e8 00 00 00 00	 call	 ?TimeString2@CDateTime@@QEAAPEBDXZ ; CDateTime::TimeString2
  00083	48 89 84 24 48
	13 00 00	 mov	 QWORD PTR tv75[rsp], rax
  0008b	48 8d 4c 24 50	 lea	 rcx, QWORD PTR curTm$[rsp]
  00090	e8 00 00 00 00	 call	 ?DateString2@CDateTime@@QEAAPEBDXZ ; CDateTime::DateString2
  00095	8b 8c 24 88 13
	00 00		 mov	 ecx, DWORD PTR _nLine$[rsp]
  0009c	89 4c 24 30	 mov	 DWORD PTR [rsp+48], ecx
  000a0	48 8b 8c 24 80
	13 00 00	 mov	 rcx, QWORD PTR _szFunc$[rsp]
  000a8	48 89 4c 24 28	 mov	 QWORD PTR [rsp+40], rcx
  000ad	48 8b 8c 24 78
	13 00 00	 mov	 rcx, QWORD PTR _szFile$[rsp]
  000b5	48 89 4c 24 20	 mov	 QWORD PTR [rsp+32], rcx
  000ba	48 8b 8c 24 48
	13 00 00	 mov	 rcx, QWORD PTR tv75[rsp]
  000c2	4c 8b c9	 mov	 r9, rcx
  000c5	4c 8b c0	 mov	 r8, rax
  000c8	48 8d 15 00 00
	00 00		 lea	 rdx, OFFSET FLAT:$SG44454
  000cf	48 8d 8c 24 f0
	00 00 00	 lea	 rcx, QWORD PTR tmpBuf$[rsp]
  000d7	e8 00 00 00 00	 call	 sprintf
  000dc	89 84 24 f4 02
	00 00		 mov	 DWORD PTR nLen$[rsp], eax

; 315  : 
; 316  : 
; 317  : 	TCHAR	msgBuf[MAX_LOGBUF_LEN];
; 318  : 	memset(msgBuf, 0, MAX_LOGBUF_LEN);

  000e3	41 b8 00 10 00
	00		 mov	 r8d, 4096		; 00001000H
  000e9	33 d2		 xor	 edx, edx
  000eb	48 8d 8c 24 10
	03 00 00	 lea	 rcx, QWORD PTR msgBuf$[rsp]
  000f3	e8 00 00 00 00	 call	 memset

; 319  : 	va_list	ap;
; 320  : 	va_start(ap, _szFormat);

  000f8	e8 00 00 00 00	 call	 ??$__vcrt_va_start_verify_argument_type@PEBD@@YAXXZ ; __vcrt_va_start_verify_argument_type<char const * __ptr64>
  000fd	48 8d 84 24 98
	13 00 00	 lea	 rax, QWORD PTR _szFormat$[rsp+8]
  00105	48 89 84 24 28
	13 00 00	 mov	 QWORD PTR ap$[rsp], rax

; 321  : 
; 322  : 	nLen+=_vsntprintf(msgBuf, MAX_LOGBUF_LEN - 1, _szFormat, ap);

  0010d	4c 8b 8c 24 28
	13 00 00	 mov	 r9, QWORD PTR ap$[rsp]
  00115	4c 8b 84 24 90
	13 00 00	 mov	 r8, QWORD PTR _szFormat$[rsp]
  0011d	ba ff 0f 00 00	 mov	 edx, 4095		; 00000fffH
  00122	48 8d 8c 24 10
	03 00 00	 lea	 rcx, QWORD PTR msgBuf$[rsp]
  0012a	e8 00 00 00 00	 call	 _vsnprintf
  0012f	8b 8c 24 f4 02
	00 00		 mov	 ecx, DWORD PTR nLen$[rsp]
  00136	03 c8		 add	 ecx, eax
  00138	8b c1		 mov	 eax, ecx
  0013a	89 84 24 f4 02
	00 00		 mov	 DWORD PTR nLen$[rsp], eax

; 323  : 	va_end(ap);

  00141	48 c7 84 24 28
	13 00 00 00 00
	00 00		 mov	 QWORD PTR ap$[rsp], 0

; 324  : 
; 325  : 	_putLogQueue(tmpBuf, msgBuf, nLen);

  0014d	48 c7 44 24 20
	00 00 00 00	 mov	 QWORD PTR [rsp+32], 0
  00156	44 8b 8c 24 f4
	02 00 00	 mov	 r9d, DWORD PTR nLen$[rsp]
  0015e	4c 8d 84 24 10
	03 00 00	 lea	 r8, QWORD PTR msgBuf$[rsp]
  00166	48 8d 94 24 f0
	00 00 00	 lea	 rdx, QWORD PTR tmpBuf$[rsp]
  0016e	48 8b 8c 24 70
	13 00 00	 mov	 rcx, QWORD PTR this$[rsp]
  00176	e8 00 00 00 00	 call	 ?_putLogQueue@CSTLogger@@AEAAXPEAD0H0@Z ; CSTLogger::_putLogQueue
  0017b	90		 npad	 1

; 326  : }

  0017c	48 8d 4c 24 50	 lea	 rcx, QWORD PTR curTm$[rsp]
  00181	e8 00 00 00 00	 call	 ??1CDateTime@@QEAA@XZ	; CDateTime::~CDateTime
$LN1@ErrorLog:
  00186	48 8b cc	 mov	 rcx, rsp
  00189	48 8d 15 00 00
	00 00		 lea	 rdx, OFFSET FLAT:?_ErrorLog@CSTLogger@@QEAAXPEBD0H0ZZ$rtcFrameData
  00190	e8 00 00 00 00	 call	 _RTC_CheckStackVars
  00195	48 8b 8c 24 50
	13 00 00	 mov	 rcx, QWORD PTR __$ArrayPad$[rsp]
  0019d	48 33 cc	 xor	 rcx, rsp
  001a0	e8 00 00 00 00	 call	 __security_check_cookie
  001a5	48 81 c4 60 13
	00 00		 add	 rsp, 4960		; 00001360H
  001ac	5f		 pop	 rdi
  001ad	c3		 ret	 0
?_ErrorLog@CSTLogger@@QEAAXPEBD0H0ZZ ENDP		; CSTLogger::_ErrorLog
_TEXT	ENDS
text$x	SEGMENT
curTm$ = 80
tmpBuf$ = 240
nLen$ = 756
msgBuf$ = 784
ap$ = 4904
$T7 = 4928
tv75 = 4936
__$ArrayPad$ = 4944
this$ = 4976
_szFile$ = 4984
_szFunc$ = 4992
_nLine$ = 5000
_szFormat$ = 5008
?dtor$0@?0??_ErrorLog@CSTLogger@@QEAAXPEBD0H0ZZ@4HA PROC ; `CSTLogger::_ErrorLog'::`1'::dtor$0
  00000	48 89 4c 24 08	 mov	 QWORD PTR [rsp+8], rcx
  00005	48 89 54 24 10	 mov	 QWORD PTR [rsp+16], rdx
  0000a	55		 push	 rbp
  0000b	57		 push	 rdi
  0000c	48 83 ec 28	 sub	 rsp, 40			; 00000028H
  00010	48 8b ea	 mov	 rbp, rdx
  00013	48 8d 4d 50	 lea	 rcx, QWORD PTR curTm$[rbp]
  00017	e8 00 00 00 00	 call	 ??1CDateTime@@QEAA@XZ	; CDateTime::~CDateTime
  0001c	48 83 c4 28	 add	 rsp, 40			; 00000028H
  00020	5f		 pop	 rdi
  00021	5d		 pop	 rbp
  00022	c3		 ret	 0
?dtor$0@?0??_ErrorLog@CSTLogger@@QEAAXPEBD0H0ZZ@4HA ENDP ; `CSTLogger::_ErrorLog'::`1'::dtor$0
text$x	ENDS
; Function compile flags: /Odtp /RTCsu
text$x	SEGMENT
curTm$ = 80
tmpBuf$ = 240
nLen$ = 756
msgBuf$ = 784
ap$ = 4904
$T7 = 4928
tv75 = 4936
__$ArrayPad$ = 4944
this$ = 4976
_szFile$ = 4984
_szFunc$ = 4992
_nLine$ = 5000
_szFormat$ = 5008
?dtor$0@?0??_ErrorLog@CSTLogger@@QEAAXPEBD0H0ZZ@4HA PROC ; `CSTLogger::_ErrorLog'::`1'::dtor$0
  00000	48 89 4c 24 08	 mov	 QWORD PTR [rsp+8], rcx
  00005	48 89 54 24 10	 mov	 QWORD PTR [rsp+16], rdx
  0000a	55		 push	 rbp
  0000b	57		 push	 rdi
  0000c	48 83 ec 28	 sub	 rsp, 40			; 00000028H
  00010	48 8b ea	 mov	 rbp, rdx
  00013	48 8d 4d 50	 lea	 rcx, QWORD PTR curTm$[rbp]
  00017	e8 00 00 00 00	 call	 ??1CDateTime@@QEAA@XZ	; CDateTime::~CDateTime
  0001c	48 83 c4 28	 add	 rsp, 40			; 00000028H
  00020	5f		 pop	 rdi
  00021	5d		 pop	 rbp
  00022	c3		 ret	 0
?dtor$0@?0??_ErrorLog@CSTLogger@@QEAAXPEBD0H0ZZ@4HA ENDP ; `CSTLogger::_ErrorLog'::`1'::dtor$0
text$x	ENDS
; Function compile flags: /Odtp /RTCsu
; File d:\newproject2\com\include\comstlogger.h
;	COMDAT ?addSeq@CSTLogger@@QEAAXXZ
_TEXT	SEGMENT
this$ = 16
?addSeq@CSTLogger@@QEAAXXZ PROC				; CSTLogger::addSeq, COMDAT

; 95   : 	inline void addSeq() { m_nSeq++; if (m_nSeq > MAX_SEQ) m_nSeq = 1; }

$LN4:
  00000	48 89 4c 24 08	 mov	 QWORD PTR [rsp+8], rcx
  00005	57		 push	 rdi
  00006	48 8b 44 24 10	 mov	 rax, QWORD PTR this$[rsp]
  0000b	8b 40 3c	 mov	 eax, DWORD PTR [rax+60]
  0000e	ff c0		 inc	 eax
  00010	48 8b 4c 24 10	 mov	 rcx, QWORD PTR this$[rsp]
  00015	89 41 3c	 mov	 DWORD PTR [rcx+60], eax
  00018	48 8b 44 24 10	 mov	 rax, QWORD PTR this$[rsp]
  0001d	81 78 3c 7f 96
	98 00		 cmp	 DWORD PTR [rax+60], 9999999 ; 0098967fH
  00024	7e 0c		 jle	 SHORT $LN2@addSeq
  00026	48 8b 44 24 10	 mov	 rax, QWORD PTR this$[rsp]
  0002b	c7 40 3c 01 00
	00 00		 mov	 DWORD PTR [rax+60], 1
$LN2@addSeq:
  00032	5f		 pop	 rdi
  00033	c3		 ret	 0
?addSeq@CSTLogger@@QEAAXXZ ENDP				; CSTLogger::addSeq
_TEXT	ENDS
; Function compile flags: /Odtp /RTCsu
; File d:\newproject2\com\src\comstlogger.cpp
_TEXT	SEGMENT
ltm$4 = 80
nLogSize$5 = 212
nLimitSize$6 = 216
tv155 = 232
__$ArrayPad$ = 240
this$ = 272
pDateTime$ = 280
?TimeProc@CSTLogger@@QEAAXPEAVCDateTime@@@Z PROC	; CSTLogger::TimeProc

; 515  : {

$LN14:
  00000	48 89 54 24 10	 mov	 QWORD PTR [rsp+16], rdx
  00005	48 89 4c 24 08	 mov	 QWORD PTR [rsp+8], rcx
  0000a	57		 push	 rdi
  0000b	48 81 ec 00 01
	00 00		 sub	 rsp, 256		; 00000100H
  00012	48 8b fc	 mov	 rdi, rsp
  00015	b9 40 00 00 00	 mov	 ecx, 64			; 00000040H
  0001a	b8 cc cc cc cc	 mov	 eax, -858993460		; ccccccccH
  0001f	f3 ab		 rep stosd
  00021	48 8b 8c 24 10
	01 00 00	 mov	 rcx, QWORD PTR [rsp+272]
  00029	48 8b 05 00 00
	00 00		 mov	 rax, QWORD PTR __security_cookie
  00030	48 33 c4	 xor	 rax, rsp
  00033	48 89 84 24 f0
	00 00 00	 mov	 QWORD PTR __$ArrayPad$[rsp], rax

; 516  : 	//CDateTime	ltm;
; 517  : 	if(!pDateTime) {

  0003b	48 83 bc 24 18
	01 00 00 00	 cmp	 QWORD PTR pDateTime$[rsp], 0
  00044	75 21		 jne	 SHORT $LN2@TimeProc

; 518  : 		CDateTime	ltm;

  00046	48 8d 4c 24 50	 lea	 rcx, QWORD PTR ltm$4[rsp]
  0004b	e8 00 00 00 00	 call	 ??0CDateTime@@QEAA@XZ	; CDateTime::CDateTime

; 519  : 		pDateTime = &ltm;

  00050	48 8d 44 24 50	 lea	 rax, QWORD PTR ltm$4[rsp]
  00055	48 89 84 24 18
	01 00 00	 mov	 QWORD PTR pDateTime$[rsp], rax

; 520  : 	}

  0005d	48 8d 4c 24 50	 lea	 rcx, QWORD PTR ltm$4[rsp]
  00062	e8 00 00 00 00	 call	 ??1CDateTime@@QEAA@XZ	; CDateTime::~CDateTime
$LN2@TimeProc:

; 521  : 
; 522  : 	if (pDateTime->Mday() != gs_today_time.mday) { // 1. Day Change 

  00067	48 8b 8c 24 18
	01 00 00	 mov	 rcx, QWORD PTR pDateTime$[rsp]
  0006f	e8 00 00 00 00	 call	 ?Mday@CDateTime@@QEAAHXZ ; CDateTime::Mday
  00074	3b 05 08 00 00
	00		 cmp	 eax, DWORD PTR ?gs_today_time@@3USTTodayTime@@A+8
  0007a	0f 84 c8 00 00
	00		 je	 $LN3@TimeProc

; 523  : 		if(m_nFlag & IS_ACTIVE_DAYCHANGE_LOG) dayChangedProc(pDateTime); //  

  00080	48 8b 84 24 10
	01 00 00	 mov	 rax, QWORD PTR this$[rsp]
  00088	8b 40 38	 mov	 eax, DWORD PTR [rax+56]
  0008b	83 e0 10	 and	 eax, 16
  0008e	85 c0		 test	 eax, eax
  00090	74 15		 je	 SHORT $LN4@TimeProc
  00092	48 8b 94 24 18
	01 00 00	 mov	 rdx, QWORD PTR pDateTime$[rsp]
  0009a	48 8b 8c 24 10
	01 00 00	 mov	 rcx, QWORD PTR this$[rsp]
  000a2	e8 00 00 00 00	 call	 ?dayChangedProc@CSTLogger@@AEAAXPEAVCDateTime@@@Z ; CSTLogger::dayChangedProc
$LN4@TimeProc:

; 524  : 
; 525  : 		gs_today_time.date  = _ttoi(pDateTime->DateString());

  000a7	33 d2		 xor	 edx, edx
  000a9	48 8b 8c 24 18
	01 00 00	 mov	 rcx, QWORD PTR pDateTime$[rsp]
  000b1	e8 00 00 00 00	 call	 ?DateString@CDateTime@@QEAAPEBDD@Z ; CDateTime::DateString
  000b6	48 8b c8	 mov	 rcx, rax
  000b9	ff 15 00 00 00
	00		 call	 QWORD PTR __imp_atoi
  000bf	89 05 18 00 00
	00		 mov	 DWORD PTR ?gs_today_time@@3USTTodayTime@@A+24, eax

; 526  : 		gs_today_time.year	= pDateTime->Year();

  000c5	48 8b 8c 24 18
	01 00 00	 mov	 rcx, QWORD PTR pDateTime$[rsp]
  000cd	e8 00 00 00 00	 call	 ?Year@CDateTime@@QEAAHXZ ; CDateTime::Year
  000d2	89 05 00 00 00
	00		 mov	 DWORD PTR ?gs_today_time@@3USTTodayTime@@A, eax

; 527  : 		gs_today_time.month	= pDateTime->Month();

  000d8	48 8b 8c 24 18
	01 00 00	 mov	 rcx, QWORD PTR pDateTime$[rsp]
  000e0	e8 00 00 00 00	 call	 ?Month@CDateTime@@QEAAHXZ ; CDateTime::Month
  000e5	89 05 04 00 00
	00		 mov	 DWORD PTR ?gs_today_time@@3USTTodayTime@@A+4, eax

; 528  : 		gs_today_time.mday	= pDateTime->Mday();

  000eb	48 8b 8c 24 18
	01 00 00	 mov	 rcx, QWORD PTR pDateTime$[rsp]
  000f3	e8 00 00 00 00	 call	 ?Mday@CDateTime@@QEAAHXZ ; CDateTime::Mday
  000f8	89 05 08 00 00
	00		 mov	 DWORD PTR ?gs_today_time@@3USTTodayTime@@A+8, eax

; 529  : 		gs_today_time.wday	= pDateTime->Wday();

  000fe	48 8b 8c 24 18
	01 00 00	 mov	 rcx, QWORD PTR pDateTime$[rsp]
  00106	e8 00 00 00 00	 call	 ?Wday@CDateTime@@QEAAHXZ ; CDateTime::Wday
  0010b	89 05 0c 00 00
	00		 mov	 DWORD PTR ?gs_today_time@@3USTTodayTime@@A+12, eax

; 530  : 		if(m_pfDayChange) //    

  00111	48 8b 84 24 10
	01 00 00	 mov	 rax, QWORD PTR this$[rsp]
  00119	48 83 38 00	 cmp	 QWORD PTR [rax], 0
  0011d	74 29		 je	 SHORT $LN3@TimeProc

; 531  : 		{ 
; 532  : 			m_pfDayChange(gs_today_time.date);

  0011f	8b 0d 18 00 00
	00		 mov	 ecx, DWORD PTR ?gs_today_time@@3USTTodayTime@@A+24
  00125	48 8b 84 24 10
	01 00 00	 mov	 rax, QWORD PTR this$[rsp]
  0012d	ff 10		 call	 QWORD PTR [rax]

; 533  : 			CSTLogger::PutLogQueue(LOG_INFO, _T("m_pfDayChange Proc"));

  0012f	4c 8d 05 00 00
	00 00		 lea	 r8, OFFSET FLAT:$SG44520
  00136	ba 04 00 00 00	 mov	 edx, 4
  0013b	48 8b 8c 24 10
	01 00 00	 mov	 rcx, QWORD PTR this$[rsp]
  00143	e8 00 00 00 00	 call	 ?PutLogQueue@CSTLogger@@QEAAXHPEBDZZ ; CSTLogger::PutLogQueue
$LN3@TimeProc:

; 534  : 		}
; 535  : 	}
; 536  : 	
; 537  : 	if(pDateTime->Hour() != gs_today_time.hour) {

  00148	48 8b 8c 24 18
	01 00 00	 mov	 rcx, QWORD PTR pDateTime$[rsp]
  00150	e8 00 00 00 00	 call	 ?Hour@CDateTime@@QEAAHXZ ; CDateTime::Hour
  00155	3b 05 10 00 00
	00		 cmp	 eax, DWORD PTR ?gs_today_time@@3USTTodayTime@@A+16
  0015b	74 33		 je	 SHORT $LN6@TimeProc

; 538  : 		gs_today_time.hour	= pDateTime->Hour();

  0015d	48 8b 8c 24 18
	01 00 00	 mov	 rcx, QWORD PTR pDateTime$[rsp]
  00165	e8 00 00 00 00	 call	 ?Hour@CDateTime@@QEAAHXZ ; CDateTime::Hour
  0016a	89 05 10 00 00
	00		 mov	 DWORD PTR ?gs_today_time@@3USTTodayTime@@A+16, eax

; 539  : 		if(m_pfHourChange) {

  00170	48 8b 84 24 10
	01 00 00	 mov	 rax, QWORD PTR this$[rsp]
  00178	48 83 78 08 00	 cmp	 QWORD PTR [rax+8], 0
  0017d	74 11		 je	 SHORT $LN6@TimeProc

; 540  : 			m_pfHourChange(gs_today_time.hour);

  0017f	8b 0d 10 00 00
	00		 mov	 ecx, DWORD PTR ?gs_today_time@@3USTTodayTime@@A+16
  00185	48 8b 84 24 10
	01 00 00	 mov	 rax, QWORD PTR this$[rsp]
  0018d	ff 50 08	 call	 QWORD PTR [rax+8]
$LN6@TimeProc:

; 541  : 		}
; 542  : 	}
; 543  : 
; 544  : 	if (pDateTime->Minute() != gs_today_time.minute) {

  00190	48 8b 8c 24 18
	01 00 00	 mov	 rcx, QWORD PTR pDateTime$[rsp]
  00198	e8 00 00 00 00	 call	 ?Minute@CDateTime@@QEAAHXZ ; CDateTime::Minute
  0019d	3b 05 14 00 00
	00		 cmp	 eax, DWORD PTR ?gs_today_time@@3USTTodayTime@@A+20
  001a3	0f 84 00 01 00
	00		 je	 $LN8@TimeProc

; 545  : 		int nLogSize, nLimitSize;
; 546  : 		gs_today_time.minute = pDateTime->Minute();

  001a9	48 8b 8c 24 18
	01 00 00	 mov	 rcx, QWORD PTR pDateTime$[rsp]
  001b1	e8 00 00 00 00	 call	 ?Minute@CDateTime@@QEAAHXZ ; CDateTime::Minute
  001b6	89 05 14 00 00
	00		 mov	 DWORD PTR ?gs_today_time@@3USTTodayTime@@A+20, eax

; 547  : 		if (m_nSizeLimit) {

  001bc	48 8b 84 24 10
	01 00 00	 mov	 rax, QWORD PTR this$[rsp]
  001c4	83 78 40 00	 cmp	 DWORD PTR [rax+64], 0
  001c8	74 14		 je	 SHORT $LN9@TimeProc

; 548  : 			nLimitSize = m_nSizeLimit;

  001ca	48 8b 84 24 10
	01 00 00	 mov	 rax, QWORD PTR this$[rsp]
  001d2	8b 40 40	 mov	 eax, DWORD PTR [rax+64]
  001d5	89 84 24 d8 00
	00 00		 mov	 DWORD PTR nLimitSize$6[rsp], eax
  001dc	eb 0b		 jmp	 SHORT $LN10@TimeProc
$LN9@TimeProc:

; 549  : 		}
; 550  : 		else nLimitSize = MAX_LOGFILE_SIZE;

  001de	c7 84 24 d8 00
	00 00 00 46 c3
	23		 mov	 DWORD PTR nLimitSize$6[rsp], 600000000 ; 23c34600H
$LN10@TimeProc:

; 551  : 		nLogSize = m_pLogger->getLogSize();

  001e9	48 8b 84 24 10
	01 00 00	 mov	 rax, QWORD PTR this$[rsp]
  001f1	48 8b 48 18	 mov	 rcx, QWORD PTR [rax+24]
  001f5	e8 00 00 00 00	 call	 ?getLogSize@CLogger@@QEAAHXZ ; CLogger::getLogSize
  001fa	89 84 24 d4 00
	00 00		 mov	 DWORD PTR nLogSize$5[rsp], eax

; 552  : 		if (nLimitSize && nLogSize > nLimitSize) {

  00201	83 bc 24 d8 00
	00 00 00	 cmp	 DWORD PTR nLimitSize$6[rsp], 0
  00209	0f 84 9a 00 00
	00		 je	 $LN8@TimeProc
  0020f	8b 84 24 d8 00
	00 00		 mov	 eax, DWORD PTR nLimitSize$6[rsp]
  00216	39 84 24 d4 00
	00 00		 cmp	 DWORD PTR nLogSize$5[rsp], eax
  0021d	0f 8e 86 00 00
	00		 jle	 $LN8@TimeProc

; 553  : 			addSeq();

  00223	48 8b 8c 24 10
	01 00 00	 mov	 rcx, QWORD PTR this$[rsp]
  0022b	e8 00 00 00 00	 call	 ?addSeq@CSTLogger@@QEAAXXZ ; CSTLogger::addSeq

; 554  : 			myLoggerOpen(pDateTime);

  00230	48 8b 94 24 18
	01 00 00	 mov	 rdx, QWORD PTR pDateTime$[rsp]
  00238	48 8b 8c 24 10
	01 00 00	 mov	 rcx, QWORD PTR this$[rsp]
  00240	e8 00 00 00 00	 call	 ?myLoggerOpen@CSTLogger@@AEAAXPEAVCDateTime@@@Z ; CSTLogger::myLoggerOpen

; 555  : 			CSTLogger::PutLogQueue(LOG_INFO, _T("nLogSize[%d] nLimitSize[%d] [%s-%s]"), nLogSize, nLimitSize, pDateTime->DateString('/'), pDateTime->TimeString(':'));

  00245	b2 3a		 mov	 dl, 58			; 0000003aH
  00247	48 8b 8c 24 18
	01 00 00	 mov	 rcx, QWORD PTR pDateTime$[rsp]
  0024f	e8 00 00 00 00	 call	 ?TimeString@CDateTime@@QEAAPEBDD@Z ; CDateTime::TimeString
  00254	48 89 84 24 e8
	00 00 00	 mov	 QWORD PTR tv155[rsp], rax
  0025c	b2 2f		 mov	 dl, 47			; 0000002fH
  0025e	48 8b 8c 24 18
	01 00 00	 mov	 rcx, QWORD PTR pDateTime$[rsp]
  00266	e8 00 00 00 00	 call	 ?DateString@CDateTime@@QEAAPEBDD@Z ; CDateTime::DateString
  0026b	48 8b 8c 24 e8
	00 00 00	 mov	 rcx, QWORD PTR tv155[rsp]
  00273	48 89 4c 24 30	 mov	 QWORD PTR [rsp+48], rcx
  00278	48 89 44 24 28	 mov	 QWORD PTR [rsp+40], rax
  0027d	8b 84 24 d8 00
	00 00		 mov	 eax, DWORD PTR nLimitSize$6[rsp]
  00284	89 44 24 20	 mov	 DWORD PTR [rsp+32], eax
  00288	44 8b 8c 24 d4
	00 00 00	 mov	 r9d, DWORD PTR nLogSize$5[rsp]
  00290	4c 8d 05 00 00
	00 00		 lea	 r8, OFFSET FLAT:$SG44527
  00297	ba 04 00 00 00	 mov	 edx, 4
  0029c	48 8b 8c 24 10
	01 00 00	 mov	 rcx, QWORD PTR this$[rsp]
  002a4	e8 00 00 00 00	 call	 ?PutLogQueue@CSTLogger@@QEAAXHPEBDZZ ; CSTLogger::PutLogQueue
$LN8@TimeProc:

; 556  : 		}
; 557  : 	}
; 558  : }

  002a9	48 8b cc	 mov	 rcx, rsp
  002ac	48 8d 15 00 00
	00 00		 lea	 rdx, OFFSET FLAT:?TimeProc@CSTLogger@@QEAAXPEAVCDateTime@@@Z$rtcFrameData
  002b3	e8 00 00 00 00	 call	 _RTC_CheckStackVars
  002b8	48 8b 8c 24 f0
	00 00 00	 mov	 rcx, QWORD PTR __$ArrayPad$[rsp]
  002c0	48 33 cc	 xor	 rcx, rsp
  002c3	e8 00 00 00 00	 call	 __security_check_cookie
  002c8	48 81 c4 00 01
	00 00		 add	 rsp, 256		; 00000100H
  002cf	5f		 pop	 rdi
  002d0	c3		 ret	 0
?TimeProc@CSTLogger@@QEAAXPEAVCDateTime@@@Z ENDP	; CSTLogger::TimeProc
_TEXT	ENDS
; Function compile flags: /Odtp /RTCsu
; File d:\newproject2\com\src\comstlogger.cpp
_TEXT	SEGMENT
this$ = 16
pfDC$ = 24
pObj$ = 32
?setPFProcessDataFromQueue@CSTLogger@@QEAAXP6AXPEAX0@Z0@Z PROC ; CSTLogger::setPFProcessDataFromQueue

; 102  : {

$LN3:
  00000	4c 89 44 24 18	 mov	 QWORD PTR [rsp+24], r8
  00005	48 89 54 24 10	 mov	 QWORD PTR [rsp+16], rdx
  0000a	48 89 4c 24 08	 mov	 QWORD PTR [rsp+8], rcx
  0000f	57		 push	 rdi

; 103  : 	m_pfProcessDataFromQueue=pfDC; 

  00010	48 8b 44 24 10	 mov	 rax, QWORD PTR this$[rsp]
  00015	48 8b 4c 24 18	 mov	 rcx, QWORD PTR pfDC$[rsp]
  0001a	48 89 48 10	 mov	 QWORD PTR [rax+16], rcx

; 104  : 	m_nObj=pObj; 

  0001e	48 8b 44 24 10	 mov	 rax, QWORD PTR this$[rsp]
  00023	48 8b 4c 24 20	 mov	 rcx, QWORD PTR pObj$[rsp]
  00028	48 89 48 48	 mov	 QWORD PTR [rax+72], rcx

; 105  : 	m_nFlag |= IS_ACTIVE_PUT_QUEUE;

  0002c	48 8b 44 24 10	 mov	 rax, QWORD PTR this$[rsp]
  00031	8b 40 38	 mov	 eax, DWORD PTR [rax+56]
  00034	83 c8 04	 or	 eax, 4
  00037	48 8b 4c 24 10	 mov	 rcx, QWORD PTR this$[rsp]
  0003c	89 41 38	 mov	 DWORD PTR [rcx+56], eax

; 106  : }

  0003f	5f		 pop	 rdi
  00040	c3		 ret	 0
?setPFProcessDataFromQueue@CSTLogger@@QEAAXP6AXPEAX0@Z0@Z ENDP ; CSTLogger::setPFProcessDataFromQueue
_TEXT	ENDS
; Function compile flags: /Odtp /RTCsu
; File d:\newproject2\com\src\comstlogger.cpp
_TEXT	SEGMENT
this$ = 16
pfDC$ = 24
?setPFHourChange@CSTLogger@@QEAAXP6AXH@Z@Z PROC		; CSTLogger::setPFHourChange

; 98   : { 

$LN3:
  00000	48 89 54 24 10	 mov	 QWORD PTR [rsp+16], rdx
  00005	48 89 4c 24 08	 mov	 QWORD PTR [rsp+8], rcx
  0000a	57		 push	 rdi

; 99   : 	m_pfHourChange = pfDC;

  0000b	48 8b 44 24 10	 mov	 rax, QWORD PTR this$[rsp]
  00010	48 8b 4c 24 18	 mov	 rcx, QWORD PTR pfDC$[rsp]
  00015	48 89 48 08	 mov	 QWORD PTR [rax+8], rcx

; 100  : }

  00019	5f		 pop	 rdi
  0001a	c3		 ret	 0
?setPFHourChange@CSTLogger@@QEAAXP6AXH@Z@Z ENDP		; CSTLogger::setPFHourChange
_TEXT	ENDS
; Function compile flags: /Odtp /RTCsu
; File d:\newproject2\com\src\comstlogger.cpp
_TEXT	SEGMENT
this$ = 16
pfDC$ = 24
?setPFDayChange@CSTLogger@@QEAAXP6AXH@Z@Z PROC		; CSTLogger::setPFDayChange

; 94   : { 

$LN3:
  00000	48 89 54 24 10	 mov	 QWORD PTR [rsp+16], rdx
  00005	48 89 4c 24 08	 mov	 QWORD PTR [rsp+8], rcx
  0000a	57		 push	 rdi

; 95   : 	m_pfDayChange = pfDC; 

  0000b	48 8b 44 24 10	 mov	 rax, QWORD PTR this$[rsp]
  00010	48 8b 4c 24 18	 mov	 rcx, QWORD PTR pfDC$[rsp]
  00015	48 89 08	 mov	 QWORD PTR [rax], rcx

; 96   : }

  00018	5f		 pop	 rdi
  00019	c3		 ret	 0
?setPFDayChange@CSTLogger@@QEAAXP6AXH@Z@Z ENDP		; CSTLogger::setPFDayChange
_TEXT	ENDS
; Function compile flags: /Odtp /RTCsu
; File d:\newproject2\com\src\comstlogger.cpp
_TEXT	SEGMENT
pBasic$ = 32
ptr$ = 64
?LogThread@CSTLogger@@SAKPEAX@Z PROC			; CSTLogger::LogThread

; 497  : {

$LN7:
  00000	48 89 4c 24 08	 mov	 QWORD PTR [rsp+8], rcx
  00005	57		 push	 rdi
  00006	48 83 ec 30	 sub	 rsp, 48			; 00000030H
  0000a	48 8b fc	 mov	 rdi, rsp
  0000d	b9 0c 00 00 00	 mov	 ecx, 12
  00012	b8 cc cc cc cc	 mov	 eax, -858993460		; ccccccccH
  00017	f3 ab		 rep stosd
  00019	48 8b 4c 24 40	 mov	 rcx, QWORD PTR [rsp+64]

; 498  : 	//pthread_detach(pthread_self());	
; 499  : 	CSTLogger *pBasic = (CSTLogger *)ptr;

  0001e	48 8b 44 24 40	 mov	 rax, QWORD PTR ptr$[rsp]
  00023	48 89 44 24 20	 mov	 QWORD PTR pBasic$[rsp], rax
$LN2@LogThread:

; 500  : 
; 501  : 	while (!pBasic->m_bQuit) 

  00028	48 8b 44 24 20	 mov	 rax, QWORD PTR pBasic$[rsp]
  0002d	0f b6 40 20	 movzx	 eax, BYTE PTR [rax+32]
  00031	85 c0		 test	 eax, eax
  00033	75 4f		 jne	 SHORT $LN3@LogThread

; 502  : 	{
; 503  : 		pBasic->m_thCondLog.wait(INFINITE, NULL);	// -1 : INFINITE

  00035	48 8b 44 24 20	 mov	 rax, QWORD PTR pBasic$[rsp]
  0003a	48 83 c0 68	 add	 rax, 104		; 00000068H
  0003e	45 33 c0	 xor	 r8d, r8d
  00041	ba ff ff ff ff	 mov	 edx, -1
  00046	48 8b c8	 mov	 rcx, rax
  00049	e8 00 00 00 00	 call	 ?wait@condition@win32@common@@QEAA_NHPEAVcritical_section@23@@Z ; common::win32::condition::wait

; 504  : 		
; 505  : 		// date  
; 506  : 		if(pBasic->m_nFlag & IS_ACTIVE_TIMEPROC_INTHREAD) pBasic->TimeProc();

  0004e	48 8b 44 24 20	 mov	 rax, QWORD PTR pBasic$[rsp]
  00053	8b 40 38	 mov	 eax, DWORD PTR [rax+56]
  00056	83 e0 08	 and	 eax, 8
  00059	85 c0		 test	 eax, eax
  0005b	74 0c		 je	 SHORT $LN4@LogThread
  0005d	33 d2		 xor	 edx, edx
  0005f	48 8b 4c 24 20	 mov	 rcx, QWORD PTR pBasic$[rsp]
  00064	e8 00 00 00 00	 call	 ?TimeProc@CSTLogger@@QEAAXPEAVCDateTime@@@Z ; CSTLogger::TimeProc
$LN4@LogThread:

; 507  : 		if(pBasic->m_nFlag & IS_ACTIVE_PUT_QUEUE) pBasic->GetQueue();

  00069	48 8b 44 24 20	 mov	 rax, QWORD PTR pBasic$[rsp]
  0006e	8b 40 38	 mov	 eax, DWORD PTR [rax+56]
  00071	83 e0 04	 and	 eax, 4
  00074	85 c0		 test	 eax, eax
  00076	74 0a		 je	 SHORT $LN5@LogThread
  00078	48 8b 4c 24 20	 mov	 rcx, QWORD PTR pBasic$[rsp]
  0007d	e8 00 00 00 00	 call	 ?GetQueue@CSTLogger@@QEAAXXZ ; CSTLogger::GetQueue
$LN5@LogThread:

; 508  : 	}

  00082	eb a4		 jmp	 SHORT $LN2@LogThread
$LN3@LogThread:

; 509  : 
; 510  : 	return 0;

  00084	33 c0		 xor	 eax, eax

; 511  : }

  00086	48 83 c4 30	 add	 rsp, 48			; 00000030H
  0008a	5f		 pop	 rdi
  0008b	c3		 ret	 0
?LogThread@CSTLogger@@SAKPEAX@Z ENDP			; CSTLogger::LogThread
_TEXT	ENDS
; Function compile flags: /Odtp /RTCsu
; File d:\newproject2\com\src\comstlogger.cpp
_TEXT	SEGMENT
nCount$ = 32
i$ = 36
pData$ = 40
nLen$1 = 48
this$ = 80
?GetQueue@CSTLogger@@QEAAXXZ PROC			; CSTLogger::GetQueue

; 474  : {

$LN9:
  00000	48 89 4c 24 08	 mov	 QWORD PTR [rsp+8], rcx
  00005	57		 push	 rdi
  00006	48 83 ec 40	 sub	 rsp, 64			; 00000040H
  0000a	48 8b fc	 mov	 rdi, rsp
  0000d	b9 10 00 00 00	 mov	 ecx, 16
  00012	b8 cc cc cc cc	 mov	 eax, -858993460		; ccccccccH
  00017	f3 ab		 rep stosd
  00019	48 8b 4c 24 50	 mov	 rcx, QWORD PTR [rsp+80]

; 475  :  	int nCount,i;
; 476  : 	char *pData;
; 477  : 	nCount = m_sLogQueue.size();

  0001e	48 8b 44 24 50	 mov	 rax, QWORD PTR this$[rsp]
  00023	48 83 c0 50	 add	 rax, 80			; 00000050H
  00027	48 8b c8	 mov	 rcx, rax
  0002a	e8 00 00 00 00	 call	 ?size@StCOMQueue@@QEAAHXZ ; StCOMQueue::size
  0002f	89 44 24 20	 mov	 DWORD PTR nCount$[rsp], eax

; 478  : 	for(i=0; i < nCount; i++)

  00033	c7 44 24 24 00
	00 00 00	 mov	 DWORD PTR i$[rsp], 0
  0003b	eb 0a		 jmp	 SHORT $LN4@GetQueue
$LN2@GetQueue:
  0003d	8b 44 24 24	 mov	 eax, DWORD PTR i$[rsp]
  00041	ff c0		 inc	 eax
  00043	89 44 24 24	 mov	 DWORD PTR i$[rsp], eax
$LN4@GetQueue:
  00047	8b 44 24 20	 mov	 eax, DWORD PTR nCount$[rsp]
  0004b	39 44 24 24	 cmp	 DWORD PTR i$[rsp], eax
  0004f	0f 8d 95 00 00
	00		 jge	 $LN3@GetQueue

; 479  : 	{
; 480  : 		pData = (char *)m_sLogQueue.front();

  00055	48 8b 44 24 50	 mov	 rax, QWORD PTR this$[rsp]
  0005a	48 83 c0 50	 add	 rax, 80			; 00000050H
  0005e	48 8b c8	 mov	 rcx, rax
  00061	e8 00 00 00 00	 call	 ?front@StCOMQueue@@QEAAPEAXXZ ; StCOMQueue::front
  00066	48 89 44 24 28	 mov	 QWORD PTR pData$[rsp], rax

; 481  : 		if(pData)

  0006b	48 83 7c 24 28
	00		 cmp	 QWORD PTR pData$[rsp], 0
  00071	74 72		 je	 SHORT $LN5@GetQueue

; 482  : 		{
; 483  : 			m_sLogQueue.pop();

  00073	48 8b 44 24 50	 mov	 rax, QWORD PTR this$[rsp]
  00078	48 83 c0 50	 add	 rax, 80			; 00000050H
  0007c	48 8b c8	 mov	 rcx, rax
  0007f	e8 00 00 00 00	 call	 ?pop@StCOMQueue@@QEAAXXZ ; StCOMQueue::pop

; 484  : 			int nLen = _tcslen(pData) + 1;

  00084	48 8b 4c 24 28	 mov	 rcx, QWORD PTR pData$[rsp]
  00089	e8 00 00 00 00	 call	 strlen
  0008e	48 ff c0	 inc	 rax
  00091	89 44 24 30	 mov	 DWORD PTR nLen$1[rsp], eax

; 485  : 			if(m_pfProcessDataFromQueue) m_pfProcessDataFromQueue(pData, m_nObj);

  00095	48 8b 44 24 50	 mov	 rax, QWORD PTR this$[rsp]
  0009a	48 83 78 10 00	 cmp	 QWORD PTR [rax+16], 0
  0009f	74 18		 je	 SHORT $LN6@GetQueue
  000a1	48 8b 44 24 50	 mov	 rax, QWORD PTR this$[rsp]
  000a6	48 8b 50 48	 mov	 rdx, QWORD PTR [rax+72]
  000aa	48 8b 4c 24 28	 mov	 rcx, QWORD PTR pData$[rsp]
  000af	48 8b 44 24 50	 mov	 rax, QWORD PTR this$[rsp]
  000b4	ff 50 10	 call	 QWORD PTR [rax+16]
  000b7	eb 13		 jmp	 SHORT $LN7@GetQueue
$LN6@GetQueue:

; 486  : 			else m_pLogger->LogPrint(pData);

  000b9	48 8b 54 24 28	 mov	 rdx, QWORD PTR pData$[rsp]
  000be	48 8b 44 24 50	 mov	 rax, QWORD PTR this$[rsp]
  000c3	48 8b 48 18	 mov	 rcx, QWORD PTR [rax+24]
  000c7	e8 00 00 00 00	 call	 ?LogPrint@CLogger@@QEAAXPEAD@Z ; CLogger::LogPrint
$LN7@GetQueue:

; 487  : 			g_cMMgr.delBuf(pData,nLen);

  000cc	48 63 44 24 30	 movsxd	 rax, DWORD PTR nLen$1[rsp]
  000d1	4c 8b c0	 mov	 r8, rax
  000d4	48 8b 54 24 28	 mov	 rdx, QWORD PTR pData$[rsp]
  000d9	48 8d 0d 00 00
	00 00		 lea	 rcx, OFFSET FLAT:?g_cMMgr@@3VCMemManager@@A ; g_cMMgr
  000e0	e8 00 00 00 00	 call	 ?delBuf@CMemManager@@QEAAXPEAD_K@Z ; CMemManager::delBuf
$LN5@GetQueue:

; 488  : 		}
; 489  : 	}

  000e5	e9 53 ff ff ff	 jmp	 $LN2@GetQueue
$LN3@GetQueue:

; 490  : }

  000ea	48 83 c4 40	 add	 rsp, 64			; 00000040H
  000ee	5f		 pop	 rdi
  000ef	c3		 ret	 0
?GetQueue@CSTLogger@@QEAAXXZ ENDP			; CSTLogger::GetQueue
_TEXT	ENDS
; Function compile flags: /Odtp /RTCsu
; File d:\newproject2\com\src\comstlogger.cpp
_TEXT	SEGMENT
curTm$ = 64
tmpBuf$ = 224
fmtStr$ = 320
nLen2$ = 388
nIdx$ = 404
pBuf$ = 424
ap$ = 440
$T8 = 464
tv77 = 472
tv82 = 480
__$ArrayPad$ = 488
this$ = 512
nLevel$ = 520
nLen$ = 528
fmt$ = 536
?PutLogQueueL@CSTLogger@@QEAAXHHPEBDZZ PROC		; CSTLogger::PutLogQueueL

; 278  : {

$LN6:
  00000	4c 89 4c 24 20	 mov	 QWORD PTR [rsp+32], r9
  00005	44 89 44 24 18	 mov	 DWORD PTR [rsp+24], r8d
  0000a	89 54 24 10	 mov	 DWORD PTR [rsp+16], edx
  0000e	48 89 4c 24 08	 mov	 QWORD PTR [rsp+8], rcx
  00013	57		 push	 rdi
  00014	48 81 ec f0 01
	00 00		 sub	 rsp, 496		; 000001f0H
  0001b	48 8b fc	 mov	 rdi, rsp
  0001e	b9 7c 00 00 00	 mov	 ecx, 124		; 0000007cH
  00023	b8 cc cc cc cc	 mov	 eax, -858993460		; ccccccccH
  00028	f3 ab		 rep stosd
  0002a	48 8b 8c 24 00
	02 00 00	 mov	 rcx, QWORD PTR [rsp+512]
  00032	48 c7 84 24 d0
	01 00 00 fe ff
	ff ff		 mov	 QWORD PTR $T8[rsp], -2
  0003e	48 8b 05 00 00
	00 00		 mov	 rax, QWORD PTR __security_cookie
  00045	48 33 c4	 xor	 rax, rsp
  00048	48 89 84 24 e8
	01 00 00	 mov	 QWORD PTR __$ArrayPad$[rsp], rax

; 279  : 	if (!(m_nFlag & IS_ACTIVE_PUT_QUEUE)) return;

  00050	48 8b 84 24 00
	02 00 00	 mov	 rax, QWORD PTR this$[rsp]
  00058	8b 40 38	 mov	 eax, DWORD PTR [rax+56]
  0005b	83 e0 04	 and	 eax, 4
  0005e	85 c0		 test	 eax, eax
  00060	75 05		 jne	 SHORT $LN2@PutLogQueu
  00062	e9 ff 01 00 00	 jmp	 $LN1@PutLogQueu
$LN2@PutLogQueu:

; 280  : 	if (nLevel < m_nLogLevel) return;

  00067	48 8b 84 24 00
	02 00 00	 mov	 rax, QWORD PTR this$[rsp]
  0006f	8b 40 24	 mov	 eax, DWORD PTR [rax+36]
  00072	39 84 24 08 02
	00 00		 cmp	 DWORD PTR nLevel$[rsp], eax
  00079	7d 05		 jge	 SHORT $LN3@PutLogQueu
  0007b	e9 e6 01 00 00	 jmp	 $LN1@PutLogQueu
$LN3@PutLogQueu:

; 281  : 
; 282  : 	CDateTime	curTm;

  00080	48 8d 4c 24 40	 lea	 rcx, QWORD PTR curTm$[rsp]
  00085	e8 00 00 00 00	 call	 ??0CDateTime@@QEAA@XZ	; CDateTime::CDateTime
  0008a	90		 npad	 1

; 283  : 	TCHAR    tmpBuf[LEN_LOG_HEADER];
; 284  : 	const TCHAR	*fmtStr[8] = {
; 285  : 		_T(""),

  0008b	48 8d 05 00 00
	00 00		 lea	 rax, OFFSET FLAT:$SG44429
  00092	48 89 84 24 40
	01 00 00	 mov	 QWORD PTR fmtStr$[rsp], rax

; 286  : 		_T("[DEBUG] "),

  0009a	48 8d 05 00 00
	00 00		 lea	 rax, OFFSET FLAT:$SG44430
  000a1	48 89 84 24 48
	01 00 00	 mov	 QWORD PTR fmtStr$[rsp+8], rax

; 287  : 		_T("[TRACE] "),

  000a9	48 8d 05 00 00
	00 00		 lea	 rax, OFFSET FLAT:$SG44431
  000b0	48 89 84 24 50
	01 00 00	 mov	 QWORD PTR fmtStr$[rsp+16], rax

; 288  : 		_T("[WARNING] "),

  000b8	48 8d 05 00 00
	00 00		 lea	 rax, OFFSET FLAT:$SG44432
  000bf	48 89 84 24 58
	01 00 00	 mov	 QWORD PTR fmtStr$[rsp+24], rax

; 289  : 		_T("[INFO] "),

  000c7	48 8d 05 00 00
	00 00		 lea	 rax, OFFSET FLAT:$SG44433
  000ce	48 89 84 24 60
	01 00 00	 mov	 QWORD PTR fmtStr$[rsp+32], rax

; 290  : 		_T("[ERROR] "),

  000d6	48 8d 05 00 00
	00 00		 lea	 rax, OFFSET FLAT:$SG44434
  000dd	48 89 84 24 68
	01 00 00	 mov	 QWORD PTR fmtStr$[rsp+40], rax

; 291  : 		_T("[FATAL] ")

  000e5	48 8d 05 00 00
	00 00		 lea	 rax, OFFSET FLAT:$SG44435
  000ec	48 89 84 24 70
	01 00 00	 mov	 QWORD PTR fmtStr$[rsp+48], rax
  000f4	48 8d 84 24 78
	01 00 00	 lea	 rax, QWORD PTR fmtStr$[rsp+56]
  000fc	48 8b f8	 mov	 rdi, rax
  000ff	33 c0		 xor	 eax, eax
  00101	b9 08 00 00 00	 mov	 ecx, 8
  00106	f3 aa		 rep stosb

; 292  : 		_T("[ALARM] ")
; 293  : 	};
; 294  : 
; 295  : 	int nLen2 = _stprintf(tmpBuf, _T("[%s %s] %s"), curTm.DateString2(), curTm.TimeString3(), fmtStr[nLevel]);

  00108	48 63 84 24 08
	02 00 00	 movsxd	 rax, DWORD PTR nLevel$[rsp]
  00110	48 89 84 24 d8
	01 00 00	 mov	 QWORD PTR tv77[rsp], rax
  00118	48 8d 4c 24 40	 lea	 rcx, QWORD PTR curTm$[rsp]
  0011d	e8 00 00 00 00	 call	 ?TimeString3@CDateTime@@QEAAPEBDXZ ; CDateTime::TimeString3
  00122	48 89 84 24 e0
	01 00 00	 mov	 QWORD PTR tv82[rsp], rax
  0012a	48 8d 4c 24 40	 lea	 rcx, QWORD PTR curTm$[rsp]
  0012f	e8 00 00 00 00	 call	 ?DateString2@CDateTime@@QEAAPEBDXZ ; CDateTime::DateString2
  00134	48 8b 8c 24 d8
	01 00 00	 mov	 rcx, QWORD PTR tv77[rsp]
  0013c	48 8b 8c cc 40
	01 00 00	 mov	 rcx, QWORD PTR fmtStr$[rsp+rcx*8]
  00144	48 89 4c 24 20	 mov	 QWORD PTR [rsp+32], rcx
  00149	48 8b 8c 24 e0
	01 00 00	 mov	 rcx, QWORD PTR tv82[rsp]
  00151	4c 8b c9	 mov	 r9, rcx
  00154	4c 8b c0	 mov	 r8, rax
  00157	48 8d 15 00 00
	00 00		 lea	 rdx, OFFSET FLAT:$SG44436
  0015e	48 8d 8c 24 e0
	00 00 00	 lea	 rcx, QWORD PTR tmpBuf$[rsp]
  00166	e8 00 00 00 00	 call	 sprintf
  0016b	89 84 24 84 01
	00 00		 mov	 DWORD PTR nLen2$[rsp], eax

; 296  : 	int nIdx;
; 297  : 	char	*pBuf = g_cMMgr.newBuf(nLen2+nLen+2, &nIdx);

  00172	8b 84 24 84 01
	00 00		 mov	 eax, DWORD PTR nLen2$[rsp]
  00179	8b 8c 24 10 02
	00 00		 mov	 ecx, DWORD PTR nLen$[rsp]
  00180	8d 44 08 02	 lea	 eax, DWORD PTR [rax+rcx+2]
  00184	48 98		 cdqe
  00186	4c 8d 84 24 94
	01 00 00	 lea	 r8, QWORD PTR nIdx$[rsp]
  0018e	48 8b d0	 mov	 rdx, rax
  00191	48 8d 0d 00 00
	00 00		 lea	 rcx, OFFSET FLAT:?g_cMMgr@@3VCMemManager@@A ; g_cMMgr
  00198	e8 00 00 00 00	 call	 ?newBuf@CMemManager@@QEAAPEAD_KPEAH@Z ; CMemManager::newBuf
  0019d	48 89 84 24 a8
	01 00 00	 mov	 QWORD PTR pBuf$[rsp], rax

; 298  : 	strcpy(pBuf, tmpBuf);

  001a5	48 8d 94 24 e0
	00 00 00	 lea	 rdx, QWORD PTR tmpBuf$[rsp]
  001ad	48 8b 8c 24 a8
	01 00 00	 mov	 rcx, QWORD PTR pBuf$[rsp]
  001b5	e8 00 00 00 00	 call	 strcpy

; 299  : 
; 300  : 	va_list	ap;
; 301  : 	va_start(ap, fmt);

  001ba	e8 00 00 00 00	 call	 ??$__vcrt_va_start_verify_argument_type@PEBD@@YAXXZ ; __vcrt_va_start_verify_argument_type<char const * __ptr64>
  001bf	48 8d 84 24 20
	02 00 00	 lea	 rax, QWORD PTR fmt$[rsp+8]
  001c7	48 89 84 24 b8
	01 00 00	 mov	 QWORD PTR ap$[rsp], rax

; 302  : 	nLen+=_vsntprintf(pBuf+nLen2, nLen + 2, fmt, ap);

  001cf	8b 84 24 10 02
	00 00		 mov	 eax, DWORD PTR nLen$[rsp]
  001d6	83 c0 02	 add	 eax, 2
  001d9	48 98		 cdqe
  001db	48 63 8c 24 84
	01 00 00	 movsxd	 rcx, DWORD PTR nLen2$[rsp]
  001e3	48 8b 94 24 a8
	01 00 00	 mov	 rdx, QWORD PTR pBuf$[rsp]
  001eb	48 03 d1	 add	 rdx, rcx
  001ee	48 8b ca	 mov	 rcx, rdx
  001f1	4c 8b 8c 24 b8
	01 00 00	 mov	 r9, QWORD PTR ap$[rsp]
  001f9	4c 8b 84 24 18
	02 00 00	 mov	 r8, QWORD PTR fmt$[rsp]
  00201	48 8b d0	 mov	 rdx, rax
  00204	e8 00 00 00 00	 call	 _vsnprintf
  00209	8b 8c 24 10 02
	00 00		 mov	 ecx, DWORD PTR nLen$[rsp]
  00210	03 c8		 add	 ecx, eax
  00212	8b c1		 mov	 eax, ecx
  00214	89 84 24 10 02
	00 00		 mov	 DWORD PTR nLen$[rsp], eax

; 303  : 	va_end(ap);

  0021b	48 c7 84 24 b8
	01 00 00 00 00
	00 00		 mov	 QWORD PTR ap$[rsp], 0

; 304  : 	_putLogQueue(NULL, NULL, nLen2+nLen+2, pBuf);

  00227	8b 84 24 84 01
	00 00		 mov	 eax, DWORD PTR nLen2$[rsp]
  0022e	8b 8c 24 10 02
	00 00		 mov	 ecx, DWORD PTR nLen$[rsp]
  00235	8d 44 08 02	 lea	 eax, DWORD PTR [rax+rcx+2]
  00239	48 8b 8c 24 a8
	01 00 00	 mov	 rcx, QWORD PTR pBuf$[rsp]
  00241	48 89 4c 24 20	 mov	 QWORD PTR [rsp+32], rcx
  00246	44 8b c8	 mov	 r9d, eax
  00249	45 33 c0	 xor	 r8d, r8d
  0024c	33 d2		 xor	 edx, edx
  0024e	48 8b 8c 24 00
	02 00 00	 mov	 rcx, QWORD PTR this$[rsp]
  00256	e8 00 00 00 00	 call	 ?_putLogQueue@CSTLogger@@AEAAXPEAD0H0@Z ; CSTLogger::_putLogQueue
  0025b	90		 npad	 1

; 305  : }

  0025c	48 8d 4c 24 40	 lea	 rcx, QWORD PTR curTm$[rsp]
  00261	e8 00 00 00 00	 call	 ??1CDateTime@@QEAA@XZ	; CDateTime::~CDateTime
$LN1@PutLogQueu:
  00266	48 8b cc	 mov	 rcx, rsp
  00269	48 8d 15 00 00
	00 00		 lea	 rdx, OFFSET FLAT:?PutLogQueueL@CSTLogger@@QEAAXHHPEBDZZ$rtcFrameData
  00270	e8 00 00 00 00	 call	 _RTC_CheckStackVars
  00275	48 8b 8c 24 e8
	01 00 00	 mov	 rcx, QWORD PTR __$ArrayPad$[rsp]
  0027d	48 33 cc	 xor	 rcx, rsp
  00280	e8 00 00 00 00	 call	 __security_check_cookie
  00285	48 81 c4 f0 01
	00 00		 add	 rsp, 496		; 000001f0H
  0028c	5f		 pop	 rdi
  0028d	c3		 ret	 0
?PutLogQueueL@CSTLogger@@QEAAXHHPEBDZZ ENDP		; CSTLogger::PutLogQueueL
_TEXT	ENDS
text$x	SEGMENT
curTm$ = 64
tmpBuf$ = 224
fmtStr$ = 320
nLen2$ = 388
nIdx$ = 404
pBuf$ = 424
ap$ = 440
$T8 = 464
tv77 = 472
tv82 = 480
__$ArrayPad$ = 488
this$ = 512
nLevel$ = 520
nLen$ = 528
fmt$ = 536
?dtor$0@?0??PutLogQueueL@CSTLogger@@QEAAXHHPEBDZZ@4HA PROC ; `CSTLogger::PutLogQueueL'::`1'::dtor$0
  00000	48 89 4c 24 08	 mov	 QWORD PTR [rsp+8], rcx
  00005	48 89 54 24 10	 mov	 QWORD PTR [rsp+16], rdx
  0000a	55		 push	 rbp
  0000b	57		 push	 rdi
  0000c	48 83 ec 28	 sub	 rsp, 40			; 00000028H
  00010	48 8b ea	 mov	 rbp, rdx
  00013	48 8d 4d 40	 lea	 rcx, QWORD PTR curTm$[rbp]
  00017	e8 00 00 00 00	 call	 ??1CDateTime@@QEAA@XZ	; CDateTime::~CDateTime
  0001c	48 83 c4 28	 add	 rsp, 40			; 00000028H
  00020	5f		 pop	 rdi
  00021	5d		 pop	 rbp
  00022	c3		 ret	 0
?dtor$0@?0??PutLogQueueL@CSTLogger@@QEAAXHHPEBDZZ@4HA ENDP ; `CSTLogger::PutLogQueueL'::`1'::dtor$0
text$x	ENDS
; Function compile flags: /Odtp /RTCsu
text$x	SEGMENT
curTm$ = 64
tmpBuf$ = 224
fmtStr$ = 320
nLen2$ = 388
nIdx$ = 404
pBuf$ = 424
ap$ = 440
$T8 = 464
tv77 = 472
tv82 = 480
__$ArrayPad$ = 488
this$ = 512
nLevel$ = 520
nLen$ = 528
fmt$ = 536
?dtor$0@?0??PutLogQueueL@CSTLogger@@QEAAXHHPEBDZZ@4HA PROC ; `CSTLogger::PutLogQueueL'::`1'::dtor$0
  00000	48 89 4c 24 08	 mov	 QWORD PTR [rsp+8], rcx
  00005	48 89 54 24 10	 mov	 QWORD PTR [rsp+16], rdx
  0000a	55		 push	 rbp
  0000b	57		 push	 rdi
  0000c	48 83 ec 28	 sub	 rsp, 40			; 00000028H
  00010	48 8b ea	 mov	 rbp, rdx
  00013	48 8d 4d 40	 lea	 rcx, QWORD PTR curTm$[rbp]
  00017	e8 00 00 00 00	 call	 ??1CDateTime@@QEAA@XZ	; CDateTime::~CDateTime
  0001c	48 83 c4 28	 add	 rsp, 40			; 00000028H
  00020	5f		 pop	 rdi
  00021	5d		 pop	 rbp
  00022	c3		 ret	 0
?dtor$0@?0??PutLogQueueL@CSTLogger@@QEAAXHHPEBDZZ@4HA ENDP ; `CSTLogger::PutLogQueueL'::`1'::dtor$0
text$x	ENDS
; Function compile flags: /Odtp /RTCsu
; File d:\newproject2\com\src\comstlogger.cpp
_TEXT	SEGMENT
curTm$ = 64
tmpBuf$ = 224
fmtStr$ = 320
nLen$ = 388
msgBuf$ = 416
ap$ = 4536
$T8 = 4560
tv77 = 4568
tv82 = 4576
__$ArrayPad$ = 4584
this$ = 4608
nLevel$ = 4616
fmt$ = 4624
?PutLogQueue@CSTLogger@@QEAAXHPEBDZZ PROC		; CSTLogger::PutLogQueue

; 246  : {

$LN6:
  00000	4c 89 44 24 18	 mov	 QWORD PTR [rsp+24], r8
  00005	89 54 24 10	 mov	 DWORD PTR [rsp+16], edx
  00009	48 89 4c 24 08	 mov	 QWORD PTR [rsp+8], rcx
  0000e	4c 89 4c 24 20	 mov	 QWORD PTR [rsp+32], r9
  00013	57		 push	 rdi
  00014	b8 f0 11 00 00	 mov	 eax, 4592		; 000011f0H
  00019	e8 00 00 00 00	 call	 __chkstk
  0001e	48 2b e0	 sub	 rsp, rax
  00021	48 8b fc	 mov	 rdi, rsp
  00024	b9 7c 04 00 00	 mov	 ecx, 1148		; 0000047cH
  00029	b8 cc cc cc cc	 mov	 eax, -858993460		; ccccccccH
  0002e	f3 ab		 rep stosd
  00030	48 8b 8c 24 00
	12 00 00	 mov	 rcx, QWORD PTR [rsp+4608]
  00038	48 c7 84 24 d0
	11 00 00 fe ff
	ff ff		 mov	 QWORD PTR $T8[rsp], -2
  00044	48 8b 05 00 00
	00 00		 mov	 rax, QWORD PTR __security_cookie
  0004b	48 33 c4	 xor	 rax, rsp
  0004e	48 89 84 24 e8
	11 00 00	 mov	 QWORD PTR __$ArrayPad$[rsp], rax

; 247  : 	if(!(m_nFlag & IS_ACTIVE_PUT_QUEUE)) return ;

  00056	48 8b 84 24 00
	12 00 00	 mov	 rax, QWORD PTR this$[rsp]
  0005e	8b 40 38	 mov	 eax, DWORD PTR [rax+56]
  00061	83 e0 04	 and	 eax, 4
  00064	85 c0		 test	 eax, eax
  00066	75 05		 jne	 SHORT $LN2@PutLogQueu
  00068	e9 ae 01 00 00	 jmp	 $LN1@PutLogQueu
$LN2@PutLogQueu:

; 248  : 	if(nLevel < m_nLogLevel) return;

  0006d	48 8b 84 24 00
	12 00 00	 mov	 rax, QWORD PTR this$[rsp]
  00075	8b 40 24	 mov	 eax, DWORD PTR [rax+36]
  00078	39 84 24 08 12
	00 00		 cmp	 DWORD PTR nLevel$[rsp], eax
  0007f	7d 05		 jge	 SHORT $LN3@PutLogQueu
  00081	e9 95 01 00 00	 jmp	 $LN1@PutLogQueu
$LN3@PutLogQueu:

; 249  : 
; 250  :  	CDateTime	curTm;

  00086	48 8d 4c 24 40	 lea	 rcx, QWORD PTR curTm$[rsp]
  0008b	e8 00 00 00 00	 call	 ??0CDateTime@@QEAA@XZ	; CDateTime::CDateTime
  00090	90		 npad	 1

; 251  : 	TCHAR    tmpBuf[LEN_LOG_HEADER];
; 252  : 	const TCHAR	*fmtStr[8] = {
; 253  : 		_T(""),

  00091	48 8d 05 00 00
	00 00		 lea	 rax, OFFSET FLAT:$SG44402
  00098	48 89 84 24 40
	01 00 00	 mov	 QWORD PTR fmtStr$[rsp], rax

; 254  : 		_T("[DEBUG] "),

  000a0	48 8d 05 00 00
	00 00		 lea	 rax, OFFSET FLAT:$SG44403
  000a7	48 89 84 24 48
	01 00 00	 mov	 QWORD PTR fmtStr$[rsp+8], rax

; 255  : 		_T("[TRACE] "),

  000af	48 8d 05 00 00
	00 00		 lea	 rax, OFFSET FLAT:$SG44404
  000b6	48 89 84 24 50
	01 00 00	 mov	 QWORD PTR fmtStr$[rsp+16], rax

; 256  : 		_T("[WARNING] "),

  000be	48 8d 05 00 00
	00 00		 lea	 rax, OFFSET FLAT:$SG44405
  000c5	48 89 84 24 58
	01 00 00	 mov	 QWORD PTR fmtStr$[rsp+24], rax

; 257  : 		_T("[INFO] "),

  000cd	48 8d 05 00 00
	00 00		 lea	 rax, OFFSET FLAT:$SG44406
  000d4	48 89 84 24 60
	01 00 00	 mov	 QWORD PTR fmtStr$[rsp+32], rax

; 258  : 		_T("[ERROR] "),

  000dc	48 8d 05 00 00
	00 00		 lea	 rax, OFFSET FLAT:$SG44407
  000e3	48 89 84 24 68
	01 00 00	 mov	 QWORD PTR fmtStr$[rsp+40], rax

; 259  : 		_T("[FATAL] ")

  000eb	48 8d 05 00 00
	00 00		 lea	 rax, OFFSET FLAT:$SG44408
  000f2	48 89 84 24 70
	01 00 00	 mov	 QWORD PTR fmtStr$[rsp+48], rax
  000fa	48 8d 84 24 78
	01 00 00	 lea	 rax, QWORD PTR fmtStr$[rsp+56]
  00102	48 8b f8	 mov	 rdi, rax
  00105	33 c0		 xor	 eax, eax
  00107	b9 08 00 00 00	 mov	 ecx, 8
  0010c	f3 aa		 rep stosb

; 260  : 		_T("[ALARM] ")
; 261  : 	};
; 262  : 
; 263  : 	int nLen = _stprintf(tmpBuf, _T("[%s %s] %s"),curTm.DateString2(),curTm.TimeString3(), fmtStr[nLevel]);

  0010e	48 63 84 24 08
	12 00 00	 movsxd	 rax, DWORD PTR nLevel$[rsp]
  00116	48 89 84 24 d8
	11 00 00	 mov	 QWORD PTR tv77[rsp], rax
  0011e	48 8d 4c 24 40	 lea	 rcx, QWORD PTR curTm$[rsp]
  00123	e8 00 00 00 00	 call	 ?TimeString3@CDateTime@@QEAAPEBDXZ ; CDateTime::TimeString3
  00128	48 89 84 24 e0
	11 00 00	 mov	 QWORD PTR tv82[rsp], rax
  00130	48 8d 4c 24 40	 lea	 rcx, QWORD PTR curTm$[rsp]
  00135	e8 00 00 00 00	 call	 ?DateString2@CDateTime@@QEAAPEBDXZ ; CDateTime::DateString2
  0013a	48 8b 8c 24 d8
	11 00 00	 mov	 rcx, QWORD PTR tv77[rsp]
  00142	48 8b 8c cc 40
	01 00 00	 mov	 rcx, QWORD PTR fmtStr$[rsp+rcx*8]
  0014a	48 89 4c 24 20	 mov	 QWORD PTR [rsp+32], rcx
  0014f	48 8b 8c 24 e0
	11 00 00	 mov	 rcx, QWORD PTR tv82[rsp]
  00157	4c 8b c9	 mov	 r9, rcx
  0015a	4c 8b c0	 mov	 r8, rax
  0015d	48 8d 15 00 00
	00 00		 lea	 rdx, OFFSET FLAT:$SG44409
  00164	48 8d 8c 24 e0
	00 00 00	 lea	 rcx, QWORD PTR tmpBuf$[rsp]
  0016c	e8 00 00 00 00	 call	 sprintf
  00171	89 84 24 84 01
	00 00		 mov	 DWORD PTR nLen$[rsp], eax

; 264  : 
; 265  : 	TCHAR	msgBuf[MAX_LOGBUF_LEN];
; 266  : 	memset(msgBuf, 0, MAX_LOGBUF_LEN);

  00178	41 b8 00 10 00
	00		 mov	 r8d, 4096		; 00001000H
  0017e	33 d2		 xor	 edx, edx
  00180	48 8d 8c 24 a0
	01 00 00	 lea	 rcx, QWORD PTR msgBuf$[rsp]
  00188	e8 00 00 00 00	 call	 memset

; 267  : 	va_list	ap;
; 268  : 	va_start(ap, fmt);

  0018d	e8 00 00 00 00	 call	 ??$__vcrt_va_start_verify_argument_type@PEBD@@YAXXZ ; __vcrt_va_start_verify_argument_type<char const * __ptr64>
  00192	48 8d 84 24 18
	12 00 00	 lea	 rax, QWORD PTR fmt$[rsp+8]
  0019a	48 89 84 24 b8
	11 00 00	 mov	 QWORD PTR ap$[rsp], rax

; 269  : 
; 270  : 	nLen+=_vsntprintf(msgBuf, MAX_LOGBUF_LEN-1, fmt, ap);

  001a2	4c 8b 8c 24 b8
	11 00 00	 mov	 r9, QWORD PTR ap$[rsp]
  001aa	4c 8b 84 24 10
	12 00 00	 mov	 r8, QWORD PTR fmt$[rsp]
  001b2	ba ff 0f 00 00	 mov	 edx, 4095		; 00000fffH
  001b7	48 8d 8c 24 a0
	01 00 00	 lea	 rcx, QWORD PTR msgBuf$[rsp]
  001bf	e8 00 00 00 00	 call	 _vsnprintf
  001c4	8b 8c 24 84 01
	00 00		 mov	 ecx, DWORD PTR nLen$[rsp]
  001cb	03 c8		 add	 ecx, eax
  001cd	8b c1		 mov	 eax, ecx
  001cf	89 84 24 84 01
	00 00		 mov	 DWORD PTR nLen$[rsp], eax

; 271  : 	va_end(ap);

  001d6	48 c7 84 24 b8
	11 00 00 00 00
	00 00		 mov	 QWORD PTR ap$[rsp], 0

; 272  : 
; 273  :     _putLogQueue(tmpBuf, msgBuf,nLen);

  001e2	48 c7 44 24 20
	00 00 00 00	 mov	 QWORD PTR [rsp+32], 0
  001eb	44 8b 8c 24 84
	01 00 00	 mov	 r9d, DWORD PTR nLen$[rsp]
  001f3	4c 8d 84 24 a0
	01 00 00	 lea	 r8, QWORD PTR msgBuf$[rsp]
  001fb	48 8d 94 24 e0
	00 00 00	 lea	 rdx, QWORD PTR tmpBuf$[rsp]
  00203	48 8b 8c 24 00
	12 00 00	 mov	 rcx, QWORD PTR this$[rsp]
  0020b	e8 00 00 00 00	 call	 ?_putLogQueue@CSTLogger@@AEAAXPEAD0H0@Z ; CSTLogger::_putLogQueue
  00210	90		 npad	 1

; 274  : 
; 275  : }

  00211	48 8d 4c 24 40	 lea	 rcx, QWORD PTR curTm$[rsp]
  00216	e8 00 00 00 00	 call	 ??1CDateTime@@QEAA@XZ	; CDateTime::~CDateTime
$LN1@PutLogQueu:
  0021b	48 8b cc	 mov	 rcx, rsp
  0021e	48 8d 15 00 00
	00 00		 lea	 rdx, OFFSET FLAT:?PutLogQueue@CSTLogger@@QEAAXHPEBDZZ$rtcFrameData
  00225	e8 00 00 00 00	 call	 _RTC_CheckStackVars
  0022a	48 8b 8c 24 e8
	11 00 00	 mov	 rcx, QWORD PTR __$ArrayPad$[rsp]
  00232	48 33 cc	 xor	 rcx, rsp
  00235	e8 00 00 00 00	 call	 __security_check_cookie
  0023a	48 81 c4 f0 11
	00 00		 add	 rsp, 4592		; 000011f0H
  00241	5f		 pop	 rdi
  00242	c3		 ret	 0
?PutLogQueue@CSTLogger@@QEAAXHPEBDZZ ENDP		; CSTLogger::PutLogQueue
_TEXT	ENDS
text$x	SEGMENT
curTm$ = 64
tmpBuf$ = 224
fmtStr$ = 320
nLen$ = 388
msgBuf$ = 416
ap$ = 4536
$T8 = 4560
tv77 = 4568
tv82 = 4576
__$ArrayPad$ = 4584
this$ = 4608
nLevel$ = 4616
fmt$ = 4624
?dtor$0@?0??PutLogQueue@CSTLogger@@QEAAXHPEBDZZ@4HA PROC ; `CSTLogger::PutLogQueue'::`1'::dtor$0
  00000	48 89 4c 24 08	 mov	 QWORD PTR [rsp+8], rcx
  00005	48 89 54 24 10	 mov	 QWORD PTR [rsp+16], rdx
  0000a	55		 push	 rbp
  0000b	57		 push	 rdi
  0000c	48 83 ec 28	 sub	 rsp, 40			; 00000028H
  00010	48 8b ea	 mov	 rbp, rdx
  00013	48 8d 4d 40	 lea	 rcx, QWORD PTR curTm$[rbp]
  00017	e8 00 00 00 00	 call	 ??1CDateTime@@QEAA@XZ	; CDateTime::~CDateTime
  0001c	48 83 c4 28	 add	 rsp, 40			; 00000028H
  00020	5f		 pop	 rdi
  00021	5d		 pop	 rbp
  00022	c3		 ret	 0
?dtor$0@?0??PutLogQueue@CSTLogger@@QEAAXHPEBDZZ@4HA ENDP ; `CSTLogger::PutLogQueue'::`1'::dtor$0
text$x	ENDS
; Function compile flags: /Odtp /RTCsu
text$x	SEGMENT
curTm$ = 64
tmpBuf$ = 224
fmtStr$ = 320
nLen$ = 388
msgBuf$ = 416
ap$ = 4536
$T8 = 4560
tv77 = 4568
tv82 = 4576
__$ArrayPad$ = 4584
this$ = 4608
nLevel$ = 4616
fmt$ = 4624
?dtor$0@?0??PutLogQueue@CSTLogger@@QEAAXHPEBDZZ@4HA PROC ; `CSTLogger::PutLogQueue'::`1'::dtor$0
  00000	48 89 4c 24 08	 mov	 QWORD PTR [rsp+8], rcx
  00005	48 89 54 24 10	 mov	 QWORD PTR [rsp+16], rdx
  0000a	55		 push	 rbp
  0000b	57		 push	 rdi
  0000c	48 83 ec 28	 sub	 rsp, 40			; 00000028H
  00010	48 8b ea	 mov	 rbp, rdx
  00013	48 8d 4d 40	 lea	 rcx, QWORD PTR curTm$[rbp]
  00017	e8 00 00 00 00	 call	 ??1CDateTime@@QEAA@XZ	; CDateTime::~CDateTime
  0001c	48 83 c4 28	 add	 rsp, 40			; 00000028H
  00020	5f		 pop	 rdi
  00021	5d		 pop	 rbp
  00022	c3		 ret	 0
?dtor$0@?0??PutLogQueue@CSTLogger@@QEAAXHPEBDZZ@4HA ENDP ; `CSTLogger::PutLogQueue'::`1'::dtor$0
text$x	ENDS
; Function compile flags: /Odtp /RTCsu
; File d:\newproject2\com\src\comstlogger.cpp
_TEXT	SEGMENT
curTm$ = 112
packetBuf$ = 272
tmpBuf$ = 4400
fmtStr$ = 4504
idx$ = 4548
i$ = 4552
nLCompare$ = 4556
len$ = 4560
$T7 = 4576
tv79 = 4584
tv82 = 4588
tv85 = 4592
tv88 = 4596
tv91 = 4600
tv134 = 4604
__$ArrayPad$ = 4608
this$ = 4640
nLevel$ = 4648
nKind$ = 4656
nSocket$ = 4664
szBuffer$ = 4672
nPacketSize$ = 4680
?DoWritePacket@CSTLogger@@QEAAXHHHPEADH@Z PROC		; CSTLogger::DoWritePacket

; 211  : {

$LN11:
  00000	44 89 4c 24 20	 mov	 DWORD PTR [rsp+32], r9d
  00005	44 89 44 24 18	 mov	 DWORD PTR [rsp+24], r8d
  0000a	89 54 24 10	 mov	 DWORD PTR [rsp+16], edx
  0000e	48 89 4c 24 08	 mov	 QWORD PTR [rsp+8], rcx
  00013	57		 push	 rdi
  00014	b8 10 12 00 00	 mov	 eax, 4624		; 00001210H
  00019	e8 00 00 00 00	 call	 __chkstk
  0001e	48 2b e0	 sub	 rsp, rax
  00021	48 8b fc	 mov	 rdi, rsp
  00024	b9 84 04 00 00	 mov	 ecx, 1156		; 00000484H
  00029	b8 cc cc cc cc	 mov	 eax, -858993460		; ccccccccH
  0002e	f3 ab		 rep stosd
  00030	48 8b 8c 24 20
	12 00 00	 mov	 rcx, QWORD PTR [rsp+4640]
  00038	48 c7 84 24 e0
	11 00 00 fe ff
	ff ff		 mov	 QWORD PTR $T7[rsp], -2
  00044	48 8b 05 00 00
	00 00		 mov	 rax, QWORD PTR __security_cookie
  0004b	48 33 c4	 xor	 rax, rsp
  0004e	48 89 84 24 00
	12 00 00	 mov	 QWORD PTR __$ArrayPad$[rsp], rax

; 212  : 	if(!(m_nFlag & IS_CREATE_LOGGER)) {

  00056	48 8b 84 24 20
	12 00 00	 mov	 rax, QWORD PTR this$[rsp]
  0005e	8b 40 38	 mov	 eax, DWORD PTR [rax+56]
  00061	83 e0 02	 and	 eax, 2
  00064	85 c0		 test	 eax, eax
  00066	75 05		 jne	 SHORT $LN4@DoWritePac

; 213  : 		return ;

  00068	e9 76 02 00 00	 jmp	 $LN1@DoWritePac
$LN4@DoWritePac:

; 214  : 	}
; 215  : 
; 216  : 	if(nLevel < m_nLogLevel) return;

  0006d	48 8b 84 24 20
	12 00 00	 mov	 rax, QWORD PTR this$[rsp]
  00075	8b 40 24	 mov	 eax, DWORD PTR [rax+36]
  00078	39 84 24 28 12
	00 00		 cmp	 DWORD PTR nLevel$[rsp], eax
  0007f	7d 05		 jge	 SHORT $LN5@DoWritePac
  00081	e9 5d 02 00 00	 jmp	 $LN1@DoWritePac
$LN5@DoWritePac:

; 217  : 
; 218  :  	CDateTime curTm;

  00086	48 8d 4c 24 70	 lea	 rcx, QWORD PTR curTm$[rsp]
  0008b	e8 00 00 00 00	 call	 ??0CDateTime@@QEAA@XZ	; CDateTime::CDateTime
  00090	90		 npad	 1

; 219  : 	char packetBuf[MAX_LOGBUF_LEN];
; 220  : 	char tmpBuf[70];
; 221  : 	const char	*fmtStr[5] = {
; 222  : 		"[%04d%02d%02d %02d%02d%02d] nSIdx[%d] Send [%d] PKIdx[%d] ",

  00091	48 8d 05 00 00
	00 00		 lea	 rax, OFFSET FLAT:$SG44373
  00098	48 89 84 24 98
	11 00 00	 mov	 QWORD PTR fmtStr$[rsp], rax

; 223  : 		"[%04d%02d%02d %02d%02d%02d] nSIdx[%d] Recv [%d] PKIdx[%d] ",

  000a0	48 8d 05 00 00
	00 00		 lea	 rax, OFFSET FLAT:$SG44374
  000a7	48 89 84 24 a0
	11 00 00	 mov	 QWORD PTR fmtStr$[rsp+8], rax

; 224  : 		"[%04d%02d%02d %02d%02d%02d] nSIdx[%d] send Queue [%d] PKIdx[%d] ",

  000af	48 8d 05 00 00
	00 00		 lea	 rax, OFFSET FLAT:$SG44375
  000b6	48 89 84 24 a8
	11 00 00	 mov	 QWORD PTR fmtStr$[rsp+16], rax

; 225  : 		"[%04d%02d%02d %02d%02d%02d] nSIdx[%d] recv Queue [%d] PKIdx[%d] ",

  000be	48 8d 05 00 00
	00 00		 lea	 rax, OFFSET FLAT:$SG44376
  000c5	48 89 84 24 b0
	11 00 00	 mov	 QWORD PTR fmtStr$[rsp+24], rax

; 226  : 		"[%04d%02d%02d %02d%02d%02d] Undefind nkind[%d] [%d] PKIdx[%d] "

  000cd	48 8d 05 00 00
	00 00		 lea	 rax, OFFSET FLAT:$SG44377
  000d4	48 89 84 24 b8
	11 00 00	 mov	 QWORD PTR fmtStr$[rsp+32], rax

; 227  : 	};
; 228  : 
; 229  : 	int	idx, i, nLCompare = MAX_LOGBUF_LEN-4;

  000dc	c7 84 24 cc 11
	00 00 fc 0f 00
	00		 mov	 DWORD PTR nLCompare$[rsp], 4092 ; 00000ffcH

; 230  : 
; 231  : 	idx = nKind;

  000e7	8b 84 24 30 12
	00 00		 mov	 eax, DWORD PTR nKind$[rsp]
  000ee	89 84 24 c4 11
	00 00		 mov	 DWORD PTR idx$[rsp], eax

; 232  : 	if (idx < 0 || idx > 4) idx = 4;

  000f5	83 bc 24 c4 11
	00 00 00	 cmp	 DWORD PTR idx$[rsp], 0
  000fd	7c 0a		 jl	 SHORT $LN7@DoWritePac
  000ff	83 bc 24 c4 11
	00 00 04	 cmp	 DWORD PTR idx$[rsp], 4
  00107	7e 0b		 jle	 SHORT $LN6@DoWritePac
$LN7@DoWritePac:
  00109	c7 84 24 c4 11
	00 00 04 00 00
	00		 mov	 DWORD PTR idx$[rsp], 4
$LN6@DoWritePac:

; 233  : 
; 234  : 	int len = sprintf(tmpBuf, fmtStr[idx], curTm.Year(),curTm.Month(),curTm.Mday(), curTm.Hour(), curTm.Minute(), curTm.Sec(), nSocket, nPacketSize, 0);

  00114	48 8d 4c 24 70	 lea	 rcx, QWORD PTR curTm$[rsp]
  00119	e8 00 00 00 00	 call	 ?Sec@CDateTime@@QEAAHXZ	; CDateTime::Sec
  0011e	89 84 24 e8 11
	00 00		 mov	 DWORD PTR tv79[rsp], eax
  00125	48 8d 4c 24 70	 lea	 rcx, QWORD PTR curTm$[rsp]
  0012a	e8 00 00 00 00	 call	 ?Minute@CDateTime@@QEAAHXZ ; CDateTime::Minute
  0012f	89 84 24 ec 11
	00 00		 mov	 DWORD PTR tv82[rsp], eax
  00136	48 8d 4c 24 70	 lea	 rcx, QWORD PTR curTm$[rsp]
  0013b	e8 00 00 00 00	 call	 ?Hour@CDateTime@@QEAAHXZ ; CDateTime::Hour
  00140	89 84 24 f0 11
	00 00		 mov	 DWORD PTR tv85[rsp], eax
  00147	48 8d 4c 24 70	 lea	 rcx, QWORD PTR curTm$[rsp]
  0014c	e8 00 00 00 00	 call	 ?Mday@CDateTime@@QEAAHXZ ; CDateTime::Mday
  00151	89 84 24 f4 11
	00 00		 mov	 DWORD PTR tv88[rsp], eax
  00158	48 8d 4c 24 70	 lea	 rcx, QWORD PTR curTm$[rsp]
  0015d	e8 00 00 00 00	 call	 ?Month@CDateTime@@QEAAHXZ ; CDateTime::Month
  00162	89 84 24 f8 11
	00 00		 mov	 DWORD PTR tv91[rsp], eax
  00169	48 8d 4c 24 70	 lea	 rcx, QWORD PTR curTm$[rsp]
  0016e	e8 00 00 00 00	 call	 ?Year@CDateTime@@QEAAHXZ ; CDateTime::Year
  00173	48 63 8c 24 c4
	11 00 00	 movsxd	 rcx, DWORD PTR idx$[rsp]
  0017b	48 c7 44 24 50
	00 00 00 00	 mov	 QWORD PTR [rsp+80], 0
  00184	8b 94 24 48 12
	00 00		 mov	 edx, DWORD PTR nPacketSize$[rsp]
  0018b	89 54 24 48	 mov	 DWORD PTR [rsp+72], edx
  0018f	8b 94 24 38 12
	00 00		 mov	 edx, DWORD PTR nSocket$[rsp]
  00196	89 54 24 40	 mov	 DWORD PTR [rsp+64], edx
  0019a	8b 94 24 e8 11
	00 00		 mov	 edx, DWORD PTR tv79[rsp]
  001a1	89 54 24 38	 mov	 DWORD PTR [rsp+56], edx
  001a5	8b 94 24 ec 11
	00 00		 mov	 edx, DWORD PTR tv82[rsp]
  001ac	89 54 24 30	 mov	 DWORD PTR [rsp+48], edx
  001b0	8b 94 24 f0 11
	00 00		 mov	 edx, DWORD PTR tv85[rsp]
  001b7	89 54 24 28	 mov	 DWORD PTR [rsp+40], edx
  001bb	8b 94 24 f4 11
	00 00		 mov	 edx, DWORD PTR tv88[rsp]
  001c2	89 54 24 20	 mov	 DWORD PTR [rsp+32], edx
  001c6	8b 94 24 f8 11
	00 00		 mov	 edx, DWORD PTR tv91[rsp]
  001cd	44 8b ca	 mov	 r9d, edx
  001d0	44 8b c0	 mov	 r8d, eax
  001d3	48 8b 94 cc 98
	11 00 00	 mov	 rdx, QWORD PTR fmtStr$[rsp+rcx*8]
  001db	48 8d 8c 24 30
	11 00 00	 lea	 rcx, QWORD PTR tmpBuf$[rsp]
  001e3	e8 00 00 00 00	 call	 sprintf
  001e8	89 84 24 d0 11
	00 00		 mov	 DWORD PTR len$[rsp], eax

; 235  : 
; 236  : 	i = 0; idx = 0;

  001ef	c7 84 24 c8 11
	00 00 00 00 00
	00		 mov	 DWORD PTR i$[rsp], 0
  001fa	c7 84 24 c4 11
	00 00 00 00 00
	00		 mov	 DWORD PTR idx$[rsp], 0
$LN2@DoWritePac:

; 237  : 	while(nPacketSize--) {

  00205	8b 84 24 48 12
	00 00		 mov	 eax, DWORD PTR nPacketSize$[rsp]
  0020c	89 84 24 fc 11
	00 00		 mov	 DWORD PTR tv134[rsp], eax
  00213	8b 84 24 48 12
	00 00		 mov	 eax, DWORD PTR nPacketSize$[rsp]
  0021a	ff c8		 dec	 eax
  0021c	89 84 24 48 12
	00 00		 mov	 DWORD PTR nPacketSize$[rsp], eax
  00223	83 bc 24 fc 11
	00 00 00	 cmp	 DWORD PTR tv134[rsp], 0
  0022b	74 70		 je	 SHORT $LN3@DoWritePac

; 238  : 		sprintf(&packetBuf[idx], "%02x ", szBuffer[i] & 0x0ff);

  0022d	48 63 84 24 c8
	11 00 00	 movsxd	 rax, DWORD PTR i$[rsp]
  00235	48 8b 8c 24 40
	12 00 00	 mov	 rcx, QWORD PTR szBuffer$[rsp]
  0023d	0f be 04 01	 movsx	 eax, BYTE PTR [rcx+rax]
  00241	25 ff 00 00 00	 and	 eax, 255		; 000000ffH
  00246	48 63 8c 24 c4
	11 00 00	 movsxd	 rcx, DWORD PTR idx$[rsp]
  0024e	48 8d 8c 0c 10
	01 00 00	 lea	 rcx, QWORD PTR packetBuf$[rsp+rcx]
  00256	44 8b c0	 mov	 r8d, eax
  00259	48 8d 15 00 00
	00 00		 lea	 rdx, OFFSET FLAT:$SG44380
  00260	e8 00 00 00 00	 call	 sprintf

; 239  : 		idx += 3; i++;

  00265	8b 84 24 c4 11
	00 00		 mov	 eax, DWORD PTR idx$[rsp]
  0026c	83 c0 03	 add	 eax, 3
  0026f	89 84 24 c4 11
	00 00		 mov	 DWORD PTR idx$[rsp], eax
  00276	8b 84 24 c8 11
	00 00		 mov	 eax, DWORD PTR i$[rsp]
  0027d	ff c0		 inc	 eax
  0027f	89 84 24 c8 11
	00 00		 mov	 DWORD PTR i$[rsp], eax

; 240  : 		if(nLCompare <= idx) break;

  00286	8b 84 24 c4 11
	00 00		 mov	 eax, DWORD PTR idx$[rsp]
  0028d	39 84 24 cc 11
	00 00		 cmp	 DWORD PTR nLCompare$[rsp], eax
  00294	7f 02		 jg	 SHORT $LN8@DoWritePac
  00296	eb 05		 jmp	 SHORT $LN3@DoWritePac
$LN8@DoWritePac:

; 241  : 	}

  00298	e9 68 ff ff ff	 jmp	 $LN2@DoWritePac
$LN3@DoWritePac:

; 242  :     _putLogQueue(tmpBuf, packetBuf, len + idx);

  0029d	8b 84 24 c4 11
	00 00		 mov	 eax, DWORD PTR idx$[rsp]
  002a4	8b 8c 24 d0 11
	00 00		 mov	 ecx, DWORD PTR len$[rsp]
  002ab	03 c8		 add	 ecx, eax
  002ad	8b c1		 mov	 eax, ecx
  002af	48 c7 44 24 20
	00 00 00 00	 mov	 QWORD PTR [rsp+32], 0
  002b8	44 8b c8	 mov	 r9d, eax
  002bb	4c 8d 84 24 10
	01 00 00	 lea	 r8, QWORD PTR packetBuf$[rsp]
  002c3	48 8d 94 24 30
	11 00 00	 lea	 rdx, QWORD PTR tmpBuf$[rsp]
  002cb	48 8b 8c 24 20
	12 00 00	 mov	 rcx, QWORD PTR this$[rsp]
  002d3	e8 00 00 00 00	 call	 ?_putLogQueue@CSTLogger@@AEAAXPEAD0H0@Z ; CSTLogger::_putLogQueue
  002d8	90		 npad	 1

; 243  : }

  002d9	48 8d 4c 24 70	 lea	 rcx, QWORD PTR curTm$[rsp]
  002de	e8 00 00 00 00	 call	 ??1CDateTime@@QEAA@XZ	; CDateTime::~CDateTime
$LN1@DoWritePac:
  002e3	48 8b cc	 mov	 rcx, rsp
  002e6	48 8d 15 00 00
	00 00		 lea	 rdx, OFFSET FLAT:?DoWritePacket@CSTLogger@@QEAAXHHHPEADH@Z$rtcFrameData
  002ed	e8 00 00 00 00	 call	 _RTC_CheckStackVars
  002f2	48 8b 8c 24 00
	12 00 00	 mov	 rcx, QWORD PTR __$ArrayPad$[rsp]
  002fa	48 33 cc	 xor	 rcx, rsp
  002fd	e8 00 00 00 00	 call	 __security_check_cookie
  00302	48 81 c4 10 12
	00 00		 add	 rsp, 4624		; 00001210H
  00309	5f		 pop	 rdi
  0030a	c3		 ret	 0
?DoWritePacket@CSTLogger@@QEAAXHHHPEADH@Z ENDP		; CSTLogger::DoWritePacket
_TEXT	ENDS
text$x	SEGMENT
curTm$ = 112
packetBuf$ = 272
tmpBuf$ = 4400
fmtStr$ = 4504
idx$ = 4548
i$ = 4552
nLCompare$ = 4556
len$ = 4560
$T7 = 4576
tv79 = 4584
tv82 = 4588
tv85 = 4592
tv88 = 4596
tv91 = 4600
tv134 = 4604
__$ArrayPad$ = 4608
this$ = 4640
nLevel$ = 4648
nKind$ = 4656
nSocket$ = 4664
szBuffer$ = 4672
nPacketSize$ = 4680
?dtor$0@?0??DoWritePacket@CSTLogger@@QEAAXHHHPEADH@Z@4HA PROC ; `CSTLogger::DoWritePacket'::`1'::dtor$0
  00000	48 89 4c 24 08	 mov	 QWORD PTR [rsp+8], rcx
  00005	48 89 54 24 10	 mov	 QWORD PTR [rsp+16], rdx
  0000a	55		 push	 rbp
  0000b	57		 push	 rdi
  0000c	48 83 ec 28	 sub	 rsp, 40			; 00000028H
  00010	48 8b ea	 mov	 rbp, rdx
  00013	48 8d 4d 70	 lea	 rcx, QWORD PTR curTm$[rbp]
  00017	e8 00 00 00 00	 call	 ??1CDateTime@@QEAA@XZ	; CDateTime::~CDateTime
  0001c	48 83 c4 28	 add	 rsp, 40			; 00000028H
  00020	5f		 pop	 rdi
  00021	5d		 pop	 rbp
  00022	c3		 ret	 0
?dtor$0@?0??DoWritePacket@CSTLogger@@QEAAXHHHPEADH@Z@4HA ENDP ; `CSTLogger::DoWritePacket'::`1'::dtor$0
text$x	ENDS
; Function compile flags: /Odtp /RTCsu
text$x	SEGMENT
curTm$ = 112
packetBuf$ = 272
tmpBuf$ = 4400
fmtStr$ = 4504
idx$ = 4548
i$ = 4552
nLCompare$ = 4556
len$ = 4560
$T7 = 4576
tv79 = 4584
tv82 = 4588
tv85 = 4592
tv88 = 4596
tv91 = 4600
tv134 = 4604
__$ArrayPad$ = 4608
this$ = 4640
nLevel$ = 4648
nKind$ = 4656
nSocket$ = 4664
szBuffer$ = 4672
nPacketSize$ = 4680
?dtor$0@?0??DoWritePacket@CSTLogger@@QEAAXHHHPEADH@Z@4HA PROC ; `CSTLogger::DoWritePacket'::`1'::dtor$0
  00000	48 89 4c 24 08	 mov	 QWORD PTR [rsp+8], rcx
  00005	48 89 54 24 10	 mov	 QWORD PTR [rsp+16], rdx
  0000a	55		 push	 rbp
  0000b	57		 push	 rdi
  0000c	48 83 ec 28	 sub	 rsp, 40			; 00000028H
  00010	48 8b ea	 mov	 rbp, rdx
  00013	48 8d 4d 70	 lea	 rcx, QWORD PTR curTm$[rbp]
  00017	e8 00 00 00 00	 call	 ??1CDateTime@@QEAA@XZ	; CDateTime::~CDateTime
  0001c	48 83 c4 28	 add	 rsp, 40			; 00000028H
  00020	5f		 pop	 rdi
  00021	5d		 pop	 rbp
  00022	c3		 ret	 0
?dtor$0@?0??DoWritePacket@CSTLogger@@QEAAXHHHPEADH@Z@4HA ENDP ; `CSTLogger::DoWritePacket'::`1'::dtor$0
text$x	ENDS
; Function compile flags: /Odtp /RTCsu
; File d:\newproject2\com\src\comstlogger.cpp
_TEXT	SEGMENT
pthid$ = 48
this$ = 80
?Start@CSTLogger@@QEAA_NXZ PROC				; CSTLogger::Start

; 192  : {

$LN5:
  00000	48 89 4c 24 08	 mov	 QWORD PTR [rsp+8], rcx
  00005	57		 push	 rdi
  00006	48 83 ec 40	 sub	 rsp, 64			; 00000040H
  0000a	48 8b fc	 mov	 rdi, rsp
  0000d	b9 10 00 00 00	 mov	 ecx, 16
  00012	b8 cc cc cc cc	 mov	 eax, -858993460		; ccccccccH
  00017	f3 ab		 rep stosd
  00019	48 8b 4c 24 50	 mov	 rcx, QWORD PTR [rsp+80]

; 193  : 	if(!(m_nFlag & IS_CREATE_THREAD)) {

  0001e	48 8b 44 24 50	 mov	 rax, QWORD PTR this$[rsp]
  00023	8b 40 38	 mov	 eax, DWORD PTR [rax+56]
  00026	83 e0 01	 and	 eax, 1
  00029	85 c0		 test	 eax, eax
  0002b	75 10		 jne	 SHORT $LN2@Start

; 194  : 		printf("CSTLogger::Start ERROR! IS_CREATE_LOGGER flag off");

  0002d	48 8d 0d 00 00
	00 00		 lea	 rcx, OFFSET FLAT:$SG44350
  00034	e8 00 00 00 00	 call	 printf

; 195  : 		return false;

  00039	32 c0		 xor	 al, al
  0003b	eb 46		 jmp	 SHORT $LN1@Start
$LN2@Start:

; 196  : 	}
; 197  : 
; 198  : 	THREAD_ID	pthid;
; 199  : 	// create Single Thread
; 200  : 	if (!THREAD_CREATE(&pthid, LogThread, this)) {

  0003d	48 c7 44 24 28
	00 00 00 00	 mov	 QWORD PTR [rsp+40], 0
  00046	c7 44 24 20 00
	00 00 00	 mov	 DWORD PTR [rsp+32], 0
  0004e	4c 8b 4c 24 50	 mov	 r9, QWORD PTR this$[rsp]
  00053	4c 8d 05 00 00
	00 00		 lea	 r8, OFFSET FLAT:?LogThread@CSTLogger@@SAKPEAX@Z ; CSTLogger::LogThread
  0005a	33 d2		 xor	 edx, edx
  0005c	33 c9		 xor	 ecx, ecx
  0005e	ff 15 00 00 00
	00		 call	 QWORD PTR __imp_CreateThread
  00064	48 89 44 24 30	 mov	 QWORD PTR pthid$[rsp], rax
  00069	48 83 7c 24 30
	00		 cmp	 QWORD PTR pthid$[rsp], 0
  0006f	75 10		 jne	 SHORT $LN3@Start

; 201  : 		printf("FAIL CREATE LogThread !!\n");

  00071	48 8d 0d 00 00
	00 00		 lea	 rcx, OFFSET FLAT:$SG44352
  00078	e8 00 00 00 00	 call	 printf

; 202  : 		return false;

  0007d	32 c0		 xor	 al, al
  0007f	eb 02		 jmp	 SHORT $LN1@Start
$LN3@Start:

; 203  : 	}
; 204  : 	//m_thCondLog.wait(-1, NULL);
; 205  : 	return true;

  00081	b0 01		 mov	 al, 1
$LN1@Start:

; 206  : }

  00083	48 83 c4 40	 add	 rsp, 64			; 00000040H
  00087	5f		 pop	 rdi
  00088	c3		 ret	 0
?Start@CSTLogger@@QEAA_NXZ ENDP				; CSTLogger::Start
_TEXT	ENDS
; Function compile flags: /Odtp /RTCsu
; File d:\newproject2\com\src\comstlogger.cpp
_TEXT	SEGMENT
curTm$ = 48
nLen$ = 184
$T4 = 200
$T5 = 208
$T6 = 216
$T7 = 224
$T8 = 232
tv150 = 240
__$ArrayPad$ = 248
this$ = 272
pLogDir$ = 280
pLogName$ = 288
nLogLevel$ = 296
?initCSLogger@CSTLogger@@QEAAXPEBD0H@Z PROC		; CSTLogger::initCSLogger

; 161  : {

$LN8:
  00000	44 89 4c 24 20	 mov	 DWORD PTR [rsp+32], r9d
  00005	4c 89 44 24 18	 mov	 QWORD PTR [rsp+24], r8
  0000a	48 89 54 24 10	 mov	 QWORD PTR [rsp+16], rdx
  0000f	48 89 4c 24 08	 mov	 QWORD PTR [rsp+8], rcx
  00014	57		 push	 rdi
  00015	48 81 ec 00 01
	00 00		 sub	 rsp, 256		; 00000100H
  0001c	48 8b fc	 mov	 rdi, rsp
  0001f	b9 40 00 00 00	 mov	 ecx, 64			; 00000040H
  00024	b8 cc cc cc cc	 mov	 eax, -858993460		; ccccccccH
  00029	f3 ab		 rep stosd
  0002b	48 8b 8c 24 10
	01 00 00	 mov	 rcx, QWORD PTR [rsp+272]
  00033	48 c7 84 24 e8
	00 00 00 fe ff
	ff ff		 mov	 QWORD PTR $T8[rsp], -2
  0003f	48 8b 05 00 00
	00 00		 mov	 rax, QWORD PTR __security_cookie
  00046	48 33 c4	 xor	 rax, rsp
  00049	48 89 84 24 f8
	00 00 00	 mov	 QWORD PTR __$ArrayPad$[rsp], rax

; 162  : 	if(!(m_nFlag & IS_CREATE_THREAD)) {

  00051	48 8b 84 24 10
	01 00 00	 mov	 rax, QWORD PTR this$[rsp]
  00059	8b 40 38	 mov	 eax, DWORD PTR [rax+56]
  0005c	83 e0 01	 and	 eax, 1
  0005f	85 c0		 test	 eax, eax
  00061	75 0c		 jne	 SHORT $LN2@initCSLogg

; 163  : 		printf("CSTLogger::initCSLogger ERROR! IS_CREATE_LOGGER flag off");

  00063	48 8d 0d 00 00
	00 00		 lea	 rcx, OFFSET FLAT:$SG44339
  0006a	e8 00 00 00 00	 call	 printf
$LN2@initCSLogg:

; 164  : 	}
; 165  : 	CDateTime curTm;

  0006f	48 8d 4c 24 30	 lea	 rcx, QWORD PTR curTm$[rsp]
  00074	e8 00 00 00 00	 call	 ??0CDateTime@@QEAA@XZ	; CDateTime::CDateTime
  00079	90		 npad	 1

; 166  : 	size_t nLen = _tcslen(pLogDir) + 1;

  0007a	48 8b 8c 24 18
	01 00 00	 mov	 rcx, QWORD PTR pLogDir$[rsp]
  00082	e8 00 00 00 00	 call	 strlen
  00087	48 ff c0	 inc	 rax
  0008a	48 89 84 24 b8
	00 00 00	 mov	 QWORD PTR nLen$[rsp], rax

; 167  : 
; 168  : 	m_nLogLevel = nLogLevel;

  00092	48 8b 84 24 10
	01 00 00	 mov	 rax, QWORD PTR this$[rsp]
  0009a	8b 8c 24 28 01
	00 00		 mov	 ecx, DWORD PTR nLogLevel$[rsp]
  000a1	89 48 24	 mov	 DWORD PTR [rax+36], ecx

; 169  : 
; 170  : 	// setup default Logger
; 171  : 	m_pLogDir = new TCHAR[nLen];

  000a4	48 8b 8c 24 b8
	00 00 00	 mov	 rcx, QWORD PTR nLen$[rsp]
  000ac	e8 00 00 00 00	 call	 ??_U@YAPEAX_K@Z		; operator new[]
  000b1	48 89 84 24 c8
	00 00 00	 mov	 QWORD PTR $T4[rsp], rax
  000b9	48 8b 84 24 10
	01 00 00	 mov	 rax, QWORD PTR this$[rsp]
  000c1	48 8b 8c 24 c8
	00 00 00	 mov	 rcx, QWORD PTR $T4[rsp]
  000c9	48 89 48 28	 mov	 QWORD PTR [rax+40], rcx

; 172  : 	memset(m_pLogDir, 0, nLen);

  000cd	4c 8b 84 24 b8
	00 00 00	 mov	 r8, QWORD PTR nLen$[rsp]
  000d5	33 d2		 xor	 edx, edx
  000d7	48 8b 84 24 10
	01 00 00	 mov	 rax, QWORD PTR this$[rsp]
  000df	48 8b 48 28	 mov	 rcx, QWORD PTR [rax+40]
  000e3	e8 00 00 00 00	 call	 memset

; 173  : 	_tcscpy(m_pLogDir, pLogDir);

  000e8	48 8b 94 24 18
	01 00 00	 mov	 rdx, QWORD PTR pLogDir$[rsp]
  000f0	48 8b 84 24 10
	01 00 00	 mov	 rax, QWORD PTR this$[rsp]
  000f8	48 8b 48 28	 mov	 rcx, QWORD PTR [rax+40]
  000fc	e8 00 00 00 00	 call	 strcpy

; 174  : 
; 175  : 	nLen = _tcslen(pLogName)+1;

  00101	48 8b 8c 24 20
	01 00 00	 mov	 rcx, QWORD PTR pLogName$[rsp]
  00109	e8 00 00 00 00	 call	 strlen
  0010e	48 ff c0	 inc	 rax
  00111	48 89 84 24 b8
	00 00 00	 mov	 QWORD PTR nLen$[rsp], rax

; 176  : 	m_pLogName = new TCHAR[nLen];

  00119	48 8b 8c 24 b8
	00 00 00	 mov	 rcx, QWORD PTR nLen$[rsp]
  00121	e8 00 00 00 00	 call	 ??_U@YAPEAX_K@Z		; operator new[]
  00126	48 89 84 24 d0
	00 00 00	 mov	 QWORD PTR $T5[rsp], rax
  0012e	48 8b 84 24 10
	01 00 00	 mov	 rax, QWORD PTR this$[rsp]
  00136	48 8b 8c 24 d0
	00 00 00	 mov	 rcx, QWORD PTR $T5[rsp]
  0013e	48 89 48 30	 mov	 QWORD PTR [rax+48], rcx

; 177  : 	memset(m_pLogName, 0, nLen);

  00142	4c 8b 84 24 b8
	00 00 00	 mov	 r8, QWORD PTR nLen$[rsp]
  0014a	33 d2		 xor	 edx, edx
  0014c	48 8b 84 24 10
	01 00 00	 mov	 rax, QWORD PTR this$[rsp]
  00154	48 8b 48 30	 mov	 rcx, QWORD PTR [rax+48]
  00158	e8 00 00 00 00	 call	 memset

; 178  : 	_tcscpy(m_pLogName, pLogName);

  0015d	48 8b 94 24 20
	01 00 00	 mov	 rdx, QWORD PTR pLogName$[rsp]
  00165	48 8b 84 24 10
	01 00 00	 mov	 rax, QWORD PTR this$[rsp]
  0016d	48 8b 48 30	 mov	 rcx, QWORD PTR [rax+48]
  00171	e8 00 00 00 00	 call	 strcpy

; 179  : 
; 180  : 	m_pLogger = new CLogger();

  00176	b9 28 00 00 00	 mov	 ecx, 40			; 00000028H
  0017b	e8 00 00 00 00	 call	 ??2@YAPEAX_K@Z		; operator new
  00180	48 89 84 24 e0
	00 00 00	 mov	 QWORD PTR $T7[rsp], rax
  00188	48 83 bc 24 e0
	00 00 00 00	 cmp	 QWORD PTR $T7[rsp], 0
  00191	74 29		 je	 SHORT $LN4@initCSLogg
  00193	ba 28 00 00 00	 mov	 edx, 40			; 00000028H
  00198	48 8b 8c 24 e0
	00 00 00	 mov	 rcx, QWORD PTR $T7[rsp]
  001a0	e8 00 00 00 00	 call	 ?__autoclassinit2@CLogger@@QEAAX_K@Z
  001a5	48 8b 8c 24 e0
	00 00 00	 mov	 rcx, QWORD PTR $T7[rsp]
  001ad	e8 00 00 00 00	 call	 ??0CLogger@@QEAA@XZ	; CLogger::CLogger
  001b2	48 89 84 24 f0
	00 00 00	 mov	 QWORD PTR tv150[rsp], rax
  001ba	eb 0c		 jmp	 SHORT $LN5@initCSLogg
$LN4@initCSLogg:
  001bc	48 c7 84 24 f0
	00 00 00 00 00
	00 00		 mov	 QWORD PTR tv150[rsp], 0
$LN5@initCSLogg:
  001c8	48 8b 84 24 f0
	00 00 00	 mov	 rax, QWORD PTR tv150[rsp]
  001d0	48 89 84 24 d8
	00 00 00	 mov	 QWORD PTR $T6[rsp], rax
  001d8	48 8b 84 24 10
	01 00 00	 mov	 rax, QWORD PTR this$[rsp]
  001e0	48 8b 8c 24 d8
	00 00 00	 mov	 rcx, QWORD PTR $T6[rsp]
  001e8	48 89 48 18	 mov	 QWORD PTR [rax+24], rcx

; 181  : 	m_pLogger->SetDateTimeFlag(0);

  001ec	33 d2		 xor	 edx, edx
  001ee	48 8b 84 24 10
	01 00 00	 mov	 rax, QWORD PTR this$[rsp]
  001f6	48 8b 48 18	 mov	 rcx, QWORD PTR [rax+24]
  001fa	e8 00 00 00 00	 call	 ?SetDateTimeFlag@CLogger@@QEAAXH@Z ; CLogger::SetDateTimeFlag

; 182  : 	myLoggerOpen(&curTm);

  001ff	48 8d 54 24 30	 lea	 rdx, QWORD PTR curTm$[rsp]
  00204	48 8b 8c 24 10
	01 00 00	 mov	 rcx, QWORD PTR this$[rsp]
  0020c	e8 00 00 00 00	 call	 ?myLoggerOpen@CSTLogger@@AEAAXPEAVCDateTime@@@Z ; CSTLogger::myLoggerOpen

; 183  : 
; 184  : 
; 185  : 	//printf("initCSLogger m_pLogDir[%s] m_pLogName[%s]\n", m_pLogDir, m_pLogName);
; 186  : 
; 187  : 	m_nFlag |= IS_CREATE_LOGGER;

  00211	48 8b 84 24 10
	01 00 00	 mov	 rax, QWORD PTR this$[rsp]
  00219	8b 40 38	 mov	 eax, DWORD PTR [rax+56]
  0021c	83 c8 02	 or	 eax, 2
  0021f	48 8b 8c 24 10
	01 00 00	 mov	 rcx, QWORD PTR this$[rsp]
  00227	89 41 38	 mov	 DWORD PTR [rcx+56], eax

; 188  : }

  0022a	48 8d 4c 24 30	 lea	 rcx, QWORD PTR curTm$[rsp]
  0022f	e8 00 00 00 00	 call	 ??1CDateTime@@QEAA@XZ	; CDateTime::~CDateTime
  00234	48 8b cc	 mov	 rcx, rsp
  00237	48 8d 15 00 00
	00 00		 lea	 rdx, OFFSET FLAT:?initCSLogger@CSTLogger@@QEAAXPEBD0H@Z$rtcFrameData
  0023e	e8 00 00 00 00	 call	 _RTC_CheckStackVars
  00243	48 8b 8c 24 f8
	00 00 00	 mov	 rcx, QWORD PTR __$ArrayPad$[rsp]
  0024b	48 33 cc	 xor	 rcx, rsp
  0024e	e8 00 00 00 00	 call	 __security_check_cookie
  00253	48 81 c4 00 01
	00 00		 add	 rsp, 256		; 00000100H
  0025a	5f		 pop	 rdi
  0025b	c3		 ret	 0
?initCSLogger@CSTLogger@@QEAAXPEBD0H@Z ENDP		; CSTLogger::initCSLogger
_TEXT	ENDS
text$x	SEGMENT
curTm$ = 48
nLen$ = 184
$T4 = 200
$T5 = 208
$T6 = 216
$T7 = 224
$T8 = 232
tv150 = 240
__$ArrayPad$ = 248
this$ = 272
pLogDir$ = 280
pLogName$ = 288
nLogLevel$ = 296
?dtor$0@?0??initCSLogger@CSTLogger@@QEAAXPEBD0H@Z@4HA PROC ; `CSTLogger::initCSLogger'::`1'::dtor$0
  00000	48 89 4c 24 08	 mov	 QWORD PTR [rsp+8], rcx
  00005	48 89 54 24 10	 mov	 QWORD PTR [rsp+16], rdx
  0000a	55		 push	 rbp
  0000b	57		 push	 rdi
  0000c	48 83 ec 28	 sub	 rsp, 40			; 00000028H
  00010	48 8b ea	 mov	 rbp, rdx
  00013	48 8d 4d 30	 lea	 rcx, QWORD PTR curTm$[rbp]
  00017	e8 00 00 00 00	 call	 ??1CDateTime@@QEAA@XZ	; CDateTime::~CDateTime
  0001c	48 83 c4 28	 add	 rsp, 40			; 00000028H
  00020	5f		 pop	 rdi
  00021	5d		 pop	 rbp
  00022	c3		 ret	 0
?dtor$0@?0??initCSLogger@CSTLogger@@QEAAXPEBD0H@Z@4HA ENDP ; `CSTLogger::initCSLogger'::`1'::dtor$0
curTm$ = 48
nLen$ = 184
$T4 = 200
$T5 = 208
$T6 = 216
$T7 = 224
$T8 = 232
tv150 = 240
__$ArrayPad$ = 248
this$ = 272
pLogDir$ = 280
pLogName$ = 288
nLogLevel$ = 296
?dtor$1@?0??initCSLogger@CSTLogger@@QEAAXPEBD0H@Z@4HA PROC ; `CSTLogger::initCSLogger'::`1'::dtor$1
  00023	48 89 4c 24 08	 mov	 QWORD PTR [rsp+8], rcx
  00028	48 89 54 24 10	 mov	 QWORD PTR [rsp+16], rdx
  0002d	55		 push	 rbp
  0002e	57		 push	 rdi
  0002f	48 83 ec 28	 sub	 rsp, 40			; 00000028H
  00033	48 8b ea	 mov	 rbp, rdx
  00036	ba 28 00 00 00	 mov	 edx, 40			; 00000028H
  0003b	48 8b 8d e0 00
	00 00		 mov	 rcx, QWORD PTR $T7[rbp]
  00042	e8 00 00 00 00	 call	 ??3@YAXPEAX_K@Z		; operator delete
  00047	48 83 c4 28	 add	 rsp, 40			; 00000028H
  0004b	5f		 pop	 rdi
  0004c	5d		 pop	 rbp
  0004d	c3		 ret	 0
?dtor$1@?0??initCSLogger@CSTLogger@@QEAAXPEBD0H@Z@4HA ENDP ; `CSTLogger::initCSLogger'::`1'::dtor$1
text$x	ENDS
; Function compile flags: /Odtp /RTCsu
text$x	SEGMENT
curTm$ = 48
nLen$ = 184
$T4 = 200
$T5 = 208
$T6 = 216
$T7 = 224
$T8 = 232
tv150 = 240
__$ArrayPad$ = 248
this$ = 272
pLogDir$ = 280
pLogName$ = 288
nLogLevel$ = 296
?dtor$0@?0??initCSLogger@CSTLogger@@QEAAXPEBD0H@Z@4HA PROC ; `CSTLogger::initCSLogger'::`1'::dtor$0
  00000	48 89 4c 24 08	 mov	 QWORD PTR [rsp+8], rcx
  00005	48 89 54 24 10	 mov	 QWORD PTR [rsp+16], rdx
  0000a	55		 push	 rbp
  0000b	57		 push	 rdi
  0000c	48 83 ec 28	 sub	 rsp, 40			; 00000028H
  00010	48 8b ea	 mov	 rbp, rdx
  00013	48 8d 4d 30	 lea	 rcx, QWORD PTR curTm$[rbp]
  00017	e8 00 00 00 00	 call	 ??1CDateTime@@QEAA@XZ	; CDateTime::~CDateTime
  0001c	48 83 c4 28	 add	 rsp, 40			; 00000028H
  00020	5f		 pop	 rdi
  00021	5d		 pop	 rbp
  00022	c3		 ret	 0
?dtor$0@?0??initCSLogger@CSTLogger@@QEAAXPEBD0H@Z@4HA ENDP ; `CSTLogger::initCSLogger'::`1'::dtor$0
text$x	ENDS
; Function compile flags: /Odtp /RTCsu
text$x	SEGMENT
curTm$ = 48
nLen$ = 184
$T4 = 200
$T5 = 208
$T6 = 216
$T7 = 224
$T8 = 232
tv150 = 240
__$ArrayPad$ = 248
this$ = 272
pLogDir$ = 280
pLogName$ = 288
nLogLevel$ = 296
?dtor$1@?0??initCSLogger@CSTLogger@@QEAAXPEBD0H@Z@4HA PROC ; `CSTLogger::initCSLogger'::`1'::dtor$1
  00023	48 89 4c 24 08	 mov	 QWORD PTR [rsp+8], rcx
  00028	48 89 54 24 10	 mov	 QWORD PTR [rsp+16], rdx
  0002d	55		 push	 rbp
  0002e	57		 push	 rdi
  0002f	48 83 ec 28	 sub	 rsp, 40			; 00000028H
  00033	48 8b ea	 mov	 rbp, rdx
  00036	ba 28 00 00 00	 mov	 edx, 40			; 00000028H
  0003b	48 8b 8d e0 00
	00 00		 mov	 rcx, QWORD PTR $T7[rbp]
  00042	e8 00 00 00 00	 call	 ??3@YAXPEAX_K@Z		; operator delete
  00047	48 83 c4 28	 add	 rsp, 40			; 00000028H
  0004b	5f		 pop	 rdi
  0004c	5d		 pop	 rbp
  0004d	c3		 ret	 0
?dtor$1@?0??initCSLogger@CSTLogger@@QEAAXPEBD0H@Z@4HA ENDP ; `CSTLogger::initCSLogger'::`1'::dtor$1
text$x	ENDS
; Function compile flags: /Odtp /RTCsu
; File d:\newproject2\com\src\comstlogger.cpp
_TEXT	SEGMENT
this$ = 48
nMax$ = 56
?init@CSTLogger@@QEAA_NH@Z PROC				; CSTLogger::init

; 139  : {

$LN5:
  00000	89 54 24 10	 mov	 DWORD PTR [rsp+16], edx
  00004	48 89 4c 24 08	 mov	 QWORD PTR [rsp+8], rcx
  00009	57		 push	 rdi
  0000a	48 83 ec 20	 sub	 rsp, 32			; 00000020H
  0000e	48 8b fc	 mov	 rdi, rsp
  00011	b9 08 00 00 00	 mov	 ecx, 8
  00016	b8 cc cc cc cc	 mov	 eax, -858993460		; ccccccccH
  0001b	f3 ab		 rep stosd
  0001d	48 8b 4c 24 30	 mov	 rcx, QWORD PTR [rsp+48]

; 140  : 	if (!(m_nFlag & IS_CREATE_THREAD)) {

  00022	48 8b 44 24 30	 mov	 rax, QWORD PTR this$[rsp]
  00027	8b 40 38	 mov	 eax, DWORD PTR [rax+56]
  0002a	83 e0 01	 and	 eax, 1
  0002d	85 c0		 test	 eax, eax
  0002f	75 10		 jne	 SHORT $LN2@init

; 141  : 		printf("CSTLogger::initMemory ERROR! IS_CREATE_LOGGER flag off");

  00031	48 8d 0d 00 00
	00 00		 lea	 rcx, OFFSET FLAT:$SG44319
  00038	e8 00 00 00 00	 call	 printf

; 142  : 		return false;

  0003d	32 c0		 xor	 al, al
  0003f	eb 71		 jmp	 SHORT $LN1@init
$LN2@init:

; 143  : 	}
; 144  : 	// setup LogQueue
; 145  : 	m_sLogQueue.nMax = nMax;

  00041	48 8b 44 24 30	 mov	 rax, QWORD PTR this$[rsp]
  00046	8b 4c 24 38	 mov	 ecx, DWORD PTR nMax$[rsp]
  0004a	89 48 58	 mov	 DWORD PTR [rax+88], ecx

; 146  : 	m_sLogQueue.nLast = 0;

  0004d	48 8b 44 24 30	 mov	 rax, QWORD PTR this$[rsp]
  00052	c7 40 50 00 00
	00 00		 mov	 DWORD PTR [rax+80], 0

; 147  : 	m_sLogQueue.nFront = 0;

  00059	48 8b 44 24 30	 mov	 rax, QWORD PTR this$[rsp]
  0005e	c7 40 54 00 00
	00 00		 mov	 DWORD PTR [rax+84], 0

; 148  : 
; 149  : 	m_sLogQueue.pList = (void **)calloc(nMax, sizeof(char *));

  00065	48 63 44 24 38	 movsxd	 rax, DWORD PTR nMax$[rsp]
  0006a	ba 08 00 00 00	 mov	 edx, 8
  0006f	48 8b c8	 mov	 rcx, rax
  00072	ff 15 00 00 00
	00		 call	 QWORD PTR __imp_calloc
  00078	48 8b 4c 24 30	 mov	 rcx, QWORD PTR this$[rsp]
  0007d	48 89 41 60	 mov	 QWORD PTR [rcx+96], rax

; 150  : 	if (!m_sLogQueue.pList) {

  00081	48 8b 44 24 30	 mov	 rax, QWORD PTR this$[rsp]
  00086	48 83 78 60 00	 cmp	 QWORD PTR [rax+96], 0
  0008b	75 10		 jne	 SHORT $LN3@init

; 151  : 		// LOG
; 152  : 		printf("CSTLogger::initMemory ERROR! m_sLogQueue.pList is NULL");

  0008d	48 8d 0d 00 00
	00 00		 lea	 rcx, OFFSET FLAT:$SG44321
  00094	e8 00 00 00 00	 call	 printf

; 153  : 		return false;

  00099	32 c0		 xor	 al, al
  0009b	eb 15		 jmp	 SHORT $LN1@init
$LN3@init:

; 154  : 	}
; 155  : 	m_nFlag |= (IS_ACTIVE_PUT_QUEUE | IS_ACTIVE_TIMEPROC_INTHREAD | IS_ACTIVE_DAYCHANGE_LOG);

  0009d	48 8b 44 24 30	 mov	 rax, QWORD PTR this$[rsp]
  000a2	8b 40 38	 mov	 eax, DWORD PTR [rax+56]
  000a5	83 c8 1c	 or	 eax, 28
  000a8	48 8b 4c 24 30	 mov	 rcx, QWORD PTR this$[rsp]
  000ad	89 41 38	 mov	 DWORD PTR [rcx+56], eax

; 156  : 	return true;

  000b0	b0 01		 mov	 al, 1
$LN1@init:

; 157  : }

  000b2	48 83 c4 20	 add	 rsp, 32			; 00000020H
  000b6	5f		 pop	 rdi
  000b7	c3		 ret	 0
?init@CSTLogger@@QEAA_NH@Z ENDP				; CSTLogger::init
_TEXT	ENDS
; Function compile flags: /Odtp /RTCsu
; File d:\newproject2\com\src\comstlogger.cpp
_TEXT	SEGMENT
szConf$ = 48
szKey$ = 168
i$ = 196
nMax$ = 200
nAdd$ = 204
tv186 = 216
tv191 = 220
tv196 = 224
__$ArrayPad$ = 232
this$ = 256
?initSystem@CSTLogger@@QEAA_NXZ PROC			; CSTLogger::initSystem

; 109  : {

$LN13:
  00000	48 89 4c 24 08	 mov	 QWORD PTR [rsp+8], rcx
  00005	57		 push	 rdi
  00006	48 81 ec f0 00
	00 00		 sub	 rsp, 240		; 000000f0H
  0000d	48 8b fc	 mov	 rdi, rsp
  00010	b9 3c 00 00 00	 mov	 ecx, 60			; 0000003cH
  00015	b8 cc cc cc cc	 mov	 eax, -858993460		; ccccccccH
  0001a	f3 ab		 rep stosd
  0001c	48 8b 8c 24 00
	01 00 00	 mov	 rcx, QWORD PTR [rsp+256]
  00024	48 8b 05 00 00
	00 00		 mov	 rax, QWORD PTR __security_cookie
  0002b	48 33 c4	 xor	 rax, rsp
  0002e	48 89 84 24 e8
	00 00 00	 mov	 QWORD PTR __$ArrayPad$[rsp], rax

; 110  : 	if (!CEnv::initSystem()) return false;

  00036	33 c9		 xor	 ecx, ecx
  00038	e8 00 00 00 00	 call	 ?initSystem@CEnv@@SAHPEAD@Z ; CEnv::initSystem
  0003d	85 c0		 test	 eax, eax
  0003f	75 07		 jne	 SHORT $LN11@initSystem
  00041	32 c0		 xor	 al, al
  00043	e9 25 02 00 00	 jmp	 $LN1@initSystem
$LN11@initSystem:

; 111  : 	STBufConf szConf;
; 112  : 	memset(&szConf, 0, sizeof(STBufConf));

  00048	41 b8 58 00 00
	00		 mov	 r8d, 88			; 00000058H
  0004e	33 d2		 xor	 edx, edx
  00050	48 8d 4c 24 30	 lea	 rcx, QWORD PTR szConf$[rsp]
  00055	e8 00 00 00 00	 call	 memset

; 113  : 
; 114  : 	char szKey[16];
; 115  : 	int i, nMax, nAdd;
; 116  : 	nMax = GetPrivateProfileInt("LOG", "LIST_MAX", 20, CEnv::getPathSystem());

  0005a	e8 00 00 00 00	 call	 ?getPathSystem@CEnv@@SAPEADXZ ; CEnv::getPathSystem
  0005f	4c 8b c8	 mov	 r9, rax
  00062	41 b8 14 00 00
	00		 mov	 r8d, 20
  00068	48 8d 15 00 00
	00 00		 lea	 rdx, OFFSET FLAT:$SG44304
  0006f	48 8d 0d 00 00
	00 00		 lea	 rcx, OFFSET FLAT:$SG44305
  00076	ff 15 00 00 00
	00		 call	 QWORD PTR __imp_GetPrivateProfileIntA
  0007c	89 84 24 c8 00
	00 00		 mov	 DWORD PTR nMax$[rsp], eax

; 117  : 	nAdd = nMax >> 1;

  00083	8b 84 24 c8 00
	00 00		 mov	 eax, DWORD PTR nMax$[rsp]
  0008a	d1 f8		 sar	 eax, 1
  0008c	89 84 24 cc 00
	00 00		 mov	 DWORD PTR nAdd$[rsp], eax

; 118  : 	for (i = IDX_BUF_4; i < IDX_BUF_16k; i++)

  00093	c7 84 24 c4 00
	00 00 02 00 00
	00		 mov	 DWORD PTR i$[rsp], 2
  0009e	eb 10		 jmp	 SHORT $LN4@initSystem
$LN2@initSystem:
  000a0	8b 84 24 c4 00
	00 00		 mov	 eax, DWORD PTR i$[rsp]
  000a7	ff c0		 inc	 eax
  000a9	89 84 24 c4 00
	00 00		 mov	 DWORD PTR i$[rsp], eax
$LN4@initSystem:
  000b0	83 bc 24 c4 00
	00 00 0e	 cmp	 DWORD PTR i$[rsp], 14
  000b8	7d 72		 jge	 SHORT $LN3@initSystem

; 119  : 	{
; 120  : 		sprintf(szKey, "IDX_BUF_%d", 1 << i);

  000ba	8b 84 24 c4 00
	00 00		 mov	 eax, DWORD PTR i$[rsp]
  000c1	b9 01 00 00 00	 mov	 ecx, 1
  000c6	89 8c 24 d8 00
	00 00		 mov	 DWORD PTR tv186[rsp], ecx
  000cd	0f b6 c8	 movzx	 ecx, al
  000d0	8b 84 24 d8 00
	00 00		 mov	 eax, DWORD PTR tv186[rsp]
  000d7	d3 e0		 shl	 eax, cl
  000d9	44 8b c0	 mov	 r8d, eax
  000dc	48 8d 15 00 00
	00 00		 lea	 rdx, OFFSET FLAT:$SG44306
  000e3	48 8d 8c 24 a8
	00 00 00	 lea	 rcx, QWORD PTR szKey$[rsp]
  000eb	e8 00 00 00 00	 call	 sprintf

; 121  : 		szConf.nMaxList[i] = GetPrivateProfileInt("MPOOL", szKey, 0, CEnv::getPathSystem()) + nAdd + 32;

  000f0	e8 00 00 00 00	 call	 ?getPathSystem@CEnv@@SAPEADXZ ; CEnv::getPathSystem
  000f5	4c 8b c8	 mov	 r9, rax
  000f8	45 33 c0	 xor	 r8d, r8d
  000fb	48 8d 94 24 a8
	00 00 00	 lea	 rdx, QWORD PTR szKey$[rsp]
  00103	48 8d 0d 00 00
	00 00		 lea	 rcx, OFFSET FLAT:$SG44307
  0010a	ff 15 00 00 00
	00		 call	 QWORD PTR __imp_GetPrivateProfileIntA
  00110	8b 8c 24 cc 00
	00 00		 mov	 ecx, DWORD PTR nAdd$[rsp]
  00117	8d 44 08 20	 lea	 eax, DWORD PTR [rax+rcx+32]
  0011b	48 63 8c 24 c4
	00 00 00	 movsxd	 rcx, DWORD PTR i$[rsp]
  00123	89 44 8c 30	 mov	 DWORD PTR szConf$[rsp+rcx*4], eax

; 122  : 	}

  00127	e9 74 ff ff ff	 jmp	 $LN2@initSystem
$LN3@initSystem:

; 123  : 	for (i = IDX_BUF_16k; i < IDX_BUF_64k; i++)

  0012c	c7 84 24 c4 00
	00 00 0e 00 00
	00		 mov	 DWORD PTR i$[rsp], 14
  00137	eb 10		 jmp	 SHORT $LN7@initSystem
$LN5@initSystem:
  00139	8b 84 24 c4 00
	00 00		 mov	 eax, DWORD PTR i$[rsp]
  00140	ff c0		 inc	 eax
  00142	89 84 24 c4 00
	00 00		 mov	 DWORD PTR i$[rsp], eax
$LN7@initSystem:
  00149	83 bc 24 c4 00
	00 00 10	 cmp	 DWORD PTR i$[rsp], 16
  00151	7d 6a		 jge	 SHORT $LN6@initSystem

; 124  : 	{
; 125  : 		sprintf(szKey, "IDX_BUF_%d", 1 << i);

  00153	8b 84 24 c4 00
	00 00		 mov	 eax, DWORD PTR i$[rsp]
  0015a	b9 01 00 00 00	 mov	 ecx, 1
  0015f	89 8c 24 dc 00
	00 00		 mov	 DWORD PTR tv191[rsp], ecx
  00166	0f b6 c8	 movzx	 ecx, al
  00169	8b 84 24 dc 00
	00 00		 mov	 eax, DWORD PTR tv191[rsp]
  00170	d3 e0		 shl	 eax, cl
  00172	44 8b c0	 mov	 r8d, eax
  00175	48 8d 15 00 00
	00 00		 lea	 rdx, OFFSET FLAT:$SG44308
  0017c	48 8d 8c 24 a8
	00 00 00	 lea	 rcx, QWORD PTR szKey$[rsp]
  00184	e8 00 00 00 00	 call	 sprintf

; 126  : 		szConf.nMaxList[i] = GetPrivateProfileInt("MPOOL", szKey, 0, CEnv::getPathSystem()) + 2;

  00189	e8 00 00 00 00	 call	 ?getPathSystem@CEnv@@SAPEADXZ ; CEnv::getPathSystem
  0018e	4c 8b c8	 mov	 r9, rax
  00191	45 33 c0	 xor	 r8d, r8d
  00194	48 8d 94 24 a8
	00 00 00	 lea	 rdx, QWORD PTR szKey$[rsp]
  0019c	48 8d 0d 00 00
	00 00		 lea	 rcx, OFFSET FLAT:$SG44309
  001a3	ff 15 00 00 00
	00		 call	 QWORD PTR __imp_GetPrivateProfileIntA
  001a9	83 c0 02	 add	 eax, 2
  001ac	48 63 8c 24 c4
	00 00 00	 movsxd	 rcx, DWORD PTR i$[rsp]
  001b4	89 44 8c 30	 mov	 DWORD PTR szConf$[rsp+rcx*4], eax

; 127  : 	}

  001b8	e9 7c ff ff ff	 jmp	 $LN5@initSystem
$LN6@initSystem:

; 128  : 	for (i = IDX_BUF_64k; i < IDX_BUF_MAX; i++)

  001bd	c7 84 24 c4 00
	00 00 10 00 00
	00		 mov	 DWORD PTR i$[rsp], 16
  001c8	eb 10		 jmp	 SHORT $LN10@initSystem
$LN8@initSystem:
  001ca	8b 84 24 c4 00
	00 00		 mov	 eax, DWORD PTR i$[rsp]
  001d1	ff c0		 inc	 eax
  001d3	89 84 24 c4 00
	00 00		 mov	 DWORD PTR i$[rsp], eax
$LN10@initSystem:
  001da	83 bc 24 c4 00
	00 00 16	 cmp	 DWORD PTR i$[rsp], 22
  001e2	7d 64		 jge	 SHORT $LN9@initSystem

; 129  : 	{
; 130  : 		sprintf(szKey, "IDX_BUF_%d", 1 << i);

  001e4	8b 84 24 c4 00
	00 00		 mov	 eax, DWORD PTR i$[rsp]
  001eb	b9 01 00 00 00	 mov	 ecx, 1
  001f0	89 8c 24 e0 00
	00 00		 mov	 DWORD PTR tv196[rsp], ecx
  001f7	0f b6 c8	 movzx	 ecx, al
  001fa	8b 84 24 e0 00
	00 00		 mov	 eax, DWORD PTR tv196[rsp]
  00201	d3 e0		 shl	 eax, cl
  00203	44 8b c0	 mov	 r8d, eax
  00206	48 8d 15 00 00
	00 00		 lea	 rdx, OFFSET FLAT:$SG44310
  0020d	48 8d 8c 24 a8
	00 00 00	 lea	 rcx, QWORD PTR szKey$[rsp]
  00215	e8 00 00 00 00	 call	 sprintf

; 131  : 		szConf.nMaxList[i] = GetPrivateProfileInt("MPOOL", szKey, 0, CEnv::getPathSystem());

  0021a	e8 00 00 00 00	 call	 ?getPathSystem@CEnv@@SAPEADXZ ; CEnv::getPathSystem
  0021f	4c 8b c8	 mov	 r9, rax
  00222	45 33 c0	 xor	 r8d, r8d
  00225	48 8d 94 24 a8
	00 00 00	 lea	 rdx, QWORD PTR szKey$[rsp]
  0022d	48 8d 0d 00 00
	00 00		 lea	 rcx, OFFSET FLAT:$SG44311
  00234	ff 15 00 00 00
	00		 call	 QWORD PTR __imp_GetPrivateProfileIntA
  0023a	48 63 8c 24 c4
	00 00 00	 movsxd	 rcx, DWORD PTR i$[rsp]
  00242	89 44 8c 30	 mov	 DWORD PTR szConf$[rsp+rcx*4], eax

; 132  : 	}

  00246	eb 82		 jmp	 SHORT $LN8@initSystem
$LN9@initSystem:

; 133  : 
; 134  : 	g_cMMgr.init(&szConf);

  00248	48 8d 54 24 30	 lea	 rdx, QWORD PTR szConf$[rsp]
  0024d	48 8d 0d 00 00
	00 00		 lea	 rcx, OFFSET FLAT:?g_cMMgr@@3VCMemManager@@A ; g_cMMgr
  00254	e8 00 00 00 00	 call	 ?init@CMemManager@@QEAAXPEAUSTBufConf@@@Z ; CMemManager::init

; 135  : 	return init(nMax);

  00259	8b 94 24 c8 00
	00 00		 mov	 edx, DWORD PTR nMax$[rsp]
  00260	48 8b 8c 24 00
	01 00 00	 mov	 rcx, QWORD PTR this$[rsp]
  00268	e8 00 00 00 00	 call	 ?init@CSTLogger@@QEAA_NH@Z ; CSTLogger::init
$LN1@initSystem:

; 136  : }

  0026d	48 8b f8	 mov	 rdi, rax
  00270	48 8b cc	 mov	 rcx, rsp
  00273	48 8d 15 00 00
	00 00		 lea	 rdx, OFFSET FLAT:?initSystem@CSTLogger@@QEAA_NXZ$rtcFrameData
  0027a	e8 00 00 00 00	 call	 _RTC_CheckStackVars
  0027f	48 8b c7	 mov	 rax, rdi
  00282	48 8b 8c 24 e8
	00 00 00	 mov	 rcx, QWORD PTR __$ArrayPad$[rsp]
  0028a	48 33 cc	 xor	 rcx, rsp
  0028d	e8 00 00 00 00	 call	 __security_check_cookie
  00292	48 81 c4 f0 00
	00 00		 add	 rsp, 240		; 000000f0H
  00299	5f		 pop	 rdi
  0029a	c3		 ret	 0
?initSystem@CSTLogger@@QEAA_NXZ ENDP			; CSTLogger::initSystem
_TEXT	ENDS
; Function compile flags: /Odtp /RTCsu
; File d:\newproject2\com\src\comstlogger.cpp
_TEXT	SEGMENT
$T1 = 32
$T2 = 40
$T3 = 48
$T4 = 56
tv86 = 64
this$ = 96
??1CSTLogger@@QEAA@XZ PROC				; CSTLogger::~CSTLogger

; 70   : {

$LN9:
  00000	48 89 4c 24 08	 mov	 QWORD PTR [rsp+8], rcx
  00005	57		 push	 rdi
  00006	48 83 ec 50	 sub	 rsp, 80			; 00000050H
  0000a	48 8b fc	 mov	 rdi, rsp
  0000d	b9 14 00 00 00	 mov	 ecx, 20
  00012	b8 cc cc cc cc	 mov	 eax, -858993460		; ccccccccH
  00017	f3 ab		 rep stosd
  00019	48 8b 4c 24 60	 mov	 rcx, QWORD PTR [rsp+96]

; 71   : 
; 72   :     m_bQuit = true;

  0001e	48 8b 44 24 60	 mov	 rax, QWORD PTR this$[rsp]
  00023	c6 40 20 01	 mov	 BYTE PTR [rax+32], 1

; 73   :     if(m_pLogDir)           {

  00027	48 8b 44 24 60	 mov	 rax, QWORD PTR this$[rsp]
  0002c	48 83 78 28 00	 cmp	 QWORD PTR [rax+40], 0
  00031	74 2a		 je	 SHORT $LN2@CSTLogger

; 74   :         delete m_pLogDir;

  00033	48 8b 44 24 60	 mov	 rax, QWORD PTR this$[rsp]
  00038	48 8b 40 28	 mov	 rax, QWORD PTR [rax+40]
  0003c	48 89 44 24 20	 mov	 QWORD PTR $T1[rsp], rax
  00041	ba 01 00 00 00	 mov	 edx, 1
  00046	48 8b 4c 24 20	 mov	 rcx, QWORD PTR $T1[rsp]
  0004b	e8 00 00 00 00	 call	 ??3@YAXPEAX_K@Z		; operator delete

; 75   :         m_pLogDir = NULL;

  00050	48 8b 44 24 60	 mov	 rax, QWORD PTR this$[rsp]
  00055	48 c7 40 28 00
	00 00 00	 mov	 QWORD PTR [rax+40], 0
$LN2@CSTLogger:

; 76   :     }
; 77   :     if(m_pLogName)          {

  0005d	48 8b 44 24 60	 mov	 rax, QWORD PTR this$[rsp]
  00062	48 83 78 30 00	 cmp	 QWORD PTR [rax+48], 0
  00067	74 2a		 je	 SHORT $LN3@CSTLogger

; 78   :         delete m_pLogName;

  00069	48 8b 44 24 60	 mov	 rax, QWORD PTR this$[rsp]
  0006e	48 8b 40 30	 mov	 rax, QWORD PTR [rax+48]
  00072	48 89 44 24 28	 mov	 QWORD PTR $T2[rsp], rax
  00077	ba 01 00 00 00	 mov	 edx, 1
  0007c	48 8b 4c 24 28	 mov	 rcx, QWORD PTR $T2[rsp]
  00081	e8 00 00 00 00	 call	 ??3@YAXPEAX_K@Z		; operator delete

; 79   :         m_pLogName = NULL;

  00086	48 8b 44 24 60	 mov	 rax, QWORD PTR this$[rsp]
  0008b	48 c7 40 30 00
	00 00 00	 mov	 QWORD PTR [rax+48], 0
$LN3@CSTLogger:

; 80   :     }
; 81   :     if(m_pLogger)			{

  00093	48 8b 44 24 60	 mov	 rax, QWORD PTR this$[rsp]
  00098	48 83 78 18 00	 cmp	 QWORD PTR [rax+24], 0
  0009d	74 4c		 je	 SHORT $LN4@CSTLogger

; 82   :         delete m_pLogger;

  0009f	48 8b 44 24 60	 mov	 rax, QWORD PTR this$[rsp]
  000a4	48 8b 40 18	 mov	 rax, QWORD PTR [rax+24]
  000a8	48 89 44 24 38	 mov	 QWORD PTR $T4[rsp], rax
  000ad	48 8b 44 24 38	 mov	 rax, QWORD PTR $T4[rsp]
  000b2	48 89 44 24 30	 mov	 QWORD PTR $T3[rsp], rax
  000b7	48 83 7c 24 30
	00		 cmp	 QWORD PTR $T3[rsp], 0
  000bd	74 16		 je	 SHORT $LN7@CSTLogger
  000bf	ba 01 00 00 00	 mov	 edx, 1
  000c4	48 8b 4c 24 30	 mov	 rcx, QWORD PTR $T3[rsp]
  000c9	e8 00 00 00 00	 call	 ??_GCLogger@@QEAAPEAXI@Z
  000ce	48 89 44 24 40	 mov	 QWORD PTR tv86[rsp], rax
  000d3	eb 09		 jmp	 SHORT $LN8@CSTLogger
$LN7@CSTLogger:
  000d5	48 c7 44 24 40
	00 00 00 00	 mov	 QWORD PTR tv86[rsp], 0
$LN8@CSTLogger:

; 83   :         m_pLogger = NULL;

  000de	48 8b 44 24 60	 mov	 rax, QWORD PTR this$[rsp]
  000e3	48 c7 40 18 00
	00 00 00	 mov	 QWORD PTR [rax+24], 0
$LN4@CSTLogger:

; 84   :     }
; 85   :     if(m_sLogQueue.pList)	{

  000eb	48 8b 44 24 60	 mov	 rax, QWORD PTR this$[rsp]
  000f0	48 83 78 60 00	 cmp	 QWORD PTR [rax+96], 0
  000f5	74 1c		 je	 SHORT $LN5@CSTLogger

; 86   :         free(m_sLogQueue.pList);

  000f7	48 8b 44 24 60	 mov	 rax, QWORD PTR this$[rsp]
  000fc	48 8b 48 60	 mov	 rcx, QWORD PTR [rax+96]
  00100	ff 15 00 00 00
	00		 call	 QWORD PTR __imp_free

; 87   :         m_sLogQueue.pList = NULL;

  00106	48 8b 44 24 60	 mov	 rax, QWORD PTR this$[rsp]
  0010b	48 c7 40 60 00
	00 00 00	 mov	 QWORD PTR [rax+96], 0
$LN5@CSTLogger:

; 88   :     }
; 89   : 	m_nFlag = 0;

  00113	48 8b 44 24 60	 mov	 rax, QWORD PTR this$[rsp]
  00118	c7 40 38 00 00
	00 00		 mov	 DWORD PTR [rax+56], 0

; 90   : }

  0011f	48 8b 44 24 60	 mov	 rax, QWORD PTR this$[rsp]
  00124	48 83 c0 68	 add	 rax, 104		; 00000068H
  00128	48 8b c8	 mov	 rcx, rax
  0012b	e8 00 00 00 00	 call	 ??1condition@win32@common@@UEAA@XZ ; common::win32::condition::~condition
  00130	48 83 c4 50	 add	 rsp, 80			; 00000050H
  00134	5f		 pop	 rdi
  00135	c3		 ret	 0
??1CSTLogger@@QEAA@XZ ENDP				; CSTLogger::~CSTLogger
_TEXT	ENDS
; Function compile flags: /Odtp /RTCsu
; File d:\newproject2\com\src\comstlogger.cpp
_TEXT	SEGMENT
$T1 = 32
this$ = 64
bAble$ = 72
??0CSTLogger@@QEAA@_N@Z PROC				; CSTLogger::CSTLogger

; 65   : {

$LN4:
  00000	88 54 24 10	 mov	 BYTE PTR [rsp+16], dl
  00004	48 89 4c 24 08	 mov	 QWORD PTR [rsp+8], rcx
  00009	57		 push	 rdi
  0000a	48 83 ec 30	 sub	 rsp, 48			; 00000030H
  0000e	48 8b fc	 mov	 rdi, rsp
  00011	b9 0c 00 00 00	 mov	 ecx, 12
  00016	b8 cc cc cc cc	 mov	 eax, -858993460		; ccccccccH
  0001b	f3 ab		 rep stosd
  0001d	48 8b 4c 24 40	 mov	 rcx, QWORD PTR [rsp+64]
  00022	48 c7 44 24 20
	fe ff ff ff	 mov	 QWORD PTR $T1[rsp], -2
  0002b	48 8b 44 24 40	 mov	 rax, QWORD PTR this$[rsp]
  00030	48 83 c0 68	 add	 rax, 104		; 00000068H
  00034	48 8b c8	 mov	 rcx, rax
  00037	e8 00 00 00 00	 call	 ??0condition@win32@common@@QEAA@XZ ; common::win32::condition::condition
  0003c	90		 npad	 1

; 66   : 	_initClass(bAble);

  0003d	0f b6 54 24 48	 movzx	 edx, BYTE PTR bAble$[rsp]
  00042	48 8b 4c 24 40	 mov	 rcx, QWORD PTR this$[rsp]
  00047	e8 00 00 00 00	 call	 ?_initClass@CSTLogger@@AEAAX_N@Z ; CSTLogger::_initClass
  0004c	90		 npad	 1

; 67   : }

  0004d	48 8b 44 24 40	 mov	 rax, QWORD PTR this$[rsp]
  00052	48 83 c4 30	 add	 rsp, 48			; 00000030H
  00056	5f		 pop	 rdi
  00057	c3		 ret	 0
??0CSTLogger@@QEAA@_N@Z ENDP				; CSTLogger::CSTLogger
_TEXT	ENDS
text$x	SEGMENT
$T1 = 32
this$ = 64
bAble$ = 72
?dtor$0@?0???0CSTLogger@@QEAA@_N@Z@4HA PROC		; `CSTLogger::CSTLogger'::`1'::dtor$0
  00000	48 89 4c 24 08	 mov	 QWORD PTR [rsp+8], rcx
  00005	48 89 54 24 10	 mov	 QWORD PTR [rsp+16], rdx
  0000a	55		 push	 rbp
  0000b	57		 push	 rdi
  0000c	48 83 ec 28	 sub	 rsp, 40			; 00000028H
  00010	48 8b ea	 mov	 rbp, rdx
  00013	48 8b 4d 40	 mov	 rcx, QWORD PTR this$[rbp]
  00017	48 83 c1 68	 add	 rcx, 104		; 00000068H
  0001b	e8 00 00 00 00	 call	 ??1condition@win32@common@@UEAA@XZ ; common::win32::condition::~condition
  00020	48 83 c4 28	 add	 rsp, 40			; 00000028H
  00024	5f		 pop	 rdi
  00025	5d		 pop	 rbp
  00026	c3		 ret	 0
?dtor$0@?0???0CSTLogger@@QEAA@_N@Z@4HA ENDP		; `CSTLogger::CSTLogger'::`1'::dtor$0
text$x	ENDS
; Function compile flags: /Odtp /RTCsu
text$x	SEGMENT
$T1 = 32
this$ = 64
bAble$ = 72
?dtor$0@?0???0CSTLogger@@QEAA@_N@Z@4HA PROC		; `CSTLogger::CSTLogger'::`1'::dtor$0
  00000	48 89 4c 24 08	 mov	 QWORD PTR [rsp+8], rcx
  00005	48 89 54 24 10	 mov	 QWORD PTR [rsp+16], rdx
  0000a	55		 push	 rbp
  0000b	57		 push	 rdi
  0000c	48 83 ec 28	 sub	 rsp, 40			; 00000028H
  00010	48 8b ea	 mov	 rbp, rdx
  00013	48 8b 4d 40	 mov	 rcx, QWORD PTR this$[rbp]
  00017	48 83 c1 68	 add	 rcx, 104		; 00000068H
  0001b	e8 00 00 00 00	 call	 ??1condition@win32@common@@UEAA@XZ ; common::win32::condition::~condition
  00020	48 83 c4 28	 add	 rsp, 40			; 00000028H
  00024	5f		 pop	 rdi
  00025	5d		 pop	 rbp
  00026	c3		 ret	 0
?dtor$0@?0???0CSTLogger@@QEAA@_N@Z@4HA ENDP		; `CSTLogger::CSTLogger'::`1'::dtor$0
text$x	ENDS
; Function compile flags: /Odtp /RTCsu
; File d:\newproject2\com\src\comstlogger.cpp
_TEXT	SEGMENT
$T1 = 32
this$ = 64
??0CSTLogger@@QEAA@XZ PROC				; CSTLogger::CSTLogger

; 61   : {

$LN4:
  00000	48 89 4c 24 08	 mov	 QWORD PTR [rsp+8], rcx
  00005	57		 push	 rdi
  00006	48 83 ec 30	 sub	 rsp, 48			; 00000030H
  0000a	48 8b fc	 mov	 rdi, rsp
  0000d	b9 0c 00 00 00	 mov	 ecx, 12
  00012	b8 cc cc cc cc	 mov	 eax, -858993460		; ccccccccH
  00017	f3 ab		 rep stosd
  00019	48 8b 4c 24 40	 mov	 rcx, QWORD PTR [rsp+64]
  0001e	48 c7 44 24 20
	fe ff ff ff	 mov	 QWORD PTR $T1[rsp], -2
  00027	48 8b 44 24 40	 mov	 rax, QWORD PTR this$[rsp]
  0002c	48 83 c0 68	 add	 rax, 104		; 00000068H
  00030	48 8b c8	 mov	 rcx, rax
  00033	e8 00 00 00 00	 call	 ??0condition@win32@common@@QEAA@XZ ; common::win32::condition::condition
  00038	90		 npad	 1

; 62   : 	_initClass(true);

  00039	b2 01		 mov	 dl, 1
  0003b	48 8b 4c 24 40	 mov	 rcx, QWORD PTR this$[rsp]
  00040	e8 00 00 00 00	 call	 ?_initClass@CSTLogger@@AEAAX_N@Z ; CSTLogger::_initClass
  00045	90		 npad	 1

; 63   : }

  00046	48 8b 44 24 40	 mov	 rax, QWORD PTR this$[rsp]
  0004b	48 83 c4 30	 add	 rsp, 48			; 00000030H
  0004f	5f		 pop	 rdi
  00050	c3		 ret	 0
??0CSTLogger@@QEAA@XZ ENDP				; CSTLogger::CSTLogger
_TEXT	ENDS
text$x	SEGMENT
$T1 = 32
this$ = 64
?dtor$0@?0???0CSTLogger@@QEAA@XZ@4HA PROC		; `CSTLogger::CSTLogger'::`1'::dtor$0
  00000	48 89 4c 24 08	 mov	 QWORD PTR [rsp+8], rcx
  00005	48 89 54 24 10	 mov	 QWORD PTR [rsp+16], rdx
  0000a	55		 push	 rbp
  0000b	57		 push	 rdi
  0000c	48 83 ec 28	 sub	 rsp, 40			; 00000028H
  00010	48 8b ea	 mov	 rbp, rdx
  00013	48 8b 4d 40	 mov	 rcx, QWORD PTR this$[rbp]
  00017	48 83 c1 68	 add	 rcx, 104		; 00000068H
  0001b	e8 00 00 00 00	 call	 ??1condition@win32@common@@UEAA@XZ ; common::win32::condition::~condition
  00020	48 83 c4 28	 add	 rsp, 40			; 00000028H
  00024	5f		 pop	 rdi
  00025	5d		 pop	 rbp
  00026	c3		 ret	 0
?dtor$0@?0???0CSTLogger@@QEAA@XZ@4HA ENDP		; `CSTLogger::CSTLogger'::`1'::dtor$0
text$x	ENDS
; Function compile flags: /Odtp /RTCsu
text$x	SEGMENT
$T1 = 32
this$ = 64
?dtor$0@?0???0CSTLogger@@QEAA@XZ@4HA PROC		; `CSTLogger::CSTLogger'::`1'::dtor$0
  00000	48 89 4c 24 08	 mov	 QWORD PTR [rsp+8], rcx
  00005	48 89 54 24 10	 mov	 QWORD PTR [rsp+16], rdx
  0000a	55		 push	 rbp
  0000b	57		 push	 rdi
  0000c	48 83 ec 28	 sub	 rsp, 40			; 00000028H
  00010	48 8b ea	 mov	 rbp, rdx
  00013	48 8b 4d 40	 mov	 rcx, QWORD PTR this$[rbp]
  00017	48 83 c1 68	 add	 rcx, 104		; 00000068H
  0001b	e8 00 00 00 00	 call	 ??1condition@win32@common@@UEAA@XZ ; common::win32::condition::~condition
  00020	48 83 c4 28	 add	 rsp, 40			; 00000028H
  00024	5f		 pop	 rdi
  00025	5d		 pop	 rbp
  00026	c3		 ret	 0
?dtor$0@?0???0CSTLogger@@QEAA@XZ@4HA ENDP		; `CSTLogger::CSTLogger'::`1'::dtor$0
text$x	ENDS
; Function compile flags: /Odtp /RTCsu
; File d:\newproject2\com\include\comdatetime.h
;	COMDAT ?Sec@CDateTime@@QEAAHXZ
_TEXT	SEGMENT
this$ = 16
?Sec@CDateTime@@QEAAHXZ PROC				; CDateTime::Sec, COMDAT

; 49   : 	inline int	Sec()		{ return m_tm.tm_sec; }

$LN3:
  00000	48 89 4c 24 08	 mov	 QWORD PTR [rsp+8], rcx
  00005	57		 push	 rdi
  00006	48 8b 44 24 10	 mov	 rax, QWORD PTR this$[rsp]
  0000b	8b 00		 mov	 eax, DWORD PTR [rax]
  0000d	5f		 pop	 rdi
  0000e	c3		 ret	 0
?Sec@CDateTime@@QEAAHXZ ENDP				; CDateTime::Sec
_TEXT	ENDS
; Function compile flags: /Odtp /RTCsu
; File d:\newproject2\com\include\comdatetime.h
;	COMDAT ?Minute@CDateTime@@QEAAHXZ
_TEXT	SEGMENT
this$ = 16
?Minute@CDateTime@@QEAAHXZ PROC				; CDateTime::Minute, COMDAT

; 48   : 	inline int	Minute()	{ return m_tm.tm_min; }

$LN3:
  00000	48 89 4c 24 08	 mov	 QWORD PTR [rsp+8], rcx
  00005	57		 push	 rdi
  00006	48 8b 44 24 10	 mov	 rax, QWORD PTR this$[rsp]
  0000b	8b 40 04	 mov	 eax, DWORD PTR [rax+4]
  0000e	5f		 pop	 rdi
  0000f	c3		 ret	 0
?Minute@CDateTime@@QEAAHXZ ENDP				; CDateTime::Minute
_TEXT	ENDS
; Function compile flags: /Odtp /RTCsu
; File d:\newproject2\com\include\comdatetime.h
;	COMDAT ?Hour@CDateTime@@QEAAHXZ
_TEXT	SEGMENT
this$ = 16
?Hour@CDateTime@@QEAAHXZ PROC				; CDateTime::Hour, COMDAT

; 47   : 	inline int	Hour()		{ return m_tm.tm_hour; }

$LN3:
  00000	48 89 4c 24 08	 mov	 QWORD PTR [rsp+8], rcx
  00005	57		 push	 rdi
  00006	48 8b 44 24 10	 mov	 rax, QWORD PTR this$[rsp]
  0000b	8b 40 08	 mov	 eax, DWORD PTR [rax+8]
  0000e	5f		 pop	 rdi
  0000f	c3		 ret	 0
?Hour@CDateTime@@QEAAHXZ ENDP				; CDateTime::Hour
_TEXT	ENDS
; Function compile flags: /Odtp /RTCsu
; File d:\newproject2\com\include\comdatetime.h
;	COMDAT ?Wday@CDateTime@@QEAAHXZ
_TEXT	SEGMENT
this$ = 16
?Wday@CDateTime@@QEAAHXZ PROC				; CDateTime::Wday, COMDAT

; 46   : 	inline int	Wday()		{ return m_tm.tm_wday; }

$LN3:
  00000	48 89 4c 24 08	 mov	 QWORD PTR [rsp+8], rcx
  00005	57		 push	 rdi
  00006	48 8b 44 24 10	 mov	 rax, QWORD PTR this$[rsp]
  0000b	8b 40 18	 mov	 eax, DWORD PTR [rax+24]
  0000e	5f		 pop	 rdi
  0000f	c3		 ret	 0
?Wday@CDateTime@@QEAAHXZ ENDP				; CDateTime::Wday
_TEXT	ENDS
; Function compile flags: /Odtp /RTCsu
; File d:\newproject2\com\include\comdatetime.h
;	COMDAT ?Mday@CDateTime@@QEAAHXZ
_TEXT	SEGMENT
this$ = 16
?Mday@CDateTime@@QEAAHXZ PROC				; CDateTime::Mday, COMDAT

; 45   : 	inline int	Mday()		{ return m_tm.tm_mday; }

$LN3:
  00000	48 89 4c 24 08	 mov	 QWORD PTR [rsp+8], rcx
  00005	57		 push	 rdi
  00006	48 8b 44 24 10	 mov	 rax, QWORD PTR this$[rsp]
  0000b	8b 40 0c	 mov	 eax, DWORD PTR [rax+12]
  0000e	5f		 pop	 rdi
  0000f	c3		 ret	 0
?Mday@CDateTime@@QEAAHXZ ENDP				; CDateTime::Mday
_TEXT	ENDS
; Function compile flags: /Odtp /RTCsu
; File d:\newproject2\com\include\comdatetime.h
;	COMDAT ?Month@CDateTime@@QEAAHXZ
_TEXT	SEGMENT
this$ = 16
?Month@CDateTime@@QEAAHXZ PROC				; CDateTime::Month, COMDAT

; 44   : 	inline int	Month()		{ return m_tm.tm_mon + 1; }

$LN3:
  00000	48 89 4c 24 08	 mov	 QWORD PTR [rsp+8], rcx
  00005	57		 push	 rdi
  00006	48 8b 44 24 10	 mov	 rax, QWORD PTR this$[rsp]
  0000b	8b 40 10	 mov	 eax, DWORD PTR [rax+16]
  0000e	ff c0		 inc	 eax
  00010	5f		 pop	 rdi
  00011	c3		 ret	 0
?Month@CDateTime@@QEAAHXZ ENDP				; CDateTime::Month
_TEXT	ENDS
; Function compile flags: /Odtp /RTCsu
; File d:\newproject2\com\include\comdatetime.h
;	COMDAT ?Year@CDateTime@@QEAAHXZ
_TEXT	SEGMENT
this$ = 16
?Year@CDateTime@@QEAAHXZ PROC				; CDateTime::Year, COMDAT

; 43   : 	inline int	Year()		{ return m_tm.tm_year + 1900; }

$LN3:
  00000	48 89 4c 24 08	 mov	 QWORD PTR [rsp+8], rcx
  00005	57		 push	 rdi
  00006	48 8b 44 24 10	 mov	 rax, QWORD PTR this$[rsp]
  0000b	8b 40 14	 mov	 eax, DWORD PTR [rax+20]
  0000e	05 6c 07 00 00	 add	 eax, 1900		; 0000076cH
  00013	5f		 pop	 rdi
  00014	c3		 ret	 0
?Year@CDateTime@@QEAAHXZ ENDP				; CDateTime::Year
_TEXT	ENDS
; Function compile flags: /Odtp /RTCsu
; File d:\newproject2\com\include\comtypes.h
;	COMDAT ?front@StCOMQueue@@QEAAPEAXXZ
_TEXT	SEGMENT
this$ = 16
?front@StCOMQueue@@QEAAPEAXXZ PROC			; StCOMQueue::front, COMDAT

; 229  : 	inline void * front()				{ return pList[nFront]; } // single thread (No Lock required)

$LN3:
  00000	48 89 4c 24 08	 mov	 QWORD PTR [rsp+8], rcx
  00005	57		 push	 rdi
  00006	48 8b 44 24 10	 mov	 rax, QWORD PTR this$[rsp]
  0000b	48 63 40 04	 movsxd	 rax, DWORD PTR [rax+4]
  0000f	48 8b 4c 24 10	 mov	 rcx, QWORD PTR this$[rsp]
  00014	48 8b 49 10	 mov	 rcx, QWORD PTR [rcx+16]
  00018	48 8b 04 c1	 mov	 rax, QWORD PTR [rcx+rax*8]
  0001c	5f		 pop	 rdi
  0001d	c3		 ret	 0
?front@StCOMQueue@@QEAAPEAXXZ ENDP			; StCOMQueue::front
_TEXT	ENDS
; Function compile flags: /Odtp /RTCsu
; File d:\newproject2\com\include\comtypes.h
;	COMDAT ?isFull@StCOMQueue@@QEAA_NXZ
_TEXT	SEGMENT
tv68 = 32
this$ = 64
?isFull@StCOMQueue@@QEAA_NXZ PROC			; StCOMQueue::isFull, COMDAT

; 228  : 	inline bool isFull()				{ return (nMax == size()); }

$LN5:
  00000	48 89 4c 24 08	 mov	 QWORD PTR [rsp+8], rcx
  00005	57		 push	 rdi
  00006	48 83 ec 30	 sub	 rsp, 48			; 00000030H
  0000a	48 8b fc	 mov	 rdi, rsp
  0000d	b9 0c 00 00 00	 mov	 ecx, 12
  00012	b8 cc cc cc cc	 mov	 eax, -858993460		; ccccccccH
  00017	f3 ab		 rep stosd
  00019	48 8b 4c 24 40	 mov	 rcx, QWORD PTR [rsp+64]
  0001e	48 8b 4c 24 40	 mov	 rcx, QWORD PTR this$[rsp]
  00023	e8 00 00 00 00	 call	 ?size@StCOMQueue@@QEAAHXZ ; StCOMQueue::size
  00028	48 8b 4c 24 40	 mov	 rcx, QWORD PTR this$[rsp]
  0002d	39 41 08	 cmp	 DWORD PTR [rcx+8], eax
  00030	75 0a		 jne	 SHORT $LN3@isFull
  00032	c7 44 24 20 01
	00 00 00	 mov	 DWORD PTR tv68[rsp], 1
  0003a	eb 08		 jmp	 SHORT $LN4@isFull
$LN3@isFull:
  0003c	c7 44 24 20 00
	00 00 00	 mov	 DWORD PTR tv68[rsp], 0
$LN4@isFull:
  00044	0f b6 44 24 20	 movzx	 eax, BYTE PTR tv68[rsp]
  00049	48 83 c4 30	 add	 rsp, 48			; 00000030H
  0004d	5f		 pop	 rdi
  0004e	c3		 ret	 0
?isFull@StCOMQueue@@QEAA_NXZ ENDP			; StCOMQueue::isFull
_TEXT	ENDS
; Function compile flags: /Odtp /RTCsu
; File d:\newproject2\com\include\comtypes.h
;	COMDAT ?push@StCOMQueue@@QEAAXPEAX@Z
_TEXT	SEGMENT
this$ = 16
pData$ = 24
?push@StCOMQueue@@QEAAXPEAX@Z PROC			; StCOMQueue::push, COMDAT

; 227  : 	inline void push(void *pData)		{ pList[nLast] = pData; nLast++; if(nLast==nMax) nLast=0; } // multi thread (Lock required)

$LN4:
  00000	48 89 54 24 10	 mov	 QWORD PTR [rsp+16], rdx
  00005	48 89 4c 24 08	 mov	 QWORD PTR [rsp+8], rcx
  0000a	57		 push	 rdi
  0000b	48 8b 44 24 10	 mov	 rax, QWORD PTR this$[rsp]
  00010	48 63 00	 movsxd	 rax, DWORD PTR [rax]
  00013	48 8b 4c 24 10	 mov	 rcx, QWORD PTR this$[rsp]
  00018	48 8b 49 10	 mov	 rcx, QWORD PTR [rcx+16]
  0001c	48 8b 54 24 18	 mov	 rdx, QWORD PTR pData$[rsp]
  00021	48 89 14 c1	 mov	 QWORD PTR [rcx+rax*8], rdx
  00025	48 8b 44 24 10	 mov	 rax, QWORD PTR this$[rsp]
  0002a	8b 00		 mov	 eax, DWORD PTR [rax]
  0002c	ff c0		 inc	 eax
  0002e	48 8b 4c 24 10	 mov	 rcx, QWORD PTR this$[rsp]
  00033	89 01		 mov	 DWORD PTR [rcx], eax
  00035	48 8b 44 24 10	 mov	 rax, QWORD PTR this$[rsp]
  0003a	48 8b 4c 24 10	 mov	 rcx, QWORD PTR this$[rsp]
  0003f	8b 49 08	 mov	 ecx, DWORD PTR [rcx+8]
  00042	39 08		 cmp	 DWORD PTR [rax], ecx
  00044	75 0b		 jne	 SHORT $LN2@push
  00046	48 8b 44 24 10	 mov	 rax, QWORD PTR this$[rsp]
  0004b	c7 00 00 00 00
	00		 mov	 DWORD PTR [rax], 0
$LN2@push:
  00051	5f		 pop	 rdi
  00052	c3		 ret	 0
?push@StCOMQueue@@QEAAXPEAX@Z ENDP			; StCOMQueue::push
_TEXT	ENDS
; Function compile flags: /Odtp /RTCsu
; File d:\newproject2\com\include\comtypes.h
;	COMDAT ?pop@StCOMQueue@@QEAAXXZ
_TEXT	SEGMENT
this$ = 16
?pop@StCOMQueue@@QEAAXXZ PROC				; StCOMQueue::pop, COMDAT

; 226  : 	inline void pop()					{ pList[nFront] = NULL; nFront++; if(nFront==nMax) nFront=0; } // single thread (No Lock required)

$LN4:
  00000	48 89 4c 24 08	 mov	 QWORD PTR [rsp+8], rcx
  00005	57		 push	 rdi
  00006	48 8b 44 24 10	 mov	 rax, QWORD PTR this$[rsp]
  0000b	48 63 40 04	 movsxd	 rax, DWORD PTR [rax+4]
  0000f	48 8b 4c 24 10	 mov	 rcx, QWORD PTR this$[rsp]
  00014	48 8b 49 10	 mov	 rcx, QWORD PTR [rcx+16]
  00018	48 c7 04 c1 00
	00 00 00	 mov	 QWORD PTR [rcx+rax*8], 0
  00020	48 8b 44 24 10	 mov	 rax, QWORD PTR this$[rsp]
  00025	8b 40 04	 mov	 eax, DWORD PTR [rax+4]
  00028	ff c0		 inc	 eax
  0002a	48 8b 4c 24 10	 mov	 rcx, QWORD PTR this$[rsp]
  0002f	89 41 04	 mov	 DWORD PTR [rcx+4], eax
  00032	48 8b 44 24 10	 mov	 rax, QWORD PTR this$[rsp]
  00037	48 8b 4c 24 10	 mov	 rcx, QWORD PTR this$[rsp]
  0003c	8b 49 08	 mov	 ecx, DWORD PTR [rcx+8]
  0003f	39 48 04	 cmp	 DWORD PTR [rax+4], ecx
  00042	75 0c		 jne	 SHORT $LN2@pop
  00044	48 8b 44 24 10	 mov	 rax, QWORD PTR this$[rsp]
  00049	c7 40 04 00 00
	00 00		 mov	 DWORD PTR [rax+4], 0
$LN2@pop:
  00050	5f		 pop	 rdi
  00051	c3		 ret	 0
?pop@StCOMQueue@@QEAAXXZ ENDP				; StCOMQueue::pop
_TEXT	ENDS
; Function compile flags: /Odtp /RTCsu
; File d:\newproject2\com\include\comtypes.h
;	COMDAT ?size@StCOMQueue@@QEAAHXZ
_TEXT	SEGMENT
res$ = 0
this$ = 32
?size@StCOMQueue@@QEAAHXZ PROC				; StCOMQueue::size, COMDAT

; 225  : 	inline int size() { int res = nLast - nFront; if (res < 0) return -res; return res; } // single thread (No Lock required)

$LN4:
  00000	48 89 4c 24 08	 mov	 QWORD PTR [rsp+8], rcx
  00005	57		 push	 rdi
  00006	48 83 ec 10	 sub	 rsp, 16
  0000a	48 8b fc	 mov	 rdi, rsp
  0000d	b9 04 00 00 00	 mov	 ecx, 4
  00012	b8 cc cc cc cc	 mov	 eax, -858993460		; ccccccccH
  00017	f3 ab		 rep stosd
  00019	48 8b 4c 24 20	 mov	 rcx, QWORD PTR [rsp+32]
  0001e	48 8b 44 24 20	 mov	 rax, QWORD PTR this$[rsp]
  00023	48 8b 4c 24 20	 mov	 rcx, QWORD PTR this$[rsp]
  00028	8b 49 04	 mov	 ecx, DWORD PTR [rcx+4]
  0002b	8b 00		 mov	 eax, DWORD PTR [rax]
  0002d	2b c1		 sub	 eax, ecx
  0002f	89 04 24	 mov	 DWORD PTR res$[rsp], eax
  00032	83 3c 24 00	 cmp	 DWORD PTR res$[rsp], 0
  00036	7d 07		 jge	 SHORT $LN2@size
  00038	8b 04 24	 mov	 eax, DWORD PTR res$[rsp]
  0003b	f7 d8		 neg	 eax
  0003d	eb 03		 jmp	 SHORT $LN1@size
$LN2@size:
  0003f	8b 04 24	 mov	 eax, DWORD PTR res$[rsp]
$LN1@size:
  00042	48 83 c4 10	 add	 rsp, 16
  00046	5f		 pop	 rdi
  00047	c3		 ret	 0
?size@StCOMQueue@@QEAAHXZ ENDP				; StCOMQueue::size
_TEXT	ENDS
; Function compile flags: /Odtp /RTCsu
; File d:\newproject2\com\include\com\win32\win32_mtsync.h
;	COMDAT ??1win_atomic@win32@common@@QEAA@XZ
_TEXT	SEGMENT
this$ = 16
??1win_atomic@win32@common@@QEAA@XZ PROC		; common::win32::win_atomic::~win_atomic, COMDAT

; 132  : 	~win_atomic() {}

$LN3:
  00000	48 89 4c 24 08	 mov	 QWORD PTR [rsp+8], rcx
  00005	57		 push	 rdi
  00006	5f		 pop	 rdi
  00007	c3		 ret	 0
??1win_atomic@win32@common@@QEAA@XZ ENDP		; common::win32::win_atomic::~win_atomic
_TEXT	ENDS
; Function compile flags: /Odtp /RTCsu
; File d:\newproject2\com\include\com\win32\win32_mtsync.h
;	COMDAT ??0win_atomic@win32@common@@QEAA@XZ
_TEXT	SEGMENT
this$ = 16
??0win_atomic@win32@common@@QEAA@XZ PROC		; common::win32::win_atomic::win_atomic, COMDAT

; 131  : 	win_atomic() {m_count = 0;}

$LN3:
  00000	48 89 4c 24 08	 mov	 QWORD PTR [rsp+8], rcx
  00005	57		 push	 rdi
  00006	48 8b 44 24 10	 mov	 rax, QWORD PTR this$[rsp]
  0000b	c7 00 00 00 00
	00		 mov	 DWORD PTR [rax], 0
  00011	48 8b 44 24 10	 mov	 rax, QWORD PTR this$[rsp]
  00016	5f		 pop	 rdi
  00017	c3		 ret	 0
??0win_atomic@win32@common@@QEAA@XZ ENDP		; common::win32::win_atomic::win_atomic
_TEXT	ENDS
; Function compile flags: /Odtp /RTCsu
;	COMDAT ??_Gcondition@win32@common@@UEAAPEAXI@Z
_TEXT	SEGMENT
this$ = 48
__flags$ = 56
??_Gcondition@win32@common@@UEAAPEAXI@Z PROC		; common::win32::condition::`scalar deleting destructor', COMDAT
$LN4:
  00000	89 54 24 10	 mov	 DWORD PTR [rsp+16], edx
  00004	48 89 4c 24 08	 mov	 QWORD PTR [rsp+8], rcx
  00009	57		 push	 rdi
  0000a	48 83 ec 20	 sub	 rsp, 32			; 00000020H
  0000e	48 8b fc	 mov	 rdi, rsp
  00011	b9 08 00 00 00	 mov	 ecx, 8
  00016	b8 cc cc cc cc	 mov	 eax, -858993460		; ccccccccH
  0001b	f3 ab		 rep stosd
  0001d	48 8b 4c 24 30	 mov	 rcx, QWORD PTR [rsp+48]
  00022	48 8b 4c 24 30	 mov	 rcx, QWORD PTR this$[rsp]
  00027	e8 00 00 00 00	 call	 ??1condition@win32@common@@UEAA@XZ ; common::win32::condition::~condition
  0002c	8b 44 24 38	 mov	 eax, DWORD PTR __flags$[rsp]
  00030	83 e0 01	 and	 eax, 1
  00033	85 c0		 test	 eax, eax
  00035	74 0f		 je	 SHORT $LN2@scalar
  00037	ba 10 00 00 00	 mov	 edx, 16
  0003c	48 8b 4c 24 30	 mov	 rcx, QWORD PTR this$[rsp]
  00041	e8 00 00 00 00	 call	 ??3@YAXPEAX_K@Z		; operator delete
$LN2@scalar:
  00046	48 8b 44 24 30	 mov	 rax, QWORD PTR this$[rsp]
  0004b	48 83 c4 20	 add	 rsp, 32			; 00000020H
  0004f	5f		 pop	 rdi
  00050	c3		 ret	 0
??_Gcondition@win32@common@@UEAAPEAXI@Z ENDP		; common::win32::condition::`scalar deleting destructor'
_TEXT	ENDS
; Function compile flags: /Odtp /RTCsu
; File d:\newproject2\com\include\com\win32\win32_mtsync.h
;	COMDAT ?wait@condition@win32@common@@QEAA_NHPEAVcritical_section@23@@Z
_TEXT	SEGMENT
timeout$ = 32
rv$ = 36
tv65 = 40
tv80 = 44
this$ = 64
milliseconds$ = 72
p$ = 80
?wait@condition@win32@common@@QEAA_NHPEAVcritical_section@23@@Z PROC ; common::win32::condition::wait, COMDAT

; 115  : 	  {

$LN9:
  00000	4c 89 44 24 18	 mov	 QWORD PTR [rsp+24], r8
  00005	89 54 24 10	 mov	 DWORD PTR [rsp+16], edx
  00009	48 89 4c 24 08	 mov	 QWORD PTR [rsp+8], rcx
  0000e	57		 push	 rdi
  0000f	48 83 ec 30	 sub	 rsp, 48			; 00000030H
  00013	48 8b fc	 mov	 rdi, rsp
  00016	b9 0c 00 00 00	 mov	 ecx, 12
  0001b	b8 cc cc cc cc	 mov	 eax, -858993460		; ccccccccH
  00020	f3 ab		 rep stosd
  00022	48 8b 4c 24 40	 mov	 rcx, QWORD PTR [rsp+64]

; 116  : 			DWORD timeout = milliseconds < 0 ? INFINITE : milliseconds;

  00027	83 7c 24 48 00	 cmp	 DWORD PTR milliseconds$[rsp], 0
  0002c	7d 0a		 jge	 SHORT $LN5@wait
  0002e	c7 44 24 28 ff
	ff ff ff	 mov	 DWORD PTR tv65[rsp], -1	; ffffffffH
  00036	eb 08		 jmp	 SHORT $LN6@wait
$LN5@wait:
  00038	8b 44 24 48	 mov	 eax, DWORD PTR milliseconds$[rsp]
  0003c	89 44 24 28	 mov	 DWORD PTR tv65[rsp], eax
$LN6@wait:
  00040	8b 44 24 28	 mov	 eax, DWORD PTR tv65[rsp]
  00044	89 44 24 20	 mov	 DWORD PTR timeout$[rsp], eax

; 117  : 			if(p) p->enter();

  00048	48 83 7c 24 50
	00		 cmp	 QWORD PTR p$[rsp], 0
  0004e	74 12		 je	 SHORT $LN2@wait
  00050	48 8b 44 24 50	 mov	 rax, QWORD PTR p$[rsp]
  00055	48 8b 00	 mov	 rax, QWORD PTR [rax]
  00058	b2 01		 mov	 dl, 1
  0005a	48 8b 4c 24 50	 mov	 rcx, QWORD PTR p$[rsp]
  0005f	ff 50 08	 call	 QWORD PTR [rax+8]
$LN2@wait:

; 118  : 			bool rv = WaitForSingleObject(m_event, timeout) == WAIT_OBJECT_0;

  00062	8b 54 24 20	 mov	 edx, DWORD PTR timeout$[rsp]
  00066	48 8b 44 24 40	 mov	 rax, QWORD PTR this$[rsp]
  0006b	48 8b 48 08	 mov	 rcx, QWORD PTR [rax+8]
  0006f	ff 15 00 00 00
	00		 call	 QWORD PTR __imp_WaitForSingleObject
  00075	85 c0		 test	 eax, eax
  00077	75 0a		 jne	 SHORT $LN7@wait
  00079	c7 44 24 2c 01
	00 00 00	 mov	 DWORD PTR tv80[rsp], 1
  00081	eb 08		 jmp	 SHORT $LN8@wait
$LN7@wait:
  00083	c7 44 24 2c 00
	00 00 00	 mov	 DWORD PTR tv80[rsp], 0
$LN8@wait:
  0008b	0f b6 44 24 2c	 movzx	 eax, BYTE PTR tv80[rsp]
  00090	88 44 24 24	 mov	 BYTE PTR rv$[rsp], al

; 119  : 			ResetEvent(m_event);

  00094	48 8b 44 24 40	 mov	 rax, QWORD PTR this$[rsp]
  00099	48 8b 48 08	 mov	 rcx, QWORD PTR [rax+8]
  0009d	ff 15 00 00 00
	00		 call	 QWORD PTR __imp_ResetEvent

; 120  : 			if(p) p->leave();

  000a3	48 83 7c 24 50
	00		 cmp	 QWORD PTR p$[rsp], 0
  000a9	74 10		 je	 SHORT $LN3@wait
  000ab	48 8b 44 24 50	 mov	 rax, QWORD PTR p$[rsp]
  000b0	48 8b 00	 mov	 rax, QWORD PTR [rax]
  000b3	48 8b 4c 24 50	 mov	 rcx, QWORD PTR p$[rsp]
  000b8	ff 50 10	 call	 QWORD PTR [rax+16]
$LN3@wait:

; 121  : 			return rv;

  000bb	0f b6 44 24 24	 movzx	 eax, BYTE PTR rv$[rsp]

; 122  : 	  }

  000c0	48 83 c4 30	 add	 rsp, 48			; 00000030H
  000c4	5f		 pop	 rdi
  000c5	c3		 ret	 0
?wait@condition@win32@common@@QEAA_NHPEAVcritical_section@23@@Z ENDP ; common::win32::condition::wait
_TEXT	ENDS
; Function compile flags: /Odtp /RTCsu
; File d:\newproject2\com\include\com\win32\win32_mtsync.h
;	COMDAT ?signal_all@condition@win32@common@@UEAAXXZ
_TEXT	SEGMENT
this$ = 48
?signal_all@condition@win32@common@@UEAAXXZ PROC	; common::win32::condition::signal_all, COMDAT

; 111  : 	  void signal_all() { abort(); }

$LN3:
  00000	48 89 4c 24 08	 mov	 QWORD PTR [rsp+8], rcx
  00005	57		 push	 rdi
  00006	48 83 ec 20	 sub	 rsp, 32			; 00000020H
  0000a	48 8b fc	 mov	 rdi, rsp
  0000d	b9 08 00 00 00	 mov	 ecx, 8
  00012	b8 cc cc cc cc	 mov	 eax, -858993460		; ccccccccH
  00017	f3 ab		 rep stosd
  00019	48 8b 4c 24 30	 mov	 rcx, QWORD PTR [rsp+48]
  0001e	ff 15 00 00 00
	00		 call	 QWORD PTR __imp_abort
$LN2@signal_all:
  00024	48 83 c4 20	 add	 rsp, 32			; 00000020H
  00028	5f		 pop	 rdi
  00029	c3		 ret	 0
?signal_all@condition@win32@common@@UEAAXXZ ENDP	; common::win32::condition::signal_all
_TEXT	ENDS
; Function compile flags: /Odtp /RTCsu
; File d:\newproject2\com\include\com\win32\win32_mtsync.h
;	COMDAT ?signal@condition@win32@common@@UEAAXXZ
_TEXT	SEGMENT
this$ = 48
?signal@condition@win32@common@@UEAAXXZ PROC		; common::win32::condition::signal, COMDAT

; 110  : 	  void signal() { SetEvent(m_event); }

$LN3:
  00000	48 89 4c 24 08	 mov	 QWORD PTR [rsp+8], rcx
  00005	57		 push	 rdi
  00006	48 83 ec 20	 sub	 rsp, 32			; 00000020H
  0000a	48 8b fc	 mov	 rdi, rsp
  0000d	b9 08 00 00 00	 mov	 ecx, 8
  00012	b8 cc cc cc cc	 mov	 eax, -858993460		; ccccccccH
  00017	f3 ab		 rep stosd
  00019	48 8b 4c 24 30	 mov	 rcx, QWORD PTR [rsp+48]
  0001e	48 8b 44 24 30	 mov	 rax, QWORD PTR this$[rsp]
  00023	48 8b 48 08	 mov	 rcx, QWORD PTR [rax+8]
  00027	ff 15 00 00 00
	00		 call	 QWORD PTR __imp_SetEvent
  0002d	48 83 c4 20	 add	 rsp, 32			; 00000020H
  00031	5f		 pop	 rdi
  00032	c3		 ret	 0
?signal@condition@win32@common@@UEAAXXZ ENDP		; common::win32::condition::signal
_TEXT	ENDS
; Function compile flags: /Odtp /RTCsu
; File d:\newproject2\com\include\com\win32\win32_mtsync.h
;	COMDAT ??1condition@win32@common@@UEAA@XZ
_TEXT	SEGMENT
this$ = 48
??1condition@win32@common@@UEAA@XZ PROC			; common::win32::condition::~condition, COMDAT

; 108  : 	  ~condition() { CloseHandle(m_event); }

$LN3:
  00000	48 89 4c 24 08	 mov	 QWORD PTR [rsp+8], rcx
  00005	57		 push	 rdi
  00006	48 83 ec 20	 sub	 rsp, 32			; 00000020H
  0000a	48 8b fc	 mov	 rdi, rsp
  0000d	b9 08 00 00 00	 mov	 ecx, 8
  00012	b8 cc cc cc cc	 mov	 eax, -858993460		; ccccccccH
  00017	f3 ab		 rep stosd
  00019	48 8b 4c 24 30	 mov	 rcx, QWORD PTR [rsp+48]
  0001e	48 8b 44 24 30	 mov	 rax, QWORD PTR this$[rsp]
  00023	48 8d 0d 00 00
	00 00		 lea	 rcx, OFFSET FLAT:??_7condition@win32@common@@6B@
  0002a	48 89 08	 mov	 QWORD PTR [rax], rcx
  0002d	48 8b 44 24 30	 mov	 rax, QWORD PTR this$[rsp]
  00032	48 8b 48 08	 mov	 rcx, QWORD PTR [rax+8]
  00036	ff 15 00 00 00
	00		 call	 QWORD PTR __imp_CloseHandle
  0003c	48 8b 4c 24 30	 mov	 rcx, QWORD PTR this$[rsp]
  00041	e8 00 00 00 00	 call	 ??1abstract_condition@common@@UEAA@XZ ; common::abstract_condition::~abstract_condition
  00046	48 83 c4 20	 add	 rsp, 32			; 00000020H
  0004a	5f		 pop	 rdi
  0004b	c3		 ret	 0
??1condition@win32@common@@UEAA@XZ ENDP			; common::win32::condition::~condition
_TEXT	ENDS
; Function compile flags: /Odtp /RTCsu
; File d:\newproject2\com\include\com\win32\win32_mtsync.h
;	COMDAT ??0condition@win32@common@@QEAA@XZ
_TEXT	SEGMENT
this$ = 48
??0condition@win32@common@@QEAA@XZ PROC			; common::win32::condition::condition, COMDAT

; 107  : 	  condition() { m_event = CreateEvent(NULL, TRUE, FALSE, NULL);}

$LN4:
  00000	48 89 4c 24 08	 mov	 QWORD PTR [rsp+8], rcx
  00005	57		 push	 rdi
  00006	48 83 ec 20	 sub	 rsp, 32			; 00000020H
  0000a	48 8b fc	 mov	 rdi, rsp
  0000d	b9 08 00 00 00	 mov	 ecx, 8
  00012	b8 cc cc cc cc	 mov	 eax, -858993460		; ccccccccH
  00017	f3 ab		 rep stosd
  00019	48 8b 4c 24 30	 mov	 rcx, QWORD PTR [rsp+48]
  0001e	48 8b 4c 24 30	 mov	 rcx, QWORD PTR this$[rsp]
  00023	e8 00 00 00 00	 call	 ??0abstract_condition@common@@QEAA@XZ
  00028	48 8b 44 24 30	 mov	 rax, QWORD PTR this$[rsp]
  0002d	48 8d 0d 00 00
	00 00		 lea	 rcx, OFFSET FLAT:??_7condition@win32@common@@6B@
  00034	48 89 08	 mov	 QWORD PTR [rax], rcx
  00037	45 33 c9	 xor	 r9d, r9d
  0003a	45 33 c0	 xor	 r8d, r8d
  0003d	ba 01 00 00 00	 mov	 edx, 1
  00042	33 c9		 xor	 ecx, ecx
  00044	ff 15 00 00 00
	00		 call	 QWORD PTR __imp_CreateEventA
  0004a	48 8b 4c 24 30	 mov	 rcx, QWORD PTR this$[rsp]
  0004f	48 89 41 08	 mov	 QWORD PTR [rcx+8], rax
  00053	48 8b 44 24 30	 mov	 rax, QWORD PTR this$[rsp]
  00058	48 83 c4 20	 add	 rsp, 32			; 00000020H
  0005c	5f		 pop	 rdi
  0005d	c3		 ret	 0
??0condition@win32@common@@QEAA@XZ ENDP			; common::win32::condition::condition
_TEXT	ENDS
; Function compile flags: /Odtp /RTCsu
;	COMDAT ??_Gabstract_condition@common@@UEAAPEAXI@Z
_TEXT	SEGMENT
this$ = 48
__flags$ = 56
??_Gabstract_condition@common@@UEAAPEAXI@Z PROC		; common::abstract_condition::`scalar deleting destructor', COMDAT
$LN4:
  00000	89 54 24 10	 mov	 DWORD PTR [rsp+16], edx
  00004	48 89 4c 24 08	 mov	 QWORD PTR [rsp+8], rcx
  00009	57		 push	 rdi
  0000a	48 83 ec 20	 sub	 rsp, 32			; 00000020H
  0000e	48 8b fc	 mov	 rdi, rsp
  00011	b9 08 00 00 00	 mov	 ecx, 8
  00016	b8 cc cc cc cc	 mov	 eax, -858993460		; ccccccccH
  0001b	f3 ab		 rep stosd
  0001d	48 8b 4c 24 30	 mov	 rcx, QWORD PTR [rsp+48]
  00022	48 8b 4c 24 30	 mov	 rcx, QWORD PTR this$[rsp]
  00027	e8 00 00 00 00	 call	 ??1abstract_condition@common@@UEAA@XZ ; common::abstract_condition::~abstract_condition
  0002c	8b 44 24 38	 mov	 eax, DWORD PTR __flags$[rsp]
  00030	83 e0 01	 and	 eax, 1
  00033	85 c0		 test	 eax, eax
  00035	74 0f		 je	 SHORT $LN2@scalar
  00037	ba 08 00 00 00	 mov	 edx, 8
  0003c	48 8b 4c 24 30	 mov	 rcx, QWORD PTR this$[rsp]
  00041	e8 00 00 00 00	 call	 ??3@YAXPEAX_K@Z		; operator delete
$LN2@scalar:
  00046	48 8b 44 24 30	 mov	 rax, QWORD PTR this$[rsp]
  0004b	48 83 c4 20	 add	 rsp, 32			; 00000020H
  0004f	5f		 pop	 rdi
  00050	c3		 ret	 0
??_Gabstract_condition@common@@UEAAPEAXI@Z ENDP		; common::abstract_condition::`scalar deleting destructor'
_TEXT	ENDS
; Function compile flags: /Odtp /RTCsu
;	COMDAT ??0abstract_condition@common@@QEAA@XZ
_TEXT	SEGMENT
this$ = 16
??0abstract_condition@common@@QEAA@XZ PROC		; common::abstract_condition::abstract_condition, COMDAT
$LN3:
  00000	48 89 4c 24 08	 mov	 QWORD PTR [rsp+8], rcx
  00005	57		 push	 rdi
  00006	48 8b 44 24 10	 mov	 rax, QWORD PTR this$[rsp]
  0000b	48 8d 0d 00 00
	00 00		 lea	 rcx, OFFSET FLAT:??_7abstract_condition@common@@6B@
  00012	48 89 08	 mov	 QWORD PTR [rax], rcx
  00015	48 8b 44 24 10	 mov	 rax, QWORD PTR this$[rsp]
  0001a	5f		 pop	 rdi
  0001b	c3		 ret	 0
??0abstract_condition@common@@QEAA@XZ ENDP		; common::abstract_condition::abstract_condition
_TEXT	ENDS
; Function compile flags: /Odtp /RTCsu
; File d:\newproject2\com\include\com\abstract_mtsync.h
;	COMDAT ??1abstract_condition@common@@UEAA@XZ
_TEXT	SEGMENT
this$ = 16
??1abstract_condition@common@@UEAA@XZ PROC		; common::abstract_condition::~abstract_condition, COMDAT

; 72   : 	virtual ~abstract_condition() {}

$LN3:
  00000	48 89 4c 24 08	 mov	 QWORD PTR [rsp+8], rcx
  00005	57		 push	 rdi
  00006	48 8b 44 24 10	 mov	 rax, QWORD PTR this$[rsp]
  0000b	48 8d 0d 00 00
	00 00		 lea	 rcx, OFFSET FLAT:??_7abstract_condition@common@@6B@
  00012	48 89 08	 mov	 QWORD PTR [rax], rcx
  00015	5f		 pop	 rdi
  00016	c3		 ret	 0
??1abstract_condition@common@@UEAA@XZ ENDP		; common::abstract_condition::~abstract_condition
_TEXT	ENDS
; Function compile flags: /Odtp /RTCsu
; File c:\program files (x86)\windows kits\10\include\10.0.10240.0\ucrt\stdio.h
;	COMDAT sprintf
_TEXT	SEGMENT
_Result$ = 32
_ArgList$ = 56
__$ArrayPad$ = 80
_Buffer$ = 112
_Format$ = 120
sprintf	PROC						; COMDAT

; 1776 : {

$LN3:
  00000	48 89 54 24 10	 mov	 QWORD PTR [rsp+16], rdx
  00005	48 89 4c 24 08	 mov	 QWORD PTR [rsp+8], rcx
  0000a	4c 89 44 24 18	 mov	 QWORD PTR [rsp+24], r8
  0000f	4c 89 4c 24 20	 mov	 QWORD PTR [rsp+32], r9
  00014	57		 push	 rdi
  00015	48 83 ec 60	 sub	 rsp, 96			; 00000060H
  00019	48 8b fc	 mov	 rdi, rsp
  0001c	b9 18 00 00 00	 mov	 ecx, 24
  00021	b8 cc cc cc cc	 mov	 eax, -858993460		; ccccccccH
  00026	f3 ab		 rep stosd
  00028	48 8b 4c 24 70	 mov	 rcx, QWORD PTR [rsp+112]
  0002d	48 8b 05 00 00
	00 00		 mov	 rax, QWORD PTR __security_cookie
  00034	48 33 c4	 xor	 rax, rsp
  00037	48 89 44 24 50	 mov	 QWORD PTR __$ArrayPad$[rsp], rax

; 1777 :     int _Result;
; 1778 :     va_list _ArgList;
; 1779 :     __crt_va_start(_ArgList, _Format);

  0003c	e8 00 00 00 00	 call	 ??$__vcrt_va_start_verify_argument_type@QEBD@@YAXXZ ; __vcrt_va_start_verify_argument_type<char const * __ptr64 const>
  00041	48 8d 84 24 80
	00 00 00	 lea	 rax, QWORD PTR _Format$[rsp+8]
  00049	48 89 44 24 38	 mov	 QWORD PTR _ArgList$[rsp], rax

; 1780 : 
; 1781 :     #pragma warning(push)
; 1782 :     #pragma warning(disable: 4996) // Deprecation
; 1783 :     _Result = _vsprintf_l(_Buffer, _Format, NULL, _ArgList);

  0004e	4c 8b 4c 24 38	 mov	 r9, QWORD PTR _ArgList$[rsp]
  00053	45 33 c0	 xor	 r8d, r8d
  00056	48 8b 54 24 78	 mov	 rdx, QWORD PTR _Format$[rsp]
  0005b	48 8b 4c 24 70	 mov	 rcx, QWORD PTR _Buffer$[rsp]
  00060	e8 00 00 00 00	 call	 _vsprintf_l
  00065	89 44 24 20	 mov	 DWORD PTR _Result$[rsp], eax

; 1784 :     #pragma warning(pop)
; 1785 : 
; 1786 :     __crt_va_end(_ArgList);

  00069	48 c7 44 24 38
	00 00 00 00	 mov	 QWORD PTR _ArgList$[rsp], 0

; 1787 :     return _Result;

  00072	8b 44 24 20	 mov	 eax, DWORD PTR _Result$[rsp]

; 1788 : }

  00076	8b f8		 mov	 edi, eax
  00078	48 8b cc	 mov	 rcx, rsp
  0007b	48 8d 15 00 00
	00 00		 lea	 rdx, OFFSET FLAT:sprintf$rtcFrameData
  00082	e8 00 00 00 00	 call	 _RTC_CheckStackVars
  00087	8b c7		 mov	 eax, edi
  00089	48 8b 4c 24 50	 mov	 rcx, QWORD PTR __$ArrayPad$[rsp]
  0008e	48 33 cc	 xor	 rcx, rsp
  00091	e8 00 00 00 00	 call	 __security_check_cookie
  00096	48 83 c4 60	 add	 rsp, 96			; 00000060H
  0009a	5f		 pop	 rdi
  0009b	c3		 ret	 0
sprintf	ENDP
_TEXT	ENDS
; Function compile flags: /Odtp /RTCsu
; File c:\program files (x86)\windows kits\10\include\10.0.10240.0\ucrt\stdio.h
;	COMDAT _vsprintf_l
_TEXT	SEGMENT
_Buffer$ = 64
_Format$ = 72
_Locale$ = 80
_ArgList$ = 88
_vsprintf_l PROC					; COMDAT

; 1455 : {

$LN3:
  00000	4c 89 4c 24 20	 mov	 QWORD PTR [rsp+32], r9
  00005	4c 89 44 24 18	 mov	 QWORD PTR [rsp+24], r8
  0000a	48 89 54 24 10	 mov	 QWORD PTR [rsp+16], rdx
  0000f	48 89 4c 24 08	 mov	 QWORD PTR [rsp+8], rcx
  00014	57		 push	 rdi
  00015	48 83 ec 30	 sub	 rsp, 48			; 00000030H
  00019	48 8b fc	 mov	 rdi, rsp
  0001c	b9 0c 00 00 00	 mov	 ecx, 12
  00021	b8 cc cc cc cc	 mov	 eax, -858993460		; ccccccccH
  00026	f3 ab		 rep stosd
  00028	48 8b 4c 24 40	 mov	 rcx, QWORD PTR [rsp+64]

; 1456 :     #pragma warning(push)
; 1457 :     #pragma warning(disable: 4996) // Deprecation
; 1458 :     return _vsnprintf_l(_Buffer, (size_t)-1, _Format, _Locale, _ArgList);

  0002d	48 8b 44 24 58	 mov	 rax, QWORD PTR _ArgList$[rsp]
  00032	48 89 44 24 20	 mov	 QWORD PTR [rsp+32], rax
  00037	4c 8b 4c 24 50	 mov	 r9, QWORD PTR _Locale$[rsp]
  0003c	4c 8b 44 24 48	 mov	 r8, QWORD PTR _Format$[rsp]
  00041	48 c7 c2 ff ff
	ff ff		 mov	 rdx, -1
  00048	48 8b 4c 24 40	 mov	 rcx, QWORD PTR _Buffer$[rsp]
  0004d	e8 00 00 00 00	 call	 _vsnprintf_l

; 1459 :     #pragma warning(pop)
; 1460 : }

  00052	48 83 c4 30	 add	 rsp, 48			; 00000030H
  00056	5f		 pop	 rdi
  00057	c3		 ret	 0
_vsprintf_l ENDP
_TEXT	ENDS
; Function compile flags: /Odtp /RTCsu
; File c:\program files (x86)\windows kits\10\include\10.0.10240.0\ucrt\stdio.h
;	COMDAT _vsnprintf
_TEXT	SEGMENT
_Buffer$ = 64
_BufferCount$ = 72
_Format$ = 80
_ArgList$ = 88
_vsnprintf PROC						; COMDAT

; 1405 : {

$LN3:
  00000	4c 89 4c 24 20	 mov	 QWORD PTR [rsp+32], r9
  00005	4c 89 44 24 18	 mov	 QWORD PTR [rsp+24], r8
  0000a	48 89 54 24 10	 mov	 QWORD PTR [rsp+16], rdx
  0000f	48 89 4c 24 08	 mov	 QWORD PTR [rsp+8], rcx
  00014	57		 push	 rdi
  00015	48 83 ec 30	 sub	 rsp, 48			; 00000030H
  00019	48 8b fc	 mov	 rdi, rsp
  0001c	b9 0c 00 00 00	 mov	 ecx, 12
  00021	b8 cc cc cc cc	 mov	 eax, -858993460		; ccccccccH
  00026	f3 ab		 rep stosd
  00028	48 8b 4c 24 40	 mov	 rcx, QWORD PTR [rsp+64]

; 1406 :     #pragma warning(push)
; 1407 :     #pragma warning(disable: 4996) // Deprecation
; 1408 :     return _vsnprintf_l(_Buffer, _BufferCount, _Format, NULL, _ArgList);

  0002d	48 8b 44 24 58	 mov	 rax, QWORD PTR _ArgList$[rsp]
  00032	48 89 44 24 20	 mov	 QWORD PTR [rsp+32], rax
  00037	45 33 c9	 xor	 r9d, r9d
  0003a	4c 8b 44 24 50	 mov	 r8, QWORD PTR _Format$[rsp]
  0003f	48 8b 54 24 48	 mov	 rdx, QWORD PTR _BufferCount$[rsp]
  00044	48 8b 4c 24 40	 mov	 rcx, QWORD PTR _Buffer$[rsp]
  00049	e8 00 00 00 00	 call	 _vsnprintf_l

; 1409 :     #pragma warning(pop)
; 1410 : }

  0004e	48 83 c4 30	 add	 rsp, 48			; 00000030H
  00052	5f		 pop	 rdi
  00053	c3		 ret	 0
_vsnprintf ENDP
_TEXT	ENDS
; Function compile flags: /Odtp /RTCsu
; File c:\program files (x86)\windows kits\10\include\10.0.10240.0\ucrt\stdio.h
;	COMDAT _vsnprintf_l
_TEXT	SEGMENT
_Result$ = 48
tv74 = 52
_Buffer$ = 80
_BufferCount$ = 88
_Format$ = 96
_Locale$ = 104
_ArgList$ = 112
_vsnprintf_l PROC					; COMDAT

; 1385 : {

$LN5:
  00000	4c 89 4c 24 20	 mov	 QWORD PTR [rsp+32], r9
  00005	4c 89 44 24 18	 mov	 QWORD PTR [rsp+24], r8
  0000a	48 89 54 24 10	 mov	 QWORD PTR [rsp+16], rdx
  0000f	48 89 4c 24 08	 mov	 QWORD PTR [rsp+8], rcx
  00014	57		 push	 rdi
  00015	48 83 ec 40	 sub	 rsp, 64			; 00000040H
  00019	48 8b fc	 mov	 rdi, rsp
  0001c	b9 10 00 00 00	 mov	 ecx, 16
  00021	b8 cc cc cc cc	 mov	 eax, -858993460		; ccccccccH
  00026	f3 ab		 rep stosd
  00028	48 8b 4c 24 50	 mov	 rcx, QWORD PTR [rsp+80]

; 1386 :     int const _Result = __stdio_common_vsprintf(

  0002d	e8 00 00 00 00	 call	 __local_stdio_printf_options
  00032	48 8b 00	 mov	 rax, QWORD PTR [rax]
  00035	48 83 c8 01	 or	 rax, 1
  00039	48 8b 4c 24 70	 mov	 rcx, QWORD PTR _ArgList$[rsp]
  0003e	48 89 4c 24 28	 mov	 QWORD PTR [rsp+40], rcx
  00043	48 8b 4c 24 68	 mov	 rcx, QWORD PTR _Locale$[rsp]
  00048	48 89 4c 24 20	 mov	 QWORD PTR [rsp+32], rcx
  0004d	4c 8b 4c 24 60	 mov	 r9, QWORD PTR _Format$[rsp]
  00052	4c 8b 44 24 58	 mov	 r8, QWORD PTR _BufferCount$[rsp]
  00057	48 8b 54 24 50	 mov	 rdx, QWORD PTR _Buffer$[rsp]
  0005c	48 8b c8	 mov	 rcx, rax
  0005f	ff 15 00 00 00
	00		 call	 QWORD PTR __imp___stdio_common_vsprintf
  00065	89 44 24 30	 mov	 DWORD PTR _Result$[rsp], eax

; 1387 :         _CRT_INTERNAL_LOCAL_PRINTF_OPTIONS | _CRT_INTERNAL_PRINTF_LEGACY_VSPRINTF_NULL_TERMINATION,
; 1388 :         _Buffer, _BufferCount, _Format, _Locale, _ArgList);
; 1389 : 
; 1390 :     return _Result < 0 ? -1 : _Result;

  00069	83 7c 24 30 00	 cmp	 DWORD PTR _Result$[rsp], 0
  0006e	7d 0a		 jge	 SHORT $LN3@vsnprintf_
  00070	c7 44 24 34 ff
	ff ff ff	 mov	 DWORD PTR tv74[rsp], -1
  00078	eb 08		 jmp	 SHORT $LN4@vsnprintf_
$LN3@vsnprintf_:
  0007a	8b 44 24 30	 mov	 eax, DWORD PTR _Result$[rsp]
  0007e	89 44 24 34	 mov	 DWORD PTR tv74[rsp], eax
$LN4@vsnprintf_:
  00082	8b 44 24 34	 mov	 eax, DWORD PTR tv74[rsp]

; 1391 : }

  00086	48 83 c4 40	 add	 rsp, 64			; 00000040H
  0008a	5f		 pop	 rdi
  0008b	c3		 ret	 0
_vsnprintf_l ENDP
_TEXT	ENDS
; Function compile flags: /Odtp /RTCsu
; File c:\program files (x86)\windows kits\10\include\10.0.10240.0\ucrt\stdio.h
;	COMDAT printf
_TEXT	SEGMENT
_Result$ = 32
_ArgList$ = 56
__$ArrayPad$ = 80
_Format$ = 112
printf	PROC						; COMDAT

; 950  : {

$LN3:
  00000	48 89 4c 24 08	 mov	 QWORD PTR [rsp+8], rcx
  00005	48 89 54 24 10	 mov	 QWORD PTR [rsp+16], rdx
  0000a	4c 89 44 24 18	 mov	 QWORD PTR [rsp+24], r8
  0000f	4c 89 4c 24 20	 mov	 QWORD PTR [rsp+32], r9
  00014	57		 push	 rdi
  00015	48 83 ec 60	 sub	 rsp, 96			; 00000060H
  00019	48 8b fc	 mov	 rdi, rsp
  0001c	b9 18 00 00 00	 mov	 ecx, 24
  00021	b8 cc cc cc cc	 mov	 eax, -858993460		; ccccccccH
  00026	f3 ab		 rep stosd
  00028	48 8b 4c 24 70	 mov	 rcx, QWORD PTR [rsp+112]
  0002d	48 8b 05 00 00
	00 00		 mov	 rax, QWORD PTR __security_cookie
  00034	48 33 c4	 xor	 rax, rsp
  00037	48 89 44 24 50	 mov	 QWORD PTR __$ArrayPad$[rsp], rax

; 951  :     int _Result;
; 952  :     va_list _ArgList;
; 953  :     __crt_va_start(_ArgList, _Format);

  0003c	e8 00 00 00 00	 call	 ??$__vcrt_va_start_verify_argument_type@QEBD@@YAXXZ ; __vcrt_va_start_verify_argument_type<char const * __ptr64 const>
  00041	48 8d 44 24 78	 lea	 rax, QWORD PTR _Format$[rsp+8]
  00046	48 89 44 24 38	 mov	 QWORD PTR _ArgList$[rsp], rax

; 954  :     _Result = _vfprintf_l(stdout, _Format, NULL, _ArgList);

  0004b	b9 01 00 00 00	 mov	 ecx, 1
  00050	ff 15 00 00 00
	00		 call	 QWORD PTR __imp___acrt_iob_func
  00056	4c 8b 4c 24 38	 mov	 r9, QWORD PTR _ArgList$[rsp]
  0005b	45 33 c0	 xor	 r8d, r8d
  0005e	48 8b 54 24 70	 mov	 rdx, QWORD PTR _Format$[rsp]
  00063	48 8b c8	 mov	 rcx, rax
  00066	e8 00 00 00 00	 call	 _vfprintf_l
  0006b	89 44 24 20	 mov	 DWORD PTR _Result$[rsp], eax

; 955  :     __crt_va_end(_ArgList);

  0006f	48 c7 44 24 38
	00 00 00 00	 mov	 QWORD PTR _ArgList$[rsp], 0

; 956  :     return _Result;

  00078	8b 44 24 20	 mov	 eax, DWORD PTR _Result$[rsp]

; 957  : }

  0007c	8b f8		 mov	 edi, eax
  0007e	48 8b cc	 mov	 rcx, rsp
  00081	48 8d 15 00 00
	00 00		 lea	 rdx, OFFSET FLAT:printf$rtcFrameData
  00088	e8 00 00 00 00	 call	 _RTC_CheckStackVars
  0008d	8b c7		 mov	 eax, edi
  0008f	48 8b 4c 24 50	 mov	 rcx, QWORD PTR __$ArrayPad$[rsp]
  00094	48 33 cc	 xor	 rcx, rsp
  00097	e8 00 00 00 00	 call	 __security_check_cookie
  0009c	48 83 c4 60	 add	 rsp, 96			; 00000060H
  000a0	5f		 pop	 rdi
  000a1	c3		 ret	 0
printf	ENDP
_TEXT	ENDS
; Function compile flags: /Odtp /RTCsu
; File c:\program files (x86)\microsoft visual studio 14.0\vc\include\vadefs.h
;	COMDAT ??$__vcrt_va_start_verify_argument_type@QEBD@@YAXXZ
_TEXT	SEGMENT
??$__vcrt_va_start_verify_argument_type@QEBD@@YAXXZ PROC ; __vcrt_va_start_verify_argument_type<char const * __ptr64 const>, COMDAT

; 144  :         {

$LN3:
  00000	40 57		 push	 rdi

; 145  :             static_assert(!__vcrt_va_list_is_reference<_Ty>::__the_value, "va_start argument must not have reference type and must not be parenthesized");
; 146  :         }

  00002	5f		 pop	 rdi
  00003	c3		 ret	 0
??$__vcrt_va_start_verify_argument_type@QEBD@@YAXXZ ENDP ; __vcrt_va_start_verify_argument_type<char const * __ptr64 const>
_TEXT	ENDS
; Function compile flags: /Odtp /RTCsu
; File c:\program files (x86)\windows kits\10\include\10.0.10240.0\ucrt\stdio.h
;	COMDAT _vfprintf_l
_TEXT	SEGMENT
_Stream$ = 64
_Format$ = 72
_Locale$ = 80
_ArgList$ = 88
_vfprintf_l PROC					; COMDAT

; 638  : {

$LN3:
  00000	4c 89 4c 24 20	 mov	 QWORD PTR [rsp+32], r9
  00005	4c 89 44 24 18	 mov	 QWORD PTR [rsp+24], r8
  0000a	48 89 54 24 10	 mov	 QWORD PTR [rsp+16], rdx
  0000f	48 89 4c 24 08	 mov	 QWORD PTR [rsp+8], rcx
  00014	57		 push	 rdi
  00015	48 83 ec 30	 sub	 rsp, 48			; 00000030H
  00019	48 8b fc	 mov	 rdi, rsp
  0001c	b9 0c 00 00 00	 mov	 ecx, 12
  00021	b8 cc cc cc cc	 mov	 eax, -858993460		; ccccccccH
  00026	f3 ab		 rep stosd
  00028	48 8b 4c 24 40	 mov	 rcx, QWORD PTR [rsp+64]

; 639  :     return __stdio_common_vfprintf(_CRT_INTERNAL_LOCAL_PRINTF_OPTIONS, _Stream, _Format, _Locale, _ArgList);

  0002d	e8 00 00 00 00	 call	 __local_stdio_printf_options
  00032	48 8b 4c 24 58	 mov	 rcx, QWORD PTR _ArgList$[rsp]
  00037	48 89 4c 24 20	 mov	 QWORD PTR [rsp+32], rcx
  0003c	4c 8b 4c 24 50	 mov	 r9, QWORD PTR _Locale$[rsp]
  00041	4c 8b 44 24 48	 mov	 r8, QWORD PTR _Format$[rsp]
  00046	48 8b 54 24 40	 mov	 rdx, QWORD PTR _Stream$[rsp]
  0004b	48 8b 08	 mov	 rcx, QWORD PTR [rax]
  0004e	ff 15 00 00 00
	00		 call	 QWORD PTR __imp___stdio_common_vfprintf

; 640  : }

  00054	48 83 c4 30	 add	 rsp, 48			; 00000030H
  00058	5f		 pop	 rdi
  00059	c3		 ret	 0
_vfprintf_l ENDP
_TEXT	ENDS
; Function compile flags: /Odtp /RTCsu
; File c:\program files (x86)\windows kits\10\include\10.0.10240.0\ucrt\corecrt_stdio_config.h
;	COMDAT __local_stdio_printf_options
_TEXT	SEGMENT
__local_stdio_printf_options PROC			; COMDAT

; 73   : {

$LN3:
  00000	40 57		 push	 rdi

; 74   :     static unsigned __int64 _OptionsStorage;
; 75   :     return &_OptionsStorage;

  00002	48 8d 05 00 00
	00 00		 lea	 rax, OFFSET FLAT:?_OptionsStorage@?1??__local_stdio_printf_options@@9@4_KA ; `__local_stdio_printf_options'::`2'::_OptionsStorage

; 76   : }

  00009	5f		 pop	 rdi
  0000a	c3		 ret	 0
__local_stdio_printf_options ENDP
_TEXT	ENDS
; Function compile flags: /Odtp /RTCsu
;	COMDAT ??_GCLogger@@QEAAPEAXI@Z
_TEXT	SEGMENT
this$ = 48
__flags$ = 56
??_GCLogger@@QEAAPEAXI@Z PROC				; CLogger::`scalar deleting destructor', COMDAT
$LN4:
  00000	89 54 24 10	 mov	 DWORD PTR [rsp+16], edx
  00004	48 89 4c 24 08	 mov	 QWORD PTR [rsp+8], rcx
  00009	57		 push	 rdi
  0000a	48 83 ec 20	 sub	 rsp, 32			; 00000020H
  0000e	48 8b fc	 mov	 rdi, rsp
  00011	b9 08 00 00 00	 mov	 ecx, 8
  00016	b8 cc cc cc cc	 mov	 eax, -858993460		; ccccccccH
  0001b	f3 ab		 rep stosd
  0001d	48 8b 4c 24 30	 mov	 rcx, QWORD PTR [rsp+48]
  00022	48 8b 4c 24 30	 mov	 rcx, QWORD PTR this$[rsp]
  00027	e8 00 00 00 00	 call	 ??1CLogger@@QEAA@XZ	; CLogger::~CLogger
  0002c	8b 44 24 38	 mov	 eax, DWORD PTR __flags$[rsp]
  00030	83 e0 01	 and	 eax, 1
  00033	85 c0		 test	 eax, eax
  00035	74 0f		 je	 SHORT $LN2@scalar
  00037	ba 28 00 00 00	 mov	 edx, 40			; 00000028H
  0003c	48 8b 4c 24 30	 mov	 rcx, QWORD PTR this$[rsp]
  00041	e8 00 00 00 00	 call	 ??3@YAXPEAX_K@Z		; operator delete
$LN2@scalar:
  00046	48 8b 44 24 30	 mov	 rax, QWORD PTR this$[rsp]
  0004b	48 83 c4 20	 add	 rsp, 32			; 00000020H
  0004f	5f		 pop	 rdi
  00050	c3		 ret	 0
??_GCLogger@@QEAAPEAXI@Z ENDP				; CLogger::`scalar deleting destructor'
_TEXT	ENDS
; Function compile flags: /Odtp /RTCsu
;	COMDAT ?__autoclassinit2@CLogger@@QEAAX_K@Z
_TEXT	SEGMENT
this$ = 16
classSize$ = 24
?__autoclassinit2@CLogger@@QEAAX_K@Z PROC		; CLogger::__autoclassinit2, COMDAT
$LN3:
  00000	48 89 54 24 10	 mov	 QWORD PTR [rsp+16], rdx
  00005	48 89 4c 24 08	 mov	 QWORD PTR [rsp+8], rcx
  0000a	57		 push	 rdi
  0000b	48 8b 7c 24 10	 mov	 rdi, QWORD PTR this$[rsp]
  00010	33 c0		 xor	 eax, eax
  00012	48 8b 4c 24 18	 mov	 rcx, QWORD PTR classSize$[rsp]
  00017	f3 aa		 rep stosb
  00019	5f		 pop	 rdi
  0001a	c3		 ret	 0
?__autoclassinit2@CLogger@@QEAAX_K@Z ENDP		; CLogger::__autoclassinit2
_TEXT	ENDS
; Function compile flags: /Odtp /RTCsu
; File d:\newproject2\com\include\comlogger.h
;	COMDAT ?SetDateTimeFlag@CLogger@@QEAAXH@Z
_TEXT	SEGMENT
this$ = 16
nDateTimeSet$ = 24
?SetDateTimeFlag@CLogger@@QEAAXH@Z PROC			; CLogger::SetDateTimeFlag, COMDAT

; 55   : 	inline void	SetDateTimeFlag(int nDateTimeSet) {m_nDateTimeFlag = nDateTimeSet;}

$LN3:
  00000	89 54 24 10	 mov	 DWORD PTR [rsp+16], edx
  00004	48 89 4c 24 08	 mov	 QWORD PTR [rsp+8], rcx
  00009	57		 push	 rdi
  0000a	48 8b 44 24 10	 mov	 rax, QWORD PTR this$[rsp]
  0000f	8b 4c 24 18	 mov	 ecx, DWORD PTR nDateTimeSet$[rsp]
  00013	89 48 20	 mov	 DWORD PTR [rax+32], ecx
  00016	5f		 pop	 rdi
  00017	c3		 ret	 0
?SetDateTimeFlag@CLogger@@QEAAXH@Z ENDP			; CLogger::SetDateTimeFlag
_TEXT	ENDS
; Function compile flags: /Odtp /RTCsu
; File d:\newproject2\com\include\comlogger.h
;	COMDAT ?SetLogLevel@CLogger@@QEAAXH@Z
_TEXT	SEGMENT
this$ = 16
nLevel$ = 24
?SetLogLevel@CLogger@@QEAAXH@Z PROC			; CLogger::SetLogLevel, COMDAT

; 51   : 	inline void	SetLogLevel(int nLevel)	{ m_nLogLevel = nLevel; }

$LN3:
  00000	89 54 24 10	 mov	 DWORD PTR [rsp+16], edx
  00004	48 89 4c 24 08	 mov	 QWORD PTR [rsp+8], rcx
  00009	57		 push	 rdi
  0000a	48 8b 44 24 10	 mov	 rax, QWORD PTR this$[rsp]
  0000f	8b 4c 24 18	 mov	 ecx, DWORD PTR nLevel$[rsp]
  00013	89 08		 mov	 DWORD PTR [rax], ecx
  00015	5f		 pop	 rdi
  00016	c3		 ret	 0
?SetLogLevel@CLogger@@QEAAXH@Z ENDP			; CLogger::SetLogLevel
_TEXT	ENDS
END
