; Listing generated by Microsoft (R) Optimizing Compiler Version 19.00.24215.1 

include listing.inc

INCLUDELIB MSVCRTD
INCLUDELIB OLDNAMES

CONST	SEGMENT
$SG84559 DB	'Socket select error', 00H
	ORG $+4
$SG84606 DB	'WVSocket::ConnectTo Socket create Error', 00H
$SG84608 DB	'WVSocket::ConnectTo Socket connect Error', 00H
	ORG $+7
$SG84618 DB	'WVSocket::ConnectTo Socket send Error', 00H
	ORG $+2
$SG84634 DB	'WVSocket::PutData Socket send Error', 00H
	ORG $+4
$SG84639 DB	'WVSocket::PutData Socket send Error - 2', 00H
$SG84641 DB	'WVSocket::PutData send timeout Error', 00H
	ORG $+3
$SG84659 DB	'WVSocket::GetData recv Error', 00H
	ORG $+3
$SG84677 DB	'WVSocket::RecvStringData length Reading Down!', 00H
	ORG $+2
$SG84679 DB	'WVSocket::RecvStringData length Reading Timeout!', 00H
	ORG $+7
$SG84699 DB	'%d.%d.%d.%d', 00H
CONST	ENDS
PUBLIC	__local_stdio_printf_options
PUBLIC	??$__vcrt_va_start_verify_argument_type@QEBD@@YAXXZ ; __vcrt_va_start_verify_argument_type<char const * __ptr64 const>
PUBLIC	_vsnprintf_l
PUBLIC	_vsprintf_l
PUBLIC	sprintf
PUBLIC	?c_memcpy@@YAPEAXPEAXPEBXH@Z			; c_memcpy
PUBLIC	??0WVSocket@@QEAA@XZ				; WVSocket::WVSocket
PUBLIC	??0WVSocket@@QEAA@PEBDH@Z			; WVSocket::WVSocket
PUBLIC	??1WVSocket@@QEAA@XZ				; WVSocket::~WVSocket
PUBLIC	?IsRecvData@WVSocket@@QEAA_NXZ			; WVSocket::IsRecvData
PUBLIC	?SetOption@WVSocket@@QEAAHHHPEBXH@Z		; WVSocket::SetOption
PUBLIC	?GetOption@WVSocket@@QEAAHHHPEAXPEAH@Z		; WVSocket::GetOption
PUBLIC	?GetData@WVSocket@@QEAAHPEADHJ@Z		; WVSocket::GetData
PUBLIC	?PutData@WVSocket@@QEAAHPEADHJ@Z		; WVSocket::PutData
PUBLIC	?SetAcceptedSocket@WVSocket@@QEAAXH@Z		; WVSocket::SetAcceptedSocket
PUBLIC	?GetRecvData@WVSocket@@QEAAHPEADH@Z		; WVSocket::GetRecvData
PUBLIC	?ConnectTo@WVSocket@@QEAAHPEBDH@Z		; WVSocket::ConnectTo
PUBLIC	?SendNRecv@WVSocket@@QEAAHPEAHPEADH@Z		; WVSocket::SendNRecv
PUBLIC	?RecvStringData@WVSocket@@QEAAHPEADH@Z		; WVSocket::RecvStringData
PUBLIC	?GetHostIP@WVSocket@@SAPEBDXZ			; WVSocket::GetHostIP
PUBLIC	?ConnectWithTimeout@WVSocket@@QEAAHPEADHH@Z	; WVSocket::ConnectWithTimeout
PUBLIC	?onClose@WVSocket@@IEAAXXZ			; WVSocket::onClose
PUBLIC	?_OptionsStorage@?1??__local_stdio_printf_options@@9@4_KA ; `__local_stdio_printf_options'::`2'::_OptionsStorage
EXTRN	??_U@YAPEAX_K@Z:PROC				; operator new[]
EXTRN	??_V@YAXPEAX@Z:PROC				; operator delete[]
EXTRN	memset:PROC
EXTRN	strcpy:PROC
EXTRN	__imp_Sleep:PROC
EXTRN	__imp_atoi:PROC
EXTRN	__WSAFDIsSet:PROC
EXTRN	__imp_closesocket:PROC
EXTRN	__imp_connect:PROC
EXTRN	__imp_getsockopt:PROC
EXTRN	__imp_htons:PROC
EXTRN	__imp_inet_addr:PROC
EXTRN	__imp_recv:PROC
EXTRN	__imp_select:PROC
EXTRN	__imp_send:PROC
EXTRN	__imp_setsockopt:PROC
EXTRN	__imp_socket:PROC
EXTRN	__imp_gethostbyname:PROC
EXTRN	__imp_gethostname:PROC
EXTRN	__imp_WSAGetLastError:PROC
EXTRN	__imp__time64:PROC
EXTRN	__imp___stdio_common_vsprintf:PROC
EXTRN	_RTC_CheckStackVars:PROC
EXTRN	_RTC_InitBase:PROC
EXTRN	_RTC_Shutdown:PROC
EXTRN	_RTC_UninitUse:PROC
EXTRN	__CxxFrameHandler3:PROC
EXTRN	__GSHandlerCheck:PROC
EXTRN	__security_check_cookie:PROC
EXTRN	__security_cookie:QWORD
;	COMDAT ?_OptionsStorage@?1??__local_stdio_printf_options@@9@4_KA
_BSS	SEGMENT
?_OptionsStorage@?1??__local_stdio_printf_options@@9@4_KA DQ 01H DUP (?) ; `__local_stdio_printf_options'::`2'::_OptionsStorage
_BSS	ENDS
;	COMDAT ?_hostIP@?1??GetHostIP@WVSocket@@SAPEBDXZ@4PADA
_BSS	SEGMENT
?_hostIP@?1??GetHostIP@WVSocket@@SAPEBDXZ@4PADA DB 014H DUP (?) ; `WVSocket::GetHostIP'::`2'::_hostIP
_BSS	ENDS
pdata	SEGMENT
$pdata$time DD	imagerel time
	DD	imagerel time+47
	DD	imagerel $unwind$time
pdata	ENDS
;	COMDAT pdata
pdata	SEGMENT
$pdata$__local_stdio_printf_options DD imagerel $LN3
	DD	imagerel $LN3+11
	DD	imagerel $unwind$__local_stdio_printf_options
pdata	ENDS
;	COMDAT pdata
pdata	SEGMENT
$pdata$??$__vcrt_va_start_verify_argument_type@QEBD@@YAXXZ DD imagerel $LN3
	DD	imagerel $LN3+4
	DD	imagerel $unwind$??$__vcrt_va_start_verify_argument_type@QEBD@@YAXXZ
pdata	ENDS
;	COMDAT pdata
pdata	SEGMENT
$pdata$_vsnprintf_l DD imagerel $LN5
	DD	imagerel $LN5+140
	DD	imagerel $unwind$_vsnprintf_l
pdata	ENDS
;	COMDAT pdata
pdata	SEGMENT
$pdata$_vsprintf_l DD imagerel $LN3
	DD	imagerel $LN3+88
	DD	imagerel $unwind$_vsprintf_l
pdata	ENDS
;	COMDAT pdata
pdata	SEGMENT
$pdata$sprintf DD imagerel $LN3
	DD	imagerel $LN3+156
	DD	imagerel $unwind$sprintf
pdata	ENDS
;	COMDAT pdata
pdata	SEGMENT
$pdata$?c_memcpy@@YAPEAXPEAXPEBXH@Z DD imagerel $LN5
	DD	imagerel $LN5+135
	DD	imagerel $unwind$?c_memcpy@@YAPEAXPEAXPEBXH@Z
pdata	ENDS
pdata	SEGMENT
$pdata$??0WVSocket@@QEAA@XZ DD imagerel $LN3
	DD	imagerel $LN3+164
	DD	imagerel $unwind$??0WVSocket@@QEAA@XZ
$pdata$??0WVSocket@@QEAA@PEBDH@Z DD imagerel $LN3
	DD	imagerel $LN3+166
	DD	imagerel $unwind$??0WVSocket@@QEAA@PEBDH@Z
$pdata$??1WVSocket@@QEAA@XZ DD imagerel $LN5
	DD	imagerel $LN5+129
	DD	imagerel $unwind$??1WVSocket@@QEAA@XZ
$pdata$?IsRecvData@WVSocket@@QEAA_NXZ DD imagerel $LN15
	DD	imagerel $LN15+431
	DD	imagerel $unwind$?IsRecvData@WVSocket@@QEAA_NXZ
$pdata$?SetOption@WVSocket@@QEAAHHHPEBXH@Z DD imagerel $LN4
	DD	imagerel $LN4+106
	DD	imagerel $unwind$?SetOption@WVSocket@@QEAAHHHPEBXH@Z
$pdata$?GetOption@WVSocket@@QEAAHHHPEAXPEAH@Z DD imagerel $LN4
	DD	imagerel $LN4+108
	DD	imagerel $unwind$?GetOption@WVSocket@@QEAAHHHPEAXPEAH@Z
$pdata$?GetData@WVSocket@@QEAAHPEADHJ@Z DD imagerel $LN14
	DD	imagerel $LN14+368
	DD	imagerel $unwind$?GetData@WVSocket@@QEAAHPEADHJ@Z
$pdata$?PutData@WVSocket@@QEAAHPEADHJ@Z DD imagerel $LN14
	DD	imagerel $LN14+451
	DD	imagerel $unwind$?PutData@WVSocket@@QEAAHPEADHJ@Z
$pdata$?SetAcceptedSocket@WVSocket@@QEAAXH@Z DD imagerel $LN4
	DD	imagerel $LN4+89
	DD	imagerel $unwind$?SetAcceptedSocket@WVSocket@@QEAAXH@Z
$pdata$?GetRecvData@WVSocket@@QEAAHPEADH@Z DD imagerel $LN5
	DD	imagerel $LN5+148
	DD	imagerel $unwind$?GetRecvData@WVSocket@@QEAAHPEADH@Z
$pdata$?ConnectTo@WVSocket@@QEAAHPEBDH@Z DD imagerel $LN6
	DD	imagerel $LN6+370
	DD	imagerel $unwind$?ConnectTo@WVSocket@@QEAAHPEBDH@Z
$pdata$?SendNRecv@WVSocket@@QEAAHPEAHPEADH@Z DD imagerel $LN7
	DD	imagerel $LN7+235
	DD	imagerel $unwind$?SendNRecv@WVSocket@@QEAAHPEAHPEADH@Z
$pdata$?RecvStringData@WVSocket@@QEAAHPEADH@Z DD imagerel $LN13
	DD	imagerel $LN13+717
	DD	imagerel $unwind$?RecvStringData@WVSocket@@QEAAHPEADH@Z
$pdata$?GetHostIP@WVSocket@@SAPEBDXZ DD imagerel $LN5
	DD	imagerel $LN5+373
	DD	imagerel $unwind$?GetHostIP@WVSocket@@SAPEBDXZ
$pdata$?ConnectWithTimeout@WVSocket@@QEAAHPEADHH@Z DD imagerel $LN3
	DD	imagerel $LN3+28
	DD	imagerel $unwind$?ConnectWithTimeout@WVSocket@@QEAAHPEADHH@Z
$pdata$?onClose@WVSocket@@IEAAXXZ DD imagerel $LN3
	DD	imagerel $LN3+72
	DD	imagerel $unwind$?onClose@WVSocket@@IEAAXXZ
pdata	ENDS
;	COMDAT rtc$TMZ
rtc$TMZ	SEGMENT
_RTC_Shutdown.rtc$TMZ DQ FLAT:_RTC_Shutdown
rtc$TMZ	ENDS
;	COMDAT rtc$IMZ
rtc$IMZ	SEGMENT
_RTC_InitBase.rtc$IMZ DQ FLAT:_RTC_InitBase
rtc$IMZ	ENDS
CONST	SEGMENT
?IsRecvData@WVSocket@@QEAA_NXZ$rtcName$0 DB 074H	; WVSocket::IsRecvData
	DB	076H
	DB	00H
	ORG $+1
$cppxdata$??1WVSocket@@QEAA@XZ DD 019930522H
	DD	00H
	DD	00H
	DD	00H
	DD	00H
	DD	01H
	DD	imagerel $ip2state$??1WVSocket@@QEAA@XZ
	DD	028H
	DD	00H
	DD	05H
?IsRecvData@WVSocket@@QEAA_NXZ$rtcName$1 DB 073H	; WVSocket::IsRecvData
	DB	074H
	DB	046H
	DB	064H
	DB	073H
	DB	00H
	ORG $+2
?IsRecvData@WVSocket@@QEAA_NXZ$rtcFrameData DD 02H	; WVSocket::IsRecvData
	DD	00H
	DQ	FLAT:?IsRecvData@WVSocket@@QEAA_NXZ$rtcVarDesc
?GetData@WVSocket@@QEAAHPEADHJ@Z$rtcName$0 DB 073H	; WVSocket::GetData
	DB	074H
	DB	054H
	DB	06dH
	DB	00H
	ORG $+3
?IsRecvData@WVSocket@@QEAA_NXZ$rtcVarDesc DD 060H	; WVSocket::IsRecvData
	DD	0208H
	DQ	FLAT:?IsRecvData@WVSocket@@QEAA_NXZ$rtcName$1
	DD	038H
	DD	08H
	DQ	FLAT:?IsRecvData@WVSocket@@QEAA_NXZ$rtcName$0
	ORG $+96
?ConnectTo@WVSocket@@QEAAHPEBDH@Z$rtcName$0 DB 073H	; WVSocket::ConnectTo
	DB	061H
	DB	00H
	ORG $+5
?ConnectTo@WVSocket@@QEAAHPEBDH@Z$rtcFrameData DD 01H	; WVSocket::ConnectTo
	DD	00H
	DQ	FLAT:?ConnectTo@WVSocket@@QEAAHPEBDH@Z$rtcVarDesc
?RecvStringData@WVSocket@@QEAAHPEADH@Z$rtcName$0 DB 074H ; WVSocket::RecvStringData
	DB	06dH
	DB	070H
	DB	042H
	DB	075H
	DB	066H
	DB	00H
	ORG $+1
?ConnectTo@WVSocket@@QEAAHPEBDH@Z$rtcVarDesc DD 028H	; WVSocket::ConnectTo
	DD	010H
	DQ	FLAT:?ConnectTo@WVSocket@@QEAAHPEBDH@Z$rtcName$0
	ORG $+48
?RecvStringData@WVSocket@@QEAAHPEADH@Z$rtcVarDesc DD 034H ; WVSocket::RecvStringData
	DD	05H
	DQ	FLAT:?RecvStringData@WVSocket@@QEAAHPEADH@Z$rtcName$0
	ORG $+48
?RecvStringData@WVSocket@@QEAAHPEADH@Z$rtcFrameData DD 01H ; WVSocket::RecvStringData
	DD	00H
	DQ	FLAT:?RecvStringData@WVSocket@@QEAAHPEADH@Z$rtcVarDesc
?GetHostIP@WVSocket@@SAPEBDXZ$rtcName$0 DB 073H		; WVSocket::GetHostIP
	DB	07aH
	DB	048H
	DB	04eH
	DB	061H
	DB	06dH
	DB	065H
	DB	00H
	ORG $+8
?GetHostIP@WVSocket@@SAPEBDXZ$rtcVarDesc DD 050H	; WVSocket::GetHostIP
	DD	080H
	DQ	FLAT:?GetHostIP@WVSocket@@SAPEBDXZ$rtcName$0
	ORG $+48
?GetHostIP@WVSocket@@SAPEBDXZ$rtcFrameData DD 01H	; WVSocket::GetHostIP
	DD	00H
	DQ	FLAT:?GetHostIP@WVSocket@@SAPEBDXZ$rtcVarDesc
CONST	ENDS
;	COMDAT xdata
xdata	SEGMENT
$unwind$?c_memcpy@@YAPEAXPEAXPEBXH@Z DD 022801H
	DD	070103214H
xdata	ENDS
;	COMDAT xdata
xdata	SEGMENT
$unwind$sprintf DD 023c19H
	DD	07015b219H
	DD	imagerel __GSHandlerCheck
	DD	050H
xdata	ENDS
;	COMDAT CONST
CONST	SEGMENT
sprintf$rtcName$0 DB 05fH
	DB	041H
	DB	072H
	DB	067H
	DB	04cH
	DB	069H
	DB	073H
	DB	074H
	DB	00H
	ORG $+7
sprintf$rtcVarDesc DD 038H
	DD	08H
	DQ	FLAT:sprintf$rtcName$0
	ORG $+48
sprintf$rtcFrameData DD 01H
	DD	00H
	DQ	FLAT:sprintf$rtcVarDesc
CONST	ENDS
;	COMDAT xdata
xdata	SEGMENT
$unwind$_vsprintf_l DD 022d01H
	DD	070155219H
xdata	ENDS
;	COMDAT xdata
xdata	SEGMENT
$unwind$_vsnprintf_l DD 022d01H
	DD	070157219H
xdata	ENDS
;	COMDAT xdata
xdata	SEGMENT
$unwind$??$__vcrt_va_start_verify_argument_type@QEBD@@YAXXZ DD 010201H
	DD	07002H
xdata	ENDS
;	COMDAT xdata
xdata	SEGMENT
$unwind$__local_stdio_printf_options DD 010201H
	DD	07002H
xdata	ENDS
xdata	SEGMENT
$unwind$time DD	021e01H
	DD	07006320aH
$unwind$??0WVSocket@@QEAA@XZ DD 021e01H
	DD	07006320aH
$unwind$??0WVSocket@@QEAA@PEBDH@Z DD 022801H
	DD	070103214H
$unwind$??1WVSocket@@QEAA@XZ DD 022719H
	DD	07006520aH
	DD	imagerel __CxxFrameHandler3
	DD	imagerel $cppxdata$??1WVSocket@@QEAA@XZ
$ip2state$??1WVSocket@@QEAA@XZ DD imagerel ??1WVSocket@@QEAA@XZ
	DD	0ffffffffH
$unwind$?IsRecvData@WVSocket@@QEAA_NXZ DD 033619H
	DD	052010dH
	DD	07006H
	DD	imagerel __GSHandlerCheck
	DD	0288H
$unwind$?SetOption@WVSocket@@QEAAHHHPEBXH@Z DD 022c01H
	DD	070145218H
$unwind$?GetOption@WVSocket@@QEAAHHHPEAXPEAH@Z DD 022c01H
	DD	070145218H
$unwind$?GetData@WVSocket@@QEAAHPEADHJ@Z DD 022d01H
	DD	070157219H
$unwind$?PutData@WVSocket@@QEAAHPEADHJ@Z DD 022d01H
	DD	070157219H
$unwind$?SetAcceptedSocket@WVSocket@@QEAAXH@Z DD 022201H
	DD	0700a320eH
$unwind$?GetRecvData@WVSocket@@QEAAHPEADH@Z DD 022801H
	DD	070103214H
$unwind$?ConnectTo@WVSocket@@QEAAHPEBDH@Z DD 023719H
	DD	07010b214H
	DD	imagerel __GSHandlerCheck
	DD	050H
$unwind$?SendNRecv@WVSocket@@QEAAHPEAHPEADH@Z DD 022d01H
	DD	070155219H
$unwind$?RecvStringData@WVSocket@@QEAAHPEADH@Z DD 023a19H
	DD	07010d214H
	DD	imagerel __GSHandlerCheck
	DD	060H
$unwind$?GetHostIP@WVSocket@@SAPEBDXZ DD 032a19H
	DD	01e0109H
	DD	07002H
	DD	imagerel __GSHandlerCheck
	DD	0e0H
$unwind$?ConnectWithTimeout@WVSocket@@QEAAHPEADHH@Z DD 011501H
	DD	07015H
$unwind$?onClose@WVSocket@@IEAAXXZ DD 021e01H
	DD	07006320aH
xdata	ENDS
; Function compile flags: /Odtp /RTCsu
; File e:\infinia-library-3.0\com\src\wvsocket.cpp
_TEXT	SEGMENT
this$ = 48
?onClose@WVSocket@@IEAAXXZ PROC				; WVSocket::onClose

; 97   : {

$LN3:
  00000	48 89 4c 24 08	 mov	 QWORD PTR [rsp+8], rcx
  00005	57		 push	 rdi
  00006	48 83 ec 20	 sub	 rsp, 32			; 00000020H
  0000a	48 8b fc	 mov	 rdi, rsp
  0000d	b9 08 00 00 00	 mov	 ecx, 8
  00012	b8 cc cc cc cc	 mov	 eax, -858993460		; ccccccccH
  00017	f3 ab		 rep stosd
  00019	48 8b 4c 24 30	 mov	 rcx, QWORD PTR [rsp+48]

; 98   : 	SOCKETCLOSE(m_nSocket);

  0001e	48 8b 44 24 30	 mov	 rax, QWORD PTR this$[rsp]
  00023	48 8b 48 08	 mov	 rcx, QWORD PTR [rax+8]
  00027	ff 15 00 00 00
	00		 call	 QWORD PTR __imp_closesocket

; 99   : 	m_nSocket = -1;

  0002d	48 8b 44 24 30	 mov	 rax, QWORD PTR this$[rsp]
  00032	48 c7 40 08 ff
	ff ff ff	 mov	 QWORD PTR [rax+8], -1

; 100  : 	m_bConnected = false;

  0003a	48 8b 44 24 30	 mov	 rax, QWORD PTR this$[rsp]
  0003f	c6 00 00	 mov	 BYTE PTR [rax], 0

; 101  : }

  00042	48 83 c4 20	 add	 rsp, 32			; 00000020H
  00046	5f		 pop	 rdi
  00047	c3		 ret	 0
?onClose@WVSocket@@IEAAXXZ ENDP				; WVSocket::onClose
_TEXT	ENDS
; Function compile flags: /Odtp /RTCsu
; File e:\infinia-library-3.0\com\src\wvsocket.cpp
_TEXT	SEGMENT
this$ = 16
szIP$ = 24
nPort$ = 32
nTimeout$ = 40
?ConnectWithTimeout@WVSocket@@QEAAHPEADHH@Z PROC	; WVSocket::ConnectWithTimeout

; 368  : {

$LN3:
  00000	44 89 4c 24 20	 mov	 DWORD PTR [rsp+32], r9d
  00005	44 89 44 24 18	 mov	 DWORD PTR [rsp+24], r8d
  0000a	48 89 54 24 10	 mov	 QWORD PTR [rsp+16], rdx
  0000f	48 89 4c 24 08	 mov	 QWORD PTR [rsp+8], rcx
  00014	57		 push	 rdi

; 369  : #ifndef WIN32
; 370  : 	struct sockaddr_in sa;
; 371  : 	struct	timeval tmval;
; 372  : 	int nRet, flags, error;
; 373  : 	fd_set	wset, rset;
; 374  : 	
; 375  : 	strcpy(m_szIP, szIP);
; 376  : 	m_nPort = nPort;
; 377  : 	if (m_nSocket == -1) {
; 378  : 		m_nSocket = ::socket(SOCK_FLAG, SOCK_STREAM, 0);
; 379  : 		if (m_nSocket == -1) {
; 380  : 			return -1;
; 381  : 		}
; 382  : 	}
; 383  : 
; 384  : 	memset(&sa, 0x00, sizeof(sa));
; 385  : 	
; 386  : 	sa.sin_family = AF_INET;
; 387  : 	sa.sin_port = htons((short)nPort);
; 388  : 	sa.sin_addr.s_addr = inet_addr(szIP);
; 389  : 	
; 390  : 	if (!nTimeout) {
; 391  : 		if (m_cLogger)
; 392  : 			m_cLogger->LogPrint(LOG_DEBUG, "Normal connect\n");
; 393  : 		nRet = connect(m_nSocket, (struct sockaddr*)&sa, sizeof(sockaddr_in));
; 394  : 		if(nRet == -1) {
; 395  : 			onClose();
; 396  : 			return nRet;
; 397  : 		}
; 398  : 		else {
; 399  : 			m_bConnected = true;
; 400  : 			return 1;
; 401  : 		}
; 402  : 	}
; 403  : 
; 404  : 
; 405  : 	memset(&tmval, 0, sizeof(tmval));
; 406  : 	tmval.tv_sec = nTimeout;
; 407  : 
; 408  : 	flags = fcntl(m_nSocket, F_GETFL, 0);
; 409  : 	fcntl(m_nSocket, F_SETFL, flags | O_NONBLOCK);
; 410  : 
; 411  : 	error = 0;
; 412  : 
; 413  : 	nRet = connect(m_nSocket, (struct sockaddr*)&sa, sizeof(sockaddr_in));
; 414  : 	if (nRet < 0 && errno != EINPROGRESS) {
; 415  : 		onClose();
; 416  : 		return nRet;
; 417  : 	}
; 418  : 
; 419  : 	if (nRet == 0)
; 420  : 		goto done;
; 421  : 
; 422  : 	FD_ZERO(&rset);
; 423  : 	FD_SET(m_nSocket, &rset);
; 424  : 	wset = rset;
; 425  : 
; 426  : 	if (select(m_nSocket + 1, &rset, &wset, NULL, &tmval) == 0) {
; 427  : 		printf("TImeout Error\n");
; 428  : 		errno = ETIMEDOUT;
; 429  : 		return -1;
; 430  : 	}
; 431  : 
; 432  : 	if (FD_ISSET(m_nSocket, &rset) || FD_ISSET(m_nSocket, &wset)) {
; 433  : 		int len = sizeof(error);
; 434  : #if	defined(__ia64)
; 435  : 		if (getsockopt(m_nSocket, SOL_SOCKET, SO_ERROR, (void*)&error, &len) < 0) {
; 436  : #else
; 437  : 		if (getsockopt(m_nSocket, SOL_SOCKET, SO_ERROR, (void*)&error, (socklen_t *)&len) < 0) {
; 438  : #endif
; 439  : 			onClose();
; 440  : 			return -1;
; 441  : 		}
; 442  : 	}
; 443  : 	
; 444  : done:
; 445  : 	fcntl(m_nSocket, F_SETFL, flags);
; 446  : 	if (error != 0) {
; 447  : 		errno = error;
; 448  : 		onClose();
; 449  : 		return -1;
; 450  : 	}
; 451  : 	
; 452  : 	m_bConnected = true;
; 453  : #endif
; 454  : 	return 1;

  00015	b8 01 00 00 00	 mov	 eax, 1

; 455  : }

  0001a	5f		 pop	 rdi
  0001b	c3		 ret	 0
?ConnectWithTimeout@WVSocket@@QEAAHPEADHH@Z ENDP	; WVSocket::ConnectWithTimeout
_TEXT	ENDS
; Function compile flags: /Odtp /RTCsu
; File e:\infinia-library-3.0\com\src\wvsocket.cpp
_TEXT	SEGMENT
hEntry$ = 48
szHName$ = 80
__$ArrayPad$ = 224
?GetHostIP@WVSocket@@SAPEBDXZ PROC			; WVSocket::GetHostIP

; 347  : {

$LN5:
  00000	40 57		 push	 rdi
  00002	48 81 ec f0 00
	00 00		 sub	 rsp, 240		; 000000f0H
  00009	48 8b fc	 mov	 rdi, rsp
  0000c	b9 3c 00 00 00	 mov	 ecx, 60			; 0000003cH
  00011	b8 cc cc cc cc	 mov	 eax, -858993460		; ccccccccH
  00016	f3 ab		 rep stosd
  00018	48 8b 05 00 00
	00 00		 mov	 rax, QWORD PTR __security_cookie
  0001f	48 33 c4	 xor	 rax, rsp
  00022	48 89 84 24 e0
	00 00 00	 mov	 QWORD PTR __$ArrayPad$[rsp], rax

; 348  : 	static	char _hostIP[20];
; 349  :     struct  hostent *hEntry;
; 350  : 	char    szHName[128];
; 351  : 
; 352  : 	if (gethostname(szHName, sizeof(szHName)) == 0) {

  0002a	ba 80 00 00 00	 mov	 edx, 128		; 00000080H
  0002f	48 8d 4c 24 50	 lea	 rcx, QWORD PTR szHName$[rsp]
  00034	ff 15 00 00 00
	00		 call	 QWORD PTR __imp_gethostname
  0003a	85 c0		 test	 eax, eax
  0003c	0f 85 03 01 00
	00		 jne	 $LN2@GetHostIP

; 353  : 		hEntry = gethostbyname(szHName);

  00042	48 8d 4c 24 50	 lea	 rcx, QWORD PTR szHName$[rsp]
  00047	ff 15 00 00 00
	00		 call	 QWORD PTR __imp_gethostbyname
  0004d	48 89 44 24 30	 mov	 QWORD PTR hEntry$[rsp], rax

; 354  : 		if (hEntry && hEntry->h_addr_list && hEntry->h_addr_list[0]) {

  00052	48 83 7c 24 30
	00		 cmp	 QWORD PTR hEntry$[rsp], 0
  00058	0f 84 e7 00 00
	00		 je	 $LN3@GetHostIP
  0005e	48 8b 44 24 30	 mov	 rax, QWORD PTR hEntry$[rsp]
  00063	48 83 78 18 00	 cmp	 QWORD PTR [rax+24], 0
  00068	0f 84 d7 00 00
	00		 je	 $LN3@GetHostIP
  0006e	b8 08 00 00 00	 mov	 eax, 8
  00073	48 6b c0 00	 imul	 rax, rax, 0
  00077	48 8b 4c 24 30	 mov	 rcx, QWORD PTR hEntry$[rsp]
  0007c	48 8b 49 18	 mov	 rcx, QWORD PTR [rcx+24]
  00080	48 83 3c 08 00	 cmp	 QWORD PTR [rax+rcx], 0
  00085	0f 84 ba 00 00
	00		 je	 $LN3@GetHostIP

; 355  : 			sprintf(_hostIP, "%d.%d.%d.%d", 

  0008b	b8 08 00 00 00	 mov	 eax, 8
  00090	48 6b c0 00	 imul	 rax, rax, 0
  00094	48 8b 4c 24 30	 mov	 rcx, QWORD PTR hEntry$[rsp]
  00099	48 8b 49 18	 mov	 rcx, QWORD PTR [rcx+24]
  0009d	ba 01 00 00 00	 mov	 edx, 1
  000a2	48 6b d2 03	 imul	 rdx, rdx, 3
  000a6	48 8b 04 01	 mov	 rax, QWORD PTR [rcx+rax]
  000aa	0f b6 04 10	 movzx	 eax, BYTE PTR [rax+rdx]
  000ae	b9 08 00 00 00	 mov	 ecx, 8
  000b3	48 6b c9 00	 imul	 rcx, rcx, 0
  000b7	48 8b 54 24 30	 mov	 rdx, QWORD PTR hEntry$[rsp]
  000bc	48 8b 52 18	 mov	 rdx, QWORD PTR [rdx+24]
  000c0	41 b8 01 00 00
	00		 mov	 r8d, 1
  000c6	4d 6b c0 02	 imul	 r8, r8, 2
  000ca	48 8b 0c 0a	 mov	 rcx, QWORD PTR [rdx+rcx]
  000ce	42 0f b6 0c 01	 movzx	 ecx, BYTE PTR [rcx+r8]
  000d3	ba 08 00 00 00	 mov	 edx, 8
  000d8	48 6b d2 00	 imul	 rdx, rdx, 0
  000dc	4c 8b 44 24 30	 mov	 r8, QWORD PTR hEntry$[rsp]
  000e1	4d 8b 40 18	 mov	 r8, QWORD PTR [r8+24]
  000e5	41 b9 01 00 00
	00		 mov	 r9d, 1
  000eb	4d 6b c9 01	 imul	 r9, r9, 1
  000ef	49 8b 14 10	 mov	 rdx, QWORD PTR [r8+rdx]
  000f3	42 0f b6 14 0a	 movzx	 edx, BYTE PTR [rdx+r9]
  000f8	41 b8 08 00 00
	00		 mov	 r8d, 8
  000fe	4d 6b c0 00	 imul	 r8, r8, 0
  00102	4c 8b 4c 24 30	 mov	 r9, QWORD PTR hEntry$[rsp]
  00107	4d 8b 49 18	 mov	 r9, QWORD PTR [r9+24]
  0010b	41 ba 01 00 00
	00		 mov	 r10d, 1
  00111	4d 6b d2 00	 imul	 r10, r10, 0
  00115	4f 8b 04 01	 mov	 r8, QWORD PTR [r9+r8]
  00119	47 0f b6 04 10	 movzx	 r8d, BYTE PTR [r8+r10]
  0011e	89 44 24 28	 mov	 DWORD PTR [rsp+40], eax
  00122	89 4c 24 20	 mov	 DWORD PTR [rsp+32], ecx
  00126	44 8b ca	 mov	 r9d, edx
  00129	48 8d 15 00 00
	00 00		 lea	 rdx, OFFSET FLAT:$SG84699
  00130	48 8d 0d 00 00
	00 00		 lea	 rcx, OFFSET FLAT:?_hostIP@?1??GetHostIP@WVSocket@@SAPEBDXZ@4PADA
  00137	e8 00 00 00 00	 call	 sprintf

; 356  : 				(unsigned char)hEntry->h_addr_list[0][0],
; 357  : 				(unsigned char)hEntry->h_addr_list[0][1],
; 358  : 				(unsigned char)hEntry->h_addr_list[0][2],
; 359  : 				(unsigned char)hEntry->h_addr_list[0][3]);
; 360  : 			return _hostIP;

  0013c	48 8d 05 00 00
	00 00		 lea	 rax, OFFSET FLAT:?_hostIP@?1??GetHostIP@WVSocket@@SAPEBDXZ@4PADA
  00143	eb 02		 jmp	 SHORT $LN1@GetHostIP
$LN3@GetHostIP:
$LN2@GetHostIP:

; 361  : 		}
; 362  : 	}
; 363  : 	return NULL;

  00145	33 c0		 xor	 eax, eax
$LN1@GetHostIP:

; 364  : }

  00147	48 8b f8	 mov	 rdi, rax
  0014a	48 8b cc	 mov	 rcx, rsp
  0014d	48 8d 15 00 00
	00 00		 lea	 rdx, OFFSET FLAT:?GetHostIP@WVSocket@@SAPEBDXZ$rtcFrameData
  00154	e8 00 00 00 00	 call	 _RTC_CheckStackVars
  00159	48 8b c7	 mov	 rax, rdi
  0015c	48 8b 8c 24 e0
	00 00 00	 mov	 rcx, QWORD PTR __$ArrayPad$[rsp]
  00164	48 33 cc	 xor	 rcx, rsp
  00167	e8 00 00 00 00	 call	 __security_check_cookie
  0016c	48 81 c4 f0 00
	00 00		 add	 rsp, 240		; 000000f0H
  00173	5f		 pop	 rdi
  00174	c3		 ret	 0
?GetHostIP@WVSocket@@SAPEBDXZ ENDP			; WVSocket::GetHostIP
_TEXT	ENDS
; Function compile flags: /Odtp /RTCsu
; File e:\infinia-library-3.0\com\src\wvsocket.cpp
_TEXT	SEGMENT
nSize$ = 32
nPos$ = 36
nTmp$ = 40
tmpBuf$ = 52
$T4 = 80
$T5 = 88
__$ArrayPad$ = 96
this$ = 128
szBuffer$ = 136
nBLen$ = 144
?RecvStringData@WVSocket@@QEAAHPEADH@Z PROC		; WVSocket::RecvStringData

; 293  : {

$LN13:
  00000	44 89 44 24 18	 mov	 DWORD PTR [rsp+24], r8d
  00005	48 89 54 24 10	 mov	 QWORD PTR [rsp+16], rdx
  0000a	48 89 4c 24 08	 mov	 QWORD PTR [rsp+8], rcx
  0000f	57		 push	 rdi
  00010	48 83 ec 70	 sub	 rsp, 112		; 00000070H
  00014	48 8b fc	 mov	 rdi, rsp
  00017	b9 1c 00 00 00	 mov	 ecx, 28
  0001c	b8 cc cc cc cc	 mov	 eax, -858993460		; ccccccccH
  00021	f3 ab		 rep stosd
  00023	48 8b 8c 24 80
	00 00 00	 mov	 rcx, QWORD PTR [rsp+128]
  0002b	48 8b 05 00 00
	00 00		 mov	 rax, QWORD PTR __security_cookie
  00032	48 33 c4	 xor	 rax, rsp
  00035	48 89 44 24 60	 mov	 QWORD PTR __$ArrayPad$[rsp], rax

; 294  : 	int nSize = 0;

  0003a	c7 44 24 20 00
	00 00 00	 mov	 DWORD PTR nSize$[rsp], 0

; 295  : 	int nPos = 0;

  00042	c7 44 24 24 00
	00 00 00	 mov	 DWORD PTR nPos$[rsp], 0

; 296  : 	int nTmp = 0;

  0004a	c7 44 24 28 00
	00 00 00	 mov	 DWORD PTR nTmp$[rsp], 0

; 297  : 	char	tmpBuf[5];
; 298  : 
; 299  : 	nTmp = GetData(tmpBuf, 3, DEF_TIMEOUT);

  00052	41 b9 03 00 00
	00		 mov	 r9d, 3
  00058	41 b8 03 00 00
	00		 mov	 r8d, 3
  0005e	48 8d 54 24 34	 lea	 rdx, QWORD PTR tmpBuf$[rsp]
  00063	48 8b 8c 24 80
	00 00 00	 mov	 rcx, QWORD PTR this$[rsp]
  0006b	e8 00 00 00 00	 call	 ?GetData@WVSocket@@QEAAHPEADHJ@Z ; WVSocket::GetData
  00070	89 44 24 28	 mov	 DWORD PTR nTmp$[rsp], eax

; 300  : 	nPos += 3;

  00074	8b 44 24 24	 mov	 eax, DWORD PTR nPos$[rsp]
  00078	83 c0 03	 add	 eax, 3
  0007b	89 44 24 24	 mov	 DWORD PTR nPos$[rsp], eax

; 301  : 
; 302  : 	if (nTmp == -1) {

  0007f	83 7c 24 28 ff	 cmp	 DWORD PTR nTmp$[rsp], -1
  00084	75 34		 jne	 SHORT $LN2@RecvString

; 303  : 		onClose();

  00086	48 8b 8c 24 80
	00 00 00	 mov	 rcx, QWORD PTR this$[rsp]
  0008e	e8 00 00 00 00	 call	 ?onClose@WVSocket@@IEAAXXZ ; WVSocket::onClose

; 304  : 		strcpy(m_szErrMsg, "WVSocket::RecvStringData length Reading Down!");

  00093	48 8b 84 24 80
	00 00 00	 mov	 rax, QWORD PTR this$[rsp]
  0009b	48 83 c0 44	 add	 rax, 68			; 00000044H
  0009f	48 8d 15 00 00
	00 00		 lea	 rdx, OFFSET FLAT:$SG84677
  000a6	48 8b c8	 mov	 rcx, rax
  000a9	e8 00 00 00 00	 call	 strcpy

; 305  : 		return -1;

  000ae	b8 ff ff ff ff	 mov	 eax, -1
  000b3	e9 ed 01 00 00	 jmp	 $LN1@RecvString
  000b8	eb 39		 jmp	 SHORT $LN3@RecvString
$LN2@RecvString:

; 306  : 	}
; 307  : 	else if (nTmp == -2) {

  000ba	83 7c 24 28 fe	 cmp	 DWORD PTR nTmp$[rsp], -2
  000bf	75 32		 jne	 SHORT $LN4@RecvString

; 308  : 		onClose();

  000c1	48 8b 8c 24 80
	00 00 00	 mov	 rcx, QWORD PTR this$[rsp]
  000c9	e8 00 00 00 00	 call	 ?onClose@WVSocket@@IEAAXXZ ; WVSocket::onClose

; 309  : 		strcpy(m_szErrMsg, "WVSocket::RecvStringData length Reading Timeout!");

  000ce	48 8b 84 24 80
	00 00 00	 mov	 rax, QWORD PTR this$[rsp]
  000d6	48 83 c0 44	 add	 rax, 68			; 00000044H
  000da	48 8d 15 00 00
	00 00		 lea	 rdx, OFFSET FLAT:$SG84679
  000e1	48 8b c8	 mov	 rcx, rax
  000e4	e8 00 00 00 00	 call	 strcpy

; 310  : 		return -1;

  000e9	b8 ff ff ff ff	 mov	 eax, -1
  000ee	e9 b2 01 00 00	 jmp	 $LN1@RecvString
$LN4@RecvString:
$LN3@RecvString:

; 311  : 	}
; 312  : 	SLEEP(1);

  000f3	b9 e8 03 00 00	 mov	 ecx, 1000		; 000003e8H
  000f8	ff 15 00 00 00
	00		 call	 QWORD PTR __imp_Sleep

; 313  : 	//패킷 총 길이 계산하기
; 314  : 	nSize = atoi(tmpBuf);

  000fe	48 8d 4c 24 34	 lea	 rcx, QWORD PTR tmpBuf$[rsp]
  00103	ff 15 00 00 00
	00		 call	 QWORD PTR __imp_atoi
  00109	89 44 24 20	 mov	 DWORD PTR nSize$[rsp], eax

; 315  : 	if (m_nRecvBLen < nPos + nSize + 1) {

  0010d	8b 44 24 24	 mov	 eax, DWORD PTR nPos$[rsp]
  00111	8b 4c 24 20	 mov	 ecx, DWORD PTR nSize$[rsp]
  00115	8d 44 08 01	 lea	 eax, DWORD PTR [rax+rcx+1]
  00119	48 8b 8c 24 80
	00 00 00	 mov	 rcx, QWORD PTR this$[rsp]
  00121	39 41 18	 cmp	 DWORD PTR [rcx+24], eax
  00124	0f 8d 84 00 00
	00		 jge	 $LN5@RecvString

; 316  : 		if (m_szRecvData)

  0012a	48 8b 84 24 80
	00 00 00	 mov	 rax, QWORD PTR this$[rsp]
  00132	48 83 78 10 00	 cmp	 QWORD PTR [rax+16], 0
  00137	74 1b		 je	 SHORT $LN6@RecvString

; 317  : 			delete [] m_szRecvData;	//20100127

  00139	48 8b 84 24 80
	00 00 00	 mov	 rax, QWORD PTR this$[rsp]
  00141	48 8b 40 10	 mov	 rax, QWORD PTR [rax+16]
  00145	48 89 44 24 50	 mov	 QWORD PTR $T4[rsp], rax
  0014a	48 8b 4c 24 50	 mov	 rcx, QWORD PTR $T4[rsp]
  0014f	e8 00 00 00 00	 call	 ??_V@YAXPEAX@Z		; operator delete[]
$LN6@RecvString:

; 318  : 		m_nRecvBLen = nPos+nSize+1;

  00154	8b 44 24 24	 mov	 eax, DWORD PTR nPos$[rsp]
  00158	8b 4c 24 20	 mov	 ecx, DWORD PTR nSize$[rsp]
  0015c	8d 44 08 01	 lea	 eax, DWORD PTR [rax+rcx+1]
  00160	48 8b 8c 24 80
	00 00 00	 mov	 rcx, QWORD PTR this$[rsp]
  00168	89 41 18	 mov	 DWORD PTR [rcx+24], eax

; 319  : 		m_szRecvData = new char[m_nRecvBLen];

  0016b	48 8b 84 24 80
	00 00 00	 mov	 rax, QWORD PTR this$[rsp]
  00173	48 63 40 18	 movsxd	 rax, DWORD PTR [rax+24]
  00177	48 8b c8	 mov	 rcx, rax
  0017a	e8 00 00 00 00	 call	 ??_U@YAPEAX_K@Z		; operator new[]
  0017f	48 89 44 24 58	 mov	 QWORD PTR $T5[rsp], rax
  00184	48 8b 84 24 80
	00 00 00	 mov	 rax, QWORD PTR this$[rsp]
  0018c	48 8b 4c 24 58	 mov	 rcx, QWORD PTR $T5[rsp]
  00191	48 89 48 10	 mov	 QWORD PTR [rax+16], rcx

; 320  : 		if (m_szRecvData == NULL)

  00195	48 8b 84 24 80
	00 00 00	 mov	 rax, QWORD PTR this$[rsp]
  0019d	48 83 78 10 00	 cmp	 QWORD PTR [rax+16], 0
  001a2	75 0a		 jne	 SHORT $LN7@RecvString

; 321  : 			return -1;

  001a4	b8 ff ff ff ff	 mov	 eax, -1
  001a9	e9 f7 00 00 00	 jmp	 $LN1@RecvString
$LN7@RecvString:
$LN5@RecvString:

; 322  : 	}
; 323  : 	memset(m_szRecvData, 0, m_nRecvBLen);

  001ae	48 8b 84 24 80
	00 00 00	 mov	 rax, QWORD PTR this$[rsp]
  001b6	48 63 40 18	 movsxd	 rax, DWORD PTR [rax+24]
  001ba	4c 8b c0	 mov	 r8, rax
  001bd	33 d2		 xor	 edx, edx
  001bf	48 8b 84 24 80
	00 00 00	 mov	 rax, QWORD PTR this$[rsp]
  001c7	48 8b 48 10	 mov	 rcx, QWORD PTR [rax+16]
  001cb	e8 00 00 00 00	 call	 memset

; 324  : 	c_memcpy(m_szRecvData, tmpBuf, nPos);

  001d0	44 8b 44 24 24	 mov	 r8d, DWORD PTR nPos$[rsp]
  001d5	48 8d 54 24 34	 lea	 rdx, QWORD PTR tmpBuf$[rsp]
  001da	48 8b 84 24 80
	00 00 00	 mov	 rax, QWORD PTR this$[rsp]
  001e2	48 8b 48 10	 mov	 rcx, QWORD PTR [rax+16]
  001e6	e8 00 00 00 00	 call	 ?c_memcpy@@YAPEAXPEAXPEBXH@Z ; c_memcpy

; 325  : 	
; 326  : 	if((nTmp = GetData(m_szRecvData+nPos, nSize - nPos, DEF_TIMEOUT)) == -1) {

  001eb	8b 44 24 24	 mov	 eax, DWORD PTR nPos$[rsp]
  001ef	8b 4c 24 20	 mov	 ecx, DWORD PTR nSize$[rsp]
  001f3	2b c8		 sub	 ecx, eax
  001f5	8b c1		 mov	 eax, ecx
  001f7	48 63 4c 24 24	 movsxd	 rcx, DWORD PTR nPos$[rsp]
  001fc	48 8b 94 24 80
	00 00 00	 mov	 rdx, QWORD PTR this$[rsp]
  00204	48 03 4a 10	 add	 rcx, QWORD PTR [rdx+16]
  00208	41 b9 03 00 00
	00		 mov	 r9d, 3
  0020e	44 8b c0	 mov	 r8d, eax
  00211	48 8b d1	 mov	 rdx, rcx
  00214	48 8b 8c 24 80
	00 00 00	 mov	 rcx, QWORD PTR this$[rsp]
  0021c	e8 00 00 00 00	 call	 ?GetData@WVSocket@@QEAAHPEADHJ@Z ; WVSocket::GetData
  00221	89 44 24 28	 mov	 DWORD PTR nTmp$[rsp], eax
  00225	83 7c 24 28 ff	 cmp	 DWORD PTR nTmp$[rsp], -1
  0022a	75 16		 jne	 SHORT $LN8@RecvString

; 327  : 		onClose();

  0022c	48 8b 8c 24 80
	00 00 00	 mov	 rcx, QWORD PTR this$[rsp]
  00234	e8 00 00 00 00	 call	 ?onClose@WVSocket@@IEAAXXZ ; WVSocket::onClose

; 328  : 		return -1;

  00239	b8 ff ff ff ff	 mov	 eax, -1
  0023e	eb 65		 jmp	 SHORT $LN1@RecvString
  00240	eb 1b		 jmp	 SHORT $LN9@RecvString
$LN8@RecvString:

; 329  : 	}
; 330  : 	else if (nTmp == -2) {

  00242	83 7c 24 28 fe	 cmp	 DWORD PTR nTmp$[rsp], -2
  00247	75 14		 jne	 SHORT $LN10@RecvString

; 331  : 		onClose();

  00249	48 8b 8c 24 80
	00 00 00	 mov	 rcx, QWORD PTR this$[rsp]
  00251	e8 00 00 00 00	 call	 ?onClose@WVSocket@@IEAAXXZ ; WVSocket::onClose

; 332  : 		return -1;

  00256	b8 ff ff ff ff	 mov	 eax, -1
  0025b	eb 48		 jmp	 SHORT $LN1@RecvString
$LN10@RecvString:
$LN9@RecvString:

; 333  : 	}
; 334  : 
; 335  : 	nPos = nSize;

  0025d	8b 44 24 20	 mov	 eax, DWORD PTR nSize$[rsp]
  00261	89 44 24 24	 mov	 DWORD PTR nPos$[rsp], eax

; 336  : 	if (nBLen < nPos) {

  00265	8b 44 24 24	 mov	 eax, DWORD PTR nPos$[rsp]
  00269	39 84 24 90 00
	00 00		 cmp	 DWORD PTR nBLen$[rsp], eax
  00270	7d 07		 jge	 SHORT $LN11@RecvString

; 337  : 		return -2;

  00272	b8 fe ff ff ff	 mov	 eax, -2
  00277	eb 2c		 jmp	 SHORT $LN1@RecvString
$LN11@RecvString:

; 338  : 	}
; 339  : 
; 340  : 	strcpy(szBuffer, m_szRecvData);

  00279	48 8b 84 24 80
	00 00 00	 mov	 rax, QWORD PTR this$[rsp]
  00281	48 8b 50 10	 mov	 rdx, QWORD PTR [rax+16]
  00285	48 8b 8c 24 88
	00 00 00	 mov	 rcx, QWORD PTR szBuffer$[rsp]
  0028d	e8 00 00 00 00	 call	 strcpy

; 341  : 	m_nRecvDLen = nPos;

  00292	48 8b 84 24 80
	00 00 00	 mov	 rax, QWORD PTR this$[rsp]
  0029a	8b 4c 24 24	 mov	 ecx, DWORD PTR nPos$[rsp]
  0029e	89 48 1c	 mov	 DWORD PTR [rax+28], ecx

; 342  : 	return nPos;

  002a1	8b 44 24 24	 mov	 eax, DWORD PTR nPos$[rsp]
$LN1@RecvString:

; 343  : }

  002a5	48 8b f8	 mov	 rdi, rax
  002a8	48 8b cc	 mov	 rcx, rsp
  002ab	48 8d 15 00 00
	00 00		 lea	 rdx, OFFSET FLAT:?RecvStringData@WVSocket@@QEAAHPEADH@Z$rtcFrameData
  002b2	e8 00 00 00 00	 call	 _RTC_CheckStackVars
  002b7	48 8b c7	 mov	 rax, rdi
  002ba	48 8b 4c 24 60	 mov	 rcx, QWORD PTR __$ArrayPad$[rsp]
  002bf	48 33 cc	 xor	 rcx, rsp
  002c2	e8 00 00 00 00	 call	 __security_check_cookie
  002c7	48 83 c4 70	 add	 rsp, 112		; 00000070H
  002cb	5f		 pop	 rdi
  002cc	c3		 ret	 0
?RecvStringData@WVSocket@@QEAAHPEADH@Z ENDP		; WVSocket::RecvStringData
_TEXT	ENDS
; Function compile flags: /Odtp /RTCsu
; File e:\infinia-library-3.0\com\src\wvsocket.cpp
_TEXT	SEGMENT
nSize$ = 32
tv83 = 36
this$ = 64
nLen$ = 72
szBuffer$ = 80
nBLen$ = 88
?SendNRecv@WVSocket@@QEAAHPEAHPEADH@Z PROC		; WVSocket::SendNRecv

; 181  : {

$LN7:
  00000	44 89 4c 24 20	 mov	 DWORD PTR [rsp+32], r9d
  00005	4c 89 44 24 18	 mov	 QWORD PTR [rsp+24], r8
  0000a	48 89 54 24 10	 mov	 QWORD PTR [rsp+16], rdx
  0000f	48 89 4c 24 08	 mov	 QWORD PTR [rsp+8], rcx
  00014	57		 push	 rdi
  00015	48 83 ec 30	 sub	 rsp, 48			; 00000030H
  00019	48 8b fc	 mov	 rdi, rsp
  0001c	b9 0c 00 00 00	 mov	 ecx, 12
  00021	b8 cc cc cc cc	 mov	 eax, -858993460		; ccccccccH
  00026	f3 ab		 rep stosd
  00028	48 8b 4c 24 40	 mov	 rcx, QWORD PTR [rsp+64]

; 182  : 	if(m_nSocket < 0)	return -1;

  0002d	48 8b 44 24 40	 mov	 rax, QWORD PTR this$[rsp]
  00032	48 83 78 08 00	 cmp	 QWORD PTR [rax+8], 0
  00037	73 0a		 jae	 SHORT $LN2@SendNRecv
  00039	b8 ff ff ff ff	 mov	 eax, -1
  0003e	e9 a2 00 00 00	 jmp	 $LN1@SendNRecv
$LN2@SendNRecv:

; 183  : 
; 184  : 	int nSize = send(m_nSocket, szBuffer, *nLen, NODELAY);

  00043	45 33 c9	 xor	 r9d, r9d
  00046	48 8b 44 24 48	 mov	 rax, QWORD PTR nLen$[rsp]
  0004b	44 8b 00	 mov	 r8d, DWORD PTR [rax]
  0004e	48 8b 54 24 50	 mov	 rdx, QWORD PTR szBuffer$[rsp]
  00053	48 8b 44 24 40	 mov	 rax, QWORD PTR this$[rsp]
  00058	48 8b 48 08	 mov	 rcx, QWORD PTR [rax+8]
  0005c	ff 15 00 00 00
	00		 call	 QWORD PTR __imp_send
  00062	89 44 24 20	 mov	 DWORD PTR nSize$[rsp], eax

; 185  : 	if(nSize != *nLen) {

  00066	48 8b 44 24 48	 mov	 rax, QWORD PTR nLen$[rsp]
  0006b	8b 00		 mov	 eax, DWORD PTR [rax]
  0006d	39 44 24 20	 cmp	 DWORD PTR nSize$[rsp], eax
  00071	74 29		 je	 SHORT $LN3@SendNRecv

; 186  : 		strcpy(m_szErrMsg, "WVSocket::ConnectTo Socket send Error");		

  00073	48 8b 44 24 40	 mov	 rax, QWORD PTR this$[rsp]
  00078	48 83 c0 44	 add	 rax, 68			; 00000044H
  0007c	48 8d 15 00 00
	00 00		 lea	 rdx, OFFSET FLAT:$SG84618
  00083	48 8b c8	 mov	 rcx, rax
  00086	e8 00 00 00 00	 call	 strcpy

; 187  : 		onClose();

  0008b	48 8b 4c 24 40	 mov	 rcx, QWORD PTR this$[rsp]
  00090	e8 00 00 00 00	 call	 ?onClose@WVSocket@@IEAAXXZ ; WVSocket::onClose

; 188  : 		return -1;

  00095	b8 ff ff ff ff	 mov	 eax, -1
  0009a	eb 49		 jmp	 SHORT $LN1@SendNRecv
$LN3@SendNRecv:

; 189  : 	}
; 190  : 	SLEEP(1);

  0009c	b9 e8 03 00 00	 mov	 ecx, 1000		; 000003e8H
  000a1	ff 15 00 00 00
	00		 call	 QWORD PTR __imp_Sleep

; 191  : 	*nLen = RecvStringData(szBuffer, nBLen);

  000a7	44 8b 44 24 58	 mov	 r8d, DWORD PTR nBLen$[rsp]
  000ac	48 8b 54 24 50	 mov	 rdx, QWORD PTR szBuffer$[rsp]
  000b1	48 8b 4c 24 40	 mov	 rcx, QWORD PTR this$[rsp]
  000b6	e8 00 00 00 00	 call	 ?RecvStringData@WVSocket@@QEAAHPEADH@Z ; WVSocket::RecvStringData
  000bb	48 8b 4c 24 48	 mov	 rcx, QWORD PTR nLen$[rsp]
  000c0	89 01		 mov	 DWORD PTR [rcx], eax

; 192  : 	return *nLen < 0 ? -1 : *nLen;

  000c2	48 8b 44 24 48	 mov	 rax, QWORD PTR nLen$[rsp]
  000c7	83 38 00	 cmp	 DWORD PTR [rax], 0
  000ca	7d 0a		 jge	 SHORT $LN5@SendNRecv
  000cc	c7 44 24 24 ff
	ff ff ff	 mov	 DWORD PTR tv83[rsp], -1
  000d4	eb 0b		 jmp	 SHORT $LN6@SendNRecv
$LN5@SendNRecv:
  000d6	48 8b 44 24 48	 mov	 rax, QWORD PTR nLen$[rsp]
  000db	8b 00		 mov	 eax, DWORD PTR [rax]
  000dd	89 44 24 24	 mov	 DWORD PTR tv83[rsp], eax
$LN6@SendNRecv:
  000e1	8b 44 24 24	 mov	 eax, DWORD PTR tv83[rsp]
$LN1@SendNRecv:

; 193  : }

  000e5	48 83 c4 30	 add	 rsp, 48			; 00000030H
  000e9	5f		 pop	 rdi
  000ea	c3		 ret	 0
?SendNRecv@WVSocket@@QEAAHPEAHPEADH@Z ENDP		; WVSocket::SendNRecv
_TEXT	ENDS
; Function compile flags: /Odtp /RTCsu
; File e:\infinia-library-3.0\com\src\wvsocket.cpp
_TEXT	SEGMENT
sa$ = 40
nRet$ = 68
__$ArrayPad$ = 80
this$ = 112
szIP$ = 120
nPort$ = 128
?ConnectTo@WVSocket@@QEAAHPEBDH@Z PROC			; WVSocket::ConnectTo

; 151  : {

$LN6:
  00000	44 89 44 24 18	 mov	 DWORD PTR [rsp+24], r8d
  00005	48 89 54 24 10	 mov	 QWORD PTR [rsp+16], rdx
  0000a	48 89 4c 24 08	 mov	 QWORD PTR [rsp+8], rcx
  0000f	57		 push	 rdi
  00010	48 83 ec 60	 sub	 rsp, 96			; 00000060H
  00014	48 8b fc	 mov	 rdi, rsp
  00017	b9 18 00 00 00	 mov	 ecx, 24
  0001c	b8 cc cc cc cc	 mov	 eax, -858993460		; ccccccccH
  00021	f3 ab		 rep stosd
  00023	48 8b 4c 24 70	 mov	 rcx, QWORD PTR [rsp+112]
  00028	48 8b 05 00 00
	00 00		 mov	 rax, QWORD PTR __security_cookie
  0002f	48 33 c4	 xor	 rax, rsp
  00032	48 89 44 24 50	 mov	 QWORD PTR __$ArrayPad$[rsp], rax

; 152  : 	struct sockaddr_in sa;
; 153  : 	
; 154  : 	strcpy(m_szIP, szIP);

  00037	48 8b 44 24 70	 mov	 rax, QWORD PTR this$[rsp]
  0003c	48 83 c0 20	 add	 rax, 32			; 00000020H
  00040	48 8b 54 24 78	 mov	 rdx, QWORD PTR szIP$[rsp]
  00045	48 8b c8	 mov	 rcx, rax
  00048	e8 00 00 00 00	 call	 strcpy

; 155  : 	m_nPort = nPort;

  0004d	48 8b 44 24 70	 mov	 rax, QWORD PTR this$[rsp]
  00052	8b 8c 24 80 00
	00 00		 mov	 ecx, DWORD PTR nPort$[rsp]
  00059	89 48 40	 mov	 DWORD PTR [rax+64], ecx

; 156  : 	if (m_nSocket == -1) {

  0005c	48 8b 44 24 70	 mov	 rax, QWORD PTR this$[rsp]
  00061	48 83 78 08 ff	 cmp	 QWORD PTR [rax+8], -1
  00066	75 4a		 jne	 SHORT $LN2@ConnectTo

; 157  : 		m_nSocket = ::socket(SOCK_FLAG, SOCK_STREAM, 0);

  00068	45 33 c0	 xor	 r8d, r8d
  0006b	ba 01 00 00 00	 mov	 edx, 1
  00070	b9 02 00 00 00	 mov	 ecx, 2
  00075	ff 15 00 00 00
	00		 call	 QWORD PTR __imp_socket
  0007b	48 8b 4c 24 70	 mov	 rcx, QWORD PTR this$[rsp]
  00080	48 89 41 08	 mov	 QWORD PTR [rcx+8], rax

; 158  : 		if (m_nSocket == -1) {

  00084	48 8b 44 24 70	 mov	 rax, QWORD PTR this$[rsp]
  00089	48 83 78 08 ff	 cmp	 QWORD PTR [rax+8], -1
  0008e	75 22		 jne	 SHORT $LN3@ConnectTo

; 159  : 			strcpy(m_szErrMsg, "WVSocket::ConnectTo Socket create Error");

  00090	48 8b 44 24 70	 mov	 rax, QWORD PTR this$[rsp]
  00095	48 83 c0 44	 add	 rax, 68			; 00000044H
  00099	48 8d 15 00 00
	00 00		 lea	 rdx, OFFSET FLAT:$SG84606
  000a0	48 8b c8	 mov	 rcx, rax
  000a3	e8 00 00 00 00	 call	 strcpy

; 160  : 			return -1;

  000a8	b8 ff ff ff ff	 mov	 eax, -1
  000ad	e9 98 00 00 00	 jmp	 $LN1@ConnectTo
$LN3@ConnectTo:
$LN2@ConnectTo:

; 161  : 		}
; 162  : 	}
; 163  : 
; 164  : 	memset(&sa, 0x00, sizeof(sa));

  000b2	41 b8 10 00 00
	00		 mov	 r8d, 16
  000b8	33 d2		 xor	 edx, edx
  000ba	48 8d 4c 24 28	 lea	 rcx, QWORD PTR sa$[rsp]
  000bf	e8 00 00 00 00	 call	 memset

; 165  : 	
; 166  : 	sa.sin_family = AF_INET;

  000c4	b8 02 00 00 00	 mov	 eax, 2
  000c9	66 89 44 24 28	 mov	 WORD PTR sa$[rsp], ax

; 167  : 	sa.sin_port = htons((short)nPort);

  000ce	0f b7 8c 24 80
	00 00 00	 movzx	 ecx, WORD PTR nPort$[rsp]
  000d6	ff 15 00 00 00
	00		 call	 QWORD PTR __imp_htons
  000dc	66 89 44 24 2a	 mov	 WORD PTR sa$[rsp+2], ax

; 168  : 	sa.sin_addr.s_addr = inet_addr(szIP);

  000e1	48 8b 4c 24 78	 mov	 rcx, QWORD PTR szIP$[rsp]
  000e6	ff 15 00 00 00
	00		 call	 QWORD PTR __imp_inet_addr
  000ec	89 44 24 2c	 mov	 DWORD PTR sa$[rsp+4], eax

; 169  : 	
; 170  : 	int nRet = connect(m_nSocket, (struct sockaddr*)&sa, sizeof(sockaddr_in));

  000f0	41 b8 10 00 00
	00		 mov	 r8d, 16
  000f6	48 8d 54 24 28	 lea	 rdx, QWORD PTR sa$[rsp]
  000fb	48 8b 44 24 70	 mov	 rax, QWORD PTR this$[rsp]
  00100	48 8b 48 08	 mov	 rcx, QWORD PTR [rax+8]
  00104	ff 15 00 00 00
	00		 call	 QWORD PTR __imp_connect
  0010a	89 44 24 44	 mov	 DWORD PTR nRet$[rsp], eax

; 171  : 	if(nRet == -1) {

  0010e	83 7c 24 44 ff	 cmp	 DWORD PTR nRet$[rsp], -1
  00113	75 28		 jne	 SHORT $LN4@ConnectTo

; 172  : 		strcpy(m_szErrMsg, "WVSocket::ConnectTo Socket connect Error");		

  00115	48 8b 44 24 70	 mov	 rax, QWORD PTR this$[rsp]
  0011a	48 83 c0 44	 add	 rax, 68			; 00000044H
  0011e	48 8d 15 00 00
	00 00		 lea	 rdx, OFFSET FLAT:$SG84608
  00125	48 8b c8	 mov	 rcx, rax
  00128	e8 00 00 00 00	 call	 strcpy

; 173  : 		onClose();

  0012d	48 8b 4c 24 70	 mov	 rcx, QWORD PTR this$[rsp]
  00132	e8 00 00 00 00	 call	 ?onClose@WVSocket@@IEAAXXZ ; WVSocket::onClose

; 174  : 		return nRet;

  00137	8b 44 24 44	 mov	 eax, DWORD PTR nRet$[rsp]
  0013b	eb 0d		 jmp	 SHORT $LN1@ConnectTo
$LN4@ConnectTo:

; 175  : 	}
; 176  : 	m_bConnected = true;

  0013d	48 8b 44 24 70	 mov	 rax, QWORD PTR this$[rsp]
  00142	c6 00 01	 mov	 BYTE PTR [rax], 1

; 177  : 	return 1;

  00145	b8 01 00 00 00	 mov	 eax, 1
$LN1@ConnectTo:

; 178  : }

  0014a	48 8b f8	 mov	 rdi, rax
  0014d	48 8b cc	 mov	 rcx, rsp
  00150	48 8d 15 00 00
	00 00		 lea	 rdx, OFFSET FLAT:?ConnectTo@WVSocket@@QEAAHPEBDH@Z$rtcFrameData
  00157	e8 00 00 00 00	 call	 _RTC_CheckStackVars
  0015c	48 8b c7	 mov	 rax, rdi
  0015f	48 8b 4c 24 50	 mov	 rcx, QWORD PTR __$ArrayPad$[rsp]
  00164	48 33 cc	 xor	 rcx, rsp
  00167	e8 00 00 00 00	 call	 __security_check_cookie
  0016c	48 83 c4 60	 add	 rsp, 96			; 00000060H
  00170	5f		 pop	 rdi
  00171	c3		 ret	 0
?ConnectTo@WVSocket@@QEAAHPEBDH@Z ENDP			; WVSocket::ConnectTo
_TEXT	ENDS
; Function compile flags: /Odtp /RTCsu
; File e:\infinia-library-3.0\com\src\wvsocket.cpp
_TEXT	SEGMENT
this$ = 48
pBuf$ = 56
nBLen$ = 64
?GetRecvData@WVSocket@@QEAAHPEADH@Z PROC		; WVSocket::GetRecvData

; 112  : {

$LN5:
  00000	44 89 44 24 18	 mov	 DWORD PTR [rsp+24], r8d
  00005	48 89 54 24 10	 mov	 QWORD PTR [rsp+16], rdx
  0000a	48 89 4c 24 08	 mov	 QWORD PTR [rsp+8], rcx
  0000f	57		 push	 rdi
  00010	48 83 ec 20	 sub	 rsp, 32			; 00000020H
  00014	48 8b fc	 mov	 rdi, rsp
  00017	b9 08 00 00 00	 mov	 ecx, 8
  0001c	b8 cc cc cc cc	 mov	 eax, -858993460		; ccccccccH
  00021	f3 ab		 rep stosd
  00023	48 8b 4c 24 30	 mov	 rcx, QWORD PTR [rsp+48]

; 113  : 	if (m_szRecvData && pBuf) {

  00028	48 8b 44 24 30	 mov	 rax, QWORD PTR this$[rsp]
  0002d	48 83 78 10 00	 cmp	 QWORD PTR [rax+16], 0
  00032	74 58		 je	 SHORT $LN2@GetRecvDat
  00034	48 83 7c 24 38
	00		 cmp	 QWORD PTR pBuf$[rsp], 0
  0003a	74 50		 je	 SHORT $LN2@GetRecvDat

; 114  : 		if (nBLen < m_nRecvDLen) {

  0003c	48 8b 44 24 30	 mov	 rax, QWORD PTR this$[rsp]
  00041	8b 40 1c	 mov	 eax, DWORD PTR [rax+28]
  00044	39 44 24 40	 cmp	 DWORD PTR nBLen$[rsp], eax
  00048	7d 1f		 jge	 SHORT $LN3@GetRecvDat

; 115  : 			c_memcpy(pBuf, m_szRecvData, nBLen);

  0004a	44 8b 44 24 40	 mov	 r8d, DWORD PTR nBLen$[rsp]
  0004f	48 8b 44 24 30	 mov	 rax, QWORD PTR this$[rsp]
  00054	48 8b 50 10	 mov	 rdx, QWORD PTR [rax+16]
  00058	48 8b 4c 24 38	 mov	 rcx, QWORD PTR pBuf$[rsp]
  0005d	e8 00 00 00 00	 call	 ?c_memcpy@@YAPEAXPEAXPEBXH@Z ; c_memcpy

; 116  : 			return -1;

  00062	b8 ff ff ff ff	 mov	 eax, -1
  00067	eb 25		 jmp	 SHORT $LN1@GetRecvDat
$LN3@GetRecvDat:

; 117  : 		}
; 118  : 		c_memcpy(pBuf, m_szRecvData, m_nRecvDLen);

  00069	48 8b 44 24 30	 mov	 rax, QWORD PTR this$[rsp]
  0006e	44 8b 40 1c	 mov	 r8d, DWORD PTR [rax+28]
  00072	48 8b 44 24 30	 mov	 rax, QWORD PTR this$[rsp]
  00077	48 8b 50 10	 mov	 rdx, QWORD PTR [rax+16]
  0007b	48 8b 4c 24 38	 mov	 rcx, QWORD PTR pBuf$[rsp]
  00080	e8 00 00 00 00	 call	 ?c_memcpy@@YAPEAXPEAXPEBXH@Z ; c_memcpy

; 119  : 		return 1;

  00085	b8 01 00 00 00	 mov	 eax, 1
  0008a	eb 02		 jmp	 SHORT $LN1@GetRecvDat
$LN2@GetRecvDat:

; 120  : 	}
; 121  : 	return 0;

  0008c	33 c0		 xor	 eax, eax
$LN1@GetRecvDat:

; 122  : }

  0008e	48 83 c4 20	 add	 rsp, 32			; 00000020H
  00092	5f		 pop	 rdi
  00093	c3		 ret	 0
?GetRecvData@WVSocket@@QEAAHPEADH@Z ENDP		; WVSocket::GetRecvData
_TEXT	ENDS
; Function compile flags: /Odtp /RTCsu
; File e:\infinia-library-3.0\com\src\wvsocket.cpp
_TEXT	SEGMENT
this$ = 48
nSocket$ = 56
?SetAcceptedSocket@WVSocket@@QEAAXH@Z PROC		; WVSocket::SetAcceptedSocket

; 104  : {

$LN4:
  00000	89 54 24 10	 mov	 DWORD PTR [rsp+16], edx
  00004	48 89 4c 24 08	 mov	 QWORD PTR [rsp+8], rcx
  00009	57		 push	 rdi
  0000a	48 83 ec 20	 sub	 rsp, 32			; 00000020H
  0000e	48 8b fc	 mov	 rdi, rsp
  00011	b9 08 00 00 00	 mov	 ecx, 8
  00016	b8 cc cc cc cc	 mov	 eax, -858993460		; ccccccccH
  0001b	f3 ab		 rep stosd
  0001d	48 8b 4c 24 30	 mov	 rcx, QWORD PTR [rsp+48]

; 105  : 	if (m_nSocket >= 0)

  00022	48 8b 44 24 30	 mov	 rax, QWORD PTR this$[rsp]
  00027	48 83 78 08 00	 cmp	 QWORD PTR [rax+8], 0
  0002c	72 0f		 jb	 SHORT $LN2@SetAccepte

; 106  : 		SOCKETCLOSE(m_nSocket);

  0002e	48 8b 44 24 30	 mov	 rax, QWORD PTR this$[rsp]
  00033	48 8b 48 08	 mov	 rcx, QWORD PTR [rax+8]
  00037	ff 15 00 00 00
	00		 call	 QWORD PTR __imp_closesocket
$LN2@SetAccepte:

; 107  : 	m_nSocket = nSocket;

  0003d	48 63 44 24 38	 movsxd	 rax, DWORD PTR nSocket$[rsp]
  00042	48 8b 4c 24 30	 mov	 rcx, QWORD PTR this$[rsp]
  00047	48 89 41 08	 mov	 QWORD PTR [rcx+8], rax

; 108  : 	m_bConnected = true;

  0004b	48 8b 44 24 30	 mov	 rax, QWORD PTR this$[rsp]
  00050	c6 00 01	 mov	 BYTE PTR [rax], 1

; 109  : }

  00053	48 83 c4 20	 add	 rsp, 32			; 00000020H
  00057	5f		 pop	 rdi
  00058	c3		 ret	 0
?SetAcceptedSocket@WVSocket@@QEAAXH@Z ENDP		; WVSocket::SetAcceptedSocket
_TEXT	ENDS
; Function compile flags: /Odtp /RTCsu
; File e:\infinia-library-3.0\com\src\wvsocket.cpp
_TEXT	SEGMENT
tmIn$ = 32
tmCur$ = 40
sLen$ = 48
sPos$ = 52
this$ = 80
szBuf$ = 88
nLen$ = 96
ltimeOut$ = 104
?PutData@WVSocket@@QEAAHPEADHJ@Z PROC			; WVSocket::PutData

; 198  : {

$LN14:
  00000	44 89 4c 24 20	 mov	 DWORD PTR [rsp+32], r9d
  00005	44 89 44 24 18	 mov	 DWORD PTR [rsp+24], r8d
  0000a	48 89 54 24 10	 mov	 QWORD PTR [rsp+16], rdx
  0000f	48 89 4c 24 08	 mov	 QWORD PTR [rsp+8], rcx
  00014	57		 push	 rdi
  00015	48 83 ec 40	 sub	 rsp, 64			; 00000040H
  00019	48 8b fc	 mov	 rdi, rsp
  0001c	b9 10 00 00 00	 mov	 ecx, 16
  00021	b8 cc cc cc cc	 mov	 eax, -858993460		; ccccccccH
  00026	f3 ab		 rep stosd
  00028	48 8b 4c 24 50	 mov	 rcx, QWORD PTR [rsp+80]

; 199  : 	time_t	tmIn, tmCur;
; 200  : 	int	sLen, sPos;
; 201  : 
; 202  : 	if (m_nSocket < 0)

  0002d	48 8b 44 24 50	 mov	 rax, QWORD PTR this$[rsp]
  00032	48 83 78 08 00	 cmp	 QWORD PTR [rax+8], 0
  00037	73 0a		 jae	 SHORT $LN4@PutData

; 203  : 		return -1;

  00039	b8 ff ff ff ff	 mov	 eax, -1
  0003e	e9 7a 01 00 00	 jmp	 $LN1@PutData
$LN4@PutData:

; 204  : 	
; 205  : 	if (ltimeOut == 0) {

  00043	83 7c 24 68 00	 cmp	 DWORD PTR ltimeOut$[rsp], 0
  00048	75 5c		 jne	 SHORT $LN5@PutData

; 206  : 		sLen = send(m_nSocket, szBuf, nLen, 0);

  0004a	45 33 c9	 xor	 r9d, r9d
  0004d	44 8b 44 24 60	 mov	 r8d, DWORD PTR nLen$[rsp]
  00052	48 8b 54 24 58	 mov	 rdx, QWORD PTR szBuf$[rsp]
  00057	48 8b 44 24 50	 mov	 rax, QWORD PTR this$[rsp]
  0005c	48 8b 48 08	 mov	 rcx, QWORD PTR [rax+8]
  00060	ff 15 00 00 00
	00		 call	 QWORD PTR __imp_send
  00066	89 44 24 30	 mov	 DWORD PTR sLen$[rsp], eax

; 207  : 		if (sLen < 0) 

  0006a	83 7c 24 30 00	 cmp	 DWORD PTR sLen$[rsp], 0
  0006f	7d 2c		 jge	 SHORT $LN6@PutData

; 208  : 		{
; 209  : 			strcpy(m_szErrMsg, "WVSocket::PutData Socket send Error");	

  00071	48 8b 44 24 50	 mov	 rax, QWORD PTR this$[rsp]
  00076	48 83 c0 44	 add	 rax, 68			; 00000044H
  0007a	48 8d 15 00 00
	00 00		 lea	 rdx, OFFSET FLAT:$SG84634
  00081	48 8b c8	 mov	 rcx, rax
  00084	e8 00 00 00 00	 call	 strcpy

; 210  : 			onClose();

  00089	48 8b 4c 24 50	 mov	 rcx, QWORD PTR this$[rsp]
  0008e	e8 00 00 00 00	 call	 ?onClose@WVSocket@@IEAAXXZ ; WVSocket::onClose

; 211  : 			return -1;

  00093	b8 ff ff ff ff	 mov	 eax, -1
  00098	e9 20 01 00 00	 jmp	 $LN1@PutData
$LN6@PutData:

; 212  : 		}
; 213  : 		return sLen;

  0009d	8b 44 24 30	 mov	 eax, DWORD PTR sLen$[rsp]
  000a1	e9 17 01 00 00	 jmp	 $LN1@PutData
$LN5@PutData:

; 214  : 	}
; 215  : 
; 216  : 	sPos = sLen = 0;

  000a6	c7 44 24 30 00
	00 00 00	 mov	 DWORD PTR sLen$[rsp], 0
  000ae	8b 44 24 30	 mov	 eax, DWORD PTR sLen$[rsp]
  000b2	89 44 24 34	 mov	 DWORD PTR sPos$[rsp], eax

; 217  : 	tmIn = tmCur = time(NULL);

  000b6	33 c9		 xor	 ecx, ecx
  000b8	e8 00 00 00 00	 call	 time
  000bd	48 89 44 24 28	 mov	 QWORD PTR tmCur$[rsp], rax
  000c2	48 8b 44 24 28	 mov	 rax, QWORD PTR tmCur$[rsp]
  000c7	48 89 44 24 20	 mov	 QWORD PTR tmIn$[rsp], rax
$LN13@PutData:
$LN2@PutData:

; 218  : 	while (sPos < nLen) {

  000cc	8b 44 24 60	 mov	 eax, DWORD PTR nLen$[rsp]
  000d0	39 44 24 34	 cmp	 DWORD PTR sPos$[rsp], eax
  000d4	0f 8d df 00 00
	00		 jge	 $LN3@PutData

; 219  : 		sLen = send(m_nSocket, szBuf + sPos, nLen - sPos, NODELAY);

  000da	8b 44 24 34	 mov	 eax, DWORD PTR sPos$[rsp]
  000de	8b 4c 24 60	 mov	 ecx, DWORD PTR nLen$[rsp]
  000e2	2b c8		 sub	 ecx, eax
  000e4	8b c1		 mov	 eax, ecx
  000e6	48 63 4c 24 34	 movsxd	 rcx, DWORD PTR sPos$[rsp]
  000eb	48 8b 54 24 58	 mov	 rdx, QWORD PTR szBuf$[rsp]
  000f0	48 03 d1	 add	 rdx, rcx
  000f3	48 8b ca	 mov	 rcx, rdx
  000f6	45 33 c9	 xor	 r9d, r9d
  000f9	44 8b c0	 mov	 r8d, eax
  000fc	48 8b d1	 mov	 rdx, rcx
  000ff	48 8b 44 24 50	 mov	 rax, QWORD PTR this$[rsp]
  00104	48 8b 48 08	 mov	 rcx, QWORD PTR [rax+8]
  00108	ff 15 00 00 00
	00		 call	 QWORD PTR __imp_send
  0010e	89 44 24 30	 mov	 DWORD PTR sLen$[rsp], eax

; 220  : 		if (sLen < 0) {

  00112	83 7c 24 30 00	 cmp	 DWORD PTR sLen$[rsp], 0
  00117	7d 47		 jge	 SHORT $LN7@PutData

; 221  : #ifdef WIN32
; 222  : 			if (WSAGetLastError() == WSAEWOULDBLOCK) {

  00119	ff 15 00 00 00
	00		 call	 QWORD PTR __imp_WSAGetLastError
  0011f	3d 33 27 00 00	 cmp	 eax, 10035		; 00002733H
  00124	75 0f		 jne	 SHORT $LN9@PutData

; 223  : #else
; 224  : 			if (errno == EWOULDBLOCK) {
; 225  : #endif
; 226  : 				SLEEP(1);

  00126	b9 e8 03 00 00	 mov	 ecx, 1000		; 000003e8H
  0012b	ff 15 00 00 00
	00		 call	 QWORD PTR __imp_Sleep

; 227  : 				continue;

  00131	eb 99		 jmp	 SHORT $LN2@PutData

; 228  : 			}
; 229  : 			else {

  00133	eb 18		 jmp	 SHORT $LN10@PutData
$LN9@PutData:

; 230  : 				strcpy(m_szErrMsg, "WVSocket::PutData Socket send Error - 2");	

  00135	48 8b 44 24 50	 mov	 rax, QWORD PTR this$[rsp]
  0013a	48 83 c0 44	 add	 rax, 68			; 00000044H
  0013e	48 8d 15 00 00
	00 00		 lea	 rdx, OFFSET FLAT:$SG84639
  00145	48 8b c8	 mov	 rcx, rax
  00148	e8 00 00 00 00	 call	 strcpy
$LN10@PutData:

; 231  : 			}
; 232  : 			onClose();

  0014d	48 8b 4c 24 50	 mov	 rcx, QWORD PTR this$[rsp]
  00152	e8 00 00 00 00	 call	 ?onClose@WVSocket@@IEAAXXZ ; WVSocket::onClose

; 233  : 			return -1;

  00157	b8 ff ff ff ff	 mov	 eax, -1
  0015c	eb 5f		 jmp	 SHORT $LN1@PutData

; 234  : 
; 235  : 		}
; 236  : 		else

  0015e	eb 10		 jmp	 SHORT $LN8@PutData
$LN7@PutData:

; 237  : 			sPos += sLen;

  00160	8b 44 24 30	 mov	 eax, DWORD PTR sLen$[rsp]
  00164	8b 4c 24 34	 mov	 ecx, DWORD PTR sPos$[rsp]
  00168	03 c8		 add	 ecx, eax
  0016a	8b c1		 mov	 eax, ecx
  0016c	89 44 24 34	 mov	 DWORD PTR sPos$[rsp], eax
$LN8@PutData:

; 238  : 
; 239  : 		tmCur = time(NULL); // 20090420 rivo

  00170	33 c9		 xor	 ecx, ecx
  00172	e8 00 00 00 00	 call	 time
  00177	48 89 44 24 28	 mov	 QWORD PTR tmCur$[rsp], rax

; 240  : 
; 241  : 		if (tmCur - tmIn > ltimeOut) {

  0017c	48 8b 44 24 20	 mov	 rax, QWORD PTR tmIn$[rsp]
  00181	48 8b 4c 24 28	 mov	 rcx, QWORD PTR tmCur$[rsp]
  00186	48 2b c8	 sub	 rcx, rax
  00189	48 8b c1	 mov	 rax, rcx
  0018c	48 63 4c 24 68	 movsxd	 rcx, DWORD PTR ltimeOut$[rsp]
  00191	48 3b c1	 cmp	 rax, rcx
  00194	7e 1e		 jle	 SHORT $LN11@PutData

; 242  : 			strcpy(m_szErrMsg, "WVSocket::PutData send timeout Error");

  00196	48 8b 44 24 50	 mov	 rax, QWORD PTR this$[rsp]
  0019b	48 83 c0 44	 add	 rax, 68			; 00000044H
  0019f	48 8d 15 00 00
	00 00		 lea	 rdx, OFFSET FLAT:$SG84641
  001a6	48 8b c8	 mov	 rcx, rax
  001a9	e8 00 00 00 00	 call	 strcpy

; 243  : 			return sPos;

  001ae	8b 44 24 34	 mov	 eax, DWORD PTR sPos$[rsp]
  001b2	eb 09		 jmp	 SHORT $LN1@PutData
$LN11@PutData:

; 244  : 		}
; 245  : 	}

  001b4	e9 13 ff ff ff	 jmp	 $LN13@PutData
$LN3@PutData:

; 246  : 
; 247  : 	return sPos;

  001b9	8b 44 24 34	 mov	 eax, DWORD PTR sPos$[rsp]
$LN1@PutData:

; 248  : }

  001bd	48 83 c4 40	 add	 rsp, 64			; 00000040H
  001c1	5f		 pop	 rdi
  001c2	c3		 ret	 0
?PutData@WVSocket@@QEAAHPEADHJ@Z ENDP			; WVSocket::PutData
_TEXT	ENDS
; Function compile flags: /Odtp /RTCsu
; File e:\infinia-library-3.0\com\src\wvsocket.cpp
_TEXT	SEGMENT
nRet$ = 32
nPos$ = 36
stTm$ = 40
curTm$ = 48
$T2 = 56
this$ = 80
szBuf$ = 88
nLen$ = 96
ltimeOut$ = 104
?GetData@WVSocket@@QEAAHPEADHJ@Z PROC			; WVSocket::GetData

; 251  : {

$LN14:
  00000	44 89 4c 24 20	 mov	 DWORD PTR [rsp+32], r9d
  00005	44 89 44 24 18	 mov	 DWORD PTR [rsp+24], r8d
  0000a	48 89 54 24 10	 mov	 QWORD PTR [rsp+16], rdx
  0000f	48 89 4c 24 08	 mov	 QWORD PTR [rsp+8], rcx
  00014	57		 push	 rdi
  00015	48 83 ec 40	 sub	 rsp, 64			; 00000040H
  00019	48 8b fc	 mov	 rdi, rsp
  0001c	b9 10 00 00 00	 mov	 ecx, 16
  00021	b8 cc cc cc cc	 mov	 eax, -858993460		; ccccccccH
  00026	f3 ab		 rep stosd
  00028	48 8b 4c 24 50	 mov	 rcx, QWORD PTR [rsp+80]
  0002d	c6 44 24 38 00	 mov	 BYTE PTR $T2[rsp], 0

; 252  : 	int	nRet, nPos = 0;

  00032	c7 44 24 24 00
	00 00 00	 mov	 DWORD PTR nPos$[rsp], 0

; 253  : 	time_t	stTm, curTm;
; 254  : 
; 255  : 	if (m_nSocket < 0)

  0003a	48 8b 44 24 50	 mov	 rax, QWORD PTR this$[rsp]
  0003f	48 83 78 08 00	 cmp	 QWORD PTR [rax+8], 0
  00044	73 0a		 jae	 SHORT $LN4@GetData

; 256  : 		return -1;

  00046	b8 ff ff ff ff	 mov	 eax, -1
  0004b	e9 1a 01 00 00	 jmp	 $LN1@GetData
$LN4@GetData:

; 257  : 
; 258  : 	if (ltimeOut)

  00050	83 7c 24 68 00	 cmp	 DWORD PTR ltimeOut$[rsp], 0
  00055	74 1b		 je	 SHORT $LN5@GetData

; 259  : 		stTm = curTm = time(NULL);

  00057	33 c9		 xor	 ecx, ecx
  00059	e8 00 00 00 00	 call	 time
  0005e	48 89 44 24 30	 mov	 QWORD PTR curTm$[rsp], rax
  00063	c6 44 24 38 01	 mov	 BYTE PTR $T2[rsp], 1
  00068	48 8b 44 24 30	 mov	 rax, QWORD PTR curTm$[rsp]
  0006d	48 89 44 24 28	 mov	 QWORD PTR stTm$[rsp], rax
$LN5@GetData:
$LN2@GetData:

; 260  : 
; 261  : 	while (1) {

  00072	33 c0		 xor	 eax, eax
  00074	83 f8 01	 cmp	 eax, 1
  00077	0f 84 e9 00 00
	00		 je	 $LN3@GetData

; 262  : 		nRet = recv(m_nSocket, szBuf+nPos, nLen-nPos, NODELAY);

  0007d	8b 44 24 24	 mov	 eax, DWORD PTR nPos$[rsp]
  00081	8b 4c 24 60	 mov	 ecx, DWORD PTR nLen$[rsp]
  00085	2b c8		 sub	 ecx, eax
  00087	8b c1		 mov	 eax, ecx
  00089	48 63 4c 24 24	 movsxd	 rcx, DWORD PTR nPos$[rsp]
  0008e	48 8b 54 24 58	 mov	 rdx, QWORD PTR szBuf$[rsp]
  00093	48 03 d1	 add	 rdx, rcx
  00096	48 8b ca	 mov	 rcx, rdx
  00099	45 33 c9	 xor	 r9d, r9d
  0009c	44 8b c0	 mov	 r8d, eax
  0009f	48 8b d1	 mov	 rdx, rcx
  000a2	48 8b 44 24 50	 mov	 rax, QWORD PTR this$[rsp]
  000a7	48 8b 48 08	 mov	 rcx, QWORD PTR [rax+8]
  000ab	ff 15 00 00 00
	00		 call	 QWORD PTR __imp_recv
  000b1	89 44 24 20	 mov	 DWORD PTR nRet$[rsp], eax

; 263  : 		if (nRet <= 0) {

  000b5	83 7c 24 20 00	 cmp	 DWORD PTR nRet$[rsp], 0
  000ba	7f 43		 jg	 SHORT $LN6@GetData

; 264  : #ifdef WIN32
; 265  : 			if (WSAGetLastError() != WSAEWOULDBLOCK) {

  000bc	ff 15 00 00 00
	00		 call	 QWORD PTR __imp_WSAGetLastError
  000c2	3d 33 27 00 00	 cmp	 eax, 10035		; 00002733H
  000c7	74 29		 je	 SHORT $LN8@GetData

; 266  : #else
; 267  : 			if (errno != EWOULDBLOCK) {
; 268  : #endif
; 269  : 				strcpy(m_szErrMsg, "WVSocket::GetData recv Error");

  000c9	48 8b 44 24 50	 mov	 rax, QWORD PTR this$[rsp]
  000ce	48 83 c0 44	 add	 rax, 68			; 00000044H
  000d2	48 8d 15 00 00
	00 00		 lea	 rdx, OFFSET FLAT:$SG84659
  000d9	48 8b c8	 mov	 rcx, rax
  000dc	e8 00 00 00 00	 call	 strcpy

; 270  : 				onClose();

  000e1	48 8b 4c 24 50	 mov	 rcx, QWORD PTR this$[rsp]
  000e6	e8 00 00 00 00	 call	 ?onClose@WVSocket@@IEAAXXZ ; WVSocket::onClose

; 271  : 				return -1;

  000eb	b8 ff ff ff ff	 mov	 eax, -1
  000f0	eb 78		 jmp	 SHORT $LN1@GetData
$LN8@GetData:

; 272  : 			}
; 273  : 			SLEEP(1);

  000f2	b9 e8 03 00 00	 mov	 ecx, 1000		; 000003e8H
  000f7	ff 15 00 00 00
	00		 call	 QWORD PTR __imp_Sleep

; 274  : 		}
; 275  : 		else

  000fd	eb 10		 jmp	 SHORT $LN7@GetData
$LN6@GetData:

; 276  : 			nPos += nRet;

  000ff	8b 44 24 20	 mov	 eax, DWORD PTR nRet$[rsp]
  00103	8b 4c 24 24	 mov	 ecx, DWORD PTR nPos$[rsp]
  00107	03 c8		 add	 ecx, eax
  00109	8b c1		 mov	 eax, ecx
  0010b	89 44 24 24	 mov	 DWORD PTR nPos$[rsp], eax
$LN7@GetData:

; 277  : 		if (nPos >= nLen)

  0010f	8b 44 24 60	 mov	 eax, DWORD PTR nLen$[rsp]
  00113	39 44 24 24	 cmp	 DWORD PTR nPos$[rsp], eax
  00117	7c 02		 jl	 SHORT $LN9@GetData

; 278  : 			break;

  00119	eb 4b		 jmp	 SHORT $LN3@GetData
$LN9@GetData:

; 279  : 
; 280  : 		if (ltimeOut) {

  0011b	83 7c 24 68 00	 cmp	 DWORD PTR ltimeOut$[rsp], 0
  00120	74 3f		 je	 SHORT $LN10@GetData

; 281  : 			curTm = time(NULL);

  00122	33 c9		 xor	 ecx, ecx
  00124	e8 00 00 00 00	 call	 time
  00129	48 89 44 24 30	 mov	 QWORD PTR curTm$[rsp], rax

; 282  : 
; 283  : 			if (curTm - stTm > ltimeOut)

  0012e	80 7c 24 38 00	 cmp	 BYTE PTR $T2[rsp], 0
  00133	75 0c		 jne	 SHORT $LN13@GetData
  00135	48 8d 0d 00 00
	00 00		 lea	 rcx, OFFSET FLAT:?GetData@WVSocket@@QEAAHPEADHJ@Z$rtcName$0
  0013c	e8 00 00 00 00	 call	 _RTC_UninitUse
$LN13@GetData:
  00141	48 8b 44 24 28	 mov	 rax, QWORD PTR stTm$[rsp]
  00146	48 8b 4c 24 30	 mov	 rcx, QWORD PTR curTm$[rsp]
  0014b	48 2b c8	 sub	 rcx, rax
  0014e	48 8b c1	 mov	 rax, rcx
  00151	48 63 4c 24 68	 movsxd	 rcx, DWORD PTR ltimeOut$[rsp]
  00156	48 3b c1	 cmp	 rax, rcx
  00159	7e 06		 jle	 SHORT $LN11@GetData

; 284  : 				return nPos;

  0015b	8b 44 24 24	 mov	 eax, DWORD PTR nPos$[rsp]
  0015f	eb 09		 jmp	 SHORT $LN1@GetData
$LN11@GetData:
$LN10@GetData:

; 285  : 		}
; 286  : 	}

  00161	e9 0c ff ff ff	 jmp	 $LN2@GetData
$LN3@GetData:

; 287  : 	return nPos;

  00166	8b 44 24 24	 mov	 eax, DWORD PTR nPos$[rsp]
$LN1@GetData:

; 288  : }

  0016a	48 83 c4 40	 add	 rsp, 64			; 00000040H
  0016e	5f		 pop	 rdi
  0016f	c3		 ret	 0
?GetData@WVSocket@@QEAAHPEADHJ@Z ENDP			; WVSocket::GetData
_TEXT	ENDS
; Function compile flags: /Odtp /RTCsu
; File e:\infinia-library-3.0\com\src\wvsocket.cpp
_TEXT	SEGMENT
this$ = 64
level$ = 72
optname$ = 80
optval$ = 88
optlen$ = 96
?GetOption@WVSocket@@QEAAHHHPEAXPEAH@Z PROC		; WVSocket::GetOption

; 137  : {

$LN4:
  00000	4c 89 4c 24 20	 mov	 QWORD PTR [rsp+32], r9
  00005	44 89 44 24 18	 mov	 DWORD PTR [rsp+24], r8d
  0000a	89 54 24 10	 mov	 DWORD PTR [rsp+16], edx
  0000e	48 89 4c 24 08	 mov	 QWORD PTR [rsp+8], rcx
  00013	57		 push	 rdi
  00014	48 83 ec 30	 sub	 rsp, 48			; 00000030H
  00018	48 8b fc	 mov	 rdi, rsp
  0001b	b9 0c 00 00 00	 mov	 ecx, 12
  00020	b8 cc cc cc cc	 mov	 eax, -858993460		; ccccccccH
  00025	f3 ab		 rep stosd
  00027	48 8b 4c 24 40	 mov	 rcx, QWORD PTR [rsp+64]

; 138  : 	if (m_nSocket < 0)

  0002c	48 8b 44 24 40	 mov	 rax, QWORD PTR this$[rsp]
  00031	48 83 78 08 00	 cmp	 QWORD PTR [rax+8], 0
  00036	73 07		 jae	 SHORT $LN2@GetOption

; 139  : 		return -1;

  00038	b8 ff ff ff ff	 mov	 eax, -1
  0003d	eb 27		 jmp	 SHORT $LN1@GetOption
$LN2@GetOption:

; 140  : 
; 141  : #ifdef WIN32
; 142  : 	return getsockopt(m_nSocket, level, optname, (char*)optval, optlen);

  0003f	48 8b 44 24 60	 mov	 rax, QWORD PTR optlen$[rsp]
  00044	48 89 44 24 20	 mov	 QWORD PTR [rsp+32], rax
  00049	4c 8b 4c 24 58	 mov	 r9, QWORD PTR optval$[rsp]
  0004e	44 8b 44 24 50	 mov	 r8d, DWORD PTR optname$[rsp]
  00053	8b 54 24 48	 mov	 edx, DWORD PTR level$[rsp]
  00057	48 8b 44 24 40	 mov	 rax, QWORD PTR this$[rsp]
  0005c	48 8b 48 08	 mov	 rcx, QWORD PTR [rax+8]
  00060	ff 15 00 00 00
	00		 call	 QWORD PTR __imp_getsockopt
$LN1@GetOption:

; 143  : #elif defined(__ia64)
; 144  : 	return getsockopt(m_nSocket, level, optname, optval, (int *)optlen);
; 145  : #else
; 146  : 	return getsockopt(m_nSocket, level, optname, optval, optlen);
; 147  : #endif
; 148  : }

  00066	48 83 c4 30	 add	 rsp, 48			; 00000030H
  0006a	5f		 pop	 rdi
  0006b	c3		 ret	 0
?GetOption@WVSocket@@QEAAHHHPEAXPEAH@Z ENDP		; WVSocket::GetOption
_TEXT	ENDS
; Function compile flags: /Odtp /RTCsu
; File e:\infinia-library-3.0\com\src\wvsocket.cpp
_TEXT	SEGMENT
this$ = 64
level$ = 72
optname$ = 80
optval$ = 88
optlen$ = 96
?SetOption@WVSocket@@QEAAHHHPEBXH@Z PROC		; WVSocket::SetOption

; 125  : {

$LN4:
  00000	4c 89 4c 24 20	 mov	 QWORD PTR [rsp+32], r9
  00005	44 89 44 24 18	 mov	 DWORD PTR [rsp+24], r8d
  0000a	89 54 24 10	 mov	 DWORD PTR [rsp+16], edx
  0000e	48 89 4c 24 08	 mov	 QWORD PTR [rsp+8], rcx
  00013	57		 push	 rdi
  00014	48 83 ec 30	 sub	 rsp, 48			; 00000030H
  00018	48 8b fc	 mov	 rdi, rsp
  0001b	b9 0c 00 00 00	 mov	 ecx, 12
  00020	b8 cc cc cc cc	 mov	 eax, -858993460		; ccccccccH
  00025	f3 ab		 rep stosd
  00027	48 8b 4c 24 40	 mov	 rcx, QWORD PTR [rsp+64]

; 126  : 	if (m_nSocket < 0)

  0002c	48 8b 44 24 40	 mov	 rax, QWORD PTR this$[rsp]
  00031	48 83 78 08 00	 cmp	 QWORD PTR [rax+8], 0
  00036	73 07		 jae	 SHORT $LN2@SetOption

; 127  : 		return -1;

  00038	b8 ff ff ff ff	 mov	 eax, -1
  0003d	eb 25		 jmp	 SHORT $LN1@SetOption
$LN2@SetOption:

; 128  : 
; 129  : #ifdef WIN32
; 130  : 	return setsockopt(m_nSocket, level, optname, (char*)optval, optlen);

  0003f	8b 44 24 60	 mov	 eax, DWORD PTR optlen$[rsp]
  00043	89 44 24 20	 mov	 DWORD PTR [rsp+32], eax
  00047	4c 8b 4c 24 58	 mov	 r9, QWORD PTR optval$[rsp]
  0004c	44 8b 44 24 50	 mov	 r8d, DWORD PTR optname$[rsp]
  00051	8b 54 24 48	 mov	 edx, DWORD PTR level$[rsp]
  00055	48 8b 44 24 40	 mov	 rax, QWORD PTR this$[rsp]
  0005a	48 8b 48 08	 mov	 rcx, QWORD PTR [rax+8]
  0005e	ff 15 00 00 00
	00		 call	 QWORD PTR __imp_setsockopt
$LN1@SetOption:

; 131  : #else
; 132  : 	return setsockopt(m_nSocket, level, optname, optval, optlen);
; 133  : #endif
; 134  : }

  00064	48 83 c4 30	 add	 rsp, 48			; 00000030H
  00068	5f		 pop	 rdi
  00069	c3		 ret	 0
?SetOption@WVSocket@@QEAAHHHPEBXH@Z ENDP		; WVSocket::SetOption
_TEXT	ENDS
; Function compile flags: /Odtp /RTCsu
; File e:\infinia-library-3.0\com\src\wvsocket.cpp
_TEXT	SEGMENT
tv$ = 56
stFds$ = 96
nCount$ = 628
nfds$ = 632
__i$5 = 636
__$ArrayPad$ = 648
this$ = 672
?IsRecvData@WVSocket@@QEAA_NXZ PROC			; WVSocket::IsRecvData

; 67   : {

$LN15:
  00000	48 89 4c 24 08	 mov	 QWORD PTR [rsp+8], rcx
  00005	57		 push	 rdi
  00006	48 81 ec 90 02
	00 00		 sub	 rsp, 656		; 00000290H
  0000d	48 8b fc	 mov	 rdi, rsp
  00010	b9 a4 00 00 00	 mov	 ecx, 164		; 000000a4H
  00015	b8 cc cc cc cc	 mov	 eax, -858993460		; ccccccccH
  0001a	f3 ab		 rep stosd
  0001c	48 8b 8c 24 a0
	02 00 00	 mov	 rcx, QWORD PTR [rsp+672]
  00024	48 8b 05 00 00
	00 00		 mov	 rax, QWORD PTR __security_cookie
  0002b	48 33 c4	 xor	 rax, rsp
  0002e	48 89 84 24 88
	02 00 00	 mov	 QWORD PTR __$ArrayPad$[rsp], rax

; 68   : 	struct timeval	tv;
; 69   : 	fd_set	stFds;
; 70   : 	int	nCount;
; 71   : 	int nfds;
; 72   : 
; 73   : 	if (m_nSocket < 0)

  00036	48 8b 84 24 a0
	02 00 00	 mov	 rax, QWORD PTR this$[rsp]
  0003e	48 83 78 08 00	 cmp	 QWORD PTR [rax+8], 0
  00043	73 07		 jae	 SHORT $LN8@IsRecvData

; 74   : 		return false;

  00045	32 c0		 xor	 al, al
  00047	e9 35 01 00 00	 jmp	 $LN1@IsRecvData
$LN8@IsRecvData:

; 75   : 
; 76   : 	tv.tv_sec	= 0;

  0004c	c7 44 24 38 00
	00 00 00	 mov	 DWORD PTR tv$[rsp], 0

; 77   : 	tv.tv_usec	= 10000;

  00054	c7 44 24 3c 10
	27 00 00	 mov	 DWORD PTR tv$[rsp+4], 10000 ; 00002710H

; 78   : 
; 79   : 	FD_ZERO(&stFds);

  0005c	c7 44 24 60 00
	00 00 00	 mov	 DWORD PTR stFds$[rsp], 0
$LN4@IsRecvData:

; 80   : 
; 81   : 	FD_SET(m_nSocket, &stFds);

  00064	c7 84 24 7c 02
	00 00 00 00 00
	00		 mov	 DWORD PTR __i$5[rsp], 0
  0006f	eb 10		 jmp	 SHORT $LN7@IsRecvData
$LN5@IsRecvData:
  00071	8b 84 24 7c 02
	00 00		 mov	 eax, DWORD PTR __i$5[rsp]
  00078	ff c0		 inc	 eax
  0007a	89 84 24 7c 02
	00 00		 mov	 DWORD PTR __i$5[rsp], eax
$LN7@IsRecvData:
  00081	8b 44 24 60	 mov	 eax, DWORD PTR stFds$[rsp]
  00085	39 84 24 7c 02
	00 00		 cmp	 DWORD PTR __i$5[rsp], eax
  0008c	73 1e		 jae	 SHORT $LN6@IsRecvData
  0008e	8b 84 24 7c 02
	00 00		 mov	 eax, DWORD PTR __i$5[rsp]
  00095	48 8b 8c 24 a0
	02 00 00	 mov	 rcx, QWORD PTR this$[rsp]
  0009d	48 8b 49 08	 mov	 rcx, QWORD PTR [rcx+8]
  000a1	48 39 4c c4 68	 cmp	 QWORD PTR stFds$[rsp+rax*8+8], rcx
  000a6	75 02		 jne	 SHORT $LN9@IsRecvData
  000a8	eb 02		 jmp	 SHORT $LN6@IsRecvData
$LN9@IsRecvData:
  000aa	eb c5		 jmp	 SHORT $LN5@IsRecvData
$LN6@IsRecvData:
  000ac	8b 44 24 60	 mov	 eax, DWORD PTR stFds$[rsp]
  000b0	39 84 24 7c 02
	00 00		 cmp	 DWORD PTR __i$5[rsp], eax
  000b7	75 29		 jne	 SHORT $LN10@IsRecvData
  000b9	83 7c 24 60 40	 cmp	 DWORD PTR stFds$[rsp], 64 ; 00000040H
  000be	73 22		 jae	 SHORT $LN11@IsRecvData
  000c0	8b 84 24 7c 02
	00 00		 mov	 eax, DWORD PTR __i$5[rsp]
  000c7	48 8b 8c 24 a0
	02 00 00	 mov	 rcx, QWORD PTR this$[rsp]
  000cf	48 8b 49 08	 mov	 rcx, QWORD PTR [rcx+8]
  000d3	48 89 4c c4 68	 mov	 QWORD PTR stFds$[rsp+rax*8+8], rcx
  000d8	8b 44 24 60	 mov	 eax, DWORD PTR stFds$[rsp]
  000dc	ff c0		 inc	 eax
  000de	89 44 24 60	 mov	 DWORD PTR stFds$[rsp], eax
$LN11@IsRecvData:
$LN10@IsRecvData:
  000e2	33 c0		 xor	 eax, eax
  000e4	85 c0		 test	 eax, eax
  000e6	0f 85 78 ff ff
	ff		 jne	 $LN4@IsRecvData

; 82   : 	nfds = (int)m_nSocket;

  000ec	48 8b 84 24 a0
	02 00 00	 mov	 rax, QWORD PTR this$[rsp]
  000f4	8b 40 08	 mov	 eax, DWORD PTR [rax+8]
  000f7	89 84 24 78 02
	00 00		 mov	 DWORD PTR nfds$[rsp], eax

; 83   : 	nCount =  select (nfds + 1, &stFds, NULL, NULL, &tv);

  000fe	8b 84 24 78 02
	00 00		 mov	 eax, DWORD PTR nfds$[rsp]
  00105	ff c0		 inc	 eax
  00107	48 8d 4c 24 38	 lea	 rcx, QWORD PTR tv$[rsp]
  0010c	48 89 4c 24 20	 mov	 QWORD PTR [rsp+32], rcx
  00111	45 33 c9	 xor	 r9d, r9d
  00114	45 33 c0	 xor	 r8d, r8d
  00117	48 8d 54 24 60	 lea	 rdx, QWORD PTR stFds$[rsp]
  0011c	8b c8		 mov	 ecx, eax
  0011e	ff 15 00 00 00
	00		 call	 QWORD PTR __imp_select
  00124	89 84 24 74 02
	00 00		 mov	 DWORD PTR nCount$[rsp], eax

; 84   : 	if (nCount  == -1) {

  0012b	83 bc 24 74 02
	00 00 ff	 cmp	 DWORD PTR nCount$[rsp], -1
  00133	75 2c		 jne	 SHORT $LN12@IsRecvData

; 85   : 		strcpy(m_szErrMsg, "Socket select error");

  00135	48 8b 84 24 a0
	02 00 00	 mov	 rax, QWORD PTR this$[rsp]
  0013d	48 83 c0 44	 add	 rax, 68			; 00000044H
  00141	48 8d 15 00 00
	00 00		 lea	 rdx, OFFSET FLAT:$SG84559
  00148	48 8b c8	 mov	 rcx, rax
  0014b	e8 00 00 00 00	 call	 strcpy

; 86   : 		onClose();

  00150	48 8b 8c 24 a0
	02 00 00	 mov	 rcx, QWORD PTR this$[rsp]
  00158	e8 00 00 00 00	 call	 ?onClose@WVSocket@@IEAAXXZ ; WVSocket::onClose

; 87   : 		return false;

  0015d	32 c0		 xor	 al, al
  0015f	eb 20		 jmp	 SHORT $LN1@IsRecvData
$LN12@IsRecvData:

; 88   : 	}
; 89   : 
; 90   : 	if (FD_ISSET(m_nSocket, &stFds))

  00161	48 8d 54 24 60	 lea	 rdx, QWORD PTR stFds$[rsp]
  00166	48 8b 84 24 a0
	02 00 00	 mov	 rax, QWORD PTR this$[rsp]
  0016e	48 8b 48 08	 mov	 rcx, QWORD PTR [rax+8]
  00172	e8 00 00 00 00	 call	 __WSAFDIsSet
  00177	85 c0		 test	 eax, eax
  00179	74 04		 je	 SHORT $LN13@IsRecvData

; 91   : 		return true;

  0017b	b0 01		 mov	 al, 1
  0017d	eb 02		 jmp	 SHORT $LN1@IsRecvData
$LN13@IsRecvData:

; 92   : 
; 93   : 	return false;

  0017f	32 c0		 xor	 al, al
$LN1@IsRecvData:

; 94   : }

  00181	48 8b f8	 mov	 rdi, rax
  00184	48 8b cc	 mov	 rcx, rsp
  00187	48 8d 15 00 00
	00 00		 lea	 rdx, OFFSET FLAT:?IsRecvData@WVSocket@@QEAA_NXZ$rtcFrameData
  0018e	e8 00 00 00 00	 call	 _RTC_CheckStackVars
  00193	48 8b c7	 mov	 rax, rdi
  00196	48 8b 8c 24 88
	02 00 00	 mov	 rcx, QWORD PTR __$ArrayPad$[rsp]
  0019e	48 33 cc	 xor	 rcx, rsp
  001a1	e8 00 00 00 00	 call	 __security_check_cookie
  001a6	48 81 c4 90 02
	00 00		 add	 rsp, 656		; 00000290H
  001ad	5f		 pop	 rdi
  001ae	c3		 ret	 0
?IsRecvData@WVSocket@@QEAA_NXZ ENDP			; WVSocket::IsRecvData
_TEXT	ENDS
; Function compile flags: /Odtp /RTCsu
; File e:\infinia-library-3.0\com\src\wvsocket.cpp
_TEXT	SEGMENT
$T1 = 32
$T2 = 40
this$ = 64
??1WVSocket@@QEAA@XZ PROC				; WVSocket::~WVSocket

; 54   : {

$LN5:
  00000	48 89 4c 24 08	 mov	 QWORD PTR [rsp+8], rcx
  00005	57		 push	 rdi
  00006	48 83 ec 30	 sub	 rsp, 48			; 00000030H
  0000a	48 8b fc	 mov	 rdi, rsp
  0000d	b9 0c 00 00 00	 mov	 ecx, 12
  00012	b8 cc cc cc cc	 mov	 eax, -858993460		; ccccccccH
  00017	f3 ab		 rep stosd
  00019	48 8b 4c 24 40	 mov	 rcx, QWORD PTR [rsp+64]
  0001e	48 c7 44 24 28
	fe ff ff ff	 mov	 QWORD PTR $T2[rsp], -2

; 55   : 	if (m_nSocket > 0) 

  00027	48 8b 44 24 40	 mov	 rax, QWORD PTR this$[rsp]
  0002c	48 83 78 08 00	 cmp	 QWORD PTR [rax+8], 0
  00031	76 0b		 jbe	 SHORT $LN2@WVSocket

; 56   : 		onClose();

  00033	48 8b 4c 24 40	 mov	 rcx, QWORD PTR this$[rsp]
  00038	e8 00 00 00 00	 call	 ?onClose@WVSocket@@IEAAXXZ ; WVSocket::onClose
  0003d	90		 npad	 1
$LN2@WVSocket:

; 57   : 
; 58   : 	if (m_szRecvData)

  0003e	48 8b 44 24 40	 mov	 rax, QWORD PTR this$[rsp]
  00043	48 83 78 10 00	 cmp	 QWORD PTR [rax+16], 0
  00048	74 19		 je	 SHORT $LN3@WVSocket

; 59   : 		delete [] m_szRecvData;	//20100127

  0004a	48 8b 44 24 40	 mov	 rax, QWORD PTR this$[rsp]
  0004f	48 8b 40 10	 mov	 rax, QWORD PTR [rax+16]
  00053	48 89 44 24 20	 mov	 QWORD PTR $T1[rsp], rax
  00058	48 8b 4c 24 20	 mov	 rcx, QWORD PTR $T1[rsp]
  0005d	e8 00 00 00 00	 call	 ??_V@YAXPEAX@Z		; operator delete[]
  00062	90		 npad	 1
$LN3@WVSocket:

; 60   : 
; 61   : 	m_nRecvBLen = m_nRecvDLen = 0;

  00063	48 8b 44 24 40	 mov	 rax, QWORD PTR this$[rsp]
  00068	c7 40 1c 00 00
	00 00		 mov	 DWORD PTR [rax+28], 0
  0006f	48 8b 44 24 40	 mov	 rax, QWORD PTR this$[rsp]
  00074	c7 40 18 00 00
	00 00		 mov	 DWORD PTR [rax+24], 0

; 62   : 
; 63   : }

  0007b	48 83 c4 30	 add	 rsp, 48			; 00000030H
  0007f	5f		 pop	 rdi
  00080	c3		 ret	 0
??1WVSocket@@QEAA@XZ ENDP				; WVSocket::~WVSocket
_TEXT	ENDS
; Function compile flags: /Odtp /RTCsu
; File e:\infinia-library-3.0\com\src\wvsocket.cpp
_TEXT	SEGMENT
this$ = 48
szIP$ = 56
nPort$ = 64
??0WVSocket@@QEAA@PEBDH@Z PROC				; WVSocket::WVSocket

; 38   : {

$LN3:
  00000	44 89 44 24 18	 mov	 DWORD PTR [rsp+24], r8d
  00005	48 89 54 24 10	 mov	 QWORD PTR [rsp+16], rdx
  0000a	48 89 4c 24 08	 mov	 QWORD PTR [rsp+8], rcx
  0000f	57		 push	 rdi
  00010	48 83 ec 20	 sub	 rsp, 32			; 00000020H
  00014	48 8b fc	 mov	 rdi, rsp
  00017	b9 08 00 00 00	 mov	 ecx, 8
  0001c	b8 cc cc cc cc	 mov	 eax, -858993460		; ccccccccH
  00021	f3 ab		 rep stosd
  00023	48 8b 4c 24 30	 mov	 rcx, QWORD PTR [rsp+48]

; 39   : 	m_bConnected = false;

  00028	48 8b 44 24 30	 mov	 rax, QWORD PTR this$[rsp]
  0002d	c6 00 00	 mov	 BYTE PTR [rax], 0

; 40   : 	m_nSocket = -1;

  00030	48 8b 44 24 30	 mov	 rax, QWORD PTR this$[rsp]
  00035	48 c7 40 08 ff
	ff ff ff	 mov	 QWORD PTR [rax+8], -1

; 41   : 	m_szRecvData = NULL;

  0003d	48 8b 44 24 30	 mov	 rax, QWORD PTR this$[rsp]
  00042	48 c7 40 10 00
	00 00 00	 mov	 QWORD PTR [rax+16], 0

; 42   : 	m_nRecvDLen = 0;

  0004a	48 8b 44 24 30	 mov	 rax, QWORD PTR this$[rsp]
  0004f	c7 40 1c 00 00
	00 00		 mov	 DWORD PTR [rax+28], 0

; 43   : 	m_nRecvBLen = 0;

  00056	48 8b 44 24 30	 mov	 rax, QWORD PTR this$[rsp]
  0005b	c7 40 18 00 00
	00 00		 mov	 DWORD PTR [rax+24], 0

; 44   : 
; 45   : 
; 46   : 	memset(m_szIP, 0, sizeof(m_szIP));

  00062	48 8b 44 24 30	 mov	 rax, QWORD PTR this$[rsp]
  00067	48 83 c0 20	 add	 rax, 32			; 00000020H
  0006b	41 b8 1e 00 00
	00		 mov	 r8d, 30
  00071	33 d2		 xor	 edx, edx
  00073	48 8b c8	 mov	 rcx, rax
  00076	e8 00 00 00 00	 call	 memset

; 47   : 	m_nPort = -1;

  0007b	48 8b 44 24 30	 mov	 rax, QWORD PTR this$[rsp]
  00080	c7 40 40 ff ff
	ff ff		 mov	 DWORD PTR [rax+64], -1

; 48   : 
; 49   : 
; 50   : 	ConnectTo(szIP, nPort);

  00087	44 8b 44 24 40	 mov	 r8d, DWORD PTR nPort$[rsp]
  0008c	48 8b 54 24 38	 mov	 rdx, QWORD PTR szIP$[rsp]
  00091	48 8b 4c 24 30	 mov	 rcx, QWORD PTR this$[rsp]
  00096	e8 00 00 00 00	 call	 ?ConnectTo@WVSocket@@QEAAHPEBDH@Z ; WVSocket::ConnectTo

; 51   : }

  0009b	48 8b 44 24 30	 mov	 rax, QWORD PTR this$[rsp]
  000a0	48 83 c4 20	 add	 rsp, 32			; 00000020H
  000a4	5f		 pop	 rdi
  000a5	c3		 ret	 0
??0WVSocket@@QEAA@PEBDH@Z ENDP				; WVSocket::WVSocket
_TEXT	ENDS
; Function compile flags: /Odtp /RTCsu
; File e:\infinia-library-3.0\com\src\wvsocket.cpp
_TEXT	SEGMENT
this$ = 48
??0WVSocket@@QEAA@XZ PROC				; WVSocket::WVSocket

; 24   : {

$LN3:
  00000	48 89 4c 24 08	 mov	 QWORD PTR [rsp+8], rcx
  00005	57		 push	 rdi
  00006	48 83 ec 20	 sub	 rsp, 32			; 00000020H
  0000a	48 8b fc	 mov	 rdi, rsp
  0000d	b9 08 00 00 00	 mov	 ecx, 8
  00012	b8 cc cc cc cc	 mov	 eax, -858993460		; ccccccccH
  00017	f3 ab		 rep stosd
  00019	48 8b 4c 24 30	 mov	 rcx, QWORD PTR [rsp+48]

; 25   : 	m_bConnected = false;

  0001e	48 8b 44 24 30	 mov	 rax, QWORD PTR this$[rsp]
  00023	c6 00 00	 mov	 BYTE PTR [rax], 0

; 26   : 	m_nSocket = -1;

  00026	48 8b 44 24 30	 mov	 rax, QWORD PTR this$[rsp]
  0002b	48 c7 40 08 ff
	ff ff ff	 mov	 QWORD PTR [rax+8], -1

; 27   : 	m_szRecvData = NULL;

  00033	48 8b 44 24 30	 mov	 rax, QWORD PTR this$[rsp]
  00038	48 c7 40 10 00
	00 00 00	 mov	 QWORD PTR [rax+16], 0

; 28   : 	m_nRecvDLen = 0;

  00040	48 8b 44 24 30	 mov	 rax, QWORD PTR this$[rsp]
  00045	c7 40 1c 00 00
	00 00		 mov	 DWORD PTR [rax+28], 0

; 29   : 	m_nRecvBLen = 0;

  0004c	48 8b 44 24 30	 mov	 rax, QWORD PTR this$[rsp]
  00051	c7 40 18 00 00
	00 00		 mov	 DWORD PTR [rax+24], 0

; 30   : 	memset(m_szIP, 0, sizeof(m_szIP));

  00058	48 8b 44 24 30	 mov	 rax, QWORD PTR this$[rsp]
  0005d	48 83 c0 20	 add	 rax, 32			; 00000020H
  00061	41 b8 1e 00 00
	00		 mov	 r8d, 30
  00067	33 d2		 xor	 edx, edx
  00069	48 8b c8	 mov	 rcx, rax
  0006c	e8 00 00 00 00	 call	 memset

; 31   : 	m_nPort = -1;

  00071	48 8b 44 24 30	 mov	 rax, QWORD PTR this$[rsp]
  00076	c7 40 40 ff ff
	ff ff		 mov	 DWORD PTR [rax+64], -1

; 32   : 
; 33   : 	m_nSocket = ::socket(SOCK_FLAG, SOCK_STREAM, 0);

  0007d	45 33 c0	 xor	 r8d, r8d
  00080	ba 01 00 00 00	 mov	 edx, 1
  00085	b9 02 00 00 00	 mov	 ecx, 2
  0008a	ff 15 00 00 00
	00		 call	 QWORD PTR __imp_socket
  00090	48 8b 4c 24 30	 mov	 rcx, QWORD PTR this$[rsp]
  00095	48 89 41 08	 mov	 QWORD PTR [rcx+8], rax

; 34   : 
; 35   : }

  00099	48 8b 44 24 30	 mov	 rax, QWORD PTR this$[rsp]
  0009e	48 83 c4 20	 add	 rsp, 32			; 00000020H
  000a2	5f		 pop	 rdi
  000a3	c3		 ret	 0
??0WVSocket@@QEAA@XZ ENDP				; WVSocket::WVSocket
_TEXT	ENDS
; Function compile flags: /Odtp /RTCsu
; File e:\infinia-library-3.0\com\include\comtypes.h
;	COMDAT ?c_memcpy@@YAPEAXPEAXPEBXH@Z
_TEXT	SEGMENT
d$ = 0
s$ = 8
tv65 = 16
de$ = 48
so$ = 56
l$ = 64
?c_memcpy@@YAPEAXPEAXPEBXH@Z PROC			; c_memcpy, COMDAT

; 309  : inline void *c_memcpy(void *de, const void *so, int l) { char *d = (char*)de; const char *s = (char*)so; while (l--) *d++ = *s++; return de;}

$LN5:
  00000	44 89 44 24 18	 mov	 DWORD PTR [rsp+24], r8d
  00005	48 89 54 24 10	 mov	 QWORD PTR [rsp+16], rdx
  0000a	48 89 4c 24 08	 mov	 QWORD PTR [rsp+8], rcx
  0000f	57		 push	 rdi
  00010	48 83 ec 20	 sub	 rsp, 32			; 00000020H
  00014	48 8b fc	 mov	 rdi, rsp
  00017	b9 08 00 00 00	 mov	 ecx, 8
  0001c	b8 cc cc cc cc	 mov	 eax, -858993460		; ccccccccH
  00021	f3 ab		 rep stosd
  00023	48 8b 4c 24 30	 mov	 rcx, QWORD PTR [rsp+48]
  00028	48 8b 44 24 30	 mov	 rax, QWORD PTR de$[rsp]
  0002d	48 89 04 24	 mov	 QWORD PTR d$[rsp], rax
  00031	48 8b 44 24 38	 mov	 rax, QWORD PTR so$[rsp]
  00036	48 89 44 24 08	 mov	 QWORD PTR s$[rsp], rax
$LN2@c_memcpy:
  0003b	8b 44 24 40	 mov	 eax, DWORD PTR l$[rsp]
  0003f	89 44 24 10	 mov	 DWORD PTR tv65[rsp], eax
  00043	8b 44 24 40	 mov	 eax, DWORD PTR l$[rsp]
  00047	ff c8		 dec	 eax
  00049	89 44 24 40	 mov	 DWORD PTR l$[rsp], eax
  0004d	83 7c 24 10 00	 cmp	 DWORD PTR tv65[rsp], 0
  00052	74 28		 je	 SHORT $LN3@c_memcpy
  00054	48 8b 04 24	 mov	 rax, QWORD PTR d$[rsp]
  00058	48 8b 4c 24 08	 mov	 rcx, QWORD PTR s$[rsp]
  0005d	0f b6 09	 movzx	 ecx, BYTE PTR [rcx]
  00060	88 08		 mov	 BYTE PTR [rax], cl
  00062	48 8b 04 24	 mov	 rax, QWORD PTR d$[rsp]
  00066	48 ff c0	 inc	 rax
  00069	48 89 04 24	 mov	 QWORD PTR d$[rsp], rax
  0006d	48 8b 44 24 08	 mov	 rax, QWORD PTR s$[rsp]
  00072	48 ff c0	 inc	 rax
  00075	48 89 44 24 08	 mov	 QWORD PTR s$[rsp], rax
  0007a	eb bf		 jmp	 SHORT $LN2@c_memcpy
$LN3@c_memcpy:
  0007c	48 8b 44 24 30	 mov	 rax, QWORD PTR de$[rsp]
  00081	48 83 c4 20	 add	 rsp, 32			; 00000020H
  00085	5f		 pop	 rdi
  00086	c3		 ret	 0
?c_memcpy@@YAPEAXPEAXPEBXH@Z ENDP			; c_memcpy
_TEXT	ENDS
; Function compile flags: /Odtp /RTCsu
; File c:\program files (x86)\windows kits\10\include\10.0.10240.0\ucrt\stdio.h
;	COMDAT sprintf
_TEXT	SEGMENT
_Result$ = 32
_ArgList$ = 56
__$ArrayPad$ = 80
_Buffer$ = 112
_Format$ = 120
sprintf	PROC						; COMDAT

; 1776 : {

$LN3:
  00000	48 89 54 24 10	 mov	 QWORD PTR [rsp+16], rdx
  00005	48 89 4c 24 08	 mov	 QWORD PTR [rsp+8], rcx
  0000a	4c 89 44 24 18	 mov	 QWORD PTR [rsp+24], r8
  0000f	4c 89 4c 24 20	 mov	 QWORD PTR [rsp+32], r9
  00014	57		 push	 rdi
  00015	48 83 ec 60	 sub	 rsp, 96			; 00000060H
  00019	48 8b fc	 mov	 rdi, rsp
  0001c	b9 18 00 00 00	 mov	 ecx, 24
  00021	b8 cc cc cc cc	 mov	 eax, -858993460		; ccccccccH
  00026	f3 ab		 rep stosd
  00028	48 8b 4c 24 70	 mov	 rcx, QWORD PTR [rsp+112]
  0002d	48 8b 05 00 00
	00 00		 mov	 rax, QWORD PTR __security_cookie
  00034	48 33 c4	 xor	 rax, rsp
  00037	48 89 44 24 50	 mov	 QWORD PTR __$ArrayPad$[rsp], rax

; 1777 :     int _Result;
; 1778 :     va_list _ArgList;
; 1779 :     __crt_va_start(_ArgList, _Format);

  0003c	e8 00 00 00 00	 call	 ??$__vcrt_va_start_verify_argument_type@QEBD@@YAXXZ ; __vcrt_va_start_verify_argument_type<char const * __ptr64 const>
  00041	48 8d 84 24 80
	00 00 00	 lea	 rax, QWORD PTR _Format$[rsp+8]
  00049	48 89 44 24 38	 mov	 QWORD PTR _ArgList$[rsp], rax

; 1780 : 
; 1781 :     #pragma warning(push)
; 1782 :     #pragma warning(disable: 4996) // Deprecation
; 1783 :     _Result = _vsprintf_l(_Buffer, _Format, NULL, _ArgList);

  0004e	4c 8b 4c 24 38	 mov	 r9, QWORD PTR _ArgList$[rsp]
  00053	45 33 c0	 xor	 r8d, r8d
  00056	48 8b 54 24 78	 mov	 rdx, QWORD PTR _Format$[rsp]
  0005b	48 8b 4c 24 70	 mov	 rcx, QWORD PTR _Buffer$[rsp]
  00060	e8 00 00 00 00	 call	 _vsprintf_l
  00065	89 44 24 20	 mov	 DWORD PTR _Result$[rsp], eax

; 1784 :     #pragma warning(pop)
; 1785 : 
; 1786 :     __crt_va_end(_ArgList);

  00069	48 c7 44 24 38
	00 00 00 00	 mov	 QWORD PTR _ArgList$[rsp], 0

; 1787 :     return _Result;

  00072	8b 44 24 20	 mov	 eax, DWORD PTR _Result$[rsp]

; 1788 : }

  00076	8b f8		 mov	 edi, eax
  00078	48 8b cc	 mov	 rcx, rsp
  0007b	48 8d 15 00 00
	00 00		 lea	 rdx, OFFSET FLAT:sprintf$rtcFrameData
  00082	e8 00 00 00 00	 call	 _RTC_CheckStackVars
  00087	8b c7		 mov	 eax, edi
  00089	48 8b 4c 24 50	 mov	 rcx, QWORD PTR __$ArrayPad$[rsp]
  0008e	48 33 cc	 xor	 rcx, rsp
  00091	e8 00 00 00 00	 call	 __security_check_cookie
  00096	48 83 c4 60	 add	 rsp, 96			; 00000060H
  0009a	5f		 pop	 rdi
  0009b	c3		 ret	 0
sprintf	ENDP
_TEXT	ENDS
; Function compile flags: /Odtp /RTCsu
; File c:\program files (x86)\windows kits\10\include\10.0.10240.0\ucrt\stdio.h
;	COMDAT _vsprintf_l
_TEXT	SEGMENT
_Buffer$ = 64
_Format$ = 72
_Locale$ = 80
_ArgList$ = 88
_vsprintf_l PROC					; COMDAT

; 1455 : {

$LN3:
  00000	4c 89 4c 24 20	 mov	 QWORD PTR [rsp+32], r9
  00005	4c 89 44 24 18	 mov	 QWORD PTR [rsp+24], r8
  0000a	48 89 54 24 10	 mov	 QWORD PTR [rsp+16], rdx
  0000f	48 89 4c 24 08	 mov	 QWORD PTR [rsp+8], rcx
  00014	57		 push	 rdi
  00015	48 83 ec 30	 sub	 rsp, 48			; 00000030H
  00019	48 8b fc	 mov	 rdi, rsp
  0001c	b9 0c 00 00 00	 mov	 ecx, 12
  00021	b8 cc cc cc cc	 mov	 eax, -858993460		; ccccccccH
  00026	f3 ab		 rep stosd
  00028	48 8b 4c 24 40	 mov	 rcx, QWORD PTR [rsp+64]

; 1456 :     #pragma warning(push)
; 1457 :     #pragma warning(disable: 4996) // Deprecation
; 1458 :     return _vsnprintf_l(_Buffer, (size_t)-1, _Format, _Locale, _ArgList);

  0002d	48 8b 44 24 58	 mov	 rax, QWORD PTR _ArgList$[rsp]
  00032	48 89 44 24 20	 mov	 QWORD PTR [rsp+32], rax
  00037	4c 8b 4c 24 50	 mov	 r9, QWORD PTR _Locale$[rsp]
  0003c	4c 8b 44 24 48	 mov	 r8, QWORD PTR _Format$[rsp]
  00041	48 c7 c2 ff ff
	ff ff		 mov	 rdx, -1
  00048	48 8b 4c 24 40	 mov	 rcx, QWORD PTR _Buffer$[rsp]
  0004d	e8 00 00 00 00	 call	 _vsnprintf_l

; 1459 :     #pragma warning(pop)
; 1460 : }

  00052	48 83 c4 30	 add	 rsp, 48			; 00000030H
  00056	5f		 pop	 rdi
  00057	c3		 ret	 0
_vsprintf_l ENDP
_TEXT	ENDS
; Function compile flags: /Odtp /RTCsu
; File c:\program files (x86)\windows kits\10\include\10.0.10240.0\ucrt\stdio.h
;	COMDAT _vsnprintf_l
_TEXT	SEGMENT
_Result$ = 48
tv74 = 52
_Buffer$ = 80
_BufferCount$ = 88
_Format$ = 96
_Locale$ = 104
_ArgList$ = 112
_vsnprintf_l PROC					; COMDAT

; 1385 : {

$LN5:
  00000	4c 89 4c 24 20	 mov	 QWORD PTR [rsp+32], r9
  00005	4c 89 44 24 18	 mov	 QWORD PTR [rsp+24], r8
  0000a	48 89 54 24 10	 mov	 QWORD PTR [rsp+16], rdx
  0000f	48 89 4c 24 08	 mov	 QWORD PTR [rsp+8], rcx
  00014	57		 push	 rdi
  00015	48 83 ec 40	 sub	 rsp, 64			; 00000040H
  00019	48 8b fc	 mov	 rdi, rsp
  0001c	b9 10 00 00 00	 mov	 ecx, 16
  00021	b8 cc cc cc cc	 mov	 eax, -858993460		; ccccccccH
  00026	f3 ab		 rep stosd
  00028	48 8b 4c 24 50	 mov	 rcx, QWORD PTR [rsp+80]

; 1386 :     int const _Result = __stdio_common_vsprintf(

  0002d	e8 00 00 00 00	 call	 __local_stdio_printf_options
  00032	48 8b 00	 mov	 rax, QWORD PTR [rax]
  00035	48 83 c8 01	 or	 rax, 1
  00039	48 8b 4c 24 70	 mov	 rcx, QWORD PTR _ArgList$[rsp]
  0003e	48 89 4c 24 28	 mov	 QWORD PTR [rsp+40], rcx
  00043	48 8b 4c 24 68	 mov	 rcx, QWORD PTR _Locale$[rsp]
  00048	48 89 4c 24 20	 mov	 QWORD PTR [rsp+32], rcx
  0004d	4c 8b 4c 24 60	 mov	 r9, QWORD PTR _Format$[rsp]
  00052	4c 8b 44 24 58	 mov	 r8, QWORD PTR _BufferCount$[rsp]
  00057	48 8b 54 24 50	 mov	 rdx, QWORD PTR _Buffer$[rsp]
  0005c	48 8b c8	 mov	 rcx, rax
  0005f	ff 15 00 00 00
	00		 call	 QWORD PTR __imp___stdio_common_vsprintf
  00065	89 44 24 30	 mov	 DWORD PTR _Result$[rsp], eax

; 1387 :         _CRT_INTERNAL_LOCAL_PRINTF_OPTIONS | _CRT_INTERNAL_PRINTF_LEGACY_VSPRINTF_NULL_TERMINATION,
; 1388 :         _Buffer, _BufferCount, _Format, _Locale, _ArgList);
; 1389 : 
; 1390 :     return _Result < 0 ? -1 : _Result;

  00069	83 7c 24 30 00	 cmp	 DWORD PTR _Result$[rsp], 0
  0006e	7d 0a		 jge	 SHORT $LN3@vsnprintf_
  00070	c7 44 24 34 ff
	ff ff ff	 mov	 DWORD PTR tv74[rsp], -1
  00078	eb 08		 jmp	 SHORT $LN4@vsnprintf_
$LN3@vsnprintf_:
  0007a	8b 44 24 30	 mov	 eax, DWORD PTR _Result$[rsp]
  0007e	89 44 24 34	 mov	 DWORD PTR tv74[rsp], eax
$LN4@vsnprintf_:
  00082	8b 44 24 34	 mov	 eax, DWORD PTR tv74[rsp]

; 1391 : }

  00086	48 83 c4 40	 add	 rsp, 64			; 00000040H
  0008a	5f		 pop	 rdi
  0008b	c3		 ret	 0
_vsnprintf_l ENDP
_TEXT	ENDS
; Function compile flags: /Odtp /RTCsu
; File c:\program files (x86)\microsoft visual studio 14.0\vc\include\vadefs.h
;	COMDAT ??$__vcrt_va_start_verify_argument_type@QEBD@@YAXXZ
_TEXT	SEGMENT
??$__vcrt_va_start_verify_argument_type@QEBD@@YAXXZ PROC ; __vcrt_va_start_verify_argument_type<char const * __ptr64 const>, COMDAT

; 144  :         {

$LN3:
  00000	40 57		 push	 rdi

; 145  :             static_assert(!__vcrt_va_list_is_reference<_Ty>::__the_value, "va_start argument must not have reference type and must not be parenthesized");
; 146  :         }

  00002	5f		 pop	 rdi
  00003	c3		 ret	 0
??$__vcrt_va_start_verify_argument_type@QEBD@@YAXXZ ENDP ; __vcrt_va_start_verify_argument_type<char const * __ptr64 const>
_TEXT	ENDS
; Function compile flags: /Odtp /RTCsu
; File c:\program files (x86)\windows kits\10\include\10.0.10240.0\ucrt\corecrt_stdio_config.h
;	COMDAT __local_stdio_printf_options
_TEXT	SEGMENT
__local_stdio_printf_options PROC			; COMDAT

; 73   : {

$LN3:
  00000	40 57		 push	 rdi

; 74   :     static unsigned __int64 _OptionsStorage;
; 75   :     return &_OptionsStorage;

  00002	48 8d 05 00 00
	00 00		 lea	 rax, OFFSET FLAT:?_OptionsStorage@?1??__local_stdio_printf_options@@9@4_KA ; `__local_stdio_printf_options'::`2'::_OptionsStorage

; 76   : }

  00009	5f		 pop	 rdi
  0000a	c3		 ret	 0
__local_stdio_printf_options ENDP
_TEXT	ENDS
; Function compile flags: /Odtp /RTCsu
; File c:\program files (x86)\windows kits\10\include\10.0.10240.0\ucrt\time.h
_TEXT	SEGMENT
_Time$ = 48
time	PROC

; 534  :         {

  00000	48 89 4c 24 08	 mov	 QWORD PTR [rsp+8], rcx
  00005	57		 push	 rdi
  00006	48 83 ec 20	 sub	 rsp, 32			; 00000020H
  0000a	48 8b fc	 mov	 rdi, rsp
  0000d	b9 08 00 00 00	 mov	 ecx, 8
  00012	b8 cc cc cc cc	 mov	 eax, -858993460		; ccccccccH
  00017	f3 ab		 rep stosd
  00019	48 8b 4c 24 30	 mov	 rcx, QWORD PTR [rsp+48]

; 535  :             return _time64(_Time);

  0001e	48 8b 4c 24 30	 mov	 rcx, QWORD PTR _Time$[rsp]
  00023	ff 15 00 00 00
	00		 call	 QWORD PTR __imp__time64

; 536  :         }

  00029	48 83 c4 20	 add	 rsp, 32			; 00000020H
  0002d	5f		 pop	 rdi
  0002e	c3		 ret	 0
time	ENDP
_TEXT	ENDS
END
