; Listing generated by Microsoft (R) Optimizing Compiler Version 19.00.24215.1 

include listing.inc

INCLUDELIB MSVCRT
INCLUDELIB OLDNAMES

CONST	SEGMENT
$SG87042 DB	'pList calloc is NULL', 00H
	ORG $+3
$SG87075 DB	'pList calloc is NULL', 00H
	ORG $+3
$SG86308 DB	'%s*.*', 00H
	ORG $+2
$SG86330 DB	'.', 00H
	ORG $+2
$SG86331 DB	'..', 00H
	ORG $+1
$SG86371 DB	'.', 00H
	ORG $+2
$SG86372 DB	'..', 00H
	ORG $+1
$SG86373 DB	'%s%s', 00H
	ORG $+3
$SG86382 DB	'%s%s%c', 00H
	ORG $+1
$SG86390 DB	'FAILED _tremove[%s] nResult[%d]', 00H
$SG86391 DB	'CFileUtil::delDirectory', 00H
$SG86392 DB	'SUCCESS _tremove[%s] nResult[%d]', 00H
	ORG $+3
$SG86516 DB	'.\', 00H
	ORG $+1
$SG86393 DB	'CFileUtil::delDirectory', 00H
$SG86398 DB	'SUCCESS rmdir[%s]', 00H
	ORG $+2
$SG86517 DB	'..\', 00H
$SG86399 DB	'CFileUtil::delDirectory', 00H
$SG86400 DB	'FAILED rmdir[%s]', 00H
	ORG $+3
$SG86543 DB	'rb', 00H
	ORG $+1
$SG86401 DB	'CFileUtil::delDirectory', 00H
$SG86495 DB	'fname[%s] nCount[%d]', 00H
	ORG $+3
$SG86496 DB	' fname[%d] ftype[%d]', 00H
	ORG $+3
$SG86497 DB	'CFileUtil::appendFileList', 00H
	ORG $+2
$SG86545 DB	'wb+', 00H
$SG86524 DB	'com_mkdir has Failed! [%s]', 00H
	ORG $+1
$SG86561 DB	'rb', 00H
	ORG $+1
$SG86525 DB	'CFileUtil::MakeDirectory', 00H
	ORG $+3
$SG86706 DB	'rb', 00H
	ORG $+1
$SG86563 DB	'CDFSFile::read pFile open FAIL [%s]', 00H
$SG86738 DB	'a+', 00H
	ORG $+1
$SG86652 DB	'new pList', 00H
	ORG $+2
$SG86740 DB	'a+', 00H
	ORG $+1
$SG86653 DB	'CFileUtil::fileToFieldRecord', 00H
	ORG $+3
$SG86656 DB	'alloc pList', 00H
$SG86764 DB	'r', 00H
	ORG $+2
$SG86657 DB	'CFileUtil::fileToFieldRecord', 00H
	ORG $+3
$SG86662 DB	'add pLineList', 00H
	ORG $+2
$SG86663 DB	'CFileUtil::fileToFieldRecord', 00H
	ORG $+3
$SG86708 DB	'CDFSFile::read pFile open FAIL [%s]', 00H
$SG86786 DB	'w', 00H
	ORG $+2
$SG86712 DB	'CFileUtil::readNalloc malloc error! size[%ld]', 00H
	ORG $+2
$SG86714 DB	'fread errno[%d]', 0aH, 00H
	ORG $+3
$SG86788 DB	'w', 00H
	ORG $+2
$SG86730 DB	'CFileUtil::getNextLine gs_pMMgr->newBuf error! size[%ld]'
	DB	00H
	ORG $+3
$SG86801 DB	'r', 00H
	ORG $+2
$SG86742 DB	'CDFSFile::add pFile open FAIL [%s]', 00H
	ORG $+1
$SG86821 DB	'rb', 00H
	ORG $+1
$SG86758 DB	'FILEMOVE error code[%d]', 00H
$SG86779 DB	'CFileUtil::tryopen pFile open FAIL', 00H
	ORG $+1
$SG86847 DB	'rb', 00H
	ORG $+1
$SG86790 DB	'CFileUtil::modify pFile open FAIL [%s]', 00H
	ORG $+1
$SG86823 DB	'CDFSFile::readLoop pFile open FAIL [%s]', 00H
$SG86850 DB	'CDFSFile::nextReadLoop pFile open FAIL [%s]', 00H
$SG86862 DB	'rb', 00H
	ORG $+1
$SG86864 DB	'CDFSFile::nextRead pFile open FAIL [%s]', 00H
$SG86875 DB	'w', 00H
	ORG $+2
$SG86877 DB	'w', 00H
	ORG $+2
$SG86879 DB	'CDFSFile::modify pFile open FAIL [%s]', 00H
	ORG $+2
$SG86890 DB	'a+', 00H
	ORG $+1
$SG86892 DB	'a+', 00H
	ORG $+1
$SG86894 DB	'CDFSFile::add2 pFile open FAIL [%s]', 00H
CONST	ENDS
PUBLIC	__local_stdio_printf_options
PUBLIC	_vfprintf_l
PUBLIC	??$__vcrt_va_start_verify_argument_type@QEBD@@YAXXZ ; __vcrt_va_start_verify_argument_type<char const * __ptr64 const>
PUBLIC	printf
PUBLIC	_vsnprintf_l
PUBLIC	_vsprintf_l
PUBLIC	sprintf
PUBLIC	?strchr@@YAPEADQEADH@Z				; strchr
PUBLIC	_tcschr
PUBLIC	_tcsncpy
PUBLIC	_tcsrchr
PUBLIC	_tcscmp
PUBLIC	?_tcschr@@YAPEADPEADI@Z				; _tcschr
PUBLIC	?_tcsrchr@@YAPEADPEADI@Z			; _tcsrchr
PUBLIC	?com_mkdir@@YA_NPEBD@Z				; com_mkdir
PUBLIC	?com_isInvalid@@YA_NPEBD@Z			; com_isInvalid
PUBLIC	?com_isFile@@YA_NPEBD@Z				; com_isFile
PUBLIC	?com_isDirectory@@YA_NPEAD@Z			; com_isDirectory
PUBLIC	?com_findFirstFile@@YAPEAXPEBDPEAU_WIN32_FIND_DATAA@@@Z ; com_findFirstFile
PUBLIC	?com_nextFile@@YA_NPEAXPEAU_WIN32_FIND_DATAA@@@Z ; com_nextFile
PUBLIC	?com_getFileName@@YAXPEAPEADPEAU_WIN32_FIND_DATAA@@@Z ; com_getFileName
PUBLIC	?jISREG@@YA_NPEAU_WIN32_FIND_DATAA@@@Z		; jISREG
PUBLIC	?jISDIR@@YA_NPEAU_WIN32_FIND_DATAA@@@Z		; jISDIR
PUBLIC	?getIndex@@YAHH@Z				; getIndex
PUBLIC	?newBuf@CMemManager@@QEAAPEADH@Z		; CMemManager::newBuf
PUBLIC	?newBuf@CMemManager@@QEAAPEADHPEAH@Z		; CMemManager::newBuf
PUBLIC	?delBuf@CMemManager@@QEAAXPEADH@Z		; CMemManager::delBuf
PUBLIC	?alloc@CStringList@@QEAAHH@Z			; CStringList::alloc
PUBLIC	?push_back@CStringList@@QEAAPEAVCmString@@PEAD@Z ; CStringList::push_back
PUBLIC	?getNext@CStringList@@QEAAPEAVCmString@@PEAH@Z	; CStringList::getNext
PUBLIC	?__getNext@CStringList@@AEAAPEAVCmString@@PEAH@Z ; CStringList::__getNext
PUBLIC	?__autoclassinit2@CStringList@@QEAAX_K@Z	; CStringList::__autoclassinit2
PUBLIC	??_GCStringList@@QEAAPEAXI@Z			; CStringList::`scalar deleting destructor'
PUBLIC	?filter_stringCompare@@YA_NPEADPEAX1@Z		; filter_stringCompare
PUBLIC	?filter_dateTimeCompare@@YA_NPEADPEAX1@Z	; filter_dateTimeCompare
PUBLIC	?IsExistDirectory@CFileUtil@@SA_NPEAD@Z		; CFileUtil::IsExistDirectory
PUBLIC	?GetFileList@CFileUtil@@SA_NPEAUSTFileList@@PEAUSTFilterData@@@Z ; CFileUtil::GetFileList
PUBLIC	?delDirectory@CFileUtil@@SAHPEAUSTDelInfo@@PEAUSTFilterData@@@Z ; CFileUtil::delDirectory
PUBLIC	?MakeDirectory@CFileUtil@@SA_NPEBD@Z		; CFileUtil::MakeDirectory
PUBLIC	?FileCopy@CFileUtil@@SA_NPEBD0@Z		; CFileUtil::FileCopy
PUBLIC	?IsAbsolutePath@CFileUtil@@SA_NPEBD@Z		; CFileUtil::IsAbsolutePath
PUBLIC	?setDirectory@CFileUtil@@SA_NPEADH@Z		; CFileUtil::setDirectory
PUBLIC	?changeDirName@CFileUtil@@SA_NPEAD0@Z		; CFileUtil::changeDirName
PUBLIC	?read@CFileUtil@@SAHPEAD0H@Z			; CFileUtil::read
PUBLIC	?readNalloc@CFileUtil@@SAHPEADPEAPEADPEAH@Z	; CFileUtil::readNalloc
PUBLIC	?getNextLine@CFileUtil@@SAHPEAUSTStrInfo@@@Z	; CFileUtil::getNextLine
PUBLIC	?getFieldList@CFileUtil@@SA_NPEADDPEAVCStringList@@@Z ; CFileUtil::getFieldList
PUBLIC	?fileToFieldRecord@CFileUtil@@SA_NPEADPEAV?$CTList@VCStringList@@@@D@Z ; CFileUtil::fileToFieldRecord
PUBLIC	?add@CFileUtil@@SA_NPEAD0@Z			; CFileUtil::add
PUBLIC	?getReFileName@CFileUtil@@SA_NPEADPEBD1@Z	; CFileUtil::getReFileName
PUBLIC	?renameFile@CFileUtil@@SA_NPEBD0@Z		; CFileUtil::renameFile
PUBLIC	?getFileSize@CFileUtil@@SAHPEAD@Z		; CFileUtil::getFileSize
PUBLIC	?tryopen@CFileUtil@@SAPEAU_iobuf@@HPEADPEBDPEAH@Z ; CFileUtil::tryopen
PUBLIC	?modify@CFileUtil@@SA_NPEADH0@Z			; CFileUtil::modify
PUBLIC	?getFileSize2@CFileUtil@@SAHPEADHPEAHH@Z	; CFileUtil::getFileSize2
PUBLIC	?readLoop@CFileUtil@@SAHPEADHHPEAUSTFileMem@@H@Z ; CFileUtil::readLoop
PUBLIC	?nextReadLoop@CFileUtil@@SAHPEADHHPEAUSTFileMem@@HH@Z ; CFileUtil::nextReadLoop
PUBLIC	?nextRead@CFileUtil@@SAHPEAD0HH@Z		; CFileUtil::nextRead
PUBLIC	?modify@CFileUtil@@SA_NPEADHPEAUSTFileMem@@@Z	; CFileUtil::modify
PUBLIC	?add@CFileUtil@@SA_NPEADHPEAUSTFileMem@@@Z	; CFileUtil::add
PUBLIC	?ehstrstr@CFileUtil@@SAPEADPEBD0@Z		; CFileUtil::ehstrstr
PUBLIC	?appendFileList@CFileUtil@@CA_NPEAV?$CTList@UfileInfo@@@@PEBDD@Z ; CFileUtil::appendFileList
PUBLIC	?CheckDirName@@YAXPEAD@Z			; CheckDirName
PUBLIC	??0?$CTList@UfileInfo@@@@QEAA@XZ		; CTList<fileInfo>::CTList<fileInfo>
PUBLIC	?alloc@?$CTList@UfileInfo@@@@QEAAHHW4E_ALLOC_TYPE@@@Z ; CTList<fileInfo>::alloc
PUBLIC	?push_back@?$CTList@UfileInfo@@@@QEAA_NPEAUfileInfo@@PEAH@Z ; CTList<fileInfo>::push_back
PUBLIC	?size@?$CTList@UfileInfo@@@@QEAAHXZ		; CTList<fileInfo>::size
PUBLIC	?__alloc@?$CTList@UfileInfo@@@@AEAAHH@Z		; CTList<fileInfo>::__alloc
PUBLIC	?__autoclassinit2@?$CTList@UfileInfo@@@@QEAAX_K@Z ; CTList<fileInfo>::__autoclassinit2
PUBLIC	?push_back@?$CTList@VCStringList@@@@QEAA_NPEAVCStringList@@PEAH@Z ; CTList<CStringList>::push_back
PUBLIC	?getNext@?$CTList@VCStringList@@@@QEAAPEAVCStringList@@PEAH@Z ; CTList<CStringList>::getNext
PUBLIC	?__alloc@?$CTList@VCStringList@@@@AEAAHH@Z	; CTList<CStringList>::__alloc
PUBLIC	?_OptionsStorage@?1??__local_stdio_printf_options@@9@4_KA ; `__local_stdio_printf_options'::`2'::_OptionsStorage
EXTRN	??2@YAPEAX_K@Z:PROC				; operator new
EXTRN	??3@YAXPEAX_K@Z:PROC				; operator delete
EXTRN	__report_rangecheckfailure:PROC
EXTRN	__imp___acrt_iob_func:PROC
EXTRN	__imp_fclose:PROC
EXTRN	__imp_fflush:PROC
EXTRN	__imp_fopen:PROC
EXTRN	__imp_fread:PROC
EXTRN	__imp_fseek:PROC
EXTRN	__imp_ftell:PROC
EXTRN	__imp_fwrite:PROC
EXTRN	__imp_remove:PROC
EXTRN	__imp_rename:PROC
EXTRN	__imp___stdio_common_vfprintf:PROC
EXTRN	__imp___stdio_common_vsprintf:PROC
EXTRN	__imp__errno:PROC
EXTRN	__imp_strchr:PROC
EXTRN	__imp_calloc:PROC
EXTRN	__imp_free:PROC
EXTRN	__imp__mbschr:PROC
EXTRN	__imp__mbscmp:PROC
EXTRN	__imp__mbsnbcpy:PROC
EXTRN	__imp__mbsrchr:PROC
EXTRN	__imp_GetLastError:PROC
EXTRN	__imp_FindClose:PROC
EXTRN	__imp_CreateDirectoryA:PROC
EXTRN	__imp_RemoveDirectoryA:PROC
EXTRN	__imp_GetFileAttributesA:PROC
EXTRN	__imp_FindFirstFileA:PROC
EXTRN	__imp_FindNextFileA:PROC
EXTRN	__imp_MoveFileA:PROC
EXTRN	??2@YAPEAX_KAEBUnothrow_t@std@@@Z:PROC		; operator new
EXTRN	??3@YAXPEAXAEBUnothrow_t@std@@@Z:PROC		; operator delete
EXTRN	??0CFileTime@@QEAA@XZ:PROC			; CFileTime::CFileTime
EXTRN	??1CFileTime@@QEAA@XZ:PROC			; CFileTime::~CFileTime
EXTRN	?setFileTime@CFileTime@@QEAAHPEAU_FILETIME@@@Z:PROC ; CFileTime::setFileTime
EXTRN	?isCompare@CFileTime@@QEAA_NPEAV1@W4E_OPERATOR@@@Z:PROC ; CFileTime::isCompare
EXTRN	?delBufByIndex@CMemManager@@QEAAXPEADH@Z:PROC	; CMemManager::delBufByIndex
EXTRN	?__newBuf@CMemManager@@AEAAPEADH_K@Z:PROC	; CMemManager::__newBuf
EXTRN	?PutLogQueue@CLogger@@QEAAXHPEBDZZ:PROC		; CLogger::PutLogQueue
EXTRN	?__debugLog@CLogger@@QEAAXHPEBDH0ZZ:PROC	; CLogger::__debugLog
EXTRN	?compare@CmString@@QEAAHPEBD@Z:PROC		; CmString::compare
EXTRN	??0CStringList@@QEAA@XZ:PROC			; CStringList::CStringList
EXTRN	??1CStringList@@QEAA@XZ:PROC			; CStringList::~CStringList
EXTRN	?__alloc@CStringList@@AEAAHH@Z:PROC		; CStringList::__alloc
EXTRN	?__add@CStringList@@AEAAPEAVCmString@@PEADH@Z:PROC ; CStringList::__add
EXTRN	?newIdx@CStringList@@AEAAHXZ:PROC		; CStringList::newIdx
EXTRN	__GSHandlerCheck:PROC
EXTRN	__GSHandlerCheck_EH:PROC
EXTRN	__chkstk:PROC
EXTRN	__security_check_cookie:PROC
EXTRN	?nothrow@std@@3Unothrow_t@1@B:BYTE		; std::nothrow
EXTRN	?g_szMessage@@3PADA:BYTE			; g_szMessage
EXTRN	?gs_pMMgr@@3PEAVCMemManager@@EA:QWORD		; gs_pMMgr
EXTRN	?gs_cLogger@@3VCLogger@@A:BYTE			; gs_cLogger
EXTRN	__security_cookie:QWORD
EXTRN	_fltused:DWORD
;	COMDAT ?_OptionsStorage@?1??__local_stdio_printf_options@@9@4_KA
_BSS	SEGMENT
?_OptionsStorage@?1??__local_stdio_printf_options@@9@4_KA DQ 01H DUP (?) ; `__local_stdio_printf_options'::`2'::_OptionsStorage
_BSS	ENDS
;	COMDAT pdata
pdata	SEGMENT
$pdata$_vfprintf_l DD imagerel $LN3
	DD	imagerel $LN3+68
	DD	imagerel $unwind$_vfprintf_l
pdata	ENDS
;	COMDAT pdata
pdata	SEGMENT
$pdata$printf DD imagerel $LN3
	DD	imagerel $LN3+121
	DD	imagerel $unwind$printf
pdata	ENDS
;	COMDAT pdata
pdata	SEGMENT
$pdata$_vsnprintf_l DD imagerel $LN5
	DD	imagerel $LN5+118
	DD	imagerel $unwind$_vsnprintf_l
pdata	ENDS
;	COMDAT pdata
pdata	SEGMENT
$pdata$_vsprintf_l DD imagerel $LN3
	DD	imagerel $LN3+66
	DD	imagerel $unwind$_vsprintf_l
pdata	ENDS
;	COMDAT pdata
pdata	SEGMENT
$pdata$sprintf DD imagerel $LN3
	DD	imagerel $LN3+112
	DD	imagerel $unwind$sprintf
pdata	ENDS
;	COMDAT pdata
pdata	SEGMENT
$pdata$?strchr@@YAPEADQEADH@Z DD imagerel $LN3
	DD	imagerel $LN3+33
	DD	imagerel $unwind$?strchr@@YAPEADQEADH@Z
pdata	ENDS
;	COMDAT pdata
pdata	SEGMENT
$pdata$_tcschr DD imagerel $LN3
	DD	imagerel $LN3+33
	DD	imagerel $unwind$_tcschr
pdata	ENDS
;	COMDAT pdata
pdata	SEGMENT
$pdata$_tcsncpy DD imagerel $LN3
	DD	imagerel $LN3+45
	DD	imagerel $unwind$_tcsncpy
pdata	ENDS
;	COMDAT pdata
pdata	SEGMENT
$pdata$_tcsrchr DD imagerel $LN3
	DD	imagerel $LN3+33
	DD	imagerel $unwind$_tcsrchr
pdata	ENDS
;	COMDAT pdata
pdata	SEGMENT
$pdata$_tcscmp DD imagerel $LN3
	DD	imagerel $LN3+35
	DD	imagerel $unwind$_tcscmp
pdata	ENDS
;	COMDAT pdata
pdata	SEGMENT
$pdata$?_tcschr@@YAPEADPEADI@Z DD imagerel $LN3
	DD	imagerel $LN3+32
	DD	imagerel $unwind$?_tcschr@@YAPEADPEADI@Z
pdata	ENDS
;	COMDAT pdata
pdata	SEGMENT
$pdata$?_tcsrchr@@YAPEADPEADI@Z DD imagerel $LN3
	DD	imagerel $LN3+32
	DD	imagerel $unwind$?_tcsrchr@@YAPEADPEADI@Z
pdata	ENDS
;	COMDAT pdata
pdata	SEGMENT
$pdata$?com_mkdir@@YA_NPEBD@Z DD imagerel $LN5
	DD	imagerel $LN5+55
	DD	imagerel $unwind$?com_mkdir@@YA_NPEBD@Z
pdata	ENDS
;	COMDAT pdata
pdata	SEGMENT
$pdata$?com_isInvalid@@YA_NPEBD@Z DD imagerel $LN4
	DD	imagerel $LN4+36
	DD	imagerel $unwind$?com_isInvalid@@YA_NPEBD@Z
pdata	ENDS
;	COMDAT pdata
pdata	SEGMENT
$pdata$?com_isFile@@YA_NPEBD@Z DD imagerel $LN5
	DD	imagerel $LN5+49
	DD	imagerel $unwind$?com_isFile@@YA_NPEBD@Z
pdata	ENDS
;	COMDAT pdata
pdata	SEGMENT
$pdata$?com_isDirectory@@YA_NPEAD@Z DD imagerel $LN4
	DD	imagerel $LN4+42
	DD	imagerel $unwind$?com_isDirectory@@YA_NPEAD@Z
pdata	ENDS
;	COMDAT pdata
pdata	SEGMENT
$pdata$?com_findFirstFile@@YAPEAXPEBDPEAU_WIN32_FIND_DATAA@@@Z DD imagerel $LN3
	DD	imagerel $LN3+35
	DD	imagerel $unwind$?com_findFirstFile@@YAPEAXPEBDPEAU_WIN32_FIND_DATAA@@@Z
pdata	ENDS
;	COMDAT pdata
pdata	SEGMENT
$pdata$?com_nextFile@@YA_NPEAXPEAU_WIN32_FIND_DATAA@@@Z DD imagerel $LN5
	DD	imagerel $LN5+56
	DD	imagerel $unwind$?com_nextFile@@YA_NPEAXPEAU_WIN32_FIND_DATAA@@@Z
pdata	ENDS
;	COMDAT pdata
pdata	SEGMENT
$pdata$?jISREG@@YA_NPEAU_WIN32_FIND_DATAA@@@Z DD imagerel $LN5
	DD	imagerel $LN5+42
	DD	imagerel $unwind$?jISREG@@YA_NPEAU_WIN32_FIND_DATAA@@@Z
pdata	ENDS
;	COMDAT pdata
pdata	SEGMENT
$pdata$?jISDIR@@YA_NPEAU_WIN32_FIND_DATAA@@@Z DD imagerel $LN5
	DD	imagerel $LN5+42
	DD	imagerel $unwind$?jISDIR@@YA_NPEAU_WIN32_FIND_DATAA@@@Z
pdata	ENDS
;	COMDAT pdata
pdata	SEGMENT
$pdata$?getIndex@@YAHH@Z DD imagerel $LN5
	DD	imagerel $LN5+119
	DD	imagerel $unwind$?getIndex@@YAHH@Z
pdata	ENDS
;	COMDAT pdata
pdata	SEGMENT
$pdata$?newBuf@CMemManager@@QEAAPEADH@Z DD imagerel $LN3
	DD	imagerel $LN3+53
	DD	imagerel $unwind$?newBuf@CMemManager@@QEAAPEADH@Z
pdata	ENDS
;	COMDAT pdata
pdata	SEGMENT
$pdata$?newBuf@CMemManager@@QEAAPEADHPEAH@Z DD imagerel $LN3
	DD	imagerel $LN3+64
	DD	imagerel $unwind$?newBuf@CMemManager@@QEAAPEADHPEAH@Z
pdata	ENDS
;	COMDAT pdata
pdata	SEGMENT
$pdata$?delBuf@CMemManager@@QEAAXPEADH@Z DD imagerel $LN3
	DD	imagerel $LN3+57
	DD	imagerel $unwind$?delBuf@CMemManager@@QEAAXPEADH@Z
pdata	ENDS
;	COMDAT pdata
pdata	SEGMENT
$pdata$?alloc@CStringList@@QEAAHH@Z DD imagerel $LN3
	DD	imagerel $LN3+46
	DD	imagerel $unwind$?alloc@CStringList@@QEAAHH@Z
pdata	ENDS
;	COMDAT pdata
pdata	SEGMENT
$pdata$?push_back@CStringList@@QEAAPEAVCmString@@PEAD@Z DD imagerel $LN4
	DD	imagerel $LN4+98
	DD	imagerel $unwind$?push_back@CStringList@@QEAAPEAVCmString@@PEAD@Z
pdata	ENDS
;	COMDAT pdata
pdata	SEGMENT
$pdata$?getNext@CStringList@@QEAAPEAVCmString@@PEAH@Z DD imagerel $LN3
	DD	imagerel $LN3+34
	DD	imagerel $unwind$?getNext@CStringList@@QEAAPEAVCmString@@PEAH@Z
pdata	ENDS
;	COMDAT pdata
pdata	SEGMENT
$pdata$?__autoclassinit2@CStringList@@QEAAX_K@Z DD imagerel $LN3
	DD	imagerel $LN3+27
	DD	imagerel $unwind$?__autoclassinit2@CStringList@@QEAAX_K@Z
pdata	ENDS
;	COMDAT pdata
pdata	SEGMENT
$pdata$??_GCStringList@@QEAAPEAXI@Z DD imagerel $LN4
	DD	imagerel $LN4+59
	DD	imagerel $unwind$??_GCStringList@@QEAAPEAXI@Z
pdata	ENDS
;	COMDAT pdata
pdata	SEGMENT
$pdata$?filter_stringCompare@@YA_NPEADPEAX1@Z DD imagerel $LN12
	DD	imagerel $LN12+333
	DD	imagerel $unwind$?filter_stringCompare@@YA_NPEADPEAX1@Z
pdata	ENDS
;	COMDAT pdata
pdata	SEGMENT
$pdata$?dtor$0@?0??filter_stringCompare@@YA_NPEADPEAX1@Z@4HA DD imagerel ?dtor$0@?0??filter_stringCompare@@YA_NPEADPEAX1@Z@4HA
	DD	imagerel ?dtor$0@?0??filter_stringCompare@@YA_NPEADPEAX1@Z@4HA+29
	DD	imagerel $unwind$?dtor$0@?0??filter_stringCompare@@YA_NPEADPEAX1@Z@4HA
pdata	ENDS
;	COMDAT pdata
pdata	SEGMENT
$pdata$?filter_dateTimeCompare@@YA_NPEADPEAX1@Z DD imagerel $LN4
	DD	imagerel $LN4+78
	DD	imagerel $unwind$?filter_dateTimeCompare@@YA_NPEADPEAX1@Z
pdata	ENDS
;	COMDAT pdata
pdata	SEGMENT
$pdata$?IsExistDirectory@CFileUtil@@SA_NPEAD@Z DD imagerel $LN4
	DD	imagerel $LN4+68
	DD	imagerel $unwind$?IsExistDirectory@CFileUtil@@SA_NPEAD@Z
pdata	ENDS
;	COMDAT pdata
pdata	SEGMENT
$pdata$?GetFileList@CFileUtil@@SA_NPEAUSTFileList@@PEAUSTFilterData@@@Z DD imagerel $LN19
	DD	imagerel $LN19+589
	DD	imagerel $unwind$?GetFileList@CFileUtil@@SA_NPEAUSTFileList@@PEAUSTFilterData@@@Z
pdata	ENDS
;	COMDAT pdata
pdata	SEGMENT
$pdata$?delDirectory@CFileUtil@@SAHPEAUSTDelInfo@@PEAUSTFilterData@@@Z DD imagerel $LN34
	DD	imagerel $LN34+1358
	DD	imagerel $unwind$?delDirectory@CFileUtil@@SAHPEAUSTDelInfo@@PEAUSTFilterData@@@Z
pdata	ENDS
;	COMDAT pdata
pdata	SEGMENT
$pdata$?dtor$0@?0??delDirectory@CFileUtil@@SAHPEAUSTDelInfo@@PEAUSTFilterData@@@Z@4HA DD imagerel ?dtor$0@?0??delDirectory@CFileUtil@@SAHPEAUSTDelInfo@@PEAUSTFilterData@@@Z@4HA
	DD	imagerel ?dtor$0@?0??delDirectory@CFileUtil@@SAHPEAUSTDelInfo@@PEAUSTFilterData@@@Z@4HA+27
	DD	imagerel $unwind$?dtor$0@?0??delDirectory@CFileUtil@@SAHPEAUSTDelInfo@@PEAUSTFilterData@@@Z@4HA
pdata	ENDS
;	COMDAT pdata
pdata	SEGMENT
$pdata$?MakeDirectory@CFileUtil@@SA_NPEBD@Z DD imagerel $LN19
	DD	imagerel $LN19+506
	DD	imagerel $unwind$?MakeDirectory@CFileUtil@@SA_NPEBD@Z
pdata	ENDS
;	COMDAT pdata
pdata	SEGMENT
$pdata$?FileCopy@CFileUtil@@SA_NPEBD0@Z DD imagerel $LN8
	DD	imagerel $LN8+313
	DD	imagerel $unwind$?FileCopy@CFileUtil@@SA_NPEBD0@Z
pdata	ENDS
;	COMDAT pdata
pdata	SEGMENT
$pdata$?setDirectory@CFileUtil@@SA_NPEADH@Z DD imagerel $LN8
	DD	imagerel $LN8+240
	DD	imagerel $unwind$?setDirectory@CFileUtil@@SA_NPEADH@Z
pdata	ENDS
;	COMDAT pdata
pdata	SEGMENT
$pdata$?changeDirName@CFileUtil@@SA_NPEAD0@Z DD imagerel $LN4
	DD	imagerel $LN4+55
	DD	imagerel $unwind$?changeDirName@CFileUtil@@SA_NPEAD0@Z
pdata	ENDS
;	COMDAT pdata
pdata	SEGMENT
$pdata$?read@CFileUtil@@SAHPEAD0H@Z DD imagerel $LN4
	DD	imagerel $LN4+158
	DD	imagerel $unwind$?read@CFileUtil@@SAHPEAD0H@Z
pdata	ENDS
;	COMDAT pdata
pdata	SEGMENT
$pdata$?readNalloc@CFileUtil@@SAHPEADPEAPEADPEAH@Z DD imagerel $LN10
	DD	imagerel $LN10+434
	DD	imagerel $unwind$?readNalloc@CFileUtil@@SAHPEADPEAPEADPEAH@Z
pdata	ENDS
;	COMDAT pdata
pdata	SEGMENT
$pdata$?getNextLine@CFileUtil@@SAHPEAUSTStrInfo@@@Z DD imagerel $LN11
	DD	imagerel $LN11+465
	DD	imagerel $unwind$?getNextLine@CFileUtil@@SAHPEAUSTStrInfo@@@Z
pdata	ENDS
;	COMDAT pdata
pdata	SEGMENT
$pdata$?getFieldList@CFileUtil@@SA_NPEADDPEAVCStringList@@@Z DD imagerel $LN18
	DD	imagerel $LN18+457
	DD	imagerel $unwind$?getFieldList@CFileUtil@@SA_NPEADDPEAVCStringList@@@Z
pdata	ENDS
;	COMDAT pdata
pdata	SEGMENT
$pdata$?fileToFieldRecord@CFileUtil@@SA_NPEADPEAV?$CTList@VCStringList@@@@D@Z DD imagerel $LN28
	DD	imagerel $LN28+820
	DD	imagerel $unwind$?fileToFieldRecord@CFileUtil@@SA_NPEADPEAV?$CTList@VCStringList@@@@D@Z
pdata	ENDS
;	COMDAT pdata
pdata	SEGMENT
$pdata$?dtor$0@?0??fileToFieldRecord@CFileUtil@@SA_NPEADPEAV?$CTList@VCStringList@@@@D@Z@4HA DD imagerel ?dtor$0@?0??fileToFieldRecord@CFileUtil@@SA_NPEADPEAV?$CTList@VCStringList@@@@D@Z@4HA
	DD	imagerel ?dtor$0@?0??fileToFieldRecord@CFileUtil@@SA_NPEADPEAV?$CTList@VCStringList@@@@D@Z@4HA+31
	DD	imagerel $unwind$?dtor$0@?0??fileToFieldRecord@CFileUtil@@SA_NPEADPEAV?$CTList@VCStringList@@@@D@Z@4HA
pdata	ENDS
;	COMDAT pdata
pdata	SEGMENT
$pdata$?add@CFileUtil@@SA_NPEAD0@Z DD imagerel $LN6
	DD	imagerel $LN6+221
	DD	imagerel $unwind$?add@CFileUtil@@SA_NPEAD0@Z
pdata	ENDS
;	COMDAT pdata
pdata	SEGMENT
$pdata$?getReFileName@CFileUtil@@SA_NPEADPEBD1@Z DD imagerel $LN4
	DD	imagerel $LN4+185
	DD	imagerel $unwind$?getReFileName@CFileUtil@@SA_NPEADPEBD1@Z
pdata	ENDS
;	COMDAT pdata
pdata	SEGMENT
$pdata$?renameFile@CFileUtil@@SA_NPEBD0@Z DD imagerel $LN5
	DD	imagerel $LN5+108
	DD	imagerel $unwind$?renameFile@CFileUtil@@SA_NPEBD0@Z
pdata	ENDS
;	COMDAT pdata
pdata	SEGMENT
$pdata$?getFileSize@CFileUtil@@SAHPEAD@Z DD imagerel $LN4
	DD	imagerel $LN4+98
	DD	imagerel $unwind$?getFileSize@CFileUtil@@SAHPEAD@Z
pdata	ENDS
;	COMDAT pdata
pdata	SEGMENT
$pdata$?tryopen@CFileUtil@@SAPEAU_iobuf@@HPEADPEBDPEAH@Z DD imagerel $LN7
	DD	imagerel $LN7+163
	DD	imagerel $unwind$?tryopen@CFileUtil@@SAPEAU_iobuf@@HPEADPEBDPEAH@Z
pdata	ENDS
;	COMDAT pdata
pdata	SEGMENT
$pdata$?modify@CFileUtil@@SA_NPEADH0@Z DD imagerel $LN5
	DD	imagerel $LN5+181
	DD	imagerel $unwind$?modify@CFileUtil@@SA_NPEADH0@Z
pdata	ENDS
;	COMDAT pdata
pdata	SEGMENT
$pdata$?getFileSize2@CFileUtil@@SAHPEADHPEAHH@Z DD imagerel $LN5
	DD	imagerel $LN5+186
	DD	imagerel $unwind$?getFileSize2@CFileUtil@@SAHPEADHPEAHH@Z
pdata	ENDS
;	COMDAT pdata
pdata	SEGMENT
$pdata$?readLoop@CFileUtil@@SAHPEADHHPEAUSTFileMem@@H@Z DD imagerel $LN9
	DD	imagerel $LN9+368
	DD	imagerel $unwind$?readLoop@CFileUtil@@SAHPEADHHPEAUSTFileMem@@H@Z
pdata	ENDS
;	COMDAT pdata
pdata	SEGMENT
$pdata$?nextReadLoop@CFileUtil@@SAHPEADHHPEAUSTFileMem@@HH@Z DD imagerel $LN13
	DD	imagerel $LN13+425
	DD	imagerel $unwind$?nextReadLoop@CFileUtil@@SAHPEADHHPEAUSTFileMem@@HH@Z
pdata	ENDS
;	COMDAT pdata
pdata	SEGMENT
$pdata$?nextRead@CFileUtil@@SAHPEAD0HH@Z DD imagerel $LN4
	DD	imagerel $LN4+173
	DD	imagerel $unwind$?nextRead@CFileUtil@@SAHPEAD0HH@Z
pdata	ENDS
;	COMDAT pdata
pdata	SEGMENT
$pdata$?modify@CFileUtil@@SA_NPEADHPEAUSTFileMem@@@Z DD imagerel $LN9
	DD	imagerel $LN9+282
	DD	imagerel $unwind$?modify@CFileUtil@@SA_NPEADHPEAUSTFileMem@@@Z
pdata	ENDS
;	COMDAT pdata
pdata	SEGMENT
$pdata$?add@CFileUtil@@SA_NPEADHPEAUSTFileMem@@@Z DD imagerel $LN9
	DD	imagerel $LN9+282
	DD	imagerel $unwind$?add@CFileUtil@@SA_NPEADHPEAUSTFileMem@@@Z
pdata	ENDS
;	COMDAT pdata
pdata	SEGMENT
$pdata$?ehstrstr@CFileUtil@@SAPEADPEBD0@Z DD imagerel $LN10
	DD	imagerel $LN10+215
	DD	imagerel $unwind$?ehstrstr@CFileUtil@@SAPEADPEBD0@Z
pdata	ENDS
;	COMDAT pdata
pdata	SEGMENT
$pdata$?appendFileList@CFileUtil@@CA_NPEAV?$CTList@UfileInfo@@@@PEBDD@Z DD imagerel $LN13
	DD	imagerel $LN13+627
	DD	imagerel $unwind$?appendFileList@CFileUtil@@CA_NPEAV?$CTList@UfileInfo@@@@PEBDD@Z
pdata	ENDS
;	COMDAT pdata
pdata	SEGMENT
$pdata$?dtor$0@?0??appendFileList@CFileUtil@@CA_NPEAV?$CTList@UfileInfo@@@@PEBDD@Z@4HA DD imagerel ?dtor$0@?0??appendFileList@CFileUtil@@CA_NPEAV?$CTList@UfileInfo@@@@PEBDD@Z@4HA
	DD	imagerel ?dtor$0@?0??appendFileList@CFileUtil@@CA_NPEAV?$CTList@UfileInfo@@@@PEBDD@Z@4HA+29
	DD	imagerel $unwind$?dtor$0@?0??appendFileList@CFileUtil@@CA_NPEAV?$CTList@UfileInfo@@@@PEBDD@Z@4HA
pdata	ENDS
;	COMDAT pdata
pdata	SEGMENT
$pdata$?CheckDirName@@YAXPEAD@Z DD imagerel $LN6
	DD	imagerel $LN6+86
	DD	imagerel $unwind$?CheckDirName@@YAXPEAD@Z
pdata	ENDS
;	COMDAT pdata
pdata	SEGMENT
$pdata$?alloc@?$CTList@UfileInfo@@@@QEAAHHW4E_ALLOC_TYPE@@@Z DD imagerel $LN3
	DD	imagerel $LN3+65
	DD	imagerel $unwind$?alloc@?$CTList@UfileInfo@@@@QEAAHHW4E_ALLOC_TYPE@@@Z
pdata	ENDS
;	COMDAT pdata
pdata	SEGMENT
$pdata$?push_back@?$CTList@UfileInfo@@@@QEAA_NPEAUfileInfo@@PEAH@Z DD imagerel $LN15
	DD	imagerel $LN15+344
	DD	imagerel $unwind$?push_back@?$CTList@UfileInfo@@@@QEAA_NPEAUfileInfo@@PEAH@Z
pdata	ENDS
;	COMDAT pdata
pdata	SEGMENT
$pdata$?__alloc@?$CTList@UfileInfo@@@@AEAAHH@Z DD imagerel $LN5
	DD	imagerel $LN5+150
	DD	imagerel $unwind$?__alloc@?$CTList@UfileInfo@@@@AEAAHH@Z
pdata	ENDS
;	COMDAT pdata
pdata	SEGMENT
$pdata$?__autoclassinit2@?$CTList@UfileInfo@@@@QEAAX_K@Z DD imagerel $LN3
	DD	imagerel $LN3+27
	DD	imagerel $unwind$?__autoclassinit2@?$CTList@UfileInfo@@@@QEAAX_K@Z
pdata	ENDS
;	COMDAT pdata
pdata	SEGMENT
$pdata$?push_back@?$CTList@VCStringList@@@@QEAA_NPEAVCStringList@@PEAH@Z DD imagerel $LN15
	DD	imagerel $LN15+344
	DD	imagerel $unwind$?push_back@?$CTList@VCStringList@@@@QEAA_NPEAVCStringList@@PEAH@Z
pdata	ENDS
;	COMDAT pdata
pdata	SEGMENT
$pdata$?__alloc@?$CTList@VCStringList@@@@AEAAHH@Z DD imagerel $LN5
	DD	imagerel $LN5+150
	DD	imagerel $unwind$?__alloc@?$CTList@VCStringList@@@@AEAAHH@Z
pdata	ENDS
;	COMDAT xdata
xdata	SEGMENT
$unwind$?__alloc@?$CTList@VCStringList@@@@AEAAHH@Z DD 030f01H
	DD	0700b620fH
	DD	0600aH
xdata	ENDS
;	COMDAT xdata
xdata	SEGMENT
$unwind$?push_back@?$CTList@VCStringList@@@@QEAA_NPEAVCStringList@@PEAH@Z DD 011301H
	DD	06213H
xdata	ENDS
;	COMDAT xdata
xdata	SEGMENT
$unwind$?__autoclassinit2@?$CTList@UfileInfo@@@@QEAAX_K@Z DD 010b01H
	DD	0700bH
xdata	ENDS
;	COMDAT xdata
xdata	SEGMENT
$unwind$?__alloc@?$CTList@UfileInfo@@@@AEAAHH@Z DD 030f01H
	DD	0700b620fH
	DD	0600aH
xdata	ENDS
;	COMDAT xdata
xdata	SEGMENT
$unwind$?push_back@?$CTList@UfileInfo@@@@QEAA_NPEAUfileInfo@@PEAH@Z DD 011301H
	DD	06213H
xdata	ENDS
;	COMDAT xdata
xdata	SEGMENT
$unwind$?alloc@?$CTList@UfileInfo@@@@QEAAHHW4E_ALLOC_TYPE@@@Z DD 011201H
	DD	04212H
xdata	ENDS
;	COMDAT xdata
xdata	SEGMENT
$unwind$?CheckDirName@@YAXPEAD@Z DD 010901H
	DD	02209H
xdata	ENDS
;	COMDAT xdata
xdata	SEGMENT
$unwind$?dtor$0@?0??appendFileList@CFileUtil@@CA_NPEAV?$CTList@UfileInfo@@@@PEBDD@Z@4HA DD 020601H
	DD	050023206H
xdata	ENDS
;	COMDAT xdata
xdata	SEGMENT
$ip2state$?appendFileList@CFileUtil@@CA_NPEAV?$CTList@UfileInfo@@@@PEBDD@Z DD imagerel ?appendFileList@CFileUtil@@CA_NPEAV?$CTList@UfileInfo@@@@PEBDD@Z
	DD	0ffffffffH
	DD	imagerel ?appendFileList@CFileUtil@@CA_NPEAV?$CTList@UfileInfo@@@@PEBDD@Z+82
	DD	00H
	DD	imagerel ?appendFileList@CFileUtil@@CA_NPEAV?$CTList@UfileInfo@@@@PEBDD@Z+144
	DD	0ffffffffH
xdata	ENDS
;	COMDAT xdata
xdata	SEGMENT
$stateUnwindMap$?appendFileList@CFileUtil@@CA_NPEAV?$CTList@UfileInfo@@@@PEBDD@Z DD 0ffffffffH
	DD	imagerel ?dtor$0@?0??appendFileList@CFileUtil@@CA_NPEAV?$CTList@UfileInfo@@@@PEBDD@Z@4HA
xdata	ENDS
;	COMDAT CONST
CONST	SEGMENT
$cppxdata$?appendFileList@CFileUtil@@CA_NPEAV?$CTList@UfileInfo@@@@PEBDD@Z DD 019930522H
	DD	01H
	DD	imagerel $stateUnwindMap$?appendFileList@CFileUtil@@CA_NPEAV?$CTList@UfileInfo@@@@PEBDD@Z
	DD	00H
	DD	00H
	DD	03H
	DD	imagerel $ip2state$?appendFileList@CFileUtil@@CA_NPEAV?$CTList@UfileInfo@@@@PEBDD@Z
	DD	098H
	DD	00H
	DD	01H
CONST	ENDS
;	COMDAT xdata
xdata	SEGMENT
$unwind$?appendFileList@CFileUtil@@CA_NPEAV?$CTList@UfileInfo@@@@PEBDD@Z DD 023419H
	DD	0190116H
	DD	imagerel __GSHandlerCheck_EH
	DD	imagerel $cppxdata$?appendFileList@CFileUtil@@CA_NPEAV?$CTList@UfileInfo@@@@PEBDD@Z
	DD	0b2H
xdata	ENDS
;	COMDAT xdata
xdata	SEGMENT
$unwind$?ehstrstr@CFileUtil@@SAPEADPEBD0@Z DD 010e01H
	DD	0620eH
xdata	ENDS
;	COMDAT xdata
xdata	SEGMENT
$unwind$?add@CFileUtil@@SA_NPEADHPEAUSTFileMem@@@Z DD 011201H
	DD	08212H
xdata	ENDS
;	COMDAT xdata
xdata	SEGMENT
$unwind$?modify@CFileUtil@@SA_NPEADHPEAUSTFileMem@@@Z DD 011201H
	DD	08212H
xdata	ENDS
;	COMDAT xdata
xdata	SEGMENT
$unwind$?nextRead@CFileUtil@@SAHPEAD0HH@Z DD 011801H
	DD	06218H
xdata	ENDS
;	COMDAT xdata
xdata	SEGMENT
$unwind$?nextReadLoop@CFileUtil@@SAHPEADHHPEAUSTFileMem@@HH@Z DD 011701H
	DD	08217H
xdata	ENDS
;	COMDAT xdata
xdata	SEGMENT
$unwind$?readLoop@CFileUtil@@SAHPEADHHPEAUSTFileMem@@H@Z DD 011701H
	DD	08217H
xdata	ENDS
;	COMDAT xdata
xdata	SEGMENT
$unwind$?getFileSize2@CFileUtil@@SAHPEADHPEAHH@Z DD 011701H
	DD	06217H
xdata	ENDS
;	COMDAT xdata
xdata	SEGMENT
$unwind$?modify@CFileUtil@@SA_NPEADH0@Z DD 011201H
	DD	06212H
xdata	ENDS
;	COMDAT xdata
xdata	SEGMENT
$unwind$?tryopen@CFileUtil@@SAPEAU_iobuf@@HPEADPEBDPEAH@Z DD 011701H
	DD	06217H
xdata	ENDS
;	COMDAT xdata
xdata	SEGMENT
$unwind$?getFileSize@CFileUtil@@SAHPEAD@Z DD 010901H
	DD	06209H
xdata	ENDS
;	COMDAT xdata
xdata	SEGMENT
$unwind$?renameFile@CFileUtil@@SA_NPEBD0@Z DD 010e01H
	DD	0620eH
xdata	ENDS
;	COMDAT xdata
xdata	SEGMENT
$unwind$?getReFileName@CFileUtil@@SA_NPEADPEBD1@Z DD 011301H
	DD	0a213H
xdata	ENDS
;	COMDAT xdata
xdata	SEGMENT
$unwind$?add@CFileUtil@@SA_NPEAD0@Z DD 010e01H
	DD	0820eH
xdata	ENDS
;	COMDAT xdata
xdata	SEGMENT
$unwind$?dtor$0@?0??fileToFieldRecord@CFileUtil@@SA_NPEADPEAV?$CTList@VCStringList@@@@D@Z@4HA DD 020601H
	DD	050023206H
xdata	ENDS
;	COMDAT xdata
xdata	SEGMENT
$ip2state$?fileToFieldRecord@CFileUtil@@SA_NPEADPEAV?$CTList@VCStringList@@@@D@Z DD imagerel ?fileToFieldRecord@CFileUtil@@SA_NPEADPEAV?$CTList@VCStringList@@@@D@Z
	DD	0ffffffffH
	DD	imagerel ?fileToFieldRecord@CFileUtil@@SA_NPEADPEAV?$CTList@VCStringList@@@@D@Z+256
	DD	00H
	DD	imagerel ?fileToFieldRecord@CFileUtil@@SA_NPEADPEAV?$CTList@VCStringList@@@@D@Z+300
	DD	0ffffffffH
xdata	ENDS
;	COMDAT xdata
xdata	SEGMENT
$stateUnwindMap$?fileToFieldRecord@CFileUtil@@SA_NPEADPEAV?$CTList@VCStringList@@@@D@Z DD 0ffffffffH
	DD	imagerel ?dtor$0@?0??fileToFieldRecord@CFileUtil@@SA_NPEADPEAV?$CTList@VCStringList@@@@D@Z@4HA
xdata	ENDS
;	COMDAT CONST
CONST	SEGMENT
$cppxdata$?fileToFieldRecord@CFileUtil@@SA_NPEADPEAV?$CTList@VCStringList@@@@D@Z DD 019930522H
	DD	01H
	DD	imagerel $stateUnwindMap$?fileToFieldRecord@CFileUtil@@SA_NPEADPEAV?$CTList@VCStringList@@@@D@Z
	DD	00H
	DD	00H
	DD	03H
	DD	imagerel $ip2state$?fileToFieldRecord@CFileUtil@@SA_NPEADPEAV?$CTList@VCStringList@@@@D@Z
	DD	070H
	DD	00H
	DD	01H
CONST	ENDS
;	COMDAT xdata
xdata	SEGMENT
$unwind$?fileToFieldRecord@CFileUtil@@SA_NPEADPEAV?$CTList@VCStringList@@@@D@Z DD 033219H
	DD	0160117H
	DD	07010H
	DD	imagerel __GSHandlerCheck_EH
	DD	imagerel $cppxdata$?fileToFieldRecord@CFileUtil@@SA_NPEADPEAV?$CTList@VCStringList@@@@D@Z
	DD	0a2H
xdata	ENDS
;	COMDAT xdata
xdata	SEGMENT
$unwind$?getFieldList@CFileUtil@@SA_NPEADDPEAVCStringList@@@Z DD 022719H
	DD	04b0115H
	DD	imagerel __GSHandlerCheck
	DD	0240H
xdata	ENDS
;	COMDAT xdata
xdata	SEGMENT
$unwind$?getNextLine@CFileUtil@@SAHPEAUSTStrInfo@@@Z DD 010901H
	DD	0a209H
xdata	ENDS
;	COMDAT xdata
xdata	SEGMENT
$unwind$?readNalloc@CFileUtil@@SAHPEADPEAPEADPEAH@Z DD 011301H
	DD	08213H
xdata	ENDS
;	COMDAT xdata
xdata	SEGMENT
$unwind$?read@CFileUtil@@SAHPEAD0H@Z DD 011301H
	DD	06213H
xdata	ENDS
;	COMDAT xdata
xdata	SEGMENT
$unwind$?changeDirName@CFileUtil@@SA_NPEAD0@Z DD 010e01H
	DD	0420eH
xdata	ENDS
;	COMDAT xdata
xdata	SEGMENT
$unwind$?setDirectory@CFileUtil@@SA_NPEADH@Z DD 010d01H
	DD	0a20dH
xdata	ENDS
;	COMDAT xdata
xdata	SEGMENT
$unwind$?FileCopy@CFileUtil@@SA_NPEBD0@Z DD 022919H
	DD	040b0117H
	DD	imagerel __GSHandlerCheck
	DD	02040H
xdata	ENDS
;	COMDAT xdata
xdata	SEGMENT
$unwind$?MakeDirectory@CFileUtil@@SA_NPEBD@Z DD 042019H
	DD	02f010eH
	DD	060067007H
	DD	imagerel __GSHandlerCheck
	DD	0160H
xdata	ENDS
;	COMDAT xdata
xdata	SEGMENT
$unwind$?dtor$0@?0??delDirectory@CFileUtil@@SAHPEAUSTDelInfo@@PEAUSTFilterData@@@Z@4HA DD 020601H
	DD	050023206H
xdata	ENDS
;	COMDAT xdata
xdata	SEGMENT
$ip2state$?delDirectory@CFileUtil@@SAHPEAUSTDelInfo@@PEAUSTFilterData@@@Z DD imagerel ?delDirectory@CFileUtil@@SAHPEAUSTDelInfo@@PEAUSTFilterData@@@Z
	DD	0ffffffffH
	DD	imagerel ?delDirectory@CFileUtil@@SAHPEAUSTDelInfo@@PEAUSTFilterData@@@Z+88
	DD	00H
	DD	imagerel ?delDirectory@CFileUtil@@SAHPEAUSTDelInfo@@PEAUSTFilterData@@@Z+131
	DD	0ffffffffH
	DD	imagerel ?delDirectory@CFileUtil@@SAHPEAUSTDelInfo@@PEAUSTFilterData@@@Z+153
	DD	00H
	DD	imagerel ?delDirectory@CFileUtil@@SAHPEAUSTDelInfo@@PEAUSTFilterData@@@Z+280
	DD	0ffffffffH
	DD	imagerel ?delDirectory@CFileUtil@@SAHPEAUSTDelInfo@@PEAUSTFilterData@@@Z+302
	DD	00H
	DD	imagerel ?delDirectory@CFileUtil@@SAHPEAUSTDelInfo@@PEAUSTFilterData@@@Z+344
	DD	0ffffffffH
	DD	imagerel ?delDirectory@CFileUtil@@SAHPEAUSTDelInfo@@PEAUSTFilterData@@@Z+366
	DD	00H
	DD	imagerel ?delDirectory@CFileUtil@@SAHPEAUSTDelInfo@@PEAUSTFilterData@@@Z+1315
	DD	0ffffffffH
xdata	ENDS
;	COMDAT xdata
xdata	SEGMENT
$stateUnwindMap$?delDirectory@CFileUtil@@SAHPEAUSTDelInfo@@PEAUSTFilterData@@@Z DD 0ffffffffH
	DD	imagerel ?dtor$0@?0??delDirectory@CFileUtil@@SAHPEAUSTDelInfo@@PEAUSTFilterData@@@Z@4HA
xdata	ENDS
;	COMDAT CONST
CONST	SEGMENT
$cppxdata$?delDirectory@CFileUtil@@SAHPEAUSTDelInfo@@PEAUSTFilterData@@@Z DD 019930522H
	DD	01H
	DD	imagerel $stateUnwindMap$?delDirectory@CFileUtil@@SAHPEAUSTDelInfo@@PEAUSTFilterData@@@Z
	DD	00H
	DD	00H
	DD	09H
	DD	imagerel $ip2state$?delDirectory@CFileUtil@@SAHPEAUSTDelInfo@@PEAUSTFilterData@@@Z
	DD	0a0H
	DD	00H
	DD	01H
CONST	ENDS
;	COMDAT xdata
xdata	SEGMENT
$unwind$?delDirectory@CFileUtil@@SAHPEAUSTDelInfo@@PEAUSTFilterData@@@Z DD 043119H
	DD	0870113H
	DD	0600b700cH
	DD	imagerel __GSHandlerCheck_EH
	DD	imagerel $cppxdata$?delDirectory@CFileUtil@@SAHPEAUSTDelInfo@@PEAUSTFilterData@@@Z
	DD	0422H
xdata	ENDS
;	COMDAT xdata
xdata	SEGMENT
$unwind$?GetFileList@CFileUtil@@SA_NPEAUSTFileList@@PEAUSTFilterData@@@Z DD 022319H
	DD	04b0111H
	DD	imagerel __GSHandlerCheck
	DD	0240H
xdata	ENDS
;	COMDAT xdata
xdata	SEGMENT
$unwind$?IsExistDirectory@CFileUtil@@SA_NPEAD@Z DD 010901H
	DD	06209H
xdata	ENDS
;	COMDAT xdata
xdata	SEGMENT
$unwind$?filter_dateTimeCompare@@YA_NPEADPEAX1@Z DD 011301H
	DD	06213H
xdata	ENDS
;	COMDAT xdata
xdata	SEGMENT
$unwind$?dtor$0@?0??filter_stringCompare@@YA_NPEADPEAX1@Z@4HA DD 020601H
	DD	050023206H
xdata	ENDS
;	COMDAT xdata
xdata	SEGMENT
$ip2state$?filter_stringCompare@@YA_NPEADPEAX1@Z DD imagerel ?filter_stringCompare@@YA_NPEADPEAX1@Z
	DD	0ffffffffH
	DD	imagerel ?filter_stringCompare@@YA_NPEADPEAX1@Z+113
	DD	00H
	DD	imagerel ?filter_stringCompare@@YA_NPEADPEAX1@Z+172
	DD	0ffffffffH
xdata	ENDS
;	COMDAT xdata
xdata	SEGMENT
$stateUnwindMap$?filter_stringCompare@@YA_NPEADPEAX1@Z DD 0ffffffffH
	DD	imagerel ?dtor$0@?0??filter_stringCompare@@YA_NPEADPEAX1@Z@4HA
xdata	ENDS
;	COMDAT CONST
CONST	SEGMENT
$cppxdata$?filter_stringCompare@@YA_NPEADPEAX1@Z DD 019930522H
	DD	01H
	DD	imagerel $stateUnwindMap$?filter_stringCompare@@YA_NPEADPEAX1@Z
	DD	00H
	DD	00H
	DD	03H
	DD	imagerel $ip2state$?filter_stringCompare@@YA_NPEADPEAX1@Z
	DD	050H
	DD	00H
	DD	01H
CONST	ENDS
;	COMDAT xdata
xdata	SEGMENT
$unwind$?filter_stringCompare@@YA_NPEADPEAX1@Z DD 012b19H
	DD	0e213H
	DD	imagerel __GSHandlerCheck_EH
	DD	imagerel $cppxdata$?filter_stringCompare@@YA_NPEADPEAX1@Z
	DD	062H
xdata	ENDS
;	COMDAT xdata
xdata	SEGMENT
$unwind$??_GCStringList@@QEAAPEAXI@Z DD 010d01H
	DD	0420dH
xdata	ENDS
;	COMDAT xdata
xdata	SEGMENT
$unwind$?__autoclassinit2@CStringList@@QEAAX_K@Z DD 010b01H
	DD	0700bH
xdata	ENDS
;	COMDAT xdata
xdata	SEGMENT
$unwind$?getNext@CStringList@@QEAAPEAVCmString@@PEAH@Z DD 010e01H
	DD	0420eH
xdata	ENDS
;	COMDAT xdata
xdata	SEGMENT
$unwind$?push_back@CStringList@@QEAAPEAVCmString@@PEAD@Z DD 010e01H
	DD	0420eH
xdata	ENDS
;	COMDAT xdata
xdata	SEGMENT
$unwind$?alloc@CStringList@@QEAAHH@Z DD 010d01H
	DD	0420dH
xdata	ENDS
;	COMDAT xdata
xdata	SEGMENT
$unwind$?delBuf@CMemManager@@QEAAXPEADH@Z DD 011301H
	DD	06213H
xdata	ENDS
;	COMDAT xdata
xdata	SEGMENT
$unwind$?newBuf@CMemManager@@QEAAPEADHPEAH@Z DD 011201H
	DD	04212H
xdata	ENDS
;	COMDAT xdata
xdata	SEGMENT
$unwind$?newBuf@CMemManager@@QEAAPEADH@Z DD 010d01H
	DD	0620dH
xdata	ENDS
;	COMDAT xdata
xdata	SEGMENT
$unwind$?getIndex@@YAHH@Z DD 010801H
	DD	04208H
xdata	ENDS
;	COMDAT xdata
xdata	SEGMENT
$unwind$?jISDIR@@YA_NPEAU_WIN32_FIND_DATAA@@@Z DD 010901H
	DD	02209H
xdata	ENDS
;	COMDAT xdata
xdata	SEGMENT
$unwind$?jISREG@@YA_NPEAU_WIN32_FIND_DATAA@@@Z DD 010901H
	DD	02209H
xdata	ENDS
;	COMDAT xdata
xdata	SEGMENT
$unwind$?com_nextFile@@YA_NPEAXPEAU_WIN32_FIND_DATAA@@@Z DD 010e01H
	DD	0620eH
xdata	ENDS
;	COMDAT xdata
xdata	SEGMENT
$unwind$?com_findFirstFile@@YAPEAXPEBDPEAU_WIN32_FIND_DATAA@@@Z DD 010e01H
	DD	0420eH
xdata	ENDS
;	COMDAT xdata
xdata	SEGMENT
$unwind$?com_isDirectory@@YA_NPEAD@Z DD 010901H
	DD	06209H
xdata	ENDS
;	COMDAT xdata
xdata	SEGMENT
$unwind$?com_isFile@@YA_NPEBD@Z DD 010901H
	DD	06209H
xdata	ENDS
;	COMDAT xdata
xdata	SEGMENT
$unwind$?com_isInvalid@@YA_NPEBD@Z DD 010901H
	DD	04209H
xdata	ENDS
;	COMDAT xdata
xdata	SEGMENT
$unwind$?com_mkdir@@YA_NPEBD@Z DD 010901H
	DD	06209H
xdata	ENDS
;	COMDAT xdata
xdata	SEGMENT
$unwind$?_tcsrchr@@YAPEADPEADI@Z DD 010d01H
	DD	0420dH
xdata	ENDS
;	COMDAT xdata
xdata	SEGMENT
$unwind$?_tcschr@@YAPEADPEADI@Z DD 010d01H
	DD	0420dH
xdata	ENDS
;	COMDAT xdata
xdata	SEGMENT
$unwind$_tcscmp DD 010e01H
	DD	0420eH
xdata	ENDS
;	COMDAT xdata
xdata	SEGMENT
$unwind$_tcsrchr DD 010d01H
	DD	0420dH
xdata	ENDS
;	COMDAT xdata
xdata	SEGMENT
$unwind$_tcsncpy DD 011301H
	DD	04213H
xdata	ENDS
;	COMDAT xdata
xdata	SEGMENT
$unwind$_tcschr DD 010d01H
	DD	0420dH
xdata	ENDS
;	COMDAT xdata
xdata	SEGMENT
$unwind$?strchr@@YAPEADQEADH@Z DD 010d01H
	DD	0420dH
xdata	ENDS
;	COMDAT xdata
xdata	SEGMENT
$unwind$sprintf DD 012719H
	DD	08218H
	DD	imagerel __GSHandlerCheck
	DD	030H
xdata	ENDS
;	COMDAT xdata
xdata	SEGMENT
$unwind$_vsprintf_l DD 011801H
	DD	06218H
xdata	ENDS
;	COMDAT xdata
xdata	SEGMENT
$unwind$_vsnprintf_l DD 011801H
	DD	08218H
xdata	ENDS
;	COMDAT xdata
xdata	SEGMENT
$unwind$printf DD 012719H
	DD	08218H
	DD	imagerel __GSHandlerCheck
	DD	030H
xdata	ENDS
;	COMDAT xdata
xdata	SEGMENT
$unwind$_vfprintf_l DD 011801H
	DD	06218H
xdata	ENDS
; Function compile flags: /Odtp
; File e:\infinia-library-3.0\com\include\comtlist.h
;	COMDAT ?__alloc@?$CTList@VCStringList@@@@AEAAHH@Z
_TEXT	SEGMENT
pList$ = 32
this$ = 80
nMaxCount$ = 88
?__alloc@?$CTList@VCStringList@@@@AEAAHH@Z PROC		; CTList<CStringList>::__alloc, COMDAT

; 402  : {

$LN5:
  00000	89 54 24 10	 mov	 DWORD PTR [rsp+16], edx
  00004	48 89 4c 24 08	 mov	 QWORD PTR [rsp+8], rcx
  00009	56		 push	 rsi
  0000a	57		 push	 rdi
  0000b	48 83 ec 38	 sub	 rsp, 56			; 00000038H

; 403  : 	T** pList = (T**)calloc(nMaxCount, sizeof(T*));

  0000f	48 63 44 24 58	 movsxd	 rax, DWORD PTR nMaxCount$[rsp]
  00014	ba 08 00 00 00	 mov	 edx, 8
  00019	48 8b c8	 mov	 rcx, rax
  0001c	ff 15 00 00 00
	00		 call	 QWORD PTR __imp_calloc
  00022	48 89 44 24 20	 mov	 QWORD PTR pList$[rsp], rax

; 404  : 	if (!pList) {

  00027	48 83 7c 24 20
	00		 cmp	 QWORD PTR pList$[rsp], 0
  0002d	75 17		 jne	 SHORT $LN2@alloc

; 405  : 		_stprintf(g_szMessage, "pList calloc is NULL");

  0002f	48 8d 15 00 00
	00 00		 lea	 rdx, OFFSET FLAT:$SG87075
  00036	48 8d 0d 00 00
	00 00		 lea	 rcx, OFFSET FLAT:?g_szMessage@@3PADA ; g_szMessage
  0003d	e8 00 00 00 00	 call	 sprintf

; 406  : 		return 0;

  00042	33 c0		 xor	 eax, eax
  00044	eb 49		 jmp	 SHORT $LN1@alloc
$LN2@alloc:

; 407  : 	}
; 408  : 	//_stprintf(g_szMessage, _T("CTList::__alloc list m_nMaxCount[%d]"), nMaxCount);
; 409  : 	if (m_pArray) {

  00046	48 8b 44 24 50	 mov	 rax, QWORD PTR this$[rsp]
  0004b	48 83 38 00	 cmp	 QWORD PTR [rax], 0
  0004f	74 2d		 je	 SHORT $LN3@alloc

; 410  : 		memcpy(pList, m_pArray, m_nMax * sizeof(T*));

  00051	48 8b 44 24 50	 mov	 rax, QWORD PTR this$[rsp]
  00056	48 63 40 14	 movsxd	 rax, DWORD PTR [rax+20]
  0005a	48 c1 e0 03	 shl	 rax, 3
  0005e	48 8b 4c 24 50	 mov	 rcx, QWORD PTR this$[rsp]
  00063	48 8b 7c 24 20	 mov	 rdi, QWORD PTR pList$[rsp]
  00068	48 8b 31	 mov	 rsi, QWORD PTR [rcx]
  0006b	48 8b c8	 mov	 rcx, rax
  0006e	f3 a4		 rep movsb

; 411  : 		free(m_pArray);

  00070	48 8b 44 24 50	 mov	 rax, QWORD PTR this$[rsp]
  00075	48 8b 08	 mov	 rcx, QWORD PTR [rax]
  00078	ff 15 00 00 00
	00		 call	 QWORD PTR __imp_free
$LN3@alloc:

; 412  : 	}
; 413  : 	m_pArray = pList;

  0007e	48 8b 44 24 50	 mov	 rax, QWORD PTR this$[rsp]
  00083	48 8b 4c 24 20	 mov	 rcx, QWORD PTR pList$[rsp]
  00088	48 89 08	 mov	 QWORD PTR [rax], rcx

; 414  : 	return nMaxCount;

  0008b	8b 44 24 58	 mov	 eax, DWORD PTR nMaxCount$[rsp]
$LN1@alloc:

; 415  : }

  0008f	48 83 c4 38	 add	 rsp, 56			; 00000038H
  00093	5f		 pop	 rdi
  00094	5e		 pop	 rsi
  00095	c3		 ret	 0
?__alloc@?$CTList@VCStringList@@@@AEAAHH@Z ENDP		; CTList<CStringList>::__alloc
_TEXT	ENDS
; Function compile flags: /Odtp
; File e:\infinia-library-3.0\com\include\comtlist.h
;	COMDAT ?getNext@?$CTList@VCStringList@@@@QEAAPEAVCStringList@@PEAH@Z
_TEXT	SEGMENT
this$ = 8
pIdx$ = 16
?getNext@?$CTList@VCStringList@@@@QEAAPEAVCStringList@@PEAH@Z PROC ; CTList<CStringList>::getNext, COMDAT

; 334  : 	inline T* getNext(int *pIdx) {

  00000	48 89 54 24 10	 mov	 QWORD PTR [rsp+16], rdx
  00005	48 89 4c 24 08	 mov	 QWORD PTR [rsp+8], rcx

; 335  : 		for (*pIdx; *pIdx < m_nMax; (*pIdx)++) {

  0000a	eb 10		 jmp	 SHORT $LN4@getNext
$LN2@getNext:
  0000c	48 8b 44 24 10	 mov	 rax, QWORD PTR pIdx$[rsp]
  00011	8b 00		 mov	 eax, DWORD PTR [rax]
  00013	ff c0		 inc	 eax
  00015	48 8b 4c 24 10	 mov	 rcx, QWORD PTR pIdx$[rsp]
  0001a	89 01		 mov	 DWORD PTR [rcx], eax
$LN4@getNext:
  0001c	48 8b 44 24 10	 mov	 rax, QWORD PTR pIdx$[rsp]
  00021	48 8b 4c 24 08	 mov	 rcx, QWORD PTR this$[rsp]
  00026	8b 49 14	 mov	 ecx, DWORD PTR [rcx+20]
  00029	39 08		 cmp	 DWORD PTR [rax], ecx
  0002b	7d 2f		 jge	 SHORT $LN3@getNext

; 336  : 			if (m_pArray[*pIdx]) { return m_pArray[*pIdx]; }

  0002d	48 8b 44 24 10	 mov	 rax, QWORD PTR pIdx$[rsp]
  00032	48 63 00	 movsxd	 rax, DWORD PTR [rax]
  00035	48 8b 4c 24 08	 mov	 rcx, QWORD PTR this$[rsp]
  0003a	48 8b 09	 mov	 rcx, QWORD PTR [rcx]
  0003d	48 83 3c c1 00	 cmp	 QWORD PTR [rcx+rax*8], 0
  00042	74 16		 je	 SHORT $LN5@getNext
  00044	48 8b 44 24 10	 mov	 rax, QWORD PTR pIdx$[rsp]
  00049	48 63 00	 movsxd	 rax, DWORD PTR [rax]
  0004c	48 8b 4c 24 08	 mov	 rcx, QWORD PTR this$[rsp]
  00051	48 8b 09	 mov	 rcx, QWORD PTR [rcx]
  00054	48 8b 04 c1	 mov	 rax, QWORD PTR [rcx+rax*8]
  00058	eb 04		 jmp	 SHORT $LN1@getNext
$LN5@getNext:

; 337  : 		}

  0005a	eb b0		 jmp	 SHORT $LN2@getNext
$LN3@getNext:

; 338  : 		return NULL;

  0005c	33 c0		 xor	 eax, eax
$LN1@getNext:

; 339  : 	}

  0005e	c3		 ret	 0
?getNext@?$CTList@VCStringList@@@@QEAAPEAVCStringList@@PEAH@Z ENDP ; CTList<CStringList>::getNext
_TEXT	ENDS
; Function compile flags: /Odtp
; File e:\infinia-library-3.0\com\include\comtlist.h
;	COMDAT ?push_back@?$CTList@VCStringList@@@@QEAA_NPEAVCStringList@@PEAH@Z
_TEXT	SEGMENT
nIdx$ = 32
i$ = 36
this$ = 64
Obj$ = 72
pIdx$ = 80
?push_back@?$CTList@VCStringList@@@@QEAA_NPEAVCStringList@@PEAH@Z PROC ; CTList<CStringList>::push_back, COMDAT

; 472  : {

$LN15:
  00000	4c 89 44 24 18	 mov	 QWORD PTR [rsp+24], r8
  00005	48 89 54 24 10	 mov	 QWORD PTR [rsp+16], rdx
  0000a	48 89 4c 24 08	 mov	 QWORD PTR [rsp+8], rcx
  0000f	48 83 ec 38	 sub	 rsp, 56			; 00000038H

; 473  : 	int nIdx, i;
; 474  : 
; 475  : 	if (m_nUse >= m_nMax) {

  00013	48 8b 44 24 40	 mov	 rax, QWORD PTR this$[rsp]
  00018	48 8b 4c 24 40	 mov	 rcx, QWORD PTR this$[rsp]
  0001d	8b 49 14	 mov	 ecx, DWORD PTR [rcx+20]
  00020	39 48 08	 cmp	 DWORD PTR [rax+8], ecx
  00023	7c 4b		 jl	 SHORT $LN5@push_back

; 476  : 		if (!__alloc(m_nMax + TLIST_ADD_SIZE)) return false;

  00025	48 8b 44 24 40	 mov	 rax, QWORD PTR this$[rsp]
  0002a	8b 40 14	 mov	 eax, DWORD PTR [rax+20]
  0002d	83 c0 40	 add	 eax, 64			; 00000040H
  00030	8b d0		 mov	 edx, eax
  00032	48 8b 4c 24 40	 mov	 rcx, QWORD PTR this$[rsp]
  00037	e8 00 00 00 00	 call	 ?__alloc@?$CTList@VCStringList@@@@AEAAHH@Z ; CTList<CStringList>::__alloc
  0003c	85 c0		 test	 eax, eax
  0003e	75 07		 jne	 SHORT $LN6@push_back
  00040	32 c0		 xor	 al, al
  00042	e9 0c 01 00 00	 jmp	 $LN1@push_back
$LN6@push_back:

; 477  : 		nIdx = m_nMax;

  00047	48 8b 44 24 40	 mov	 rax, QWORD PTR this$[rsp]
  0004c	8b 40 14	 mov	 eax, DWORD PTR [rax+20]
  0004f	89 44 24 20	 mov	 DWORD PTR nIdx$[rsp], eax

; 478  : 		m_nMax += TLIST_ADD_SIZE;

  00053	48 8b 44 24 40	 mov	 rax, QWORD PTR this$[rsp]
  00058	8b 40 14	 mov	 eax, DWORD PTR [rax+20]
  0005b	83 c0 40	 add	 eax, 64			; 00000040H
  0005e	48 8b 4c 24 40	 mov	 rcx, QWORD PTR this$[rsp]
  00063	89 41 14	 mov	 DWORD PTR [rcx+20], eax

; 479  : 		goto ADD_SUCCESS;

  00066	e9 99 00 00 00	 jmp	 $LN7@push_back
  0006b	e9 94 00 00 00	 jmp	 $ADD_SUCCESS$16
$LN5@push_back:

; 480  : 	}
; 481  : 
; 482  : 	if (!m_pArray[m_nLast]) { nIdx = m_nLast;  goto ADD_SUCCESS; }

  00070	48 8b 44 24 40	 mov	 rax, QWORD PTR this$[rsp]
  00075	48 63 40 0c	 movsxd	 rax, DWORD PTR [rax+12]
  00079	48 8b 4c 24 40	 mov	 rcx, QWORD PTR this$[rsp]
  0007e	48 8b 09	 mov	 rcx, QWORD PTR [rcx]
  00081	48 83 3c c1 00	 cmp	 QWORD PTR [rcx+rax*8], 0
  00086	75 10		 jne	 SHORT $LN8@push_back
  00088	48 8b 44 24 40	 mov	 rax, QWORD PTR this$[rsp]
  0008d	8b 40 0c	 mov	 eax, DWORD PTR [rax+12]
  00090	89 44 24 20	 mov	 DWORD PTR nIdx$[rsp], eax
  00094	eb 6e		 jmp	 SHORT $LN9@push_back
  00096	eb 6c		 jmp	 SHORT $ADD_SUCCESS$16
$LN8@push_back:

; 483  : 
; 484  : 	nIdx = m_nLast;

  00098	48 8b 44 24 40	 mov	 rax, QWORD PTR this$[rsp]
  0009d	8b 40 0c	 mov	 eax, DWORD PTR [rax+12]
  000a0	89 44 24 20	 mov	 DWORD PTR nIdx$[rsp], eax

; 485  : 	for (i = 0; i < m_nMax; i++)

  000a4	c7 44 24 24 00
	00 00 00	 mov	 DWORD PTR i$[rsp], 0
  000ac	eb 0a		 jmp	 SHORT $LN4@push_back
$LN2@push_back:
  000ae	8b 44 24 24	 mov	 eax, DWORD PTR i$[rsp]
  000b2	ff c0		 inc	 eax
  000b4	89 44 24 24	 mov	 DWORD PTR i$[rsp], eax
$LN4@push_back:
  000b8	48 8b 44 24 40	 mov	 rax, QWORD PTR this$[rsp]
  000bd	8b 40 14	 mov	 eax, DWORD PTR [rax+20]
  000c0	39 44 24 24	 cmp	 DWORD PTR i$[rsp], eax
  000c4	7d 3a		 jge	 SHORT $LN3@push_back

; 486  : 	{
; 487  : 		if (nIdx >= m_nMax) nIdx = 0;

  000c6	48 8b 44 24 40	 mov	 rax, QWORD PTR this$[rsp]
  000cb	8b 40 14	 mov	 eax, DWORD PTR [rax+20]
  000ce	39 44 24 20	 cmp	 DWORD PTR nIdx$[rsp], eax
  000d2	7c 08		 jl	 SHORT $LN10@push_back
  000d4	c7 44 24 20 00
	00 00 00	 mov	 DWORD PTR nIdx$[rsp], 0
$LN10@push_back:

; 488  : 		if (!m_pArray[nIdx]) {

  000dc	48 63 44 24 20	 movsxd	 rax, DWORD PTR nIdx$[rsp]
  000e1	48 8b 4c 24 40	 mov	 rcx, QWORD PTR this$[rsp]
  000e6	48 8b 09	 mov	 rcx, QWORD PTR [rcx]
  000e9	48 83 3c c1 00	 cmp	 QWORD PTR [rcx+rax*8], 0
  000ee	75 04		 jne	 SHORT $LN11@push_back

; 489  : 			goto ADD_SUCCESS;

  000f0	eb 12		 jmp	 SHORT $LN12@push_back
  000f2	eb 10		 jmp	 SHORT $ADD_SUCCESS$16
$LN11@push_back:

; 490  : 		}
; 491  : 		nIdx++;

  000f4	8b 44 24 20	 mov	 eax, DWORD PTR nIdx$[rsp]
  000f8	ff c0		 inc	 eax
  000fa	89 44 24 20	 mov	 DWORD PTR nIdx$[rsp], eax

; 492  : 	}

  000fe	eb ae		 jmp	 SHORT $LN2@push_back
$LN3@push_back:

; 493  : 	//_stprintf(m_szMessage, _T("add FAIL! m_nLast[%d] m_nCurCount[%d] m_nMax[%d]"), m_nLast, m_nUse, m_nMax);
; 494  : 	return false;

  00100	32 c0		 xor	 al, al
  00102	eb 4f		 jmp	 SHORT $LN1@push_back
$LN7@push_back:
$LN9@push_back:
$LN12@push_back:
$ADD_SUCCESS$16:

; 495  : 
; 496  : ADD_SUCCESS:
; 497  : 	m_nUse++;

  00104	48 8b 44 24 40	 mov	 rax, QWORD PTR this$[rsp]
  00109	8b 40 08	 mov	 eax, DWORD PTR [rax+8]
  0010c	ff c0		 inc	 eax
  0010e	48 8b 4c 24 40	 mov	 rcx, QWORD PTR this$[rsp]
  00113	89 41 08	 mov	 DWORD PTR [rcx+8], eax

; 498  : 	m_pArray[nIdx] = Obj;

  00116	48 63 44 24 20	 movsxd	 rax, DWORD PTR nIdx$[rsp]
  0011b	48 8b 4c 24 40	 mov	 rcx, QWORD PTR this$[rsp]
  00120	48 8b 09	 mov	 rcx, QWORD PTR [rcx]
  00123	48 8b 54 24 48	 mov	 rdx, QWORD PTR Obj$[rsp]
  00128	48 89 14 c1	 mov	 QWORD PTR [rcx+rax*8], rdx

; 499  : 	m_nLast++;

  0012c	48 8b 44 24 40	 mov	 rax, QWORD PTR this$[rsp]
  00131	8b 40 0c	 mov	 eax, DWORD PTR [rax+12]
  00134	ff c0		 inc	 eax
  00136	48 8b 4c 24 40	 mov	 rcx, QWORD PTR this$[rsp]
  0013b	89 41 0c	 mov	 DWORD PTR [rcx+12], eax

; 500  : 	//_stprintf(g_szMessage, _T("CMemList::add i[%d] m_nLast[%d] m_nCurCount[%d]"), nIdx, m_nLast, m_nUse);
; 501  : 	if (pIdx) *pIdx = nIdx;

  0013e	48 83 7c 24 50
	00		 cmp	 QWORD PTR pIdx$[rsp], 0
  00144	74 0b		 je	 SHORT $LN13@push_back
  00146	48 8b 44 24 50	 mov	 rax, QWORD PTR pIdx$[rsp]
  0014b	8b 4c 24 20	 mov	 ecx, DWORD PTR nIdx$[rsp]
  0014f	89 08		 mov	 DWORD PTR [rax], ecx
$LN13@push_back:

; 502  : 	return true;

  00151	b0 01		 mov	 al, 1
$LN1@push_back:

; 503  : }

  00153	48 83 c4 38	 add	 rsp, 56			; 00000038H
  00157	c3		 ret	 0
?push_back@?$CTList@VCStringList@@@@QEAA_NPEAVCStringList@@PEAH@Z ENDP ; CTList<CStringList>::push_back
_TEXT	ENDS
; Function compile flags: /Odtp
;	COMDAT ?__autoclassinit2@?$CTList@UfileInfo@@@@QEAAX_K@Z
_TEXT	SEGMENT
this$ = 16
classSize$ = 24
?__autoclassinit2@?$CTList@UfileInfo@@@@QEAAX_K@Z PROC	; CTList<fileInfo>::__autoclassinit2, COMDAT
$LN3:
  00000	48 89 54 24 10	 mov	 QWORD PTR [rsp+16], rdx
  00005	48 89 4c 24 08	 mov	 QWORD PTR [rsp+8], rcx
  0000a	57		 push	 rdi
  0000b	48 8b 7c 24 10	 mov	 rdi, QWORD PTR this$[rsp]
  00010	33 c0		 xor	 eax, eax
  00012	48 8b 4c 24 18	 mov	 rcx, QWORD PTR classSize$[rsp]
  00017	f3 aa		 rep stosb
  00019	5f		 pop	 rdi
  0001a	c3		 ret	 0
?__autoclassinit2@?$CTList@UfileInfo@@@@QEAAX_K@Z ENDP	; CTList<fileInfo>::__autoclassinit2
_TEXT	ENDS
; Function compile flags: /Odtp
; File e:\infinia-library-3.0\com\include\comtlist.h
;	COMDAT ?__alloc@?$CTList@UfileInfo@@@@AEAAHH@Z
_TEXT	SEGMENT
pList$ = 32
this$ = 80
nMaxCount$ = 88
?__alloc@?$CTList@UfileInfo@@@@AEAAHH@Z PROC		; CTList<fileInfo>::__alloc, COMDAT

; 402  : {

$LN5:
  00000	89 54 24 10	 mov	 DWORD PTR [rsp+16], edx
  00004	48 89 4c 24 08	 mov	 QWORD PTR [rsp+8], rcx
  00009	56		 push	 rsi
  0000a	57		 push	 rdi
  0000b	48 83 ec 38	 sub	 rsp, 56			; 00000038H

; 403  : 	T** pList = (T**)calloc(nMaxCount, sizeof(T*));

  0000f	48 63 44 24 58	 movsxd	 rax, DWORD PTR nMaxCount$[rsp]
  00014	ba 08 00 00 00	 mov	 edx, 8
  00019	48 8b c8	 mov	 rcx, rax
  0001c	ff 15 00 00 00
	00		 call	 QWORD PTR __imp_calloc
  00022	48 89 44 24 20	 mov	 QWORD PTR pList$[rsp], rax

; 404  : 	if (!pList) {

  00027	48 83 7c 24 20
	00		 cmp	 QWORD PTR pList$[rsp], 0
  0002d	75 17		 jne	 SHORT $LN2@alloc

; 405  : 		_stprintf(g_szMessage, "pList calloc is NULL");

  0002f	48 8d 15 00 00
	00 00		 lea	 rdx, OFFSET FLAT:$SG87042
  00036	48 8d 0d 00 00
	00 00		 lea	 rcx, OFFSET FLAT:?g_szMessage@@3PADA ; g_szMessage
  0003d	e8 00 00 00 00	 call	 sprintf

; 406  : 		return 0;

  00042	33 c0		 xor	 eax, eax
  00044	eb 49		 jmp	 SHORT $LN1@alloc
$LN2@alloc:

; 407  : 	}
; 408  : 	//_stprintf(g_szMessage, _T("CTList::__alloc list m_nMaxCount[%d]"), nMaxCount);
; 409  : 	if (m_pArray) {

  00046	48 8b 44 24 50	 mov	 rax, QWORD PTR this$[rsp]
  0004b	48 83 38 00	 cmp	 QWORD PTR [rax], 0
  0004f	74 2d		 je	 SHORT $LN3@alloc

; 410  : 		memcpy(pList, m_pArray, m_nMax * sizeof(T*));

  00051	48 8b 44 24 50	 mov	 rax, QWORD PTR this$[rsp]
  00056	48 63 40 14	 movsxd	 rax, DWORD PTR [rax+20]
  0005a	48 c1 e0 03	 shl	 rax, 3
  0005e	48 8b 4c 24 50	 mov	 rcx, QWORD PTR this$[rsp]
  00063	48 8b 7c 24 20	 mov	 rdi, QWORD PTR pList$[rsp]
  00068	48 8b 31	 mov	 rsi, QWORD PTR [rcx]
  0006b	48 8b c8	 mov	 rcx, rax
  0006e	f3 a4		 rep movsb

; 411  : 		free(m_pArray);

  00070	48 8b 44 24 50	 mov	 rax, QWORD PTR this$[rsp]
  00075	48 8b 08	 mov	 rcx, QWORD PTR [rax]
  00078	ff 15 00 00 00
	00		 call	 QWORD PTR __imp_free
$LN3@alloc:

; 412  : 	}
; 413  : 	m_pArray = pList;

  0007e	48 8b 44 24 50	 mov	 rax, QWORD PTR this$[rsp]
  00083	48 8b 4c 24 20	 mov	 rcx, QWORD PTR pList$[rsp]
  00088	48 89 08	 mov	 QWORD PTR [rax], rcx

; 414  : 	return nMaxCount;

  0008b	8b 44 24 58	 mov	 eax, DWORD PTR nMaxCount$[rsp]
$LN1@alloc:

; 415  : }

  0008f	48 83 c4 38	 add	 rsp, 56			; 00000038H
  00093	5f		 pop	 rdi
  00094	5e		 pop	 rsi
  00095	c3		 ret	 0
?__alloc@?$CTList@UfileInfo@@@@AEAAHH@Z ENDP		; CTList<fileInfo>::__alloc
_TEXT	ENDS
; Function compile flags: /Odtp
; File e:\infinia-library-3.0\com\include\comtlist.h
;	COMDAT ?size@?$CTList@UfileInfo@@@@QEAAHXZ
_TEXT	SEGMENT
this$ = 8
?size@?$CTList@UfileInfo@@@@QEAAHXZ PROC		; CTList<fileInfo>::size, COMDAT

; 347  : 	inline int  size() { return m_nUse; }

  00000	48 89 4c 24 08	 mov	 QWORD PTR [rsp+8], rcx
  00005	48 8b 44 24 08	 mov	 rax, QWORD PTR this$[rsp]
  0000a	8b 40 08	 mov	 eax, DWORD PTR [rax+8]
  0000d	c3		 ret	 0
?size@?$CTList@UfileInfo@@@@QEAAHXZ ENDP		; CTList<fileInfo>::size
_TEXT	ENDS
; Function compile flags: /Odtp
; File e:\infinia-library-3.0\com\include\comtlist.h
;	COMDAT ?push_back@?$CTList@UfileInfo@@@@QEAA_NPEAUfileInfo@@PEAH@Z
_TEXT	SEGMENT
nIdx$ = 32
i$ = 36
this$ = 64
Obj$ = 72
pIdx$ = 80
?push_back@?$CTList@UfileInfo@@@@QEAA_NPEAUfileInfo@@PEAH@Z PROC ; CTList<fileInfo>::push_back, COMDAT

; 472  : {

$LN15:
  00000	4c 89 44 24 18	 mov	 QWORD PTR [rsp+24], r8
  00005	48 89 54 24 10	 mov	 QWORD PTR [rsp+16], rdx
  0000a	48 89 4c 24 08	 mov	 QWORD PTR [rsp+8], rcx
  0000f	48 83 ec 38	 sub	 rsp, 56			; 00000038H

; 473  : 	int nIdx, i;
; 474  : 
; 475  : 	if (m_nUse >= m_nMax) {

  00013	48 8b 44 24 40	 mov	 rax, QWORD PTR this$[rsp]
  00018	48 8b 4c 24 40	 mov	 rcx, QWORD PTR this$[rsp]
  0001d	8b 49 14	 mov	 ecx, DWORD PTR [rcx+20]
  00020	39 48 08	 cmp	 DWORD PTR [rax+8], ecx
  00023	7c 4b		 jl	 SHORT $LN5@push_back

; 476  : 		if (!__alloc(m_nMax + TLIST_ADD_SIZE)) return false;

  00025	48 8b 44 24 40	 mov	 rax, QWORD PTR this$[rsp]
  0002a	8b 40 14	 mov	 eax, DWORD PTR [rax+20]
  0002d	83 c0 40	 add	 eax, 64			; 00000040H
  00030	8b d0		 mov	 edx, eax
  00032	48 8b 4c 24 40	 mov	 rcx, QWORD PTR this$[rsp]
  00037	e8 00 00 00 00	 call	 ?__alloc@?$CTList@UfileInfo@@@@AEAAHH@Z ; CTList<fileInfo>::__alloc
  0003c	85 c0		 test	 eax, eax
  0003e	75 07		 jne	 SHORT $LN6@push_back
  00040	32 c0		 xor	 al, al
  00042	e9 0c 01 00 00	 jmp	 $LN1@push_back
$LN6@push_back:

; 477  : 		nIdx = m_nMax;

  00047	48 8b 44 24 40	 mov	 rax, QWORD PTR this$[rsp]
  0004c	8b 40 14	 mov	 eax, DWORD PTR [rax+20]
  0004f	89 44 24 20	 mov	 DWORD PTR nIdx$[rsp], eax

; 478  : 		m_nMax += TLIST_ADD_SIZE;

  00053	48 8b 44 24 40	 mov	 rax, QWORD PTR this$[rsp]
  00058	8b 40 14	 mov	 eax, DWORD PTR [rax+20]
  0005b	83 c0 40	 add	 eax, 64			; 00000040H
  0005e	48 8b 4c 24 40	 mov	 rcx, QWORD PTR this$[rsp]
  00063	89 41 14	 mov	 DWORD PTR [rcx+20], eax

; 479  : 		goto ADD_SUCCESS;

  00066	e9 99 00 00 00	 jmp	 $LN7@push_back
  0006b	e9 94 00 00 00	 jmp	 $ADD_SUCCESS$16
$LN5@push_back:

; 480  : 	}
; 481  : 
; 482  : 	if (!m_pArray[m_nLast]) { nIdx = m_nLast;  goto ADD_SUCCESS; }

  00070	48 8b 44 24 40	 mov	 rax, QWORD PTR this$[rsp]
  00075	48 63 40 0c	 movsxd	 rax, DWORD PTR [rax+12]
  00079	48 8b 4c 24 40	 mov	 rcx, QWORD PTR this$[rsp]
  0007e	48 8b 09	 mov	 rcx, QWORD PTR [rcx]
  00081	48 83 3c c1 00	 cmp	 QWORD PTR [rcx+rax*8], 0
  00086	75 10		 jne	 SHORT $LN8@push_back
  00088	48 8b 44 24 40	 mov	 rax, QWORD PTR this$[rsp]
  0008d	8b 40 0c	 mov	 eax, DWORD PTR [rax+12]
  00090	89 44 24 20	 mov	 DWORD PTR nIdx$[rsp], eax
  00094	eb 6e		 jmp	 SHORT $LN9@push_back
  00096	eb 6c		 jmp	 SHORT $ADD_SUCCESS$16
$LN8@push_back:

; 483  : 
; 484  : 	nIdx = m_nLast;

  00098	48 8b 44 24 40	 mov	 rax, QWORD PTR this$[rsp]
  0009d	8b 40 0c	 mov	 eax, DWORD PTR [rax+12]
  000a0	89 44 24 20	 mov	 DWORD PTR nIdx$[rsp], eax

; 485  : 	for (i = 0; i < m_nMax; i++)

  000a4	c7 44 24 24 00
	00 00 00	 mov	 DWORD PTR i$[rsp], 0
  000ac	eb 0a		 jmp	 SHORT $LN4@push_back
$LN2@push_back:
  000ae	8b 44 24 24	 mov	 eax, DWORD PTR i$[rsp]
  000b2	ff c0		 inc	 eax
  000b4	89 44 24 24	 mov	 DWORD PTR i$[rsp], eax
$LN4@push_back:
  000b8	48 8b 44 24 40	 mov	 rax, QWORD PTR this$[rsp]
  000bd	8b 40 14	 mov	 eax, DWORD PTR [rax+20]
  000c0	39 44 24 24	 cmp	 DWORD PTR i$[rsp], eax
  000c4	7d 3a		 jge	 SHORT $LN3@push_back

; 486  : 	{
; 487  : 		if (nIdx >= m_nMax) nIdx = 0;

  000c6	48 8b 44 24 40	 mov	 rax, QWORD PTR this$[rsp]
  000cb	8b 40 14	 mov	 eax, DWORD PTR [rax+20]
  000ce	39 44 24 20	 cmp	 DWORD PTR nIdx$[rsp], eax
  000d2	7c 08		 jl	 SHORT $LN10@push_back
  000d4	c7 44 24 20 00
	00 00 00	 mov	 DWORD PTR nIdx$[rsp], 0
$LN10@push_back:

; 488  : 		if (!m_pArray[nIdx]) {

  000dc	48 63 44 24 20	 movsxd	 rax, DWORD PTR nIdx$[rsp]
  000e1	48 8b 4c 24 40	 mov	 rcx, QWORD PTR this$[rsp]
  000e6	48 8b 09	 mov	 rcx, QWORD PTR [rcx]
  000e9	48 83 3c c1 00	 cmp	 QWORD PTR [rcx+rax*8], 0
  000ee	75 04		 jne	 SHORT $LN11@push_back

; 489  : 			goto ADD_SUCCESS;

  000f0	eb 12		 jmp	 SHORT $LN12@push_back
  000f2	eb 10		 jmp	 SHORT $ADD_SUCCESS$16
$LN11@push_back:

; 490  : 		}
; 491  : 		nIdx++;

  000f4	8b 44 24 20	 mov	 eax, DWORD PTR nIdx$[rsp]
  000f8	ff c0		 inc	 eax
  000fa	89 44 24 20	 mov	 DWORD PTR nIdx$[rsp], eax

; 492  : 	}

  000fe	eb ae		 jmp	 SHORT $LN2@push_back
$LN3@push_back:

; 493  : 	//_stprintf(m_szMessage, _T("add FAIL! m_nLast[%d] m_nCurCount[%d] m_nMax[%d]"), m_nLast, m_nUse, m_nMax);
; 494  : 	return false;

  00100	32 c0		 xor	 al, al
  00102	eb 4f		 jmp	 SHORT $LN1@push_back
$LN7@push_back:
$LN9@push_back:
$LN12@push_back:
$ADD_SUCCESS$16:

; 495  : 
; 496  : ADD_SUCCESS:
; 497  : 	m_nUse++;

  00104	48 8b 44 24 40	 mov	 rax, QWORD PTR this$[rsp]
  00109	8b 40 08	 mov	 eax, DWORD PTR [rax+8]
  0010c	ff c0		 inc	 eax
  0010e	48 8b 4c 24 40	 mov	 rcx, QWORD PTR this$[rsp]
  00113	89 41 08	 mov	 DWORD PTR [rcx+8], eax

; 498  : 	m_pArray[nIdx] = Obj;

  00116	48 63 44 24 20	 movsxd	 rax, DWORD PTR nIdx$[rsp]
  0011b	48 8b 4c 24 40	 mov	 rcx, QWORD PTR this$[rsp]
  00120	48 8b 09	 mov	 rcx, QWORD PTR [rcx]
  00123	48 8b 54 24 48	 mov	 rdx, QWORD PTR Obj$[rsp]
  00128	48 89 14 c1	 mov	 QWORD PTR [rcx+rax*8], rdx

; 499  : 	m_nLast++;

  0012c	48 8b 44 24 40	 mov	 rax, QWORD PTR this$[rsp]
  00131	8b 40 0c	 mov	 eax, DWORD PTR [rax+12]
  00134	ff c0		 inc	 eax
  00136	48 8b 4c 24 40	 mov	 rcx, QWORD PTR this$[rsp]
  0013b	89 41 0c	 mov	 DWORD PTR [rcx+12], eax

; 500  : 	//_stprintf(g_szMessage, _T("CMemList::add i[%d] m_nLast[%d] m_nCurCount[%d]"), nIdx, m_nLast, m_nUse);
; 501  : 	if (pIdx) *pIdx = nIdx;

  0013e	48 83 7c 24 50
	00		 cmp	 QWORD PTR pIdx$[rsp], 0
  00144	74 0b		 je	 SHORT $LN13@push_back
  00146	48 8b 44 24 50	 mov	 rax, QWORD PTR pIdx$[rsp]
  0014b	8b 4c 24 20	 mov	 ecx, DWORD PTR nIdx$[rsp]
  0014f	89 08		 mov	 DWORD PTR [rax], ecx
$LN13@push_back:

; 502  : 	return true;

  00151	b0 01		 mov	 al, 1
$LN1@push_back:

; 503  : }

  00153	48 83 c4 38	 add	 rsp, 56			; 00000038H
  00157	c3		 ret	 0
?push_back@?$CTList@UfileInfo@@@@QEAA_NPEAUfileInfo@@PEAH@Z ENDP ; CTList<fileInfo>::push_back
_TEXT	ENDS
; Function compile flags: /Odtp
; File e:\infinia-library-3.0\com\include\comtlist.h
;	COMDAT ?alloc@?$CTList@UfileInfo@@@@QEAAHHW4E_ALLOC_TYPE@@@Z
_TEXT	SEGMENT
this$ = 48
nMaxCount$ = 56
type$ = 64
?alloc@?$CTList@UfileInfo@@@@QEAAHHW4E_ALLOC_TYPE@@@Z PROC ; CTList<fileInfo>::alloc, COMDAT

; 326  : 	int alloc(int nMaxCount, E_ALLOC_TYPE type = eAlloc_Type_new) { m_nObjAllocType = type;  m_nMax = __alloc(nMaxCount); return m_nMax; }

$LN3:
  00000	44 89 44 24 18	 mov	 DWORD PTR [rsp+24], r8d
  00005	89 54 24 10	 mov	 DWORD PTR [rsp+16], edx
  00009	48 89 4c 24 08	 mov	 QWORD PTR [rsp+8], rcx
  0000e	48 83 ec 28	 sub	 rsp, 40			; 00000028H
  00012	48 8b 44 24 30	 mov	 rax, QWORD PTR this$[rsp]
  00017	8b 4c 24 40	 mov	 ecx, DWORD PTR type$[rsp]
  0001b	89 48 18	 mov	 DWORD PTR [rax+24], ecx
  0001e	8b 54 24 38	 mov	 edx, DWORD PTR nMaxCount$[rsp]
  00022	48 8b 4c 24 30	 mov	 rcx, QWORD PTR this$[rsp]
  00027	e8 00 00 00 00	 call	 ?__alloc@?$CTList@UfileInfo@@@@AEAAHH@Z ; CTList<fileInfo>::__alloc
  0002c	48 8b 4c 24 30	 mov	 rcx, QWORD PTR this$[rsp]
  00031	89 41 14	 mov	 DWORD PTR [rcx+20], eax
  00034	48 8b 44 24 30	 mov	 rax, QWORD PTR this$[rsp]
  00039	8b 40 14	 mov	 eax, DWORD PTR [rax+20]
  0003c	48 83 c4 28	 add	 rsp, 40			; 00000028H
  00040	c3		 ret	 0
?alloc@?$CTList@UfileInfo@@@@QEAAHHW4E_ALLOC_TYPE@@@Z ENDP ; CTList<fileInfo>::alloc
_TEXT	ENDS
; Function compile flags: /Odtp
; File e:\infinia-library-3.0\com\include\comtlist.h
;	COMDAT ??0?$CTList@UfileInfo@@@@QEAA@XZ
_TEXT	SEGMENT
this$ = 8
??0?$CTList@UfileInfo@@@@QEAA@XZ PROC			; CTList<fileInfo>::CTList<fileInfo>, COMDAT

; 365  : {

  00000	48 89 4c 24 08	 mov	 QWORD PTR [rsp+8], rcx

; 366  : 	m_pArray = NULL;

  00005	48 8b 44 24 08	 mov	 rax, QWORD PTR this$[rsp]
  0000a	48 c7 00 00 00
	00 00		 mov	 QWORD PTR [rax], 0

; 367  : 	m_nUse = 0;

  00011	48 8b 44 24 08	 mov	 rax, QWORD PTR this$[rsp]
  00016	c7 40 08 00 00
	00 00		 mov	 DWORD PTR [rax+8], 0

; 368  : 	m_nLast = 0;

  0001d	48 8b 44 24 08	 mov	 rax, QWORD PTR this$[rsp]
  00022	c7 40 0c 00 00
	00 00		 mov	 DWORD PTR [rax+12], 0

; 369  : 	m_nDelIdx = 0;

  00029	48 8b 44 24 08	 mov	 rax, QWORD PTR this$[rsp]
  0002e	c7 40 10 00 00
	00 00		 mov	 DWORD PTR [rax+16], 0

; 370  : 	m_nMax = 0;

  00035	48 8b 44 24 08	 mov	 rax, QWORD PTR this$[rsp]
  0003a	c7 40 14 00 00
	00 00		 mov	 DWORD PTR [rax+20], 0

; 371  : 	m_nObjAllocType = eAlloc_Type_none;

  00041	48 8b 44 24 08	 mov	 rax, QWORD PTR this$[rsp]
  00046	c7 40 18 00 00
	00 00		 mov	 DWORD PTR [rax+24], 0

; 372  : }

  0004d	48 8b 44 24 08	 mov	 rax, QWORD PTR this$[rsp]
  00052	c3		 ret	 0
??0?$CTList@UfileInfo@@@@QEAA@XZ ENDP			; CTList<fileInfo>::CTList<fileInfo>
_TEXT	ENDS
; Function compile flags: /Odtp
; File e:\infinia-library-3.0\com\src\comfileutil.cpp
;	COMDAT ?CheckDirName@@YAXPEAD@Z
_TEXT	SEGMENT
fromChar$ = 0
toChar$ = 1
dirName$ = 32
?CheckDirName@@YAXPEAD@Z PROC				; CheckDirName, COMDAT

; 61   : {

$LN6:
  00000	48 89 4c 24 08	 mov	 QWORD PTR [rsp+8], rcx
  00005	48 83 ec 18	 sub	 rsp, 24

; 62   : #ifndef WIN32
; 63   : 	TCHAR	fromChar = '\\';
; 64   : 	TCHAR	toChar = '/';
; 65   : #else
; 66   : 	TCHAR	fromChar = '/';

  00009	c6 04 24 2f	 mov	 BYTE PTR fromChar$[rsp], 47 ; 0000002fH

; 67   : 	TCHAR	toChar = '\\';

  0000d	c6 44 24 01 5c	 mov	 BYTE PTR toChar$[rsp], 92 ; 0000005cH
$LN2@CheckDirNa:

; 68   : #endif
; 69   : 
; 70   : 	while (dirName && *dirName)

  00012	48 83 7c 24 20
	00		 cmp	 QWORD PTR dirName$[rsp], 0
  00018	74 37		 je	 SHORT $LN3@CheckDirNa
  0001a	48 8b 44 24 20	 mov	 rax, QWORD PTR dirName$[rsp]
  0001f	0f be 00	 movsx	 eax, BYTE PTR [rax]
  00022	85 c0		 test	 eax, eax
  00024	74 2b		 je	 SHORT $LN3@CheckDirNa

; 71   : 	{
; 72   : 		if (*dirName == fromChar)

  00026	48 8b 44 24 20	 mov	 rax, QWORD PTR dirName$[rsp]
  0002b	0f be 00	 movsx	 eax, BYTE PTR [rax]
  0002e	0f be 0c 24	 movsx	 ecx, BYTE PTR fromChar$[rsp]
  00032	3b c1		 cmp	 eax, ecx
  00034	75 0c		 jne	 SHORT $LN4@CheckDirNa

; 73   : 			*dirName = toChar;

  00036	48 8b 44 24 20	 mov	 rax, QWORD PTR dirName$[rsp]
  0003b	0f b6 4c 24 01	 movzx	 ecx, BYTE PTR toChar$[rsp]
  00040	88 08		 mov	 BYTE PTR [rax], cl
$LN4@CheckDirNa:

; 74   : 		dirName++;

  00042	48 8b 44 24 20	 mov	 rax, QWORD PTR dirName$[rsp]
  00047	48 ff c0	 inc	 rax
  0004a	48 89 44 24 20	 mov	 QWORD PTR dirName$[rsp], rax

; 75   : 	}

  0004f	eb c1		 jmp	 SHORT $LN2@CheckDirNa
$LN3@CheckDirNa:

; 76   : }

  00051	48 83 c4 18	 add	 rsp, 24
  00055	c3		 ret	 0
?CheckDirName@@YAXPEAD@Z ENDP				; CheckDirName
_TEXT	ENDS
; Function compile flags: /Odtp
; File e:\infinia-library-3.0\com\src\comfileutil.cpp
;	COMDAT ?appendFileList@CFileUtil@@CA_NPEAV?$CTList@UfileInfo@@@@PEBDD@Z
_TEXT	SEGMENT
tv133 = 64
pInfo$ = 72
tv170 = 80
tv131 = 88
nLen$ = 96
$T1 = 104
tv129 = 112
tv78 = 120
i$ = 128
$T2 = 136
tv169 = 144
$T3 = 152
tv132 = 160
nIdx$ = 168
__$ArrayPad$ = 176
flist$ = 208
fname$ = 216
ftype$ = 224
?appendFileList@CFileUtil@@CA_NPEAV?$CTList@UfileInfo@@@@PEBDD@Z PROC ; CFileUtil::appendFileList, COMDAT

; 272  : {

$LN13:
  00000	44 88 44 24 18	 mov	 BYTE PTR [rsp+24], r8b
  00005	48 89 54 24 10	 mov	 QWORD PTR [rsp+16], rdx
  0000a	48 89 4c 24 08	 mov	 QWORD PTR [rsp+8], rcx
  0000f	48 81 ec c8 00
	00 00		 sub	 rsp, 200		; 000000c8H
  00016	48 c7 84 24 98
	00 00 00 fe ff
	ff ff		 mov	 QWORD PTR $T3[rsp], -2
  00022	48 8b 05 00 00
	00 00		 mov	 rax, QWORD PTR __security_cookie
  00029	48 33 c4	 xor	 rax, rsp
  0002c	48 89 84 24 b0
	00 00 00	 mov	 QWORD PTR __$ArrayPad$[rsp], rax

; 273  : 	if (!flist) {

  00034	48 83 bc 24 d0
	00 00 00 00	 cmp	 QWORD PTR flist$[rsp], 0
  0003d	0f 85 92 00 00
	00		 jne	 $LN2@appendFile

; 274  : 		flist = new CTList<fileInfo>();

  00043	b9 20 00 00 00	 mov	 ecx, 32			; 00000020H
  00048	e8 00 00 00 00	 call	 ??2@YAPEAX_K@Z		; operator new
  0004d	48 89 44 24 68	 mov	 QWORD PTR $T1[rsp], rax
  00052	48 83 7c 24 68
	00		 cmp	 QWORD PTR $T1[rsp], 0
  00058	74 20		 je	 SHORT $LN8@appendFile
  0005a	ba 20 00 00 00	 mov	 edx, 32			; 00000020H
  0005f	48 8b 4c 24 68	 mov	 rcx, QWORD PTR $T1[rsp]
  00064	e8 00 00 00 00	 call	 ?__autoclassinit2@?$CTList@UfileInfo@@@@QEAAX_K@Z
  00069	48 8b 4c 24 68	 mov	 rcx, QWORD PTR $T1[rsp]
  0006e	e8 00 00 00 00	 call	 ??0?$CTList@UfileInfo@@@@QEAA@XZ ; CTList<fileInfo>::CTList<fileInfo>
  00073	48 89 44 24 78	 mov	 QWORD PTR tv78[rsp], rax
  00078	eb 09		 jmp	 SHORT $LN9@appendFile
$LN8@appendFile:
  0007a	48 c7 44 24 78
	00 00 00 00	 mov	 QWORD PTR tv78[rsp], 0
$LN9@appendFile:
  00083	48 8b 44 24 78	 mov	 rax, QWORD PTR tv78[rsp]
  00088	48 89 84 24 88
	00 00 00	 mov	 QWORD PTR $T2[rsp], rax
  00090	48 8b 84 24 88
	00 00 00	 mov	 rax, QWORD PTR $T2[rsp]
  00098	48 89 84 24 d0
	00 00 00	 mov	 QWORD PTR flist$[rsp], rax

; 275  : 		if (!flist) return false;

  000a0	48 83 bc 24 d0
	00 00 00 00	 cmp	 QWORD PTR flist$[rsp], 0
  000a9	75 07		 jne	 SHORT $LN3@appendFile
  000ab	32 c0		 xor	 al, al
  000ad	e9 a9 01 00 00	 jmp	 $LN1@appendFile
$LN3@appendFile:

; 276  : 		if (!flist->alloc(UNIT_FILE_LIST, eAlloc_Type_BufPool)) return false;

  000b2	41 b8 04 00 00
	00		 mov	 r8d, 4
  000b8	ba 40 00 00 00	 mov	 edx, 64			; 00000040H
  000bd	48 8b 8c 24 d0
	00 00 00	 mov	 rcx, QWORD PTR flist$[rsp]
  000c5	e8 00 00 00 00	 call	 ?alloc@?$CTList@UfileInfo@@@@QEAAHHW4E_ALLOC_TYPE@@@Z ; CTList<fileInfo>::alloc
  000ca	85 c0		 test	 eax, eax
  000cc	75 07		 jne	 SHORT $LN2@appendFile
  000ce	32 c0		 xor	 al, al
  000d0	e9 86 01 00 00	 jmp	 $LN1@appendFile
$LN2@appendFile:

; 277  : 	}
; 278  : 
; 279  : 	int nIdx, i = 0, nLen = sizeof(FileInfo);

  000d5	c7 84 24 80 00
	00 00 00 00 00
	00		 mov	 DWORD PTR i$[rsp], 0
  000e0	c7 44 24 60 10
	00 00 00	 mov	 DWORD PTR nLen$[rsp], 16

; 280  : 	FileInfo *pInfo = (FileInfo *)gs_pMMgr->newBuf(nLen, &nIdx);

  000e8	4c 8d 84 24 a8
	00 00 00	 lea	 r8, QWORD PTR nIdx$[rsp]
  000f0	8b 54 24 60	 mov	 edx, DWORD PTR nLen$[rsp]
  000f4	48 8b 0d 00 00
	00 00		 mov	 rcx, QWORD PTR ?gs_pMMgr@@3PEAVCMemManager@@EA ; gs_pMMgr
  000fb	e8 00 00 00 00	 call	 ?newBuf@CMemManager@@QEAAPEADHPEAH@Z ; CMemManager::newBuf
  00100	48 89 44 24 48	 mov	 QWORD PTR pInfo$[rsp], rax

; 281  : 
; 282  : 	pInfo->fname = gs_pMMgr->newBuf((int)_tcslen(fname) + 1);

  00105	48 8b 84 24 d8
	00 00 00	 mov	 rax, QWORD PTR fname$[rsp]
  0010d	48 89 84 24 90
	00 00 00	 mov	 QWORD PTR tv169[rsp], rax
  00115	48 c7 44 24 50
	ff ff ff ff	 mov	 QWORD PTR tv170[rsp], -1
$LL12@appendFile:
  0011e	48 ff 44 24 50	 inc	 QWORD PTR tv170[rsp]
  00123	48 8b 84 24 90
	00 00 00	 mov	 rax, QWORD PTR tv169[rsp]
  0012b	48 8b 4c 24 50	 mov	 rcx, QWORD PTR tv170[rsp]
  00130	80 3c 08 00	 cmp	 BYTE PTR [rax+rcx], 0
  00134	75 e8		 jne	 SHORT $LL12@appendFile
  00136	48 8b 44 24 50	 mov	 rax, QWORD PTR tv170[rsp]
  0013b	ff c0		 inc	 eax
  0013d	8b d0		 mov	 edx, eax
  0013f	48 8b 0d 00 00
	00 00		 mov	 rcx, QWORD PTR ?gs_pMMgr@@3PEAVCMemManager@@EA ; gs_pMMgr
  00146	e8 00 00 00 00	 call	 ?newBuf@CMemManager@@QEAAPEADH@Z ; CMemManager::newBuf
  0014b	48 8b 4c 24 48	 mov	 rcx, QWORD PTR pInfo$[rsp]
  00150	48 89 01	 mov	 QWORD PTR [rcx], rax

; 283  : 	_tcscpy(pInfo->fname, fname);

  00153	48 8b 84 24 d8
	00 00 00	 mov	 rax, QWORD PTR fname$[rsp]
  0015b	48 89 44 24 70	 mov	 QWORD PTR tv129[rsp], rax
  00160	48 8b 44 24 48	 mov	 rax, QWORD PTR pInfo$[rsp]
  00165	48 8b 00	 mov	 rax, QWORD PTR [rax]
  00168	48 89 44 24 58	 mov	 QWORD PTR tv131[rsp], rax
  0016d	48 8b 44 24 58	 mov	 rax, QWORD PTR tv131[rsp]
  00172	48 89 84 24 a0
	00 00 00	 mov	 QWORD PTR tv132[rsp], rax
$LN10@appendFile:
  0017a	48 8b 44 24 70	 mov	 rax, QWORD PTR tv129[rsp]
  0017f	0f b6 00	 movzx	 eax, BYTE PTR [rax]
  00182	88 44 24 40	 mov	 BYTE PTR tv133[rsp], al
  00186	48 8b 44 24 58	 mov	 rax, QWORD PTR tv131[rsp]
  0018b	0f b6 4c 24 40	 movzx	 ecx, BYTE PTR tv133[rsp]
  00190	88 08		 mov	 BYTE PTR [rax], cl
  00192	48 8b 44 24 70	 mov	 rax, QWORD PTR tv129[rsp]
  00197	48 ff c0	 inc	 rax
  0019a	48 89 44 24 70	 mov	 QWORD PTR tv129[rsp], rax
  0019f	48 8b 44 24 58	 mov	 rax, QWORD PTR tv131[rsp]
  001a4	48 ff c0	 inc	 rax
  001a7	48 89 44 24 58	 mov	 QWORD PTR tv131[rsp], rax
  001ac	80 7c 24 40 00	 cmp	 BYTE PTR tv133[rsp], 0
  001b1	75 c7		 jne	 SHORT $LN10@appendFile

; 284  : 	pInfo->stat = ftype;

  001b3	48 8b 44 24 48	 mov	 rax, QWORD PTR pInfo$[rsp]
  001b8	0f b6 8c 24 e0
	00 00 00	 movzx	 ecx, BYTE PTR ftype$[rsp]
  001c0	88 48 08	 mov	 BYTE PTR [rax+8], cl

; 285  : 
; 286  : 	// add
; 287  : 	if (flist->push_back(pInfo)) {

  001c3	45 33 c0	 xor	 r8d, r8d
  001c6	48 8b 54 24 48	 mov	 rdx, QWORD PTR pInfo$[rsp]
  001cb	48 8b 8c 24 d0
	00 00 00	 mov	 rcx, QWORD PTR flist$[rsp]
  001d3	e8 00 00 00 00	 call	 ?push_back@?$CTList@UfileInfo@@@@QEAA_NPEAUfileInfo@@PEAH@Z ; CTList<fileInfo>::push_back
  001d8	0f b6 c0	 movzx	 eax, al
  001db	85 c0		 test	 eax, eax
  001dd	74 37		 je	 SHORT $LN5@appendFile

; 288  : 		gs_cLogger.PutLogQueue(LEVEL_TRACE, _T("fname[%s] nCount[%d]"), pInfo->fname, flist->size());

  001df	48 8b 8c 24 d0
	00 00 00	 mov	 rcx, QWORD PTR flist$[rsp]
  001e7	e8 00 00 00 00	 call	 ?size@?$CTList@UfileInfo@@@@QEAAHXZ ; CTList<fileInfo>::size
  001ec	89 44 24 20	 mov	 DWORD PTR [rsp+32], eax
  001f0	48 8b 44 24 48	 mov	 rax, QWORD PTR pInfo$[rsp]
  001f5	4c 8b 08	 mov	 r9, QWORD PTR [rax]
  001f8	4c 8d 05 00 00
	00 00		 lea	 r8, OFFSET FLAT:$SG86495
  001ff	ba 02 00 00 00	 mov	 edx, 2
  00204	48 8d 0d 00 00
	00 00		 lea	 rcx, OFFSET FLAT:?gs_cLogger@@3VCLogger@@A ; gs_cLogger
  0020b	e8 00 00 00 00	 call	 ?PutLogQueue@CLogger@@QEAAXHPEBDZZ ; CLogger::PutLogQueue

; 289  : 		return true;

  00210	b0 01		 mov	 al, 1
  00212	eb 47		 jmp	 SHORT $LN1@appendFile

; 290  : 	}
; 291  : 	else {

  00214	eb 45		 jmp	 SHORT $LN1@appendFile
$LN5@appendFile:

; 292  : 		gs_cLogger.DebugLog(LEVEL_ERROR, _T(" fname[%d] ftype[%d]"), fname, ftype);

  00216	0f be 84 24 e0
	00 00 00	 movsx	 eax, BYTE PTR ftype$[rsp]
  0021e	89 44 24 30	 mov	 DWORD PTR [rsp+48], eax
  00222	48 8b 84 24 d8
	00 00 00	 mov	 rax, QWORD PTR fname$[rsp]
  0022a	48 89 44 24 28	 mov	 QWORD PTR [rsp+40], rax
  0022f	48 8d 05 00 00
	00 00		 lea	 rax, OFFSET FLAT:$SG86496
  00236	48 89 44 24 20	 mov	 QWORD PTR [rsp+32], rax
  0023b	41 b9 24 01 00
	00		 mov	 r9d, 292		; 00000124H
  00241	4c 8d 05 00 00
	00 00		 lea	 r8, OFFSET FLAT:$SG86497
  00248	ba 05 00 00 00	 mov	 edx, 5
  0024d	48 8d 0d 00 00
	00 00		 lea	 rcx, OFFSET FLAT:?gs_cLogger@@3VCLogger@@A ; gs_cLogger
  00254	e8 00 00 00 00	 call	 ?__debugLog@CLogger@@QEAAXHPEBDH0ZZ ; CLogger::__debugLog

; 293  : 		return false;

  00259	32 c0		 xor	 al, al
$LN1@appendFile:

; 294  : 	}
; 295  : }

  0025b	48 8b 8c 24 b0
	00 00 00	 mov	 rcx, QWORD PTR __$ArrayPad$[rsp]
  00263	48 33 cc	 xor	 rcx, rsp
  00266	e8 00 00 00 00	 call	 __security_check_cookie
  0026b	48 81 c4 c8 00
	00 00		 add	 rsp, 200		; 000000c8H
  00272	c3		 ret	 0
?appendFileList@CFileUtil@@CA_NPEAV?$CTList@UfileInfo@@@@PEBDD@Z ENDP ; CFileUtil::appendFileList
_TEXT	ENDS
;	COMDAT text$x
text$x	SEGMENT
tv133 = 64
pInfo$ = 72
tv170 = 80
tv131 = 88
nLen$ = 96
$T1 = 104
tv129 = 112
tv78 = 120
i$ = 128
$T2 = 136
tv169 = 144
$T3 = 152
tv132 = 160
nIdx$ = 168
__$ArrayPad$ = 176
flist$ = 208
fname$ = 216
ftype$ = 224
?dtor$0@?0??appendFileList@CFileUtil@@CA_NPEAV?$CTList@UfileInfo@@@@PEBDD@Z@4HA PROC ; `CFileUtil::appendFileList'::`1'::dtor$0
  00000	40 55		 push	 rbp
  00002	48 83 ec 20	 sub	 rsp, 32			; 00000020H
  00006	48 8b ea	 mov	 rbp, rdx
  00009	ba 20 00 00 00	 mov	 edx, 32			; 00000020H
  0000e	48 8b 4d 68	 mov	 rcx, QWORD PTR $T1[rbp]
  00012	e8 00 00 00 00	 call	 ??3@YAXPEAX_K@Z		; operator delete
  00017	48 83 c4 20	 add	 rsp, 32			; 00000020H
  0001b	5d		 pop	 rbp
  0001c	c3		 ret	 0
?dtor$0@?0??appendFileList@CFileUtil@@CA_NPEAV?$CTList@UfileInfo@@@@PEBDD@Z@4HA ENDP ; `CFileUtil::appendFileList'::`1'::dtor$0
text$x	ENDS
; Function compile flags: /Odtp
;	COMDAT text$x
text$x	SEGMENT
tv133 = 64
pInfo$ = 72
tv170 = 80
tv131 = 88
nLen$ = 96
$T1 = 104
tv129 = 112
tv78 = 120
i$ = 128
$T2 = 136
tv169 = 144
$T3 = 152
tv132 = 160
nIdx$ = 168
__$ArrayPad$ = 176
flist$ = 208
fname$ = 216
ftype$ = 224
?dtor$0@?0??appendFileList@CFileUtil@@CA_NPEAV?$CTList@UfileInfo@@@@PEBDD@Z@4HA PROC ; `CFileUtil::appendFileList'::`1'::dtor$0
  00000	40 55		 push	 rbp
  00002	48 83 ec 20	 sub	 rsp, 32			; 00000020H
  00006	48 8b ea	 mov	 rbp, rdx
  00009	ba 20 00 00 00	 mov	 edx, 32			; 00000020H
  0000e	48 8b 4d 68	 mov	 rcx, QWORD PTR $T1[rbp]
  00012	e8 00 00 00 00	 call	 ??3@YAXPEAX_K@Z		; operator delete
  00017	48 83 c4 20	 add	 rsp, 32			; 00000020H
  0001b	5d		 pop	 rbp
  0001c	c3		 ret	 0
?dtor$0@?0??appendFileList@CFileUtil@@CA_NPEAV?$CTList@UfileInfo@@@@PEBDD@Z@4HA ENDP ; `CFileUtil::appendFileList'::`1'::dtor$0
text$x	ENDS
; Function compile flags: /Odtp
; File e:\infinia-library-3.0\com\src\comfileutil.cpp
;	COMDAT ?ehstrstr@CFileUtil@@SAPEADPEBD0@Z
_TEXT	SEGMENT
nIdx$ = 0
tv77 = 4
tv76 = 8
nLen$ = 12
pPos$ = 16
tv85 = 24
tv84 = 32
pTarget$ = 64
psubstr$ = 72
?ehstrstr@CFileUtil@@SAPEADPEBD0@Z PROC			; CFileUtil::ehstrstr, COMDAT

; 840  : {

$LN10:
  00000	48 89 54 24 10	 mov	 QWORD PTR [rsp+16], rdx
  00005	48 89 4c 24 08	 mov	 QWORD PTR [rsp+8], rcx
  0000a	48 83 ec 38	 sub	 rsp, 56			; 00000038H

; 841  : 	char *pPos = (char *)pTarget;

  0000e	48 8b 44 24 40	 mov	 rax, QWORD PTR pTarget$[rsp]
  00013	48 89 44 24 10	 mov	 QWORD PTR pPos$[rsp], rax

; 842  : 	int nIdx=0, nLen= (int)strlen(psubstr);

  00018	c7 04 24 00 00
	00 00		 mov	 DWORD PTR nIdx$[rsp], 0
  0001f	48 8b 44 24 48	 mov	 rax, QWORD PTR psubstr$[rsp]
  00024	48 89 44 24 20	 mov	 QWORD PTR tv84[rsp], rax
  00029	48 c7 44 24 18
	ff ff ff ff	 mov	 QWORD PTR tv85[rsp], -1
$LL9@ehstrstr:
  00032	48 ff 44 24 18	 inc	 QWORD PTR tv85[rsp]
  00037	48 8b 44 24 20	 mov	 rax, QWORD PTR tv84[rsp]
  0003c	48 8b 4c 24 18	 mov	 rcx, QWORD PTR tv85[rsp]
  00041	80 3c 08 00	 cmp	 BYTE PTR [rax+rcx], 0
  00045	75 eb		 jne	 SHORT $LL9@ehstrstr
  00047	48 8b 44 24 18	 mov	 rax, QWORD PTR tv85[rsp]
  0004c	89 44 24 0c	 mov	 DWORD PTR nLen$[rsp], eax
$LN2@ehstrstr:

; 843  : 	while (*pPos) {

  00050	48 8b 44 24 10	 mov	 rax, QWORD PTR pPos$[rsp]
  00055	0f be 00	 movsx	 eax, BYTE PTR [rax]
  00058	85 c0		 test	 eax, eax
  0005a	74 74		 je	 SHORT $LN3@ehstrstr
$LN4@ehstrstr:

; 844  : 		while (*pPos == psubstr[nIdx++]) {

  0005c	48 8b 44 24 10	 mov	 rax, QWORD PTR pPos$[rsp]
  00061	0f be 00	 movsx	 eax, BYTE PTR [rax]
  00064	89 44 24 08	 mov	 DWORD PTR tv76[rsp], eax
  00068	48 63 04 24	 movsxd	 rax, DWORD PTR nIdx$[rsp]
  0006c	48 8b 4c 24 48	 mov	 rcx, QWORD PTR psubstr$[rsp]
  00071	0f be 04 01	 movsx	 eax, BYTE PTR [rcx+rax]
  00075	89 44 24 04	 mov	 DWORD PTR tv77[rsp], eax
  00079	8b 04 24	 mov	 eax, DWORD PTR nIdx$[rsp]
  0007c	ff c0		 inc	 eax
  0007e	89 04 24	 mov	 DWORD PTR nIdx$[rsp], eax
  00081	8b 44 24 04	 mov	 eax, DWORD PTR tv77[rsp]
  00085	39 44 24 08	 cmp	 DWORD PTR tv76[rsp], eax
  00089	75 2f		 jne	 SHORT $LN5@ehstrstr

; 845  : 			if (nIdx >= nLen) return pPos;

  0008b	8b 44 24 0c	 mov	 eax, DWORD PTR nLen$[rsp]
  0008f	39 04 24	 cmp	 DWORD PTR nIdx$[rsp], eax
  00092	7c 07		 jl	 SHORT $LN6@ehstrstr
  00094	48 8b 44 24 10	 mov	 rax, QWORD PTR pPos$[rsp]
  00099	eb 37		 jmp	 SHORT $LN1@ehstrstr
$LN6@ehstrstr:

; 846  : 			pPos++; if (!*pPos) return NULL;			

  0009b	48 8b 44 24 10	 mov	 rax, QWORD PTR pPos$[rsp]
  000a0	48 ff c0	 inc	 rax
  000a3	48 89 44 24 10	 mov	 QWORD PTR pPos$[rsp], rax
  000a8	48 8b 44 24 10	 mov	 rax, QWORD PTR pPos$[rsp]
  000ad	0f be 00	 movsx	 eax, BYTE PTR [rax]
  000b0	85 c0		 test	 eax, eax
  000b2	75 04		 jne	 SHORT $LN7@ehstrstr
  000b4	33 c0		 xor	 eax, eax
  000b6	eb 1a		 jmp	 SHORT $LN1@ehstrstr
$LN7@ehstrstr:

; 847  : 		}

  000b8	eb a2		 jmp	 SHORT $LN4@ehstrstr
$LN5@ehstrstr:

; 848  : 		nIdx = 0;

  000ba	c7 04 24 00 00
	00 00		 mov	 DWORD PTR nIdx$[rsp], 0

; 849  : 		pPos++;

  000c1	48 8b 44 24 10	 mov	 rax, QWORD PTR pPos$[rsp]
  000c6	48 ff c0	 inc	 rax
  000c9	48 89 44 24 10	 mov	 QWORD PTR pPos$[rsp], rax

; 850  : 	}

  000ce	eb 80		 jmp	 SHORT $LN2@ehstrstr
$LN3@ehstrstr:

; 851  : 	return NULL;

  000d0	33 c0		 xor	 eax, eax
$LN1@ehstrstr:

; 852  : }

  000d2	48 83 c4 38	 add	 rsp, 56			; 00000038H
  000d6	c3		 ret	 0
?ehstrstr@CFileUtil@@SAPEADPEBD0@Z ENDP			; CFileUtil::ehstrstr
_TEXT	ENDS
; Function compile flags: /Odtp
; File e:\infinia-library-3.0\com\src\comfileutil.cpp
;	COMDAT ?add@CFileUtil@@SA_NPEADHPEAUSTFileMem@@@Z
_TEXT	SEGMENT
i$ = 32
pFile$ = 40
tv129 = 48
tv128 = 56
pFilePath$ = 80
nLoopCnt$ = 88
pBuf$ = 96
?add@CFileUtil@@SA_NPEADHPEAUSTFileMem@@@Z PROC		; CFileUtil::add, COMDAT

; 813  : {

$LN9:
  00000	4c 89 44 24 18	 mov	 QWORD PTR [rsp+24], r8
  00005	89 54 24 10	 mov	 DWORD PTR [rsp+16], edx
  00009	48 89 4c 24 08	 mov	 QWORD PTR [rsp+8], rcx
  0000e	48 83 ec 48	 sub	 rsp, 72			; 00000048H

; 814  : 	int i;
; 815  : 	FILE *pFile = _tfopen(pFilePath, _T("a+"));

  00012	48 8d 15 00 00
	00 00		 lea	 rdx, OFFSET FLAT:$SG86890
  00019	48 8b 4c 24 50	 mov	 rcx, QWORD PTR pFilePath$[rsp]
  0001e	ff 15 00 00 00
	00		 call	 QWORD PTR __imp_fopen
  00024	48 89 44 24 28	 mov	 QWORD PTR pFile$[rsp], rax

; 816  : 
; 817  : 	if (!pFile) {

  00029	48 83 7c 24 28
	00		 cmp	 QWORD PTR pFile$[rsp], 0
  0002f	75 4d		 jne	 SHORT $LN5@add

; 818  : 
; 819  : 		CFileUtil::MakeDirectory(pFilePath);

  00031	48 8b 4c 24 50	 mov	 rcx, QWORD PTR pFilePath$[rsp]
  00036	e8 00 00 00 00	 call	 ?MakeDirectory@CFileUtil@@SA_NPEBD@Z ; CFileUtil::MakeDirectory

; 820  : 		pFile = _tfopen(pFilePath, _T("a+"));

  0003b	48 8d 15 00 00
	00 00		 lea	 rdx, OFFSET FLAT:$SG86892
  00042	48 8b 4c 24 50	 mov	 rcx, QWORD PTR pFilePath$[rsp]
  00047	ff 15 00 00 00
	00		 call	 QWORD PTR __imp_fopen
  0004d	48 89 44 24 28	 mov	 QWORD PTR pFile$[rsp], rax

; 821  : 
; 822  : 		if (!pFile) {

  00052	48 83 7c 24 28
	00		 cmp	 QWORD PTR pFile$[rsp], 0
  00058	75 24		 jne	 SHORT $LN6@add

; 823  : 			gs_cLogger.PutLogQueue(LEVEL_ERROR, _T("CDFSFile::add2 pFile open FAIL [%s]"), pFilePath);

  0005a	4c 8b 4c 24 50	 mov	 r9, QWORD PTR pFilePath$[rsp]
  0005f	4c 8d 05 00 00
	00 00		 lea	 r8, OFFSET FLAT:$SG86894
  00066	ba 05 00 00 00	 mov	 edx, 5
  0006b	48 8d 0d 00 00
	00 00		 lea	 rcx, OFFSET FLAT:?gs_cLogger@@3VCLogger@@A ; gs_cLogger
  00072	e8 00 00 00 00	 call	 ?PutLogQueue@CLogger@@QEAAXHPEBDZZ ; CLogger::PutLogQueue

; 824  : 			return false;

  00077	32 c0		 xor	 al, al
  00079	e9 97 00 00 00	 jmp	 $LN1@add
$LN6@add:
$LN5@add:

; 825  : 		}
; 826  : 	}
; 827  : 
; 828  : 	for (i = 0; i < nLoopCnt; i++) {

  0007e	c7 44 24 20 00
	00 00 00	 mov	 DWORD PTR i$[rsp], 0
  00086	eb 0a		 jmp	 SHORT $LN4@add
$LN2@add:
  00088	8b 44 24 20	 mov	 eax, DWORD PTR i$[rsp]
  0008c	ff c0		 inc	 eax
  0008e	89 44 24 20	 mov	 DWORD PTR i$[rsp], eax
$LN4@add:
  00092	8b 44 24 58	 mov	 eax, DWORD PTR nLoopCnt$[rsp]
  00096	39 44 24 20	 cmp	 DWORD PTR i$[rsp], eax
  0009a	7d 61		 jge	 SHORT $LN3@add

; 829  : 		fwrite(pBuf[i].pBlock, g_nChSize, _tcslen(pBuf[i].pBlock), pFile);

  0009c	48 63 44 24 20	 movsxd	 rax, DWORD PTR i$[rsp]
  000a1	48 6b c0 10	 imul	 rax, rax, 16
  000a5	48 8b 4c 24 60	 mov	 rcx, QWORD PTR pBuf$[rsp]
  000aa	48 8b 04 01	 mov	 rax, QWORD PTR [rcx+rax]
  000ae	48 89 44 24 38	 mov	 QWORD PTR tv128[rsp], rax
  000b3	48 c7 44 24 30
	ff ff ff ff	 mov	 QWORD PTR tv129[rsp], -1
$LL8@add:
  000bc	48 ff 44 24 30	 inc	 QWORD PTR tv129[rsp]
  000c1	48 8b 44 24 38	 mov	 rax, QWORD PTR tv128[rsp]
  000c6	48 8b 4c 24 30	 mov	 rcx, QWORD PTR tv129[rsp]
  000cb	80 3c 08 00	 cmp	 BYTE PTR [rax+rcx], 0
  000cf	75 eb		 jne	 SHORT $LL8@add
  000d1	48 8b 44 24 30	 mov	 rax, QWORD PTR tv129[rsp]
  000d6	48 63 4c 24 20	 movsxd	 rcx, DWORD PTR i$[rsp]
  000db	48 6b c9 10	 imul	 rcx, rcx, 16
  000df	4c 8b 4c 24 28	 mov	 r9, QWORD PTR pFile$[rsp]
  000e4	4c 8b c0	 mov	 r8, rax
  000e7	ba 01 00 00 00	 mov	 edx, 1
  000ec	48 8b 44 24 60	 mov	 rax, QWORD PTR pBuf$[rsp]
  000f1	48 8b 0c 08	 mov	 rcx, QWORD PTR [rax+rcx]
  000f5	ff 15 00 00 00
	00		 call	 QWORD PTR __imp_fwrite

; 830  : 		//_ftprintf(pBackup, pBuf[i]);
; 831  : 	}

  000fb	eb 8b		 jmp	 SHORT $LN2@add
$LN3@add:

; 832  : 	fflush(pFile);

  000fd	48 8b 4c 24 28	 mov	 rcx, QWORD PTR pFile$[rsp]
  00102	ff 15 00 00 00
	00		 call	 QWORD PTR __imp_fflush

; 833  : 	fclose(pFile);

  00108	48 8b 4c 24 28	 mov	 rcx, QWORD PTR pFile$[rsp]
  0010d	ff 15 00 00 00
	00		 call	 QWORD PTR __imp_fclose

; 834  : 	return true;

  00113	b0 01		 mov	 al, 1
$LN1@add:

; 835  : 
; 836  : }

  00115	48 83 c4 48	 add	 rsp, 72			; 00000048H
  00119	c3		 ret	 0
?add@CFileUtil@@SA_NPEADHPEAUSTFileMem@@@Z ENDP		; CFileUtil::add
_TEXT	ENDS
; Function compile flags: /Odtp
; File e:\infinia-library-3.0\com\src\comfileutil.cpp
;	COMDAT ?modify@CFileUtil@@SA_NPEADHPEAUSTFileMem@@@Z
_TEXT	SEGMENT
i$ = 32
pFile$ = 40
tv129 = 48
tv128 = 56
pFilePath$ = 80
nLoopCnt$ = 88
pBuf$ = 96
?modify@CFileUtil@@SA_NPEADHPEAUSTFileMem@@@Z PROC	; CFileUtil::modify, COMDAT

; 789  : {

$LN9:
  00000	4c 89 44 24 18	 mov	 QWORD PTR [rsp+24], r8
  00005	89 54 24 10	 mov	 DWORD PTR [rsp+16], edx
  00009	48 89 4c 24 08	 mov	 QWORD PTR [rsp+8], rcx
  0000e	48 83 ec 48	 sub	 rsp, 72			; 00000048H

; 790  : 	int i;
; 791  : 	FILE *pFile = _tfopen(pFilePath, _T("w"));

  00012	48 8d 15 00 00
	00 00		 lea	 rdx, OFFSET FLAT:$SG86875
  00019	48 8b 4c 24 50	 mov	 rcx, QWORD PTR pFilePath$[rsp]
  0001e	ff 15 00 00 00
	00		 call	 QWORD PTR __imp_fopen
  00024	48 89 44 24 28	 mov	 QWORD PTR pFile$[rsp], rax

; 792  : 
; 793  : 	if (!pFile) {

  00029	48 83 7c 24 28
	00		 cmp	 QWORD PTR pFile$[rsp], 0
  0002f	75 4d		 jne	 SHORT $LN5@modify

; 794  : 
; 795  : 		CFileUtil::MakeDirectory(pFilePath);

  00031	48 8b 4c 24 50	 mov	 rcx, QWORD PTR pFilePath$[rsp]
  00036	e8 00 00 00 00	 call	 ?MakeDirectory@CFileUtil@@SA_NPEBD@Z ; CFileUtil::MakeDirectory

; 796  : 		pFile = _tfopen(pFilePath, _T("w"));

  0003b	48 8d 15 00 00
	00 00		 lea	 rdx, OFFSET FLAT:$SG86877
  00042	48 8b 4c 24 50	 mov	 rcx, QWORD PTR pFilePath$[rsp]
  00047	ff 15 00 00 00
	00		 call	 QWORD PTR __imp_fopen
  0004d	48 89 44 24 28	 mov	 QWORD PTR pFile$[rsp], rax

; 797  : 
; 798  : 		if (!pFile) {

  00052	48 83 7c 24 28
	00		 cmp	 QWORD PTR pFile$[rsp], 0
  00058	75 24		 jne	 SHORT $LN6@modify

; 799  : 			gs_cLogger.PutLogQueue(LEVEL_ERROR, _T("CDFSFile::modify pFile open FAIL [%s]"), pFilePath);

  0005a	4c 8b 4c 24 50	 mov	 r9, QWORD PTR pFilePath$[rsp]
  0005f	4c 8d 05 00 00
	00 00		 lea	 r8, OFFSET FLAT:$SG86879
  00066	ba 05 00 00 00	 mov	 edx, 5
  0006b	48 8d 0d 00 00
	00 00		 lea	 rcx, OFFSET FLAT:?gs_cLogger@@3VCLogger@@A ; gs_cLogger
  00072	e8 00 00 00 00	 call	 ?PutLogQueue@CLogger@@QEAAXHPEBDZZ ; CLogger::PutLogQueue

; 800  : 			return false;

  00077	32 c0		 xor	 al, al
  00079	e9 97 00 00 00	 jmp	 $LN1@modify
$LN6@modify:
$LN5@modify:

; 801  : 		}
; 802  : 	}
; 803  : 
; 804  : 	for (i = 0; i < nLoopCnt; i++) {

  0007e	c7 44 24 20 00
	00 00 00	 mov	 DWORD PTR i$[rsp], 0
  00086	eb 0a		 jmp	 SHORT $LN4@modify
$LN2@modify:
  00088	8b 44 24 20	 mov	 eax, DWORD PTR i$[rsp]
  0008c	ff c0		 inc	 eax
  0008e	89 44 24 20	 mov	 DWORD PTR i$[rsp], eax
$LN4@modify:
  00092	8b 44 24 58	 mov	 eax, DWORD PTR nLoopCnt$[rsp]
  00096	39 44 24 20	 cmp	 DWORD PTR i$[rsp], eax
  0009a	7d 61		 jge	 SHORT $LN3@modify

; 805  : 		fwrite(pBuf[i].pBlock, g_nChSize, _tcslen(pBuf[i].pBlock), pFile);

  0009c	48 63 44 24 20	 movsxd	 rax, DWORD PTR i$[rsp]
  000a1	48 6b c0 10	 imul	 rax, rax, 16
  000a5	48 8b 4c 24 60	 mov	 rcx, QWORD PTR pBuf$[rsp]
  000aa	48 8b 04 01	 mov	 rax, QWORD PTR [rcx+rax]
  000ae	48 89 44 24 38	 mov	 QWORD PTR tv128[rsp], rax
  000b3	48 c7 44 24 30
	ff ff ff ff	 mov	 QWORD PTR tv129[rsp], -1
$LL8@modify:
  000bc	48 ff 44 24 30	 inc	 QWORD PTR tv129[rsp]
  000c1	48 8b 44 24 38	 mov	 rax, QWORD PTR tv128[rsp]
  000c6	48 8b 4c 24 30	 mov	 rcx, QWORD PTR tv129[rsp]
  000cb	80 3c 08 00	 cmp	 BYTE PTR [rax+rcx], 0
  000cf	75 eb		 jne	 SHORT $LL8@modify
  000d1	48 8b 44 24 30	 mov	 rax, QWORD PTR tv129[rsp]
  000d6	48 63 4c 24 20	 movsxd	 rcx, DWORD PTR i$[rsp]
  000db	48 6b c9 10	 imul	 rcx, rcx, 16
  000df	4c 8b 4c 24 28	 mov	 r9, QWORD PTR pFile$[rsp]
  000e4	4c 8b c0	 mov	 r8, rax
  000e7	ba 01 00 00 00	 mov	 edx, 1
  000ec	48 8b 44 24 60	 mov	 rax, QWORD PTR pBuf$[rsp]
  000f1	48 8b 0c 08	 mov	 rcx, QWORD PTR [rax+rcx]
  000f5	ff 15 00 00 00
	00		 call	 QWORD PTR __imp_fwrite

; 806  : 		//_ftprintf(pBackup, pBuf[i]);
; 807  : 	}

  000fb	eb 8b		 jmp	 SHORT $LN2@modify
$LN3@modify:

; 808  : 	fflush(pFile);

  000fd	48 8b 4c 24 28	 mov	 rcx, QWORD PTR pFile$[rsp]
  00102	ff 15 00 00 00
	00		 call	 QWORD PTR __imp_fflush

; 809  : 	fclose(pFile);

  00108	48 8b 4c 24 28	 mov	 rcx, QWORD PTR pFile$[rsp]
  0010d	ff 15 00 00 00
	00		 call	 QWORD PTR __imp_fclose

; 810  : 	return true;

  00113	b0 01		 mov	 al, 1
$LN1@modify:

; 811  : }

  00115	48 83 c4 48	 add	 rsp, 72			; 00000048H
  00119	c3		 ret	 0
?modify@CFileUtil@@SA_NPEADHPEAUSTFileMem@@@Z ENDP	; CFileUtil::modify
_TEXT	ENDS
; Function compile flags: /Odtp
; File e:\infinia-library-3.0\com\src\comfileutil.cpp
;	COMDAT ?nextRead@CFileUtil@@SAHPEAD0HH@Z
_TEXT	SEGMENT
nSize$ = 32
pFile$ = 40
pFilePath$ = 64
pBuf$ = 72
nMaxBuf$ = 80
nPos$ = 88
?nextRead@CFileUtil@@SAHPEAD0HH@Z PROC			; CFileUtil::nextRead, COMDAT

; 772  : {

$LN4:
  00000	44 89 4c 24 20	 mov	 DWORD PTR [rsp+32], r9d
  00005	44 89 44 24 18	 mov	 DWORD PTR [rsp+24], r8d
  0000a	48 89 54 24 10	 mov	 QWORD PTR [rsp+16], rdx
  0000f	48 89 4c 24 08	 mov	 QWORD PTR [rsp+8], rcx
  00014	48 83 ec 38	 sub	 rsp, 56			; 00000038H

; 773  : 	FILE *pFile = _tfopen(pFilePath, _T("rb"));

  00018	48 8d 15 00 00
	00 00		 lea	 rdx, OFFSET FLAT:$SG86862
  0001f	48 8b 4c 24 40	 mov	 rcx, QWORD PTR pFilePath$[rsp]
  00024	ff 15 00 00 00
	00		 call	 QWORD PTR __imp_fopen
  0002a	48 89 44 24 28	 mov	 QWORD PTR pFile$[rsp], rax

; 774  : 	if (!pFile) {

  0002f	48 83 7c 24 28
	00		 cmp	 QWORD PTR pFile$[rsp], 0
  00035	75 21		 jne	 SHORT $LN2@nextRead

; 775  : 		gs_cLogger.PutLogQueue(LEVEL_ERROR, _T("CDFSFile::nextRead pFile open FAIL [%s]"), pFilePath);

  00037	4c 8b 4c 24 40	 mov	 r9, QWORD PTR pFilePath$[rsp]
  0003c	4c 8d 05 00 00
	00 00		 lea	 r8, OFFSET FLAT:$SG86864
  00043	ba 05 00 00 00	 mov	 edx, 5
  00048	48 8d 0d 00 00
	00 00		 lea	 rcx, OFFSET FLAT:?gs_cLogger@@3VCLogger@@A ; gs_cLogger
  0004f	e8 00 00 00 00	 call	 ?PutLogQueue@CLogger@@QEAAXHPEBDZZ ; CLogger::PutLogQueue

; 776  : 		return 0;

  00054	33 c0		 xor	 eax, eax
  00056	eb 50		 jmp	 SHORT $LN1@nextRead
$LN2@nextRead:

; 777  : 	}
; 778  : 
; 779  : 	fseek(pFile, nPos*g_nChSize, SEEK_SET);

  00058	45 33 c0	 xor	 r8d, r8d
  0005b	8b 54 24 58	 mov	 edx, DWORD PTR nPos$[rsp]
  0005f	48 8b 4c 24 28	 mov	 rcx, QWORD PTR pFile$[rsp]
  00064	ff 15 00 00 00
	00		 call	 QWORD PTR __imp_fseek

; 780  : 
; 781  : 	int nSize = (int)fread(pBuf, g_nChSize, nMaxBuf, pFile);

  0006a	48 63 44 24 50	 movsxd	 rax, DWORD PTR nMaxBuf$[rsp]
  0006f	4c 8b 4c 24 28	 mov	 r9, QWORD PTR pFile$[rsp]
  00074	4c 8b c0	 mov	 r8, rax
  00077	ba 01 00 00 00	 mov	 edx, 1
  0007c	48 8b 4c 24 48	 mov	 rcx, QWORD PTR pBuf$[rsp]
  00081	ff 15 00 00 00
	00		 call	 QWORD PTR __imp_fread
  00087	89 44 24 20	 mov	 DWORD PTR nSize$[rsp], eax

; 782  : 	pBuf[nSize] = 0;

  0008b	48 63 44 24 20	 movsxd	 rax, DWORD PTR nSize$[rsp]
  00090	48 8b 4c 24 48	 mov	 rcx, QWORD PTR pBuf$[rsp]
  00095	c6 04 01 00	 mov	 BYTE PTR [rcx+rax], 0

; 783  : 	fclose(pFile);

  00099	48 8b 4c 24 28	 mov	 rcx, QWORD PTR pFile$[rsp]
  0009e	ff 15 00 00 00
	00		 call	 QWORD PTR __imp_fclose

; 784  : 	return nSize;

  000a4	8b 44 24 20	 mov	 eax, DWORD PTR nSize$[rsp]
$LN1@nextRead:

; 785  : }

  000a8	48 83 c4 38	 add	 rsp, 56			; 00000038H
  000ac	c3		 ret	 0
?nextRead@CFileUtil@@SAHPEAD0HH@Z ENDP			; CFileUtil::nextRead
_TEXT	ENDS
; Function compile flags: /Odtp
; File e:\infinia-library-3.0\com\src\comfileutil.cpp
;	COMDAT ?nextReadLoop@CFileUtil@@SAHPEADHHPEAUSTFileMem@@HH@Z
_TEXT	SEGMENT
i$ = 32
nTot$ = 36
nReadSize$ = 40
nEndSize$ = 44
pFile$ = 48
pFilePath$ = 80
nLoopCnt$ = 88
nMaxBuf$ = 96
pMem$ = 104
nPos$ = 112
ntotSize$ = 120
?nextReadLoop@CFileUtil@@SAHPEADHHPEAUSTFileMem@@HH@Z PROC ; CFileUtil::nextReadLoop, COMDAT

; 733  : {

$LN13:
  00000	4c 89 4c 24 20	 mov	 QWORD PTR [rsp+32], r9
  00005	44 89 44 24 18	 mov	 DWORD PTR [rsp+24], r8d
  0000a	89 54 24 10	 mov	 DWORD PTR [rsp+16], edx
  0000e	48 89 4c 24 08	 mov	 QWORD PTR [rsp+8], rcx
  00013	48 83 ec 48	 sub	 rsp, 72			; 00000048H

; 734  : 	int i;
; 735  : 	int nTot = 0;

  00017	c7 44 24 24 00
	00 00 00	 mov	 DWORD PTR nTot$[rsp], 0

; 736  : 	int nEndSize;
; 737  : 	int nReadSize;
; 738  : 
; 739  : 	FILE *pFile;
; 740  : 	for (i = 0; i < 3; i++) {

  0001f	c7 44 24 20 00
	00 00 00	 mov	 DWORD PTR i$[rsp], 0
  00027	eb 0a		 jmp	 SHORT $LN4@nextReadLo
$LN2@nextReadLo:
  00029	8b 44 24 20	 mov	 eax, DWORD PTR i$[rsp]
  0002d	ff c0		 inc	 eax
  0002f	89 44 24 20	 mov	 DWORD PTR i$[rsp], eax
$LN4@nextReadLo:
  00033	83 7c 24 20 03	 cmp	 DWORD PTR i$[rsp], 3
  00038	7d 23		 jge	 SHORT $LN3@nextReadLo

; 741  : 		pFile = _tfopen(pFilePath, _T("rb"));

  0003a	48 8d 15 00 00
	00 00		 lea	 rdx, OFFSET FLAT:$SG86847
  00041	48 8b 4c 24 50	 mov	 rcx, QWORD PTR pFilePath$[rsp]
  00046	ff 15 00 00 00
	00		 call	 QWORD PTR __imp_fopen
  0004c	48 89 44 24 30	 mov	 QWORD PTR pFile$[rsp], rax

; 742  : 		if (pFile) break;

  00051	48 83 7c 24 30
	00		 cmp	 QWORD PTR pFile$[rsp], 0
  00057	74 02		 je	 SHORT $LN8@nextReadLo
  00059	eb 02		 jmp	 SHORT $LN3@nextReadLo
$LN8@nextReadLo:

; 743  : 		//  
; 744  : 	}

  0005b	eb cc		 jmp	 SHORT $LN2@nextReadLo
$LN3@nextReadLo:

; 745  : 	if (!pFile) {

  0005d	48 83 7c 24 30
	00		 cmp	 QWORD PTR pFile$[rsp], 0
  00063	75 24		 jne	 SHORT $LN9@nextReadLo

; 746  : 		gs_cLogger.PutLogQueue(LEVEL_ERROR, _T("CDFSFile::nextReadLoop pFile open FAIL [%s]"), pFilePath);

  00065	4c 8b 4c 24 50	 mov	 r9, QWORD PTR pFilePath$[rsp]
  0006a	4c 8d 05 00 00
	00 00		 lea	 r8, OFFSET FLAT:$SG86850
  00071	ba 05 00 00 00	 mov	 edx, 5
  00076	48 8d 0d 00 00
	00 00		 lea	 rcx, OFFSET FLAT:?gs_cLogger@@3VCLogger@@A ; gs_cLogger
  0007d	e8 00 00 00 00	 call	 ?PutLogQueue@CLogger@@QEAAXHPEBDZZ ; CLogger::PutLogQueue

; 747  : 		return 0;

  00082	33 c0		 xor	 eax, eax
  00084	e9 1b 01 00 00	 jmp	 $LN1@nextReadLo
$LN9@nextReadLo:

; 748  : 	}
; 749  : 
; 750  : 	fseek(pFile, nPos*g_nChSize, SEEK_SET);

  00089	45 33 c0	 xor	 r8d, r8d
  0008c	8b 54 24 70	 mov	 edx, DWORD PTR nPos$[rsp]
  00090	48 8b 4c 24 30	 mov	 rcx, QWORD PTR pFile$[rsp]
  00095	ff 15 00 00 00
	00		 call	 QWORD PTR __imp_fseek

; 751  : 
; 752  : 	for (i = 0; i < nLoopCnt; i++) {

  0009b	c7 44 24 20 00
	00 00 00	 mov	 DWORD PTR i$[rsp], 0
  000a3	eb 0a		 jmp	 SHORT $LN7@nextReadLo
$LN5@nextReadLo:
  000a5	8b 44 24 20	 mov	 eax, DWORD PTR i$[rsp]
  000a9	ff c0		 inc	 eax
  000ab	89 44 24 20	 mov	 DWORD PTR i$[rsp], eax
$LN7@nextReadLo:
  000af	8b 44 24 58	 mov	 eax, DWORD PTR nLoopCnt$[rsp]
  000b3	39 44 24 20	 cmp	 DWORD PTR i$[rsp], eax
  000b7	0f 8d d8 00 00
	00		 jge	 $LN6@nextReadLo

; 753  : 		if (i == nLoopCnt - 1) {

  000bd	8b 44 24 58	 mov	 eax, DWORD PTR nLoopCnt$[rsp]
  000c1	ff c8		 dec	 eax
  000c3	39 44 24 20	 cmp	 DWORD PTR i$[rsp], eax
  000c7	75 6b		 jne	 SHORT $LN10@nextReadLo

; 754  : 			nEndSize = ntotSize - nTot;

  000c9	8b 44 24 24	 mov	 eax, DWORD PTR nTot$[rsp]
  000cd	8b 4c 24 78	 mov	 ecx, DWORD PTR ntotSize$[rsp]
  000d1	2b c8		 sub	 ecx, eax
  000d3	8b c1		 mov	 eax, ecx
  000d5	89 44 24 2c	 mov	 DWORD PTR nEndSize$[rsp], eax

; 755  : 			nReadSize = (int)fread(pMem[i].pBlock, g_nChSize, nEndSize, pFile);

  000d9	48 63 44 24 2c	 movsxd	 rax, DWORD PTR nEndSize$[rsp]
  000de	48 63 4c 24 20	 movsxd	 rcx, DWORD PTR i$[rsp]
  000e3	48 6b c9 10	 imul	 rcx, rcx, 16
  000e7	4c 8b 4c 24 30	 mov	 r9, QWORD PTR pFile$[rsp]
  000ec	4c 8b c0	 mov	 r8, rax
  000ef	ba 01 00 00 00	 mov	 edx, 1
  000f4	48 8b 44 24 68	 mov	 rax, QWORD PTR pMem$[rsp]
  000f9	48 8b 0c 08	 mov	 rcx, QWORD PTR [rax+rcx]
  000fd	ff 15 00 00 00
	00		 call	 QWORD PTR __imp_fread
  00103	89 44 24 28	 mov	 DWORD PTR nReadSize$[rsp], eax

; 756  : 			nTot += nReadSize;

  00107	8b 44 24 28	 mov	 eax, DWORD PTR nReadSize$[rsp]
  0010b	8b 4c 24 24	 mov	 ecx, DWORD PTR nTot$[rsp]
  0010f	03 c8		 add	 ecx, eax
  00111	8b c1		 mov	 eax, ecx
  00113	89 44 24 24	 mov	 DWORD PTR nTot$[rsp], eax

; 757  : 			pMem[i].pBlock[nReadSize] = 0;

  00117	48 63 44 24 20	 movsxd	 rax, DWORD PTR i$[rsp]
  0011c	48 6b c0 10	 imul	 rax, rax, 16
  00120	48 63 4c 24 28	 movsxd	 rcx, DWORD PTR nReadSize$[rsp]
  00125	48 8b 54 24 68	 mov	 rdx, QWORD PTR pMem$[rsp]
  0012a	48 8b 04 02	 mov	 rax, QWORD PTR [rdx+rax]
  0012e	c6 04 08 00	 mov	 BYTE PTR [rax+rcx], 0

; 758  : 		}
; 759  : 		else {

  00132	eb 5c		 jmp	 SHORT $LN11@nextReadLo
$LN10@nextReadLo:

; 760  : 			nReadSize = (int)fread(pMem[i].pBlock, g_nChSize, nMaxBuf - 1, pFile);

  00134	8b 44 24 60	 mov	 eax, DWORD PTR nMaxBuf$[rsp]
  00138	ff c8		 dec	 eax
  0013a	48 98		 cdqe
  0013c	48 63 4c 24 20	 movsxd	 rcx, DWORD PTR i$[rsp]
  00141	48 6b c9 10	 imul	 rcx, rcx, 16
  00145	4c 8b 4c 24 30	 mov	 r9, QWORD PTR pFile$[rsp]
  0014a	4c 8b c0	 mov	 r8, rax
  0014d	ba 01 00 00 00	 mov	 edx, 1
  00152	48 8b 44 24 68	 mov	 rax, QWORD PTR pMem$[rsp]
  00157	48 8b 0c 08	 mov	 rcx, QWORD PTR [rax+rcx]
  0015b	ff 15 00 00 00
	00		 call	 QWORD PTR __imp_fread
  00161	89 44 24 28	 mov	 DWORD PTR nReadSize$[rsp], eax

; 761  : 			nTot += nReadSize;

  00165	8b 44 24 28	 mov	 eax, DWORD PTR nReadSize$[rsp]
  00169	8b 4c 24 24	 mov	 ecx, DWORD PTR nTot$[rsp]
  0016d	03 c8		 add	 ecx, eax
  0016f	8b c1		 mov	 eax, ecx
  00171	89 44 24 24	 mov	 DWORD PTR nTot$[rsp], eax

; 762  : 			pMem[i].pBlock[nReadSize] = 0;

  00175	48 63 44 24 20	 movsxd	 rax, DWORD PTR i$[rsp]
  0017a	48 6b c0 10	 imul	 rax, rax, 16
  0017e	48 63 4c 24 28	 movsxd	 rcx, DWORD PTR nReadSize$[rsp]
  00183	48 8b 54 24 68	 mov	 rdx, QWORD PTR pMem$[rsp]
  00188	48 8b 04 02	 mov	 rax, QWORD PTR [rdx+rax]
  0018c	c6 04 08 00	 mov	 BYTE PTR [rax+rcx], 0
$LN11@nextReadLo:

; 763  : 		}
; 764  : 	}

  00190	e9 10 ff ff ff	 jmp	 $LN5@nextReadLo
$LN6@nextReadLo:

; 765  : 	fclose(pFile);

  00195	48 8b 4c 24 30	 mov	 rcx, QWORD PTR pFile$[rsp]
  0019a	ff 15 00 00 00
	00		 call	 QWORD PTR __imp_fclose

; 766  : 
; 767  : 	return nTot;

  001a0	8b 44 24 24	 mov	 eax, DWORD PTR nTot$[rsp]
$LN1@nextReadLo:

; 768  : }

  001a4	48 83 c4 48	 add	 rsp, 72			; 00000048H
  001a8	c3		 ret	 0
?nextReadLoop@CFileUtil@@SAHPEADHHPEAUSTFileMem@@HH@Z ENDP ; CFileUtil::nextReadLoop
_TEXT	ENDS
; Function compile flags: /Odtp
; File e:\infinia-library-3.0\com\src\comfileutil.cpp
;	COMDAT ?readLoop@CFileUtil@@SAHPEADHHPEAUSTFileMem@@H@Z
_TEXT	SEGMENT
i$ = 32
nTot$ = 36
nReadSize$ = 40
nEndSize$ = 44
pFile$ = 48
pFilePath$ = 80
nLoopCnt$ = 88
nMaxBuf$ = 96
pMem$ = 104
ntotSize$ = 112
?readLoop@CFileUtil@@SAHPEADHHPEAUSTFileMem@@H@Z PROC	; CFileUtil::readLoop, COMDAT

; 703  : {

$LN9:
  00000	4c 89 4c 24 20	 mov	 QWORD PTR [rsp+32], r9
  00005	44 89 44 24 18	 mov	 DWORD PTR [rsp+24], r8d
  0000a	89 54 24 10	 mov	 DWORD PTR [rsp+16], edx
  0000e	48 89 4c 24 08	 mov	 QWORD PTR [rsp+8], rcx
  00013	48 83 ec 48	 sub	 rsp, 72			; 00000048H

; 704  : 	int i;
; 705  : 	int nTot = 0, nEndSize;

  00017	c7 44 24 24 00
	00 00 00	 mov	 DWORD PTR nTot$[rsp], 0

; 706  : 	int nReadSize;
; 707  : 
; 708  : 	FILE *pFile;
; 709  : 	pFile = _tfopen(pFilePath, _T("rb"));

  0001f	48 8d 15 00 00
	00 00		 lea	 rdx, OFFSET FLAT:$SG86821
  00026	48 8b 4c 24 50	 mov	 rcx, QWORD PTR pFilePath$[rsp]
  0002b	ff 15 00 00 00
	00		 call	 QWORD PTR __imp_fopen
  00031	48 89 44 24 30	 mov	 QWORD PTR pFile$[rsp], rax

; 710  : 	if (!pFile) {

  00036	48 83 7c 24 30
	00		 cmp	 QWORD PTR pFile$[rsp], 0
  0003c	75 24		 jne	 SHORT $LN5@readLoop

; 711  : 		gs_cLogger.PutLogQueue(LEVEL_ERROR, _T("CDFSFile::readLoop pFile open FAIL [%s]"), pFilePath);

  0003e	4c 8b 4c 24 50	 mov	 r9, QWORD PTR pFilePath$[rsp]
  00043	4c 8d 05 00 00
	00 00		 lea	 r8, OFFSET FLAT:$SG86823
  0004a	ba 05 00 00 00	 mov	 edx, 5
  0004f	48 8d 0d 00 00
	00 00		 lea	 rcx, OFFSET FLAT:?gs_cLogger@@3VCLogger@@A ; gs_cLogger
  00056	e8 00 00 00 00	 call	 ?PutLogQueue@CLogger@@QEAAXHPEBDZZ ; CLogger::PutLogQueue

; 712  : 		return 0;

  0005b	33 c0		 xor	 eax, eax
  0005d	e9 09 01 00 00	 jmp	 $LN1@readLoop
$LN5@readLoop:

; 713  : 	}
; 714  : 
; 715  : 	for (i = 0; i < nLoopCnt; i++) {

  00062	c7 44 24 20 00
	00 00 00	 mov	 DWORD PTR i$[rsp], 0
  0006a	eb 0a		 jmp	 SHORT $LN4@readLoop
$LN2@readLoop:
  0006c	8b 44 24 20	 mov	 eax, DWORD PTR i$[rsp]
  00070	ff c0		 inc	 eax
  00072	89 44 24 20	 mov	 DWORD PTR i$[rsp], eax
$LN4@readLoop:
  00076	8b 44 24 58	 mov	 eax, DWORD PTR nLoopCnt$[rsp]
  0007a	39 44 24 20	 cmp	 DWORD PTR i$[rsp], eax
  0007e	0f 8d d8 00 00
	00		 jge	 $LN3@readLoop

; 716  : 		if (i == nLoopCnt - 1) {

  00084	8b 44 24 58	 mov	 eax, DWORD PTR nLoopCnt$[rsp]
  00088	ff c8		 dec	 eax
  0008a	39 44 24 20	 cmp	 DWORD PTR i$[rsp], eax
  0008e	75 6b		 jne	 SHORT $LN6@readLoop

; 717  : 			nEndSize = ntotSize - nTot;

  00090	8b 44 24 24	 mov	 eax, DWORD PTR nTot$[rsp]
  00094	8b 4c 24 70	 mov	 ecx, DWORD PTR ntotSize$[rsp]
  00098	2b c8		 sub	 ecx, eax
  0009a	8b c1		 mov	 eax, ecx
  0009c	89 44 24 2c	 mov	 DWORD PTR nEndSize$[rsp], eax

; 718  : 			nReadSize = (int)fread(pMem[i].pBlock, g_nChSize, nEndSize, pFile);

  000a0	48 63 44 24 2c	 movsxd	 rax, DWORD PTR nEndSize$[rsp]
  000a5	48 63 4c 24 20	 movsxd	 rcx, DWORD PTR i$[rsp]
  000aa	48 6b c9 10	 imul	 rcx, rcx, 16
  000ae	4c 8b 4c 24 30	 mov	 r9, QWORD PTR pFile$[rsp]
  000b3	4c 8b c0	 mov	 r8, rax
  000b6	ba 01 00 00 00	 mov	 edx, 1
  000bb	48 8b 44 24 68	 mov	 rax, QWORD PTR pMem$[rsp]
  000c0	48 8b 0c 08	 mov	 rcx, QWORD PTR [rax+rcx]
  000c4	ff 15 00 00 00
	00		 call	 QWORD PTR __imp_fread
  000ca	89 44 24 28	 mov	 DWORD PTR nReadSize$[rsp], eax

; 719  : 			nTot += nReadSize;

  000ce	8b 44 24 28	 mov	 eax, DWORD PTR nReadSize$[rsp]
  000d2	8b 4c 24 24	 mov	 ecx, DWORD PTR nTot$[rsp]
  000d6	03 c8		 add	 ecx, eax
  000d8	8b c1		 mov	 eax, ecx
  000da	89 44 24 24	 mov	 DWORD PTR nTot$[rsp], eax

; 720  : 			pMem[i].pBlock[nReadSize] = 0;

  000de	48 63 44 24 20	 movsxd	 rax, DWORD PTR i$[rsp]
  000e3	48 6b c0 10	 imul	 rax, rax, 16
  000e7	48 63 4c 24 28	 movsxd	 rcx, DWORD PTR nReadSize$[rsp]
  000ec	48 8b 54 24 68	 mov	 rdx, QWORD PTR pMem$[rsp]
  000f1	48 8b 04 02	 mov	 rax, QWORD PTR [rdx+rax]
  000f5	c6 04 08 00	 mov	 BYTE PTR [rax+rcx], 0

; 721  : 		}
; 722  : 		else {

  000f9	eb 5c		 jmp	 SHORT $LN7@readLoop
$LN6@readLoop:

; 723  : 			nReadSize = (int)fread(pMem[i].pBlock, g_nChSize, nMaxBuf - 1, pFile);

  000fb	8b 44 24 60	 mov	 eax, DWORD PTR nMaxBuf$[rsp]
  000ff	ff c8		 dec	 eax
  00101	48 98		 cdqe
  00103	48 63 4c 24 20	 movsxd	 rcx, DWORD PTR i$[rsp]
  00108	48 6b c9 10	 imul	 rcx, rcx, 16
  0010c	4c 8b 4c 24 30	 mov	 r9, QWORD PTR pFile$[rsp]
  00111	4c 8b c0	 mov	 r8, rax
  00114	ba 01 00 00 00	 mov	 edx, 1
  00119	48 8b 44 24 68	 mov	 rax, QWORD PTR pMem$[rsp]
  0011e	48 8b 0c 08	 mov	 rcx, QWORD PTR [rax+rcx]
  00122	ff 15 00 00 00
	00		 call	 QWORD PTR __imp_fread
  00128	89 44 24 28	 mov	 DWORD PTR nReadSize$[rsp], eax

; 724  : 			nTot += nReadSize;

  0012c	8b 44 24 28	 mov	 eax, DWORD PTR nReadSize$[rsp]
  00130	8b 4c 24 24	 mov	 ecx, DWORD PTR nTot$[rsp]
  00134	03 c8		 add	 ecx, eax
  00136	8b c1		 mov	 eax, ecx
  00138	89 44 24 24	 mov	 DWORD PTR nTot$[rsp], eax

; 725  : 			pMem[i].pBlock[nReadSize] = 0;

  0013c	48 63 44 24 20	 movsxd	 rax, DWORD PTR i$[rsp]
  00141	48 6b c0 10	 imul	 rax, rax, 16
  00145	48 63 4c 24 28	 movsxd	 rcx, DWORD PTR nReadSize$[rsp]
  0014a	48 8b 54 24 68	 mov	 rdx, QWORD PTR pMem$[rsp]
  0014f	48 8b 04 02	 mov	 rax, QWORD PTR [rdx+rax]
  00153	c6 04 08 00	 mov	 BYTE PTR [rax+rcx], 0
$LN7@readLoop:

; 726  : 		}
; 727  : 	}

  00157	e9 10 ff ff ff	 jmp	 $LN2@readLoop
$LN3@readLoop:

; 728  : 	fclose(pFile);

  0015c	48 8b 4c 24 30	 mov	 rcx, QWORD PTR pFile$[rsp]
  00161	ff 15 00 00 00
	00		 call	 QWORD PTR __imp_fclose

; 729  : 	return nTot;

  00167	8b 44 24 24	 mov	 eax, DWORD PTR nTot$[rsp]
$LN1@readLoop:

; 730  : }

  0016b	48 83 c4 48	 add	 rsp, 72			; 00000048H
  0016f	c3		 ret	 0
?readLoop@CFileUtil@@SAHPEADHHPEAUSTFileMem@@H@Z ENDP	; CFileUtil::readLoop
_TEXT	ENDS
; Function compile flags: /Odtp
; File e:\infinia-library-3.0\com\src\comfileutil.cpp
;	COMDAT ?getFileSize2@CFileUtil@@SAHPEADHPEAHH@Z
_TEXT	SEGMENT
nTotSize$ = 32
i$ = 36
pFile$ = 40
pFilePath$ = 64
nMaxBuf$ = 72
pLoopLen$ = 80
nPos$ = 88
?getFileSize2@CFileUtil@@SAHPEADHPEAHH@Z PROC		; CFileUtil::getFileSize2, COMDAT

; 676  : {

$LN5:
  00000	44 89 4c 24 20	 mov	 DWORD PTR [rsp+32], r9d
  00005	4c 89 44 24 18	 mov	 QWORD PTR [rsp+24], r8
  0000a	89 54 24 10	 mov	 DWORD PTR [rsp+16], edx
  0000e	48 89 4c 24 08	 mov	 QWORD PTR [rsp+8], rcx
  00013	48 83 ec 38	 sub	 rsp, 56			; 00000038H

; 677  : 	int i = 0;

  00017	c7 44 24 24 00
	00 00 00	 mov	 DWORD PTR i$[rsp], 0

; 678  : 	int nTotSize;
; 679  : 	FILE *pFile;
; 680  : 
; 681  : 	pFile = _tfopen(pFilePath, _T("r"));

  0001f	48 8d 15 00 00
	00 00		 lea	 rdx, OFFSET FLAT:$SG86801
  00026	48 8b 4c 24 40	 mov	 rcx, QWORD PTR pFilePath$[rsp]
  0002b	ff 15 00 00 00
	00		 call	 QWORD PTR __imp_fopen
  00031	48 89 44 24 28	 mov	 QWORD PTR pFile$[rsp], rax

; 682  : 	if (!pFile) {

  00036	48 83 7c 24 28
	00		 cmp	 QWORD PTR pFile$[rsp], 0
  0003c	75 04		 jne	 SHORT $LN2@getFileSiz

; 683  : 		return 0;

  0003e	33 c0		 xor	 eax, eax
  00040	eb 73		 jmp	 SHORT $LN1@getFileSiz
$LN2@getFileSiz:

; 684  : 	}
; 685  : 
; 686  : 	fseek(pFile, 0, SEEK_END);

  00042	41 b8 02 00 00
	00		 mov	 r8d, 2
  00048	33 d2		 xor	 edx, edx
  0004a	48 8b 4c 24 28	 mov	 rcx, QWORD PTR pFile$[rsp]
  0004f	ff 15 00 00 00
	00		 call	 QWORD PTR __imp_fseek

; 687  : 	nTotSize = ftell(pFile);

  00055	48 8b 4c 24 28	 mov	 rcx, QWORD PTR pFile$[rsp]
  0005a	ff 15 00 00 00
	00		 call	 QWORD PTR __imp_ftell
  00060	89 44 24 20	 mov	 DWORD PTR nTotSize$[rsp], eax

; 688  : 	fclose(pFile);

  00064	48 8b 4c 24 28	 mov	 rcx, QWORD PTR pFile$[rsp]
  00069	ff 15 00 00 00
	00		 call	 QWORD PTR __imp_fclose

; 689  : 
; 690  : 	//if(!nMaxBuf) return nTotSize; 
; 691  : 
; 692  : 	nTotSize = nTotSize / g_nChSize - nPos;

  0006f	8b 44 24 58	 mov	 eax, DWORD PTR nPos$[rsp]
  00073	8b 4c 24 20	 mov	 ecx, DWORD PTR nTotSize$[rsp]
  00077	2b c8		 sub	 ecx, eax
  00079	8b c1		 mov	 eax, ecx
  0007b	89 44 24 20	 mov	 DWORD PTR nTotSize$[rsp], eax

; 693  : 
; 694  : 	*pLoopLen = (int)(nTotSize / nMaxBuf);

  0007f	8b 44 24 20	 mov	 eax, DWORD PTR nTotSize$[rsp]
  00083	99		 cdq
  00084	f7 7c 24 48	 idiv	 DWORD PTR nMaxBuf$[rsp]
  00088	48 8b 4c 24 50	 mov	 rcx, QWORD PTR pLoopLen$[rsp]
  0008d	89 01		 mov	 DWORD PTR [rcx], eax

; 695  : 	if (*pLoopLen * nMaxBuf < nTotSize) {

  0008f	48 8b 44 24 50	 mov	 rax, QWORD PTR pLoopLen$[rsp]
  00094	8b 00		 mov	 eax, DWORD PTR [rax]
  00096	0f af 44 24 48	 imul	 eax, DWORD PTR nMaxBuf$[rsp]
  0009b	3b 44 24 20	 cmp	 eax, DWORD PTR nTotSize$[rsp]
  0009f	7d 10		 jge	 SHORT $LN3@getFileSiz

; 696  : 		*pLoopLen += 1;

  000a1	48 8b 44 24 50	 mov	 rax, QWORD PTR pLoopLen$[rsp]
  000a6	8b 00		 mov	 eax, DWORD PTR [rax]
  000a8	ff c0		 inc	 eax
  000aa	48 8b 4c 24 50	 mov	 rcx, QWORD PTR pLoopLen$[rsp]
  000af	89 01		 mov	 DWORD PTR [rcx], eax
$LN3@getFileSiz:

; 697  : 	}
; 698  : 	return nTotSize;

  000b1	8b 44 24 20	 mov	 eax, DWORD PTR nTotSize$[rsp]
$LN1@getFileSiz:

; 699  : }

  000b5	48 83 c4 38	 add	 rsp, 56			; 00000038H
  000b9	c3		 ret	 0
?getFileSize2@CFileUtil@@SAHPEADHPEAHH@Z ENDP		; CFileUtil::getFileSize2
_TEXT	ENDS
; Function compile flags: /Odtp
; File e:\infinia-library-3.0\com\src\comfileutil.cpp
;	COMDAT ?modify@CFileUtil@@SA_NPEADH0@Z
_TEXT	SEGMENT
pFile$ = 32
pFilePath$ = 64
nSize$ = 72
pBuf$ = 80
?modify@CFileUtil@@SA_NPEADH0@Z PROC			; CFileUtil::modify, COMDAT

; 653  : {

$LN5:
  00000	4c 89 44 24 18	 mov	 QWORD PTR [rsp+24], r8
  00005	89 54 24 10	 mov	 DWORD PTR [rsp+16], edx
  00009	48 89 4c 24 08	 mov	 QWORD PTR [rsp+8], rcx
  0000e	48 83 ec 38	 sub	 rsp, 56			; 00000038H

; 654  : 	FILE *pFile = _tfopen(pFilePath, _T("w"));

  00012	48 8d 15 00 00
	00 00		 lea	 rdx, OFFSET FLAT:$SG86786
  00019	48 8b 4c 24 40	 mov	 rcx, QWORD PTR pFilePath$[rsp]
  0001e	ff 15 00 00 00
	00		 call	 QWORD PTR __imp_fopen
  00024	48 89 44 24 20	 mov	 QWORD PTR pFile$[rsp], rax

; 655  : 
; 656  : 	if (!pFile) {

  00029	48 83 7c 24 20
	00		 cmp	 QWORD PTR pFile$[rsp], 0
  0002f	75 4a		 jne	 SHORT $LN2@modify

; 657  : 
; 658  : 		CFileUtil::MakeDirectory(pFilePath);

  00031	48 8b 4c 24 40	 mov	 rcx, QWORD PTR pFilePath$[rsp]
  00036	e8 00 00 00 00	 call	 ?MakeDirectory@CFileUtil@@SA_NPEBD@Z ; CFileUtil::MakeDirectory

; 659  : 		pFile = _tfopen(pFilePath, _T("w"));

  0003b	48 8d 15 00 00
	00 00		 lea	 rdx, OFFSET FLAT:$SG86788
  00042	48 8b 4c 24 40	 mov	 rcx, QWORD PTR pFilePath$[rsp]
  00047	ff 15 00 00 00
	00		 call	 QWORD PTR __imp_fopen
  0004d	48 89 44 24 20	 mov	 QWORD PTR pFile$[rsp], rax

; 660  : 
; 661  : 		if (!pFile) {

  00052	48 83 7c 24 20
	00		 cmp	 QWORD PTR pFile$[rsp], 0
  00058	75 21		 jne	 SHORT $LN3@modify

; 662  : 			gs_cLogger.PutLogQueue(LEVEL_ERROR, _T("CFileUtil::modify pFile open FAIL [%s]"), pFilePath);

  0005a	4c 8b 4c 24 40	 mov	 r9, QWORD PTR pFilePath$[rsp]
  0005f	4c 8d 05 00 00
	00 00		 lea	 r8, OFFSET FLAT:$SG86790
  00066	ba 05 00 00 00	 mov	 edx, 5
  0006b	48 8d 0d 00 00
	00 00		 lea	 rcx, OFFSET FLAT:?gs_cLogger@@3VCLogger@@A ; gs_cLogger
  00072	e8 00 00 00 00	 call	 ?PutLogQueue@CLogger@@QEAAXHPEBDZZ ; CLogger::PutLogQueue

; 663  : 			return false;

  00077	32 c0		 xor	 al, al
  00079	eb 35		 jmp	 SHORT $LN1@modify
$LN3@modify:
$LN2@modify:

; 664  : 		}
; 665  : 	}
; 666  : 
; 667  : 	fwrite(pBuf, g_nChSize, nSize, pFile);

  0007b	48 63 44 24 48	 movsxd	 rax, DWORD PTR nSize$[rsp]
  00080	4c 8b 4c 24 20	 mov	 r9, QWORD PTR pFile$[rsp]
  00085	4c 8b c0	 mov	 r8, rax
  00088	ba 01 00 00 00	 mov	 edx, 1
  0008d	48 8b 4c 24 50	 mov	 rcx, QWORD PTR pBuf$[rsp]
  00092	ff 15 00 00 00
	00		 call	 QWORD PTR __imp_fwrite

; 668  : 	fflush(pFile);

  00098	48 8b 4c 24 20	 mov	 rcx, QWORD PTR pFile$[rsp]
  0009d	ff 15 00 00 00
	00		 call	 QWORD PTR __imp_fflush

; 669  : 	fclose(pFile);

  000a3	48 8b 4c 24 20	 mov	 rcx, QWORD PTR pFile$[rsp]
  000a8	ff 15 00 00 00
	00		 call	 QWORD PTR __imp_fclose

; 670  : 	return true;

  000ae	b0 01		 mov	 al, 1
$LN1@modify:

; 671  : }

  000b0	48 83 c4 38	 add	 rsp, 56			; 00000038H
  000b4	c3		 ret	 0
?modify@CFileUtil@@SA_NPEADH0@Z ENDP			; CFileUtil::modify
_TEXT	ENDS
; Function compile flags: /Odtp
; File e:\infinia-library-3.0\com\src\comfileutil.cpp
;	COMDAT ?tryopen@CFileUtil@@SAPEAU_iobuf@@HPEADPEBDPEAH@Z
_TEXT	SEGMENT
i$ = 32
res$ = 36
pFile$ = 40
tryCnt$ = 64
pFilePath$ = 72
pMode$ = 80
pSize$ = 88
?tryopen@CFileUtil@@SAPEAU_iobuf@@HPEADPEBDPEAH@Z PROC	; CFileUtil::tryopen, COMDAT

; 637  : {

$LN7:
  00000	4c 89 4c 24 20	 mov	 QWORD PTR [rsp+32], r9
  00005	4c 89 44 24 18	 mov	 QWORD PTR [rsp+24], r8
  0000a	48 89 54 24 10	 mov	 QWORD PTR [rsp+16], rdx
  0000f	89 4c 24 08	 mov	 DWORD PTR [rsp+8], ecx
  00013	48 83 ec 38	 sub	 rsp, 56			; 00000038H

; 638  : 	int i, res;
; 639  : 	FILE *pFile;
; 640  : 	for (i = 0; i < tryCnt; i++) {

  00017	c7 44 24 20 00
	00 00 00	 mov	 DWORD PTR i$[rsp], 0
  0001f	eb 0a		 jmp	 SHORT $LN4@tryopen
$LN2@tryopen:
  00021	8b 44 24 20	 mov	 eax, DWORD PTR i$[rsp]
  00025	ff c0		 inc	 eax
  00027	89 44 24 20	 mov	 DWORD PTR i$[rsp], eax
$LN4@tryopen:
  0002b	8b 44 24 40	 mov	 eax, DWORD PTR tryCnt$[rsp]
  0002f	39 44 24 20	 cmp	 DWORD PTR i$[rsp], eax
  00033	7d 4f		 jge	 SHORT $LN3@tryopen

; 641  : 		pFile = _tfopen(pFilePath, pMode);

  00035	48 8b 54 24 50	 mov	 rdx, QWORD PTR pMode$[rsp]
  0003a	48 8b 4c 24 48	 mov	 rcx, QWORD PTR pFilePath$[rsp]
  0003f	ff 15 00 00 00
	00		 call	 QWORD PTR __imp_fopen
  00045	48 89 44 24 28	 mov	 QWORD PTR pFile$[rsp], rax

; 642  : 		if (pFile) {

  0004a	48 83 7c 24 28
	00		 cmp	 QWORD PTR pFile$[rsp], 0
  00050	74 30		 je	 SHORT $LN5@tryopen

; 643  : 			res = fseek(pFile, 0, SEEK_END);

  00052	41 b8 02 00 00
	00		 mov	 r8d, 2
  00058	33 d2		 xor	 edx, edx
  0005a	48 8b 4c 24 28	 mov	 rcx, QWORD PTR pFile$[rsp]
  0005f	ff 15 00 00 00
	00		 call	 QWORD PTR __imp_fseek
  00065	89 44 24 24	 mov	 DWORD PTR res$[rsp], eax

; 644  : 			*pSize = ftell(pFile);

  00069	48 8b 4c 24 28	 mov	 rcx, QWORD PTR pFile$[rsp]
  0006e	ff 15 00 00 00
	00		 call	 QWORD PTR __imp_ftell
  00074	48 8b 4c 24 58	 mov	 rcx, QWORD PTR pSize$[rsp]
  00079	89 01		 mov	 DWORD PTR [rcx], eax

; 645  : 			return pFile;

  0007b	48 8b 44 24 28	 mov	 rax, QWORD PTR pFile$[rsp]
  00080	eb 1c		 jmp	 SHORT $LN1@tryopen
$LN5@tryopen:

; 646  : 		}
; 647  : 		//  
; 648  : 	}

  00082	eb 9d		 jmp	 SHORT $LN2@tryopen
$LN3@tryopen:

; 649  : 	gs_cLogger.PutLogQueue(LEVEL_ERROR, _T("CFileUtil::tryopen pFile open FAIL"));

  00084	4c 8d 05 00 00
	00 00		 lea	 r8, OFFSET FLAT:$SG86779
  0008b	ba 05 00 00 00	 mov	 edx, 5
  00090	48 8d 0d 00 00
	00 00		 lea	 rcx, OFFSET FLAT:?gs_cLogger@@3VCLogger@@A ; gs_cLogger
  00097	e8 00 00 00 00	 call	 ?PutLogQueue@CLogger@@QEAAXHPEBDZZ ; CLogger::PutLogQueue

; 650  : 	return NULL;

  0009c	33 c0		 xor	 eax, eax
$LN1@tryopen:

; 651  : }

  0009e	48 83 c4 38	 add	 rsp, 56			; 00000038H
  000a2	c3		 ret	 0
?tryopen@CFileUtil@@SAPEAU_iobuf@@HPEADPEBDPEAH@Z ENDP	; CFileUtil::tryopen
_TEXT	ENDS
; Function compile flags: /Odtp
; File e:\infinia-library-3.0\com\src\comfileutil.cpp
;	COMDAT ?getFileSize@CFileUtil@@SAHPEAD@Z
_TEXT	SEGMENT
nTotSize$ = 32
pFile$ = 40
pFilePath$ = 64
?getFileSize@CFileUtil@@SAHPEAD@Z PROC			; CFileUtil::getFileSize, COMDAT

; 621  : {

$LN4:
  00000	48 89 4c 24 08	 mov	 QWORD PTR [rsp+8], rcx
  00005	48 83 ec 38	 sub	 rsp, 56			; 00000038H

; 622  : 	int nTotSize;
; 623  : 	FILE *pFile;
; 624  : 
; 625  : 	pFile = _tfopen(pFilePath, _T("r"));

  00009	48 8d 15 00 00
	00 00		 lea	 rdx, OFFSET FLAT:$SG86764
  00010	48 8b 4c 24 40	 mov	 rcx, QWORD PTR pFilePath$[rsp]
  00015	ff 15 00 00 00
	00		 call	 QWORD PTR __imp_fopen
  0001b	48 89 44 24 28	 mov	 QWORD PTR pFile$[rsp], rax

; 626  : 	if (!pFile) {

  00020	48 83 7c 24 28
	00		 cmp	 QWORD PTR pFile$[rsp], 0
  00026	75 04		 jne	 SHORT $LN2@getFileSiz

; 627  : 		return 0;

  00028	33 c0		 xor	 eax, eax
  0002a	eb 31		 jmp	 SHORT $LN1@getFileSiz
$LN2@getFileSiz:

; 628  : 	}
; 629  : 
; 630  : 	fseek(pFile, 0, SEEK_END);

  0002c	41 b8 02 00 00
	00		 mov	 r8d, 2
  00032	33 d2		 xor	 edx, edx
  00034	48 8b 4c 24 28	 mov	 rcx, QWORD PTR pFile$[rsp]
  00039	ff 15 00 00 00
	00		 call	 QWORD PTR __imp_fseek

; 631  : 	nTotSize = ftell(pFile);

  0003f	48 8b 4c 24 28	 mov	 rcx, QWORD PTR pFile$[rsp]
  00044	ff 15 00 00 00
	00		 call	 QWORD PTR __imp_ftell
  0004a	89 44 24 20	 mov	 DWORD PTR nTotSize$[rsp], eax

; 632  : 	fclose(pFile);

  0004e	48 8b 4c 24 28	 mov	 rcx, QWORD PTR pFile$[rsp]
  00053	ff 15 00 00 00
	00		 call	 QWORD PTR __imp_fclose

; 633  : 
; 634  : 	return nTotSize;

  00059	8b 44 24 20	 mov	 eax, DWORD PTR nTotSize$[rsp]
$LN1@getFileSiz:

; 635  : }

  0005d	48 83 c4 38	 add	 rsp, 56			; 00000038H
  00061	c3		 ret	 0
?getFileSize@CFileUtil@@SAHPEAD@Z ENDP			; CFileUtil::getFileSize
_TEXT	ENDS
; Function compile flags: /Odtp
; File e:\infinia-library-3.0\com\src\comfileutil.cpp
;	COMDAT ?renameFile@CFileUtil@@SA_NPEBD0@Z
_TEXT	SEGMENT
nRes$1 = 32
error$2 = 36
pOldFileName$ = 64
pNewFileName$ = 72
?renameFile@CFileUtil@@SA_NPEBD0@Z PROC			; CFileUtil::renameFile, COMDAT

; 591  : {

$LN5:
  00000	48 89 54 24 10	 mov	 QWORD PTR [rsp+16], rdx
  00005	48 89 4c 24 08	 mov	 QWORD PTR [rsp+8], rcx
  0000a	48 83 ec 38	 sub	 rsp, 56			; 00000038H

; 592  : 	//TCHAR pNameBackup[255];
; 593  : 	//_stprintf(pNameBackup, _T("%s.BAK"), pFilePath);
; 594  : 
; 595  : 	if (com_isFile(pOldFileName))

  0000e	48 8b 4c 24 40	 mov	 rcx, QWORD PTR pOldFileName$[rsp]
  00013	e8 00 00 00 00	 call	 ?com_isFile@@YA_NPEBD@Z	; com_isFile
  00018	0f b6 c0	 movzx	 eax, al
  0001b	85 c0		 test	 eax, eax
  0001d	74 46		 je	 SHORT $LN2@renameFile

; 596  : 	{
; 597  : 		//if (com_isFile(pOldFileName)) {
; 598  : 		//	if (!DeleteFile(pOldFileName)) {
; 599  : 		//		gs_cLogger.DebugLog(LEVEL_ERROR, _T("CDFSFile::renameFile DeleteFile error code[%d]"), GetLastError());
; 600  : 		//		return false;
; 601  : 		//	}
; 602  : 		//}
; 603  : 
; 604  : 		int nRes = FILEMOVE(pOldFileName, pNewFileName);

  0001f	48 8b 54 24 48	 mov	 rdx, QWORD PTR pNewFileName$[rsp]
  00024	48 8b 4c 24 40	 mov	 rcx, QWORD PTR pOldFileName$[rsp]
  00029	ff 15 00 00 00
	00		 call	 QWORD PTR __imp_MoveFileA
  0002f	89 44 24 20	 mov	 DWORD PTR nRes$1[rsp], eax

; 605  : #ifdef WIN32
; 606  : 		if(!nRes)

  00033	83 7c 24 20 00	 cmp	 DWORD PTR nRes$1[rsp], 0
  00038	75 2b		 jne	 SHORT $LN3@renameFile

; 607  : #else
; 608  : 		if (nRes)
; 609  : #endif
; 610  : 
; 611  : 		{
; 612  : 			DWORD error = GetLastError();

  0003a	ff 15 00 00 00
	00		 call	 QWORD PTR __imp_GetLastError
  00040	89 44 24 24	 mov	 DWORD PTR error$2[rsp], eax

; 613  : 			gs_cLogger.PutLogQueue(LEVEL_ERROR, _T("FILEMOVE error code[%d]"), error);

  00044	44 8b 4c 24 24	 mov	 r9d, DWORD PTR error$2[rsp]
  00049	4c 8d 05 00 00
	00 00		 lea	 r8, OFFSET FLAT:$SG86758
  00050	ba 05 00 00 00	 mov	 edx, 5
  00055	48 8d 0d 00 00
	00 00		 lea	 rcx, OFFSET FLAT:?gs_cLogger@@3VCLogger@@A ; gs_cLogger
  0005c	e8 00 00 00 00	 call	 ?PutLogQueue@CLogger@@QEAAXHPEBDZZ ; CLogger::PutLogQueue

; 614  : 			return false;

  00061	32 c0		 xor	 al, al
  00063	eb 02		 jmp	 SHORT $LN1@renameFile
$LN3@renameFile:
$LN2@renameFile:

; 615  : 		}
; 616  : 	}
; 617  : 	return true;

  00065	b0 01		 mov	 al, 1
$LN1@renameFile:

; 618  : }

  00067	48 83 c4 38	 add	 rsp, 56			; 00000038H
  0006b	c3		 ret	 0
?renameFile@CFileUtil@@SA_NPEBD0@Z ENDP			; CFileUtil::renameFile
_TEXT	ENDS
; Function compile flags: /Odtp
; File e:\infinia-library-3.0\com\src\comfileutil.cpp
;	COMDAT ?getReFileName@CFileUtil@@SA_NPEADPEBD1@Z
_TEXT	SEGMENT
tv77 = 32
tv75 = 40
tv72 = 48
nLen$ = 56
pPos$ = 64
tv76 = 72
pTarget$ = 96
pOriPath$ = 104
pChangeStr$ = 112
?getReFileName@CFileUtil@@SA_NPEADPEBD1@Z PROC		; CFileUtil::getReFileName, COMDAT

; 583  : {

$LN4:
  00000	4c 89 44 24 18	 mov	 QWORD PTR [rsp+24], r8
  00005	48 89 54 24 10	 mov	 QWORD PTR [rsp+16], rdx
  0000a	48 89 4c 24 08	 mov	 QWORD PTR [rsp+8], rcx
  0000f	48 83 ec 58	 sub	 rsp, 88			; 00000058H

; 584  : 	const TCHAR *pPos = _tcsrchr(pOriPath, _T('.'));

  00013	ba 2e 00 00 00	 mov	 edx, 46			; 0000002eH
  00018	48 8b 4c 24 68	 mov	 rcx, QWORD PTR pOriPath$[rsp]
  0001d	e8 00 00 00 00	 call	 _tcsrchr
  00022	48 89 44 24 40	 mov	 QWORD PTR pPos$[rsp], rax

; 585  : 	size_t nLen = pPos - pOriPath;

  00027	48 8b 44 24 68	 mov	 rax, QWORD PTR pOriPath$[rsp]
  0002c	48 8b 4c 24 40	 mov	 rcx, QWORD PTR pPos$[rsp]
  00031	48 2b c8	 sub	 rcx, rax
  00034	48 8b c1	 mov	 rax, rcx
  00037	48 89 44 24 38	 mov	 QWORD PTR nLen$[rsp], rax

; 586  : 	_tcsncpy(pTarget, pOriPath, nLen);

  0003c	4c 8b 44 24 38	 mov	 r8, QWORD PTR nLen$[rsp]
  00041	48 8b 54 24 68	 mov	 rdx, QWORD PTR pOriPath$[rsp]
  00046	48 8b 4c 24 60	 mov	 rcx, QWORD PTR pTarget$[rsp]
  0004b	e8 00 00 00 00	 call	 _tcsncpy

; 587  : 	_tcscpy(&pTarget[nLen], pChangeStr);

  00050	48 8b 44 24 70	 mov	 rax, QWORD PTR pChangeStr$[rsp]
  00055	48 89 44 24 30	 mov	 QWORD PTR tv72[rsp], rax
  0005a	48 8b 44 24 38	 mov	 rax, QWORD PTR nLen$[rsp]
  0005f	48 8b 4c 24 60	 mov	 rcx, QWORD PTR pTarget$[rsp]
  00064	48 03 c8	 add	 rcx, rax
  00067	48 8b c1	 mov	 rax, rcx
  0006a	48 89 44 24 28	 mov	 QWORD PTR tv75[rsp], rax
  0006f	48 8b 44 24 28	 mov	 rax, QWORD PTR tv75[rsp]
  00074	48 89 44 24 48	 mov	 QWORD PTR tv76[rsp], rax
$LN3@getReFileN:
  00079	48 8b 44 24 30	 mov	 rax, QWORD PTR tv72[rsp]
  0007e	0f b6 00	 movzx	 eax, BYTE PTR [rax]
  00081	88 44 24 20	 mov	 BYTE PTR tv77[rsp], al
  00085	48 8b 44 24 28	 mov	 rax, QWORD PTR tv75[rsp]
  0008a	0f b6 4c 24 20	 movzx	 ecx, BYTE PTR tv77[rsp]
  0008f	88 08		 mov	 BYTE PTR [rax], cl
  00091	48 8b 44 24 30	 mov	 rax, QWORD PTR tv72[rsp]
  00096	48 ff c0	 inc	 rax
  00099	48 89 44 24 30	 mov	 QWORD PTR tv72[rsp], rax
  0009e	48 8b 44 24 28	 mov	 rax, QWORD PTR tv75[rsp]
  000a3	48 ff c0	 inc	 rax
  000a6	48 89 44 24 28	 mov	 QWORD PTR tv75[rsp], rax
  000ab	80 7c 24 20 00	 cmp	 BYTE PTR tv77[rsp], 0
  000b0	75 c7		 jne	 SHORT $LN3@getReFileN

; 588  : 	return true;

  000b2	b0 01		 mov	 al, 1

; 589  : }

  000b4	48 83 c4 58	 add	 rsp, 88			; 00000058H
  000b8	c3		 ret	 0
?getReFileName@CFileUtil@@SA_NPEADPEBD1@Z ENDP		; CFileUtil::getReFileName
_TEXT	ENDS
; Function compile flags: /Odtp
; File e:\infinia-library-3.0\com\src\comfileutil.cpp
;	COMDAT ?add@CFileUtil@@SA_NPEAD0@Z
_TEXT	SEGMENT
pFile$ = 32
tv87 = 40
tv86 = 48
pFilePath$ = 80
pBuf$ = 88
?add@CFileUtil@@SA_NPEAD0@Z PROC			; CFileUtil::add, COMDAT

; 564  : {

$LN6:
  00000	48 89 54 24 10	 mov	 QWORD PTR [rsp+16], rdx
  00005	48 89 4c 24 08	 mov	 QWORD PTR [rsp+8], rcx
  0000a	48 83 ec 48	 sub	 rsp, 72			; 00000048H

; 565  : 	// File copy
; 566  : 	FILE * pFile;
; 567  : 	pFile = _tfopen(pFilePath, _T("a+"));

  0000e	48 8d 15 00 00
	00 00		 lea	 rdx, OFFSET FLAT:$SG86738
  00015	48 8b 4c 24 50	 mov	 rcx, QWORD PTR pFilePath$[rsp]
  0001a	ff 15 00 00 00
	00		 call	 QWORD PTR __imp_fopen
  00020	48 89 44 24 20	 mov	 QWORD PTR pFile$[rsp], rax

; 568  : 	if (!pFile) {

  00025	48 83 7c 24 20
	00		 cmp	 QWORD PTR pFile$[rsp], 0
  0002b	75 4e		 jne	 SHORT $LN2@add

; 569  : 		CFileUtil::MakeDirectory(pFilePath);

  0002d	48 8b 4c 24 50	 mov	 rcx, QWORD PTR pFilePath$[rsp]
  00032	e8 00 00 00 00	 call	 ?MakeDirectory@CFileUtil@@SA_NPEBD@Z ; CFileUtil::MakeDirectory

; 570  : 		pFile = _tfopen(pFilePath, _T("a+"));

  00037	48 8d 15 00 00
	00 00		 lea	 rdx, OFFSET FLAT:$SG86740
  0003e	48 8b 4c 24 50	 mov	 rcx, QWORD PTR pFilePath$[rsp]
  00043	ff 15 00 00 00
	00		 call	 QWORD PTR __imp_fopen
  00049	48 89 44 24 20	 mov	 QWORD PTR pFile$[rsp], rax

; 571  : 		if (!pFile) {

  0004e	48 83 7c 24 20
	00		 cmp	 QWORD PTR pFile$[rsp], 0
  00054	75 21		 jne	 SHORT $LN3@add

; 572  : 			gs_cLogger.PutLogQueue(LEVEL_ERROR, _T("CDFSFile::add pFile open FAIL [%s]"), pFilePath);

  00056	4c 8b 4c 24 50	 mov	 r9, QWORD PTR pFilePath$[rsp]
  0005b	4c 8d 05 00 00
	00 00		 lea	 r8, OFFSET FLAT:$SG86742
  00062	ba 05 00 00 00	 mov	 edx, 5
  00067	48 8d 0d 00 00
	00 00		 lea	 rcx, OFFSET FLAT:?gs_cLogger@@3VCLogger@@A ; gs_cLogger
  0006e	e8 00 00 00 00	 call	 ?PutLogQueue@CLogger@@QEAAXHPEBDZZ ; CLogger::PutLogQueue

; 573  : 			return false;

  00073	32 c0		 xor	 al, al
  00075	eb 61		 jmp	 SHORT $LN1@add
$LN3@add:

; 574  : 		}
; 575  : 		return false;

  00077	32 c0		 xor	 al, al
  00079	eb 5d		 jmp	 SHORT $LN1@add
$LN2@add:

; 576  : 	}
; 577  : 	fwrite(pBuf, sizeof(TCHAR), _tcslen(pBuf), pFile);

  0007b	48 8b 44 24 58	 mov	 rax, QWORD PTR pBuf$[rsp]
  00080	48 89 44 24 30	 mov	 QWORD PTR tv86[rsp], rax
  00085	48 c7 44 24 28
	ff ff ff ff	 mov	 QWORD PTR tv87[rsp], -1
$LL5@add:
  0008e	48 ff 44 24 28	 inc	 QWORD PTR tv87[rsp]
  00093	48 8b 44 24 30	 mov	 rax, QWORD PTR tv86[rsp]
  00098	48 8b 4c 24 28	 mov	 rcx, QWORD PTR tv87[rsp]
  0009d	80 3c 08 00	 cmp	 BYTE PTR [rax+rcx], 0
  000a1	75 eb		 jne	 SHORT $LL5@add
  000a3	48 8b 44 24 28	 mov	 rax, QWORD PTR tv87[rsp]
  000a8	4c 8b 4c 24 20	 mov	 r9, QWORD PTR pFile$[rsp]
  000ad	4c 8b c0	 mov	 r8, rax
  000b0	ba 01 00 00 00	 mov	 edx, 1
  000b5	48 8b 4c 24 58	 mov	 rcx, QWORD PTR pBuf$[rsp]
  000ba	ff 15 00 00 00
	00		 call	 QWORD PTR __imp_fwrite

; 578  : 	fflush(pFile);

  000c0	48 8b 4c 24 20	 mov	 rcx, QWORD PTR pFile$[rsp]
  000c5	ff 15 00 00 00
	00		 call	 QWORD PTR __imp_fflush

; 579  : 	fclose(pFile);

  000cb	48 8b 4c 24 20	 mov	 rcx, QWORD PTR pFile$[rsp]
  000d0	ff 15 00 00 00
	00		 call	 QWORD PTR __imp_fclose

; 580  : 	return true;

  000d6	b0 01		 mov	 al, 1
$LN1@add:

; 581  : }

  000d8	48 83 c4 48	 add	 rsp, 72			; 00000048H
  000dc	c3		 ret	 0
?add@CFileUtil@@SA_NPEAD0@Z ENDP			; CFileUtil::add
_TEXT	ENDS
; Function compile flags: /Odtp
; File e:\infinia-library-3.0\com\src\comfileutil.cpp
;	COMDAT ?fileToFieldRecord@CFileUtil@@SA_NPEADPEAV?$CTList@VCStringList@@@@D@Z
_TEXT	SEGMENT
bres$ = 48
pList$ = 56
$T1 = 64
tv92 = 72
$T2 = 80
$T3 = 88
$T4 = 96
tv165 = 104
$T5 = 112
pFileBuf$ = 120
stInfo$ = 128
idx$6 = 152
fileSize$ = 156
__$ArrayPad$ = 160
pFilePath$ = 192
pLineList$ = 200
ch$ = 208
?fileToFieldRecord@CFileUtil@@SA_NPEADPEAV?$CTList@VCStringList@@@@D@Z PROC ; CFileUtil::fileToFieldRecord, COMDAT

; 399  : {

$LN28:
  00000	44 88 44 24 18	 mov	 BYTE PTR [rsp+24], r8b
  00005	48 89 54 24 10	 mov	 QWORD PTR [rsp+16], rdx
  0000a	48 89 4c 24 08	 mov	 QWORD PTR [rsp+8], rcx
  0000f	57		 push	 rdi
  00010	48 81 ec b0 00
	00 00		 sub	 rsp, 176		; 000000b0H
  00017	48 c7 44 24 70
	fe ff ff ff	 mov	 QWORD PTR $T5[rsp], -2
  00020	48 8b 05 00 00
	00 00		 mov	 rax, QWORD PTR __security_cookie
  00027	48 33 c4	 xor	 rax, rsp
  0002a	48 89 84 24 a0
	00 00 00	 mov	 QWORD PTR __$ArrayPad$[rsp], rax

; 400  : 	// FILE READ
; 401  : 	TCHAR *pFileBuf = NULL;

  00032	48 c7 44 24 78
	00 00 00 00	 mov	 QWORD PTR pFileBuf$[rsp], 0

; 402  : 	int fileSize = 0;

  0003b	c7 84 24 9c 00
	00 00 00 00 00
	00		 mov	 DWORD PTR fileSize$[rsp], 0

; 403  : 	CStringList *pList;
; 404  : 	bool bres;
; 405  : 	STStrInfo stInfo;
; 406  : 
; 407  : 	memset(&stInfo, 0, sizeof(STStrInfo));

  00046	48 8d 84 24 80
	00 00 00	 lea	 rax, QWORD PTR stInfo$[rsp]
  0004e	48 8b f8	 mov	 rdi, rax
  00051	33 c0		 xor	 eax, eax
  00053	b9 18 00 00 00	 mov	 ecx, 24
  00058	f3 aa		 rep stosb

; 408  : 	fileSize = readNalloc(pFilePath, &pFileBuf, &fileSize);

  0005a	4c 8d 84 24 9c
	00 00 00	 lea	 r8, QWORD PTR fileSize$[rsp]
  00062	48 8d 54 24 78	 lea	 rdx, QWORD PTR pFileBuf$[rsp]
  00067	48 8b 8c 24 c0
	00 00 00	 mov	 rcx, QWORD PTR pFilePath$[rsp]
  0006f	e8 00 00 00 00	 call	 ?readNalloc@CFileUtil@@SAHPEADPEAPEADPEAH@Z ; CFileUtil::readNalloc
  00074	89 84 24 9c 00
	00 00		 mov	 DWORD PTR fileSize$[rsp], eax

; 409  : 
; 410  : 	if (!fileSize) {

  0007b	83 bc 24 9c 00
	00 00 00	 cmp	 DWORD PTR fileSize$[rsp], 0
  00083	75 0a		 jne	 SHORT $LN6@fileToFiel

; 411  : 		bres = false;

  00085	c6 44 24 30 00	 mov	 BYTE PTR bres$[rsp], 0

; 412  : 		goto END_PROC;

  0008a	e9 3f 02 00 00	 jmp	 $END_PROC$29
$LN6@fileToFiel:

; 413  : 	}
; 414  : 
; 415  : 	stInfo.aBufSize = 4096;

  0008f	c7 84 24 90 00
	00 00 00 10 00
	00		 mov	 DWORD PTR stInfo$[rsp+16], 4096 ; 00001000H

; 416  : 	stInfo.pSource = pFileBuf;

  0009a	48 8b 44 24 78	 mov	 rax, QWORD PTR pFileBuf$[rsp]
  0009f	48 89 84 24 80
	00 00 00	 mov	 QWORD PTR stInfo$[rsp], rax

; 417  : 	stInfo.pTarget = gs_pMMgr->newBuf(4096);

  000a7	ba 00 10 00 00	 mov	 edx, 4096		; 00001000H
  000ac	48 8b 0d 00 00
	00 00		 mov	 rcx, QWORD PTR ?gs_pMMgr@@3PEAVCMemManager@@EA ; gs_pMMgr
  000b3	e8 00 00 00 00	 call	 ?newBuf@CMemManager@@QEAAPEADH@Z ; CMemManager::newBuf
  000b8	48 89 84 24 88
	00 00 00	 mov	 QWORD PTR stInfo$[rsp+8], rax

; 418  : 	if (!stInfo.pTarget) {

  000c0	48 83 bc 24 88
	00 00 00 00	 cmp	 QWORD PTR stInfo$[rsp+8], 0
  000c9	75 0a		 jne	 SHORT $LN2@fileToFiel

; 419  : 		bres = false;

  000cb	c6 44 24 30 00	 mov	 BYTE PTR bres$[rsp], 0

; 420  : 		goto END_PROC;

  000d0	e9 f9 01 00 00	 jmp	 $END_PROC$29
$LN2@fileToFiel:

; 421  : 	}
; 422  : 
; 423  : 	while(getNextLine(&stInfo))

  000d5	48 8d 8c 24 80
	00 00 00	 lea	 rcx, QWORD PTR stInfo$[rsp]
  000dd	e8 00 00 00 00	 call	 ?getNextLine@CFileUtil@@SAHPEAUSTStrInfo@@@Z ; CFileUtil::getNextLine
  000e2	85 c0		 test	 eax, eax
  000e4	0f 84 32 01 00
	00		 je	 $LN3@fileToFiel

; 424  : 	{
; 425  : 		pList = new (std::nothrow) CStringList();

  000ea	48 8d 15 00 00
	00 00		 lea	 rdx, OFFSET FLAT:?nothrow@std@@3Unothrow_t@1@B ; std::nothrow
  000f1	b9 18 00 00 00	 mov	 ecx, 24
  000f6	e8 00 00 00 00	 call	 ??2@YAPEAX_KAEBUnothrow_t@std@@@Z ; operator new
  000fb	48 89 44 24 40	 mov	 QWORD PTR $T1[rsp], rax
  00100	48 83 7c 24 40
	00		 cmp	 QWORD PTR $T1[rsp], 0
  00106	74 11		 je	 SHORT $LN23@fileToFiel
  00108	48 8b 4c 24 40	 mov	 rcx, QWORD PTR $T1[rsp]
  0010d	e8 00 00 00 00	 call	 ??0CStringList@@QEAA@XZ	; CStringList::CStringList
  00112	48 89 44 24 48	 mov	 QWORD PTR tv92[rsp], rax
  00117	eb 09		 jmp	 SHORT $LN24@fileToFiel
$LN23@fileToFiel:
  00119	48 c7 44 24 48
	00 00 00 00	 mov	 QWORD PTR tv92[rsp], 0
$LN24@fileToFiel:
  00122	48 8b 44 24 48	 mov	 rax, QWORD PTR tv92[rsp]
  00127	48 89 44 24 58	 mov	 QWORD PTR $T3[rsp], rax
  0012c	48 8b 44 24 58	 mov	 rax, QWORD PTR $T3[rsp]
  00131	48 89 44 24 38	 mov	 QWORD PTR pList$[rsp], rax

; 426  : 		if (!pList) { gs_cLogger.DebugLog(LEVEL_ERROR, _T("new pList")); goto ERROR_PROC; }

  00136	48 83 7c 24 38
	00		 cmp	 QWORD PTR pList$[rsp], 0
  0013c	75 2f		 jne	 SHORT $LN10@fileToFiel
  0013e	48 8d 05 00 00
	00 00		 lea	 rax, OFFSET FLAT:$SG86652
  00145	48 89 44 24 20	 mov	 QWORD PTR [rsp+32], rax
  0014a	41 b9 aa 01 00
	00		 mov	 r9d, 426		; 000001aaH
  00150	4c 8d 05 00 00
	00 00		 lea	 r8, OFFSET FLAT:$SG86653
  00157	ba 05 00 00 00	 mov	 edx, 5
  0015c	48 8d 0d 00 00
	00 00		 lea	 rcx, OFFSET FLAT:?gs_cLogger@@3VCLogger@@A ; gs_cLogger
  00163	e8 00 00 00 00	 call	 ?__debugLog@CLogger@@QEAAXHPEBDH0ZZ ; CLogger::__debugLog
  00168	e9 b9 00 00 00	 jmp	 $ERROR_PROC$30
$LN10@fileToFiel:

; 427  : 		if (!pList->alloc(10)) { gs_cLogger.DebugLog(LEVEL_ERROR, _T("alloc pList")); goto ERROR_PROC; }

  0016d	ba 0a 00 00 00	 mov	 edx, 10
  00172	48 8b 4c 24 38	 mov	 rcx, QWORD PTR pList$[rsp]
  00177	e8 00 00 00 00	 call	 ?alloc@CStringList@@QEAAHH@Z ; CStringList::alloc
  0017c	85 c0		 test	 eax, eax
  0017e	75 2c		 jne	 SHORT $LN12@fileToFiel
  00180	48 8d 05 00 00
	00 00		 lea	 rax, OFFSET FLAT:$SG86656
  00187	48 89 44 24 20	 mov	 QWORD PTR [rsp+32], rax
  0018c	41 b9 ab 01 00
	00		 mov	 r9d, 427		; 000001abH
  00192	4c 8d 05 00 00
	00 00		 lea	 r8, OFFSET FLAT:$SG86657
  00199	ba 05 00 00 00	 mov	 edx, 5
  0019e	48 8d 0d 00 00
	00 00		 lea	 rcx, OFFSET FLAT:?gs_cLogger@@3VCLogger@@A ; gs_cLogger
  001a5	e8 00 00 00 00	 call	 ?__debugLog@CLogger@@QEAAXHPEBDH0ZZ ; CLogger::__debugLog
  001aa	eb 7a		 jmp	 SHORT $ERROR_PROC$30
$LN12@fileToFiel:

; 428  : 		if (!getFieldList(stInfo.pTarget, ch, pList)) {

  001ac	4c 8b 44 24 38	 mov	 r8, QWORD PTR pList$[rsp]
  001b1	0f b6 94 24 d0
	00 00 00	 movzx	 edx, BYTE PTR ch$[rsp]
  001b9	48 8b 8c 24 88
	00 00 00	 mov	 rcx, QWORD PTR stInfo$[rsp+8]
  001c1	e8 00 00 00 00	 call	 ?getFieldList@CFileUtil@@SA_NPEADDPEAVCStringList@@@Z ; CFileUtil::getFieldList
  001c6	0f b6 c0	 movzx	 eax, al
  001c9	85 c0		 test	 eax, eax
  001cb	75 02		 jne	 SHORT $LN14@fileToFiel

; 429  : 			goto ERROR_PROC;

  001cd	eb 57		 jmp	 SHORT $ERROR_PROC$30
$LN14@fileToFiel:

; 430  : 		}
; 431  : 		if (!pLineList->push_back(pList)) { gs_cLogger.DebugLog(LEVEL_ERROR, _T("add pLineList")); goto ERROR_PROC; }

  001cf	45 33 c0	 xor	 r8d, r8d
  001d2	48 8b 54 24 38	 mov	 rdx, QWORD PTR pList$[rsp]
  001d7	48 8b 8c 24 c8
	00 00 00	 mov	 rcx, QWORD PTR pLineList$[rsp]
  001df	e8 00 00 00 00	 call	 ?push_back@?$CTList@VCStringList@@@@QEAA_NPEAVCStringList@@PEAH@Z ; CTList<CStringList>::push_back
  001e4	0f b6 c0	 movzx	 eax, al
  001e7	85 c0		 test	 eax, eax
  001e9	75 2c		 jne	 SHORT $LN16@fileToFiel
  001eb	48 8d 05 00 00
	00 00		 lea	 rax, OFFSET FLAT:$SG86662
  001f2	48 89 44 24 20	 mov	 QWORD PTR [rsp+32], rax
  001f7	41 b9 af 01 00
	00		 mov	 r9d, 431		; 000001afH
  001fd	4c 8d 05 00 00
	00 00		 lea	 r8, OFFSET FLAT:$SG86663
  00204	ba 05 00 00 00	 mov	 edx, 5
  00209	48 8d 0d 00 00
	00 00		 lea	 rcx, OFFSET FLAT:?gs_cLogger@@3VCLogger@@A ; gs_cLogger
  00210	e8 00 00 00 00	 call	 ?__debugLog@CLogger@@QEAAXHPEBDH0ZZ ; CLogger::__debugLog
  00215	eb 0f		 jmp	 SHORT $ERROR_PROC$30
$LN16@fileToFiel:

; 432  : 	}

  00217	e9 b9 fe ff ff	 jmp	 $LN2@fileToFiel
$LN3@fileToFiel:

; 433  : 	bres = true;

  0021c	c6 44 24 30 01	 mov	 BYTE PTR bres$[rsp], 1

; 434  : 	goto END_PROC;

  00221	e9 a8 00 00 00	 jmp	 $END_PROC$29
$ERROR_PROC$30:

; 435  : ERROR_PROC:
; 436  : 	if (pLineList) {

  00226	48 83 bc 24 c8
	00 00 00 00	 cmp	 QWORD PTR pLineList$[rsp], 0
  0022f	0f 84 94 00 00
	00		 je	 $LN19@fileToFiel

; 437  : 		int idx = 0;

  00235	c7 84 24 98 00
	00 00 00 00 00
	00		 mov	 DWORD PTR idx$6[rsp], 0

; 438  : 		pList = pLineList->getNext(&idx);

  00240	48 8d 94 24 98
	00 00 00	 lea	 rdx, QWORD PTR idx$6[rsp]
  00248	48 8b 8c 24 c8
	00 00 00	 mov	 rcx, QWORD PTR pLineList$[rsp]
  00250	e8 00 00 00 00	 call	 ?getNext@?$CTList@VCStringList@@@@QEAAPEAVCStringList@@PEAH@Z ; CTList<CStringList>::getNext
  00255	48 89 44 24 38	 mov	 QWORD PTR pList$[rsp], rax
$LN4@fileToFiel:

; 439  : 		while (pList) {

  0025a	48 83 7c 24 38
	00		 cmp	 QWORD PTR pList$[rsp], 0
  00260	74 67		 je	 SHORT $LN19@fileToFiel

; 440  : 			delete pList;

  00262	48 8b 44 24 38	 mov	 rax, QWORD PTR pList$[rsp]
  00267	48 89 44 24 60	 mov	 QWORD PTR $T4[rsp], rax
  0026c	48 8b 44 24 60	 mov	 rax, QWORD PTR $T4[rsp]
  00271	48 89 44 24 50	 mov	 QWORD PTR $T2[rsp], rax
  00276	48 83 7c 24 50
	00		 cmp	 QWORD PTR $T2[rsp], 0
  0027c	74 16		 je	 SHORT $LN25@fileToFiel
  0027e	ba 01 00 00 00	 mov	 edx, 1
  00283	48 8b 4c 24 50	 mov	 rcx, QWORD PTR $T2[rsp]
  00288	e8 00 00 00 00	 call	 ??_GCStringList@@QEAAPEAXI@Z
  0028d	48 89 44 24 68	 mov	 QWORD PTR tv165[rsp], rax
  00292	eb 09		 jmp	 SHORT $LN26@fileToFiel
$LN25@fileToFiel:
  00294	48 c7 44 24 68
	00 00 00 00	 mov	 QWORD PTR tv165[rsp], 0
$LN26@fileToFiel:

; 441  : 			idx++;

  0029d	8b 84 24 98 00
	00 00		 mov	 eax, DWORD PTR idx$6[rsp]
  002a4	ff c0		 inc	 eax
  002a6	89 84 24 98 00
	00 00		 mov	 DWORD PTR idx$6[rsp], eax

; 442  : 			pList = pLineList->getNext(&idx);

  002ad	48 8d 94 24 98
	00 00 00	 lea	 rdx, QWORD PTR idx$6[rsp]
  002b5	48 8b 8c 24 c8
	00 00 00	 mov	 rcx, QWORD PTR pLineList$[rsp]
  002bd	e8 00 00 00 00	 call	 ?getNext@?$CTList@VCStringList@@@@QEAAPEAVCStringList@@PEAH@Z ; CTList<CStringList>::getNext
  002c2	48 89 44 24 38	 mov	 QWORD PTR pList$[rsp], rax

; 443  : 		}

  002c7	eb 91		 jmp	 SHORT $LN4@fileToFiel
$LN19@fileToFiel:

; 444  : 	}
; 445  : 	bres = false;

  002c9	c6 44 24 30 00	 mov	 BYTE PTR bres$[rsp], 0
$END_PROC$29:

; 446  : END_PROC:
; 447  : 	if (pFileBuf) gs_pMMgr->delBuf(pFileBuf, fileSize);

  002ce	48 83 7c 24 78
	00		 cmp	 QWORD PTR pFileBuf$[rsp], 0
  002d4	74 19		 je	 SHORT $LN20@fileToFiel
  002d6	44 8b 84 24 9c
	00 00 00	 mov	 r8d, DWORD PTR fileSize$[rsp]
  002de	48 8b 54 24 78	 mov	 rdx, QWORD PTR pFileBuf$[rsp]
  002e3	48 8b 0d 00 00
	00 00		 mov	 rcx, QWORD PTR ?gs_pMMgr@@3PEAVCMemManager@@EA ; gs_pMMgr
  002ea	e8 00 00 00 00	 call	 ?delBuf@CMemManager@@QEAAXPEADH@Z ; CMemManager::delBuf
$LN20@fileToFiel:

; 448  : 	if(stInfo.pTarget) gs_pMMgr->delBuf(stInfo.pTarget, stInfo.aBufSize);

  002ef	48 83 bc 24 88
	00 00 00 00	 cmp	 QWORD PTR stInfo$[rsp+8], 0
  002f8	74 1c		 je	 SHORT $LN21@fileToFiel
  002fa	44 8b 84 24 90
	00 00 00	 mov	 r8d, DWORD PTR stInfo$[rsp+16]
  00302	48 8b 94 24 88
	00 00 00	 mov	 rdx, QWORD PTR stInfo$[rsp+8]
  0030a	48 8b 0d 00 00
	00 00		 mov	 rcx, QWORD PTR ?gs_pMMgr@@3PEAVCMemManager@@EA ; gs_pMMgr
  00311	e8 00 00 00 00	 call	 ?delBuf@CMemManager@@QEAAXPEADH@Z ; CMemManager::delBuf
$LN21@fileToFiel:

; 449  : 	return bres;

  00316	0f b6 44 24 30	 movzx	 eax, BYTE PTR bres$[rsp]

; 450  : }

  0031b	48 8b 8c 24 a0
	00 00 00	 mov	 rcx, QWORD PTR __$ArrayPad$[rsp]
  00323	48 33 cc	 xor	 rcx, rsp
  00326	e8 00 00 00 00	 call	 __security_check_cookie
  0032b	48 81 c4 b0 00
	00 00		 add	 rsp, 176		; 000000b0H
  00332	5f		 pop	 rdi
  00333	c3		 ret	 0
?fileToFieldRecord@CFileUtil@@SA_NPEADPEAV?$CTList@VCStringList@@@@D@Z ENDP ; CFileUtil::fileToFieldRecord
_TEXT	ENDS
;	COMDAT text$x
text$x	SEGMENT
bres$ = 48
pList$ = 56
$T1 = 64
tv92 = 72
$T2 = 80
$T3 = 88
$T4 = 96
tv165 = 104
$T5 = 112
pFileBuf$ = 120
stInfo$ = 128
idx$6 = 152
fileSize$ = 156
__$ArrayPad$ = 160
pFilePath$ = 192
pLineList$ = 200
ch$ = 208
?dtor$0@?0??fileToFieldRecord@CFileUtil@@SA_NPEADPEAV?$CTList@VCStringList@@@@D@Z@4HA PROC ; `CFileUtil::fileToFieldRecord'::`1'::dtor$0
  00000	40 55		 push	 rbp
  00002	48 83 ec 20	 sub	 rsp, 32			; 00000020H
  00006	48 8b ea	 mov	 rbp, rdx
  00009	48 8d 15 00 00
	00 00		 lea	 rdx, OFFSET FLAT:?nothrow@std@@3Unothrow_t@1@B ; std::nothrow
  00010	48 8b 4d 40	 mov	 rcx, QWORD PTR $T1[rbp]
  00014	e8 00 00 00 00	 call	 ??3@YAXPEAXAEBUnothrow_t@std@@@Z ; operator delete
  00019	48 83 c4 20	 add	 rsp, 32			; 00000020H
  0001d	5d		 pop	 rbp
  0001e	c3		 ret	 0
?dtor$0@?0??fileToFieldRecord@CFileUtil@@SA_NPEADPEAV?$CTList@VCStringList@@@@D@Z@4HA ENDP ; `CFileUtil::fileToFieldRecord'::`1'::dtor$0
text$x	ENDS
; Function compile flags: /Odtp
;	COMDAT text$x
text$x	SEGMENT
bres$ = 48
pList$ = 56
$T1 = 64
tv92 = 72
$T2 = 80
$T3 = 88
$T4 = 96
tv165 = 104
$T5 = 112
pFileBuf$ = 120
stInfo$ = 128
idx$6 = 152
fileSize$ = 156
__$ArrayPad$ = 160
pFilePath$ = 192
pLineList$ = 200
ch$ = 208
?dtor$0@?0??fileToFieldRecord@CFileUtil@@SA_NPEADPEAV?$CTList@VCStringList@@@@D@Z@4HA PROC ; `CFileUtil::fileToFieldRecord'::`1'::dtor$0
  00000	40 55		 push	 rbp
  00002	48 83 ec 20	 sub	 rsp, 32			; 00000020H
  00006	48 8b ea	 mov	 rbp, rdx
  00009	48 8d 15 00 00
	00 00		 lea	 rdx, OFFSET FLAT:?nothrow@std@@3Unothrow_t@1@B ; std::nothrow
  00010	48 8b 4d 40	 mov	 rcx, QWORD PTR $T1[rbp]
  00014	e8 00 00 00 00	 call	 ??3@YAXPEAXAEBUnothrow_t@std@@@Z ; operator delete
  00019	48 83 c4 20	 add	 rsp, 32			; 00000020H
  0001d	5d		 pop	 rbp
  0001e	c3		 ret	 0
?dtor$0@?0??fileToFieldRecord@CFileUtil@@SA_NPEADPEAV?$CTList@VCStringList@@@@D@Z@4HA ENDP ; `CFileUtil::fileToFieldRecord'::`1'::dtor$0
text$x	ENDS
; Function compile flags: /Odtp
; File e:\infinia-library-3.0\com\src\comfileutil.cpp
;	COMDAT ?getFieldList@CFileUtil@@SA_NPEADDPEAVCStringList@@@Z
_TEXT	SEGMENT
bEnd$ = 32
pNext$ = 40
nLen$ = 48
$T1 = 56
word$ = 64
__$ArrayPad$ = 576
pRecord$ = 608
cSeparator$ = 616
pList$ = 624
?getFieldList@CFileUtil@@SA_NPEADDPEAVCStringList@@@Z PROC ; CFileUtil::getFieldList, COMDAT

; 453  : {

$LN18:
  00000	4c 89 44 24 18	 mov	 QWORD PTR [rsp+24], r8
  00005	88 54 24 10	 mov	 BYTE PTR [rsp+16], dl
  00009	48 89 4c 24 08	 mov	 QWORD PTR [rsp+8], rcx
  0000e	48 81 ec 58 02
	00 00		 sub	 rsp, 600		; 00000258H
  00015	48 8b 05 00 00
	00 00		 mov	 rax, QWORD PTR __security_cookie
  0001c	48 33 c4	 xor	 rax, rsp
  0001f	48 89 84 24 40
	02 00 00	 mov	 QWORD PTR __$ArrayPad$[rsp], rax

; 454  : 	int nLen; 
; 455  : 	TCHAR *pNext, word[512];
; 456  : 	bool bEnd=false;

  00027	c6 44 24 20 00	 mov	 BYTE PTR bEnd$[rsp], 0

; 457  : 
; 458  : 	if (!cSeparator) {

  0002c	0f be 84 24 68
	02 00 00	 movsx	 eax, BYTE PTR cSeparator$[rsp]
  00034	85 c0		 test	 eax, eax
  00036	75 28		 jne	 SHORT $LN6@getFieldLi

; 459  : 		if (pList->push_back(pRecord)) {

  00038	48 8b 94 24 60
	02 00 00	 mov	 rdx, QWORD PTR pRecord$[rsp]
  00040	48 8b 8c 24 70
	02 00 00	 mov	 rcx, QWORD PTR pList$[rsp]
  00048	e8 00 00 00 00	 call	 ?push_back@CStringList@@QEAAPEAVCmString@@PEAD@Z ; CStringList::push_back
  0004d	48 85 c0	 test	 rax, rax
  00050	74 07		 je	 SHORT $LN7@getFieldLi

; 460  : 			return true;

  00052	b0 01		 mov	 al, 1
  00054	e9 58 01 00 00	 jmp	 $LN1@getFieldLi
$LN7@getFieldLi:

; 461  : 		}
; 462  : 		return false;

  00059	32 c0		 xor	 al, al
  0005b	e9 51 01 00 00	 jmp	 $LN1@getFieldLi
$LN6@getFieldLi:
$LN2@getFieldLi:

; 463  : 	}
; 464  : 
; 465  : 	while (*pRecord)

  00060	48 8b 84 24 60
	02 00 00	 mov	 rax, QWORD PTR pRecord$[rsp]
  00068	0f be 00	 movsx	 eax, BYTE PTR [rax]
  0006b	85 c0		 test	 eax, eax
  0006d	0f 84 3c 01 00
	00		 je	 $LN3@getFieldLi
$LN4@getFieldLi:

; 466  : 	{
; 467  : 		while (*pRecord == CH_SPC || *pRecord == CH_TAB) pRecord++;

  00073	48 8b 84 24 60
	02 00 00	 mov	 rax, QWORD PTR pRecord$[rsp]
  0007b	0f be 00	 movsx	 eax, BYTE PTR [rax]
  0007e	83 f8 20	 cmp	 eax, 32			; 00000020H
  00081	74 10		 je	 SHORT $LN8@getFieldLi
  00083	48 8b 84 24 60
	02 00 00	 mov	 rax, QWORD PTR pRecord$[rsp]
  0008b	0f be 00	 movsx	 eax, BYTE PTR [rax]
  0008e	83 f8 09	 cmp	 eax, 9
  00091	75 15		 jne	 SHORT $LN5@getFieldLi
$LN8@getFieldLi:
  00093	48 8b 84 24 60
	02 00 00	 mov	 rax, QWORD PTR pRecord$[rsp]
  0009b	48 ff c0	 inc	 rax
  0009e	48 89 84 24 60
	02 00 00	 mov	 QWORD PTR pRecord$[rsp], rax
  000a6	eb cb		 jmp	 SHORT $LN4@getFieldLi
$LN5@getFieldLi:

; 468  : 		pNext = strchr(pRecord, cSeparator);

  000a8	0f be 84 24 68
	02 00 00	 movsx	 eax, BYTE PTR cSeparator$[rsp]
  000b0	8b d0		 mov	 edx, eax
  000b2	48 8b 8c 24 60
	02 00 00	 mov	 rcx, QWORD PTR pRecord$[rsp]
  000ba	e8 00 00 00 00	 call	 ?strchr@@YAPEADQEADH@Z	; strchr
  000bf	48 89 44 24 28	 mov	 QWORD PTR pNext$[rsp], rax

; 469  : 		if (!pNext) {

  000c4	48 83 7c 24 28
	00		 cmp	 QWORD PTR pNext$[rsp], 0
  000ca	75 4f		 jne	 SHORT $LN9@getFieldLi

; 470  : 			if (!pNext) pNext = strchr(pRecord, 0);

  000cc	48 83 7c 24 28
	00		 cmp	 QWORD PTR pNext$[rsp], 0
  000d2	75 14		 jne	 SHORT $LN10@getFieldLi
  000d4	33 d2		 xor	 edx, edx
  000d6	48 8b 8c 24 60
	02 00 00	 mov	 rcx, QWORD PTR pRecord$[rsp]
  000de	e8 00 00 00 00	 call	 ?strchr@@YAPEADQEADH@Z	; strchr
  000e3	48 89 44 24 28	 mov	 QWORD PTR pNext$[rsp], rax
$LN10@getFieldLi:

; 471  : 			if (!pNext) pNext = strchr(pRecord, g_rc);

  000e8	48 83 7c 24 28
	00		 cmp	 QWORD PTR pNext$[rsp], 0
  000ee	75 17		 jne	 SHORT $LN11@getFieldLi
  000f0	ba 0a 00 00 00	 mov	 edx, 10
  000f5	48 8b 8c 24 60
	02 00 00	 mov	 rcx, QWORD PTR pRecord$[rsp]
  000fd	e8 00 00 00 00	 call	 ?strchr@@YAPEADQEADH@Z	; strchr
  00102	48 89 44 24 28	 mov	 QWORD PTR pNext$[rsp], rax
$LN11@getFieldLi:

; 472  : 			if (!pNext) return false;

  00107	48 83 7c 24 28
	00		 cmp	 QWORD PTR pNext$[rsp], 0
  0010d	75 07		 jne	 SHORT $LN12@getFieldLi
  0010f	32 c0		 xor	 al, al
  00111	e9 9b 00 00 00	 jmp	 $LN1@getFieldLi
$LN12@getFieldLi:

; 473  : 			bEnd = true;

  00116	c6 44 24 20 01	 mov	 BYTE PTR bEnd$[rsp], 1
$LN9@getFieldLi:

; 474  : 		}
; 475  : 		nLen = (int)(pNext - pRecord);

  0011b	48 8b 84 24 60
	02 00 00	 mov	 rax, QWORD PTR pRecord$[rsp]
  00123	48 8b 4c 24 28	 mov	 rcx, QWORD PTR pNext$[rsp]
  00128	48 2b c8	 sub	 rcx, rax
  0012b	48 8b c1	 mov	 rax, rcx
  0012e	89 44 24 30	 mov	 DWORD PTR nLen$[rsp], eax

; 476  : 		_tcsncpy(word, pRecord, nLen); word[nLen] = 0;

  00132	48 63 44 24 30	 movsxd	 rax, DWORD PTR nLen$[rsp]
  00137	4c 8b c0	 mov	 r8, rax
  0013a	48 8b 94 24 60
	02 00 00	 mov	 rdx, QWORD PTR pRecord$[rsp]
  00142	48 8d 4c 24 40	 lea	 rcx, QWORD PTR word$[rsp]
  00147	e8 00 00 00 00	 call	 _tcsncpy
  0014c	48 63 44 24 30	 movsxd	 rax, DWORD PTR nLen$[rsp]
  00151	48 89 44 24 38	 mov	 QWORD PTR $T1[rsp], rax
  00156	48 81 7c 24 38
	00 02 00 00	 cmp	 QWORD PTR $T1[rsp], 512	; 00000200H
  0015f	73 02		 jae	 SHORT $LN16@getFieldLi
  00161	eb 05		 jmp	 SHORT $LN17@getFieldLi
$LN16@getFieldLi:
  00163	e8 00 00 00 00	 call	 __report_rangecheckfailure
$LN17@getFieldLi:
  00168	48 8b 44 24 38	 mov	 rax, QWORD PTR $T1[rsp]
  0016d	c6 44 04 40 00	 mov	 BYTE PTR word$[rsp+rax], 0

; 477  : 		if (!pList->push_back(word)) {

  00172	48 8d 54 24 40	 lea	 rdx, QWORD PTR word$[rsp]
  00177	48 8b 8c 24 70
	02 00 00	 mov	 rcx, QWORD PTR pList$[rsp]
  0017f	e8 00 00 00 00	 call	 ?push_back@CStringList@@QEAAPEAVCmString@@PEAD@Z ; CStringList::push_back
  00184	48 85 c0	 test	 rax, rax
  00187	75 04		 jne	 SHORT $LN13@getFieldLi

; 478  : 			return false;

  00189	32 c0		 xor	 al, al
  0018b	eb 24		 jmp	 SHORT $LN1@getFieldLi
$LN13@getFieldLi:

; 479  : 		}
; 480  : 		if (bEnd) return true;

  0018d	0f b6 44 24 20	 movzx	 eax, BYTE PTR bEnd$[rsp]
  00192	85 c0		 test	 eax, eax
  00194	74 04		 je	 SHORT $LN14@getFieldLi
  00196	b0 01		 mov	 al, 1
  00198	eb 17		 jmp	 SHORT $LN1@getFieldLi
$LN14@getFieldLi:

; 481  : 		pRecord = pNext + 1;

  0019a	48 8b 44 24 28	 mov	 rax, QWORD PTR pNext$[rsp]
  0019f	48 ff c0	 inc	 rax
  001a2	48 89 84 24 60
	02 00 00	 mov	 QWORD PTR pRecord$[rsp], rax

; 482  : 	}

  001aa	e9 b1 fe ff ff	 jmp	 $LN2@getFieldLi
$LN3@getFieldLi:

; 483  : 	return true;

  001af	b0 01		 mov	 al, 1
$LN1@getFieldLi:
$LN15@getFieldLi:

; 484  : }

  001b1	48 8b 8c 24 40
	02 00 00	 mov	 rcx, QWORD PTR __$ArrayPad$[rsp]
  001b9	48 33 cc	 xor	 rcx, rsp
  001bc	e8 00 00 00 00	 call	 __security_check_cookie
  001c1	48 81 c4 58 02
	00 00		 add	 rsp, 600		; 00000258H
  001c8	c3		 ret	 0
?getFieldList@CFileUtil@@SA_NPEADDPEAVCStringList@@@Z ENDP ; CFileUtil::getFieldList
_TEXT	ENDS
; Function compile flags: /Odtp
; File e:\infinia-library-3.0\com\src\comfileutil.cpp
;	COMDAT ?getNextLine@CFileUtil@@SAHPEAUSTStrInfo@@@Z
_TEXT	SEGMENT
tv141 = 32
bEnd$ = 33
nBufSize$ = 36
nSize$ = 40
pNextLine$ = 48
tv139 = 56
tv137 = 64
tv140 = 72
pInfo$ = 96
?getNextLine@CFileUtil@@SAHPEAUSTStrInfo@@@Z PROC	; CFileUtil::getNextLine, COMDAT

; 526  : {

$LN11:
  00000	48 89 4c 24 08	 mov	 QWORD PTR [rsp+8], rcx
  00005	48 83 ec 58	 sub	 rsp, 88			; 00000058H

; 527  : 	int nSize = 0, nBufSize;  //g_nChSize

  00009	c7 44 24 28 00
	00 00 00	 mov	 DWORD PTR nSize$[rsp], 0

; 528  : 	TCHAR *pNextLine = _tcschr(pInfo->pSource, g_rc);

  00011	ba 0a 00 00 00	 mov	 edx, 10
  00016	48 8b 44 24 60	 mov	 rax, QWORD PTR pInfo$[rsp]
  0001b	48 8b 08	 mov	 rcx, QWORD PTR [rax]
  0001e	e8 00 00 00 00	 call	 ?_tcschr@@YAPEADPEADI@Z	; _tcschr
  00023	48 89 44 24 30	 mov	 QWORD PTR pNextLine$[rsp], rax

; 529  : 	bool bEnd = false;

  00028	c6 44 24 21 00	 mov	 BYTE PTR bEnd$[rsp], 0

; 530  : 
; 531  : 	if (pNextLine) {

  0002d	48 83 7c 24 30
	00		 cmp	 QWORD PTR pNextLine$[rsp], 0
  00033	74 1b		 je	 SHORT $LN2@getNextLin

; 532  : 		nSize = (int)(pNextLine - pInfo->pSource) + 1;

  00035	48 8b 44 24 60	 mov	 rax, QWORD PTR pInfo$[rsp]
  0003a	48 8b 00	 mov	 rax, QWORD PTR [rax]
  0003d	48 8b 4c 24 30	 mov	 rcx, QWORD PTR pNextLine$[rsp]
  00042	48 2b c8	 sub	 rcx, rax
  00045	48 8b c1	 mov	 rax, rcx
  00048	ff c0		 inc	 eax
  0004a	89 44 24 28	 mov	 DWORD PTR nSize$[rsp], eax

; 533  : 	}
; 534  : 	else {

  0004e	eb 3f		 jmp	 SHORT $LN3@getNextLin
$LN2@getNextLin:

; 535  : 		pNextLine = _tcschr(pInfo->pSource, 0);

  00050	33 d2		 xor	 edx, edx
  00052	48 8b 44 24 60	 mov	 rax, QWORD PTR pInfo$[rsp]
  00057	48 8b 08	 mov	 rcx, QWORD PTR [rax]
  0005a	e8 00 00 00 00	 call	 ?_tcschr@@YAPEADPEADI@Z	; _tcschr
  0005f	48 89 44 24 30	 mov	 QWORD PTR pNextLine$[rsp], rax

; 536  : 		if(!pNextLine) return 0;

  00064	48 83 7c 24 30
	00		 cmp	 QWORD PTR pNextLine$[rsp], 0
  0006a	75 07		 jne	 SHORT $LN4@getNextLin
  0006c	33 c0		 xor	 eax, eax
  0006e	e9 59 01 00 00	 jmp	 $LN1@getNextLin
$LN4@getNextLin:

; 537  : 		nSize = (int)(pNextLine - pInfo->pSource);

  00073	48 8b 44 24 60	 mov	 rax, QWORD PTR pInfo$[rsp]
  00078	48 8b 00	 mov	 rax, QWORD PTR [rax]
  0007b	48 8b 4c 24 30	 mov	 rcx, QWORD PTR pNextLine$[rsp]
  00080	48 2b c8	 sub	 rcx, rax
  00083	48 8b c1	 mov	 rax, rcx
  00086	89 44 24 28	 mov	 DWORD PTR nSize$[rsp], eax

; 538  : 		bEnd = true;

  0008a	c6 44 24 21 01	 mov	 BYTE PTR bEnd$[rsp], 1
$LN3@getNextLin:

; 539  : 	}
; 540  : 
; 541  : 	*pNextLine = 0;

  0008f	48 8b 44 24 30	 mov	 rax, QWORD PTR pNextLine$[rsp]
  00094	c6 00 00	 mov	 BYTE PTR [rax], 0

; 542  : 	nBufSize = nSize * g_nChSize;

  00097	8b 44 24 28	 mov	 eax, DWORD PTR nSize$[rsp]
  0009b	89 44 24 24	 mov	 DWORD PTR nBufSize$[rsp], eax

; 543  : 	if (pInfo->aBufSize < nBufSize) {

  0009f	48 8b 44 24 60	 mov	 rax, QWORD PTR pInfo$[rsp]
  000a4	8b 4c 24 24	 mov	 ecx, DWORD PTR nBufSize$[rsp]
  000a8	39 48 10	 cmp	 DWORD PTR [rax+16], ecx
  000ab	0f 8d 97 00 00
	00		 jge	 $LN5@getNextLin

; 544  : 		if (pInfo->aBufSize) {

  000b1	48 8b 44 24 60	 mov	 rax, QWORD PTR pInfo$[rsp]
  000b6	83 78 10 00	 cmp	 DWORD PTR [rax+16], 0
  000ba	74 1e		 je	 SHORT $LN6@getNextLin

; 545  : 			gs_pMMgr->delBuf(pInfo->pTarget, pInfo->aBufSize);

  000bc	48 8b 44 24 60	 mov	 rax, QWORD PTR pInfo$[rsp]
  000c1	44 8b 40 10	 mov	 r8d, DWORD PTR [rax+16]
  000c5	48 8b 44 24 60	 mov	 rax, QWORD PTR pInfo$[rsp]
  000ca	48 8b 50 08	 mov	 rdx, QWORD PTR [rax+8]
  000ce	48 8b 0d 00 00
	00 00		 mov	 rcx, QWORD PTR ?gs_pMMgr@@3PEAVCMemManager@@EA ; gs_pMMgr
  000d5	e8 00 00 00 00	 call	 ?delBuf@CMemManager@@QEAAXPEADH@Z ; CMemManager::delBuf
$LN6@getNextLin:

; 546  : 		}
; 547  : 		nBufSize += 1024; // Allocating enough space

  000da	8b 44 24 24	 mov	 eax, DWORD PTR nBufSize$[rsp]
  000de	05 00 04 00 00	 add	 eax, 1024		; 00000400H
  000e3	89 44 24 24	 mov	 DWORD PTR nBufSize$[rsp], eax

; 548  : 		pInfo->pTarget = gs_pMMgr->newBuf(nBufSize);

  000e7	8b 54 24 24	 mov	 edx, DWORD PTR nBufSize$[rsp]
  000eb	48 8b 0d 00 00
	00 00		 mov	 rcx, QWORD PTR ?gs_pMMgr@@3PEAVCMemManager@@EA ; gs_pMMgr
  000f2	e8 00 00 00 00	 call	 ?newBuf@CMemManager@@QEAAPEADH@Z ; CMemManager::newBuf
  000f7	48 8b 4c 24 60	 mov	 rcx, QWORD PTR pInfo$[rsp]
  000fc	48 89 41 08	 mov	 QWORD PTR [rcx+8], rax

; 549  : 		if (!pInfo->pTarget) {

  00100	48 8b 44 24 60	 mov	 rax, QWORD PTR pInfo$[rsp]
  00105	48 83 78 08 00	 cmp	 QWORD PTR [rax+8], 0
  0010a	75 30		 jne	 SHORT $LN7@getNextLin

; 550  : 			pInfo->aBufSize = 0;

  0010c	48 8b 44 24 60	 mov	 rax, QWORD PTR pInfo$[rsp]
  00111	c7 40 10 00 00
	00 00		 mov	 DWORD PTR [rax+16], 0

; 551  : 			gs_cLogger.PutLogQueue(LEVEL_ERROR, _T("CFileUtil::getNextLine gs_pMMgr->newBuf error! size[%ld]"), nBufSize);

  00118	44 8b 4c 24 24	 mov	 r9d, DWORD PTR nBufSize$[rsp]
  0011d	4c 8d 05 00 00
	00 00		 lea	 r8, OFFSET FLAT:$SG86730
  00124	ba 05 00 00 00	 mov	 edx, 5
  00129	48 8d 0d 00 00
	00 00		 lea	 rcx, OFFSET FLAT:?gs_cLogger@@3VCLogger@@A ; gs_cLogger
  00130	e8 00 00 00 00	 call	 ?PutLogQueue@CLogger@@QEAAXHPEBDZZ ; CLogger::PutLogQueue

; 552  : 			return 0;

  00135	33 c0		 xor	 eax, eax
  00137	e9 90 00 00 00	 jmp	 $LN1@getNextLin
$LN7@getNextLin:

; 553  : 		}
; 554  : 		pInfo->aBufSize = nBufSize;

  0013c	48 8b 44 24 60	 mov	 rax, QWORD PTR pInfo$[rsp]
  00141	8b 4c 24 24	 mov	 ecx, DWORD PTR nBufSize$[rsp]
  00145	89 48 10	 mov	 DWORD PTR [rax+16], ecx
$LN5@getNextLin:

; 555  : 	}
; 556  : 
; 557  : 	_tcscpy(pInfo->pTarget, pInfo->pSource);

  00148	48 8b 44 24 60	 mov	 rax, QWORD PTR pInfo$[rsp]
  0014d	48 8b 00	 mov	 rax, QWORD PTR [rax]
  00150	48 89 44 24 40	 mov	 QWORD PTR tv137[rsp], rax
  00155	48 8b 44 24 60	 mov	 rax, QWORD PTR pInfo$[rsp]
  0015a	48 8b 40 08	 mov	 rax, QWORD PTR [rax+8]
  0015e	48 89 44 24 38	 mov	 QWORD PTR tv139[rsp], rax
  00163	48 8b 44 24 38	 mov	 rax, QWORD PTR tv139[rsp]
  00168	48 89 44 24 48	 mov	 QWORD PTR tv140[rsp], rax
$LN10@getNextLin:
  0016d	48 8b 44 24 40	 mov	 rax, QWORD PTR tv137[rsp]
  00172	0f b6 00	 movzx	 eax, BYTE PTR [rax]
  00175	88 44 24 20	 mov	 BYTE PTR tv141[rsp], al
  00179	48 8b 44 24 38	 mov	 rax, QWORD PTR tv139[rsp]
  0017e	0f b6 4c 24 20	 movzx	 ecx, BYTE PTR tv141[rsp]
  00183	88 08		 mov	 BYTE PTR [rax], cl
  00185	48 8b 44 24 40	 mov	 rax, QWORD PTR tv137[rsp]
  0018a	48 ff c0	 inc	 rax
  0018d	48 89 44 24 40	 mov	 QWORD PTR tv137[rsp], rax
  00192	48 8b 44 24 38	 mov	 rax, QWORD PTR tv139[rsp]
  00197	48 ff c0	 inc	 rax
  0019a	48 89 44 24 38	 mov	 QWORD PTR tv139[rsp], rax
  0019f	80 7c 24 20 00	 cmp	 BYTE PTR tv141[rsp], 0
  001a4	75 c7		 jne	 SHORT $LN10@getNextLin

; 558  : 	if (bEnd) return 0;

  001a6	0f b6 44 24 21	 movzx	 eax, BYTE PTR bEnd$[rsp]
  001ab	85 c0		 test	 eax, eax
  001ad	74 04		 je	 SHORT $LN8@getNextLin
  001af	33 c0		 xor	 eax, eax
  001b1	eb 19		 jmp	 SHORT $LN1@getNextLin
$LN8@getNextLin:

; 559  : 	pInfo->pSource += nSize;

  001b3	48 63 44 24 28	 movsxd	 rax, DWORD PTR nSize$[rsp]
  001b8	48 8b 4c 24 60	 mov	 rcx, QWORD PTR pInfo$[rsp]
  001bd	48 03 01	 add	 rax, QWORD PTR [rcx]
  001c0	48 8b 4c 24 60	 mov	 rcx, QWORD PTR pInfo$[rsp]
  001c5	48 89 01	 mov	 QWORD PTR [rcx], rax

; 560  : 	return nSize;

  001c8	8b 44 24 28	 mov	 eax, DWORD PTR nSize$[rsp]
$LN1@getNextLin:

; 561  : }

  001cc	48 83 c4 58	 add	 rsp, 88			; 00000058H
  001d0	c3		 ret	 0
?getNextLine@CFileUtil@@SAHPEAUSTStrInfo@@@Z ENDP	; CFileUtil::getNextLine
_TEXT	ENDS
; Function compile flags: /Odtp
; File e:\infinia-library-3.0\com\src\comfileutil.cpp
;	COMDAT ?readNalloc@CFileUtil@@SAHPEADPEAPEADPEAH@Z
_TEXT	SEGMENT
nPos$ = 32
nBufSize$ = 36
nSize$ = 40
nRead$ = 44
pFile$ = 48
pFilePath$ = 80
pBuf$ = 88
aBufSize$ = 96
?readNalloc@CFileUtil@@SAHPEADPEAPEADPEAH@Z PROC	; CFileUtil::readNalloc, COMDAT

; 487  : {

$LN10:
  00000	4c 89 44 24 18	 mov	 QWORD PTR [rsp+24], r8
  00005	48 89 54 24 10	 mov	 QWORD PTR [rsp+16], rdx
  0000a	48 89 4c 24 08	 mov	 QWORD PTR [rsp+8], rcx
  0000f	48 83 ec 48	 sub	 rsp, 72			; 00000048H

; 488  : 	FILE *pFile = _tfopen(pFilePath, _T("rb"));

  00013	48 8d 15 00 00
	00 00		 lea	 rdx, OFFSET FLAT:$SG86706
  0001a	48 8b 4c 24 50	 mov	 rcx, QWORD PTR pFilePath$[rsp]
  0001f	ff 15 00 00 00
	00		 call	 QWORD PTR __imp_fopen
  00025	48 89 44 24 30	 mov	 QWORD PTR pFile$[rsp], rax

; 489  : 	int nSize = 0, nRead, nPos=0, nBufSize;

  0002a	c7 44 24 28 00
	00 00 00	 mov	 DWORD PTR nSize$[rsp], 0
  00032	c7 44 24 20 00
	00 00 00	 mov	 DWORD PTR nPos$[rsp], 0

; 490  : 
; 491  : 	if (!pFile) {

  0003a	48 83 7c 24 30
	00		 cmp	 QWORD PTR pFile$[rsp], 0
  00040	75 24		 jne	 SHORT $LN4@readNalloc

; 492  : 		gs_cLogger.PutLogQueue(LEVEL_ERROR, _T("CDFSFile::read pFile open FAIL [%s]"), pFilePath);

  00042	4c 8b 4c 24 50	 mov	 r9, QWORD PTR pFilePath$[rsp]
  00047	4c 8d 05 00 00
	00 00		 lea	 r8, OFFSET FLAT:$SG86708
  0004e	ba 05 00 00 00	 mov	 edx, 5
  00053	48 8d 0d 00 00
	00 00		 lea	 rcx, OFFSET FLAT:?gs_cLogger@@3VCLogger@@A ; gs_cLogger
  0005a	e8 00 00 00 00	 call	 ?PutLogQueue@CLogger@@QEAAXHPEBDZZ ; CLogger::PutLogQueue

; 493  : 		return 0;

  0005f	33 c0		 xor	 eax, eax
  00061	e9 47 01 00 00	 jmp	 $LN1@readNalloc
$LN4@readNalloc:

; 494  : 	}
; 495  : 	fseek(pFile, 0, SEEK_END);

  00066	41 b8 02 00 00
	00		 mov	 r8d, 2
  0006c	33 d2		 xor	 edx, edx
  0006e	48 8b 4c 24 30	 mov	 rcx, QWORD PTR pFile$[rsp]
  00073	ff 15 00 00 00
	00		 call	 QWORD PTR __imp_fseek

; 496  : 	nSize = ftell(pFile);

  00079	48 8b 4c 24 30	 mov	 rcx, QWORD PTR pFile$[rsp]
  0007e	ff 15 00 00 00
	00		 call	 QWORD PTR __imp_ftell
  00084	89 44 24 28	 mov	 DWORD PTR nSize$[rsp], eax

; 497  : 	fseek(pFile, 0, SEEK_SET);

  00088	45 33 c0	 xor	 r8d, r8d
  0008b	33 d2		 xor	 edx, edx
  0008d	48 8b 4c 24 30	 mov	 rcx, QWORD PTR pFile$[rsp]
  00092	ff 15 00 00 00
	00		 call	 QWORD PTR __imp_fseek

; 498  : 
; 499  : 	nBufSize = nSize + 1;

  00098	8b 44 24 28	 mov	 eax, DWORD PTR nSize$[rsp]
  0009c	ff c0		 inc	 eax
  0009e	89 44 24 24	 mov	 DWORD PTR nBufSize$[rsp], eax

; 500  : 	if (*aBufSize < nBufSize) {

  000a2	48 8b 44 24 60	 mov	 rax, QWORD PTR aBufSize$[rsp]
  000a7	8b 4c 24 24	 mov	 ecx, DWORD PTR nBufSize$[rsp]
  000ab	39 08		 cmp	 DWORD PTR [rax], ecx
  000ad	7d 78		 jge	 SHORT $LN5@readNalloc

; 501  : 		if (*aBufSize) {

  000af	48 8b 44 24 60	 mov	 rax, QWORD PTR aBufSize$[rsp]
  000b4	83 38 00	 cmp	 DWORD PTR [rax], 0
  000b7	74 1c		 je	 SHORT $LN6@readNalloc

; 502  : 			gs_pMMgr->delBuf(*pBuf, *aBufSize);

  000b9	48 8b 44 24 60	 mov	 rax, QWORD PTR aBufSize$[rsp]
  000be	44 8b 00	 mov	 r8d, DWORD PTR [rax]
  000c1	48 8b 44 24 58	 mov	 rax, QWORD PTR pBuf$[rsp]
  000c6	48 8b 10	 mov	 rdx, QWORD PTR [rax]
  000c9	48 8b 0d 00 00
	00 00		 mov	 rcx, QWORD PTR ?gs_pMMgr@@3PEAVCMemManager@@EA ; gs_pMMgr
  000d0	e8 00 00 00 00	 call	 ?delBuf@CMemManager@@QEAAXPEADH@Z ; CMemManager::delBuf
$LN6@readNalloc:

; 503  : 		}
; 504  : 		*pBuf = gs_pMMgr->newBuf(nBufSize);

  000d5	8b 54 24 24	 mov	 edx, DWORD PTR nBufSize$[rsp]
  000d9	48 8b 0d 00 00
	00 00		 mov	 rcx, QWORD PTR ?gs_pMMgr@@3PEAVCMemManager@@EA ; gs_pMMgr
  000e0	e8 00 00 00 00	 call	 ?newBuf@CMemManager@@QEAAPEADH@Z ; CMemManager::newBuf
  000e5	48 8b 4c 24 58	 mov	 rcx, QWORD PTR pBuf$[rsp]
  000ea	48 89 01	 mov	 QWORD PTR [rcx], rax

; 505  : 		if (!*pBuf) {

  000ed	48 8b 44 24 58	 mov	 rax, QWORD PTR pBuf$[rsp]
  000f2	48 83 38 00	 cmp	 QWORD PTR [rax], 0
  000f6	75 24		 jne	 SHORT $LN7@readNalloc

; 506  : 			gs_cLogger.PutLogQueue(LEVEL_ERROR, _T("CFileUtil::readNalloc malloc error! size[%ld]"), nBufSize);

  000f8	44 8b 4c 24 24	 mov	 r9d, DWORD PTR nBufSize$[rsp]
  000fd	4c 8d 05 00 00
	00 00		 lea	 r8, OFFSET FLAT:$SG86712
  00104	ba 05 00 00 00	 mov	 edx, 5
  00109	48 8d 0d 00 00
	00 00		 lea	 rcx, OFFSET FLAT:?gs_cLogger@@3VCLogger@@A ; gs_cLogger
  00110	e8 00 00 00 00	 call	 ?PutLogQueue@CLogger@@QEAAXHPEBDZZ ; CLogger::PutLogQueue

; 507  : 			return 0;

  00115	33 c0		 xor	 eax, eax
  00117	e9 91 00 00 00	 jmp	 $LN1@readNalloc
$LN7@readNalloc:

; 508  : 		}
; 509  : 		*aBufSize = nBufSize;

  0011c	48 8b 44 24 60	 mov	 rax, QWORD PTR aBufSize$[rsp]
  00121	8b 4c 24 24	 mov	 ecx, DWORD PTR nBufSize$[rsp]
  00125	89 08		 mov	 DWORD PTR [rax], ecx
$LN5@readNalloc:
$LN2@readNalloc:

; 510  : 	}
; 511  : 
; 512  : 	while ((nRead = (int)fread(*pBuf + nPos, 1, nSize - nPos, pFile)) > 0)

  00127	8b 44 24 20	 mov	 eax, DWORD PTR nPos$[rsp]
  0012b	8b 4c 24 28	 mov	 ecx, DWORD PTR nSize$[rsp]
  0012f	2b c8		 sub	 ecx, eax
  00131	8b c1		 mov	 eax, ecx
  00133	48 98		 cdqe
  00135	48 63 4c 24 20	 movsxd	 rcx, DWORD PTR nPos$[rsp]
  0013a	48 8b 54 24 58	 mov	 rdx, QWORD PTR pBuf$[rsp]
  0013f	48 03 0a	 add	 rcx, QWORD PTR [rdx]
  00142	4c 8b 4c 24 30	 mov	 r9, QWORD PTR pFile$[rsp]
  00147	4c 8b c0	 mov	 r8, rax
  0014a	ba 01 00 00 00	 mov	 edx, 1
  0014f	ff 15 00 00 00
	00		 call	 QWORD PTR __imp_fread
  00155	89 44 24 2c	 mov	 DWORD PTR nRead$[rsp], eax
  00159	83 7c 24 2c 00	 cmp	 DWORD PTR nRead$[rsp], 0
  0015e	7e 12		 jle	 SHORT $LN3@readNalloc

; 513  : 	{
; 514  : 		nPos += nRead;

  00160	8b 44 24 2c	 mov	 eax, DWORD PTR nRead$[rsp]
  00164	8b 4c 24 20	 mov	 ecx, DWORD PTR nPos$[rsp]
  00168	03 c8		 add	 ecx, eax
  0016a	8b c1		 mov	 eax, ecx
  0016c	89 44 24 20	 mov	 DWORD PTR nPos$[rsp], eax

; 515  : 	}

  00170	eb b5		 jmp	 SHORT $LN2@readNalloc
$LN3@readNalloc:

; 516  : 
; 517  : 	if (!nPos) {

  00172	83 7c 24 20 00	 cmp	 DWORD PTR nPos$[rsp], 0
  00177	75 14		 jne	 SHORT $LN8@readNalloc

; 518  : 		printf("fread errno[%d]\n", errno);

  00179	ff 15 00 00 00
	00		 call	 QWORD PTR __imp__errno
  0017f	8b 10		 mov	 edx, DWORD PTR [rax]
  00181	48 8d 0d 00 00
	00 00		 lea	 rcx, OFFSET FLAT:$SG86714
  00188	e8 00 00 00 00	 call	 printf
$LN8@readNalloc:

; 519  : 	}
; 520  : 	(*pBuf)[nPos] = 0;

  0018d	48 63 44 24 20	 movsxd	 rax, DWORD PTR nPos$[rsp]
  00192	48 8b 4c 24 58	 mov	 rcx, QWORD PTR pBuf$[rsp]
  00197	48 8b 09	 mov	 rcx, QWORD PTR [rcx]
  0019a	c6 04 01 00	 mov	 BYTE PTR [rcx+rax], 0

; 521  : 	fclose(pFile);

  0019e	48 8b 4c 24 30	 mov	 rcx, QWORD PTR pFile$[rsp]
  001a3	ff 15 00 00 00
	00		 call	 QWORD PTR __imp_fclose

; 522  : 	return nSize;

  001a9	8b 44 24 28	 mov	 eax, DWORD PTR nSize$[rsp]
$LN1@readNalloc:

; 523  : }

  001ad	48 83 c4 48	 add	 rsp, 72			; 00000048H
  001b1	c3		 ret	 0
?readNalloc@CFileUtil@@SAHPEADPEAPEADPEAH@Z ENDP	; CFileUtil::readNalloc
_TEXT	ENDS
; Function compile flags: /Odtp
; File e:\infinia-library-3.0\com\src\comfileutil.cpp
;	COMDAT ?read@CFileUtil@@SAHPEAD0H@Z
_TEXT	SEGMENT
nSize$ = 32
pFile$ = 40
pFilePath$ = 64
pBuf$ = 72
nFileSize$ = 80
?read@CFileUtil@@SAHPEAD0H@Z PROC			; CFileUtil::read, COMDAT

; 384  : {

$LN4:
  00000	44 89 44 24 18	 mov	 DWORD PTR [rsp+24], r8d
  00005	48 89 54 24 10	 mov	 QWORD PTR [rsp+16], rdx
  0000a	48 89 4c 24 08	 mov	 QWORD PTR [rsp+8], rcx
  0000f	48 83 ec 38	 sub	 rsp, 56			; 00000038H

; 385  : 	FILE *pFile = _tfopen(pFilePath, _T("rb"));

  00013	48 8d 15 00 00
	00 00		 lea	 rdx, OFFSET FLAT:$SG86561
  0001a	48 8b 4c 24 40	 mov	 rcx, QWORD PTR pFilePath$[rsp]
  0001f	ff 15 00 00 00
	00		 call	 QWORD PTR __imp_fopen
  00025	48 89 44 24 28	 mov	 QWORD PTR pFile$[rsp], rax

; 386  : 	int nSize = 0;

  0002a	c7 44 24 20 00
	00 00 00	 mov	 DWORD PTR nSize$[rsp], 0

; 387  : 
; 388  : 	if (!pFile) {

  00032	48 83 7c 24 28
	00		 cmp	 QWORD PTR pFile$[rsp], 0
  00038	75 21		 jne	 SHORT $LN2@read

; 389  : 		gs_cLogger.PutLogQueue(LEVEL_ERROR, _T("CDFSFile::read pFile open FAIL [%s]"), pFilePath);

  0003a	4c 8b 4c 24 40	 mov	 r9, QWORD PTR pFilePath$[rsp]
  0003f	4c 8d 05 00 00
	00 00		 lea	 r8, OFFSET FLAT:$SG86563
  00046	ba 05 00 00 00	 mov	 edx, 5
  0004b	48 8d 0d 00 00
	00 00		 lea	 rcx, OFFSET FLAT:?gs_cLogger@@3VCLogger@@A ; gs_cLogger
  00052	e8 00 00 00 00	 call	 ?PutLogQueue@CLogger@@QEAAXHPEBDZZ ; CLogger::PutLogQueue

; 390  : 		return 0;

  00057	33 c0		 xor	 eax, eax
  00059	eb 3e		 jmp	 SHORT $LN1@read
$LN2@read:

; 391  : 	}
; 392  : 	nSize = (int)fread(pBuf, g_nChSize, nFileSize, pFile);

  0005b	48 63 44 24 50	 movsxd	 rax, DWORD PTR nFileSize$[rsp]
  00060	4c 8b 4c 24 28	 mov	 r9, QWORD PTR pFile$[rsp]
  00065	4c 8b c0	 mov	 r8, rax
  00068	ba 01 00 00 00	 mov	 edx, 1
  0006d	48 8b 4c 24 48	 mov	 rcx, QWORD PTR pBuf$[rsp]
  00072	ff 15 00 00 00
	00		 call	 QWORD PTR __imp_fread
  00078	89 44 24 20	 mov	 DWORD PTR nSize$[rsp], eax

; 393  : 	pBuf[nSize] = 0;

  0007c	48 63 44 24 20	 movsxd	 rax, DWORD PTR nSize$[rsp]
  00081	48 8b 4c 24 48	 mov	 rcx, QWORD PTR pBuf$[rsp]
  00086	c6 04 01 00	 mov	 BYTE PTR [rcx+rax], 0

; 394  : 	fclose(pFile);

  0008a	48 8b 4c 24 28	 mov	 rcx, QWORD PTR pFile$[rsp]
  0008f	ff 15 00 00 00
	00		 call	 QWORD PTR __imp_fclose

; 395  : 	return nSize;

  00095	8b 44 24 20	 mov	 eax, DWORD PTR nSize$[rsp]
$LN1@read:

; 396  : }

  00099	48 83 c4 38	 add	 rsp, 56			; 00000038H
  0009d	c3		 ret	 0
?read@CFileUtil@@SAHPEAD0H@Z ENDP			; CFileUtil::read
_TEXT	ENDS
; Function compile flags: /Odtp
; File e:\infinia-library-3.0\com\src\comfileutil.cpp
;	COMDAT ?changeDirName@CFileUtil@@SA_NPEAD0@Z
_TEXT	SEGMENT
pOriDir$ = 48
pNewDir$ = 56
?changeDirName@CFileUtil@@SA_NPEAD0@Z PROC		; CFileUtil::changeDirName, COMDAT

; 374  : {

$LN4:
  00000	48 89 54 24 10	 mov	 QWORD PTR [rsp+16], rdx
  00005	48 89 4c 24 08	 mov	 QWORD PTR [rsp+8], rcx
  0000a	48 83 ec 28	 sub	 rsp, 40			; 00000028H

; 375  : 	MakeDirectory(pNewDir);

  0000e	48 8b 4c 24 38	 mov	 rcx, QWORD PTR pNewDir$[rsp]
  00013	e8 00 00 00 00	 call	 ?MakeDirectory@CFileUtil@@SA_NPEBD@Z ; CFileUtil::MakeDirectory

; 376  : 	if ( _trename(pOriDir, pNewDir) != 0 ) {

  00018	48 8b 54 24 38	 mov	 rdx, QWORD PTR pNewDir$[rsp]
  0001d	48 8b 4c 24 30	 mov	 rcx, QWORD PTR pOriDir$[rsp]
  00022	ff 15 00 00 00
	00		 call	 QWORD PTR __imp_rename
  00028	85 c0		 test	 eax, eax
  0002a	74 04		 je	 SHORT $LN2@changeDirN

; 377  : 		return false;

  0002c	32 c0		 xor	 al, al
  0002e	eb 02		 jmp	 SHORT $LN1@changeDirN
$LN2@changeDirN:

; 378  : 	}
; 379  : 	return true;

  00030	b0 01		 mov	 al, 1
$LN1@changeDirN:

; 380  : }

  00032	48 83 c4 28	 add	 rsp, 40			; 00000028H
  00036	c3		 ret	 0
?changeDirName@CFileUtil@@SA_NPEAD0@Z ENDP		; CFileUtil::changeDirName
_TEXT	ENDS
; Function compile flags: /Odtp
; File e:\infinia-library-3.0\com\src\comfileutil.cpp
;	COMDAT ?setDirectory@CFileUtil@@SA_NPEADH@Z
_TEXT	SEGMENT
i$ = 32
tv88 = 40
pRear$ = 48
nLen$ = 56
tv87 = 64
pDir$ = 96
upCount$ = 104
?setDirectory@CFileUtil@@SA_NPEADH@Z PROC		; CFileUtil::setDirectory, COMDAT

; 251  : {

$LN8:
  00000	89 54 24 10	 mov	 DWORD PTR [rsp+16], edx
  00004	48 89 4c 24 08	 mov	 QWORD PTR [rsp+8], rcx
  00009	48 83 ec 58	 sub	 rsp, 88			; 00000058H

; 252  : 	if (!pDir) {

  0000d	48 83 7c 24 60
	00		 cmp	 QWORD PTR pDir$[rsp], 0
  00013	75 07		 jne	 SHORT $LN5@setDirecto

; 253  : 		return false;

  00015	32 c0		 xor	 al, al
  00017	e9 cf 00 00 00	 jmp	 $LN1@setDirecto
$LN5@setDirecto:

; 254  : 	}
; 255  : 	size_t	nLen = (int)_tcslen(pDir);

  0001c	48 8b 44 24 60	 mov	 rax, QWORD PTR pDir$[rsp]
  00021	48 89 44 24 40	 mov	 QWORD PTR tv87[rsp], rax
  00026	48 c7 44 24 28
	ff ff ff ff	 mov	 QWORD PTR tv88[rsp], -1
$LL7@setDirecto:
  0002f	48 ff 44 24 28	 inc	 QWORD PTR tv88[rsp]
  00034	48 8b 44 24 40	 mov	 rax, QWORD PTR tv87[rsp]
  00039	48 8b 4c 24 28	 mov	 rcx, QWORD PTR tv88[rsp]
  0003e	80 3c 08 00	 cmp	 BYTE PTR [rax+rcx], 0
  00042	75 eb		 jne	 SHORT $LL7@setDirecto
  00044	48 8b 44 24 28	 mov	 rax, QWORD PTR tv88[rsp]
  00049	48 98		 cdqe
  0004b	48 89 44 24 38	 mov	 QWORD PTR nLen$[rsp], rax

; 256  : 	char *pRear = pDir;

  00050	48 8b 44 24 60	 mov	 rax, QWORD PTR pDir$[rsp]
  00055	48 89 44 24 30	 mov	 QWORD PTR pRear$[rsp], rax

; 257  : 
; 258  : 	int i;
; 259  : 	for (i = 0; i < upCount; i++) {

  0005a	c7 44 24 20 00
	00 00 00	 mov	 DWORD PTR i$[rsp], 0
  00062	eb 0a		 jmp	 SHORT $LN4@setDirecto
$LN2@setDirecto:
  00064	8b 44 24 20	 mov	 eax, DWORD PTR i$[rsp]
  00068	ff c0		 inc	 eax
  0006a	89 44 24 20	 mov	 DWORD PTR i$[rsp], eax
$LN4@setDirecto:
  0006e	8b 44 24 68	 mov	 eax, DWORD PTR upCount$[rsp]
  00072	39 44 24 20	 cmp	 DWORD PTR i$[rsp], eax
  00076	7d 1e		 jge	 SHORT $LN3@setDirecto

; 260  : 		pRear = _tcsrchr((TCHAR *)pDir, g_s);

  00078	ba 5c 00 00 00	 mov	 edx, 92			; 0000005cH
  0007d	48 8b 4c 24 60	 mov	 rcx, QWORD PTR pDir$[rsp]
  00082	e8 00 00 00 00	 call	 ?_tcsrchr@@YAPEADPEADI@Z ; _tcsrchr
  00087	48 89 44 24 30	 mov	 QWORD PTR pRear$[rsp], rax

; 261  : 		*pRear = 0;

  0008c	48 8b 44 24 30	 mov	 rax, QWORD PTR pRear$[rsp]
  00091	c6 00 00	 mov	 BYTE PTR [rax], 0

; 262  : 	}

  00094	eb ce		 jmp	 SHORT $LN2@setDirecto
$LN3@setDirecto:

; 263  : 
; 264  : 	pRear = _tcsrchr((TCHAR *)pDir, g_s);

  00096	ba 5c 00 00 00	 mov	 edx, 92			; 0000005cH
  0009b	48 8b 4c 24 60	 mov	 rcx, QWORD PTR pDir$[rsp]
  000a0	e8 00 00 00 00	 call	 ?_tcsrchr@@YAPEADPEADI@Z ; _tcsrchr
  000a5	48 89 44 24 30	 mov	 QWORD PTR pRear$[rsp], rax

; 265  : 	nLen = pRear - pDir + 1;

  000aa	48 8b 44 24 60	 mov	 rax, QWORD PTR pDir$[rsp]
  000af	48 8b 4c 24 30	 mov	 rcx, QWORD PTR pRear$[rsp]
  000b4	48 2b c8	 sub	 rcx, rax
  000b7	48 8b c1	 mov	 rax, rcx
  000ba	48 ff c0	 inc	 rax
  000bd	48 89 44 24 38	 mov	 QWORD PTR nLen$[rsp], rax

; 266  : 
; 267  : 	_tcsncpy(pDir, pDir, nLen); pDir[nLen] = 0;

  000c2	4c 8b 44 24 38	 mov	 r8, QWORD PTR nLen$[rsp]
  000c7	48 8b 54 24 60	 mov	 rdx, QWORD PTR pDir$[rsp]
  000cc	48 8b 4c 24 60	 mov	 rcx, QWORD PTR pDir$[rsp]
  000d1	e8 00 00 00 00	 call	 _tcsncpy
  000d6	48 8b 44 24 38	 mov	 rax, QWORD PTR nLen$[rsp]
  000db	48 8b 4c 24 60	 mov	 rcx, QWORD PTR pDir$[rsp]
  000e0	48 03 c8	 add	 rcx, rax
  000e3	48 8b c1	 mov	 rax, rcx
  000e6	c6 00 00	 mov	 BYTE PTR [rax], 0

; 268  : 	return true;

  000e9	b0 01		 mov	 al, 1
$LN1@setDirecto:

; 269  : }

  000eb	48 83 c4 58	 add	 rsp, 88			; 00000058H
  000ef	c3		 ret	 0
?setDirectory@CFileUtil@@SA_NPEADH@Z ENDP		; CFileUtil::setDirectory
_TEXT	ENDS
; Function compile flags: /Odtp
; File e:\infinia-library-3.0\com\src\comfileutil.cpp
;	COMDAT ?IsAbsolutePath@CFileUtil@@SA_NPEBD@Z
_TEXT	SEGMENT
pPath$ = 8
?IsAbsolutePath@CFileUtil@@SA_NPEBD@Z PROC		; CFileUtil::IsAbsolutePath, COMDAT

; 329  : {

  00000	48 89 4c 24 08	 mov	 QWORD PTR [rsp+8], rcx

; 330  : 	if (!pPath)

  00005	48 83 7c 24 08
	00		 cmp	 QWORD PTR pPath$[rsp], 0
  0000b	75 04		 jne	 SHORT $LN2@IsAbsolute

; 331  : 		return false;

  0000d	32 c0		 xor	 al, al
  0000f	eb 4d		 jmp	 SHORT $LN1@IsAbsolute
$LN2@IsAbsolute:

; 332  : 
; 333  : 	if (pPath[1] == ':' || pPath[0] == '\\' || pPath[0] == '/')

  00011	b8 01 00 00 00	 mov	 eax, 1
  00016	48 6b c0 01	 imul	 rax, rax, 1
  0001a	48 8b 4c 24 08	 mov	 rcx, QWORD PTR pPath$[rsp]
  0001f	0f be 04 01	 movsx	 eax, BYTE PTR [rcx+rax]
  00023	83 f8 3a	 cmp	 eax, 58			; 0000003aH
  00026	74 2e		 je	 SHORT $LN5@IsAbsolute
  00028	b8 01 00 00 00	 mov	 eax, 1
  0002d	48 6b c0 00	 imul	 rax, rax, 0
  00031	48 8b 4c 24 08	 mov	 rcx, QWORD PTR pPath$[rsp]
  00036	0f be 04 01	 movsx	 eax, BYTE PTR [rcx+rax]
  0003a	83 f8 5c	 cmp	 eax, 92			; 0000005cH
  0003d	74 17		 je	 SHORT $LN5@IsAbsolute
  0003f	b8 01 00 00 00	 mov	 eax, 1
  00044	48 6b c0 00	 imul	 rax, rax, 0
  00048	48 8b 4c 24 08	 mov	 rcx, QWORD PTR pPath$[rsp]
  0004d	0f be 04 01	 movsx	 eax, BYTE PTR [rcx+rax]
  00051	83 f8 2f	 cmp	 eax, 47			; 0000002fH
  00054	75 06		 jne	 SHORT $LN3@IsAbsolute
$LN5@IsAbsolute:

; 334  : 		return true;

  00056	b0 01		 mov	 al, 1
  00058	eb 04		 jmp	 SHORT $LN1@IsAbsolute

; 335  : 	else

  0005a	eb 02		 jmp	 SHORT $LN4@IsAbsolute
$LN3@IsAbsolute:

; 336  : 		return false;

  0005c	32 c0		 xor	 al, al
$LN4@IsAbsolute:
$LN1@IsAbsolute:

; 337  : }

  0005e	c3		 ret	 0
?IsAbsolutePath@CFileUtil@@SA_NPEBD@Z ENDP		; CFileUtil::IsAbsolutePath
_TEXT	ENDS
; Function compile flags: /Odtp
; File e:\infinia-library-3.0\com\src\comfileutil.cpp
;	COMDAT ?FileCopy@CFileUtil@@SA_NPEBD0@Z
_TEXT	SEGMENT
inFp$ = 32
nLen$ = 40
outFp$ = 48
szBuf$ = 64
__$ArrayPad$ = 8256
szSrc$ = 8288
szDest$ = 8296
?FileCopy@CFileUtil@@SA_NPEBD0@Z PROC			; CFileUtil::FileCopy, COMDAT

; 341  : {

$LN8:
  00000	48 89 54 24 10	 mov	 QWORD PTR [rsp+16], rdx
  00005	48 89 4c 24 08	 mov	 QWORD PTR [rsp+8], rcx
  0000a	b8 58 20 00 00	 mov	 eax, 8280		; 00002058H
  0000f	e8 00 00 00 00	 call	 __chkstk
  00014	48 2b e0	 sub	 rsp, rax
  00017	48 8b 05 00 00
	00 00		 mov	 rax, QWORD PTR __security_cookie
  0001e	48 33 c4	 xor	 rax, rsp
  00021	48 89 84 24 40
	20 00 00	 mov	 QWORD PTR __$ArrayPad$[rsp], rax

; 342  : 
; 343  : 	TCHAR	szBuf[8192];
; 344  : 	size_t	nLen;
; 345  : 	FILE *inFp=NULL, *outFp=NULL;

  00029	48 c7 44 24 20
	00 00 00 00	 mov	 QWORD PTR inFp$[rsp], 0
  00032	48 c7 44 24 30
	00 00 00 00	 mov	 QWORD PTR outFp$[rsp], 0

; 346  : 
; 347  : 	inFp = _tfopen(szSrc, _T("rb"));

  0003b	48 8d 15 00 00
	00 00		 lea	 rdx, OFFSET FLAT:$SG86543
  00042	48 8b 8c 24 60
	20 00 00	 mov	 rcx, QWORD PTR szSrc$[rsp]
  0004a	ff 15 00 00 00
	00		 call	 QWORD PTR __imp_fopen
  00050	48 89 44 24 20	 mov	 QWORD PTR inFp$[rsp], rax

; 348  : 	if(!inFp) {

  00055	48 83 7c 24 20
	00		 cmp	 QWORD PTR inFp$[rsp], 0
  0005b	75 07		 jne	 SHORT $LN4@FileCopy

; 349  : 		return false;

  0005d	32 c0		 xor	 al, al
  0005f	e9 bd 00 00 00	 jmp	 $LN1@FileCopy
$LN4@FileCopy:

; 350  : 	}
; 351  : 
; 352  : 	outFp = _tfopen(szDest, _T("wb+"));

  00064	48 8d 15 00 00
	00 00		 lea	 rdx, OFFSET FLAT:$SG86545
  0006b	48 8b 8c 24 68
	20 00 00	 mov	 rcx, QWORD PTR szDest$[rsp]
  00073	ff 15 00 00 00
	00		 call	 QWORD PTR __imp_fopen
  00079	48 89 44 24 30	 mov	 QWORD PTR outFp$[rsp], rax

; 353  : 	if(!outFp) {

  0007e	48 83 7c 24 30
	00		 cmp	 QWORD PTR outFp$[rsp], 0
  00084	75 12		 jne	 SHORT $LN5@FileCopy

; 354  : 		fclose(inFp);

  00086	48 8b 4c 24 20	 mov	 rcx, QWORD PTR inFp$[rsp]
  0008b	ff 15 00 00 00
	00		 call	 QWORD PTR __imp_fclose

; 355  : 		return false;

  00091	32 c0		 xor	 al, al
  00093	e9 89 00 00 00	 jmp	 $LN1@FileCopy
$LN5@FileCopy:

; 356  : 	}
; 357  : 
; 358  : 	nLen = fread(szBuf, g_nChSize, sizeof(szBuf), inFp);

  00098	4c 8b 4c 24 20	 mov	 r9, QWORD PTR inFp$[rsp]
  0009d	41 b8 00 20 00
	00		 mov	 r8d, 8192		; 00002000H
  000a3	ba 01 00 00 00	 mov	 edx, 1
  000a8	48 8d 4c 24 40	 lea	 rcx, QWORD PTR szBuf$[rsp]
  000ad	ff 15 00 00 00
	00		 call	 QWORD PTR __imp_fread
  000b3	48 89 44 24 28	 mov	 QWORD PTR nLen$[rsp], rax
$LN2@FileCopy:

; 359  : 	while (0 < nLen) 

  000b8	48 83 7c 24 28
	00		 cmp	 QWORD PTR nLen$[rsp], 0
  000be	76 49		 jbe	 SHORT $LN3@FileCopy

; 360  :     {
; 361  : 		fwrite(szBuf, g_nChSize, nLen, outFp);

  000c0	4c 8b 4c 24 30	 mov	 r9, QWORD PTR outFp$[rsp]
  000c5	4c 8b 44 24 28	 mov	 r8, QWORD PTR nLen$[rsp]
  000ca	ba 01 00 00 00	 mov	 edx, 1
  000cf	48 8d 4c 24 40	 lea	 rcx, QWORD PTR szBuf$[rsp]
  000d4	ff 15 00 00 00
	00		 call	 QWORD PTR __imp_fwrite

; 362  : 		if (nLen < sizeof(szBuf))

  000da	48 81 7c 24 28
	00 20 00 00	 cmp	 QWORD PTR nLen$[rsp], 8192 ; 00002000H
  000e3	73 02		 jae	 SHORT $LN6@FileCopy

; 363  : 			break;

  000e5	eb 22		 jmp	 SHORT $LN3@FileCopy
$LN6@FileCopy:

; 364  : 
; 365  :         nLen = fread(szBuf, g_nChSize, sizeof(szBuf), inFp);

  000e7	4c 8b 4c 24 20	 mov	 r9, QWORD PTR inFp$[rsp]
  000ec	41 b8 00 20 00
	00		 mov	 r8d, 8192		; 00002000H
  000f2	ba 01 00 00 00	 mov	 edx, 1
  000f7	48 8d 4c 24 40	 lea	 rcx, QWORD PTR szBuf$[rsp]
  000fc	ff 15 00 00 00
	00		 call	 QWORD PTR __imp_fread
  00102	48 89 44 24 28	 mov	 QWORD PTR nLen$[rsp], rax

; 366  : 	}

  00107	eb af		 jmp	 SHORT $LN2@FileCopy
$LN3@FileCopy:

; 367  : 
; 368  : 	fclose(inFp);

  00109	48 8b 4c 24 20	 mov	 rcx, QWORD PTR inFp$[rsp]
  0010e	ff 15 00 00 00
	00		 call	 QWORD PTR __imp_fclose

; 369  : 	fclose(outFp);

  00114	48 8b 4c 24 30	 mov	 rcx, QWORD PTR outFp$[rsp]
  00119	ff 15 00 00 00
	00		 call	 QWORD PTR __imp_fclose

; 370  : 	return true;

  0011f	b0 01		 mov	 al, 1
$LN1@FileCopy:

; 371  : }

  00121	48 8b 8c 24 40
	20 00 00	 mov	 rcx, QWORD PTR __$ArrayPad$[rsp]
  00129	48 33 cc	 xor	 rcx, rsp
  0012c	e8 00 00 00 00	 call	 __security_check_cookie
  00131	48 81 c4 58 20
	00 00		 add	 rsp, 8280		; 00002058H
  00138	c3		 ret	 0
?FileCopy@CFileUtil@@SA_NPEBD0@Z ENDP			; CFileUtil::FileCopy
_TEXT	ENDS
; Function compile flags: /Odtp
; File e:\infinia-library-3.0\com\src\comfileutil.cpp
;	COMDAT ?MakeDirectory@CFileUtil@@SA_NPEBD@Z
_TEXT	SEGMENT
len$ = 48
ptr$ = 56
dptr$ = 64
$T1 = 72
szTmp$ = 80
tmpBuf$ = 96
__$ArrayPad$ = 352
dirName$ = 400
?MakeDirectory@CFileUtil@@SA_NPEBD@Z PROC		; CFileUtil::MakeDirectory, COMDAT

; 298  : {

$LN19:
  00000	48 89 4c 24 08	 mov	 QWORD PTR [rsp+8], rcx
  00005	56		 push	 rsi
  00006	57		 push	 rdi
  00007	48 81 ec 78 01
	00 00		 sub	 rsp, 376		; 00000178H
  0000e	48 8b 05 00 00
	00 00		 mov	 rax, QWORD PTR __security_cookie
  00015	48 33 c4	 xor	 rax, rsp
  00018	48 89 84 24 60
	01 00 00	 mov	 QWORD PTR __$ArrayPad$[rsp], rax

; 299  : 	TCHAR	tmpBuf[MAX_PATH_LEN];
; 300  : 	TCHAR	*ptr, *dptr = (TCHAR *)dirName;

  00020	48 8b 84 24 90
	01 00 00	 mov	 rax, QWORD PTR dirName$[rsp]
  00028	48 89 44 24 40	 mov	 QWORD PTR dptr$[rsp], rax

; 301  : 	int	len;	
; 302  : 	CheckDirName((TCHAR*)dirName);

  0002d	48 8b 8c 24 90
	01 00 00	 mov	 rcx, QWORD PTR dirName$[rsp]
  00035	e8 00 00 00 00	 call	 ?CheckDirName@@YAXPEAD@Z ; CheckDirName

; 303  : #ifndef WIN32
; 304  : 	TCHAR szTmp[2][5] = {_T("./"), _T("../")};
; 305  : #else
; 306  : 	TCHAR szTmp[2][5] = {_T(".\\"), _T("..\\")};

  0003a	48 8d 44 24 50	 lea	 rax, QWORD PTR szTmp$[rsp]
  0003f	48 8d 0d 00 00
	00 00		 lea	 rcx, OFFSET FLAT:$SG86516
  00046	48 8b f8	 mov	 rdi, rax
  00049	48 8b f1	 mov	 rsi, rcx
  0004c	b9 03 00 00 00	 mov	 ecx, 3
  00051	f3 a4		 rep movsb
  00053	48 8d 44 24 53	 lea	 rax, QWORD PTR szTmp$[rsp+3]
  00058	48 8b f8	 mov	 rdi, rax
  0005b	33 c0		 xor	 eax, eax
  0005d	b9 02 00 00 00	 mov	 ecx, 2
  00062	f3 aa		 rep stosb
  00064	8b 05 00 00 00
	00		 mov	 eax, DWORD PTR $SG86517
  0006a	89 44 24 55	 mov	 DWORD PTR szTmp$[rsp+5], eax
  0006e	48 8d 44 24 59	 lea	 rax, QWORD PTR szTmp$[rsp+9]
  00073	48 8b f8	 mov	 rdi, rax
  00076	33 c0		 xor	 eax, eax
  00078	b9 01 00 00 00	 mov	 ecx, 1
  0007d	f3 aa		 rep stosb
$LN2@MakeDirect:

; 307  : #endif
; 308  : 	while (dptr && (ptr = _tcschr(dptr, g_s)))

  0007f	48 83 7c 24 40
	00		 cmp	 QWORD PTR dptr$[rsp], 0
  00085	0f 84 1b 01 00
	00		 je	 $LN3@MakeDirect
  0008b	ba 5c 00 00 00	 mov	 edx, 92			; 0000005cH
  00090	48 8b 4c 24 40	 mov	 rcx, QWORD PTR dptr$[rsp]
  00095	e8 00 00 00 00	 call	 ?_tcschr@@YAPEADPEADI@Z	; _tcschr
  0009a	48 89 44 24 38	 mov	 QWORD PTR ptr$[rsp], rax
  0009f	48 83 7c 24 38
	00		 cmp	 QWORD PTR ptr$[rsp], 0
  000a5	0f 84 fb 00 00
	00		 je	 $LN3@MakeDirect

; 309  : 	{
; 310  : 		len = (int)(ptr - dirName) + 1;

  000ab	48 8b 84 24 90
	01 00 00	 mov	 rax, QWORD PTR dirName$[rsp]
  000b3	48 8b 4c 24 38	 mov	 rcx, QWORD PTR ptr$[rsp]
  000b8	48 2b c8	 sub	 rcx, rax
  000bb	48 8b c1	 mov	 rax, rcx
  000be	ff c0		 inc	 eax
  000c0	89 44 24 30	 mov	 DWORD PTR len$[rsp], eax

; 311  : 		_tcsncpy(tmpBuf, dirName, len);

  000c4	48 63 44 24 30	 movsxd	 rax, DWORD PTR len$[rsp]
  000c9	4c 8b c0	 mov	 r8, rax
  000cc	48 8b 94 24 90
	01 00 00	 mov	 rdx, QWORD PTR dirName$[rsp]
  000d4	48 8d 4c 24 60	 lea	 rcx, QWORD PTR tmpBuf$[rsp]
  000d9	e8 00 00 00 00	 call	 _tcsncpy

; 312  : 		tmpBuf[len] = 0;

  000de	48 63 44 24 30	 movsxd	 rax, DWORD PTR len$[rsp]
  000e3	48 89 44 24 48	 mov	 QWORD PTR $T1[rsp], rax
  000e8	48 81 7c 24 48
	00 01 00 00	 cmp	 QWORD PTR $T1[rsp], 256	; 00000100H
  000f1	73 02		 jae	 SHORT $LN11@MakeDirect
  000f3	eb 05		 jmp	 SHORT $LN12@MakeDirect
$LN11@MakeDirect:
  000f5	e8 00 00 00 00	 call	 __report_rangecheckfailure
$LN12@MakeDirect:
  000fa	48 8b 44 24 48	 mov	 rax, QWORD PTR $T1[rsp]
  000ff	c6 44 04 60 00	 mov	 BYTE PTR tmpBuf$[rsp+rax], 0

; 313  : 
; 314  : 		if (strcmp(tmpBuf, szTmp[0]) && strcmp(tmpBuf, szTmp[1])) {

  00104	b8 05 00 00 00	 mov	 eax, 5
  00109	48 6b c0 00	 imul	 rax, rax, 0
  0010d	48 8d 44 04 50	 lea	 rax, QWORD PTR szTmp$[rsp+rax]
  00112	48 8d 4c 24 60	 lea	 rcx, QWORD PTR tmpBuf$[rsp]
  00117	48 2b c1	 sub	 rax, rcx
$LL16@MakeDirect:
  0011a	0f b6 11	 movzx	 edx, BYTE PTR [rcx]
  0011d	3a 14 01	 cmp	 dl, BYTE PTR [rcx+rax]
  00120	75 0b		 jne	 SHORT $LN18@MakeDirect
  00122	48 ff c1	 inc	 rcx
  00125	84 d2		 test	 dl, dl
  00127	75 f1		 jne	 SHORT $LL16@MakeDirect
  00129	33 c0		 xor	 eax, eax
  0012b	eb 05		 jmp	 SHORT $LN17@MakeDirect
$LN18@MakeDirect:
  0012d	1b c0		 sbb	 eax, eax
  0012f	83 c8 01	 or	 eax, 1
$LN17@MakeDirect:
  00132	85 c0		 test	 eax, eax
  00134	74 5a		 je	 SHORT $LN4@MakeDirect
  00136	b8 05 00 00 00	 mov	 eax, 5
  0013b	48 6b c0 01	 imul	 rax, rax, 1
  0013f	48 8d 44 04 50	 lea	 rax, QWORD PTR szTmp$[rsp+rax]
  00144	48 8d 4c 24 60	 lea	 rcx, QWORD PTR tmpBuf$[rsp]
  00149	48 2b c1	 sub	 rax, rcx
$LL13@MakeDirect:
  0014c	0f b6 11	 movzx	 edx, BYTE PTR [rcx]
  0014f	3a 14 01	 cmp	 dl, BYTE PTR [rcx+rax]
  00152	75 0b		 jne	 SHORT $LN15@MakeDirect
  00154	48 ff c1	 inc	 rcx
  00157	84 d2		 test	 dl, dl
  00159	75 f1		 jne	 SHORT $LL13@MakeDirect
  0015b	33 c0		 xor	 eax, eax
  0015d	eb 05		 jmp	 SHORT $LN14@MakeDirect
$LN15@MakeDirect:
  0015f	1b c0		 sbb	 eax, eax
  00161	83 c8 01	 or	 eax, 1
$LN14@MakeDirect:
  00164	85 c0		 test	 eax, eax
  00166	74 28		 je	 SHORT $LN4@MakeDirect

; 315  : 			if (com_isInvalid(tmpBuf)) {

  00168	48 8d 4c 24 60	 lea	 rcx, QWORD PTR tmpBuf$[rsp]
  0016d	e8 00 00 00 00	 call	 ?com_isInvalid@@YA_NPEBD@Z ; com_isInvalid
  00172	0f b6 c0	 movzx	 eax, al
  00175	85 c0		 test	 eax, eax
  00177	74 15		 je	 SHORT $LN6@MakeDirect

; 316  : 				if (!com_mkdir(tmpBuf)) goto MDIR_ERROR;

  00179	48 8d 4c 24 60	 lea	 rcx, QWORD PTR tmpBuf$[rsp]
  0017e	e8 00 00 00 00	 call	 ?com_mkdir@@YA_NPEBD@Z	; com_mkdir
  00183	0f b6 c0	 movzx	 eax, al
  00186	85 c0		 test	 eax, eax
  00188	75 04		 jne	 SHORT $LN7@MakeDirect
  0018a	eb 1e		 jmp	 SHORT $LN8@MakeDirect
  0018c	eb 1c		 jmp	 SHORT $MDIR_ERROR$20
$LN7@MakeDirect:
$LN6@MakeDirect:

; 317  : 			}
; 318  : 		}
; 319  : 		else goto MDIR_ERROR;

  0018e	eb 04		 jmp	 SHORT $LN5@MakeDirect
$LN4@MakeDirect:
  00190	eb 18		 jmp	 SHORT $LN9@MakeDirect
  00192	eb 16		 jmp	 SHORT $MDIR_ERROR$20
$LN5@MakeDirect:

; 320  : 		dptr = ptr + 1;

  00194	48 8b 44 24 38	 mov	 rax, QWORD PTR ptr$[rsp]
  00199	48 ff c0	 inc	 rax
  0019c	48 89 44 24 40	 mov	 QWORD PTR dptr$[rsp], rax

; 321  : 	}

  001a1	e9 d9 fe ff ff	 jmp	 $LN2@MakeDirect
$LN3@MakeDirect:

; 322  : 	return true;

  001a6	b0 01		 mov	 al, 1
  001a8	eb 36		 jmp	 SHORT $LN1@MakeDirect
$LN8@MakeDirect:
$LN9@MakeDirect:
$MDIR_ERROR$20:

; 323  : MDIR_ERROR:
; 324  : 	gs_cLogger.DebugLog(LEVEL_ERROR, "com_mkdir has Failed! [%s]", tmpBuf);

  001aa	48 8d 44 24 60	 lea	 rax, QWORD PTR tmpBuf$[rsp]
  001af	48 89 44 24 28	 mov	 QWORD PTR [rsp+40], rax
  001b4	48 8d 05 00 00
	00 00		 lea	 rax, OFFSET FLAT:$SG86524
  001bb	48 89 44 24 20	 mov	 QWORD PTR [rsp+32], rax
  001c0	41 b9 44 01 00
	00		 mov	 r9d, 324		; 00000144H
  001c6	4c 8d 05 00 00
	00 00		 lea	 r8, OFFSET FLAT:$SG86525
  001cd	ba 05 00 00 00	 mov	 edx, 5
  001d2	48 8d 0d 00 00
	00 00		 lea	 rcx, OFFSET FLAT:?gs_cLogger@@3VCLogger@@A ; gs_cLogger
  001d9	e8 00 00 00 00	 call	 ?__debugLog@CLogger@@QEAAXHPEBDH0ZZ ; CLogger::__debugLog

; 325  : 	return false;

  001de	32 c0		 xor	 al, al
$LN1@MakeDirect:
$LN10@MakeDirect:

; 326  : }

  001e0	48 8b 8c 24 60
	01 00 00	 mov	 rcx, QWORD PTR __$ArrayPad$[rsp]
  001e8	48 33 cc	 xor	 rcx, rsp
  001eb	e8 00 00 00 00	 call	 __security_check_cookie
  001f0	48 81 c4 78 01
	00 00		 add	 rsp, 376		; 00000178H
  001f7	5f		 pop	 rdi
  001f8	5e		 pop	 rsi
  001f9	c3		 ret	 0
?MakeDirectory@CFileUtil@@SA_NPEBD@Z ENDP		; CFileUtil::MakeDirectory
_TEXT	ENDS
; Function compile flags: /Odtp
; File e:\infinia-library-3.0\com\src\comfileutil.cpp
;	COMDAT ?delDirectory@CFileUtil@@SAHPEAUSTDelInfo@@PEAUSTFilterData@@@Z
_TEXT	SEGMENT
bDirectory$ = 64
tv74 = 65
nResult$ = 68
nCount$ = 72
tv72 = 80
$T1 = 88
$T2 = 92
$T3 = 96
$T4 = 100
tv71 = 104
pRes$ = 112
dir$ = 120
filterList$ = 128
$T5 = 136
$T6 = 144
tv203 = 152
$T7 = 160
tv73 = 168
fname$ = 176
stSubDir$ = 184
cFTime$ = 208
file$ = 224
szDir$ = 544
szSubDir$ = 672
filePath$ = 800
__$ArrayPad$ = 1056
pData$ = 1104
filter$ = 1112
?delDirectory@CFileUtil@@SAHPEAUSTDelInfo@@PEAUSTFilterData@@@Z PROC ; CFileUtil::delDirectory, COMDAT

; 149  : {

$LN34:
  00000	48 89 54 24 10	 mov	 QWORD PTR [rsp+16], rdx
  00005	48 89 4c 24 08	 mov	 QWORD PTR [rsp+8], rcx
  0000a	56		 push	 rsi
  0000b	57		 push	 rdi
  0000c	48 81 ec 38 04
	00 00		 sub	 rsp, 1080		; 00000438H
  00013	48 c7 84 24 a0
	00 00 00 fe ff
	ff ff		 mov	 QWORD PTR $T7[rsp], -2
  0001f	48 8b 05 00 00
	00 00		 mov	 rax, QWORD PTR __security_cookie
  00026	48 33 c4	 xor	 rax, rsp
  00029	48 89 84 24 20
	04 00 00	 mov	 QWORD PTR __$ArrayPad$[rsp], rax

; 150  : 	JPDIR dir;
; 151  : 	JFILEDATA  file;
; 152  : 	TCHAR	*fname = NULL, filePath[256], szDir[128], szSubDir[128];

  00031	48 c7 84 24 b0
	00 00 00 00 00
	00 00		 mov	 QWORD PTR fname$[rsp], 0

; 153  : 	int nCount = 0, nResult;

  0003d	c7 44 24 48 00
	00 00 00	 mov	 DWORD PTR nCount$[rsp], 0

; 154  : 	bool bDirectory = false;

  00045	c6 44 24 40 00	 mov	 BYTE PTR bDirectory$[rsp], 0

; 155  : 	CFileTime cFTime;

  0004a	48 8d 8c 24 d0
	00 00 00	 lea	 rcx, QWORD PTR cFTime$[rsp]
  00052	e8 00 00 00 00	 call	 ??0CFileTime@@QEAA@XZ	; CFileTime::CFileTime
  00057	90		 npad	 1

; 156  : 	STDelInfo stSubDir;
; 157  : 	void *pRes = NULL;

  00058	48 c7 44 24 70
	00 00 00 00	 mov	 QWORD PTR pRes$[rsp], 0

; 158  : 	CStringList *filterList = NULL;

  00061	48 c7 84 24 80
	00 00 00 00 00
	00 00		 mov	 QWORD PTR filterList$[rsp], 0

; 159  : 
; 160  : #ifndef WIN32
; 161  : 	struct  stat st;
; 162  : #endif
; 163  : 
; 164  : 	if (!pData->root) {

  0006d	48 8b 84 24 50
	04 00 00	 mov	 rax, QWORD PTR pData$[rsp]
  00075	48 83 38 00	 cmp	 QWORD PTR [rax], 0
  00079	75 1e		 jne	 SHORT $LN4@delDirecto

; 165  : 		// TODO LOG
; 166  : 		return 0;

  0007b	c7 44 24 58 00
	00 00 00	 mov	 DWORD PTR $T1[rsp], 0
  00083	48 8d 8c 24 d0
	00 00 00	 lea	 rcx, QWORD PTR cFTime$[rsp]
  0008b	e8 00 00 00 00	 call	 ??1CFileTime@@QEAA@XZ	; CFileTime::~CFileTime
  00090	8b 44 24 58	 mov	 eax, DWORD PTR $T1[rsp]
  00094	e9 9b 04 00 00	 jmp	 $LN1@delDirecto
$LN4@delDirecto:

; 167  : 	}
; 168  : 	_tcscpy(szDir, pData->root);

  00099	48 8b 84 24 50
	04 00 00	 mov	 rax, QWORD PTR pData$[rsp]
  000a1	48 8b 00	 mov	 rax, QWORD PTR [rax]
  000a4	48 89 44 24 68	 mov	 QWORD PTR tv71[rsp], rax
  000a9	48 8d 84 24 20
	02 00 00	 lea	 rax, QWORD PTR szDir$[rsp]
  000b1	48 89 44 24 50	 mov	 QWORD PTR tv72[rsp], rax
  000b6	48 8b 44 24 50	 mov	 rax, QWORD PTR tv72[rsp]
  000bb	48 89 84 24 a8
	00 00 00	 mov	 QWORD PTR tv73[rsp], rax
$LN29@delDirecto:
  000c3	48 8b 44 24 68	 mov	 rax, QWORD PTR tv71[rsp]
  000c8	0f b6 00	 movzx	 eax, BYTE PTR [rax]
  000cb	88 44 24 41	 mov	 BYTE PTR tv74[rsp], al
  000cf	48 8b 44 24 50	 mov	 rax, QWORD PTR tv72[rsp]
  000d4	0f b6 4c 24 41	 movzx	 ecx, BYTE PTR tv74[rsp]
  000d9	88 08		 mov	 BYTE PTR [rax], cl
  000db	48 8b 44 24 68	 mov	 rax, QWORD PTR tv71[rsp]
  000e0	48 ff c0	 inc	 rax
  000e3	48 89 44 24 68	 mov	 QWORD PTR tv71[rsp], rax
  000e8	48 8b 44 24 50	 mov	 rax, QWORD PTR tv72[rsp]
  000ed	48 ff c0	 inc	 rax
  000f0	48 89 44 24 50	 mov	 QWORD PTR tv72[rsp], rax
  000f5	80 7c 24 41 00	 cmp	 BYTE PTR tv74[rsp], 0
  000fa	75 c7		 jne	 SHORT $LN29@delDirecto

; 169  : 
; 170  : 	if (!IsExistDirectory(szDir)) return 0;

  000fc	48 8d 8c 24 20
	02 00 00	 lea	 rcx, QWORD PTR szDir$[rsp]
  00104	e8 00 00 00 00	 call	 ?IsExistDirectory@CFileUtil@@SA_NPEAD@Z ; CFileUtil::IsExistDirectory
  00109	0f b6 c0	 movzx	 eax, al
  0010c	85 c0		 test	 eax, eax
  0010e	75 1e		 jne	 SHORT $LN5@delDirecto
  00110	c7 44 24 5c 00
	00 00 00	 mov	 DWORD PTR $T2[rsp], 0
  00118	48 8d 8c 24 d0
	00 00 00	 lea	 rcx, QWORD PTR cFTime$[rsp]
  00120	e8 00 00 00 00	 call	 ??1CFileTime@@QEAA@XZ	; CFileTime::~CFileTime
  00125	8b 44 24 5c	 mov	 eax, DWORD PTR $T2[rsp]
  00129	e9 06 04 00 00	 jmp	 $LN1@delDirecto
$LN5@delDirecto:

; 171  : 
; 172  : 
; 173  : 	dir = com_findFirstFile(szDir, &file);

  0012e	48 8d 94 24 e0
	00 00 00	 lea	 rdx, QWORD PTR file$[rsp]
  00136	48 8d 8c 24 20
	02 00 00	 lea	 rcx, QWORD PTR szDir$[rsp]
  0013e	e8 00 00 00 00	 call	 ?com_findFirstFile@@YAPEAXPEBDPEAU_WIN32_FIND_DATAA@@@Z ; com_findFirstFile
  00143	48 89 44 24 78	 mov	 QWORD PTR dir$[rsp], rax

; 174  : 	if (0 >= dir) return 0;

  00148	48 83 7c 24 78
	00		 cmp	 QWORD PTR dir$[rsp], 0
  0014e	77 1e		 ja	 SHORT $LN2@delDirecto
  00150	c7 44 24 60 00
	00 00 00	 mov	 DWORD PTR $T3[rsp], 0
  00158	48 8d 8c 24 d0
	00 00 00	 lea	 rcx, QWORD PTR cFTime$[rsp]
  00160	e8 00 00 00 00	 call	 ??1CFileTime@@QEAA@XZ	; CFileTime::~CFileTime
  00165	8b 44 24 60	 mov	 eax, DWORD PTR $T3[rsp]
  00169	e9 c6 03 00 00	 jmp	 $LN1@delDirecto
$LN2@delDirecto:

; 175  : 	while (com_nextFile(dir, &file))

  0016e	48 8d 94 24 e0
	00 00 00	 lea	 rdx, QWORD PTR file$[rsp]
  00176	48 8b 4c 24 78	 mov	 rcx, QWORD PTR dir$[rsp]
  0017b	e8 00 00 00 00	 call	 ?com_nextFile@@YA_NPEAXPEAU_WIN32_FIND_DATAA@@@Z ; com_nextFile
  00180	0f b6 c0	 movzx	 eax, al
  00183	85 c0		 test	 eax, eax
  00185	0f 84 86 02 00
	00		 je	 $LN3@delDirecto

; 176  : 	{
; 177  : 		com_getFileName(&fname, &file);

  0018b	48 8d 94 24 e0
	00 00 00	 lea	 rdx, QWORD PTR file$[rsp]
  00193	48 8d 8c 24 b0
	00 00 00	 lea	 rcx, QWORD PTR fname$[rsp]
  0019b	e8 00 00 00 00	 call	 ?com_getFileName@@YAXPEAPEADPEAU_WIN32_FIND_DATAA@@@Z ; com_getFileName

; 178  : 		if (_tcscmp(fname, _T(".")) == 0
; 179  : 			|| _tcscmp(fname, _T("..")) == 0)

  001a0	48 8d 15 00 00
	00 00		 lea	 rdx, OFFSET FLAT:$SG86371
  001a7	48 8b 8c 24 b0
	00 00 00	 mov	 rcx, QWORD PTR fname$[rsp]
  001af	e8 00 00 00 00	 call	 _tcscmp
  001b4	85 c0		 test	 eax, eax
  001b6	74 18		 je	 SHORT $LN8@delDirecto
  001b8	48 8d 15 00 00
	00 00		 lea	 rdx, OFFSET FLAT:$SG86372
  001bf	48 8b 8c 24 b0
	00 00 00	 mov	 rcx, QWORD PTR fname$[rsp]
  001c7	e8 00 00 00 00	 call	 _tcscmp
  001cc	85 c0		 test	 eax, eax
  001ce	75 02		 jne	 SHORT $LN7@delDirecto
$LN8@delDirecto:

; 180  : 			continue;

  001d0	eb 9c		 jmp	 SHORT $LN2@delDirecto
$LN7@delDirecto:

; 181  : 
; 182  : 		_stprintf(filePath, _T("%s%s"), pData->root, fname);

  001d2	4c 8b 8c 24 b0
	00 00 00	 mov	 r9, QWORD PTR fname$[rsp]
  001da	48 8b 84 24 50
	04 00 00	 mov	 rax, QWORD PTR pData$[rsp]
  001e2	4c 8b 00	 mov	 r8, QWORD PTR [rax]
  001e5	48 8d 15 00 00
	00 00		 lea	 rdx, OFFSET FLAT:$SG86373
  001ec	48 8d 8c 24 20
	03 00 00	 lea	 rcx, QWORD PTR filePath$[rsp]
  001f4	e8 00 00 00 00	 call	 sprintf

; 183  : #ifndef WIN32 // -- only unix
; 184  : 		stat(filePath, &st);
; 185  : 		if (com_ISDIR(&st)) bDirectory = true;
; 186  : 		if (filter) {
; 187  : 			if (filter->pFunc == filter_dateTimeCompare) { cFTime.setFileTime(st.st_mtime); pRes = &cFTime; }
; 188  : 			else if (filter->pFunc == filter_stringCompare) { pRes = filterList; }
; 189  : 		}
; 190  : #else
; 191  : 		cFTime.setFileTime(&file.ftLastWriteTime);

  001f9	48 8d 94 24 f4
	00 00 00	 lea	 rdx, QWORD PTR file$[rsp+20]
  00201	48 8d 8c 24 d0
	00 00 00	 lea	 rcx, QWORD PTR cFTime$[rsp]
  00209	e8 00 00 00 00	 call	 ?setFileTime@CFileTime@@QEAAHPEAU_FILETIME@@@Z ; CFileTime::setFileTime

; 192  : 		// windows
; 193  : 		if (com_ISDIR(&file)) bDirectory = true;

  0020e	48 8d 8c 24 e0
	00 00 00	 lea	 rcx, QWORD PTR file$[rsp]
  00216	e8 00 00 00 00	 call	 ?jISDIR@@YA_NPEAU_WIN32_FIND_DATAA@@@Z ; jISDIR
  0021b	0f b6 c0	 movzx	 eax, al
  0021e	85 c0		 test	 eax, eax
  00220	74 05		 je	 SHORT $LN9@delDirecto
  00222	c6 44 24 40 01	 mov	 BYTE PTR bDirectory$[rsp], 1
$LN9@delDirecto:

; 194  : 		if (filter) {

  00227	48 83 bc 24 58
	04 00 00 00	 cmp	 QWORD PTR filter$[rsp], 0
  00230	74 44		 je	 SHORT $LN10@delDirecto

; 195  : 			if (filter->pFunc == filter_dateTimeCompare) { 

  00232	48 8b 84 24 58
	04 00 00	 mov	 rax, QWORD PTR filter$[rsp]
  0023a	48 8d 0d 00 00
	00 00		 lea	 rcx, OFFSET FLAT:?filter_dateTimeCompare@@YA_NPEADPEAX1@Z ; filter_dateTimeCompare
  00241	48 39 08	 cmp	 QWORD PTR [rax], rcx
  00244	75 0f		 jne	 SHORT $LN11@delDirecto

; 196  : 				//cFTime.setFileTime(filePath); 
; 197  : 				pRes = &cFTime; 

  00246	48 8d 84 24 d0
	00 00 00	 lea	 rax, QWORD PTR cFTime$[rsp]
  0024e	48 89 44 24 70	 mov	 QWORD PTR pRes$[rsp], rax
  00253	eb 21		 jmp	 SHORT $LN10@delDirecto
$LN11@delDirecto:

; 198  : 			}
; 199  : 			else if (filter->pFunc == filter_stringCompare) { pRes = filterList; }

  00255	48 8b 84 24 58
	04 00 00	 mov	 rax, QWORD PTR filter$[rsp]
  0025d	48 8d 0d 00 00
	00 00		 lea	 rcx, OFFSET FLAT:?filter_stringCompare@@YA_NPEADPEAX1@Z ; filter_stringCompare
  00264	48 39 08	 cmp	 QWORD PTR [rax], rcx
  00267	75 0d		 jne	 SHORT $LN10@delDirecto
  00269	48 8b 84 24 80
	00 00 00	 mov	 rax, QWORD PTR filterList$[rsp]
  00271	48 89 44 24 70	 mov	 QWORD PTR pRes$[rsp], rax
$LN10@delDirecto:

; 200  : 		}
; 201  : #endif
; 202  : 
; 203  : 		if (bDirectory) {

  00276	0f b6 44 24 40	 movzx	 eax, BYTE PTR bDirectory$[rsp]
  0027b	85 c0		 test	 eax, eax
  0027d	0f 84 8a 00 00
	00		 je	 $LN14@delDirecto

; 204  : 			if (pData->nFlag & DIR_RECURSIVE) {

  00283	48 8b 84 24 50
	04 00 00	 mov	 rax, QWORD PTR pData$[rsp]
  0028b	8b 40 08	 mov	 eax, DWORD PTR [rax+8]
  0028e	83 e0 01	 and	 eax, 1
  00291	85 c0		 test	 eax, eax
  00293	74 73		 je	 SHORT $LN16@delDirecto

; 205  : 				_stprintf(szSubDir, _T("%s%s%c"), pData->root, fname, g_s);

  00295	c7 44 24 20 5c
	00 00 00	 mov	 DWORD PTR [rsp+32], 92	; 0000005cH
  0029d	4c 8b 8c 24 b0
	00 00 00	 mov	 r9, QWORD PTR fname$[rsp]
  002a5	48 8b 84 24 50
	04 00 00	 mov	 rax, QWORD PTR pData$[rsp]
  002ad	4c 8b 00	 mov	 r8, QWORD PTR [rax]
  002b0	48 8d 15 00 00
	00 00		 lea	 rdx, OFFSET FLAT:$SG86382
  002b7	48 8d 8c 24 a0
	02 00 00	 lea	 rcx, QWORD PTR szSubDir$[rsp]
  002bf	e8 00 00 00 00	 call	 sprintf

; 206  : 				memcpy(&stSubDir, pData, sizeof(STDelInfo));

  002c4	48 8d 84 24 b8
	00 00 00	 lea	 rax, QWORD PTR stSubDir$[rsp]
  002cc	48 8b f8	 mov	 rdi, rax
  002cf	48 8b b4 24 50
	04 00 00	 mov	 rsi, QWORD PTR pData$[rsp]
  002d7	b9 18 00 00 00	 mov	 ecx, 24
  002dc	f3 a4		 rep movsb

; 207  : 				stSubDir.root = szSubDir;

  002de	48 8d 84 24 a0
	02 00 00	 lea	 rax, QWORD PTR szSubDir$[rsp]
  002e6	48 89 84 24 b8
	00 00 00	 mov	 QWORD PTR stSubDir$[rsp], rax

; 208  : 				delDirectory(&stSubDir, filter);

  002ee	48 8b 94 24 58
	04 00 00	 mov	 rdx, QWORD PTR filter$[rsp]
  002f6	48 8d 8c 24 b8
	00 00 00	 lea	 rcx, QWORD PTR stSubDir$[rsp]
  002fe	e8 00 00 00 00	 call	 ?delDirectory@CFileUtil@@SAHPEAUSTDelInfo@@PEAUSTFilterData@@@Z ; CFileUtil::delDirectory

; 209  : 				bDirectory = false;

  00303	c6 44 24 40 00	 mov	 BYTE PTR bDirectory$[rsp], 0
$LN16@delDirecto:

; 210  : 			}
; 211  : 		}
; 212  : 		else {

  00308	e9 ff 00 00 00	 jmp	 $LN15@delDirecto
$LN14@delDirecto:

; 213  : 			if (filter) {

  0030d	48 83 bc 24 58
	04 00 00 00	 cmp	 QWORD PTR filter$[rsp], 0
  00316	74 3e		 je	 SHORT $LN17@delDirecto

; 214  : 				if (filter->pFunc(fname, filter->pData, pRes)) nResult = 1;

  00318	4c 8b 44 24 70	 mov	 r8, QWORD PTR pRes$[rsp]
  0031d	48 8b 84 24 58
	04 00 00	 mov	 rax, QWORD PTR filter$[rsp]
  00325	48 8b 50 08	 mov	 rdx, QWORD PTR [rax+8]
  00329	48 8b 8c 24 b0
	00 00 00	 mov	 rcx, QWORD PTR fname$[rsp]
  00331	48 8b 84 24 58
	04 00 00	 mov	 rax, QWORD PTR filter$[rsp]
  00339	ff 10		 call	 QWORD PTR [rax]
  0033b	0f b6 c0	 movzx	 eax, al
  0033e	85 c0		 test	 eax, eax
  00340	74 0a		 je	 SHORT $LN19@delDirecto
  00342	c7 44 24 44 01
	00 00 00	 mov	 DWORD PTR nResult$[rsp], 1
  0034a	eb 08		 jmp	 SHORT $LN20@delDirecto
$LN19@delDirecto:

; 215  : 				else nResult = 0;

  0034c	c7 44 24 44 00
	00 00 00	 mov	 DWORD PTR nResult$[rsp], 0
$LN20@delDirecto:
  00354	eb 08		 jmp	 SHORT $LN18@delDirecto
$LN17@delDirecto:

; 216  : 			}
; 217  : 			else nResult = 1;

  00356	c7 44 24 44 01
	00 00 00	 mov	 DWORD PTR nResult$[rsp], 1
$LN18@delDirecto:

; 218  : 
; 219  : 
; 220  : 			if (nResult) {

  0035e	83 7c 24 44 00	 cmp	 DWORD PTR nResult$[rsp], 0
  00363	0f 84 a3 00 00
	00		 je	 $LN15@delDirecto

; 221  : 				nResult = _tremove(filePath);

  00369	48 8d 8c 24 20
	03 00 00	 lea	 rcx, QWORD PTR filePath$[rsp]
  00371	ff 15 00 00 00
	00		 call	 QWORD PTR __imp_remove
  00377	89 44 24 44	 mov	 DWORD PTR nResult$[rsp], eax

; 222  : 				if (nResult < 0) {

  0037b	83 7c 24 44 00	 cmp	 DWORD PTR nResult$[rsp], 0
  00380	7d 41		 jge	 SHORT $LN22@delDirecto

; 223  : 					// TODO ERROR LOG
; 224  : 					gs_cLogger.DebugLog(LEVEL_WARN, _T("FAILED _tremove[%s] nResult[%d]"), filePath, nResult);

  00382	8b 44 24 44	 mov	 eax, DWORD PTR nResult$[rsp]
  00386	89 44 24 30	 mov	 DWORD PTR [rsp+48], eax
  0038a	48 8d 84 24 20
	03 00 00	 lea	 rax, QWORD PTR filePath$[rsp]
  00392	48 89 44 24 28	 mov	 QWORD PTR [rsp+40], rax
  00397	48 8d 05 00 00
	00 00		 lea	 rax, OFFSET FLAT:$SG86390
  0039e	48 89 44 24 20	 mov	 QWORD PTR [rsp+32], rax
  003a3	41 b9 e0 00 00
	00		 mov	 r9d, 224		; 000000e0H
  003a9	4c 8d 05 00 00
	00 00		 lea	 r8, OFFSET FLAT:$SG86391
  003b0	ba 04 00 00 00	 mov	 edx, 4
  003b5	48 8d 0d 00 00
	00 00		 lea	 rcx, OFFSET FLAT:?gs_cLogger@@3VCLogger@@A ; gs_cLogger
  003bc	e8 00 00 00 00	 call	 ?__debugLog@CLogger@@QEAAXHPEBDH0ZZ ; CLogger::__debugLog

; 225  : 				}
; 226  : 				else {

  003c1	eb 3f		 jmp	 SHORT $LN23@delDirecto
$LN22@delDirecto:

; 227  : 					gs_cLogger.DebugLog(LEVEL_INFO, _T("SUCCESS _tremove[%s] nResult[%d]"), filePath, nResult);

  003c3	8b 44 24 44	 mov	 eax, DWORD PTR nResult$[rsp]
  003c7	89 44 24 30	 mov	 DWORD PTR [rsp+48], eax
  003cb	48 8d 84 24 20
	03 00 00	 lea	 rax, QWORD PTR filePath$[rsp]
  003d3	48 89 44 24 28	 mov	 QWORD PTR [rsp+40], rax
  003d8	48 8d 05 00 00
	00 00		 lea	 rax, OFFSET FLAT:$SG86392
  003df	48 89 44 24 20	 mov	 QWORD PTR [rsp+32], rax
  003e4	41 b9 e3 00 00
	00		 mov	 r9d, 227		; 000000e3H
  003ea	4c 8d 05 00 00
	00 00		 lea	 r8, OFFSET FLAT:$SG86393
  003f1	ba 03 00 00 00	 mov	 edx, 3
  003f6	48 8d 0d 00 00
	00 00		 lea	 rcx, OFFSET FLAT:?gs_cLogger@@3VCLogger@@A ; gs_cLogger
  003fd	e8 00 00 00 00	 call	 ?__debugLog@CLogger@@QEAAXHPEBDH0ZZ ; CLogger::__debugLog
$LN23@delDirecto:

; 228  : 				}
; 229  : 				// TODO TRACE LOG
; 230  : 				nCount++;

  00402	8b 44 24 48	 mov	 eax, DWORD PTR nCount$[rsp]
  00406	ff c0		 inc	 eax
  00408	89 44 24 48	 mov	 DWORD PTR nCount$[rsp], eax
$LN15@delDirecto:

; 231  : 			}
; 232  : 		}
; 233  : 	}

  0040c	e9 5d fd ff ff	 jmp	 $LN2@delDirecto
$LN3@delDirecto:

; 234  : 	com_dirclose(dir);

  00411	48 8b 4c 24 78	 mov	 rcx, QWORD PTR dir$[rsp]
  00416	ff 15 00 00 00
	00		 call	 QWORD PTR __imp_FindClose

; 235  : 	if (filterList) delete filterList;

  0041c	48 83 bc 24 80
	00 00 00 00	 cmp	 QWORD PTR filterList$[rsp], 0
  00425	74 53		 je	 SHORT $LN24@delDirecto
  00427	48 8b 84 24 80
	00 00 00	 mov	 rax, QWORD PTR filterList$[rsp]
  0042f	48 89 84 24 90
	00 00 00	 mov	 QWORD PTR $T6[rsp], rax
  00437	48 8b 84 24 90
	00 00 00	 mov	 rax, QWORD PTR $T6[rsp]
  0043f	48 89 84 24 88
	00 00 00	 mov	 QWORD PTR $T5[rsp], rax
  00447	48 83 bc 24 88
	00 00 00 00	 cmp	 QWORD PTR $T5[rsp], 0
  00450	74 1c		 je	 SHORT $LN30@delDirecto
  00452	ba 01 00 00 00	 mov	 edx, 1
  00457	48 8b 8c 24 88
	00 00 00	 mov	 rcx, QWORD PTR $T5[rsp]
  0045f	e8 00 00 00 00	 call	 ??_GCStringList@@QEAAPEAXI@Z
  00464	48 89 84 24 98
	00 00 00	 mov	 QWORD PTR tv203[rsp], rax
  0046c	eb 0c		 jmp	 SHORT $LN24@delDirecto
$LN30@delDirecto:
  0046e	48 c7 84 24 98
	00 00 00 00 00
	00 00		 mov	 QWORD PTR tv203[rsp], 0
$LN24@delDirecto:

; 236  : 	if (pData->nFlag & DEL_DIRECTORY) {

  0047a	48 8b 84 24 50
	04 00 00	 mov	 rax, QWORD PTR pData$[rsp]
  00482	8b 40 08	 mov	 eax, DWORD PTR [rax+8]
  00485	83 e0 02	 and	 eax, 2
  00488	85 c0		 test	 eax, eax
  0048a	0f 84 8b 00 00
	00		 je	 $LN25@delDirecto

; 237  : 		if (com_rmdir(pData->root)) {

  00490	48 8b 84 24 50
	04 00 00	 mov	 rax, QWORD PTR pData$[rsp]
  00498	48 8b 08	 mov	 rcx, QWORD PTR [rax]
  0049b	ff 15 00 00 00
	00		 call	 QWORD PTR __imp_RemoveDirectoryA
  004a1	85 c0		 test	 eax, eax
  004a3	74 3c		 je	 SHORT $LN26@delDirecto

; 238  : 			gs_cLogger.DebugLog(LEVEL_INFO, _T("SUCCESS rmdir[%s]"), pData->root);

  004a5	48 8b 84 24 50
	04 00 00	 mov	 rax, QWORD PTR pData$[rsp]
  004ad	48 8b 00	 mov	 rax, QWORD PTR [rax]
  004b0	48 89 44 24 28	 mov	 QWORD PTR [rsp+40], rax
  004b5	48 8d 05 00 00
	00 00		 lea	 rax, OFFSET FLAT:$SG86398
  004bc	48 89 44 24 20	 mov	 QWORD PTR [rsp+32], rax
  004c1	41 b9 ee 00 00
	00		 mov	 r9d, 238		; 000000eeH
  004c7	4c 8d 05 00 00
	00 00		 lea	 r8, OFFSET FLAT:$SG86399
  004ce	ba 03 00 00 00	 mov	 edx, 3
  004d3	48 8d 0d 00 00
	00 00		 lea	 rcx, OFFSET FLAT:?gs_cLogger@@3VCLogger@@A ; gs_cLogger
  004da	e8 00 00 00 00	 call	 ?__debugLog@CLogger@@QEAAXHPEBDH0ZZ ; CLogger::__debugLog

; 239  : 		}
; 240  : 		else {

  004df	eb 3a		 jmp	 SHORT $LN25@delDirecto
$LN26@delDirecto:

; 241  : 			gs_cLogger.DebugLog(LEVEL_WARN, _T("FAILED rmdir[%s]"), pData->root);

  004e1	48 8b 84 24 50
	04 00 00	 mov	 rax, QWORD PTR pData$[rsp]
  004e9	48 8b 00	 mov	 rax, QWORD PTR [rax]
  004ec	48 89 44 24 28	 mov	 QWORD PTR [rsp+40], rax
  004f1	48 8d 05 00 00
	00 00		 lea	 rax, OFFSET FLAT:$SG86400
  004f8	48 89 44 24 20	 mov	 QWORD PTR [rsp+32], rax
  004fd	41 b9 f1 00 00
	00		 mov	 r9d, 241		; 000000f1H
  00503	4c 8d 05 00 00
	00 00		 lea	 r8, OFFSET FLAT:$SG86401
  0050a	ba 04 00 00 00	 mov	 edx, 4
  0050f	48 8d 0d 00 00
	00 00		 lea	 rcx, OFFSET FLAT:?gs_cLogger@@3VCLogger@@A ; gs_cLogger
  00516	e8 00 00 00 00	 call	 ?__debugLog@CLogger@@QEAAXHPEBDH0ZZ ; CLogger::__debugLog
$LN25@delDirecto:

; 242  : 		}
; 243  : 	}
; 244  : 	return nCount;

  0051b	8b 44 24 48	 mov	 eax, DWORD PTR nCount$[rsp]
  0051f	89 44 24 64	 mov	 DWORD PTR $T4[rsp], eax
  00523	48 8d 8c 24 d0
	00 00 00	 lea	 rcx, QWORD PTR cFTime$[rsp]
  0052b	e8 00 00 00 00	 call	 ??1CFileTime@@QEAA@XZ	; CFileTime::~CFileTime
  00530	8b 44 24 64	 mov	 eax, DWORD PTR $T4[rsp]
$LN1@delDirecto:

; 245  : }

  00534	48 8b 8c 24 20
	04 00 00	 mov	 rcx, QWORD PTR __$ArrayPad$[rsp]
  0053c	48 33 cc	 xor	 rcx, rsp
  0053f	e8 00 00 00 00	 call	 __security_check_cookie
  00544	48 81 c4 38 04
	00 00		 add	 rsp, 1080		; 00000438H
  0054b	5f		 pop	 rdi
  0054c	5e		 pop	 rsi
  0054d	c3		 ret	 0
?delDirectory@CFileUtil@@SAHPEAUSTDelInfo@@PEAUSTFilterData@@@Z ENDP ; CFileUtil::delDirectory
_TEXT	ENDS
;	COMDAT text$x
text$x	SEGMENT
bDirectory$ = 64
tv74 = 65
nResult$ = 68
nCount$ = 72
tv72 = 80
$T1 = 88
$T2 = 92
$T3 = 96
$T4 = 100
tv71 = 104
pRes$ = 112
dir$ = 120
filterList$ = 128
$T5 = 136
$T6 = 144
tv203 = 152
$T7 = 160
tv73 = 168
fname$ = 176
stSubDir$ = 184
cFTime$ = 208
file$ = 224
szDir$ = 544
szSubDir$ = 672
filePath$ = 800
__$ArrayPad$ = 1056
pData$ = 1104
filter$ = 1112
?dtor$0@?0??delDirectory@CFileUtil@@SAHPEAUSTDelInfo@@PEAUSTFilterData@@@Z@4HA PROC ; `CFileUtil::delDirectory'::`1'::dtor$0
  00000	40 55		 push	 rbp
  00002	48 83 ec 20	 sub	 rsp, 32			; 00000020H
  00006	48 8b ea	 mov	 rbp, rdx
  00009	48 8d 8d d0 00
	00 00		 lea	 rcx, QWORD PTR cFTime$[rbp]
  00010	e8 00 00 00 00	 call	 ??1CFileTime@@QEAA@XZ	; CFileTime::~CFileTime
  00015	48 83 c4 20	 add	 rsp, 32			; 00000020H
  00019	5d		 pop	 rbp
  0001a	c3		 ret	 0
?dtor$0@?0??delDirectory@CFileUtil@@SAHPEAUSTDelInfo@@PEAUSTFilterData@@@Z@4HA ENDP ; `CFileUtil::delDirectory'::`1'::dtor$0
text$x	ENDS
; Function compile flags: /Odtp
;	COMDAT text$x
text$x	SEGMENT
bDirectory$ = 64
tv74 = 65
nResult$ = 68
nCount$ = 72
tv72 = 80
$T1 = 88
$T2 = 92
$T3 = 96
$T4 = 100
tv71 = 104
pRes$ = 112
dir$ = 120
filterList$ = 128
$T5 = 136
$T6 = 144
tv203 = 152
$T7 = 160
tv73 = 168
fname$ = 176
stSubDir$ = 184
cFTime$ = 208
file$ = 224
szDir$ = 544
szSubDir$ = 672
filePath$ = 800
__$ArrayPad$ = 1056
pData$ = 1104
filter$ = 1112
?dtor$0@?0??delDirectory@CFileUtil@@SAHPEAUSTDelInfo@@PEAUSTFilterData@@@Z@4HA PROC ; `CFileUtil::delDirectory'::`1'::dtor$0
  00000	40 55		 push	 rbp
  00002	48 83 ec 20	 sub	 rsp, 32			; 00000020H
  00006	48 8b ea	 mov	 rbp, rdx
  00009	48 8d 8d d0 00
	00 00		 lea	 rcx, QWORD PTR cFTime$[rbp]
  00010	e8 00 00 00 00	 call	 ??1CFileTime@@QEAA@XZ	; CFileTime::~CFileTime
  00015	48 83 c4 20	 add	 rsp, 32			; 00000020H
  00019	5d		 pop	 rbp
  0001a	c3		 ret	 0
?dtor$0@?0??delDirectory@CFileUtil@@SAHPEAUSTDelInfo@@PEAUSTFilterData@@@Z@4HA ENDP ; `CFileUtil::delDirectory'::`1'::dtor$0
text$x	ENDS
; Function compile flags: /Odtp
; File e:\infinia-library-3.0\com\src\comfileutil.cpp
;	COMDAT ?GetFileList@CFileUtil@@SA_NPEAUSTFileList@@PEAUSTFilterData@@@Z
_TEXT	SEGMENT
tv70 = 32
tv68 = 40
tv67 = 48
dir$ = 56
fList$ = 64
filterList$ = 72
$T1 = 80
nCount$ = 88
$T2 = 96
tv158 = 104
tv69 = 112
fname$ = 120
file$ = 128
dirName$ = 448
__$ArrayPad$ = 576
pResult$ = 608
pFilter$ = 616
?GetFileList@CFileUtil@@SA_NPEAUSTFileList@@PEAUSTFilterData@@@Z PROC ; CFileUtil::GetFileList, COMDAT

; 96   : {

$LN19:
  00000	48 89 54 24 10	 mov	 QWORD PTR [rsp+16], rdx
  00005	48 89 4c 24 08	 mov	 QWORD PTR [rsp+8], rcx
  0000a	48 81 ec 58 02
	00 00		 sub	 rsp, 600		; 00000258H
  00011	48 8b 05 00 00
	00 00		 mov	 rax, QWORD PTR __security_cookie
  00018	48 33 c4	 xor	 rax, rsp
  0001b	48 89 84 24 40
	02 00 00	 mov	 QWORD PTR __$ArrayPad$[rsp], rax

; 97   : 	JPDIR dir;
; 98   : 	JFILEDATA  file;
; 99   : 
; 100  : 	CStringList *filterList = NULL;

  00023	48 c7 44 24 48
	00 00 00 00	 mov	 QWORD PTR filterList$[rsp], 0

; 101  : 	TCHAR	*fname= NULL;

  0002c	48 c7 44 24 78
	00 00 00 00	 mov	 QWORD PTR fname$[rsp], 0

; 102  : 	CTList<fileInfo> *fList = NULL;

  00035	48 c7 44 24 40
	00 00 00 00	 mov	 QWORD PTR fList$[rsp], 0

; 103  : 	int nCount = 0;

  0003e	c7 44 24 58 00
	00 00 00	 mov	 DWORD PTR nCount$[rsp], 0

; 104  : 	TCHAR dirName[128];
; 105  : 
; 106  : 	if (!pResult) return false;

  00046	48 83 bc 24 60
	02 00 00 00	 cmp	 QWORD PTR pResult$[rsp], 0
  0004f	75 07		 jne	 SHORT $LN5@GetFileLis
  00051	32 c0		 xor	 al, al
  00053	e9 dd 01 00 00	 jmp	 $LN1@GetFileLis
$LN5@GetFileLis:

; 107  : 	_tcscpy(dirName, pResult->root);

  00058	48 8b 84 24 60
	02 00 00	 mov	 rax, QWORD PTR pResult$[rsp]
  00060	48 8b 00	 mov	 rax, QWORD PTR [rax]
  00063	48 89 44 24 30	 mov	 QWORD PTR tv67[rsp], rax
  00068	48 8d 84 24 c0
	01 00 00	 lea	 rax, QWORD PTR dirName$[rsp]
  00070	48 89 44 24 28	 mov	 QWORD PTR tv68[rsp], rax
  00075	48 8b 44 24 28	 mov	 rax, QWORD PTR tv68[rsp]
  0007a	48 89 44 24 70	 mov	 QWORD PTR tv69[rsp], rax
$LN16@GetFileLis:
  0007f	48 8b 44 24 30	 mov	 rax, QWORD PTR tv67[rsp]
  00084	0f b6 00	 movzx	 eax, BYTE PTR [rax]
  00087	88 44 24 20	 mov	 BYTE PTR tv70[rsp], al
  0008b	48 8b 44 24 28	 mov	 rax, QWORD PTR tv68[rsp]
  00090	0f b6 4c 24 20	 movzx	 ecx, BYTE PTR tv70[rsp]
  00095	88 08		 mov	 BYTE PTR [rax], cl
  00097	48 8b 44 24 30	 mov	 rax, QWORD PTR tv67[rsp]
  0009c	48 ff c0	 inc	 rax
  0009f	48 89 44 24 30	 mov	 QWORD PTR tv67[rsp], rax
  000a4	48 8b 44 24 28	 mov	 rax, QWORD PTR tv68[rsp]
  000a9	48 ff c0	 inc	 rax
  000ac	48 89 44 24 28	 mov	 QWORD PTR tv68[rsp], rax
  000b1	80 7c 24 20 00	 cmp	 BYTE PTR tv70[rsp], 0
  000b6	75 c7		 jne	 SHORT $LN16@GetFileLis

; 108  : 
; 109  : #ifndef WIN32
; 110  : 	struct  stat st;
; 111  : #endif
; 112  : 
; 113  : 	if (!IsExistDirectory(dirName)) return false;

  000b8	48 8d 8c 24 c0
	01 00 00	 lea	 rcx, QWORD PTR dirName$[rsp]
  000c0	e8 00 00 00 00	 call	 ?IsExistDirectory@CFileUtil@@SA_NPEAD@Z ; CFileUtil::IsExistDirectory
  000c5	0f b6 c0	 movzx	 eax, al
  000c8	85 c0		 test	 eax, eax
  000ca	75 07		 jne	 SHORT $LN6@GetFileLis
  000cc	32 c0		 xor	 al, al
  000ce	e9 62 01 00 00	 jmp	 $LN1@GetFileLis
$LN6@GetFileLis:

; 114  : 
; 115  : 	dir = com_findFirstFile(dirName, &file);

  000d3	48 8d 94 24 80
	00 00 00	 lea	 rdx, QWORD PTR file$[rsp]
  000db	48 8d 8c 24 c0
	01 00 00	 lea	 rcx, QWORD PTR dirName$[rsp]
  000e3	e8 00 00 00 00	 call	 ?com_findFirstFile@@YAPEAXPEBDPEAU_WIN32_FIND_DATAA@@@Z ; com_findFirstFile
  000e8	48 89 44 24 38	 mov	 QWORD PTR dir$[rsp], rax

; 116  : 	if (0 >= dir) return false;

  000ed	48 83 7c 24 38
	00		 cmp	 QWORD PTR dir$[rsp], 0
  000f3	77 07		 ja	 SHORT $LN7@GetFileLis
  000f5	32 c0		 xor	 al, al
  000f7	e9 39 01 00 00	 jmp	 $LN1@GetFileLis
$LN7@GetFileLis:
$LN4@GetFileLis:

; 117  : 
; 118  : 	do  {
; 119  : 		com_getFileName(&fname, &file);

  000fc	48 8d 94 24 80
	00 00 00	 lea	 rdx, QWORD PTR file$[rsp]
  00104	48 8d 4c 24 78	 lea	 rcx, QWORD PTR fname$[rsp]
  00109	e8 00 00 00 00	 call	 ?com_getFileName@@YAXPEAPEADPEAU_WIN32_FIND_DATAA@@@Z ; com_getFileName

; 120  : 
; 121  : 		if (_tcscmp(fname, _T(".")) == 0
; 122  : 			|| _tcscmp(fname, _T("..")) == 0)

  0010e	48 8d 15 00 00
	00 00		 lea	 rdx, OFFSET FLAT:$SG86330
  00115	48 8b 4c 24 78	 mov	 rcx, QWORD PTR fname$[rsp]
  0011a	e8 00 00 00 00	 call	 _tcscmp
  0011f	85 c0		 test	 eax, eax
  00121	74 15		 je	 SHORT $LN9@GetFileLis
  00123	48 8d 15 00 00
	00 00		 lea	 rdx, OFFSET FLAT:$SG86331
  0012a	48 8b 4c 24 78	 mov	 rcx, QWORD PTR fname$[rsp]
  0012f	e8 00 00 00 00	 call	 _tcscmp
  00134	85 c0		 test	 eax, eax
  00136	75 05		 jne	 SHORT $LN8@GetFileLis
$LN9@GetFileLis:

; 123  : 			continue;

  00138	e9 82 00 00 00	 jmp	 $LN2@GetFileLis
$LN8@GetFileLis:

; 124  : 
; 125  : #ifndef WIN32 // -- only unix
; 126  : 		_stprintf(filePath, _T("%s%s"), szDir, fname);
; 127  : 		stat(filePath, &st);
; 128  : 		if(com_ISDIR(&st)) { appendFileList(fList, fname, 'D');}
; 129  : 		else if(com_ISREG(&st)) {
; 130  : #else		
; 131  : 		if(com_ISDIR(&file)) { appendFileList(fList, fname, 'D'); }

  0013d	48 8d 8c 24 80
	00 00 00	 lea	 rcx, QWORD PTR file$[rsp]
  00145	e8 00 00 00 00	 call	 ?jISDIR@@YA_NPEAU_WIN32_FIND_DATAA@@@Z ; jISDIR
  0014a	0f b6 c0	 movzx	 eax, al
  0014d	85 c0		 test	 eax, eax
  0014f	74 14		 je	 SHORT $LN10@GetFileLis
  00151	41 b0 44	 mov	 r8b, 68			; 00000044H
  00154	48 8b 54 24 78	 mov	 rdx, QWORD PTR fname$[rsp]
  00159	48 8b 4c 24 40	 mov	 rcx, QWORD PTR fList$[rsp]
  0015e	e8 00 00 00 00	 call	 ?appendFileList@CFileUtil@@CA_NPEAV?$CTList@UfileInfo@@@@PEBDD@Z ; CFileUtil::appendFileList
  00163	eb 5a		 jmp	 SHORT $LN11@GetFileLis
$LN10@GetFileLis:

; 132  : 		else if(com_ISREG(&file)) {

  00165	48 8d 8c 24 80
	00 00 00	 lea	 rcx, QWORD PTR file$[rsp]
  0016d	e8 00 00 00 00	 call	 ?jISREG@@YA_NPEAU_WIN32_FIND_DATAA@@@Z ; jISREG
  00172	0f b6 c0	 movzx	 eax, al
  00175	85 c0		 test	 eax, eax
  00177	74 46		 je	 SHORT $LN12@GetFileLis

; 133  : #endif
; 134  : 			if (pFilter) {

  00179	48 83 bc 24 68
	02 00 00 00	 cmp	 QWORD PTR pFilter$[rsp], 0
  00182	74 29		 je	 SHORT $LN13@GetFileLis

; 135  : 				if (!pFilter->pFunc(fname, pFilter->pData, filterList)) continue;

  00184	4c 8b 44 24 48	 mov	 r8, QWORD PTR filterList$[rsp]
  00189	48 8b 84 24 68
	02 00 00	 mov	 rax, QWORD PTR pFilter$[rsp]
  00191	48 8b 50 08	 mov	 rdx, QWORD PTR [rax+8]
  00195	48 8b 4c 24 78	 mov	 rcx, QWORD PTR fname$[rsp]
  0019a	48 8b 84 24 68
	02 00 00	 mov	 rax, QWORD PTR pFilter$[rsp]
  001a2	ff 10		 call	 QWORD PTR [rax]
  001a4	0f b6 c0	 movzx	 eax, al
  001a7	85 c0		 test	 eax, eax
  001a9	75 02		 jne	 SHORT $LN14@GetFileLis
  001ab	eb 12		 jmp	 SHORT $LN2@GetFileLis
$LN14@GetFileLis:
$LN13@GetFileLis:

; 136  : 			}
; 137  : 			appendFileList(fList, fname, 'F');

  001ad	41 b0 46	 mov	 r8b, 70			; 00000046H
  001b0	48 8b 54 24 78	 mov	 rdx, QWORD PTR fname$[rsp]
  001b5	48 8b 4c 24 40	 mov	 rcx, QWORD PTR fList$[rsp]
  001ba	e8 00 00 00 00	 call	 ?appendFileList@CFileUtil@@CA_NPEAV?$CTList@UfileInfo@@@@PEBDD@Z ; CFileUtil::appendFileList
$LN12@GetFileLis:
$LN11@GetFileLis:
$LN2@GetFileLis:

; 138  : 		}
; 139  : 	} while (com_nextFile(dir, &file));

  001bf	48 8d 94 24 80
	00 00 00	 lea	 rdx, QWORD PTR file$[rsp]
  001c7	48 8b 4c 24 38	 mov	 rcx, QWORD PTR dir$[rsp]
  001cc	e8 00 00 00 00	 call	 ?com_nextFile@@YA_NPEAXPEAU_WIN32_FIND_DATAA@@@Z ; com_nextFile
  001d1	0f b6 c0	 movzx	 eax, al
  001d4	85 c0		 test	 eax, eax
  001d6	0f 85 20 ff ff
	ff		 jne	 $LN4@GetFileLis

; 140  : 
; 141  : 	com_dirclose(dir);

  001dc	48 8b 4c 24 38	 mov	 rcx, QWORD PTR dir$[rsp]
  001e1	ff 15 00 00 00
	00		 call	 QWORD PTR __imp_FindClose

; 142  : 	pResult->pList = fList;

  001e7	48 8b 84 24 60
	02 00 00	 mov	 rax, QWORD PTR pResult$[rsp]
  001ef	48 8b 4c 24 40	 mov	 rcx, QWORD PTR fList$[rsp]
  001f4	48 89 48 08	 mov	 QWORD PTR [rax+8], rcx

; 143  : 	delete filterList;

  001f8	48 8b 44 24 48	 mov	 rax, QWORD PTR filterList$[rsp]
  001fd	48 89 44 24 60	 mov	 QWORD PTR $T2[rsp], rax
  00202	48 8b 44 24 60	 mov	 rax, QWORD PTR $T2[rsp]
  00207	48 89 44 24 50	 mov	 QWORD PTR $T1[rsp], rax
  0020c	48 83 7c 24 50
	00		 cmp	 QWORD PTR $T1[rsp], 0
  00212	74 16		 je	 SHORT $LN17@GetFileLis
  00214	ba 01 00 00 00	 mov	 edx, 1
  00219	48 8b 4c 24 50	 mov	 rcx, QWORD PTR $T1[rsp]
  0021e	e8 00 00 00 00	 call	 ??_GCStringList@@QEAAPEAXI@Z
  00223	48 89 44 24 68	 mov	 QWORD PTR tv158[rsp], rax
  00228	eb 09		 jmp	 SHORT $LN18@GetFileLis
$LN17@GetFileLis:
  0022a	48 c7 44 24 68
	00 00 00 00	 mov	 QWORD PTR tv158[rsp], 0
$LN18@GetFileLis:

; 144  : 	return true;

  00233	b0 01		 mov	 al, 1
$LN1@GetFileLis:

; 145  : }

  00235	48 8b 8c 24 40
	02 00 00	 mov	 rcx, QWORD PTR __$ArrayPad$[rsp]
  0023d	48 33 cc	 xor	 rcx, rsp
  00240	e8 00 00 00 00	 call	 __security_check_cookie
  00245	48 81 c4 58 02
	00 00		 add	 rsp, 600		; 00000258H
  0024c	c3		 ret	 0
?GetFileList@CFileUtil@@SA_NPEAUSTFileList@@PEAUSTFilterData@@@Z ENDP ; CFileUtil::GetFileList
_TEXT	ENDS
; Function compile flags: /Odtp
; File e:\infinia-library-3.0\com\src\comfileutil.cpp
;	COMDAT ?IsExistDirectory@CFileUtil@@SA_NPEAD@Z
_TEXT	SEGMENT
bRes$ = 32
dirName$ = 64
?IsExistDirectory@CFileUtil@@SA_NPEAD@Z PROC		; CFileUtil::IsExistDirectory, COMDAT

; 79   : {

$LN4:
  00000	48 89 4c 24 08	 mov	 QWORD PTR [rsp+8], rcx
  00005	48 83 ec 38	 sub	 rsp, 56			; 00000038H

; 80   : 	bool bRes = false;

  00009	c6 44 24 20 00	 mov	 BYTE PTR bRes$[rsp], 0

; 81   : 	if (com_isDirectory(dirName))

  0000e	48 8b 4c 24 40	 mov	 rcx, QWORD PTR dirName$[rsp]
  00013	e8 00 00 00 00	 call	 ?com_isDirectory@@YA_NPEAD@Z ; com_isDirectory
  00018	0f b6 c0	 movzx	 eax, al
  0001b	85 c0		 test	 eax, eax
  0001d	74 1b		 je	 SHORT $LN2@IsExistDir

; 82   : #ifndef WIN32 // -- only unix
; 83   : 	{
; 84   : 		bRes = true;
; 85   : 	}
; 86   : #else	
; 87   : 	{
; 88   : 		bRes = true;

  0001f	c6 44 24 20 01	 mov	 BYTE PTR bRes$[rsp], 1

; 89   : 		_stprintf(dirName, _T("%s*.*"), dirName);

  00024	4c 8b 44 24 40	 mov	 r8, QWORD PTR dirName$[rsp]
  00029	48 8d 15 00 00
	00 00		 lea	 rdx, OFFSET FLAT:$SG86308
  00030	48 8b 4c 24 40	 mov	 rcx, QWORD PTR dirName$[rsp]
  00035	e8 00 00 00 00	 call	 sprintf
$LN2@IsExistDir:

; 90   : 	}
; 91   : #endif
; 92   : 	return bRes;

  0003a	0f b6 44 24 20	 movzx	 eax, BYTE PTR bRes$[rsp]

; 93   : }

  0003f	48 83 c4 38	 add	 rsp, 56			; 00000038H
  00043	c3		 ret	 0
?IsExistDirectory@CFileUtil@@SA_NPEAD@Z ENDP		; CFileUtil::IsExistDirectory
_TEXT	ENDS
; Function compile flags: /Odtp
; File e:\infinia-library-3.0\com\src\comfileutil.cpp
;	COMDAT ?filter_dateTimeCompare@@YA_NPEADPEAX1@Z
_TEXT	SEGMENT
pComperand$ = 32
pComFileTime$ = 40
pFile$ = 64
pData$ = 72
pRes$ = 80
?filter_dateTimeCompare@@YA_NPEADPEAX1@Z PROC		; filter_dateTimeCompare, COMDAT

; 50   : {

$LN4:
  00000	4c 89 44 24 18	 mov	 QWORD PTR [rsp+24], r8
  00005	48 89 54 24 10	 mov	 QWORD PTR [rsp+16], rdx
  0000a	48 89 4c 24 08	 mov	 QWORD PTR [rsp+8], rcx
  0000f	48 83 ec 38	 sub	 rsp, 56			; 00000038H

; 51   : 	CFileTime *pComperand = (CFileTime *)pData;

  00013	48 8b 44 24 48	 mov	 rax, QWORD PTR pData$[rsp]
  00018	48 89 44 24 20	 mov	 QWORD PTR pComperand$[rsp], rax

; 52   : 	CFileTime *pComFileTime = (CFileTime *)pRes;

  0001d	48 8b 44 24 50	 mov	 rax, QWORD PTR pRes$[rsp]
  00022	48 89 44 24 28	 mov	 QWORD PTR pComFileTime$[rsp], rax

; 53   : 	if (pComFileTime->isCompare(pComperand, eOperator_LE)) // LE : less or Equal

  00027	41 b8 06 00 00
	00		 mov	 r8d, 6
  0002d	48 8b 54 24 20	 mov	 rdx, QWORD PTR pComperand$[rsp]
  00032	48 8b 4c 24 28	 mov	 rcx, QWORD PTR pComFileTime$[rsp]
  00037	e8 00 00 00 00	 call	 ?isCompare@CFileTime@@QEAA_NPEAV1@W4E_OPERATOR@@@Z ; CFileTime::isCompare
  0003c	0f b6 c0	 movzx	 eax, al
  0003f	85 c0		 test	 eax, eax
  00041	74 04		 je	 SHORT $LN2@filter_dat

; 54   : 	{
; 55   : 		return true;

  00043	b0 01		 mov	 al, 1
  00045	eb 02		 jmp	 SHORT $LN1@filter_dat
$LN2@filter_dat:

; 56   : 	}
; 57   : 	return false;

  00047	32 c0		 xor	 al, al
$LN1@filter_dat:

; 58   : }

  00049	48 83 c4 38	 add	 rsp, 56			; 00000038H
  0004d	c3		 ret	 0
?filter_dateTimeCompare@@YA_NPEADPEAX1@Z ENDP		; filter_dateTimeCompare
_TEXT	ENDS
; Function compile flags: /Odtp
; File e:\infinia-library-3.0\com\src\comfileutil.cpp
;	COMDAT ?filter_stringCompare@@YA_NPEADPEAX1@Z
_TEXT	SEGMENT
filterList$ = 32
$T1 = 40
filter$ = 48
tv79 = 56
$T2 = 64
pFilter$3 = 72
$T4 = 80
i$ = 88
__$ArrayPad$ = 96
pFile$ = 128
pData$ = 136
pRes$ = 144
?filter_stringCompare@@YA_NPEADPEAX1@Z PROC		; filter_stringCompare, COMDAT

; 27   : {

$LN12:
  00000	4c 89 44 24 18	 mov	 QWORD PTR [rsp+24], r8
  00005	48 89 54 24 10	 mov	 QWORD PTR [rsp+16], rdx
  0000a	48 89 4c 24 08	 mov	 QWORD PTR [rsp+8], rcx
  0000f	48 83 ec 78	 sub	 rsp, 120		; 00000078H
  00013	48 c7 44 24 50
	fe ff ff ff	 mov	 QWORD PTR $T4[rsp], -2
  0001c	48 8b 05 00 00
	00 00		 mov	 rax, QWORD PTR __security_cookie
  00023	48 33 c4	 xor	 rax, rsp
  00026	48 89 44 24 60	 mov	 QWORD PTR __$ArrayPad$[rsp], rax

; 28   : 	if (!pData) return true;

  0002b	48 83 bc 24 88
	00 00 00 00	 cmp	 QWORD PTR pData$[rsp], 0
  00034	75 07		 jne	 SHORT $LN4@filter_str
  00036	b0 01		 mov	 al, 1
  00038	e9 fe 00 00 00	 jmp	 $LN1@filter_str
$LN4@filter_str:

; 29   : 	CStringList *filterList = NULL;

  0003d	48 c7 44 24 20
	00 00 00 00	 mov	 QWORD PTR filterList$[rsp], 0

; 30   : 	if (!pRes) {

  00046	48 83 bc 24 90
	00 00 00 00	 cmp	 QWORD PTR pRes$[rsp], 0
  0004f	0f 85 83 00 00
	00		 jne	 $LN5@filter_str

; 31   : 		TCHAR *pFilter = (TCHAR *)pData;

  00055	48 8b 84 24 88
	00 00 00	 mov	 rax, QWORD PTR pData$[rsp]
  0005d	48 89 44 24 48	 mov	 QWORD PTR pFilter$3[rsp], rax

; 32   : 		filterList = new CStringList();

  00062	b9 18 00 00 00	 mov	 ecx, 24
  00067	e8 00 00 00 00	 call	 ??2@YAPEAX_K@Z		; operator new
  0006c	48 89 44 24 28	 mov	 QWORD PTR $T1[rsp], rax
  00071	48 83 7c 24 28
	00		 cmp	 QWORD PTR $T1[rsp], 0
  00077	74 20		 je	 SHORT $LN9@filter_str
  00079	ba 18 00 00 00	 mov	 edx, 24
  0007e	48 8b 4c 24 28	 mov	 rcx, QWORD PTR $T1[rsp]
  00083	e8 00 00 00 00	 call	 ?__autoclassinit2@CStringList@@QEAAX_K@Z
  00088	48 8b 4c 24 28	 mov	 rcx, QWORD PTR $T1[rsp]
  0008d	e8 00 00 00 00	 call	 ??0CStringList@@QEAA@XZ	; CStringList::CStringList
  00092	48 89 44 24 38	 mov	 QWORD PTR tv79[rsp], rax
  00097	eb 09		 jmp	 SHORT $LN10@filter_str
$LN9@filter_str:
  00099	48 c7 44 24 38
	00 00 00 00	 mov	 QWORD PTR tv79[rsp], 0
$LN10@filter_str:
  000a2	48 8b 44 24 38	 mov	 rax, QWORD PTR tv79[rsp]
  000a7	48 89 44 24 40	 mov	 QWORD PTR $T2[rsp], rax
  000ac	48 8b 44 24 40	 mov	 rax, QWORD PTR $T2[rsp]
  000b1	48 89 44 24 20	 mov	 QWORD PTR filterList$[rsp], rax

; 33   : 		filterList->alloc(4);

  000b6	ba 04 00 00 00	 mov	 edx, 4
  000bb	48 8b 4c 24 20	 mov	 rcx, QWORD PTR filterList$[rsp]
  000c0	e8 00 00 00 00	 call	 ?alloc@CStringList@@QEAAHH@Z ; CStringList::alloc

; 34   : 		CFileUtil::getFieldList((char *)pFilter, CH_DELIMITER, filterList);

  000c5	4c 8b 44 24 20	 mov	 r8, QWORD PTR filterList$[rsp]
  000ca	b2 3b		 mov	 dl, 59			; 0000003bH
  000cc	48 8b 4c 24 48	 mov	 rcx, QWORD PTR pFilter$3[rsp]
  000d1	e8 00 00 00 00	 call	 ?getFieldList@CFileUtil@@SA_NPEADDPEAVCStringList@@@Z ; CFileUtil::getFieldList

; 35   : 	}
; 36   : 	else {

  000d6	eb 0d		 jmp	 SHORT $LN6@filter_str
$LN5@filter_str:

; 37   : 		filterList = (CStringList *)pRes;

  000d8	48 8b 84 24 90
	00 00 00	 mov	 rax, QWORD PTR pRes$[rsp]
  000e0	48 89 44 24 20	 mov	 QWORD PTR filterList$[rsp], rax
$LN6@filter_str:

; 38   : 	}
; 39   : 	int i = 0;

  000e5	c7 44 24 58 00
	00 00 00	 mov	 DWORD PTR i$[rsp], 0

; 40   : 	CmString *filter = filterList->getNext(&i);

  000ed	48 8d 54 24 58	 lea	 rdx, QWORD PTR i$[rsp]
  000f2	48 8b 4c 24 20	 mov	 rcx, QWORD PTR filterList$[rsp]
  000f7	e8 00 00 00 00	 call	 ?getNext@CStringList@@QEAAPEAVCmString@@PEAH@Z ; CStringList::getNext
  000fc	48 89 44 24 30	 mov	 QWORD PTR filter$[rsp], rax
$LN2@filter_str:

; 41   : 	while (filter)

  00101	48 83 7c 24 30
	00		 cmp	 QWORD PTR filter$[rsp], 0
  00107	74 30		 je	 SHORT $LN3@filter_str

; 42   : 	{
; 43   : 		if (filter->compare(pFile)) return true;

  00109	48 8b 94 24 80
	00 00 00	 mov	 rdx, QWORD PTR pFile$[rsp]
  00111	48 8b 4c 24 30	 mov	 rcx, QWORD PTR filter$[rsp]
  00116	e8 00 00 00 00	 call	 ?compare@CmString@@QEAAHPEBD@Z ; CmString::compare
  0011b	85 c0		 test	 eax, eax
  0011d	74 04		 je	 SHORT $LN7@filter_str
  0011f	b0 01		 mov	 al, 1
  00121	eb 18		 jmp	 SHORT $LN1@filter_str
$LN7@filter_str:

; 44   : 		filter = filterList->getNext(&i);

  00123	48 8d 54 24 58	 lea	 rdx, QWORD PTR i$[rsp]
  00128	48 8b 4c 24 20	 mov	 rcx, QWORD PTR filterList$[rsp]
  0012d	e8 00 00 00 00	 call	 ?getNext@CStringList@@QEAAPEAVCmString@@PEAH@Z ; CStringList::getNext
  00132	48 89 44 24 30	 mov	 QWORD PTR filter$[rsp], rax

; 45   : 	}

  00137	eb c8		 jmp	 SHORT $LN2@filter_str
$LN3@filter_str:

; 46   : 	return false;

  00139	32 c0		 xor	 al, al
$LN1@filter_str:

; 47   : }

  0013b	48 8b 4c 24 60	 mov	 rcx, QWORD PTR __$ArrayPad$[rsp]
  00140	48 33 cc	 xor	 rcx, rsp
  00143	e8 00 00 00 00	 call	 __security_check_cookie
  00148	48 83 c4 78	 add	 rsp, 120		; 00000078H
  0014c	c3		 ret	 0
?filter_stringCompare@@YA_NPEADPEAX1@Z ENDP		; filter_stringCompare
_TEXT	ENDS
;	COMDAT text$x
text$x	SEGMENT
filterList$ = 32
$T1 = 40
filter$ = 48
tv79 = 56
$T2 = 64
pFilter$3 = 72
$T4 = 80
i$ = 88
__$ArrayPad$ = 96
pFile$ = 128
pData$ = 136
pRes$ = 144
?dtor$0@?0??filter_stringCompare@@YA_NPEADPEAX1@Z@4HA PROC ; `filter_stringCompare'::`1'::dtor$0
  00000	40 55		 push	 rbp
  00002	48 83 ec 20	 sub	 rsp, 32			; 00000020H
  00006	48 8b ea	 mov	 rbp, rdx
  00009	ba 18 00 00 00	 mov	 edx, 24
  0000e	48 8b 4d 28	 mov	 rcx, QWORD PTR $T1[rbp]
  00012	e8 00 00 00 00	 call	 ??3@YAXPEAX_K@Z		; operator delete
  00017	48 83 c4 20	 add	 rsp, 32			; 00000020H
  0001b	5d		 pop	 rbp
  0001c	c3		 ret	 0
?dtor$0@?0??filter_stringCompare@@YA_NPEADPEAX1@Z@4HA ENDP ; `filter_stringCompare'::`1'::dtor$0
text$x	ENDS
; Function compile flags: /Odtp
;	COMDAT text$x
text$x	SEGMENT
filterList$ = 32
$T1 = 40
filter$ = 48
tv79 = 56
$T2 = 64
pFilter$3 = 72
$T4 = 80
i$ = 88
__$ArrayPad$ = 96
pFile$ = 128
pData$ = 136
pRes$ = 144
?dtor$0@?0??filter_stringCompare@@YA_NPEADPEAX1@Z@4HA PROC ; `filter_stringCompare'::`1'::dtor$0
  00000	40 55		 push	 rbp
  00002	48 83 ec 20	 sub	 rsp, 32			; 00000020H
  00006	48 8b ea	 mov	 rbp, rdx
  00009	ba 18 00 00 00	 mov	 edx, 24
  0000e	48 8b 4d 28	 mov	 rcx, QWORD PTR $T1[rbp]
  00012	e8 00 00 00 00	 call	 ??3@YAXPEAX_K@Z		; operator delete
  00017	48 83 c4 20	 add	 rsp, 32			; 00000020H
  0001b	5d		 pop	 rbp
  0001c	c3		 ret	 0
?dtor$0@?0??filter_stringCompare@@YA_NPEADPEAX1@Z@4HA ENDP ; `filter_stringCompare'::`1'::dtor$0
text$x	ENDS
; Function compile flags: /Odtp
;	COMDAT ??_GCStringList@@QEAAPEAXI@Z
_TEXT	SEGMENT
this$ = 48
__flags$ = 56
??_GCStringList@@QEAAPEAXI@Z PROC			; CStringList::`scalar deleting destructor', COMDAT
$LN4:
  00000	89 54 24 10	 mov	 DWORD PTR [rsp+16], edx
  00004	48 89 4c 24 08	 mov	 QWORD PTR [rsp+8], rcx
  00009	48 83 ec 28	 sub	 rsp, 40			; 00000028H
  0000d	48 8b 4c 24 30	 mov	 rcx, QWORD PTR this$[rsp]
  00012	e8 00 00 00 00	 call	 ??1CStringList@@QEAA@XZ	; CStringList::~CStringList
  00017	8b 44 24 38	 mov	 eax, DWORD PTR __flags$[rsp]
  0001b	83 e0 01	 and	 eax, 1
  0001e	85 c0		 test	 eax, eax
  00020	74 0f		 je	 SHORT $LN2@scalar
  00022	ba 18 00 00 00	 mov	 edx, 24
  00027	48 8b 4c 24 30	 mov	 rcx, QWORD PTR this$[rsp]
  0002c	e8 00 00 00 00	 call	 ??3@YAXPEAX_K@Z		; operator delete
$LN2@scalar:
  00031	48 8b 44 24 30	 mov	 rax, QWORD PTR this$[rsp]
  00036	48 83 c4 28	 add	 rsp, 40			; 00000028H
  0003a	c3		 ret	 0
??_GCStringList@@QEAAPEAXI@Z ENDP			; CStringList::`scalar deleting destructor'
_TEXT	ENDS
; Function compile flags: /Odtp
;	COMDAT ?__autoclassinit2@CStringList@@QEAAX_K@Z
_TEXT	SEGMENT
this$ = 16
classSize$ = 24
?__autoclassinit2@CStringList@@QEAAX_K@Z PROC		; CStringList::__autoclassinit2, COMDAT
$LN3:
  00000	48 89 54 24 10	 mov	 QWORD PTR [rsp+16], rdx
  00005	48 89 4c 24 08	 mov	 QWORD PTR [rsp+8], rcx
  0000a	57		 push	 rdi
  0000b	48 8b 7c 24 10	 mov	 rdi, QWORD PTR this$[rsp]
  00010	33 c0		 xor	 eax, eax
  00012	48 8b 4c 24 18	 mov	 rcx, QWORD PTR classSize$[rsp]
  00017	f3 aa		 rep stosb
  00019	5f		 pop	 rdi
  0001a	c3		 ret	 0
?__autoclassinit2@CStringList@@QEAAX_K@Z ENDP		; CStringList::__autoclassinit2
_TEXT	ENDS
; Function compile flags: /Odtp
; File e:\infinia-library-3.0\com\include\commstring.h
;	COMDAT ?__getNext@CStringList@@AEAAPEAVCmString@@PEAH@Z
_TEXT	SEGMENT
this$ = 8
i$ = 16
?__getNext@CStringList@@AEAAPEAVCmString@@PEAH@Z PROC	; CStringList::__getNext, COMDAT

; 105  : 	inline CmString *__getNext(int *i) {

  00000	48 89 54 24 10	 mov	 QWORD PTR [rsp+16], rdx
  00005	48 89 4c 24 08	 mov	 QWORD PTR [rsp+8], rcx

; 106  : 		for (*i; *i < m_nListCnt; (*i)++) {

  0000a	eb 10		 jmp	 SHORT $LN4@getNext
$LN2@getNext:
  0000c	48 8b 44 24 10	 mov	 rax, QWORD PTR i$[rsp]
  00011	8b 00		 mov	 eax, DWORD PTR [rax]
  00013	ff c0		 inc	 eax
  00015	48 8b 4c 24 10	 mov	 rcx, QWORD PTR i$[rsp]
  0001a	89 01		 mov	 DWORD PTR [rcx], eax
$LN4@getNext:
  0001c	48 8b 44 24 10	 mov	 rax, QWORD PTR i$[rsp]
  00021	48 8b 4c 24 08	 mov	 rcx, QWORD PTR this$[rsp]
  00026	8b 09		 mov	 ecx, DWORD PTR [rcx]
  00028	39 08		 cmp	 DWORD PTR [rax], ecx
  0002a	7d 31		 jge	 SHORT $LN3@getNext

; 107  : 			if (m_pList[*i]) { return m_pList[*i]; }

  0002c	48 8b 44 24 10	 mov	 rax, QWORD PTR i$[rsp]
  00031	48 63 00	 movsxd	 rax, DWORD PTR [rax]
  00034	48 8b 4c 24 08	 mov	 rcx, QWORD PTR this$[rsp]
  00039	48 8b 49 10	 mov	 rcx, QWORD PTR [rcx+16]
  0003d	48 83 3c c1 00	 cmp	 QWORD PTR [rcx+rax*8], 0
  00042	74 17		 je	 SHORT $LN5@getNext
  00044	48 8b 44 24 10	 mov	 rax, QWORD PTR i$[rsp]
  00049	48 63 00	 movsxd	 rax, DWORD PTR [rax]
  0004c	48 8b 4c 24 08	 mov	 rcx, QWORD PTR this$[rsp]
  00051	48 8b 49 10	 mov	 rcx, QWORD PTR [rcx+16]
  00055	48 8b 04 c1	 mov	 rax, QWORD PTR [rcx+rax*8]
  00059	eb 04		 jmp	 SHORT $LN1@getNext
$LN5@getNext:

; 108  : 		}

  0005b	eb af		 jmp	 SHORT $LN2@getNext
$LN3@getNext:

; 109  : 		return NULL;

  0005d	33 c0		 xor	 eax, eax
$LN1@getNext:

; 110  : 	}

  0005f	c3		 ret	 0
?__getNext@CStringList@@AEAAPEAVCmString@@PEAH@Z ENDP	; CStringList::__getNext
_TEXT	ENDS
; Function compile flags: /Odtp
; File e:\infinia-library-3.0\com\include\commstring.h
;	COMDAT ?getNext@CStringList@@QEAAPEAVCmString@@PEAH@Z
_TEXT	SEGMENT
this$ = 48
i$ = 56
?getNext@CStringList@@QEAAPEAVCmString@@PEAH@Z PROC	; CStringList::getNext, COMDAT

; 90   : 	inline CmString *getNext(int *i) { return __getNext(i);	}

$LN3:
  00000	48 89 54 24 10	 mov	 QWORD PTR [rsp+16], rdx
  00005	48 89 4c 24 08	 mov	 QWORD PTR [rsp+8], rcx
  0000a	48 83 ec 28	 sub	 rsp, 40			; 00000028H
  0000e	48 8b 54 24 38	 mov	 rdx, QWORD PTR i$[rsp]
  00013	48 8b 4c 24 30	 mov	 rcx, QWORD PTR this$[rsp]
  00018	e8 00 00 00 00	 call	 ?__getNext@CStringList@@AEAAPEAVCmString@@PEAH@Z ; CStringList::__getNext
  0001d	48 83 c4 28	 add	 rsp, 40			; 00000028H
  00021	c3		 ret	 0
?getNext@CStringList@@QEAAPEAVCmString@@PEAH@Z ENDP	; CStringList::getNext
_TEXT	ENDS
; Function compile flags: /Odtp
; File e:\infinia-library-3.0\com\include\commstring.h
;	COMDAT ?push_back@CStringList@@QEAAPEAVCmString@@PEAD@Z
_TEXT	SEGMENT
this$ = 48
pString$ = 56
?push_back@CStringList@@QEAAPEAVCmString@@PEAD@Z PROC	; CStringList::push_back, COMDAT

; 87   : 	CmString * CStringList::push_back(TCHAR* pString) {if (!m_pList[m_nLast]) return __add(pString, m_nLast);return __add(pString, newIdx());}

$LN4:
  00000	48 89 54 24 10	 mov	 QWORD PTR [rsp+16], rdx
  00005	48 89 4c 24 08	 mov	 QWORD PTR [rsp+8], rcx
  0000a	48 83 ec 28	 sub	 rsp, 40			; 00000028H
  0000e	48 8b 44 24 30	 mov	 rax, QWORD PTR this$[rsp]
  00013	48 63 40 08	 movsxd	 rax, DWORD PTR [rax+8]
  00017	48 8b 4c 24 30	 mov	 rcx, QWORD PTR this$[rsp]
  0001c	48 8b 49 10	 mov	 rcx, QWORD PTR [rcx+16]
  00020	48 83 3c c1 00	 cmp	 QWORD PTR [rcx+rax*8], 0
  00025	75 1a		 jne	 SHORT $LN2@push_back
  00027	48 8b 44 24 30	 mov	 rax, QWORD PTR this$[rsp]
  0002c	44 8b 40 08	 mov	 r8d, DWORD PTR [rax+8]
  00030	48 8b 54 24 38	 mov	 rdx, QWORD PTR pString$[rsp]
  00035	48 8b 4c 24 30	 mov	 rcx, QWORD PTR this$[rsp]
  0003a	e8 00 00 00 00	 call	 ?__add@CStringList@@AEAAPEAVCmString@@PEADH@Z ; CStringList::__add
  0003f	eb 1c		 jmp	 SHORT $LN1@push_back
$LN2@push_back:
  00041	48 8b 4c 24 30	 mov	 rcx, QWORD PTR this$[rsp]
  00046	e8 00 00 00 00	 call	 ?newIdx@CStringList@@AEAAHXZ ; CStringList::newIdx
  0004b	44 8b c0	 mov	 r8d, eax
  0004e	48 8b 54 24 38	 mov	 rdx, QWORD PTR pString$[rsp]
  00053	48 8b 4c 24 30	 mov	 rcx, QWORD PTR this$[rsp]
  00058	e8 00 00 00 00	 call	 ?__add@CStringList@@AEAAPEAVCmString@@PEADH@Z ; CStringList::__add
$LN1@push_back:
  0005d	48 83 c4 28	 add	 rsp, 40			; 00000028H
  00061	c3		 ret	 0
?push_back@CStringList@@QEAAPEAVCmString@@PEAD@Z ENDP	; CStringList::push_back
_TEXT	ENDS
; Function compile flags: /Odtp
; File e:\infinia-library-3.0\com\include\commstring.h
;	COMDAT ?alloc@CStringList@@QEAAHH@Z
_TEXT	SEGMENT
this$ = 48
nMaxCount$ = 56
?alloc@CStringList@@QEAAHH@Z PROC			; CStringList::alloc, COMDAT

; 85   : 	int alloc(int nMaxCount) { m_nListCnt = __alloc(nMaxCount); return m_nListCnt; }

$LN3:
  00000	89 54 24 10	 mov	 DWORD PTR [rsp+16], edx
  00004	48 89 4c 24 08	 mov	 QWORD PTR [rsp+8], rcx
  00009	48 83 ec 28	 sub	 rsp, 40			; 00000028H
  0000d	8b 54 24 38	 mov	 edx, DWORD PTR nMaxCount$[rsp]
  00011	48 8b 4c 24 30	 mov	 rcx, QWORD PTR this$[rsp]
  00016	e8 00 00 00 00	 call	 ?__alloc@CStringList@@AEAAHH@Z ; CStringList::__alloc
  0001b	48 8b 4c 24 30	 mov	 rcx, QWORD PTR this$[rsp]
  00020	89 01		 mov	 DWORD PTR [rcx], eax
  00022	48 8b 44 24 30	 mov	 rax, QWORD PTR this$[rsp]
  00027	8b 00		 mov	 eax, DWORD PTR [rax]
  00029	48 83 c4 28	 add	 rsp, 40			; 00000028H
  0002d	c3		 ret	 0
?alloc@CStringList@@QEAAHH@Z ENDP			; CStringList::alloc
_TEXT	ENDS
; Function compile flags: /Odtp
; File e:\infinia-library-3.0\com\include\commemmanager.h
;	COMDAT ?delBuf@CMemManager@@QEAAXPEADH@Z
_TEXT	SEGMENT
nIdx$ = 32
this$ = 64
pBuf$ = 72
nSize$ = 80
?delBuf@CMemManager@@QEAAXPEADH@Z PROC			; CMemManager::delBuf, COMDAT

; 38   : 	inline void delBuf(char *pBuf, int nSize) { int nIdx = getIndex(nSize); delBufByIndex(pBuf, nIdx); }

$LN3:
  00000	44 89 44 24 18	 mov	 DWORD PTR [rsp+24], r8d
  00005	48 89 54 24 10	 mov	 QWORD PTR [rsp+16], rdx
  0000a	48 89 4c 24 08	 mov	 QWORD PTR [rsp+8], rcx
  0000f	48 83 ec 38	 sub	 rsp, 56			; 00000038H
  00013	8b 4c 24 50	 mov	 ecx, DWORD PTR nSize$[rsp]
  00017	e8 00 00 00 00	 call	 ?getIndex@@YAHH@Z	; getIndex
  0001c	89 44 24 20	 mov	 DWORD PTR nIdx$[rsp], eax
  00020	44 8b 44 24 20	 mov	 r8d, DWORD PTR nIdx$[rsp]
  00025	48 8b 54 24 48	 mov	 rdx, QWORD PTR pBuf$[rsp]
  0002a	48 8b 4c 24 40	 mov	 rcx, QWORD PTR this$[rsp]
  0002f	e8 00 00 00 00	 call	 ?delBufByIndex@CMemManager@@QEAAXPEADH@Z ; CMemManager::delBufByIndex
  00034	48 83 c4 38	 add	 rsp, 56			; 00000038H
  00038	c3		 ret	 0
?delBuf@CMemManager@@QEAAXPEADH@Z ENDP			; CMemManager::delBuf
_TEXT	ENDS
; Function compile flags: /Odtp
; File e:\infinia-library-3.0\com\include\commemmanager.h
;	COMDAT ?newBuf@CMemManager@@QEAAPEADHPEAH@Z
_TEXT	SEGMENT
this$ = 48
nSize$ = 56
pIndex$ = 64
?newBuf@CMemManager@@QEAAPEADHPEAH@Z PROC		; CMemManager::newBuf, COMDAT

; 35   : 	inline char *newBuf(int nSize, int *pIndex) { *pIndex = getIndex(nSize);  return __newBuf(*pIndex, nSize); }

$LN3:
  00000	4c 89 44 24 18	 mov	 QWORD PTR [rsp+24], r8
  00005	89 54 24 10	 mov	 DWORD PTR [rsp+16], edx
  00009	48 89 4c 24 08	 mov	 QWORD PTR [rsp+8], rcx
  0000e	48 83 ec 28	 sub	 rsp, 40			; 00000028H
  00012	8b 4c 24 38	 mov	 ecx, DWORD PTR nSize$[rsp]
  00016	e8 00 00 00 00	 call	 ?getIndex@@YAHH@Z	; getIndex
  0001b	48 8b 4c 24 40	 mov	 rcx, QWORD PTR pIndex$[rsp]
  00020	89 01		 mov	 DWORD PTR [rcx], eax
  00022	48 63 44 24 38	 movsxd	 rax, DWORD PTR nSize$[rsp]
  00027	4c 8b c0	 mov	 r8, rax
  0002a	48 8b 44 24 40	 mov	 rax, QWORD PTR pIndex$[rsp]
  0002f	8b 10		 mov	 edx, DWORD PTR [rax]
  00031	48 8b 4c 24 30	 mov	 rcx, QWORD PTR this$[rsp]
  00036	e8 00 00 00 00	 call	 ?__newBuf@CMemManager@@AEAAPEADH_K@Z ; CMemManager::__newBuf
  0003b	48 83 c4 28	 add	 rsp, 40			; 00000028H
  0003f	c3		 ret	 0
?newBuf@CMemManager@@QEAAPEADHPEAH@Z ENDP		; CMemManager::newBuf
_TEXT	ENDS
; Function compile flags: /Odtp
; File e:\infinia-library-3.0\com\include\commemmanager.h
;	COMDAT ?newBuf@CMemManager@@QEAAPEADH@Z
_TEXT	SEGMENT
nIdx$ = 32
this$ = 64
nSize$ = 72
?newBuf@CMemManager@@QEAAPEADH@Z PROC			; CMemManager::newBuf, COMDAT

; 34   : 	inline char *newBuf(int nSize) { int nIdx = getIndex(nSize);  return __newBuf(nIdx, nSize); }

$LN3:
  00000	89 54 24 10	 mov	 DWORD PTR [rsp+16], edx
  00004	48 89 4c 24 08	 mov	 QWORD PTR [rsp+8], rcx
  00009	48 83 ec 38	 sub	 rsp, 56			; 00000038H
  0000d	8b 4c 24 48	 mov	 ecx, DWORD PTR nSize$[rsp]
  00011	e8 00 00 00 00	 call	 ?getIndex@@YAHH@Z	; getIndex
  00016	89 44 24 20	 mov	 DWORD PTR nIdx$[rsp], eax
  0001a	48 63 44 24 48	 movsxd	 rax, DWORD PTR nSize$[rsp]
  0001f	4c 8b c0	 mov	 r8, rax
  00022	8b 54 24 20	 mov	 edx, DWORD PTR nIdx$[rsp]
  00026	48 8b 4c 24 40	 mov	 rcx, QWORD PTR this$[rsp]
  0002b	e8 00 00 00 00	 call	 ?__newBuf@CMemManager@@AEAAPEADH_K@Z ; CMemManager::__newBuf
  00030	48 83 c4 38	 add	 rsp, 56			; 00000038H
  00034	c3		 ret	 0
?newBuf@CMemManager@@QEAAPEADH@Z ENDP			; CMemManager::newBuf
_TEXT	ENDS
; Function compile flags: /Odtp
; File e:\infinia-library-3.0\com\include\combufpool.h
;	COMDAT ?getIndex@@YAHH@Z
_TEXT	SEGMENT
tv73 = 0
m$ = 4
tv80 = 8
$S1$ = 16
s$ = 48
?getIndex@@YAHH@Z PROC					; getIndex, COMDAT

; 51   : inline int getIndex(int s) { int m; union { double x; int b[2]; }; x = s; m = (b[1] >> 20) - 1023; return m + ((s&(s - (1 << m))) ? 1 : 0); }

$LN5:
  00000	89 4c 24 08	 mov	 DWORD PTR [rsp+8], ecx
  00004	48 83 ec 28	 sub	 rsp, 40			; 00000028H
  00008	f2 0f 2a 44 24
	30		 cvtsi2sd xmm0, DWORD PTR s$[rsp]
  0000e	f2 0f 11 44 24
	10		 movsd	 QWORD PTR $S1$[rsp], xmm0
  00014	b8 04 00 00 00	 mov	 eax, 4
  00019	48 6b c0 01	 imul	 rax, rax, 1
  0001d	8b 44 04 10	 mov	 eax, DWORD PTR $S1$[rsp+rax]
  00021	c1 f8 14	 sar	 eax, 20
  00024	2d ff 03 00 00	 sub	 eax, 1023		; 000003ffH
  00029	89 44 24 04	 mov	 DWORD PTR m$[rsp], eax
  0002d	8b 44 24 04	 mov	 eax, DWORD PTR m$[rsp]
  00031	b9 01 00 00 00	 mov	 ecx, 1
  00036	89 4c 24 08	 mov	 DWORD PTR tv80[rsp], ecx
  0003a	0f b6 c8	 movzx	 ecx, al
  0003d	8b 44 24 08	 mov	 eax, DWORD PTR tv80[rsp]
  00041	d3 e0		 shl	 eax, cl
  00043	8b 4c 24 30	 mov	 ecx, DWORD PTR s$[rsp]
  00047	2b c8		 sub	 ecx, eax
  00049	8b c1		 mov	 eax, ecx
  0004b	8b 4c 24 30	 mov	 ecx, DWORD PTR s$[rsp]
  0004f	23 c8		 and	 ecx, eax
  00051	8b c1		 mov	 eax, ecx
  00053	85 c0		 test	 eax, eax
  00055	74 09		 je	 SHORT $LN3@getIndex
  00057	c7 04 24 01 00
	00 00		 mov	 DWORD PTR tv73[rsp], 1
  0005e	eb 07		 jmp	 SHORT $LN4@getIndex
$LN3@getIndex:
  00060	c7 04 24 00 00
	00 00		 mov	 DWORD PTR tv73[rsp], 0
$LN4@getIndex:
  00067	8b 04 24	 mov	 eax, DWORD PTR tv73[rsp]
  0006a	8b 4c 24 04	 mov	 ecx, DWORD PTR m$[rsp]
  0006e	03 c8		 add	 ecx, eax
  00070	8b c1		 mov	 eax, ecx
  00072	48 83 c4 28	 add	 rsp, 40			; 00000028H
  00076	c3		 ret	 0
?getIndex@@YAHH@Z ENDP					; getIndex
_TEXT	ENDS
; Function compile flags: /Odtp
; File e:\infinia-library-3.0\com\include\comfiletypes.h
;	COMDAT ?jISDIR@@YA_NPEAU_WIN32_FIND_DATAA@@@Z
_TEXT	SEGMENT
tv67 = 0
pFD$ = 32
?jISDIR@@YA_NPEAU_WIN32_FIND_DATAA@@@Z PROC		; jISDIR, COMDAT

; 86   : inline bool jISDIR(LPJFILEDATA pFD)		{return (pFD->dwFileAttributes & FILE_ATTRIBUTE_DIRECTORY)?true:false;} //directory?

$LN5:
  00000	48 89 4c 24 08	 mov	 QWORD PTR [rsp+8], rcx
  00005	48 83 ec 18	 sub	 rsp, 24
  00009	48 8b 44 24 20	 mov	 rax, QWORD PTR pFD$[rsp]
  0000e	8b 00		 mov	 eax, DWORD PTR [rax]
  00010	83 e0 10	 and	 eax, 16
  00013	85 c0		 test	 eax, eax
  00015	74 06		 je	 SHORT $LN3@jISDIR
  00017	c6 04 24 01	 mov	 BYTE PTR tv67[rsp], 1
  0001b	eb 04		 jmp	 SHORT $LN4@jISDIR
$LN3@jISDIR:
  0001d	c6 04 24 00	 mov	 BYTE PTR tv67[rsp], 0
$LN4@jISDIR:
  00021	0f b6 04 24	 movzx	 eax, BYTE PTR tv67[rsp]
  00025	48 83 c4 18	 add	 rsp, 24
  00029	c3		 ret	 0
?jISDIR@@YA_NPEAU_WIN32_FIND_DATAA@@@Z ENDP		; jISDIR
_TEXT	ENDS
; Function compile flags: /Odtp
; File e:\infinia-library-3.0\com\include\comfiletypes.h
;	COMDAT ?jISREG@@YA_NPEAU_WIN32_FIND_DATAA@@@Z
_TEXT	SEGMENT
tv67 = 0
pFD$ = 32
?jISREG@@YA_NPEAU_WIN32_FIND_DATAA@@@Z PROC		; jISREG, COMDAT

; 85   : inline bool jISREG(LPJFILEDATA pFD)		{return (pFD->dwFileAttributes & FILE_ATTRIBUTE_DIRECTORY)? false : true;} //regular file?

$LN5:
  00000	48 89 4c 24 08	 mov	 QWORD PTR [rsp+8], rcx
  00005	48 83 ec 18	 sub	 rsp, 24
  00009	48 8b 44 24 20	 mov	 rax, QWORD PTR pFD$[rsp]
  0000e	8b 00		 mov	 eax, DWORD PTR [rax]
  00010	83 e0 10	 and	 eax, 16
  00013	85 c0		 test	 eax, eax
  00015	74 06		 je	 SHORT $LN3@jISREG
  00017	c6 04 24 00	 mov	 BYTE PTR tv67[rsp], 0
  0001b	eb 04		 jmp	 SHORT $LN4@jISREG
$LN3@jISREG:
  0001d	c6 04 24 01	 mov	 BYTE PTR tv67[rsp], 1
$LN4@jISREG:
  00021	0f b6 04 24	 movzx	 eax, BYTE PTR tv67[rsp]
  00025	48 83 c4 18	 add	 rsp, 24
  00029	c3		 ret	 0
?jISREG@@YA_NPEAU_WIN32_FIND_DATAA@@@Z ENDP		; jISREG
_TEXT	ENDS
; Function compile flags: /Odtp
; File e:\infinia-library-3.0\com\include\comfiletypes.h
;	COMDAT ?com_getFileName@@YAXPEAPEADPEAU_WIN32_FIND_DATAA@@@Z
_TEXT	SEGMENT
pFileName$ = 8
pFileData$ = 16
?com_getFileName@@YAXPEAPEADPEAU_WIN32_FIND_DATAA@@@Z PROC ; com_getFileName, COMDAT

; 83   : inline void com_getFileName(TCHAR **pFileName, LPJFILEDATA pFileData) { *pFileName = pFileData->cFileName;}

  00000	48 89 54 24 10	 mov	 QWORD PTR [rsp+16], rdx
  00005	48 89 4c 24 08	 mov	 QWORD PTR [rsp+8], rcx
  0000a	48 8b 44 24 10	 mov	 rax, QWORD PTR pFileData$[rsp]
  0000f	48 83 c0 2c	 add	 rax, 44			; 0000002cH
  00013	48 8b 4c 24 08	 mov	 rcx, QWORD PTR pFileName$[rsp]
  00018	48 89 01	 mov	 QWORD PTR [rcx], rax
  0001b	c3		 ret	 0
?com_getFileName@@YAXPEAPEADPEAU_WIN32_FIND_DATAA@@@Z ENDP ; com_getFileName
_TEXT	ENDS
; Function compile flags: /Odtp
; File e:\infinia-library-3.0\com\include\comfiletypes.h
;	COMDAT ?com_nextFile@@YA_NPEAXPEAU_WIN32_FIND_DATAA@@@Z
_TEXT	SEGMENT
tv68 = 32
dir$ = 64
pFileData$ = 72
?com_nextFile@@YA_NPEAXPEAU_WIN32_FIND_DATAA@@@Z PROC	; com_nextFile, COMDAT

; 82   : inline bool com_nextFile(JPDIR dir, LPJFILEDATA pFileData) { return (FindNextFile(dir, pFileData))?true:false; }

$LN5:
  00000	48 89 54 24 10	 mov	 QWORD PTR [rsp+16], rdx
  00005	48 89 4c 24 08	 mov	 QWORD PTR [rsp+8], rcx
  0000a	48 83 ec 38	 sub	 rsp, 56			; 00000038H
  0000e	48 8b 54 24 48	 mov	 rdx, QWORD PTR pFileData$[rsp]
  00013	48 8b 4c 24 40	 mov	 rcx, QWORD PTR dir$[rsp]
  00018	ff 15 00 00 00
	00		 call	 QWORD PTR __imp_FindNextFileA
  0001e	85 c0		 test	 eax, eax
  00020	74 07		 je	 SHORT $LN3@com_nextFi
  00022	c6 44 24 20 01	 mov	 BYTE PTR tv68[rsp], 1
  00027	eb 05		 jmp	 SHORT $LN4@com_nextFi
$LN3@com_nextFi:
  00029	c6 44 24 20 00	 mov	 BYTE PTR tv68[rsp], 0
$LN4@com_nextFi:
  0002e	0f b6 44 24 20	 movzx	 eax, BYTE PTR tv68[rsp]
  00033	48 83 c4 38	 add	 rsp, 56			; 00000038H
  00037	c3		 ret	 0
?com_nextFile@@YA_NPEAXPEAU_WIN32_FIND_DATAA@@@Z ENDP	; com_nextFile
_TEXT	ENDS
; Function compile flags: /Odtp
; File e:\infinia-library-3.0\com\include\comfiletypes.h
;	COMDAT ?com_findFirstFile@@YAPEAXPEBDPEAU_WIN32_FIND_DATAA@@@Z
_TEXT	SEGMENT
pDirName$ = 48
pFileData$ = 56
?com_findFirstFile@@YAPEAXPEBDPEAU_WIN32_FIND_DATAA@@@Z PROC ; com_findFirstFile, COMDAT

; 81   : inline JPDIR com_findFirstFile(const TCHAR *pDirName, LPJFILEDATA pFileData) { return FindFirstFile(pDirName, pFileData); }

$LN3:
  00000	48 89 54 24 10	 mov	 QWORD PTR [rsp+16], rdx
  00005	48 89 4c 24 08	 mov	 QWORD PTR [rsp+8], rcx
  0000a	48 83 ec 28	 sub	 rsp, 40			; 00000028H
  0000e	48 8b 54 24 38	 mov	 rdx, QWORD PTR pFileData$[rsp]
  00013	48 8b 4c 24 30	 mov	 rcx, QWORD PTR pDirName$[rsp]
  00018	ff 15 00 00 00
	00		 call	 QWORD PTR __imp_FindFirstFileA
  0001e	48 83 c4 28	 add	 rsp, 40			; 00000028H
  00022	c3		 ret	 0
?com_findFirstFile@@YAPEAXPEBDPEAU_WIN32_FIND_DATAA@@@Z ENDP ; com_findFirstFile
_TEXT	ENDS
; Function compile flags: /Odtp
; File e:\infinia-library-3.0\com\include\comfiletypes.h
;	COMDAT ?com_isDirectory@@YA_NPEAD@Z
_TEXT	SEGMENT
res$ = 32
dir$ = 64
?com_isDirectory@@YA_NPEAD@Z PROC			; com_isDirectory, COMDAT

; 80   : inline bool com_isDirectory(TCHAR *dir) { int res = GetFileAttributes(dir); if (res == FILE_ATTRIBUTE_DIRECTORY)return true; return false; }

$LN4:
  00000	48 89 4c 24 08	 mov	 QWORD PTR [rsp+8], rcx
  00005	48 83 ec 38	 sub	 rsp, 56			; 00000038H
  00009	48 8b 4c 24 40	 mov	 rcx, QWORD PTR dir$[rsp]
  0000e	ff 15 00 00 00
	00		 call	 QWORD PTR __imp_GetFileAttributesA
  00014	89 44 24 20	 mov	 DWORD PTR res$[rsp], eax
  00018	83 7c 24 20 10	 cmp	 DWORD PTR res$[rsp], 16
  0001d	75 04		 jne	 SHORT $LN2@com_isDire
  0001f	b0 01		 mov	 al, 1
  00021	eb 02		 jmp	 SHORT $LN1@com_isDire
$LN2@com_isDire:
  00023	32 c0		 xor	 al, al
$LN1@com_isDire:
  00025	48 83 c4 38	 add	 rsp, 56			; 00000038H
  00029	c3		 ret	 0
?com_isDirectory@@YA_NPEAD@Z ENDP			; com_isDirectory
_TEXT	ENDS
; Function compile flags: /Odtp
; File e:\infinia-library-3.0\com\include\comfiletypes.h
;	COMDAT ?com_isFile@@YA_NPEBD@Z
_TEXT	SEGMENT
res$ = 32
file$ = 64
?com_isFile@@YA_NPEBD@Z PROC				; com_isFile, COMDAT

; 79   : inline bool com_isFile(const TCHAR *file) { int res = GetFileAttributes(file); if (res == INVALID_FILE_ATTRIBUTES || res == FILE_ATTRIBUTE_DIRECTORY)return false; return true; }

$LN5:
  00000	48 89 4c 24 08	 mov	 QWORD PTR [rsp+8], rcx
  00005	48 83 ec 38	 sub	 rsp, 56			; 00000038H
  00009	48 8b 4c 24 40	 mov	 rcx, QWORD PTR file$[rsp]
  0000e	ff 15 00 00 00
	00		 call	 QWORD PTR __imp_GetFileAttributesA
  00014	89 44 24 20	 mov	 DWORD PTR res$[rsp], eax
  00018	83 7c 24 20 ff	 cmp	 DWORD PTR res$[rsp], -1	; ffffffffH
  0001d	74 07		 je	 SHORT $LN3@com_isFile
  0001f	83 7c 24 20 10	 cmp	 DWORD PTR res$[rsp], 16
  00024	75 04		 jne	 SHORT $LN2@com_isFile
$LN3@com_isFile:
  00026	32 c0		 xor	 al, al
  00028	eb 02		 jmp	 SHORT $LN1@com_isFile
$LN2@com_isFile:
  0002a	b0 01		 mov	 al, 1
$LN1@com_isFile:
  0002c	48 83 c4 38	 add	 rsp, 56			; 00000038H
  00030	c3		 ret	 0
?com_isFile@@YA_NPEBD@Z ENDP				; com_isFile
_TEXT	ENDS
; Function compile flags: /Odtp
; File e:\infinia-library-3.0\com\include\comfiletypes.h
;	COMDAT ?com_isInvalid@@YA_NPEBD@Z
_TEXT	SEGMENT
fath$ = 48
?com_isInvalid@@YA_NPEBD@Z PROC				; com_isInvalid, COMDAT

; 78   : inline bool com_isInvalid(const TCHAR *fath) { if (GetFileAttributes(fath) == INVALID_FILE_ATTRIBUTES)return true; return false; }

$LN4:
  00000	48 89 4c 24 08	 mov	 QWORD PTR [rsp+8], rcx
  00005	48 83 ec 28	 sub	 rsp, 40			; 00000028H
  00009	48 8b 4c 24 30	 mov	 rcx, QWORD PTR fath$[rsp]
  0000e	ff 15 00 00 00
	00		 call	 QWORD PTR __imp_GetFileAttributesA
  00014	83 f8 ff	 cmp	 eax, -1			; ffffffffH
  00017	75 04		 jne	 SHORT $LN2@com_isInva
  00019	b0 01		 mov	 al, 1
  0001b	eb 02		 jmp	 SHORT $LN1@com_isInva
$LN2@com_isInva:
  0001d	32 c0		 xor	 al, al
$LN1@com_isInva:
  0001f	48 83 c4 28	 add	 rsp, 40			; 00000028H
  00023	c3		 ret	 0
?com_isInvalid@@YA_NPEBD@Z ENDP				; com_isInvalid
_TEXT	ENDS
; Function compile flags: /Odtp
; File e:\infinia-library-3.0\com\include\comfiletypes.h
;	COMDAT ?com_mkdir@@YA_NPEBD@Z
_TEXT	SEGMENT
tv68 = 32
res$ = 36
path$ = 64
?com_mkdir@@YA_NPEBD@Z PROC				; com_mkdir, COMDAT

; 75   : inline bool com_mkdir(const TCHAR *path)	{int res = CreateDirectory(path, NULL); return (res)?true:false; }

$LN5:
  00000	48 89 4c 24 08	 mov	 QWORD PTR [rsp+8], rcx
  00005	48 83 ec 38	 sub	 rsp, 56			; 00000038H
  00009	33 d2		 xor	 edx, edx
  0000b	48 8b 4c 24 40	 mov	 rcx, QWORD PTR path$[rsp]
  00010	ff 15 00 00 00
	00		 call	 QWORD PTR __imp_CreateDirectoryA
  00016	89 44 24 24	 mov	 DWORD PTR res$[rsp], eax
  0001a	83 7c 24 24 00	 cmp	 DWORD PTR res$[rsp], 0
  0001f	74 07		 je	 SHORT $LN3@com_mkdir
  00021	c6 44 24 20 01	 mov	 BYTE PTR tv68[rsp], 1
  00026	eb 05		 jmp	 SHORT $LN4@com_mkdir
$LN3@com_mkdir:
  00028	c6 44 24 20 00	 mov	 BYTE PTR tv68[rsp], 0
$LN4@com_mkdir:
  0002d	0f b6 44 24 20	 movzx	 eax, BYTE PTR tv68[rsp]
  00032	48 83 c4 38	 add	 rsp, 56			; 00000038H
  00036	c3		 ret	 0
?com_mkdir@@YA_NPEBD@Z ENDP				; com_mkdir
_TEXT	ENDS
; Function compile flags: /Odtp
; File c:\program files (x86)\windows kits\10\include\10.0.10240.0\ucrt\tchar.h
;	COMDAT ?_tcsrchr@@YAPEADPEADI@Z
_TEXT	SEGMENT
_S$ = 48
_C$ = 56
?_tcsrchr@@YAPEADPEADI@Z PROC				; _tcsrchr, COMDAT

; 2027 :         {return ((char *)_tcsrchr((const char *)_S, _C)); }

$LN3:
  00000	89 54 24 10	 mov	 DWORD PTR [rsp+16], edx
  00004	48 89 4c 24 08	 mov	 QWORD PTR [rsp+8], rcx
  00009	48 83 ec 28	 sub	 rsp, 40			; 00000028H
  0000d	8b 54 24 38	 mov	 edx, DWORD PTR _C$[rsp]
  00011	48 8b 4c 24 30	 mov	 rcx, QWORD PTR _S$[rsp]
  00016	e8 00 00 00 00	 call	 _tcsrchr
  0001b	48 83 c4 28	 add	 rsp, 40			; 00000028H
  0001f	c3		 ret	 0
?_tcsrchr@@YAPEADPEADI@Z ENDP				; _tcsrchr
_TEXT	ENDS
; Function compile flags: /Odtp
; File c:\program files (x86)\windows kits\10\include\10.0.10240.0\ucrt\tchar.h
;	COMDAT ?_tcschr@@YAPEADPEADI@Z
_TEXT	SEGMENT
_S$ = 48
_C$ = 56
?_tcschr@@YAPEADPEADI@Z PROC				; _tcschr, COMDAT

; 2023 :         {return ((char *)_tcschr((const char *)_S, _C)); }

$LN3:
  00000	89 54 24 10	 mov	 DWORD PTR [rsp+16], edx
  00004	48 89 4c 24 08	 mov	 QWORD PTR [rsp+8], rcx
  00009	48 83 ec 28	 sub	 rsp, 40			; 00000028H
  0000d	8b 54 24 38	 mov	 edx, DWORD PTR _C$[rsp]
  00011	48 8b 4c 24 30	 mov	 rcx, QWORD PTR _S$[rsp]
  00016	e8 00 00 00 00	 call	 _tcschr
  0001b	48 83 c4 28	 add	 rsp, 40			; 00000028H
  0001f	c3		 ret	 0
?_tcschr@@YAPEADPEADI@Z ENDP				; _tcschr
_TEXT	ENDS
; Function compile flags: /Odtp
; File c:\program files (x86)\windows kits\10\include\10.0.10240.0\ucrt\tchar.h
;	COMDAT _tcscmp
_TEXT	SEGMENT
_s1$ = 48
_s2$ = 56
_tcscmp	PROC						; COMDAT

; 1669 : _Check_return_ __inline int _tcscmp(_In_ _CPC _s1,_In_ _CPC _s2) {return _mbscmp((_CPUC)_s1,(_CPUC)_s2);}

$LN3:
  00000	48 89 54 24 10	 mov	 QWORD PTR [rsp+16], rdx
  00005	48 89 4c 24 08	 mov	 QWORD PTR [rsp+8], rcx
  0000a	48 83 ec 28	 sub	 rsp, 40			; 00000028H
  0000e	48 8b 54 24 38	 mov	 rdx, QWORD PTR _s2$[rsp]
  00013	48 8b 4c 24 30	 mov	 rcx, QWORD PTR _s1$[rsp]
  00018	ff 15 00 00 00
	00		 call	 QWORD PTR __imp__mbscmp
  0001e	48 83 c4 28	 add	 rsp, 40			; 00000028H
  00022	c3		 ret	 0
_tcscmp	ENDP
_TEXT	ENDS
; Function compile flags: /Odtp
; File c:\program files (x86)\windows kits\10\include\10.0.10240.0\ucrt\tchar.h
;	COMDAT _tcsrchr
_TEXT	SEGMENT
_s1$ = 48
_c$ = 56
_tcsrchr PROC						; COMDAT

; 1569 : _Check_return_ __inline _CRPC _tcsrchr(_In_ _CPC _s1,_In_ _UI _c) {return (_CRPC)_mbsrchr((_CPUC)_s1,_c);}

$LN3:
  00000	89 54 24 10	 mov	 DWORD PTR [rsp+16], edx
  00004	48 89 4c 24 08	 mov	 QWORD PTR [rsp+8], rcx
  00009	48 83 ec 28	 sub	 rsp, 40			; 00000028H
  0000d	8b 54 24 38	 mov	 edx, DWORD PTR _c$[rsp]
  00011	48 8b 4c 24 30	 mov	 rcx, QWORD PTR _s1$[rsp]
  00016	ff 15 00 00 00
	00		 call	 QWORD PTR __imp__mbsrchr
  0001c	48 83 c4 28	 add	 rsp, 40			; 00000028H
  00020	c3		 ret	 0
_tcsrchr ENDP
_TEXT	ENDS
; Function compile flags: /Odtp
; File c:\program files (x86)\windows kits\10\include\10.0.10240.0\ucrt\tchar.h
;	COMDAT _tcsncpy
_TEXT	SEGMENT
_Dst$ = 48
_Source$ = 56
_Count$ = 64
_tcsncpy PROC						; COMDAT

; 1542 : {

$LN3:
  00000	4c 89 44 24 18	 mov	 QWORD PTR [rsp+24], r8
  00005	48 89 54 24 10	 mov	 QWORD PTR [rsp+16], rdx
  0000a	48 89 4c 24 08	 mov	 QWORD PTR [rsp+8], rcx
  0000f	48 83 ec 28	 sub	 rsp, 40			; 00000028H

; 1543 : #pragma warning(push)
; 1544 : #pragma warning(disable:4996)
; 1545 :     return (char *)_mbsnbcpy((unsigned char *)_Dst,(const unsigned char *)_Source,_Count);

  00013	4c 8b 44 24 40	 mov	 r8, QWORD PTR _Count$[rsp]
  00018	48 8b 54 24 38	 mov	 rdx, QWORD PTR _Source$[rsp]
  0001d	48 8b 4c 24 30	 mov	 rcx, QWORD PTR _Dst$[rsp]
  00022	ff 15 00 00 00
	00		 call	 QWORD PTR __imp__mbsnbcpy

; 1546 : #pragma warning(pop)
; 1547 : }

  00028	48 83 c4 28	 add	 rsp, 40			; 00000028H
  0002c	c3		 ret	 0
_tcsncpy ENDP
_TEXT	ENDS
; Function compile flags: /Odtp
; File c:\program files (x86)\windows kits\10\include\10.0.10240.0\ucrt\tchar.h
;	COMDAT _tcschr
_TEXT	SEGMENT
_s1$ = 48
_c$ = 56
_tcschr	PROC						; COMDAT

; 1497 : __inline _CRPC _tcschr(_In_ _CPC _s1,_In_ _UI _c) {return (_CRPC)_mbschr((_CPUC)_s1,_c);}

$LN3:
  00000	89 54 24 10	 mov	 DWORD PTR [rsp+16], edx
  00004	48 89 4c 24 08	 mov	 QWORD PTR [rsp+8], rcx
  00009	48 83 ec 28	 sub	 rsp, 40			; 00000028H
  0000d	8b 54 24 38	 mov	 edx, DWORD PTR _c$[rsp]
  00011	48 8b 4c 24 30	 mov	 rcx, QWORD PTR _s1$[rsp]
  00016	ff 15 00 00 00
	00		 call	 QWORD PTR __imp__mbschr
  0001c	48 83 c4 28	 add	 rsp, 40			; 00000028H
  00020	c3		 ret	 0
_tcschr	ENDP
_TEXT	ENDS
; Function compile flags: /Odtp
; File c:\program files (x86)\windows kits\10\include\10.0.10240.0\ucrt\string.h
;	COMDAT ?strchr@@YAPEADQEADH@Z
_TEXT	SEGMENT
_String$ = 48
_Ch$ = 56
?strchr@@YAPEADQEADH@Z PROC				; strchr, COMDAT

; 518  :     {

$LN3:
  00000	89 54 24 10	 mov	 DWORD PTR [rsp+16], edx
  00004	48 89 4c 24 08	 mov	 QWORD PTR [rsp+8], rcx
  00009	48 83 ec 28	 sub	 rsp, 40			; 00000028H

; 519  :         return const_cast<char*>(strchr(static_cast<char const*>(_String), _Ch));

  0000d	8b 54 24 38	 mov	 edx, DWORD PTR _Ch$[rsp]
  00011	48 8b 4c 24 30	 mov	 rcx, QWORD PTR _String$[rsp]
  00016	ff 15 00 00 00
	00		 call	 QWORD PTR __imp_strchr

; 520  :     }

  0001c	48 83 c4 28	 add	 rsp, 40			; 00000028H
  00020	c3		 ret	 0
?strchr@@YAPEADQEADH@Z ENDP				; strchr
_TEXT	ENDS
; Function compile flags: /Odtp
; File c:\program files (x86)\windows kits\10\include\10.0.10240.0\ucrt\stdio.h
;	COMDAT sprintf
_TEXT	SEGMENT
_Result$ = 32
_ArgList$ = 40
__$ArrayPad$ = 48
_Buffer$ = 80
_Format$ = 88
sprintf	PROC						; COMDAT

; 1776 : {

$LN3:
  00000	48 89 54 24 10	 mov	 QWORD PTR [rsp+16], rdx
  00005	48 89 4c 24 08	 mov	 QWORD PTR [rsp+8], rcx
  0000a	4c 89 44 24 18	 mov	 QWORD PTR [rsp+24], r8
  0000f	4c 89 4c 24 20	 mov	 QWORD PTR [rsp+32], r9
  00014	48 83 ec 48	 sub	 rsp, 72			; 00000048H
  00018	48 8b 05 00 00
	00 00		 mov	 rax, QWORD PTR __security_cookie
  0001f	48 33 c4	 xor	 rax, rsp
  00022	48 89 44 24 30	 mov	 QWORD PTR __$ArrayPad$[rsp], rax

; 1777 :     int _Result;
; 1778 :     va_list _ArgList;
; 1779 :     __crt_va_start(_ArgList, _Format);

  00027	e8 00 00 00 00	 call	 ??$__vcrt_va_start_verify_argument_type@QEBD@@YAXXZ ; __vcrt_va_start_verify_argument_type<char const * __ptr64 const>
  0002c	48 8d 44 24 60	 lea	 rax, QWORD PTR _Format$[rsp+8]
  00031	48 89 44 24 28	 mov	 QWORD PTR _ArgList$[rsp], rax

; 1780 : 
; 1781 :     #pragma warning(push)
; 1782 :     #pragma warning(disable: 4996) // Deprecation
; 1783 :     _Result = _vsprintf_l(_Buffer, _Format, NULL, _ArgList);

  00036	4c 8b 4c 24 28	 mov	 r9, QWORD PTR _ArgList$[rsp]
  0003b	45 33 c0	 xor	 r8d, r8d
  0003e	48 8b 54 24 58	 mov	 rdx, QWORD PTR _Format$[rsp]
  00043	48 8b 4c 24 50	 mov	 rcx, QWORD PTR _Buffer$[rsp]
  00048	e8 00 00 00 00	 call	 _vsprintf_l
  0004d	89 44 24 20	 mov	 DWORD PTR _Result$[rsp], eax

; 1784 :     #pragma warning(pop)
; 1785 : 
; 1786 :     __crt_va_end(_ArgList);

  00051	48 c7 44 24 28
	00 00 00 00	 mov	 QWORD PTR _ArgList$[rsp], 0

; 1787 :     return _Result;

  0005a	8b 44 24 20	 mov	 eax, DWORD PTR _Result$[rsp]

; 1788 : }

  0005e	48 8b 4c 24 30	 mov	 rcx, QWORD PTR __$ArrayPad$[rsp]
  00063	48 33 cc	 xor	 rcx, rsp
  00066	e8 00 00 00 00	 call	 __security_check_cookie
  0006b	48 83 c4 48	 add	 rsp, 72			; 00000048H
  0006f	c3		 ret	 0
sprintf	ENDP
_TEXT	ENDS
; Function compile flags: /Odtp
; File c:\program files (x86)\windows kits\10\include\10.0.10240.0\ucrt\stdio.h
;	COMDAT _vsprintf_l
_TEXT	SEGMENT
_Buffer$ = 64
_Format$ = 72
_Locale$ = 80
_ArgList$ = 88
_vsprintf_l PROC					; COMDAT

; 1455 : {

$LN3:
  00000	4c 89 4c 24 20	 mov	 QWORD PTR [rsp+32], r9
  00005	4c 89 44 24 18	 mov	 QWORD PTR [rsp+24], r8
  0000a	48 89 54 24 10	 mov	 QWORD PTR [rsp+16], rdx
  0000f	48 89 4c 24 08	 mov	 QWORD PTR [rsp+8], rcx
  00014	48 83 ec 38	 sub	 rsp, 56			; 00000038H

; 1456 :     #pragma warning(push)
; 1457 :     #pragma warning(disable: 4996) // Deprecation
; 1458 :     return _vsnprintf_l(_Buffer, (size_t)-1, _Format, _Locale, _ArgList);

  00018	48 8b 44 24 58	 mov	 rax, QWORD PTR _ArgList$[rsp]
  0001d	48 89 44 24 20	 mov	 QWORD PTR [rsp+32], rax
  00022	4c 8b 4c 24 50	 mov	 r9, QWORD PTR _Locale$[rsp]
  00027	4c 8b 44 24 48	 mov	 r8, QWORD PTR _Format$[rsp]
  0002c	48 c7 c2 ff ff
	ff ff		 mov	 rdx, -1
  00033	48 8b 4c 24 40	 mov	 rcx, QWORD PTR _Buffer$[rsp]
  00038	e8 00 00 00 00	 call	 _vsnprintf_l

; 1459 :     #pragma warning(pop)
; 1460 : }

  0003d	48 83 c4 38	 add	 rsp, 56			; 00000038H
  00041	c3		 ret	 0
_vsprintf_l ENDP
_TEXT	ENDS
; Function compile flags: /Odtp
; File c:\program files (x86)\windows kits\10\include\10.0.10240.0\ucrt\stdio.h
;	COMDAT _vsnprintf_l
_TEXT	SEGMENT
_Result$ = 48
tv74 = 52
_Buffer$ = 80
_BufferCount$ = 88
_Format$ = 96
_Locale$ = 104
_ArgList$ = 112
_vsnprintf_l PROC					; COMDAT

; 1385 : {

$LN5:
  00000	4c 89 4c 24 20	 mov	 QWORD PTR [rsp+32], r9
  00005	4c 89 44 24 18	 mov	 QWORD PTR [rsp+24], r8
  0000a	48 89 54 24 10	 mov	 QWORD PTR [rsp+16], rdx
  0000f	48 89 4c 24 08	 mov	 QWORD PTR [rsp+8], rcx
  00014	48 83 ec 48	 sub	 rsp, 72			; 00000048H

; 1386 :     int const _Result = __stdio_common_vsprintf(

  00018	e8 00 00 00 00	 call	 __local_stdio_printf_options
  0001d	48 8b 00	 mov	 rax, QWORD PTR [rax]
  00020	48 83 c8 01	 or	 rax, 1
  00024	48 8b 4c 24 70	 mov	 rcx, QWORD PTR _ArgList$[rsp]
  00029	48 89 4c 24 28	 mov	 QWORD PTR [rsp+40], rcx
  0002e	48 8b 4c 24 68	 mov	 rcx, QWORD PTR _Locale$[rsp]
  00033	48 89 4c 24 20	 mov	 QWORD PTR [rsp+32], rcx
  00038	4c 8b 4c 24 60	 mov	 r9, QWORD PTR _Format$[rsp]
  0003d	4c 8b 44 24 58	 mov	 r8, QWORD PTR _BufferCount$[rsp]
  00042	48 8b 54 24 50	 mov	 rdx, QWORD PTR _Buffer$[rsp]
  00047	48 8b c8	 mov	 rcx, rax
  0004a	ff 15 00 00 00
	00		 call	 QWORD PTR __imp___stdio_common_vsprintf
  00050	89 44 24 30	 mov	 DWORD PTR _Result$[rsp], eax

; 1387 :         _CRT_INTERNAL_LOCAL_PRINTF_OPTIONS | _CRT_INTERNAL_PRINTF_LEGACY_VSPRINTF_NULL_TERMINATION,
; 1388 :         _Buffer, _BufferCount, _Format, _Locale, _ArgList);
; 1389 : 
; 1390 :     return _Result < 0 ? -1 : _Result;

  00054	83 7c 24 30 00	 cmp	 DWORD PTR _Result$[rsp], 0
  00059	7d 0a		 jge	 SHORT $LN3@vsnprintf_
  0005b	c7 44 24 34 ff
	ff ff ff	 mov	 DWORD PTR tv74[rsp], -1
  00063	eb 08		 jmp	 SHORT $LN4@vsnprintf_
$LN3@vsnprintf_:
  00065	8b 44 24 30	 mov	 eax, DWORD PTR _Result$[rsp]
  00069	89 44 24 34	 mov	 DWORD PTR tv74[rsp], eax
$LN4@vsnprintf_:
  0006d	8b 44 24 34	 mov	 eax, DWORD PTR tv74[rsp]

; 1391 : }

  00071	48 83 c4 48	 add	 rsp, 72			; 00000048H
  00075	c3		 ret	 0
_vsnprintf_l ENDP
_TEXT	ENDS
; Function compile flags: /Odtp
; File c:\program files (x86)\windows kits\10\include\10.0.10240.0\ucrt\stdio.h
;	COMDAT printf
_TEXT	SEGMENT
_Result$ = 32
_ArgList$ = 40
__$ArrayPad$ = 48
_Format$ = 80
printf	PROC						; COMDAT

; 950  : {

$LN3:
  00000	48 89 4c 24 08	 mov	 QWORD PTR [rsp+8], rcx
  00005	48 89 54 24 10	 mov	 QWORD PTR [rsp+16], rdx
  0000a	4c 89 44 24 18	 mov	 QWORD PTR [rsp+24], r8
  0000f	4c 89 4c 24 20	 mov	 QWORD PTR [rsp+32], r9
  00014	48 83 ec 48	 sub	 rsp, 72			; 00000048H
  00018	48 8b 05 00 00
	00 00		 mov	 rax, QWORD PTR __security_cookie
  0001f	48 33 c4	 xor	 rax, rsp
  00022	48 89 44 24 30	 mov	 QWORD PTR __$ArrayPad$[rsp], rax

; 951  :     int _Result;
; 952  :     va_list _ArgList;
; 953  :     __crt_va_start(_ArgList, _Format);

  00027	e8 00 00 00 00	 call	 ??$__vcrt_va_start_verify_argument_type@QEBD@@YAXXZ ; __vcrt_va_start_verify_argument_type<char const * __ptr64 const>
  0002c	48 8d 44 24 58	 lea	 rax, QWORD PTR _Format$[rsp+8]
  00031	48 89 44 24 28	 mov	 QWORD PTR _ArgList$[rsp], rax

; 954  :     _Result = _vfprintf_l(stdout, _Format, NULL, _ArgList);

  00036	b9 01 00 00 00	 mov	 ecx, 1
  0003b	ff 15 00 00 00
	00		 call	 QWORD PTR __imp___acrt_iob_func
  00041	4c 8b 4c 24 28	 mov	 r9, QWORD PTR _ArgList$[rsp]
  00046	45 33 c0	 xor	 r8d, r8d
  00049	48 8b 54 24 50	 mov	 rdx, QWORD PTR _Format$[rsp]
  0004e	48 8b c8	 mov	 rcx, rax
  00051	e8 00 00 00 00	 call	 _vfprintf_l
  00056	89 44 24 20	 mov	 DWORD PTR _Result$[rsp], eax

; 955  :     __crt_va_end(_ArgList);

  0005a	48 c7 44 24 28
	00 00 00 00	 mov	 QWORD PTR _ArgList$[rsp], 0

; 956  :     return _Result;

  00063	8b 44 24 20	 mov	 eax, DWORD PTR _Result$[rsp]

; 957  : }

  00067	48 8b 4c 24 30	 mov	 rcx, QWORD PTR __$ArrayPad$[rsp]
  0006c	48 33 cc	 xor	 rcx, rsp
  0006f	e8 00 00 00 00	 call	 __security_check_cookie
  00074	48 83 c4 48	 add	 rsp, 72			; 00000048H
  00078	c3		 ret	 0
printf	ENDP
_TEXT	ENDS
; Function compile flags: /Odtp
; File c:\program files (x86)\microsoft visual studio 14.0\vc\include\vadefs.h
;	COMDAT ??$__vcrt_va_start_verify_argument_type@QEBD@@YAXXZ
_TEXT	SEGMENT
??$__vcrt_va_start_verify_argument_type@QEBD@@YAXXZ PROC ; __vcrt_va_start_verify_argument_type<char const * __ptr64 const>, COMDAT

; 145  :             static_assert(!__vcrt_va_list_is_reference<_Ty>::__the_value, "va_start argument must not have reference type and must not be parenthesized");
; 146  :         }

  00000	c3		 ret	 0
??$__vcrt_va_start_verify_argument_type@QEBD@@YAXXZ ENDP ; __vcrt_va_start_verify_argument_type<char const * __ptr64 const>
_TEXT	ENDS
; Function compile flags: /Odtp
