; Listing generated by Microsoft (R) Optimizing Compiler Version 19.00.24215.1 

include listing.inc

INCLUDELIB MSVCRT
INCLUDELIB OLDNAMES

PUBLIC	?g_szKeepDuratrion@@3PADA			; g_szKeepDuratrion
PUBLIC	?g_szLogExtension@@3PADA			; g_szLogExtension
_DATA	SEGMENT
?g_szKeepDuratrion@@3PADA DB '15D', 00H			; g_szKeepDuratrion
	ORG $+4
?g_szLogExtension@@3PADA DB 'log', 00H			; g_szLogExtension
	ORG $+4
_DATA	ENDS
CONST	SEGMENT
$SG86365 DB	'LIST_MAX', 00H
$SG86437 DB	00H
$SG86886 DB	00H
	ORG $+5
$SG86366 DB	'DATETIME_EXPRESSION', 00H
$SG86448 DB	'Log', 00H
$SG86369 DB	'CTimeExpManager::initConfig', 00H
$SG86592 DB	'%s', 00H
	ORG $+1
$SG86370 DB	'new CList() is NULL!', 09H, '%s%d', 0aH, 00H
	ORG $+1
$SG86598 DB	'%c', 00H
	ORG $+1
$SG86372 DB	'CTimeExpManager::initConfig', 00H
$SG86601 DB	'%c', 00H
	ORG $+1
$SG86373 DB	'm_pTimeExpList->alloc has Failed!', 09H, '%s%d', 0aH, 00H
$SG86376 DB	'DATETIME_EXPRESSION_%d', 00H
	ORG $+1
$SG86377 DB	'IS_TIME_DELIMETER', 00H
	ORG $+2
$SG86449 DB	'LOGDIR', 00H
	ORG $+1
$SG86623 DB	'%s', 00H
	ORG $+1
$SG86378 DB	'DATE_DELIMETER', 00H
	ORG $+1
$SG86379 DB	'IS_BRACKET_ENCLOSED', 00H
$SG86625 DB	' %s', 00H
$SG86380 DB	'LAST_TYPE', 00H
	ORG $+2
$SG86463 DB	'STL_NO', 00H
	ORG $+1
$SG86641 DB	'a+', 00H
	ORG $+1
$SG86381 DB	'YEAR_LEN', 00H
	ORG $+3
$SG86602 DB	'%02d ', 00H
	ORG $+2
$SG86891 DB	'%s%s%c', 00H
	ORG $+5
$SG86382 DB	'TZ_TYPE', 00H
$SG86412 DB	'CLogger::initDefault', 00H
	ORG $+3
$SG86413 DB	'pDir is NULL', 00H
	ORG $+3
$SG86418 DB	'CLogger::initDefault', 00H
	ORG $+3
$SG86419 DB	'_setLoggerQueue has Failed', 00H
	ORG $+5
$SG86421 DB	'CLogger::initDefault', 00H
	ORG $+3
$SG86422 DB	'_setHeaderFormat has Failed', 00H
$SG86585 DB	'%04d', 00H
	ORG $+7
?gs_fmtStr@@3QAY0M@$$CBDA DB 00H			; gs_fmtStr
	ORG $+11
	DB	'[DEBUG] ', 00H
	ORG $+3
	DB	'[TRACE] ', 00H
	ORG $+3
	DB	'[INFO] ', 00H
	ORG $+4
	DB	'[WARNING] ', 00H
	ORG $+1
	DB	'[ERROR] ', 00H
	ORG $+3
	DB	'[FATAL] ', 00H
	ORG $+3
	DB	'[ALARM] ', 00H
	ORG $+3
$SG86438 DB	'LOGNAME', 00H
$SG86443 DB	'CLogger::initConfig', 00H
	ORG $+4
$SG86444 DB	'LOGNAME is NULL!', 00H
	ORG $+7
$SG86445 DB	'ISENABLE', 00H
	ORG $+7
$SG86450 DB	'EXTENSION', 00H
	ORG $+6
$SG86451 DB	'KEEP_DURATION', 00H
	ORG $+2
$SG86452 DB	'LIST_MAX', 00H
	ORG $+7
$SG86454 DB	'CLogger::initConfig', 00H
	ORG $+4
$SG86455 DB	'_setLoggerQueue has Failed', 00H
	ORG $+5
$SG86456 DB	'TIMESTEMP_NO', 00H
	ORG $+3
$SG86458 DB	'invalid value[%d]! pSection[%s]', 00H
$SG86459 DB	'CLogger::initConfig', 00H
	ORG $+4
$SG86461 DB	'CLogger::initConfig', 00H
	ORG $+4
$SG86462 DB	'_setHeaderFormat has Failed', 00H
	ORG $+4
$SG86464 DB	'LOGTYPE', 00H
$SG86465 DB	'SIZE_LIMIT', 00H
	ORG $+5
$SG86466 DB	'IS_PRINT_LEVEL', 00H
	ORG $+1
$SG86467 DB	'IS_PRINT', 00H
	ORG $+7
$SG86469 DB	'LOGLEVEL', 00H
	ORG $+7
$SG86480 DB	'Logger is not Initialized!', 00H
	ORG $+5
$SG86483 DB	'TYPE_DAILY', 00H
	ORG $+5
$SG86486 DB	'TYPE_HOURLY', 00H
	ORG $+4
$SG86488 DB	'TYPE_FILE', 00H
	ORG $+6
$SG86489 DB	'================================================', 0aH, 00H
	ORG $+6
$SG86490 DB	'Logger Path[%s] Prefix[%s] Extension[%s]', 0aH, 00H
	ORG $+6
$SG86491 DB	'Logger SizeLimit[%d] LogLevel[%d] LogType[%s]', 0aH, 00H
	ORG $+1
$SG86492 DB	'KeepDuration : %02d days %02d:%02d:%02d', 00H
$SG86493 DB	'Logger KeepDuration[%s]', 0aH, 00H
	ORG $+7
$SG86494 DB	'================================================', 0aH, 00H
	ORG $+6
$SG86528 DB	'm_sLogQueue.alloc(20, eAlloc_Type_BufPool) has Failed', 00H
	ORG $+2
$SG86529 DB	'CLogger::_setLoggerQueue', 00H
	ORG $+7
$SG86532 DB	'm_sLogQueue.realloc(%d,true) has Failed', 00H
$SG86533 DB	'CLogger::_setLoggerQueue', 00H
	ORG $+7
$SG86556 DB	'm_pDTE is NULL! nTimeStempNo[%d]', 00H
	ORG $+7
$SG86557 DB	'CLogger::_setHeaderFormat', 00H
	ORG $+6
$SG86565 DB	'%s%d_%s.%s', 00H
	ORG $+5
$SG86568 DB	'%s%d%c%s_%02d.%s', 00H
	ORG $+7
$SG86570 DB	'%s%s.%s', 00H
$SG86599 DB	'%02d', 00H
	ORG $+3
$SG86605 DB	'%02d:%02d:%02d', 00H
	ORG $+1
$SG86606 DB	'%02d%02d%02d', 00H
	ORG $+3
$SG86608 DB	'.%03d', 00H
	ORG $+2
$SG86610 DB	'.%06d', 00H
	ORG $+2
$SG86612 DB	'.%09d', 00H
	ORG $+2
$SG86637 DB	'%s.%d', 00H
	ORG $+2
$SG86643 DB	'Can''t create log file [%s]', 0aH, 00H
$SG86700 DB	' %s ', 00H
	ORG $+7
$SG86721 DB	' nSIdx[%d] Send [%d] PKIdx[%d] ', 00H
$SG86722 DB	' nSIdx[%d] Recv [%d] PKIdx[%d] ', 00H
$SG86723 DB	' nSIdx[%d] send Queue [%d] PKIdx[%d] ', 00H
	ORG $+2
$SG86724 DB	' nSIdx[%d] recv Queue [%d] PKIdx[%d] ', 00H
	ORG $+2
$SG86725 DB	' Undefind nkind[%d] [%d] PKIdx[%d] ', 00H
$SG86728 DB	'%02x ', 00H
	ORG $+6
$SG86749 DB	' %s, %d, %s ', 00H
	ORG $+3
$SG86767 DB	' %s ', 00H
	ORG $+3
$SG86789 DB	'%s/%d_%s.%s', 00H
	ORG $+4
$SG86792 DB	'%s/%d/%s_%02d.%s', 00H
	ORG $+7
$SG86811 DB	'%s/%d_%s', 00H
	ORG $+7
$SG86814 DB	'%s/%d/%s_%02d.%s', 00H
	ORG $+3
$SG86816 DB	'%s/%s', 00H
	ORG $+6
$SG86833 DB	'GetKeepInfo nStrLen < 2', 0aH, 00H
	ORG $+3
$SG86860 DB	'%s%s', 00H
	ORG $+3
$SG86873 DB	'%s%s', 00H
	ORG $+3
$SG86892 DB	'%s%c', 00H
CONST	ENDS
PUBLIC	_tcsncpy
PUBLIC	_tcsrchr
PUBLIC	_tcscmp
PUBLIC	__local_stdio_printf_options
PUBLIC	_vfprintf_l
PUBLIC	fprintf
PUBLIC	??$__vcrt_va_start_verify_argument_type@QEBD@@YAXXZ ; __vcrt_va_start_verify_argument_type<char const * __ptr64 const>
PUBLIC	printf
PUBLIC	_vsnprintf_l
PUBLIC	_vsnprintf
PUBLIC	vsnprintf
PUBLIC	_vsprintf_l
PUBLIC	sprintf
PUBLIC	?ISINCLUDE@@YA_NHH@Z				; ISINCLUDE
PUBLIC	?comGlobalErrorProc@@YAXPEADPEBDH@Z		; comGlobalErrorProc
PUBLIC	?capacity@CQueueS@@QEAAHXZ			; CQueueS::capacity
PUBLIC	?TimezoneString@CDateTime@@QEAAPEBDXZ		; CDateTime::TimezoneString
PUBLIC	?getIndex@@YAHH@Z				; getIndex
PUBLIC	?newBuf@CMemManager@@QEAAPEADH@Z		; CMemManager::newBuf
PUBLIC	?alloc@CSList@@QEAAHHW4E_ALLOC_TYPE@@@Z		; CSList::alloc
PUBLIC	?getObj@CSList@@QEAAPEAXH@Z			; CSList::getObj
PUBLIC	?__autoclassinit2@CSList@@QEAAX_K@Z		; CSList::__autoclassinit2
PUBLIC	??_GCSList@@QEAAPEAXI@Z				; CSList::`scalar deleting destructor'
PUBLIC	??0CTimeExpManager@@QEAA@XZ			; CTimeExpManager::CTimeExpManager
PUBLIC	??1CTimeExpManager@@QEAA@XZ			; CTimeExpManager::~CTimeExpManager
PUBLIC	?initConfig@CTimeExpManager@@QEAA_NPEAD@Z	; CTimeExpManager::initConfig
PUBLIC	?getDTE@CTimeExpManager@@QEAAPEAUSTLogDateTimeExp@@H@Z ; CTimeExpManager::getDTE
PUBLIC	?__autoclassinit2@CTimeExpManager@@QEAAX_K@Z	; CTimeExpManager::__autoclassinit2
PUBLIC	??0CLogger@@QEAA@XZ				; CLogger::CLogger
PUBLIC	??1CLogger@@QEAA@XZ				; CLogger::~CLogger
PUBLIC	?initDefault@CLogger@@QEAA_NPEAD0HHH0@Z		; CLogger::initDefault
PUBLIC	?initConfig@CLogger@@QEAA?AW4E_LOG_INIT_RES@@PEAD0@Z ; CLogger::initConfig
PUBLIC	?OpenLogger@CLogger@@QEAAXXZ			; CLogger::OpenLogger
PUBLIC	?setLogFlag@CLogger@@QEAAXW4E_LOG_FLAG@@@Z	; CLogger::setLogFlag
PUBLIC	?clearLogFlag@CLogger@@QEAAXW4E_LOG_FLAG@@@Z	; CLogger::clearLogFlag
PUBLIC	?isLogFlag@CLogger@@QEAA_NW4E_LOG_FLAG@@@Z	; CLogger::isLogFlag
PUBLIC	?setHeader@CLogger@@QEAAHPEADH@Z		; CLogger::setHeader
PUBLIC	?PutLogQueue@CLogger@@QEAAXHPEBDZZ		; CLogger::PutLogQueue
PUBLIC	?PutLogQueue@CLogger@@QEAAXHPEAD@Z		; CLogger::PutLogQueue
PUBLIC	?Log@CLogger@@QEAAXHPEBD00_N@Z			; CLogger::Log
PUBLIC	?LogPrint@CLogger@@QEAAXPEAD@Z			; CLogger::LogPrint
PUBLIC	?LogPrint@CLogger@@QEAAXHPEBDZZ			; CLogger::LogPrint
PUBLIC	?WritePacket@CLogger@@QEAAXHHHPEADH@Z		; CLogger::WritePacket
PUBLIC	?disable@CLogger@@QEAAXXZ			; CLogger::disable
PUBLIC	?checkChangeProc@CLogger@@QEAAXH@Z		; CLogger::checkChangeProc
PUBLIC	?__debugLog@CLogger@@QEAAXHPEBDH0ZZ		; CLogger::__debugLog
PUBLIC	?getString@CLogger@@QEAAHPEAD@Z			; CLogger::getString
PUBLIC	?putQueue@CLogger@@QEAAXPEAD@Z			; CLogger::putQueue
PUBLIC	?_initCom@CLogger@@AEAAXPEAD000@Z		; CLogger::_initCom
PUBLIC	?_setHeaderFormat@CLogger@@AEAA_NH@Z		; CLogger::_setHeaderFormat
PUBLIC	?_setLoggerBasic@CLogger@@AEAAXHHH@Z		; CLogger::_setLoggerBasic
PUBLIC	?_setLoggerQueue@CLogger@@AEAA_NH@Z		; CLogger::_setLoggerQueue
PUBLIC	?setLogName@CLogger@@AEAAXPEAD@Z		; CLogger::setLogName
PUBLIC	?setDateTimeFormat@CLogger@@AEAAXPEAUSTLogDateTimeExp@@@Z ; CLogger::setDateTimeFormat
PUBLIC	?GetKeepInfo@CLogger@@AEAAHPEBD@Z		; CLogger::GetKeepInfo
PUBLIC	?checkDeleteProc@CLogger@@AEAAXXZ		; CLogger::checkDeleteProc
PUBLIC	?__openLogger@CLogger@@AEAAXPEBDH@Z		; CLogger::__openLogger
PUBLIC	?__autoclassinit2@CLogger@@QEAAX_K@Z		; CLogger::__autoclassinit2
PUBLIC	?changeToAbsolutePath@@YAXPEADPEBD@Z		; changeToAbsolutePath
PUBLIC	?changeToAbsolutePathFile@@YAXPEADPEBD@Z	; changeToAbsolutePathFile
PUBLIC	?GetProfilePath@@YAHPEBD00PEAD0@Z		; GetProfilePath
PUBLIC	?detachFullPath@@YAXPEBDPEAD1@Z			; detachFullPath
PUBLIC	?init@STDelInfo@@QEAAXPEAD_N1PEAX@Z		; STDelInfo::init
PUBLIC	??$__vcrt_va_start_verify_argument_type@PEBD@@YAXXZ ; __vcrt_va_start_verify_argument_type<char const * __ptr64>
PUBLIC	?_OptionsStorage@?1??__local_stdio_printf_options@@9@4_KA ; `__local_stdio_printf_options'::`2'::_OptionsStorage
PUBLIC	??_C@_0BD@KEHDJCKJ@ERROR?$CB?5?$FL?$CFs?3?$CFd?$FN?5?$CFs?6?$AA@ ; `string'
PUBLIC	?gs_cLogger@@3VCLogger@@A			; gs_cLogger
PUBLIC	?gs_DTEManager@@3VCTimeExpManager@@A		; gs_DTEManager
EXTRN	??2@YAPEAX_K@Z:PROC				; operator new
EXTRN	??3@YAXPEAX_K@Z:PROC				; operator delete
EXTRN	??_U@YAPEAX_K@Z:PROC				; operator new[]
EXTRN	??_V@YAXPEAX@Z:PROC				; operator delete[]
EXTRN	atexit:PROC
EXTRN	__report_rangecheckfailure:PROC
EXTRN	__imp__strdup:PROC
EXTRN	__imp__mbscmp:PROC
EXTRN	__imp__mbsnbcpy:PROC
EXTRN	__imp__mbsrchr:PROC
EXTRN	__imp___acrt_iob_func:PROC
EXTRN	__imp_fclose:PROC
EXTRN	__imp_fflush:PROC
EXTRN	__imp_fopen:PROC
EXTRN	__imp___stdio_common_vfprintf:PROC
EXTRN	__imp___stdio_common_vsprintf:PROC
EXTRN	__imp_GetPrivateProfileIntA:PROC
EXTRN	__imp_GetPrivateProfileStringA:PROC
EXTRN	__imp_free:PROC
EXTRN	__imp_malloc:PROC
EXTRN	__imp_atoi:PROC
EXTRN	__imp__time64:PROC
EXTRN	??0CQueueS@@QEAA@XZ:PROC			; CQueueS::CQueueS
EXTRN	??1CQueueS@@QEAA@XZ:PROC			; CQueueS::~CQueueS
EXTRN	?alloc@CQueueS@@QEAA_NHW4E_ALLOC_TYPE@@@Z:PROC	; CQueueS::alloc
EXTRN	?realloc@CQueueS@@QEAA_NH_N@Z:PROC		; CQueueS::realloc
EXTRN	?push@CQueueS@@QEAA_NPEAX@Z:PROC		; CQueueS::push
EXTRN	??0CFileTime@@QEAA@XZ:PROC			; CFileTime::CFileTime
EXTRN	??1CFileTime@@QEAA@XZ:PROC			; CFileTime::~CFileTime
EXTRN	?setFileTime@CFileTime@@QEAAHPEA_J@Z:PROC	; CFileTime::setFileTime
EXTRN	??0CDateTime@@QEAA@W4DT_TYPE@@W4TZ_TYPE@@@Z:PROC ; CDateTime::CDateTime
EXTRN	??1CDateTime@@QEAA@XZ:PROC			; CDateTime::~CDateTime
EXTRN	?SetSecondsValue@CDateTime@@QEAAXH@Z:PROC	; CDateTime::SetSecondsValue
EXTRN	?setString@CDateTime@@QEAAHPEAD0W4DT_FORMAT@@@Z:PROC ; CDateTime::setString
EXTRN	?__newBuf@CMemManager@@AEAAPEADH_K@Z:PROC	; CMemManager::__newBuf
EXTRN	??0CSList@@QEAA@XZ:PROC				; CSList::CSList
EXTRN	??1CSList@@QEAA@XZ:PROC				; CSList::~CSList
EXTRN	?push_back@CSList@@QEAA_NPEAXPEAH@Z:PROC	; CSList::push_back
EXTRN	?__alloc@CSList@@AEAAHH@Z:PROC			; CSList::__alloc
EXTRN	?filter_dateTimeCompare@@YA_NPEADPEAX1@Z:PROC	; filter_dateTimeCompare
EXTRN	?delDirectory@CFileUtil@@SAHPEAUSTDelInfo@@PEAUSTFilterData@@@Z:PROC ; CFileUtil::delDirectory
EXTRN	?MakeDirectory@CFileUtil@@SA_NPEBD@Z:PROC	; CFileUtil::MakeDirectory
EXTRN	?renameFile@CFileUtil@@SA_NPEBD0@Z:PROC		; CFileUtil::renameFile
EXTRN	?initSystem@CEnv@@SAHPEAD@Z:PROC		; CEnv::initSystem
EXTRN	__CxxFrameHandler3:PROC
EXTRN	__GSHandlerCheck:PROC
EXTRN	__GSHandlerCheck_EH:PROC
EXTRN	__chkstk:PROC
EXTRN	__security_check_cookie:PROC
EXTRN	?g_pWorkDir@@3PEADEA:QWORD			; g_pWorkDir
EXTRN	?g_szSystemError@@3PADA:BYTE			; g_szSystemError
EXTRN	?g_szMessage@@3PADA:BYTE			; g_szMessage
EXTRN	?gs_pMMgr@@3PEAVCMemManager@@EA:QWORD		; gs_pMMgr
EXTRN	?gs_today_time@@3USTTodayTime@@A:BYTE		; gs_today_time
EXTRN	__security_cookie:QWORD
EXTRN	_fltused:DWORD
;	COMDAT ?_OptionsStorage@?1??__local_stdio_printf_options@@9@4_KA
_BSS	SEGMENT
?_OptionsStorage@?1??__local_stdio_printf_options@@9@4_KA DQ 01H DUP (?) ; `__local_stdio_printf_options'::`2'::_OptionsStorage
_BSS	ENDS
_BSS	SEGMENT
?gs_cLogger@@3VCLogger@@A DB 0118H DUP (?)		; gs_cLogger
?gs_DTEManager@@3VCTimeExpManager@@A DQ 01H DUP (?)	; gs_DTEManager
_BSS	ENDS
;	COMDAT pdata
pdata	SEGMENT
$pdata$_tcsncpy DD imagerel $LN3
	DD	imagerel $LN3+45
	DD	imagerel $unwind$_tcsncpy
pdata	ENDS
;	COMDAT pdata
pdata	SEGMENT
$pdata$_tcsrchr DD imagerel $LN3
	DD	imagerel $LN3+33
	DD	imagerel $unwind$_tcsrchr
pdata	ENDS
;	COMDAT pdata
pdata	SEGMENT
$pdata$_tcscmp DD imagerel $LN3
	DD	imagerel $LN3+35
	DD	imagerel $unwind$_tcscmp
pdata	ENDS
;	COMDAT pdata
pdata	SEGMENT
$pdata$_vfprintf_l DD imagerel $LN3
	DD	imagerel $LN3+68
	DD	imagerel $unwind$_vfprintf_l
pdata	ENDS
;	COMDAT pdata
pdata	SEGMENT
$pdata$fprintf DD imagerel $LN3
	DD	imagerel $LN3+112
	DD	imagerel $unwind$fprintf
pdata	ENDS
;	COMDAT pdata
pdata	SEGMENT
$pdata$printf DD imagerel $LN3
	DD	imagerel $LN3+121
	DD	imagerel $unwind$printf
pdata	ENDS
;	COMDAT pdata
pdata	SEGMENT
$pdata$_vsnprintf_l DD imagerel $LN5
	DD	imagerel $LN5+118
	DD	imagerel $unwind$_vsnprintf_l
pdata	ENDS
;	COMDAT pdata
pdata	SEGMENT
$pdata$_vsnprintf DD imagerel $LN3
	DD	imagerel $LN3+62
	DD	imagerel $unwind$_vsnprintf
pdata	ENDS
;	COMDAT pdata
pdata	SEGMENT
$pdata$vsnprintf DD imagerel $LN5
	DD	imagerel $LN5+117
	DD	imagerel $unwind$vsnprintf
pdata	ENDS
;	COMDAT pdata
pdata	SEGMENT
$pdata$_vsprintf_l DD imagerel $LN3
	DD	imagerel $LN3+66
	DD	imagerel $unwind$_vsprintf_l
pdata	ENDS
;	COMDAT pdata
pdata	SEGMENT
$pdata$sprintf DD imagerel $LN3
	DD	imagerel $LN3+112
	DD	imagerel $unwind$sprintf
pdata	ENDS
;	COMDAT pdata
pdata	SEGMENT
$pdata$time DD	imagerel time
	DD	imagerel time+25
	DD	imagerel $unwind$time
pdata	ENDS
;	COMDAT pdata
pdata	SEGMENT
$pdata$?comGlobalErrorProc@@YAXPEADPEBDH@Z DD imagerel $LN3
	DD	imagerel $LN3+75
	DD	imagerel $unwind$?comGlobalErrorProc@@YAXPEADPEBDH@Z
pdata	ENDS
;	COMDAT pdata
pdata	SEGMENT
$pdata$?getIndex@@YAHH@Z DD imagerel $LN5
	DD	imagerel $LN5+119
	DD	imagerel $unwind$?getIndex@@YAHH@Z
pdata	ENDS
;	COMDAT pdata
pdata	SEGMENT
$pdata$?newBuf@CMemManager@@QEAAPEADH@Z DD imagerel $LN3
	DD	imagerel $LN3+53
	DD	imagerel $unwind$?newBuf@CMemManager@@QEAAPEADH@Z
pdata	ENDS
;	COMDAT pdata
pdata	SEGMENT
$pdata$?alloc@CSList@@QEAAHHW4E_ALLOC_TYPE@@@Z DD imagerel $LN3
	DD	imagerel $LN3+65
	DD	imagerel $unwind$?alloc@CSList@@QEAAHHW4E_ALLOC_TYPE@@@Z
pdata	ENDS
;	COMDAT pdata
pdata	SEGMENT
$pdata$?getObj@CSList@@QEAAPEAXH@Z DD imagerel $LN4
	DD	imagerel $LN4+63
	DD	imagerel $unwind$?getObj@CSList@@QEAAPEAXH@Z
pdata	ENDS
;	COMDAT pdata
pdata	SEGMENT
$pdata$?__autoclassinit2@CSList@@QEAAX_K@Z DD imagerel $LN3
	DD	imagerel $LN3+27
	DD	imagerel $unwind$?__autoclassinit2@CSList@@QEAAX_K@Z
pdata	ENDS
;	COMDAT pdata
pdata	SEGMENT
$pdata$??_GCSList@@QEAAPEAXI@Z DD imagerel $LN4
	DD	imagerel $LN4+59
	DD	imagerel $unwind$??_GCSList@@QEAAPEAXI@Z
pdata	ENDS
;	COMDAT pdata
pdata	SEGMENT
$pdata$??1CTimeExpManager@@QEAA@XZ DD imagerel $LN6
	DD	imagerel $LN6+87
	DD	imagerel $unwind$??1CTimeExpManager@@QEAA@XZ
pdata	ENDS
;	COMDAT pdata
pdata	SEGMENT
$pdata$?initConfig@CTimeExpManager@@QEAA_NPEAD@Z DD imagerel $LN13
	DD	imagerel $LN13+773
	DD	imagerel $unwind$?initConfig@CTimeExpManager@@QEAA_NPEAD@Z
pdata	ENDS
;	COMDAT pdata
pdata	SEGMENT
$pdata$?dtor$0@?0??initConfig@CTimeExpManager@@QEAA_NPEAD@Z@4HA DD imagerel ?dtor$0@?0??initConfig@CTimeExpManager@@QEAA_NPEAD@Z@4HA
	DD	imagerel ?dtor$0@?0??initConfig@CTimeExpManager@@QEAA_NPEAD@Z@4HA+29
	DD	imagerel $unwind$?dtor$0@?0??initConfig@CTimeExpManager@@QEAA_NPEAD@Z@4HA
pdata	ENDS
;	COMDAT pdata
pdata	SEGMENT
$pdata$?getDTE@CTimeExpManager@@QEAAPEAUSTLogDateTimeExp@@H@Z DD imagerel $LN4
	DD	imagerel $LN4+50
	DD	imagerel $unwind$?getDTE@CTimeExpManager@@QEAAPEAUSTLogDateTimeExp@@H@Z
pdata	ENDS
;	COMDAT pdata
pdata	SEGMENT
$pdata$?__autoclassinit2@CTimeExpManager@@QEAAX_K@Z DD imagerel $LN3
	DD	imagerel $LN3+27
	DD	imagerel $unwind$?__autoclassinit2@CTimeExpManager@@QEAAX_K@Z
pdata	ENDS
;	COMDAT pdata
pdata	SEGMENT
$pdata$??0CLogger@@QEAA@XZ DD imagerel $LN5
	DD	imagerel $LN5+384
	DD	imagerel $unwind$??0CLogger@@QEAA@XZ
pdata	ENDS
;	COMDAT pdata
pdata	SEGMENT
$pdata$??1CLogger@@QEAA@XZ DD imagerel $LN8
	DD	imagerel $LN8+318
	DD	imagerel $unwind$??1CLogger@@QEAA@XZ
pdata	ENDS
;	COMDAT pdata
pdata	SEGMENT
$pdata$?initDefault@CLogger@@QEAA_NPEAD0HHH0@Z DD imagerel $LN9
	DD	imagerel $LN9+484
	DD	imagerel $unwind$?initDefault@CLogger@@QEAA_NPEAD0HHH0@Z
pdata	ENDS
;	COMDAT pdata
pdata	SEGMENT
$pdata$?initConfig@CLogger@@QEAA?AW4E_LOG_INIT_RES@@PEAD0@Z DD imagerel $LN15
	DD	imagerel $LN15+1162
	DD	imagerel $unwind$?initConfig@CLogger@@QEAA?AW4E_LOG_INIT_RES@@PEAD0@Z
pdata	ENDS
;	COMDAT pdata
pdata	SEGMENT
$pdata$?OpenLogger@CLogger@@QEAAXXZ DD imagerel $LN8
	DD	imagerel $LN8+391
	DD	imagerel $unwind$?OpenLogger@CLogger@@QEAAXXZ
pdata	ENDS
;	COMDAT pdata
pdata	SEGMENT
$pdata$?isLogFlag@CLogger@@QEAA_NW4E_LOG_FLAG@@@Z DD imagerel $LN5
	DD	imagerel $LN5+53
	DD	imagerel $unwind$?isLogFlag@CLogger@@QEAA_NW4E_LOG_FLAG@@@Z
pdata	ENDS
;	COMDAT pdata
pdata	SEGMENT
$pdata$?setHeader@CLogger@@QEAAHPEADH@Z DD imagerel $LN6
	DD	imagerel $LN6+373
	DD	imagerel $unwind$?setHeader@CLogger@@QEAAHPEADH@Z
pdata	ENDS
;	COMDAT pdata
pdata	SEGMENT
$pdata$?dtor$0@?0??setHeader@CLogger@@QEAAHPEADH@Z@4HA DD imagerel ?dtor$0@?0??setHeader@CLogger@@QEAAHPEADH@Z@4HA
	DD	imagerel ?dtor$0@?0??setHeader@CLogger@@QEAAHPEADH@Z@4HA+24
	DD	imagerel $unwind$?dtor$0@?0??setHeader@CLogger@@QEAAHPEADH@Z@4HA
pdata	ENDS
;	COMDAT pdata
pdata	SEGMENT
$pdata$?PutLogQueue@CLogger@@QEAAXHPEBDZZ DD imagerel $LN6
	DD	imagerel $LN6+416
	DD	imagerel $unwind$?PutLogQueue@CLogger@@QEAAXHPEBDZZ
pdata	ENDS
;	COMDAT pdata
pdata	SEGMENT
$pdata$?PutLogQueue@CLogger@@QEAAXHPEAD@Z DD imagerel $LN8
	DD	imagerel $LN8+473
	DD	imagerel $unwind$?PutLogQueue@CLogger@@QEAAXHPEAD@Z
pdata	ENDS
;	COMDAT pdata
pdata	SEGMENT
$pdata$?Log@CLogger@@QEAAXHPEBD00_N@Z DD imagerel $LN18
	DD	imagerel $LN18+1252
	DD	imagerel $unwind$?Log@CLogger@@QEAAXHPEBD00_N@Z
pdata	ENDS
;	COMDAT pdata
pdata	SEGMENT
$pdata$?LogPrint@CLogger@@QEAAXPEAD@Z DD imagerel $LN7
	DD	imagerel $LN7+160
	DD	imagerel $unwind$?LogPrint@CLogger@@QEAAXPEAD@Z
pdata	ENDS
;	COMDAT pdata
pdata	SEGMENT
$pdata$?LogPrint@CLogger@@QEAAXHPEBDZZ DD imagerel $LN6
	DD	imagerel $LN6+416
	DD	imagerel $unwind$?LogPrint@CLogger@@QEAAXHPEBDZZ
pdata	ENDS
;	COMDAT pdata
pdata	SEGMENT
$pdata$?WritePacket@CLogger@@QEAAXHHHPEADH@Z DD imagerel $LN11
	DD	imagerel $LN11+669
	DD	imagerel $unwind$?WritePacket@CLogger@@QEAAXHHHPEADH@Z
pdata	ENDS
;	COMDAT pdata
pdata	SEGMENT
$pdata$?disable@CLogger@@QEAAXXZ DD imagerel $LN4
	DD	imagerel $LN4+93
	DD	imagerel $unwind$?disable@CLogger@@QEAAXXZ
pdata	ENDS
;	COMDAT pdata
pdata	SEGMENT
$pdata$?checkChangeProc@CLogger@@QEAAXH@Z DD imagerel $LN10
	DD	imagerel $LN10+545
	DD	imagerel $unwind$?checkChangeProc@CLogger@@QEAAXH@Z
pdata	ENDS
;	COMDAT pdata
pdata	SEGMENT
$pdata$?__debugLog@CLogger@@QEAAXHPEBDH0ZZ DD imagerel $LN6
	DD	imagerel $LN6+445
	DD	imagerel $unwind$?__debugLog@CLogger@@QEAAXHPEBDH0ZZ
pdata	ENDS
;	COMDAT pdata
pdata	SEGMENT
$pdata$?getString@CLogger@@QEAAHPEAD@Z DD imagerel $LN10
	DD	imagerel $LN10+674
	DD	imagerel $unwind$?getString@CLogger@@QEAAHPEAD@Z
pdata	ENDS
;	COMDAT pdata
pdata	SEGMENT
$pdata$?dtor$0@?0??getString@CLogger@@QEAAHPEAD@Z@4HA DD imagerel ?dtor$0@?0??getString@CLogger@@QEAAHPEAD@Z@4HA
	DD	imagerel ?dtor$0@?0??getString@CLogger@@QEAAHPEAD@Z@4HA+24
	DD	imagerel $unwind$?dtor$0@?0??getString@CLogger@@QEAAHPEAD@Z@4HA
pdata	ENDS
;	COMDAT pdata
pdata	SEGMENT
$pdata$?putQueue@CLogger@@QEAAXPEAD@Z DD imagerel $LN4
	DD	imagerel $LN4+68
	DD	imagerel $unwind$?putQueue@CLogger@@QEAAXPEAD@Z
pdata	ENDS
;	COMDAT pdata
pdata	SEGMENT
$pdata$?_initCom@CLogger@@AEAAXPEAD000@Z DD imagerel $LN17
	DD	imagerel $LN17+820
	DD	imagerel $unwind$?_initCom@CLogger@@AEAAXPEAD000@Z
pdata	ENDS
;	COMDAT pdata
pdata	SEGMENT
$pdata$?_setHeaderFormat@CLogger@@AEAA_NH@Z DD imagerel $LN6
	DD	imagerel $LN6+155
	DD	imagerel $unwind$?_setHeaderFormat@CLogger@@AEAA_NH@Z
pdata	ENDS
;	COMDAT pdata
pdata	SEGMENT
$pdata$?_setLoggerBasic@CLogger@@AEAAXHHH@Z DD imagerel $LN12
	DD	imagerel $LN12+358
	DD	imagerel $unwind$?_setLoggerBasic@CLogger@@AEAAXHHH@Z
pdata	ENDS
;	COMDAT pdata
pdata	SEGMENT
$pdata$?_setLoggerQueue@CLogger@@AEAA_NH@Z DD imagerel $LN8
	DD	imagerel $LN8+214
	DD	imagerel $unwind$?_setLoggerQueue@CLogger@@AEAA_NH@Z
pdata	ENDS
;	COMDAT pdata
pdata	SEGMENT
$pdata$?setLogName@CLogger@@AEAAXPEAD@Z DD imagerel $LN8
	DD	imagerel $LN8+329
	DD	imagerel $unwind$?setLogName@CLogger@@AEAAXPEAD@Z
pdata	ENDS
;	COMDAT pdata
pdata	SEGMENT
$pdata$?setDateTimeFormat@CLogger@@AEAAXPEAUSTLogDateTimeExp@@@Z DD imagerel $LN30
	DD	imagerel $LN30+981
	DD	imagerel $unwind$?setDateTimeFormat@CLogger@@AEAAXPEAUSTLogDateTimeExp@@@Z
pdata	ENDS
;	COMDAT pdata
pdata	SEGMENT
$pdata$?GetKeepInfo@CLogger@@AEAAHPEBD@Z DD imagerel $LN25
	DD	imagerel $LN25+565
	DD	imagerel $unwind$?GetKeepInfo@CLogger@@AEAAHPEBD@Z
pdata	ENDS
;	COMDAT pdata
pdata	SEGMENT
$pdata$?checkDeleteProc@CLogger@@AEAAXXZ DD imagerel $LN5
	DD	imagerel $LN5+280
	DD	imagerel $unwind$?checkDeleteProc@CLogger@@AEAAXXZ
pdata	ENDS
;	COMDAT pdata
pdata	SEGMENT
$pdata$?dtor$0@?0??checkDeleteProc@CLogger@@AEAAXXZ@4HA DD imagerel ?dtor$0@?0??checkDeleteProc@CLogger@@AEAAXXZ@4HA
	DD	imagerel ?dtor$0@?0??checkDeleteProc@CLogger@@AEAAXXZ@4HA+24
	DD	imagerel $unwind$?dtor$0@?0??checkDeleteProc@CLogger@@AEAAXXZ@4HA
pdata	ENDS
;	COMDAT pdata
pdata	SEGMENT
$pdata$?__openLogger@CLogger@@AEAAXPEBDH@Z DD imagerel $LN10
	DD	imagerel $LN10+446
	DD	imagerel $unwind$?__openLogger@CLogger@@AEAAXPEBDH@Z
pdata	ENDS
;	COMDAT pdata
pdata	SEGMENT
$pdata$?__autoclassinit2@CLogger@@QEAAX_K@Z DD imagerel $LN3
	DD	imagerel $LN3+27
	DD	imagerel $unwind$?__autoclassinit2@CLogger@@QEAAX_K@Z
pdata	ENDS
;	COMDAT pdata
pdata	SEGMENT
$pdata$?changeToAbsolutePath@@YAXPEADPEBD@Z DD imagerel $LN11
	DD	imagerel $LN11+392
	DD	imagerel $unwind$?changeToAbsolutePath@@YAXPEADPEBD@Z
pdata	ENDS
;	COMDAT pdata
pdata	SEGMENT
$pdata$?changeToAbsolutePathFile@@YAXPEADPEBD@Z DD imagerel $LN8
	DD	imagerel $LN8+312
	DD	imagerel $unwind$?changeToAbsolutePathFile@@YAXPEADPEBD@Z
pdata	ENDS
;	COMDAT pdata
pdata	SEGMENT
$pdata$?GetProfilePath@@YAHPEBD00PEAD0@Z DD imagerel $LN8
	DD	imagerel $LN8+275
	DD	imagerel $unwind$?GetProfilePath@@YAHPEBD00PEAD0@Z
pdata	ENDS
;	COMDAT pdata
pdata	SEGMENT
$pdata$?detachFullPath@@YAXPEBDPEAD1@Z DD imagerel $LN4
	DD	imagerel $LN4+197
	DD	imagerel $unwind$?detachFullPath@@YAXPEBDPEAD1@Z
pdata	ENDS
;	COMDAT pdata
pdata	SEGMENT
$pdata$??__Egs_cLogger@@YAXXZ DD imagerel ??__Egs_cLogger@@YAXXZ
	DD	imagerel ??__Egs_cLogger@@YAXXZ+50
	DD	imagerel $unwind$??__Egs_cLogger@@YAXXZ
pdata	ENDS
;	COMDAT pdata
pdata	SEGMENT
$pdata$??__Fgs_cLogger@@YAXXZ DD imagerel ??__Fgs_cLogger@@YAXXZ
	DD	imagerel ??__Fgs_cLogger@@YAXXZ+21
	DD	imagerel $unwind$??__Fgs_cLogger@@YAXXZ
pdata	ENDS
;	COMDAT pdata
pdata	SEGMENT
$pdata$??__Egs_DTEManager@@YAXXZ DD imagerel ??__Egs_DTEManager@@YAXXZ
	DD	imagerel ??__Egs_DTEManager@@YAXXZ+50
	DD	imagerel $unwind$??__Egs_DTEManager@@YAXXZ
pdata	ENDS
;	COMDAT pdata
pdata	SEGMENT
$pdata$??__Fgs_DTEManager@@YAXXZ DD imagerel ??__Fgs_DTEManager@@YAXXZ
	DD	imagerel ??__Fgs_DTEManager@@YAXXZ+21
	DD	imagerel $unwind$??__Fgs_DTEManager@@YAXXZ
pdata	ENDS
CRT$XCU	SEGMENT
?gs_cLogger$initializer$@@3P6AXXZEA DQ FLAT:??__Egs_cLogger@@YAXXZ ; gs_cLogger$initializer$
CRT$XCU	ENDS
;	COMDAT ??_C@_0BD@KEHDJCKJ@ERROR?$CB?5?$FL?$CFs?3?$CFd?$FN?5?$CFs?6?$AA@
CONST	SEGMENT
??_C@_0BD@KEHDJCKJ@ERROR?$CB?5?$FL?$CFs?3?$CFd?$FN?5?$CFs?6?$AA@ DB 'ERRO'
	DB	'R! [%s:%d] %s', 0aH, 00H			; `string'
CONST	ENDS
;	COMDAT xdata
xdata	SEGMENT
$unwind$??__Fgs_DTEManager@@YAXXZ DD 010401H
	DD	04204H
xdata	ENDS
;	COMDAT xdata
xdata	SEGMENT
$unwind$??__Egs_DTEManager@@YAXXZ DD 010401H
	DD	04204H
xdata	ENDS
;	COMDAT xdata
xdata	SEGMENT
$unwind$??__Fgs_cLogger@@YAXXZ DD 010401H
	DD	04204H
xdata	ENDS
;	COMDAT xdata
xdata	SEGMENT
$unwind$??__Egs_cLogger@@YAXXZ DD 010401H
	DD	04204H
xdata	ENDS
;	COMDAT xdata
xdata	SEGMENT
$unwind$?detachFullPath@@YAXPEBDPEAD1@Z DD 011301H
	DD	0a213H
xdata	ENDS
;	COMDAT xdata
xdata	SEGMENT
$unwind$?GetProfilePath@@YAHPEBD00PEAD0@Z DD 022d19H
	DD	02b011bH
	DD	imagerel __GSHandlerCheck
	DD	0140H
xdata	ENDS
;	COMDAT xdata
xdata	SEGMENT
$unwind$?changeToAbsolutePathFile@@YAXPEADPEBD@Z DD 022319H
	DD	08d0111H
	DD	imagerel __GSHandlerCheck
	DD	0450H
xdata	ENDS
;	COMDAT xdata
xdata	SEGMENT
$unwind$?changeToAbsolutePath@@YAXPEADPEBD@Z DD 022319H
	DD	08d0111H
	DD	imagerel __GSHandlerCheck
	DD	0450H
xdata	ENDS
;	COMDAT xdata
xdata	SEGMENT
$unwind$?__autoclassinit2@CLogger@@QEAAX_K@Z DD 010b01H
	DD	0700bH
xdata	ENDS
;	COMDAT xdata
xdata	SEGMENT
$unwind$?__openLogger@CLogger@@AEAAXPEBDH@Z DD 032919H
	DD	0280117H
	DD	07010H
	DD	imagerel __GSHandlerCheck
	DD	0130H
xdata	ENDS
;	COMDAT xdata
xdata	SEGMENT
$unwind$?dtor$0@?0??checkDeleteProc@CLogger@@AEAAXXZ@4HA DD 020601H
	DD	050023206H
xdata	ENDS
;	COMDAT xdata
xdata	SEGMENT
$ip2state$?checkDeleteProc@CLogger@@AEAAXXZ DD imagerel ?checkDeleteProc@CLogger@@AEAAXXZ
	DD	0ffffffffH
	DD	imagerel ?checkDeleteProc@CLogger@@AEAAXXZ+47
	DD	00H
	DD	imagerel ?checkDeleteProc@CLogger@@AEAAXXZ+249
	DD	0ffffffffH
xdata	ENDS
;	COMDAT xdata
xdata	SEGMENT
$stateUnwindMap$?checkDeleteProc@CLogger@@AEAAXXZ DD 0ffffffffH
	DD	imagerel ?dtor$0@?0??checkDeleteProc@CLogger@@AEAAXXZ@4HA
xdata	ENDS
;	COMDAT CONST
CONST	SEGMENT
$cppxdata$?checkDeleteProc@CLogger@@AEAAXXZ DD 019930522H
	DD	01H
	DD	imagerel $stateUnwindMap$?checkDeleteProc@CLogger@@AEAAXXZ
	DD	00H
	DD	00H
	DD	03H
	DD	imagerel $ip2state$?checkDeleteProc@CLogger@@AEAAXXZ
	DD	038H
	DD	00H
	DD	01H
CONST	ENDS
;	COMDAT xdata
xdata	SEGMENT
$unwind$?checkDeleteProc@CLogger@@AEAAXXZ DD 022419H
	DD	011010cH
	DD	imagerel __GSHandlerCheck_EH
	DD	imagerel $cppxdata$?checkDeleteProc@CLogger@@AEAAXXZ
	DD	07aH
xdata	ENDS
;	COMDAT xdata
xdata	SEGMENT
$unwind$?GetKeepInfo@CLogger@@AEAAHPEBD@Z DD 022319H
	DD	0130111H
	DD	imagerel __GSHandlerCheck
	DD	088H
xdata	ENDS
;	COMDAT xdata
xdata	SEGMENT
$unwind$?setDateTimeFormat@CLogger@@AEAAXPEAUSTLogDateTimeExp@@@Z DD 031001H
	DD	0700c6210H
	DD	0600bH
xdata	ENDS
;	COMDAT xdata
xdata	SEGMENT
$unwind$?setLogName@CLogger@@AEAAXPEAD@Z DD 022319H
	DD	01b0111H
	DD	imagerel __GSHandlerCheck
	DD	0c0H
xdata	ENDS
;	COMDAT xdata
xdata	SEGMENT
$unwind$?_setLoggerQueue@CLogger@@AEAA_NH@Z DD 010d01H
	DD	0620dH
xdata	ENDS
;	COMDAT xdata
xdata	SEGMENT
$unwind$?_setLoggerBasic@CLogger@@AEAAXHHH@Z DD 011701H
	DD	02217H
xdata	ENDS
;	COMDAT xdata
xdata	SEGMENT
$unwind$?_setHeaderFormat@CLogger@@AEAA_NH@Z DD 010d01H
	DD	0620dH
xdata	ENDS
;	COMDAT xdata
xdata	SEGMENT
$unwind$?_initCom@CLogger@@AEAAXPEAD000@Z DD 021b01H
	DD	019011bH
xdata	ENDS
;	COMDAT xdata
xdata	SEGMENT
$unwind$?putQueue@CLogger@@QEAAXPEAD@Z DD 010e01H
	DD	0420eH
xdata	ENDS
;	COMDAT xdata
xdata	SEGMENT
$unwind$?dtor$0@?0??getString@CLogger@@QEAAHPEAD@Z@4HA DD 020601H
	DD	050023206H
xdata	ENDS
;	COMDAT xdata
xdata	SEGMENT
$ip2state$?getString@CLogger@@QEAAHPEAD@Z DD imagerel ?getString@CLogger@@QEAAHPEAD@Z
	DD	0ffffffffH
	DD	imagerel ?getString@CLogger@@QEAAHPEAD@Z+112
	DD	00H
	DD	imagerel ?getString@CLogger@@QEAAHPEAD@Z+634
	DD	0ffffffffH
xdata	ENDS
;	COMDAT xdata
xdata	SEGMENT
$stateUnwindMap$?getString@CLogger@@QEAAHPEAD@Z DD 0ffffffffH
	DD	imagerel ?dtor$0@?0??getString@CLogger@@QEAAHPEAD@Z@4HA
xdata	ENDS
;	COMDAT CONST
CONST	SEGMENT
$cppxdata$?getString@CLogger@@QEAAHPEAD@Z DD 019930522H
	DD	01H
	DD	imagerel $stateUnwindMap$?getString@CLogger@@QEAAHPEAD@Z
	DD	00H
	DD	00H
	DD	03H
	DD	imagerel $ip2state$?getString@CLogger@@QEAAHPEAD@Z
	DD	038H
	DD	00H
	DD	01H
CONST	ENDS
;	COMDAT xdata
xdata	SEGMENT
$unwind$?getString@CLogger@@QEAAHPEAD@Z DD 042e19H
	DD	0210113H
	DD	0600b700cH
	DD	imagerel __GSHandlerCheck_EH
	DD	imagerel $cppxdata$?getString@CLogger@@QEAAHPEAD@Z
	DD	0f2H
xdata	ENDS
;	COMDAT xdata
xdata	SEGMENT
$unwind$?__debugLog@CLogger@@QEAAXHPEBDH0ZZ DD 023219H
	DD	04510120H
	DD	imagerel __GSHandlerCheck
	DD	02270H
xdata	ENDS
;	COMDAT xdata
xdata	SEGMENT
$unwind$?checkChangeProc@CLogger@@QEAAXH@Z DD 022219H
	DD	04b0110H
	DD	imagerel __GSHandlerCheck
	DD	0240H
xdata	ENDS
;	COMDAT xdata
xdata	SEGMENT
$unwind$?disable@CLogger@@QEAAXXZ DD 010901H
	DD	04209H
xdata	ENDS
;	COMDAT xdata
xdata	SEGMENT
$unwind$?WritePacket@CLogger@@QEAAXHHHPEADH@Z DD 022c19H
	DD	01f011aH
	DD	imagerel __GSHandlerCheck
	DD	0e0H
xdata	ENDS
;	COMDAT xdata
xdata	SEGMENT
$unwind$?LogPrint@CLogger@@QEAAXHPEBDZZ DD 023219H
	DD	044d0120H
	DD	imagerel __GSHandlerCheck
	DD	02250H
xdata	ENDS
;	COMDAT xdata
xdata	SEGMENT
$unwind$?LogPrint@CLogger@@QEAAXPEAD@Z DD 010e01H
	DD	0420eH
xdata	ENDS
;	COMDAT xdata
xdata	SEGMENT
$unwind$?Log@CLogger@@QEAAXHPEBD00_N@Z DD 023219H
	DD	04230120H
	DD	imagerel __GSHandlerCheck
	DD	02100H
xdata	ENDS
;	COMDAT xdata
xdata	SEGMENT
$unwind$?PutLogQueue@CLogger@@QEAAXHPEAD@Z DD 022719H
	DD	0530115H
	DD	imagerel __GSHandlerCheck
	DD	0280H
xdata	ENDS
;	COMDAT xdata
xdata	SEGMENT
$unwind$?PutLogQueue@CLogger@@QEAAXHPEBDZZ DD 023219H
	DD	044d0120H
	DD	imagerel __GSHandlerCheck
	DD	02250H
xdata	ENDS
;	COMDAT xdata
xdata	SEGMENT
$unwind$?dtor$0@?0??setHeader@CLogger@@QEAAHPEADH@Z@4HA DD 020601H
	DD	050023206H
xdata	ENDS
;	COMDAT xdata
xdata	SEGMENT
$ip2state$?setHeader@CLogger@@QEAAHPEADH@Z DD imagerel ?setHeader@CLogger@@QEAAHPEADH@Z
	DD	0ffffffffH
	DD	imagerel ?setHeader@CLogger@@QEAAHPEADH@Z+97
	DD	00H
	DD	imagerel ?setHeader@CLogger@@QEAAHPEADH@Z+335
	DD	0ffffffffH
xdata	ENDS
;	COMDAT xdata
xdata	SEGMENT
$stateUnwindMap$?setHeader@CLogger@@QEAAHPEADH@Z DD 0ffffffffH
	DD	imagerel ?dtor$0@?0??setHeader@CLogger@@QEAAHPEADH@Z@4HA
xdata	ENDS
;	COMDAT CONST
CONST	SEGMENT
$cppxdata$?setHeader@CLogger@@QEAAHPEADH@Z DD 019930522H
	DD	01H
	DD	imagerel $stateUnwindMap$?setHeader@CLogger@@QEAAHPEADH@Z
	DD	00H
	DD	00H
	DD	03H
	DD	imagerel $ip2state$?setHeader@CLogger@@QEAAHPEADH@Z
	DD	028H
	DD	00H
	DD	01H
CONST	ENDS
;	COMDAT xdata
xdata	SEGMENT
$unwind$?setHeader@CLogger@@QEAAHPEADH@Z DD 023119H
	DD	0170116H
	DD	imagerel __GSHandlerCheck_EH
	DD	imagerel $cppxdata$?setHeader@CLogger@@QEAAHPEADH@Z
	DD	0a2H
xdata	ENDS
;	COMDAT xdata
xdata	SEGMENT
$unwind$?isLogFlag@CLogger@@QEAA_NW4E_LOG_FLAG@@@Z DD 010d01H
	DD	0220dH
xdata	ENDS
;	COMDAT xdata
xdata	SEGMENT
$unwind$?OpenLogger@CLogger@@QEAAXXZ DD 021e19H
	DD	01b010cH
	DD	imagerel __GSHandlerCheck
	DD	0c0H
xdata	ENDS
;	COMDAT xdata
xdata	SEGMENT
$unwind$?initConfig@CLogger@@QEAA?AW4E_LOG_INIT_RES@@PEAD0@Z DD 022819H
	DD	02d0116H
	DD	imagerel __GSHandlerCheck
	DD	0150H
xdata	ENDS
;	COMDAT xdata
xdata	SEGMENT
$unwind$?initDefault@CLogger@@QEAA_NPEAD0HHH0@Z DD 022d19H
	DD	029011bH
	DD	imagerel __GSHandlerCheck
	DD	0130H
xdata	ENDS
;	COMDAT xdata
xdata	SEGMENT
$ip2state$??1CLogger@@QEAA@XZ DD imagerel ??1CLogger@@QEAA@XZ
	DD	0ffffffffH
xdata	ENDS
;	COMDAT CONST
CONST	SEGMENT
$cppxdata$??1CLogger@@QEAA@XZ DD 019930522H
	DD	00H
	DD	00H
	DD	00H
	DD	00H
	DD	01H
	DD	imagerel $ip2state$??1CLogger@@QEAA@XZ
	DD	038H
	DD	00H
	DD	05H
CONST	ENDS
;	COMDAT xdata
xdata	SEGMENT
$unwind$??1CLogger@@QEAA@XZ DD 011219H
	DD	08209H
	DD	imagerel __CxxFrameHandler3
	DD	imagerel $cppxdata$??1CLogger@@QEAA@XZ
xdata	ENDS
;	COMDAT xdata
xdata	SEGMENT
$unwind$??0CLogger@@QEAA@XZ DD 010901H
	DD	08209H
xdata	ENDS
;	COMDAT xdata
xdata	SEGMENT
$unwind$?__autoclassinit2@CTimeExpManager@@QEAAX_K@Z DD 010b01H
	DD	0700bH
xdata	ENDS
;	COMDAT xdata
xdata	SEGMENT
$unwind$?getDTE@CTimeExpManager@@QEAAPEAUSTLogDateTimeExp@@H@Z DD 010d01H
	DD	0420dH
xdata	ENDS
;	COMDAT xdata
xdata	SEGMENT
$unwind$?dtor$0@?0??initConfig@CTimeExpManager@@QEAA_NPEAD@Z@4HA DD 020601H
	DD	050023206H
xdata	ENDS
;	COMDAT xdata
xdata	SEGMENT
$ip2state$?initConfig@CTimeExpManager@@QEAA_NPEAD@Z DD imagerel ?initConfig@CTimeExpManager@@QEAA_NPEAD@Z
	DD	0ffffffffH
	DD	imagerel ?initConfig@CTimeExpManager@@QEAA_NPEAD@Z+103
	DD	00H
	DD	imagerel ?initConfig@CTimeExpManager@@QEAA_NPEAD@Z+162
	DD	0ffffffffH
xdata	ENDS
;	COMDAT xdata
xdata	SEGMENT
$stateUnwindMap$?initConfig@CTimeExpManager@@QEAA_NPEAD@Z DD 0ffffffffH
	DD	imagerel ?dtor$0@?0??initConfig@CTimeExpManager@@QEAA_NPEAD@Z@4HA
xdata	ENDS
;	COMDAT CONST
CONST	SEGMENT
$cppxdata$?initConfig@CTimeExpManager@@QEAA_NPEAD@Z DD 019930522H
	DD	01H
	DD	imagerel $stateUnwindMap$?initConfig@CTimeExpManager@@QEAA_NPEAD@Z
	DD	00H
	DD	00H
	DD	03H
	DD	imagerel $ip2state$?initConfig@CTimeExpManager@@QEAA_NPEAD@Z
	DD	050H
	DD	00H
	DD	01H
CONST	ENDS
;	COMDAT xdata
xdata	SEGMENT
$unwind$?initConfig@CTimeExpManager@@QEAA_NPEAD@Z DD 022c19H
	DD	0170111H
	DD	imagerel __GSHandlerCheck_EH
	DD	imagerel $cppxdata$?initConfig@CTimeExpManager@@QEAA_NPEAD@Z
	DD	0a2H
xdata	ENDS
;	COMDAT xdata
xdata	SEGMENT
$unwind$??1CTimeExpManager@@QEAA@XZ DD 010901H
	DD	08209H
xdata	ENDS
;	COMDAT xdata
xdata	SEGMENT
$unwind$??_GCSList@@QEAAPEAXI@Z DD 010d01H
	DD	0420dH
xdata	ENDS
;	COMDAT xdata
xdata	SEGMENT
$unwind$?__autoclassinit2@CSList@@QEAAX_K@Z DD 010b01H
	DD	0700bH
xdata	ENDS
;	COMDAT xdata
xdata	SEGMENT
$unwind$?getObj@CSList@@QEAAPEAXH@Z DD 010d01H
	DD	0420dH
xdata	ENDS
;	COMDAT xdata
xdata	SEGMENT
$unwind$?alloc@CSList@@QEAAHHW4E_ALLOC_TYPE@@@Z DD 011201H
	DD	04212H
xdata	ENDS
;	COMDAT xdata
xdata	SEGMENT
$unwind$?newBuf@CMemManager@@QEAAPEADH@Z DD 010d01H
	DD	0620dH
xdata	ENDS
;	COMDAT xdata
xdata	SEGMENT
$unwind$?getIndex@@YAHH@Z DD 010801H
	DD	04208H
xdata	ENDS
;	COMDAT xdata
xdata	SEGMENT
$unwind$?comGlobalErrorProc@@YAXPEADPEBDH@Z DD 011301H
	DD	06213H
xdata	ENDS
;	COMDAT xdata
xdata	SEGMENT
$unwind$time DD	010901H
	DD	04209H
xdata	ENDS
;	COMDAT xdata
xdata	SEGMENT
$unwind$sprintf DD 012719H
	DD	08218H
	DD	imagerel __GSHandlerCheck
	DD	030H
xdata	ENDS
;	COMDAT xdata
xdata	SEGMENT
$unwind$_vsprintf_l DD 011801H
	DD	06218H
xdata	ENDS
;	COMDAT xdata
xdata	SEGMENT
$unwind$vsnprintf DD 011801H
	DD	08218H
xdata	ENDS
;	COMDAT xdata
xdata	SEGMENT
$unwind$_vsnprintf DD 011801H
	DD	06218H
xdata	ENDS
;	COMDAT xdata
xdata	SEGMENT
$unwind$_vsnprintf_l DD 011801H
	DD	08218H
xdata	ENDS
;	COMDAT xdata
xdata	SEGMENT
$unwind$printf DD 012719H
	DD	08218H
	DD	imagerel __GSHandlerCheck
	DD	030H
xdata	ENDS
;	COMDAT xdata
xdata	SEGMENT
$unwind$fprintf DD 012719H
	DD	08218H
	DD	imagerel __GSHandlerCheck
	DD	030H
xdata	ENDS
;	COMDAT xdata
xdata	SEGMENT
$unwind$_vfprintf_l DD 011801H
	DD	06218H
xdata	ENDS
;	COMDAT xdata
xdata	SEGMENT
$unwind$_tcscmp DD 010e01H
	DD	0420eH
xdata	ENDS
;	COMDAT xdata
xdata	SEGMENT
$unwind$_tcsrchr DD 010d01H
	DD	0420dH
xdata	ENDS
;	COMDAT xdata
xdata	SEGMENT
$unwind$_tcsncpy DD 011301H
	DD	04213H
xdata	ENDS
CRT$XCU	SEGMENT
?gs_DTEManager$initializer$@@3P6AXXZEA DQ FLAT:??__Egs_DTEManager@@YAXXZ ; gs_DTEManager$initializer$
CRT$XCU	ENDS
; Function compile flags: /Odtp
; File c:\program files (x86)\microsoft visual studio 14.0\vc\include\vadefs.h
;	COMDAT ??$__vcrt_va_start_verify_argument_type@PEBD@@YAXXZ
_TEXT	SEGMENT
??$__vcrt_va_start_verify_argument_type@PEBD@@YAXXZ PROC ; __vcrt_va_start_verify_argument_type<char const * __ptr64>, COMDAT

; 145  :             static_assert(!__vcrt_va_list_is_reference<_Ty>::__the_value, "va_start argument must not have reference type and must not be parenthesized");
; 146  :         }

  00000	c3		 ret	 0
??$__vcrt_va_start_verify_argument_type@PEBD@@YAXXZ ENDP ; __vcrt_va_start_verify_argument_type<char const * __ptr64>
_TEXT	ENDS
; Function compile flags: /Odtp
;	COMDAT ??__Fgs_DTEManager@@YAXXZ
text$yd	SEGMENT
??__Fgs_DTEManager@@YAXXZ PROC				; `dynamic atexit destructor for 'gs_DTEManager'', COMDAT
  00000	48 83 ec 28	 sub	 rsp, 40			; 00000028H
  00004	48 8d 0d 00 00
	00 00		 lea	 rcx, OFFSET FLAT:?gs_DTEManager@@3VCTimeExpManager@@A ; gs_DTEManager
  0000b	e8 00 00 00 00	 call	 ??1CTimeExpManager@@QEAA@XZ ; CTimeExpManager::~CTimeExpManager
  00010	48 83 c4 28	 add	 rsp, 40			; 00000028H
  00014	c3		 ret	 0
??__Fgs_DTEManager@@YAXXZ ENDP				; `dynamic atexit destructor for 'gs_DTEManager''
text$yd	ENDS
; Function compile flags: /Odtp
; File e:\infinia-library-3.0\com\src\comlogger.cpp
;	COMDAT ??__Egs_DTEManager@@YAXXZ
text$di	SEGMENT
??__Egs_DTEManager@@YAXXZ PROC				; `dynamic initializer for 'gs_DTEManager'', COMDAT

; 24   : CTimeExpManager gs_DTEManager;

  00000	48 83 ec 28	 sub	 rsp, 40			; 00000028H
  00004	ba 08 00 00 00	 mov	 edx, 8
  00009	48 8d 0d 00 00
	00 00		 lea	 rcx, OFFSET FLAT:?gs_DTEManager@@3VCTimeExpManager@@A ; gs_DTEManager
  00010	e8 00 00 00 00	 call	 ?__autoclassinit2@CTimeExpManager@@QEAAX_K@Z
  00015	48 8d 0d 00 00
	00 00		 lea	 rcx, OFFSET FLAT:?gs_DTEManager@@3VCTimeExpManager@@A ; gs_DTEManager
  0001c	e8 00 00 00 00	 call	 ??0CTimeExpManager@@QEAA@XZ ; CTimeExpManager::CTimeExpManager
  00021	48 8d 0d 00 00
	00 00		 lea	 rcx, OFFSET FLAT:??__Fgs_DTEManager@@YAXXZ ; `dynamic atexit destructor for 'gs_DTEManager''
  00028	e8 00 00 00 00	 call	 atexit
  0002d	48 83 c4 28	 add	 rsp, 40			; 00000028H
  00031	c3		 ret	 0
??__Egs_DTEManager@@YAXXZ ENDP				; `dynamic initializer for 'gs_DTEManager''
text$di	ENDS
; Function compile flags: /Odtp
;	COMDAT ??__Fgs_cLogger@@YAXXZ
text$yd	SEGMENT
??__Fgs_cLogger@@YAXXZ PROC				; `dynamic atexit destructor for 'gs_cLogger'', COMDAT
  00000	48 83 ec 28	 sub	 rsp, 40			; 00000028H
  00004	48 8d 0d 00 00
	00 00		 lea	 rcx, OFFSET FLAT:?gs_cLogger@@3VCLogger@@A ; gs_cLogger
  0000b	e8 00 00 00 00	 call	 ??1CLogger@@QEAA@XZ	; CLogger::~CLogger
  00010	48 83 c4 28	 add	 rsp, 40			; 00000028H
  00014	c3		 ret	 0
??__Fgs_cLogger@@YAXXZ ENDP				; `dynamic atexit destructor for 'gs_cLogger''
text$yd	ENDS
; Function compile flags: /Odtp
; File e:\infinia-library-3.0\com\src\comlogger.cpp
;	COMDAT ??__Egs_cLogger@@YAXXZ
text$di	SEGMENT
??__Egs_cLogger@@YAXXZ PROC				; `dynamic initializer for 'gs_cLogger'', COMDAT

; 23   : CLogger gs_cLogger;

  00000	48 83 ec 28	 sub	 rsp, 40			; 00000028H
  00004	ba 18 01 00 00	 mov	 edx, 280		; 00000118H
  00009	48 8d 0d 00 00
	00 00		 lea	 rcx, OFFSET FLAT:?gs_cLogger@@3VCLogger@@A ; gs_cLogger
  00010	e8 00 00 00 00	 call	 ?__autoclassinit2@CLogger@@QEAAX_K@Z
  00015	48 8d 0d 00 00
	00 00		 lea	 rcx, OFFSET FLAT:?gs_cLogger@@3VCLogger@@A ; gs_cLogger
  0001c	e8 00 00 00 00	 call	 ??0CLogger@@QEAA@XZ	; CLogger::CLogger
  00021	48 8d 0d 00 00
	00 00		 lea	 rcx, OFFSET FLAT:??__Fgs_cLogger@@YAXXZ ; `dynamic atexit destructor for 'gs_cLogger''
  00028	e8 00 00 00 00	 call	 atexit
  0002d	48 83 c4 28	 add	 rsp, 40			; 00000028H
  00031	c3		 ret	 0
??__Egs_cLogger@@YAXXZ ENDP				; `dynamic initializer for 'gs_cLogger''
text$di	ENDS
; Function compile flags: /Odtp
; File e:\infinia-library-3.0\com\include\comfileutil.h
;	COMDAT ?init@STDelInfo@@QEAAXPEAD_N1PEAX@Z
_TEXT	SEGMENT
this$ = 8
dir$ = 16
isRecursive$ = 24
bDelDir$ = 32
p$ = 40
?init@STDelInfo@@QEAAXPEAD_N1PEAX@Z PROC		; STDelInfo::init, COMDAT

; 39   : 	{

  00000	44 88 4c 24 20	 mov	 BYTE PTR [rsp+32], r9b
  00005	44 88 44 24 18	 mov	 BYTE PTR [rsp+24], r8b
  0000a	48 89 54 24 10	 mov	 QWORD PTR [rsp+16], rdx
  0000f	48 89 4c 24 08	 mov	 QWORD PTR [rsp+8], rcx

; 40   : 		pData = p;

  00014	48 8b 44 24 08	 mov	 rax, QWORD PTR this$[rsp]
  00019	48 8b 4c 24 28	 mov	 rcx, QWORD PTR p$[rsp]
  0001e	48 89 48 10	 mov	 QWORD PTR [rax+16], rcx

; 41   : 		root = dir;

  00022	48 8b 44 24 08	 mov	 rax, QWORD PTR this$[rsp]
  00027	48 8b 4c 24 10	 mov	 rcx, QWORD PTR dir$[rsp]
  0002c	48 89 08	 mov	 QWORD PTR [rax], rcx

; 42   : 		nFlag = 0;

  0002f	48 8b 44 24 08	 mov	 rax, QWORD PTR this$[rsp]
  00034	c7 40 08 00 00
	00 00		 mov	 DWORD PTR [rax+8], 0

; 43   : 		if (isRecursive) nFlag = DIR_RECURSIVE;

  0003b	0f b6 44 24 18	 movzx	 eax, BYTE PTR isRecursive$[rsp]
  00040	85 c0		 test	 eax, eax
  00042	74 0c		 je	 SHORT $LN2@init
  00044	48 8b 44 24 08	 mov	 rax, QWORD PTR this$[rsp]
  00049	c7 40 08 01 00
	00 00		 mov	 DWORD PTR [rax+8], 1
$LN2@init:

; 44   : 		if (bDelDir) nFlag |= DEL_DIRECTORY;

  00050	0f b6 44 24 20	 movzx	 eax, BYTE PTR bDelDir$[rsp]
  00055	85 c0		 test	 eax, eax
  00057	74 13		 je	 SHORT $LN3@init
  00059	48 8b 44 24 08	 mov	 rax, QWORD PTR this$[rsp]
  0005e	8b 40 08	 mov	 eax, DWORD PTR [rax+8]
  00061	83 c8 02	 or	 eax, 2
  00064	48 8b 4c 24 08	 mov	 rcx, QWORD PTR this$[rsp]
  00069	89 41 08	 mov	 DWORD PTR [rcx+8], eax
$LN3@init:

; 45   : 	}

  0006c	c3		 ret	 0
?init@STDelInfo@@QEAAXPEAD_N1PEAX@Z ENDP		; STDelInfo::init
_TEXT	ENDS
; Function compile flags: /Odtp
; File e:\infinia-library-3.0\com\src\comlogger.cpp
;	COMDAT ?detachFullPath@@YAXPEBDPEAD1@Z
_TEXT	SEGMENT
tv79 = 32
tv77 = 40
tv76 = 48
nLen$ = 56
pRear$ = 64
tv78 = 72
fullpath$ = 96
dir$ = 104
name$ = 112
?detachFullPath@@YAXPEBDPEAD1@Z PROC			; detachFullPath, COMDAT

; 859  : {

$LN4:
  00000	4c 89 44 24 18	 mov	 QWORD PTR [rsp+24], r8
  00005	48 89 54 24 10	 mov	 QWORD PTR [rsp+16], rdx
  0000a	48 89 4c 24 08	 mov	 QWORD PTR [rsp+8], rcx
  0000f	48 83 ec 58	 sub	 rsp, 88			; 00000058H

; 860  : 	size_t nLen;
; 861  : 
; 862  : 	const TCHAR *pRear = _tcsrchr(fullpath, g_s);

  00013	ba 5c 00 00 00	 mov	 edx, 92			; 0000005cH
  00018	48 8b 4c 24 60	 mov	 rcx, QWORD PTR fullpath$[rsp]
  0001d	e8 00 00 00 00	 call	 _tcsrchr
  00022	48 89 44 24 40	 mov	 QWORD PTR pRear$[rsp], rax

; 863  : 	nLen = pRear - fullpath + 1;

  00027	48 8b 44 24 60	 mov	 rax, QWORD PTR fullpath$[rsp]
  0002c	48 8b 4c 24 40	 mov	 rcx, QWORD PTR pRear$[rsp]
  00031	48 2b c8	 sub	 rcx, rax
  00034	48 8b c1	 mov	 rax, rcx
  00037	48 ff c0	 inc	 rax
  0003a	48 89 44 24 38	 mov	 QWORD PTR nLen$[rsp], rax

; 864  : 	_tcsncpy(dir, fullpath, nLen);

  0003f	4c 8b 44 24 38	 mov	 r8, QWORD PTR nLen$[rsp]
  00044	48 8b 54 24 60	 mov	 rdx, QWORD PTR fullpath$[rsp]
  00049	48 8b 4c 24 68	 mov	 rcx, QWORD PTR dir$[rsp]
  0004e	e8 00 00 00 00	 call	 _tcsncpy

; 865  : 	dir[nLen] = 0;

  00053	48 8b 44 24 38	 mov	 rax, QWORD PTR nLen$[rsp]
  00058	48 8b 4c 24 68	 mov	 rcx, QWORD PTR dir$[rsp]
  0005d	48 03 c8	 add	 rcx, rax
  00060	48 8b c1	 mov	 rax, rcx
  00063	c6 00 00	 mov	 BYTE PTR [rax], 0

; 866  : 	_tcscpy(name, pRear+1);

  00066	48 8b 44 24 40	 mov	 rax, QWORD PTR pRear$[rsp]
  0006b	48 ff c0	 inc	 rax
  0006e	48 89 44 24 30	 mov	 QWORD PTR tv76[rsp], rax
  00073	48 8b 44 24 70	 mov	 rax, QWORD PTR name$[rsp]
  00078	48 89 44 24 28	 mov	 QWORD PTR tv77[rsp], rax
  0007d	48 8b 44 24 28	 mov	 rax, QWORD PTR tv77[rsp]
  00082	48 89 44 24 48	 mov	 QWORD PTR tv78[rsp], rax
$LN3@detachFull:
  00087	48 8b 44 24 30	 mov	 rax, QWORD PTR tv76[rsp]
  0008c	0f b6 00	 movzx	 eax, BYTE PTR [rax]
  0008f	88 44 24 20	 mov	 BYTE PTR tv79[rsp], al
  00093	48 8b 44 24 28	 mov	 rax, QWORD PTR tv77[rsp]
  00098	0f b6 4c 24 20	 movzx	 ecx, BYTE PTR tv79[rsp]
  0009d	88 08		 mov	 BYTE PTR [rax], cl
  0009f	48 8b 44 24 30	 mov	 rax, QWORD PTR tv76[rsp]
  000a4	48 ff c0	 inc	 rax
  000a7	48 89 44 24 30	 mov	 QWORD PTR tv76[rsp], rax
  000ac	48 8b 44 24 28	 mov	 rax, QWORD PTR tv77[rsp]
  000b1	48 ff c0	 inc	 rax
  000b4	48 89 44 24 28	 mov	 QWORD PTR tv77[rsp], rax
  000b9	80 7c 24 20 00	 cmp	 BYTE PTR tv79[rsp], 0
  000be	75 c7		 jne	 SHORT $LN3@detachFull

; 867  : }

  000c0	48 83 c4 58	 add	 rsp, 88			; 00000058H
  000c4	c3		 ret	 0
?detachFullPath@@YAXPEBDPEAD1@Z ENDP			; detachFullPath
_TEXT	ENDS
; Function compile flags: /Odtp
; File e:\infinia-library-3.0\com\src\comlogger.cpp
;	COMDAT ?GetProfilePath@@YAHPEBD00PEAD0@Z
_TEXT	SEGMENT
nRes$ = 48
szDir$ = 64
__$ArrayPad$ = 320
section$ = 352
key$ = 360
initVal$ = 368
ret$ = 376
fName$ = 384
?GetProfilePath@@YAHPEBD00PEAD0@Z PROC			; GetProfilePath, COMDAT

; 839  : {

$LN8:
  00000	4c 89 4c 24 20	 mov	 QWORD PTR [rsp+32], r9
  00005	4c 89 44 24 18	 mov	 QWORD PTR [rsp+24], r8
  0000a	48 89 54 24 10	 mov	 QWORD PTR [rsp+16], rdx
  0000f	48 89 4c 24 08	 mov	 QWORD PTR [rsp+8], rcx
  00014	48 81 ec 58 01
	00 00		 sub	 rsp, 344		; 00000158H
  0001b	48 8b 05 00 00
	00 00		 mov	 rax, QWORD PTR __security_cookie
  00022	48 33 c4	 xor	 rax, rsp
  00025	48 89 84 24 40
	01 00 00	 mov	 QWORD PTR __$ArrayPad$[rsp], rax

; 840  : 	TCHAR szDir[256];
; 841  : 	int nRes = GetPrivateProfileString(section, key, _T(""), szDir, sizeof(szDir), fName);

  0002d	48 8b 84 24 80
	01 00 00	 mov	 rax, QWORD PTR fName$[rsp]
  00035	48 89 44 24 28	 mov	 QWORD PTR [rsp+40], rax
  0003a	c7 44 24 20 00
	01 00 00	 mov	 DWORD PTR [rsp+32], 256	; 00000100H
  00042	4c 8d 4c 24 40	 lea	 r9, QWORD PTR szDir$[rsp]
  00047	4c 8d 05 00 00
	00 00		 lea	 r8, OFFSET FLAT:$SG86886
  0004e	48 8b 94 24 68
	01 00 00	 mov	 rdx, QWORD PTR key$[rsp]
  00056	48 8b 8c 24 60
	01 00 00	 mov	 rcx, QWORD PTR section$[rsp]
  0005e	ff 15 00 00 00
	00		 call	 QWORD PTR __imp_GetPrivateProfileStringA
  00064	89 44 24 30	 mov	 DWORD PTR nRes$[rsp], eax

; 842  : 
; 843  : 	if (!nRes) {

  00068	83 7c 24 30 00	 cmp	 DWORD PTR nRes$[rsp], 0
  0006d	75 63		 jne	 SHORT $LN2@GetProfile

; 844  : 		if (initVal) {

  0006f	48 83 bc 24 70
	01 00 00 00	 cmp	 QWORD PTR initVal$[rsp], 0
  00078	74 31		 je	 SHORT $LN4@GetProfile

; 845  : 			nRes = _stprintf(ret, "%s%s%c", g_pWorkDir, initVal, g_s);

  0007a	c7 44 24 20 5c
	00 00 00	 mov	 DWORD PTR [rsp+32], 92	; 0000005cH
  00082	4c 8b 8c 24 70
	01 00 00	 mov	 r9, QWORD PTR initVal$[rsp]
  0008a	4c 8b 05 00 00
	00 00		 mov	 r8, QWORD PTR ?g_pWorkDir@@3PEADEA ; g_pWorkDir
  00091	48 8d 15 00 00
	00 00		 lea	 rdx, OFFSET FLAT:$SG86891
  00098	48 8b 8c 24 78
	01 00 00	 mov	 rcx, QWORD PTR ret$[rsp]
  000a0	e8 00 00 00 00	 call	 sprintf
  000a5	89 44 24 30	 mov	 DWORD PTR nRes$[rsp], eax

; 846  : 		}
; 847  : 		else {

  000a9	eb 25		 jmp	 SHORT $LN5@GetProfile
$LN4@GetProfile:

; 848  : 			nRes = _stprintf(ret, "%s%c", g_pWorkDir, g_s);

  000ab	41 b9 5c 00 00
	00		 mov	 r9d, 92			; 0000005cH
  000b1	4c 8b 05 00 00
	00 00		 mov	 r8, QWORD PTR ?g_pWorkDir@@3PEADEA ; g_pWorkDir
  000b8	48 8d 15 00 00
	00 00		 lea	 rdx, OFFSET FLAT:$SG86892
  000bf	48 8b 8c 24 78
	01 00 00	 mov	 rcx, QWORD PTR ret$[rsp]
  000c7	e8 00 00 00 00	 call	 sprintf
  000cc	89 44 24 30	 mov	 DWORD PTR nRes$[rsp], eax
$LN5@GetProfile:

; 849  : 		}

  000d0	eb 25		 jmp	 SHORT $LN3@GetProfile
$LN2@GetProfile:

; 850  : 	}
; 851  : 	else if (szDir[0] == '~') {

  000d2	b8 01 00 00 00	 mov	 eax, 1
  000d7	48 6b c0 00	 imul	 rax, rax, 0
  000db	0f be 44 04 40	 movsx	 eax, BYTE PTR szDir$[rsp+rax]
  000e0	83 f8 7e	 cmp	 eax, 126		; 0000007eH
  000e3	75 12		 jne	 SHORT $LN6@GetProfile

; 852  : 		changeToAbsolutePath(ret, szDir);

  000e5	48 8d 54 24 40	 lea	 rdx, QWORD PTR szDir$[rsp]
  000ea	48 8b 8c 24 78
	01 00 00	 mov	 rcx, QWORD PTR ret$[rsp]
  000f2	e8 00 00 00 00	 call	 ?changeToAbsolutePath@@YAXPEADPEBD@Z ; changeToAbsolutePath
$LN6@GetProfile:
$LN3@GetProfile:

; 853  : 	}
; 854  : 	return nRes;

  000f7	8b 44 24 30	 mov	 eax, DWORD PTR nRes$[rsp]

; 855  : }

  000fb	48 8b 8c 24 40
	01 00 00	 mov	 rcx, QWORD PTR __$ArrayPad$[rsp]
  00103	48 33 cc	 xor	 rcx, rsp
  00106	e8 00 00 00 00	 call	 __security_check_cookie
  0010b	48 81 c4 58 01
	00 00		 add	 rsp, 344		; 00000158H
  00112	c3		 ret	 0
?GetProfilePath@@YAHPEBD00PEAD0@Z ENDP			; GetProfilePath
_TEXT	ENDS
; Function compile flags: /Odtp
; File e:\infinia-library-3.0\com\src\comlogger.cpp
;	COMDAT ?changeToAbsolutePathFile@@YAXPEADPEBD@Z
_TEXT	SEGMENT
tv68 = 32
pBuf$ = 40
nRes$ = 48
tv66 = 56
tv65 = 64
tv67 = 72
szBuf$ = 80
__$ArrayPad$ = 1104
ret$ = 1136
path$ = 1144
?changeToAbsolutePathFile@@YAXPEADPEBD@Z PROC		; changeToAbsolutePathFile, COMDAT

; 800  : {

$LN8:
  00000	48 89 54 24 10	 mov	 QWORD PTR [rsp+16], rdx
  00005	48 89 4c 24 08	 mov	 QWORD PTR [rsp+8], rcx
  0000a	48 81 ec 68 04
	00 00		 sub	 rsp, 1128		; 00000468H
  00011	48 8b 05 00 00
	00 00		 mov	 rax, QWORD PTR __security_cookie
  00018	48 33 c4	 xor	 rax, rsp
  0001b	48 89 84 24 50
	04 00 00	 mov	 QWORD PTR __$ArrayPad$[rsp], rax

; 801  : 	TCHAR szBuf[1024];
; 802  : 	TCHAR *pBuf = (TCHAR *)szBuf;

  00023	48 8d 44 24 50	 lea	 rax, QWORD PTR szBuf$[rsp]
  00028	48 89 44 24 28	 mov	 QWORD PTR pBuf$[rsp], rax

; 803  : 	_tcscpy(szBuf, path);

  0002d	48 8b 84 24 78
	04 00 00	 mov	 rax, QWORD PTR path$[rsp]
  00035	48 89 44 24 40	 mov	 QWORD PTR tv65[rsp], rax
  0003a	48 8d 44 24 50	 lea	 rax, QWORD PTR szBuf$[rsp]
  0003f	48 89 44 24 38	 mov	 QWORD PTR tv66[rsp], rax
  00044	48 8b 44 24 38	 mov	 rax, QWORD PTR tv66[rsp]
  00049	48 89 44 24 48	 mov	 QWORD PTR tv67[rsp], rax
$LN7@changeToAb:
  0004e	48 8b 44 24 40	 mov	 rax, QWORD PTR tv65[rsp]
  00053	0f b6 00	 movzx	 eax, BYTE PTR [rax]
  00056	88 44 24 20	 mov	 BYTE PTR tv68[rsp], al
  0005a	48 8b 44 24 38	 mov	 rax, QWORD PTR tv66[rsp]
  0005f	0f b6 4c 24 20	 movzx	 ecx, BYTE PTR tv68[rsp]
  00064	88 08		 mov	 BYTE PTR [rax], cl
  00066	48 8b 44 24 40	 mov	 rax, QWORD PTR tv65[rsp]
  0006b	48 ff c0	 inc	 rax
  0006e	48 89 44 24 40	 mov	 QWORD PTR tv65[rsp], rax
  00073	48 8b 44 24 38	 mov	 rax, QWORD PTR tv66[rsp]
  00078	48 ff c0	 inc	 rax
  0007b	48 89 44 24 38	 mov	 QWORD PTR tv66[rsp], rax
  00080	80 7c 24 20 00	 cmp	 BYTE PTR tv68[rsp], 0
  00085	75 c7		 jne	 SHORT $LN7@changeToAb

; 804  : 	int nRes = 0;

  00087	c7 44 24 30 00
	00 00 00	 mov	 DWORD PTR nRes$[rsp], 0

; 805  : 	CEnv::initSystem();

  0008f	33 c9		 xor	 ecx, ecx
  00091	e8 00 00 00 00	 call	 ?initSystem@CEnv@@SAHPEAD@Z ; CEnv::initSystem

; 806  : 	if (pBuf[0] == '~') {

  00096	b8 01 00 00 00	 mov	 eax, 1
  0009b	48 6b c0 00	 imul	 rax, rax, 0
  0009f	48 8b 4c 24 28	 mov	 rcx, QWORD PTR pBuf$[rsp]
  000a4	0f be 04 01	 movsx	 eax, BYTE PTR [rcx+rax]
  000a8	83 f8 7e	 cmp	 eax, 126		; 0000007eH
  000ab	75 73		 jne	 SHORT $LN4@changeToAb

; 807  : 		pBuf++;

  000ad	48 8b 44 24 28	 mov	 rax, QWORD PTR pBuf$[rsp]
  000b2	48 ff c0	 inc	 rax
  000b5	48 89 44 24 28	 mov	 QWORD PTR pBuf$[rsp], rax
$LN2@changeToAb:

; 808  : 		while (*pBuf == '\\' || *pBuf == '/') {

  000ba	48 8b 44 24 28	 mov	 rax, QWORD PTR pBuf$[rsp]
  000bf	0f be 00	 movsx	 eax, BYTE PTR [rax]
  000c2	83 f8 5c	 cmp	 eax, 92			; 0000005cH
  000c5	74 0d		 je	 SHORT $LN5@changeToAb
  000c7	48 8b 44 24 28	 mov	 rax, QWORD PTR pBuf$[rsp]
  000cc	0f be 00	 movsx	 eax, BYTE PTR [rax]
  000cf	83 f8 2f	 cmp	 eax, 47			; 0000002fH
  000d2	75 17		 jne	 SHORT $LN3@changeToAb
$LN5@changeToAb:

; 809  : 			*pBuf = g_s;

  000d4	48 8b 44 24 28	 mov	 rax, QWORD PTR pBuf$[rsp]
  000d9	c6 00 5c	 mov	 BYTE PTR [rax], 92	; 0000005cH

; 810  : 			pBuf++;

  000dc	48 8b 44 24 28	 mov	 rax, QWORD PTR pBuf$[rsp]
  000e1	48 ff c0	 inc	 rax
  000e4	48 89 44 24 28	 mov	 QWORD PTR pBuf$[rsp], rax

; 811  : 		}

  000e9	eb cf		 jmp	 SHORT $LN2@changeToAb
$LN3@changeToAb:

; 812  : 		nRes = _stprintf(ret, _T("%s%s"), g_pWorkDir, pBuf);

  000eb	4c 8b 4c 24 28	 mov	 r9, QWORD PTR pBuf$[rsp]
  000f0	4c 8b 05 00 00
	00 00		 mov	 r8, QWORD PTR ?g_pWorkDir@@3PEADEA ; g_pWorkDir
  000f7	48 8d 15 00 00
	00 00		 lea	 rdx, OFFSET FLAT:$SG86860
  000fe	48 8b 8c 24 70
	04 00 00	 mov	 rcx, QWORD PTR ret$[rsp]
  00106	e8 00 00 00 00	 call	 sprintf
  0010b	89 44 24 30	 mov	 DWORD PTR nRes$[rsp], eax

; 813  : 		ret[nRes] = 0;

  0010f	48 63 44 24 30	 movsxd	 rax, DWORD PTR nRes$[rsp]
  00114	48 8b 8c 24 70
	04 00 00	 mov	 rcx, QWORD PTR ret$[rsp]
  0011c	c6 04 01 00	 mov	 BYTE PTR [rcx+rax], 0
$LN4@changeToAb:

; 814  : 	}
; 815  : }

  00120	48 8b 8c 24 50
	04 00 00	 mov	 rcx, QWORD PTR __$ArrayPad$[rsp]
  00128	48 33 cc	 xor	 rcx, rsp
  0012b	e8 00 00 00 00	 call	 __security_check_cookie
  00130	48 81 c4 68 04
	00 00		 add	 rsp, 1128		; 00000468H
  00137	c3		 ret	 0
?changeToAbsolutePathFile@@YAXPEADPEBD@Z ENDP		; changeToAbsolutePathFile
_TEXT	ENDS
; Function compile flags: /Odtp
; File e:\infinia-library-3.0\com\src\comlogger.cpp
;	COMDAT ?changeToAbsolutePath@@YAXPEADPEBD@Z
_TEXT	SEGMENT
tv68 = 32
pBuf$ = 40
nRes$ = 48
tv66 = 56
tv65 = 64
tv67 = 72
szBuf$ = 80
__$ArrayPad$ = 1104
ret$ = 1136
path$ = 1144
?changeToAbsolutePath@@YAXPEADPEBD@Z PROC		; changeToAbsolutePath, COMDAT

; 818  : {

$LN11:
  00000	48 89 54 24 10	 mov	 QWORD PTR [rsp+16], rdx
  00005	48 89 4c 24 08	 mov	 QWORD PTR [rsp+8], rcx
  0000a	48 81 ec 68 04
	00 00		 sub	 rsp, 1128		; 00000468H
  00011	48 8b 05 00 00
	00 00		 mov	 rax, QWORD PTR __security_cookie
  00018	48 33 c4	 xor	 rax, rsp
  0001b	48 89 84 24 50
	04 00 00	 mov	 QWORD PTR __$ArrayPad$[rsp], rax

; 819  : 	TCHAR szBuf[1024];
; 820  : 	TCHAR *pBuf = (TCHAR *)szBuf;

  00023	48 8d 44 24 50	 lea	 rax, QWORD PTR szBuf$[rsp]
  00028	48 89 44 24 28	 mov	 QWORD PTR pBuf$[rsp], rax

; 821  : 	_tcscpy(szBuf, path);

  0002d	48 8b 84 24 78
	04 00 00	 mov	 rax, QWORD PTR path$[rsp]
  00035	48 89 44 24 40	 mov	 QWORD PTR tv65[rsp], rax
  0003a	48 8d 44 24 50	 lea	 rax, QWORD PTR szBuf$[rsp]
  0003f	48 89 44 24 38	 mov	 QWORD PTR tv66[rsp], rax
  00044	48 8b 44 24 38	 mov	 rax, QWORD PTR tv66[rsp]
  00049	48 89 44 24 48	 mov	 QWORD PTR tv67[rsp], rax
$LN10@changeToAb:
  0004e	48 8b 44 24 40	 mov	 rax, QWORD PTR tv65[rsp]
  00053	0f b6 00	 movzx	 eax, BYTE PTR [rax]
  00056	88 44 24 20	 mov	 BYTE PTR tv68[rsp], al
  0005a	48 8b 44 24 38	 mov	 rax, QWORD PTR tv66[rsp]
  0005f	0f b6 4c 24 20	 movzx	 ecx, BYTE PTR tv68[rsp]
  00064	88 08		 mov	 BYTE PTR [rax], cl
  00066	48 8b 44 24 40	 mov	 rax, QWORD PTR tv65[rsp]
  0006b	48 ff c0	 inc	 rax
  0006e	48 89 44 24 40	 mov	 QWORD PTR tv65[rsp], rax
  00073	48 8b 44 24 38	 mov	 rax, QWORD PTR tv66[rsp]
  00078	48 ff c0	 inc	 rax
  0007b	48 89 44 24 38	 mov	 QWORD PTR tv66[rsp], rax
  00080	80 7c 24 20 00	 cmp	 BYTE PTR tv68[rsp], 0
  00085	75 c7		 jne	 SHORT $LN10@changeToAb

; 822  : 	int nRes=0;

  00087	c7 44 24 30 00
	00 00 00	 mov	 DWORD PTR nRes$[rsp], 0

; 823  : 	CEnv::initSystem();

  0008f	33 c9		 xor	 ecx, ecx
  00091	e8 00 00 00 00	 call	 ?initSystem@CEnv@@SAHPEAD@Z ; CEnv::initSystem

; 824  : 	if (pBuf[0] == '~') {

  00096	b8 01 00 00 00	 mov	 eax, 1
  0009b	48 6b c0 00	 imul	 rax, rax, 0
  0009f	48 8b 4c 24 28	 mov	 rcx, QWORD PTR pBuf$[rsp]
  000a4	0f be 04 01	 movsx	 eax, BYTE PTR [rcx+rax]
  000a8	83 f8 7e	 cmp	 eax, 126		; 0000007eH
  000ab	0f 85 bf 00 00
	00		 jne	 $LN4@changeToAb

; 825  : 		pBuf++;

  000b1	48 8b 44 24 28	 mov	 rax, QWORD PTR pBuf$[rsp]
  000b6	48 ff c0	 inc	 rax
  000b9	48 89 44 24 28	 mov	 QWORD PTR pBuf$[rsp], rax
$LN2@changeToAb:

; 826  : 		while (*pBuf == '\\' || *pBuf == '/') {

  000be	48 8b 44 24 28	 mov	 rax, QWORD PTR pBuf$[rsp]
  000c3	0f be 00	 movsx	 eax, BYTE PTR [rax]
  000c6	83 f8 5c	 cmp	 eax, 92			; 0000005cH
  000c9	74 0d		 je	 SHORT $LN5@changeToAb
  000cb	48 8b 44 24 28	 mov	 rax, QWORD PTR pBuf$[rsp]
  000d0	0f be 00	 movsx	 eax, BYTE PTR [rax]
  000d3	83 f8 2f	 cmp	 eax, 47			; 0000002fH
  000d6	75 17		 jne	 SHORT $LN3@changeToAb
$LN5@changeToAb:

; 827  : 			*pBuf = g_s;

  000d8	48 8b 44 24 28	 mov	 rax, QWORD PTR pBuf$[rsp]
  000dd	c6 00 5c	 mov	 BYTE PTR [rax], 92	; 0000005cH

; 828  : 			pBuf++;

  000e0	48 8b 44 24 28	 mov	 rax, QWORD PTR pBuf$[rsp]
  000e5	48 ff c0	 inc	 rax
  000e8	48 89 44 24 28	 mov	 QWORD PTR pBuf$[rsp], rax

; 829  : 		}

  000ed	eb cf		 jmp	 SHORT $LN2@changeToAb
$LN3@changeToAb:

; 830  : 		nRes = _stprintf(ret, _T("%s%s"), g_pWorkDir, pBuf);

  000ef	4c 8b 4c 24 28	 mov	 r9, QWORD PTR pBuf$[rsp]
  000f4	4c 8b 05 00 00
	00 00		 mov	 r8, QWORD PTR ?g_pWorkDir@@3PEADEA ; g_pWorkDir
  000fb	48 8d 15 00 00
	00 00		 lea	 rdx, OFFSET FLAT:$SG86873
  00102	48 8b 8c 24 70
	04 00 00	 mov	 rcx, QWORD PTR ret$[rsp]
  0010a	e8 00 00 00 00	 call	 sprintf
  0010f	89 44 24 30	 mov	 DWORD PTR nRes$[rsp], eax

; 831  : 		pBuf = ret+(nRes - 1);

  00113	8b 44 24 30	 mov	 eax, DWORD PTR nRes$[rsp]
  00117	ff c8		 dec	 eax
  00119	48 98		 cdqe
  0011b	48 8b 8c 24 70
	04 00 00	 mov	 rcx, QWORD PTR ret$[rsp]
  00123	48 03 c8	 add	 rcx, rax
  00126	48 8b c1	 mov	 rax, rcx
  00129	48 89 44 24 28	 mov	 QWORD PTR pBuf$[rsp], rax

; 832  : 		if(*pBuf == '\\' || *pBuf == '/') *pBuf = g_s;

  0012e	48 8b 44 24 28	 mov	 rax, QWORD PTR pBuf$[rsp]
  00133	0f be 00	 movsx	 eax, BYTE PTR [rax]
  00136	83 f8 5c	 cmp	 eax, 92			; 0000005cH
  00139	74 0d		 je	 SHORT $LN8@changeToAb
  0013b	48 8b 44 24 28	 mov	 rax, QWORD PTR pBuf$[rsp]
  00140	0f be 00	 movsx	 eax, BYTE PTR [rax]
  00143	83 f8 2f	 cmp	 eax, 47			; 0000002fH
  00146	75 0a		 jne	 SHORT $LN6@changeToAb
$LN8@changeToAb:
  00148	48 8b 44 24 28	 mov	 rax, QWORD PTR pBuf$[rsp]
  0014d	c6 00 5c	 mov	 BYTE PTR [rax], 92	; 0000005cH
  00150	eb 15		 jmp	 SHORT $LN7@changeToAb
$LN6@changeToAb:

; 833  : 		else { pBuf++; *pBuf = g_s;	}

  00152	48 8b 44 24 28	 mov	 rax, QWORD PTR pBuf$[rsp]
  00157	48 ff c0	 inc	 rax
  0015a	48 89 44 24 28	 mov	 QWORD PTR pBuf$[rsp], rax
  0015f	48 8b 44 24 28	 mov	 rax, QWORD PTR pBuf$[rsp]
  00164	c6 00 5c	 mov	 BYTE PTR [rax], 92	; 0000005cH
$LN7@changeToAb:

; 834  : 		*(pBuf + 1) = 0;

  00167	48 8b 44 24 28	 mov	 rax, QWORD PTR pBuf$[rsp]
  0016c	c6 40 01 00	 mov	 BYTE PTR [rax+1], 0
$LN4@changeToAb:

; 835  : 	}
; 836  : }

  00170	48 8b 8c 24 50
	04 00 00	 mov	 rcx, QWORD PTR __$ArrayPad$[rsp]
  00178	48 33 cc	 xor	 rcx, rsp
  0017b	e8 00 00 00 00	 call	 __security_check_cookie
  00180	48 81 c4 68 04
	00 00		 add	 rsp, 1128		; 00000468H
  00187	c3		 ret	 0
?changeToAbsolutePath@@YAXPEADPEBD@Z ENDP		; changeToAbsolutePath
_TEXT	ENDS
; Function compile flags: /Odtp
;	COMDAT ?__autoclassinit2@CLogger@@QEAAX_K@Z
_TEXT	SEGMENT
this$ = 16
classSize$ = 24
?__autoclassinit2@CLogger@@QEAAX_K@Z PROC		; CLogger::__autoclassinit2, COMDAT
$LN3:
  00000	48 89 54 24 10	 mov	 QWORD PTR [rsp+16], rdx
  00005	48 89 4c 24 08	 mov	 QWORD PTR [rsp+8], rcx
  0000a	57		 push	 rdi
  0000b	48 8b 7c 24 10	 mov	 rdi, QWORD PTR this$[rsp]
  00010	33 c0		 xor	 eax, eax
  00012	48 8b 4c 24 18	 mov	 rcx, QWORD PTR classSize$[rsp]
  00017	f3 aa		 rep stosb
  00019	5f		 pop	 rdi
  0001a	c3		 ret	 0
?__autoclassinit2@CLogger@@QEAAX_K@Z ENDP		; CLogger::__autoclassinit2
_TEXT	ENDS
; Function compile flags: /Odtp
; File e:\infinia-library-3.0\com\src\comlogger.cpp
;	COMDAT ?__openLogger@CLogger@@AEAAXPEBDH@Z
_TEXT	SEGMENT
bres$ = 32
szFileName$ = 48
__$ArrayPad$ = 304
this$ = 336
pFileName$ = 344
nSeq$ = 352
?__openLogger@CLogger@@AEAAXPEBDH@Z PROC		; CLogger::__openLogger, COMDAT

; 429  : {

$LN10:
  00000	44 89 44 24 18	 mov	 DWORD PTR [rsp+24], r8d
  00005	48 89 54 24 10	 mov	 QWORD PTR [rsp+16], rdx
  0000a	48 89 4c 24 08	 mov	 QWORD PTR [rsp+8], rcx
  0000f	57		 push	 rdi
  00010	48 81 ec 40 01
	00 00		 sub	 rsp, 320		; 00000140H
  00017	48 8b 05 00 00
	00 00		 mov	 rax, QWORD PTR __security_cookie
  0001e	48 33 c4	 xor	 rax, rsp
  00021	48 89 84 24 30
	01 00 00	 mov	 QWORD PTR __$ArrayPad$[rsp], rax

; 430  : 	//    
; 431  : 	TCHAR szFileName[256];
; 432  : 	bool bres;
; 433  : 
; 434  : 	//m_cLock.enter();
; 435  : 
; 436  : 	if (m_hFile) {

  00029	48 8b 84 24 50
	01 00 00	 mov	 rax, QWORD PTR this$[rsp]
  00031	48 83 b8 88 00
	00 00 00	 cmp	 QWORD PTR [rax+136], 0
  00039	74 3a		 je	 SHORT $LN2@openLogger

; 437  : 		clearLogFlag(IS_LOG_OPEN);

  0003b	ba 00 00 04 00	 mov	 edx, 262144		; 00040000H
  00040	48 8b 8c 24 50
	01 00 00	 mov	 rcx, QWORD PTR this$[rsp]
  00048	e8 00 00 00 00	 call	 ?clearLogFlag@CLogger@@QEAAXW4E_LOG_FLAG@@@Z ; CLogger::clearLogFlag

; 438  : 		fclose(m_hFile); m_hFile = NULL;

  0004d	48 8b 84 24 50
	01 00 00	 mov	 rax, QWORD PTR this$[rsp]
  00055	48 8b 88 88 00
	00 00		 mov	 rcx, QWORD PTR [rax+136]
  0005c	ff 15 00 00 00
	00		 call	 QWORD PTR __imp_fclose
  00062	48 8b 84 24 50
	01 00 00	 mov	 rax, QWORD PTR this$[rsp]
  0006a	48 c7 80 88 00
	00 00 00 00 00
	00		 mov	 QWORD PTR [rax+136], 0
$LN2@openLogger:

; 439  : 	}
; 440  : 
; 441  : 	memset(szFileName, 0, sizeof(szFileName));

  00075	48 8d 44 24 30	 lea	 rax, QWORD PTR szFileName$[rsp]
  0007a	48 8b f8	 mov	 rdi, rax
  0007d	33 c0		 xor	 eax, eax
  0007f	b9 00 01 00 00	 mov	 ecx, 256		; 00000100H
  00084	f3 aa		 rep stosb

; 442  : 	if (nSeq) { //    .

  00086	83 bc 24 60 01
	00 00 00	 cmp	 DWORD PTR nSeq$[rsp], 0
  0008e	74 47		 je	 SHORT $LN3@openLogger

; 443  : 		_stprintf(szFileName, _T("%s.%d"), pFileName, nSeq); // pFileName == m_pFName

  00090	44 8b 8c 24 60
	01 00 00	 mov	 r9d, DWORD PTR nSeq$[rsp]
  00098	4c 8b 84 24 58
	01 00 00	 mov	 r8, QWORD PTR pFileName$[rsp]
  000a0	48 8d 15 00 00
	00 00		 lea	 rdx, OFFSET FLAT:$SG86637
  000a7	48 8d 4c 24 30	 lea	 rcx, QWORD PTR szFileName$[rsp]
  000ac	e8 00 00 00 00	 call	 sprintf

; 444  : 
; 445  : 		bres = CFileUtil::renameFile(pFileName, szFileName);

  000b1	48 8d 54 24 30	 lea	 rdx, QWORD PTR szFileName$[rsp]
  000b6	48 8b 8c 24 58
	01 00 00	 mov	 rcx, QWORD PTR pFileName$[rsp]
  000be	e8 00 00 00 00	 call	 ?renameFile@CFileUtil@@SA_NPEBD0@Z ; CFileUtil::renameFile
  000c3	88 44 24 20	 mov	 BYTE PTR bres$[rsp], al

; 446  : 		//        .
; 447  : 		if (!bres) {

  000c7	0f b6 44 24 20	 movzx	 eax, BYTE PTR bres$[rsp]
  000cc	85 c0		 test	 eax, eax
  000ce	75 05		 jne	 SHORT $LN5@openLogger

; 448  : 			//m_cLock.leave();
; 449  : 			return;

  000d0	e9 d0 00 00 00	 jmp	 $LN1@openLogger
$LN5@openLogger:

; 450  : 		}		
; 451  : 	}
; 452  : 	else {

  000d5	eb 44		 jmp	 SHORT $LN4@openLogger
$LN3@openLogger:

; 453  : 		if (m_pFName) free(m_pFName);

  000d7	48 8b 84 24 50
	01 00 00	 mov	 rax, QWORD PTR this$[rsp]
  000df	48 83 b8 90 00
	00 00 00	 cmp	 QWORD PTR [rax+144], 0
  000e7	74 15		 je	 SHORT $LN6@openLogger
  000e9	48 8b 84 24 50
	01 00 00	 mov	 rax, QWORD PTR this$[rsp]
  000f1	48 8b 88 90 00
	00 00		 mov	 rcx, QWORD PTR [rax+144]
  000f8	ff 15 00 00 00
	00		 call	 QWORD PTR __imp_free
$LN6@openLogger:

; 454  : 		m_pFName = _tcsdup(pFileName);

  000fe	48 8b 8c 24 58
	01 00 00	 mov	 rcx, QWORD PTR pFileName$[rsp]
  00106	ff 15 00 00 00
	00		 call	 QWORD PTR __imp__strdup
  0010c	48 8b 8c 24 50
	01 00 00	 mov	 rcx, QWORD PTR this$[rsp]
  00114	48 89 81 90 00
	00 00		 mov	 QWORD PTR [rcx+144], rax
$LN4@openLogger:

; 455  : 	}
; 456  : 
; 457  : 	bres = CFileUtil::MakeDirectory(pFileName);

  0011b	48 8b 8c 24 58
	01 00 00	 mov	 rcx, QWORD PTR pFileName$[rsp]
  00123	e8 00 00 00 00	 call	 ?MakeDirectory@CFileUtil@@SA_NPEBD@Z ; CFileUtil::MakeDirectory
  00128	88 44 24 20	 mov	 BYTE PTR bres$[rsp], al

; 458  : 
; 459  : 	if (bres) {

  0012c	0f b6 44 24 20	 movzx	 eax, BYTE PTR bres$[rsp]
  00131	85 c0		 test	 eax, eax
  00133	74 70		 je	 SHORT $LN7@openLogger

; 460  : 		m_hFile = _tfopen(pFileName, _T("a+"));

  00135	48 8d 15 00 00
	00 00		 lea	 rdx, OFFSET FLAT:$SG86641
  0013c	48 8b 8c 24 58
	01 00 00	 mov	 rcx, QWORD PTR pFileName$[rsp]
  00144	ff 15 00 00 00
	00		 call	 QWORD PTR __imp_fopen
  0014a	48 8b 8c 24 50
	01 00 00	 mov	 rcx, QWORD PTR this$[rsp]
  00152	48 89 81 88 00
	00 00		 mov	 QWORD PTR [rcx+136], rax

; 461  : 		if (m_hFile == NULL) {

  00159	48 8b 84 24 50
	01 00 00	 mov	 rax, QWORD PTR this$[rsp]
  00161	48 83 b8 88 00
	00 00 00	 cmp	 QWORD PTR [rax+136], 0
  00169	75 16		 jne	 SHORT $LN8@openLogger

; 462  : 			_tprintf(_T("Can't create log file [%s]\n"), pFileName);

  0016b	48 8b 94 24 58
	01 00 00	 mov	 rdx, QWORD PTR pFileName$[rsp]
  00173	48 8d 0d 00 00
	00 00		 lea	 rcx, OFFSET FLAT:$SG86643
  0017a	e8 00 00 00 00	 call	 printf

; 463  : 			//m_cLock.leave();
; 464  : 			return;

  0017f	eb 24		 jmp	 SHORT $LN1@openLogger
$LN8@openLogger:

; 465  : 		}
; 466  : 
; 467  : 		m_nLogSize = 0;

  00181	48 8b 84 24 50
	01 00 00	 mov	 rax, QWORD PTR this$[rsp]
  00189	c7 80 c4 00 00
	00 00 00 00 00	 mov	 DWORD PTR [rax+196], 0

; 468  : 		setLogFlag(IS_LOG_OPEN);

  00193	ba 00 00 04 00	 mov	 edx, 262144		; 00040000H
  00198	48 8b 8c 24 50
	01 00 00	 mov	 rcx, QWORD PTR this$[rsp]
  001a0	e8 00 00 00 00	 call	 ?setLogFlag@CLogger@@QEAAXW4E_LOG_FLAG@@@Z ; CLogger::setLogFlag
$LN7@openLogger:
$LN1@openLogger:

; 469  : 	}
; 470  : 	//m_cLock.leave();
; 471  : }

  001a5	48 8b 8c 24 30
	01 00 00	 mov	 rcx, QWORD PTR __$ArrayPad$[rsp]
  001ad	48 33 cc	 xor	 rcx, rsp
  001b0	e8 00 00 00 00	 call	 __security_check_cookie
  001b5	48 81 c4 40 01
	00 00		 add	 rsp, 320		; 00000140H
  001bc	5f		 pop	 rdi
  001bd	c3		 ret	 0
?__openLogger@CLogger@@AEAAXPEBDH@Z ENDP		; CLogger::__openLogger
_TEXT	ENDS
; Function compile flags: /Odtp
; File e:\infinia-library-3.0\com\src\comlogger.cpp
;	COMDAT ?checkDeleteProc@CLogger@@AEAAXXZ
_TEXT	SEGMENT
t$ = 48
$T1 = 56
stFilter$2 = 64
cFileTime$ = 80
basic$ = 88
stDelInfo$3 = 96
__$ArrayPad$ = 120
this$ = 144
?checkDeleteProc@CLogger@@AEAAXXZ PROC			; CLogger::checkDeleteProc, COMDAT

; 720  : {

$LN5:
  00000	48 89 4c 24 08	 mov	 QWORD PTR [rsp+8], rcx
  00005	48 81 ec 88 00
	00 00		 sub	 rsp, 136		; 00000088H
  0000c	48 c7 44 24 38
	fe ff ff ff	 mov	 QWORD PTR $T1[rsp], -2
  00015	48 8b 05 00 00
	00 00		 mov	 rax, QWORD PTR __security_cookie
  0001c	48 33 c4	 xor	 rax, rsp
  0001f	48 89 44 24 78	 mov	 QWORD PTR __$ArrayPad$[rsp], rax

; 721  : 	time_t t, basic;
; 722  : 	CFileTime cFileTime;

  00024	48 8d 4c 24 50	 lea	 rcx, QWORD PTR cFileTime$[rsp]
  00029	e8 00 00 00 00	 call	 ??0CFileTime@@QEAA@XZ	; CFileTime::CFileTime
  0002e	90		 npad	 1

; 723  : 	t = time(NULL);

  0002f	33 c9		 xor	 ecx, ecx
  00031	e8 00 00 00 00	 call	 time
  00036	48 89 44 24 30	 mov	 QWORD PTR t$[rsp], rax

; 724  : 	if (m_tDeleteGoal <= t) { // proc delete

  0003b	48 8b 84 24 90
	00 00 00	 mov	 rax, QWORD PTR this$[rsp]
  00043	48 8b 4c 24 30	 mov	 rcx, QWORD PTR t$[rsp]
  00048	48 39 88 08 01
	00 00		 cmp	 QWORD PTR [rax+264], rcx
  0004f	0f 8f a4 00 00
	00		 jg	 $LN2@checkDelet

; 725  : 		basic = t - m_nDeleteInterval;

  00055	48 8b 84 24 90
	00 00 00	 mov	 rax, QWORD PTR this$[rsp]
  0005d	48 63 80 10 01
	00 00		 movsxd	 rax, DWORD PTR [rax+272]
  00064	48 8b 4c 24 30	 mov	 rcx, QWORD PTR t$[rsp]
  00069	48 2b c8	 sub	 rcx, rax
  0006c	48 8b c1	 mov	 rax, rcx
  0006f	48 89 44 24 58	 mov	 QWORD PTR basic$[rsp], rax

; 726  : 		cFileTime.setFileTime(&basic);

  00074	48 8d 54 24 58	 lea	 rdx, QWORD PTR basic$[rsp]
  00079	48 8d 4c 24 50	 lea	 rcx, QWORD PTR cFileTime$[rsp]
  0007e	e8 00 00 00 00	 call	 ?setFileTime@CFileTime@@QEAAHPEA_J@Z ; CFileTime::setFileTime

; 727  : 		STDelInfo stDelInfo;
; 728  : 		STFilterData stFilter;
; 729  : 		stDelInfo.init(m_pLogDir, true, true);

  00083	48 c7 44 24 20
	00 00 00 00	 mov	 QWORD PTR [rsp+32], 0
  0008c	41 b1 01	 mov	 r9b, 1
  0008f	41 b0 01	 mov	 r8b, 1
  00092	48 8b 84 24 90
	00 00 00	 mov	 rax, QWORD PTR this$[rsp]
  0009a	48 8b 90 98 00
	00 00		 mov	 rdx, QWORD PTR [rax+152]
  000a1	48 8d 4c 24 60	 lea	 rcx, QWORD PTR stDelInfo$3[rsp]
  000a6	e8 00 00 00 00	 call	 ?init@STDelInfo@@QEAAXPEAD_N1PEAX@Z ; STDelInfo::init

; 730  : 		stFilter.pData = &cFileTime;

  000ab	48 8d 44 24 50	 lea	 rax, QWORD PTR cFileTime$[rsp]
  000b0	48 89 44 24 48	 mov	 QWORD PTR stFilter$2[rsp+8], rax

; 731  : 		stFilter.pFunc = filter_dateTimeCompare;

  000b5	48 8d 05 00 00
	00 00		 lea	 rax, OFFSET FLAT:?filter_dateTimeCompare@@YA_NPEADPEAX1@Z ; filter_dateTimeCompare
  000bc	48 89 44 24 40	 mov	 QWORD PTR stFilter$2[rsp], rax

; 732  : 		CFileUtil::delDirectory(&stDelInfo, &stFilter);

  000c1	48 8d 54 24 40	 lea	 rdx, QWORD PTR stFilter$2[rsp]
  000c6	48 8d 4c 24 60	 lea	 rcx, QWORD PTR stDelInfo$3[rsp]
  000cb	e8 00 00 00 00	 call	 ?delDirectory@CFileUtil@@SAHPEAUSTDelInfo@@PEAUSTFilterData@@@Z ; CFileUtil::delDirectory

; 733  : 		m_tDeleteGoal = t + m_nDeleteInterval;

  000d0	48 8b 84 24 90
	00 00 00	 mov	 rax, QWORD PTR this$[rsp]
  000d8	48 63 80 10 01
	00 00		 movsxd	 rax, DWORD PTR [rax+272]
  000df	48 8b 4c 24 30	 mov	 rcx, QWORD PTR t$[rsp]
  000e4	48 03 c8	 add	 rcx, rax
  000e7	48 8b c1	 mov	 rax, rcx
  000ea	48 8b 8c 24 90
	00 00 00	 mov	 rcx, QWORD PTR this$[rsp]
  000f2	48 89 81 08 01
	00 00		 mov	 QWORD PTR [rcx+264], rax
$LN2@checkDelet:

; 734  : 	}
; 735  : }

  000f9	48 8d 4c 24 50	 lea	 rcx, QWORD PTR cFileTime$[rsp]
  000fe	e8 00 00 00 00	 call	 ??1CFileTime@@QEAA@XZ	; CFileTime::~CFileTime
  00103	48 8b 4c 24 78	 mov	 rcx, QWORD PTR __$ArrayPad$[rsp]
  00108	48 33 cc	 xor	 rcx, rsp
  0010b	e8 00 00 00 00	 call	 __security_check_cookie
  00110	48 81 c4 88 00
	00 00		 add	 rsp, 136		; 00000088H
  00117	c3		 ret	 0
?checkDeleteProc@CLogger@@AEAAXXZ ENDP			; CLogger::checkDeleteProc
_TEXT	ENDS
;	COMDAT text$x
text$x	SEGMENT
t$ = 48
$T1 = 56
stFilter$2 = 64
cFileTime$ = 80
basic$ = 88
stDelInfo$3 = 96
__$ArrayPad$ = 120
this$ = 144
?dtor$0@?0??checkDeleteProc@CLogger@@AEAAXXZ@4HA PROC	; `CLogger::checkDeleteProc'::`1'::dtor$0
  00000	40 55		 push	 rbp
  00002	48 83 ec 20	 sub	 rsp, 32			; 00000020H
  00006	48 8b ea	 mov	 rbp, rdx
  00009	48 8d 4d 50	 lea	 rcx, QWORD PTR cFileTime$[rbp]
  0000d	e8 00 00 00 00	 call	 ??1CFileTime@@QEAA@XZ	; CFileTime::~CFileTime
  00012	48 83 c4 20	 add	 rsp, 32			; 00000020H
  00016	5d		 pop	 rbp
  00017	c3		 ret	 0
?dtor$0@?0??checkDeleteProc@CLogger@@AEAAXXZ@4HA ENDP	; `CLogger::checkDeleteProc'::`1'::dtor$0
text$x	ENDS
; Function compile flags: /Odtp
;	COMDAT text$x
text$x	SEGMENT
t$ = 48
$T1 = 56
stFilter$2 = 64
cFileTime$ = 80
basic$ = 88
stDelInfo$3 = 96
__$ArrayPad$ = 120
this$ = 144
?dtor$0@?0??checkDeleteProc@CLogger@@AEAAXXZ@4HA PROC	; `CLogger::checkDeleteProc'::`1'::dtor$0
  00000	40 55		 push	 rbp
  00002	48 83 ec 20	 sub	 rsp, 32			; 00000020H
  00006	48 8b ea	 mov	 rbp, rdx
  00009	48 8d 4d 50	 lea	 rcx, QWORD PTR cFileTime$[rbp]
  0000d	e8 00 00 00 00	 call	 ??1CFileTime@@QEAA@XZ	; CFileTime::~CFileTime
  00012	48 83 c4 20	 add	 rsp, 32			; 00000020H
  00016	5d		 pop	 rbp
  00017	c3		 ret	 0
?dtor$0@?0??checkDeleteProc@CLogger@@AEAAXXZ@4HA ENDP	; `CLogger::checkDeleteProc'::`1'::dtor$0
text$x	ENDS
; Function compile flags: /Odtp
; File e:\infinia-library-3.0\com\src\comlogger.cpp
;	COMDAT ?GetKeepInfo@CLogger@@AEAAHPEBD@Z
_TEXT	SEGMENT
chKeepFileUnit$ = 32
tv68 = 33
nStrLen$ = 36
i$ = 40
nUnitSecond$ = 44
tv66 = 48
tv159 = 56
nNum$ = 64
tv65 = 72
$T1 = 80
tv158 = 88
tv67 = 96
szBuf$ = 104
__$ArrayPad$ = 136
this$ = 160
pValue$ = 168
?GetKeepInfo@CLogger@@AEAAHPEBD@Z PROC			; CLogger::GetKeepInfo, COMDAT

; 753  : {

$LN25:
  00000	48 89 54 24 10	 mov	 QWORD PTR [rsp+16], rdx
  00005	48 89 4c 24 08	 mov	 QWORD PTR [rsp+8], rcx
  0000a	48 81 ec 98 00
	00 00		 sub	 rsp, 152		; 00000098H
  00011	48 8b 05 00 00
	00 00		 mov	 rax, QWORD PTR __security_cookie
  00018	48 33 c4	 xor	 rax, rsp
  0001b	48 89 84 24 88
	00 00 00	 mov	 QWORD PTR __$ArrayPad$[rsp], rax

; 754  : 	char szBuf[32];
; 755  : 	char chKeepFileUnit;
; 756  : 	int nStrLen;
; 757  : 	int nUnitSecond, nNum;
; 758  : 
; 759  : 	strcpy(szBuf, pValue);

  00023	48 8b 84 24 a8
	00 00 00	 mov	 rax, QWORD PTR pValue$[rsp]
  0002b	48 89 44 24 48	 mov	 QWORD PTR tv65[rsp], rax
  00030	48 8d 44 24 68	 lea	 rax, QWORD PTR szBuf$[rsp]
  00035	48 89 44 24 30	 mov	 QWORD PTR tv66[rsp], rax
  0003a	48 8b 44 24 30	 mov	 rax, QWORD PTR tv66[rsp]
  0003f	48 89 44 24 60	 mov	 QWORD PTR tv67[rsp], rax
$LN21@GetKeepInf:
  00044	48 8b 44 24 48	 mov	 rax, QWORD PTR tv65[rsp]
  00049	0f b6 00	 movzx	 eax, BYTE PTR [rax]
  0004c	88 44 24 21	 mov	 BYTE PTR tv68[rsp], al
  00050	48 8b 44 24 30	 mov	 rax, QWORD PTR tv66[rsp]
  00055	0f b6 4c 24 21	 movzx	 ecx, BYTE PTR tv68[rsp]
  0005a	88 08		 mov	 BYTE PTR [rax], cl
  0005c	48 8b 44 24 48	 mov	 rax, QWORD PTR tv65[rsp]
  00061	48 ff c0	 inc	 rax
  00064	48 89 44 24 48	 mov	 QWORD PTR tv65[rsp], rax
  00069	48 8b 44 24 30	 mov	 rax, QWORD PTR tv66[rsp]
  0006e	48 ff c0	 inc	 rax
  00071	48 89 44 24 30	 mov	 QWORD PTR tv66[rsp], rax
  00076	80 7c 24 21 00	 cmp	 BYTE PTR tv68[rsp], 0
  0007b	75 c7		 jne	 SHORT $LN21@GetKeepInf

; 760  : 	nStrLen = (int)strlen(szBuf);

  0007d	48 8d 44 24 68	 lea	 rax, QWORD PTR szBuf$[rsp]
  00082	48 89 44 24 58	 mov	 QWORD PTR tv158[rsp], rax
  00087	48 c7 44 24 38
	ff ff ff ff	 mov	 QWORD PTR tv159[rsp], -1
$LL24@GetKeepInf:
  00090	48 ff 44 24 38	 inc	 QWORD PTR tv159[rsp]
  00095	48 8b 44 24 58	 mov	 rax, QWORD PTR tv158[rsp]
  0009a	48 8b 4c 24 38	 mov	 rcx, QWORD PTR tv159[rsp]
  0009f	80 3c 08 00	 cmp	 BYTE PTR [rax+rcx], 0
  000a3	75 eb		 jne	 SHORT $LL24@GetKeepInf
  000a5	48 8b 44 24 38	 mov	 rax, QWORD PTR tv159[rsp]
  000aa	89 44 24 24	 mov	 DWORD PTR nStrLen$[rsp], eax

; 761  : 	if (nStrLen < 2)

  000ae	83 7c 24 24 02	 cmp	 DWORD PTR nStrLen$[rsp], 2
  000b3	7d 16		 jge	 SHORT $LN5@GetKeepInf

; 762  : 	{
; 763  : 		printf("GetKeepInfo nStrLen < 2\n");

  000b5	48 8d 0d 00 00
	00 00		 lea	 rcx, OFFSET FLAT:$SG86833
  000bc	e8 00 00 00 00	 call	 printf

; 764  : 		return -1;

  000c1	b8 ff ff ff ff	 mov	 eax, -1
  000c6	e9 52 01 00 00	 jmp	 $LN1@GetKeepInf
$LN5@GetKeepInf:

; 765  : 	}
; 766  : 
; 767  : 	nStrLen = nStrLen - 1;

  000cb	8b 44 24 24	 mov	 eax, DWORD PTR nStrLen$[rsp]
  000cf	ff c8		 dec	 eax
  000d1	89 44 24 24	 mov	 DWORD PTR nStrLen$[rsp], eax

; 768  : 	chKeepFileUnit = szBuf[nStrLen];

  000d5	48 63 44 24 24	 movsxd	 rax, DWORD PTR nStrLen$[rsp]
  000da	0f b6 44 04 68	 movzx	 eax, BYTE PTR szBuf$[rsp+rax]
  000df	88 44 24 20	 mov	 BYTE PTR chKeepFileUnit$[rsp], al

; 769  : 	szBuf[nStrLen] = '\0';

  000e3	48 63 44 24 24	 movsxd	 rax, DWORD PTR nStrLen$[rsp]
  000e8	48 89 44 24 50	 mov	 QWORD PTR $T1[rsp], rax
  000ed	48 83 7c 24 50
	20		 cmp	 QWORD PTR $T1[rsp], 32	; 00000020H
  000f3	73 02		 jae	 SHORT $LN22@GetKeepInf
  000f5	eb 05		 jmp	 SHORT $LN23@GetKeepInf
$LN22@GetKeepInf:
  000f7	e8 00 00 00 00	 call	 __report_rangecheckfailure
$LN23@GetKeepInf:
  000fc	48 8b 44 24 50	 mov	 rax, QWORD PTR $T1[rsp]
  00101	c6 44 04 68 00	 mov	 BYTE PTR szBuf$[rsp+rax], 0

; 770  : 
; 771  : 	int i;
; 772  : 	for (i = 0; i < nStrLen; i++) {

  00106	c7 44 24 28 00
	00 00 00	 mov	 DWORD PTR i$[rsp], 0
  0010e	eb 0a		 jmp	 SHORT $LN4@GetKeepInf
$LN2@GetKeepInf:
  00110	8b 44 24 28	 mov	 eax, DWORD PTR i$[rsp]
  00114	ff c0		 inc	 eax
  00116	89 44 24 28	 mov	 DWORD PTR i$[rsp], eax
$LN4@GetKeepInf:
  0011a	8b 44 24 24	 mov	 eax, DWORD PTR nStrLen$[rsp]
  0011e	39 44 24 28	 cmp	 DWORD PTR i$[rsp], eax
  00122	7d 2a		 jge	 SHORT $LN3@GetKeepInf

; 773  : 		if ((szBuf[i] < '0') || (szBuf[i] > '9')) return -2;

  00124	48 63 44 24 28	 movsxd	 rax, DWORD PTR i$[rsp]
  00129	0f be 44 04 68	 movsx	 eax, BYTE PTR szBuf$[rsp+rax]
  0012e	83 f8 30	 cmp	 eax, 48			; 00000030H
  00131	7c 0f		 jl	 SHORT $LN7@GetKeepInf
  00133	48 63 44 24 28	 movsxd	 rax, DWORD PTR i$[rsp]
  00138	0f be 44 04 68	 movsx	 eax, BYTE PTR szBuf$[rsp+rax]
  0013d	83 f8 39	 cmp	 eax, 57			; 00000039H
  00140	7e 0a		 jle	 SHORT $LN6@GetKeepInf
$LN7@GetKeepInf:
  00142	b8 fe ff ff ff	 mov	 eax, -2
  00147	e9 d1 00 00 00	 jmp	 $LN1@GetKeepInf
$LN6@GetKeepInf:

; 774  : 	}

  0014c	eb c2		 jmp	 SHORT $LN2@GetKeepInf
$LN3@GetKeepInf:

; 775  : 
; 776  : 	nNum = atoi(szBuf);

  0014e	48 8d 4c 24 68	 lea	 rcx, QWORD PTR szBuf$[rsp]
  00153	ff 15 00 00 00
	00		 call	 QWORD PTR __imp_atoi
  00159	89 44 24 40	 mov	 DWORD PTR nNum$[rsp], eax

; 777  : 
; 778  : 	if ((chKeepFileUnit == 's') || (chKeepFileUnit == 'S')) {

  0015d	0f be 44 24 20	 movsx	 eax, BYTE PTR chKeepFileUnit$[rsp]
  00162	83 f8 73	 cmp	 eax, 115		; 00000073H
  00165	74 0a		 je	 SHORT $LN10@GetKeepInf
  00167	0f be 44 24 20	 movsx	 eax, BYTE PTR chKeepFileUnit$[rsp]
  0016c	83 f8 53	 cmp	 eax, 83			; 00000053H
  0016f	75 0a		 jne	 SHORT $LN8@GetKeepInf
$LN10@GetKeepInf:

; 779  : 		nUnitSecond = 1;

  00171	c7 44 24 2c 01
	00 00 00	 mov	 DWORD PTR nUnitSecond$[rsp], 1
  00179	eb 61		 jmp	 SHORT $LN9@GetKeepInf
$LN8@GetKeepInf:

; 780  : 	}
; 781  : 	else if ((chKeepFileUnit == 'm') || (chKeepFileUnit == 'M')) {

  0017b	0f be 44 24 20	 movsx	 eax, BYTE PTR chKeepFileUnit$[rsp]
  00180	83 f8 6d	 cmp	 eax, 109		; 0000006dH
  00183	74 0a		 je	 SHORT $LN13@GetKeepInf
  00185	0f be 44 24 20	 movsx	 eax, BYTE PTR chKeepFileUnit$[rsp]
  0018a	83 f8 4d	 cmp	 eax, 77			; 0000004dH
  0018d	75 0a		 jne	 SHORT $LN11@GetKeepInf
$LN13@GetKeepInf:

; 782  : 		nUnitSecond = 60;

  0018f	c7 44 24 2c 3c
	00 00 00	 mov	 DWORD PTR nUnitSecond$[rsp], 60 ; 0000003cH
  00197	eb 43		 jmp	 SHORT $LN12@GetKeepInf
$LN11@GetKeepInf:

; 783  : 	}
; 784  : 	else if ((chKeepFileUnit == 'h') || (chKeepFileUnit == 'H')) {

  00199	0f be 44 24 20	 movsx	 eax, BYTE PTR chKeepFileUnit$[rsp]
  0019e	83 f8 68	 cmp	 eax, 104		; 00000068H
  001a1	74 0a		 je	 SHORT $LN16@GetKeepInf
  001a3	0f be 44 24 20	 movsx	 eax, BYTE PTR chKeepFileUnit$[rsp]
  001a8	83 f8 48	 cmp	 eax, 72			; 00000048H
  001ab	75 0a		 jne	 SHORT $LN14@GetKeepInf
$LN16@GetKeepInf:

; 785  : 		nUnitSecond = 60 * 60;

  001ad	c7 44 24 2c 10
	0e 00 00	 mov	 DWORD PTR nUnitSecond$[rsp], 3600 ; 00000e10H
  001b5	eb 25		 jmp	 SHORT $LN15@GetKeepInf
$LN14@GetKeepInf:

; 786  : 	}
; 787  : 	else if ((chKeepFileUnit == 'd') || (chKeepFileUnit == 'D')) {

  001b7	0f be 44 24 20	 movsx	 eax, BYTE PTR chKeepFileUnit$[rsp]
  001bc	83 f8 64	 cmp	 eax, 100		; 00000064H
  001bf	74 0a		 je	 SHORT $LN19@GetKeepInf
  001c1	0f be 44 24 20	 movsx	 eax, BYTE PTR chKeepFileUnit$[rsp]
  001c6	83 f8 44	 cmp	 eax, 68			; 00000044H
  001c9	75 0a		 jne	 SHORT $LN17@GetKeepInf
$LN19@GetKeepInf:

; 788  : 		nUnitSecond = 60 * 60 * 24;

  001cb	c7 44 24 2c 80
	51 01 00	 mov	 DWORD PTR nUnitSecond$[rsp], 86400 ; 00015180H

; 789  : 	}
; 790  : 	else

  001d3	eb 07		 jmp	 SHORT $LN18@GetKeepInf
$LN17@GetKeepInf:

; 791  : 	{
; 792  : 		return -5;

  001d5	b8 fb ff ff ff	 mov	 eax, -5
  001da	eb 41		 jmp	 SHORT $LN1@GetKeepInf
$LN18@GetKeepInf:
$LN15@GetKeepInf:
$LN12@GetKeepInf:
$LN9@GetKeepInf:

; 793  : 	}
; 794  : 	m_nDeleteInterval = nNum * nUnitSecond;

  001dc	8b 44 24 40	 mov	 eax, DWORD PTR nNum$[rsp]
  001e0	0f af 44 24 2c	 imul	 eax, DWORD PTR nUnitSecond$[rsp]
  001e5	48 8b 8c 24 a0
	00 00 00	 mov	 rcx, QWORD PTR this$[rsp]
  001ed	89 81 10 01 00
	00		 mov	 DWORD PTR [rcx+272], eax

; 795  : 	m_tDeleteGoal = time(NULL) + m_nDeleteInterval;

  001f3	33 c9		 xor	 ecx, ecx
  001f5	e8 00 00 00 00	 call	 time
  001fa	48 8b 8c 24 a0
	00 00 00	 mov	 rcx, QWORD PTR this$[rsp]
  00202	48 63 89 10 01
	00 00		 movsxd	 rcx, DWORD PTR [rcx+272]
  00209	48 03 c1	 add	 rax, rcx
  0020c	48 8b 8c 24 a0
	00 00 00	 mov	 rcx, QWORD PTR this$[rsp]
  00214	48 89 81 08 01
	00 00		 mov	 QWORD PTR [rcx+264], rax

; 796  : 	return 0;

  0021b	33 c0		 xor	 eax, eax
$LN1@GetKeepInf:
$LN20@GetKeepInf:

; 797  : }

  0021d	48 8b 8c 24 88
	00 00 00	 mov	 rcx, QWORD PTR __$ArrayPad$[rsp]
  00225	48 33 cc	 xor	 rcx, rsp
  00228	e8 00 00 00 00	 call	 __security_check_cookie
  0022d	48 81 c4 98 00
	00 00		 add	 rsp, 152		; 00000098H
  00234	c3		 ret	 0
?GetKeepInfo@CLogger@@AEAAHPEBD@Z ENDP			; CLogger::GetKeepInfo
_TEXT	ENDS
; Function compile flags: /Odtp
; File e:\infinia-library-3.0\com\src\comlogger.cpp
;	COMDAT ?setDateTimeFormat@CLogger@@AEAAXPEAUSTLogDateTimeExp@@@Z
_TEXT	SEGMENT
nRes$ = 32
tv87 = 36
tv143 = 40
tv227 = 44
this$ = 80
pLogDTE$ = 88
?setDateTimeFormat@CLogger@@AEAAXPEAUSTLogDateTimeExp@@@Z PROC ; CLogger::setDateTimeFormat, COMDAT

; 367  : {

$LN30:
  00000	48 89 54 24 10	 mov	 QWORD PTR [rsp+16], rdx
  00005	48 89 4c 24 08	 mov	 QWORD PTR [rsp+8], rcx
  0000a	56		 push	 rsi
  0000b	57		 push	 rdi
  0000c	48 83 ec 38	 sub	 rsp, 56			; 00000038H

; 368  : 	int nRes = 0;

  00010	c7 44 24 20 00
	00 00 00	 mov	 DWORD PTR nRes$[rsp], 0

; 369  : 
; 370  : 	if (pLogDTE->bBracketEnclosed) m_szHeaderFormat[nRes++] = _T('[');

  00018	48 8b 44 24 58	 mov	 rax, QWORD PTR pLogDTE$[rsp]
  0001d	0f be 00	 movsx	 eax, BYTE PTR [rax]
  00020	85 c0		 test	 eax, eax
  00022	74 1c		 je	 SHORT $LN8@setDateTim
  00024	48 63 44 24 20	 movsxd	 rax, DWORD PTR nRes$[rsp]
  00029	48 8b 4c 24 50	 mov	 rcx, QWORD PTR this$[rsp]
  0002e	c6 84 01 c8 00
	00 00 5b	 mov	 BYTE PTR [rcx+rax+200], 91 ; 0000005bH
  00036	8b 44 24 20	 mov	 eax, DWORD PTR nRes$[rsp]
  0003a	ff c0		 inc	 eax
  0003c	89 44 24 20	 mov	 DWORD PTR nRes$[rsp], eax
$LN8@setDateTim:

; 371  : 
; 372  : 	if (pLogDTE->nYearLen == 4) {

  00040	48 8b 44 24 58	 mov	 rax, QWORD PTR pLogDTE$[rsp]
  00045	0f be 40 03	 movsx	 eax, BYTE PTR [rax+3]
  00049	83 f8 04	 cmp	 eax, 4
  0004c	0f 85 93 00 00
	00		 jne	 $LN9@setDateTim

; 373  : 		_tcscpy(m_szHeaderFormat + nRes, _T("%04d")); nRes += 4;

  00052	48 63 44 24 20	 movsxd	 rax, DWORD PTR nRes$[rsp]
  00057	48 8b 4c 24 50	 mov	 rcx, QWORD PTR this$[rsp]
  0005c	48 8d 15 00 00
	00 00		 lea	 rdx, OFFSET FLAT:$SG86585
  00063	48 8d bc 01 c8
	00 00 00	 lea	 rdi, QWORD PTR [rcx+rax+200]
  0006b	48 8b f2	 mov	 rsi, rdx
  0006e	b9 05 00 00 00	 mov	 ecx, 5
  00073	f3 a4		 rep movsb
  00075	8b 44 24 20	 mov	 eax, DWORD PTR nRes$[rsp]
  00079	83 c0 04	 add	 eax, 4
  0007c	89 44 24 20	 mov	 DWORD PTR nRes$[rsp], eax

; 374  : 		switch (pLogDTE->nLastType) {

  00080	48 8b 44 24 58	 mov	 rax, QWORD PTR pLogDTE$[rsp]
  00085	8b 40 04	 mov	 eax, DWORD PTR [rax+4]
  00088	89 44 24 24	 mov	 DWORD PTR tv87[rsp], eax
  0008c	83 7c 24 24 01	 cmp	 DWORD PTR tv87[rsp], 1
  00091	74 17		 je	 SHORT $LN11@setDateTim
  00093	83 7c 24 24 02	 cmp	 DWORD PTR tv87[rsp], 2
  00098	74 1e		 je	 SHORT $LN12@setDateTim
  0009a	83 7c 24 24 03	 cmp	 DWORD PTR tv87[rsp], 3
  0009f	74 25		 je	 SHORT $LN13@setDateTim
  000a1	83 7c 24 24 04	 cmp	 DWORD PTR tv87[rsp], 4
  000a6	74 2c		 je	 SHORT $LN14@setDateTim
  000a8	eb 36		 jmp	 SHORT $LN2@setDateTim
$LN11@setDateTim:

; 375  : 		case DT_SEC: m_nDateTimeFormat = LOG_DATE_YYYYMMDDHHMMSS; break;

  000aa	48 8b 44 24 50	 mov	 rax, QWORD PTR this$[rsp]
  000af	c7 40 7c 01 00
	00 00		 mov	 DWORD PTR [rax+124], 1
  000b6	eb 28		 jmp	 SHORT $LN2@setDateTim
$LN12@setDateTim:

; 376  : 		case DT_MILLISEC: m_nDateTimeFormat = LOG_DATE_YYYYMMDDHHMMSS3; break;

  000b8	48 8b 44 24 50	 mov	 rax, QWORD PTR this$[rsp]
  000bd	c7 40 7c 02 00
	00 00		 mov	 DWORD PTR [rax+124], 2
  000c4	eb 1a		 jmp	 SHORT $LN2@setDateTim
$LN13@setDateTim:

; 377  : 		case DT_MICROSEC: m_nDateTimeFormat = LOG_DATE_YYYYMMDDHHMMSS6; break;

  000c6	48 8b 44 24 50	 mov	 rax, QWORD PTR this$[rsp]
  000cb	c7 40 7c 03 00
	00 00		 mov	 DWORD PTR [rax+124], 3
  000d2	eb 0c		 jmp	 SHORT $LN2@setDateTim
$LN14@setDateTim:

; 378  : 		case DT_NANOSEC: m_nDateTimeFormat = LOG_DATE_YYYYMMDDHHMMSS9; break;

  000d4	48 8b 44 24 50	 mov	 rax, QWORD PTR this$[rsp]
  000d9	c7 40 7c 04 00
	00 00		 mov	 DWORD PTR [rax+124], 4
$LN2@setDateTim:

; 379  : 		}
; 380  : 	}
; 381  : 	else if (pLogDTE->nYearLen == 2) {

  000e0	e9 ae 00 00 00	 jmp	 $LN10@setDateTim
$LN9@setDateTim:
  000e5	48 8b 44 24 58	 mov	 rax, QWORD PTR pLogDTE$[rsp]
  000ea	0f be 40 03	 movsx	 eax, BYTE PTR [rax+3]
  000ee	83 f8 02	 cmp	 eax, 2
  000f1	0f 85 90 00 00
	00		 jne	 $LN15@setDateTim

; 382  : 		_tcscpy(m_szHeaderFormat + nRes, _T("%s")); nRes += 2;

  000f7	48 63 44 24 20	 movsxd	 rax, DWORD PTR nRes$[rsp]
  000fc	48 8b 4c 24 50	 mov	 rcx, QWORD PTR this$[rsp]
  00101	48 8d 15 00 00
	00 00		 lea	 rdx, OFFSET FLAT:$SG86592
  00108	48 8d bc 01 c8
	00 00 00	 lea	 rdi, QWORD PTR [rcx+rax+200]
  00110	48 8b f2	 mov	 rsi, rdx
  00113	b9 03 00 00 00	 mov	 ecx, 3
  00118	f3 a4		 rep movsb
  0011a	8b 44 24 20	 mov	 eax, DWORD PTR nRes$[rsp]
  0011e	83 c0 02	 add	 eax, 2
  00121	89 44 24 20	 mov	 DWORD PTR nRes$[rsp], eax

; 383  : 		switch (pLogDTE->nLastType) {

  00125	48 8b 44 24 58	 mov	 rax, QWORD PTR pLogDTE$[rsp]
  0012a	8b 40 04	 mov	 eax, DWORD PTR [rax+4]
  0012d	89 44 24 28	 mov	 DWORD PTR tv143[rsp], eax
  00131	83 7c 24 28 01	 cmp	 DWORD PTR tv143[rsp], 1
  00136	74 17		 je	 SHORT $LN17@setDateTim
  00138	83 7c 24 28 02	 cmp	 DWORD PTR tv143[rsp], 2
  0013d	74 1e		 je	 SHORT $LN18@setDateTim
  0013f	83 7c 24 28 03	 cmp	 DWORD PTR tv143[rsp], 3
  00144	74 25		 je	 SHORT $LN19@setDateTim
  00146	83 7c 24 28 04	 cmp	 DWORD PTR tv143[rsp], 4
  0014b	74 2c		 je	 SHORT $LN20@setDateTim
  0014d	eb 36		 jmp	 SHORT $LN4@setDateTim
$LN17@setDateTim:

; 384  : 		case DT_SEC: m_nDateTimeFormat = LOG_DATE_YYMMDDHHMMSS; break;

  0014f	48 8b 44 24 50	 mov	 rax, QWORD PTR this$[rsp]
  00154	c7 40 7c 05 00
	00 00		 mov	 DWORD PTR [rax+124], 5
  0015b	eb 28		 jmp	 SHORT $LN4@setDateTim
$LN18@setDateTim:

; 385  : 		case DT_MILLISEC: m_nDateTimeFormat = LOG_DATE_YYMMDDHHMMSS3; break;

  0015d	48 8b 44 24 50	 mov	 rax, QWORD PTR this$[rsp]
  00162	c7 40 7c 06 00
	00 00		 mov	 DWORD PTR [rax+124], 6
  00169	eb 1a		 jmp	 SHORT $LN4@setDateTim
$LN19@setDateTim:

; 386  : 		case DT_MICROSEC: m_nDateTimeFormat = LOG_DATE_YYMMDDHHMMSS6; break;

  0016b	48 8b 44 24 50	 mov	 rax, QWORD PTR this$[rsp]
  00170	c7 40 7c 07 00
	00 00		 mov	 DWORD PTR [rax+124], 7
  00177	eb 0c		 jmp	 SHORT $LN4@setDateTim
$LN20@setDateTim:

; 387  : 		case DT_NANOSEC: m_nDateTimeFormat = LOG_DATE_YYMMDDHHMMSS9; break;

  00179	48 8b 44 24 50	 mov	 rax, QWORD PTR this$[rsp]
  0017e	c7 40 7c 08 00
	00 00		 mov	 DWORD PTR [rax+124], 8
$LN4@setDateTim:

; 388  : 		}
; 389  : 	}
; 390  : 	else {

  00185	eb 0c		 jmp	 SHORT $LN16@setDateTim
$LN15@setDateTim:

; 391  : 		m_nDateTimeFormat = LOG_DATE_NONE;

  00187	48 8b 44 24 50	 mov	 rax, QWORD PTR this$[rsp]
  0018c	c7 40 7c 00 00
	00 00		 mov	 DWORD PTR [rax+124], 0
$LN16@setDateTim:
$LN10@setDateTim:

; 392  : 	}
; 393  : 
; 394  : 	if (pLogDTE->cDateDelimeter) nRes += _stprintf(m_szHeaderFormat + nRes, "%c", pLogDTE->cDateDelimeter);

  00193	48 8b 44 24 58	 mov	 rax, QWORD PTR pLogDTE$[rsp]
  00198	0f be 40 01	 movsx	 eax, BYTE PTR [rax+1]
  0019c	85 c0		 test	 eax, eax
  0019e	74 36		 je	 SHORT $LN21@setDateTim
  001a0	48 8b 44 24 58	 mov	 rax, QWORD PTR pLogDTE$[rsp]
  001a5	0f be 40 01	 movsx	 eax, BYTE PTR [rax+1]
  001a9	48 63 4c 24 20	 movsxd	 rcx, DWORD PTR nRes$[rsp]
  001ae	48 8b 54 24 50	 mov	 rdx, QWORD PTR this$[rsp]
  001b3	48 8d 8c 0a c8
	00 00 00	 lea	 rcx, QWORD PTR [rdx+rcx+200]
  001bb	44 8b c0	 mov	 r8d, eax
  001be	48 8d 15 00 00
	00 00		 lea	 rdx, OFFSET FLAT:$SG86598
  001c5	e8 00 00 00 00	 call	 sprintf
  001ca	8b 4c 24 20	 mov	 ecx, DWORD PTR nRes$[rsp]
  001ce	03 c8		 add	 ecx, eax
  001d0	8b c1		 mov	 eax, ecx
  001d2	89 44 24 20	 mov	 DWORD PTR nRes$[rsp], eax
$LN21@setDateTim:

; 395  : 	_tcscpy(m_szHeaderFormat + nRes, _T("%02d")); nRes += 4;

  001d6	48 63 44 24 20	 movsxd	 rax, DWORD PTR nRes$[rsp]
  001db	48 8b 4c 24 50	 mov	 rcx, QWORD PTR this$[rsp]
  001e0	48 8d 15 00 00
	00 00		 lea	 rdx, OFFSET FLAT:$SG86599
  001e7	48 8d bc 01 c8
	00 00 00	 lea	 rdi, QWORD PTR [rcx+rax+200]
  001ef	48 8b f2	 mov	 rsi, rdx
  001f2	b9 05 00 00 00	 mov	 ecx, 5
  001f7	f3 a4		 rep movsb
  001f9	8b 44 24 20	 mov	 eax, DWORD PTR nRes$[rsp]
  001fd	83 c0 04	 add	 eax, 4
  00200	89 44 24 20	 mov	 DWORD PTR nRes$[rsp], eax

; 396  : 	if (pLogDTE->cDateDelimeter) nRes += _stprintf(m_szHeaderFormat + nRes, "%c", pLogDTE->cDateDelimeter);

  00204	48 8b 44 24 58	 mov	 rax, QWORD PTR pLogDTE$[rsp]
  00209	0f be 40 01	 movsx	 eax, BYTE PTR [rax+1]
  0020d	85 c0		 test	 eax, eax
  0020f	74 36		 je	 SHORT $LN22@setDateTim
  00211	48 8b 44 24 58	 mov	 rax, QWORD PTR pLogDTE$[rsp]
  00216	0f be 40 01	 movsx	 eax, BYTE PTR [rax+1]
  0021a	48 63 4c 24 20	 movsxd	 rcx, DWORD PTR nRes$[rsp]
  0021f	48 8b 54 24 50	 mov	 rdx, QWORD PTR this$[rsp]
  00224	48 8d 8c 0a c8
	00 00 00	 lea	 rcx, QWORD PTR [rdx+rcx+200]
  0022c	44 8b c0	 mov	 r8d, eax
  0022f	48 8d 15 00 00
	00 00		 lea	 rdx, OFFSET FLAT:$SG86601
  00236	e8 00 00 00 00	 call	 sprintf
  0023b	8b 4c 24 20	 mov	 ecx, DWORD PTR nRes$[rsp]
  0023f	03 c8		 add	 ecx, eax
  00241	8b c1		 mov	 eax, ecx
  00243	89 44 24 20	 mov	 DWORD PTR nRes$[rsp], eax
$LN22@setDateTim:

; 397  : 	_tcscpy(m_szHeaderFormat + nRes, _T("%02d ")); nRes += 5;

  00247	48 63 44 24 20	 movsxd	 rax, DWORD PTR nRes$[rsp]
  0024c	48 8b 4c 24 50	 mov	 rcx, QWORD PTR this$[rsp]
  00251	48 8d 15 00 00
	00 00		 lea	 rdx, OFFSET FLAT:$SG86602
  00258	48 8d bc 01 c8
	00 00 00	 lea	 rdi, QWORD PTR [rcx+rax+200]
  00260	48 8b f2	 mov	 rsi, rdx
  00263	b9 06 00 00 00	 mov	 ecx, 6
  00268	f3 a4		 rep movsb
  0026a	8b 44 24 20	 mov	 eax, DWORD PTR nRes$[rsp]
  0026e	83 c0 05	 add	 eax, 5
  00271	89 44 24 20	 mov	 DWORD PTR nRes$[rsp], eax

; 398  : 
; 399  : 	if (pLogDTE->bTimeDelimeter) { _tcscpy(m_szHeaderFormat + nRes, _T("%02d:%02d:%02d")); nRes += 14; }

  00275	48 8b 44 24 58	 mov	 rax, QWORD PTR pLogDTE$[rsp]
  0027a	0f be 40 02	 movsx	 eax, BYTE PTR [rax+2]
  0027e	85 c0		 test	 eax, eax
  00280	74 30		 je	 SHORT $LN23@setDateTim
  00282	48 63 44 24 20	 movsxd	 rax, DWORD PTR nRes$[rsp]
  00287	48 8b 4c 24 50	 mov	 rcx, QWORD PTR this$[rsp]
  0028c	48 8d 15 00 00
	00 00		 lea	 rdx, OFFSET FLAT:$SG86605
  00293	48 8d bc 01 c8
	00 00 00	 lea	 rdi, QWORD PTR [rcx+rax+200]
  0029b	48 8b f2	 mov	 rsi, rdx
  0029e	b9 0f 00 00 00	 mov	 ecx, 15
  002a3	f3 a4		 rep movsb
  002a5	8b 44 24 20	 mov	 eax, DWORD PTR nRes$[rsp]
  002a9	83 c0 0e	 add	 eax, 14
  002ac	89 44 24 20	 mov	 DWORD PTR nRes$[rsp], eax
  002b0	eb 2e		 jmp	 SHORT $LN24@setDateTim
$LN23@setDateTim:

; 400  : 	else { _tcscpy(m_szHeaderFormat + nRes, _T("%02d%02d%02d")); nRes += 12; }

  002b2	48 63 44 24 20	 movsxd	 rax, DWORD PTR nRes$[rsp]
  002b7	48 8b 4c 24 50	 mov	 rcx, QWORD PTR this$[rsp]
  002bc	48 8d 15 00 00
	00 00		 lea	 rdx, OFFSET FLAT:$SG86606
  002c3	48 8d bc 01 c8
	00 00 00	 lea	 rdi, QWORD PTR [rcx+rax+200]
  002cb	48 8b f2	 mov	 rsi, rdx
  002ce	b9 0d 00 00 00	 mov	 ecx, 13
  002d3	f3 a4		 rep movsb
  002d5	8b 44 24 20	 mov	 eax, DWORD PTR nRes$[rsp]
  002d9	83 c0 0c	 add	 eax, 12
  002dc	89 44 24 20	 mov	 DWORD PTR nRes$[rsp], eax
$LN24@setDateTim:

; 401  : 
; 402  : 	switch (pLogDTE->nLastType) {

  002e0	48 8b 44 24 58	 mov	 rax, QWORD PTR pLogDTE$[rsp]
  002e5	8b 40 04	 mov	 eax, DWORD PTR [rax+4]
  002e8	89 44 24 2c	 mov	 DWORD PTR tv227[rsp], eax
  002ec	83 7c 24 2c 02	 cmp	 DWORD PTR tv227[rsp], 2
  002f1	74 13		 je	 SHORT $LN25@setDateTim
  002f3	83 7c 24 2c 03	 cmp	 DWORD PTR tv227[rsp], 3
  002f8	74 3c		 je	 SHORT $LN26@setDateTim
  002fa	83 7c 24 2c 04	 cmp	 DWORD PTR tv227[rsp], 4
  002ff	74 65		 je	 SHORT $LN27@setDateTim
  00301	e9 8e 00 00 00	 jmp	 $LN6@setDateTim
$LN25@setDateTim:

; 403  : 	case DT_MILLISEC: _tcscpy(m_szHeaderFormat + nRes, _T(".%03d")); nRes += 5; break;

  00306	48 63 44 24 20	 movsxd	 rax, DWORD PTR nRes$[rsp]
  0030b	48 8b 4c 24 50	 mov	 rcx, QWORD PTR this$[rsp]
  00310	48 8d 15 00 00
	00 00		 lea	 rdx, OFFSET FLAT:$SG86608
  00317	48 8d bc 01 c8
	00 00 00	 lea	 rdi, QWORD PTR [rcx+rax+200]
  0031f	48 8b f2	 mov	 rsi, rdx
  00322	b9 06 00 00 00	 mov	 ecx, 6
  00327	f3 a4		 rep movsb
  00329	8b 44 24 20	 mov	 eax, DWORD PTR nRes$[rsp]
  0032d	83 c0 05	 add	 eax, 5
  00330	89 44 24 20	 mov	 DWORD PTR nRes$[rsp], eax
  00334	eb 5e		 jmp	 SHORT $LN6@setDateTim
$LN26@setDateTim:

; 404  : 	case DT_MICROSEC: _tcscpy(m_szHeaderFormat + nRes, _T(".%06d")); nRes += 5; break;

  00336	48 63 44 24 20	 movsxd	 rax, DWORD PTR nRes$[rsp]
  0033b	48 8b 4c 24 50	 mov	 rcx, QWORD PTR this$[rsp]
  00340	48 8d 15 00 00
	00 00		 lea	 rdx, OFFSET FLAT:$SG86610
  00347	48 8d bc 01 c8
	00 00 00	 lea	 rdi, QWORD PTR [rcx+rax+200]
  0034f	48 8b f2	 mov	 rsi, rdx
  00352	b9 06 00 00 00	 mov	 ecx, 6
  00357	f3 a4		 rep movsb
  00359	8b 44 24 20	 mov	 eax, DWORD PTR nRes$[rsp]
  0035d	83 c0 05	 add	 eax, 5
  00360	89 44 24 20	 mov	 DWORD PTR nRes$[rsp], eax
  00364	eb 2e		 jmp	 SHORT $LN6@setDateTim
$LN27@setDateTim:

; 405  : 	case DT_NANOSEC: _tcscpy(m_szHeaderFormat + nRes, _T(".%09d")); nRes += 5; break;

  00366	48 63 44 24 20	 movsxd	 rax, DWORD PTR nRes$[rsp]
  0036b	48 8b 4c 24 50	 mov	 rcx, QWORD PTR this$[rsp]
  00370	48 8d 15 00 00
	00 00		 lea	 rdx, OFFSET FLAT:$SG86612
  00377	48 8d bc 01 c8
	00 00 00	 lea	 rdi, QWORD PTR [rcx+rax+200]
  0037f	48 8b f2	 mov	 rsi, rdx
  00382	b9 06 00 00 00	 mov	 ecx, 6
  00387	f3 a4		 rep movsb
  00389	8b 44 24 20	 mov	 eax, DWORD PTR nRes$[rsp]
  0038d	83 c0 05	 add	 eax, 5
  00390	89 44 24 20	 mov	 DWORD PTR nRes$[rsp], eax
$LN6@setDateTim:

; 406  : 	}
; 407  : 
; 408  : 	if (pLogDTE->bBracketEnclosed) m_szHeaderFormat[nRes++] = _T(']');

  00394	48 8b 44 24 58	 mov	 rax, QWORD PTR pLogDTE$[rsp]
  00399	0f be 00	 movsx	 eax, BYTE PTR [rax]
  0039c	85 c0		 test	 eax, eax
  0039e	74 1c		 je	 SHORT $LN28@setDateTim
  003a0	48 63 44 24 20	 movsxd	 rax, DWORD PTR nRes$[rsp]
  003a5	48 8b 4c 24 50	 mov	 rcx, QWORD PTR this$[rsp]
  003aa	c6 84 01 c8 00
	00 00 5d	 mov	 BYTE PTR [rcx+rax+200], 93 ; 0000005dH
  003b2	8b 44 24 20	 mov	 eax, DWORD PTR nRes$[rsp]
  003b6	ff c0		 inc	 eax
  003b8	89 44 24 20	 mov	 DWORD PTR nRes$[rsp], eax
$LN28@setDateTim:

; 409  : 	m_szHeaderFormat[nRes] = 0;

  003bc	48 63 44 24 20	 movsxd	 rax, DWORD PTR nRes$[rsp]
  003c1	48 8b 4c 24 50	 mov	 rcx, QWORD PTR this$[rsp]
  003c6	c6 84 01 c8 00
	00 00 00	 mov	 BYTE PTR [rcx+rax+200], 0

; 410  : }

  003ce	48 83 c4 38	 add	 rsp, 56			; 00000038H
  003d2	5f		 pop	 rdi
  003d3	5e		 pop	 rsi
  003d4	c3		 ret	 0
?setDateTimeFormat@CLogger@@AEAAXPEAUSTLogDateTimeExp@@@Z ENDP ; CLogger::setDateTimeFormat
_TEXT	ENDS
; Function compile flags: /Odtp
; File e:\infinia-library-3.0\com\src\comlogger.cpp
;	COMDAT ?setLogName@CLogger@@AEAAXPEAD@Z
_TEXT	SEGMENT
szBuf$ = 64
__$ArrayPad$ = 192
this$ = 224
pTarget$ = 232
?setLogName@CLogger@@AEAAXPEAD@Z PROC			; CLogger::setLogName, COMDAT

; 738  : {

$LN8:
  00000	48 89 54 24 10	 mov	 QWORD PTR [rsp+16], rdx
  00005	48 89 4c 24 08	 mov	 QWORD PTR [rsp+8], rcx
  0000a	48 81 ec d8 00
	00 00		 sub	 rsp, 216		; 000000d8H
  00011	48 8b 05 00 00
	00 00		 mov	 rax, QWORD PTR __security_cookie
  00018	48 33 c4	 xor	 rax, rsp
  0001b	48 89 84 24 c0
	00 00 00	 mov	 QWORD PTR __$ArrayPad$[rsp], rax

; 739  : 	TCHAR szBuf[128];
; 740  : 	if (m_nLogFlag & LOG_FLAG_DAILY) {

  00023	48 8b 84 24 e0
	00 00 00	 mov	 rax, QWORD PTR this$[rsp]
  0002b	8b 80 b4 00 00
	00		 mov	 eax, DWORD PTR [rax+180]
  00031	25 00 02 00 00	 and	 eax, 512		; 00000200H
  00036	85 c0		 test	 eax, eax
  00038	74 40		 je	 SHORT $LN2@setLogName

; 741  : 		_stprintf(szBuf, _T("%s/%d_%s"), m_pLogDir, gs_today_time.date, m_pLogName);

  0003a	48 8b 84 24 e0
	00 00 00	 mov	 rax, QWORD PTR this$[rsp]
  00042	48 8b 80 a0 00
	00 00		 mov	 rax, QWORD PTR [rax+160]
  00049	48 89 44 24 20	 mov	 QWORD PTR [rsp+32], rax
  0004e	44 8b 0d 18 00
	00 00		 mov	 r9d, DWORD PTR ?gs_today_time@@3USTTodayTime@@A+24
  00055	48 8b 84 24 e0
	00 00 00	 mov	 rax, QWORD PTR this$[rsp]
  0005d	4c 8b 80 98 00
	00 00		 mov	 r8, QWORD PTR [rax+152]
  00064	48 8d 15 00 00
	00 00		 lea	 rdx, OFFSET FLAT:$SG86811
  0006b	48 8d 4c 24 40	 lea	 rcx, QWORD PTR szBuf$[rsp]
  00070	e8 00 00 00 00	 call	 sprintf
  00075	e9 b7 00 00 00	 jmp	 $LN3@setLogName
$LN2@setLogName:

; 742  : 	}
; 743  : 	else if (m_nLogFlag & LOG_FLAG_HOURLY) {

  0007a	48 8b 84 24 e0
	00 00 00	 mov	 rax, QWORD PTR this$[rsp]
  00082	8b 80 b4 00 00
	00		 mov	 eax, DWORD PTR [rax+180]
  00088	25 00 04 00 00	 and	 eax, 1024		; 00000400H
  0008d	85 c0		 test	 eax, eax
  0008f	74 5a		 je	 SHORT $LN4@setLogName

; 744  : 		_stprintf(szBuf, _T("%s/%d/%s_%02d.%s"), m_pLogDir, gs_today_time.date, m_pLogName, gs_today_time.hour, m_szFileExtension);

  00091	48 8b 84 24 e0
	00 00 00	 mov	 rax, QWORD PTR this$[rsp]
  00099	48 05 a8 00 00
	00		 add	 rax, 168		; 000000a8H
  0009f	48 89 44 24 30	 mov	 QWORD PTR [rsp+48], rax
  000a4	8b 05 0c 00 00
	00		 mov	 eax, DWORD PTR ?gs_today_time@@3USTTodayTime@@A+12
  000aa	89 44 24 28	 mov	 DWORD PTR [rsp+40], eax
  000ae	48 8b 84 24 e0
	00 00 00	 mov	 rax, QWORD PTR this$[rsp]
  000b6	48 8b 80 a0 00
	00 00		 mov	 rax, QWORD PTR [rax+160]
  000bd	48 89 44 24 20	 mov	 QWORD PTR [rsp+32], rax
  000c2	44 8b 0d 18 00
	00 00		 mov	 r9d, DWORD PTR ?gs_today_time@@3USTTodayTime@@A+24
  000c9	48 8b 84 24 e0
	00 00 00	 mov	 rax, QWORD PTR this$[rsp]
  000d1	4c 8b 80 98 00
	00 00		 mov	 r8, QWORD PTR [rax+152]
  000d8	48 8d 15 00 00
	00 00		 lea	 rdx, OFFSET FLAT:$SG86814
  000df	48 8d 4c 24 40	 lea	 rcx, QWORD PTR szBuf$[rsp]
  000e4	e8 00 00 00 00	 call	 sprintf
  000e9	eb 46		 jmp	 SHORT $LN5@setLogName
$LN4@setLogName:

; 745  : 	}
; 746  : 	else if (m_nLogFlag & LOG_FLAG_FILE) {

  000eb	48 8b 84 24 e0
	00 00 00	 mov	 rax, QWORD PTR this$[rsp]
  000f3	8b 80 b4 00 00
	00		 mov	 eax, DWORD PTR [rax+180]
  000f9	25 00 08 00 00	 and	 eax, 2048		; 00000800H
  000fe	85 c0		 test	 eax, eax
  00100	74 2f		 je	 SHORT $LN6@setLogName

; 747  : 		_stprintf(szBuf, _T("%s/%s"), m_pLogDir, m_pLogName);

  00102	48 8b 84 24 e0
	00 00 00	 mov	 rax, QWORD PTR this$[rsp]
  0010a	4c 8b 88 a0 00
	00 00		 mov	 r9, QWORD PTR [rax+160]
  00111	48 8b 84 24 e0
	00 00 00	 mov	 rax, QWORD PTR this$[rsp]
  00119	4c 8b 80 98 00
	00 00		 mov	 r8, QWORD PTR [rax+152]
  00120	48 8d 15 00 00
	00 00		 lea	 rdx, OFFSET FLAT:$SG86816
  00127	48 8d 4c 24 40	 lea	 rcx, QWORD PTR szBuf$[rsp]
  0012c	e8 00 00 00 00	 call	 sprintf
$LN6@setLogName:
$LN5@setLogName:
$LN3@setLogName:

; 748  : 	}
; 749  : }

  00131	48 8b 8c 24 c0
	00 00 00	 mov	 rcx, QWORD PTR __$ArrayPad$[rsp]
  00139	48 33 cc	 xor	 rcx, rsp
  0013c	e8 00 00 00 00	 call	 __security_check_cookie
  00141	48 81 c4 d8 00
	00 00		 add	 rsp, 216		; 000000d8H
  00148	c3		 ret	 0
?setLogName@CLogger@@AEAAXPEAD@Z ENDP			; CLogger::setLogName
_TEXT	ENDS
; Function compile flags: /Odtp
; File e:\infinia-library-3.0\com\src\comlogger.cpp
;	COMDAT ?_setLoggerQueue@CLogger@@AEAA_NH@Z
_TEXT	SEGMENT
nQueueMax$ = 32
this$ = 64
nMax$ = 72
?_setLoggerQueue@CLogger@@AEAA_NH@Z PROC		; CLogger::_setLoggerQueue, COMDAT

; 297  : {

$LN8:
  00000	89 54 24 10	 mov	 DWORD PTR [rsp+16], edx
  00004	48 89 4c 24 08	 mov	 QWORD PTR [rsp+8], rcx
  00009	48 83 ec 38	 sub	 rsp, 56			; 00000038H

; 298  : 	int nQueueMax = m_sLogQueue.capacity();

  0000d	48 8b 44 24 40	 mov	 rax, QWORD PTR this$[rsp]
  00012	48 8b c8	 mov	 rcx, rax
  00015	e8 00 00 00 00	 call	 ?capacity@CQueueS@@QEAAHXZ ; CQueueS::capacity
  0001a	89 44 24 20	 mov	 DWORD PTR nQueueMax$[rsp], eax

; 299  : 	if (!nQueueMax) { // empty

  0001e	83 7c 24 20 00	 cmp	 DWORD PTR nQueueMax$[rsp], 0
  00023	75 50		 jne	 SHORT $LN2@setLoggerQ

; 300  : 		if (!m_sLogQueue.alloc(nMax, eAlloc_Type_BufPool)) {

  00025	48 8b 44 24 40	 mov	 rax, QWORD PTR this$[rsp]
  0002a	41 b8 04 00 00
	00		 mov	 r8d, 4
  00030	8b 54 24 48	 mov	 edx, DWORD PTR nMax$[rsp]
  00034	48 8b c8	 mov	 rcx, rax
  00037	e8 00 00 00 00	 call	 ?alloc@CQueueS@@QEAA_NHW4E_ALLOC_TYPE@@@Z ; CQueueS::alloc
  0003c	0f b6 c0	 movzx	 eax, al
  0003f	85 c0		 test	 eax, eax
  00041	75 30		 jne	 SHORT $LN4@setLoggerQ

; 301  : 			_stprintf(g_szMessage, _T("m_sLogQueue.alloc(20, eAlloc_Type_BufPool) has Failed"));

  00043	48 8d 15 00 00
	00 00		 lea	 rdx, OFFSET FLAT:$SG86528
  0004a	48 8d 0d 00 00
	00 00		 lea	 rcx, OFFSET FLAT:?g_szMessage@@3PADA ; g_szMessage
  00051	e8 00 00 00 00	 call	 sprintf

; 302  : 			comErrorPrint(g_szMessage);

  00056	41 b8 2e 01 00
	00		 mov	 r8d, 302		; 0000012eH
  0005c	48 8d 15 00 00
	00 00		 lea	 rdx, OFFSET FLAT:$SG86529
  00063	48 8d 0d 00 00
	00 00		 lea	 rcx, OFFSET FLAT:?g_szMessage@@3PADA ; g_szMessage
  0006a	e8 00 00 00 00	 call	 ?comGlobalErrorProc@@YAXPEADPEBDH@Z ; comGlobalErrorProc

; 303  : 			return false;

  0006f	32 c0		 xor	 al, al
  00071	eb 5e		 jmp	 SHORT $LN1@setLoggerQ
$LN4@setLoggerQ:

; 304  : 		}
; 305  : 	}

  00073	eb 5a		 jmp	 SHORT $LN3@setLoggerQ
$LN2@setLoggerQ:

; 306  : 	else if (nQueueMax < nMax) {

  00075	8b 44 24 48	 mov	 eax, DWORD PTR nMax$[rsp]
  00079	39 44 24 20	 cmp	 DWORD PTR nQueueMax$[rsp], eax
  0007d	7d 50		 jge	 SHORT $LN5@setLoggerQ

; 307  : 		if (!m_sLogQueue.realloc(nMax, true)) {

  0007f	48 8b 44 24 40	 mov	 rax, QWORD PTR this$[rsp]
  00084	41 b0 01	 mov	 r8b, 1
  00087	8b 54 24 48	 mov	 edx, DWORD PTR nMax$[rsp]
  0008b	48 8b c8	 mov	 rcx, rax
  0008e	e8 00 00 00 00	 call	 ?realloc@CQueueS@@QEAA_NH_N@Z ; CQueueS::realloc
  00093	0f b6 c0	 movzx	 eax, al
  00096	85 c0		 test	 eax, eax
  00098	75 35		 jne	 SHORT $LN6@setLoggerQ

; 308  : 			_stprintf(g_szMessage, _T("m_sLogQueue.realloc(%d,true) has Failed"), nMax);

  0009a	44 8b 44 24 48	 mov	 r8d, DWORD PTR nMax$[rsp]
  0009f	48 8d 15 00 00
	00 00		 lea	 rdx, OFFSET FLAT:$SG86532
  000a6	48 8d 0d 00 00
	00 00		 lea	 rcx, OFFSET FLAT:?g_szMessage@@3PADA ; g_szMessage
  000ad	e8 00 00 00 00	 call	 sprintf

; 309  : 			comErrorPrint(g_szMessage);

  000b2	41 b8 35 01 00
	00		 mov	 r8d, 309		; 00000135H
  000b8	48 8d 15 00 00
	00 00		 lea	 rdx, OFFSET FLAT:$SG86533
  000bf	48 8d 0d 00 00
	00 00		 lea	 rcx, OFFSET FLAT:?g_szMessage@@3PADA ; g_szMessage
  000c6	e8 00 00 00 00	 call	 ?comGlobalErrorProc@@YAXPEADPEBDH@Z ; comGlobalErrorProc

; 310  : 			return false;

  000cb	32 c0		 xor	 al, al
  000cd	eb 02		 jmp	 SHORT $LN1@setLoggerQ
$LN6@setLoggerQ:
$LN5@setLoggerQ:
$LN3@setLoggerQ:

; 311  : 		}
; 312  : 	}
; 313  : 	return true;

  000cf	b0 01		 mov	 al, 1
$LN1@setLoggerQ:

; 314  : }

  000d1	48 83 c4 38	 add	 rsp, 56			; 00000038H
  000d5	c3		 ret	 0
?_setLoggerQueue@CLogger@@AEAA_NH@Z ENDP		; CLogger::_setLoggerQueue
_TEXT	ENDS
; Function compile flags: /Odtp
; File e:\infinia-library-3.0\com\src\comlogger.cpp
;	COMDAT ?_setLoggerBasic@CLogger@@AEAAXHHH@Z
_TEXT	SEGMENT
tv64 = 0
this$ = 32
nLogType$ = 40
nPrintLevel$ = 48
nSizeLimit$ = 56
?_setLoggerBasic@CLogger@@AEAAXHHH@Z PROC		; CLogger::_setLoggerBasic, COMDAT

; 316  : {

$LN12:
  00000	44 89 4c 24 20	 mov	 DWORD PTR [rsp+32], r9d
  00005	44 89 44 24 18	 mov	 DWORD PTR [rsp+24], r8d
  0000a	89 54 24 10	 mov	 DWORD PTR [rsp+16], edx
  0000e	48 89 4c 24 08	 mov	 QWORD PTR [rsp+8], rcx
  00013	48 83 ec 18	 sub	 rsp, 24

; 317  : 	switch (nLogType){

  00017	8b 44 24 28	 mov	 eax, DWORD PTR nLogType$[rsp]
  0001b	89 04 24	 mov	 DWORD PTR tv64[rsp], eax
  0001e	83 3c 24 01	 cmp	 DWORD PTR tv64[rsp], 1
  00022	74 11		 je	 SHORT $LN4@setLoggerB
  00024	83 3c 24 02	 cmp	 DWORD PTR tv64[rsp], 2
  00028	74 42		 je	 SHORT $LN5@setLoggerB
  0002a	83 3c 24 03	 cmp	 DWORD PTR tv64[rsp], 3
  0002e	74 73		 je	 SHORT $LN6@setLoggerB
  00030	e9 a3 00 00 00	 jmp	 $LN2@setLoggerB
$LN4@setLoggerB:

; 318  : 		case LOG_TYPE_DAILY: {
; 319  : 			m_nLogFlag |= LOG_FLAG_DAILY; m_nLogFlag &= ~(LOG_FLAG_HOURLY | LOG_FLAG_FILE);

  00035	48 8b 44 24 20	 mov	 rax, QWORD PTR this$[rsp]
  0003a	8b 80 b4 00 00
	00		 mov	 eax, DWORD PTR [rax+180]
  00040	0f ba e8 09	 bts	 eax, 9
  00044	48 8b 4c 24 20	 mov	 rcx, QWORD PTR this$[rsp]
  00049	89 81 b4 00 00
	00		 mov	 DWORD PTR [rcx+180], eax
  0004f	48 8b 44 24 20	 mov	 rax, QWORD PTR this$[rsp]
  00054	8b 80 b4 00 00
	00		 mov	 eax, DWORD PTR [rax+180]
  0005a	25 ff f3 ff ff	 and	 eax, -3073		; fffffffffffff3ffH
  0005f	48 8b 4c 24 20	 mov	 rcx, QWORD PTR this$[rsp]
  00064	89 81 b4 00 00
	00		 mov	 DWORD PTR [rcx+180], eax

; 320  : 		} break;

  0006a	eb 6c		 jmp	 SHORT $LN2@setLoggerB
$LN5@setLoggerB:

; 321  : 		case LOG_TYPE_HOURLY: {
; 322  : 			m_nLogFlag |= LOG_FLAG_HOURLY; m_nLogFlag &= ~(LOG_FLAG_DAILY | LOG_FLAG_FILE);

  0006c	48 8b 44 24 20	 mov	 rax, QWORD PTR this$[rsp]
  00071	8b 80 b4 00 00
	00		 mov	 eax, DWORD PTR [rax+180]
  00077	0f ba e8 0a	 bts	 eax, 10
  0007b	48 8b 4c 24 20	 mov	 rcx, QWORD PTR this$[rsp]
  00080	89 81 b4 00 00
	00		 mov	 DWORD PTR [rcx+180], eax
  00086	48 8b 44 24 20	 mov	 rax, QWORD PTR this$[rsp]
  0008b	8b 80 b4 00 00
	00		 mov	 eax, DWORD PTR [rax+180]
  00091	25 ff f5 ff ff	 and	 eax, -2561		; fffffffffffff5ffH
  00096	48 8b 4c 24 20	 mov	 rcx, QWORD PTR this$[rsp]
  0009b	89 81 b4 00 00
	00		 mov	 DWORD PTR [rcx+180], eax

; 323  : 		}  break;

  000a1	eb 35		 jmp	 SHORT $LN2@setLoggerB
$LN6@setLoggerB:

; 324  : 		case LOG_TYPE_FILE: {
; 325  : 			m_nLogFlag |= LOG_FLAG_FILE; m_nLogFlag &= ~(LOG_FLAG_DAILY | LOG_FLAG_HOURLY);

  000a3	48 8b 44 24 20	 mov	 rax, QWORD PTR this$[rsp]
  000a8	8b 80 b4 00 00
	00		 mov	 eax, DWORD PTR [rax+180]
  000ae	0f ba e8 0b	 bts	 eax, 11
  000b2	48 8b 4c 24 20	 mov	 rcx, QWORD PTR this$[rsp]
  000b7	89 81 b4 00 00
	00		 mov	 DWORD PTR [rcx+180], eax
  000bd	48 8b 44 24 20	 mov	 rax, QWORD PTR this$[rsp]
  000c2	8b 80 b4 00 00
	00		 mov	 eax, DWORD PTR [rax+180]
  000c8	25 ff f9 ff ff	 and	 eax, -1537		; fffffffffffff9ffH
  000cd	48 8b 4c 24 20	 mov	 rcx, QWORD PTR this$[rsp]
  000d2	89 81 b4 00 00
	00		 mov	 DWORD PTR [rcx+180], eax
$LN2@setLoggerB:

; 326  : 		} break;
; 327  : 	}
; 328  : 	if (nPrintLevel) m_nLogFlag |= IS_PRINT_LEVEL;

  000d8	83 7c 24 30 00	 cmp	 DWORD PTR nPrintLevel$[rsp], 0
  000dd	74 1c		 je	 SHORT $LN7@setLoggerB
  000df	48 8b 44 24 20	 mov	 rax, QWORD PTR this$[rsp]
  000e4	8b 80 b4 00 00
	00		 mov	 eax, DWORD PTR [rax+180]
  000ea	0f ba e8 0e	 bts	 eax, 14
  000ee	48 8b 4c 24 20	 mov	 rcx, QWORD PTR this$[rsp]
  000f3	89 81 b4 00 00
	00		 mov	 DWORD PTR [rcx+180], eax
  000f9	eb 1a		 jmp	 SHORT $LN8@setLoggerB
$LN7@setLoggerB:

; 329  : 	else m_nLogFlag &= ~IS_PRINT_LEVEL;

  000fb	48 8b 44 24 20	 mov	 rax, QWORD PTR this$[rsp]
  00100	8b 80 b4 00 00
	00		 mov	 eax, DWORD PTR [rax+180]
  00106	0f ba f0 0e	 btr	 eax, 14
  0010a	48 8b 4c 24 20	 mov	 rcx, QWORD PTR this$[rsp]
  0010f	89 81 b4 00 00
	00		 mov	 DWORD PTR [rcx+180], eax
$LN8@setLoggerB:

; 330  : 
; 331  : 	if (nSizeLimit) m_nLogFlag |= LOG_FLAG_SIZEOVER;

  00115	83 7c 24 38 00	 cmp	 DWORD PTR nSizeLimit$[rsp], 0
  0011a	74 1c		 je	 SHORT $LN9@setLoggerB
  0011c	48 8b 44 24 20	 mov	 rax, QWORD PTR this$[rsp]
  00121	8b 80 b4 00 00
	00		 mov	 eax, DWORD PTR [rax+180]
  00127	0f ba e8 0c	 bts	 eax, 12
  0012b	48 8b 4c 24 20	 mov	 rcx, QWORD PTR this$[rsp]
  00130	89 81 b4 00 00
	00		 mov	 DWORD PTR [rcx+180], eax
  00136	eb 1a		 jmp	 SHORT $LN10@setLoggerB
$LN9@setLoggerB:

; 332  : 	else m_nLogFlag &= ~LOG_FLAG_SIZEOVER;

  00138	48 8b 44 24 20	 mov	 rax, QWORD PTR this$[rsp]
  0013d	8b 80 b4 00 00
	00		 mov	 eax, DWORD PTR [rax+180]
  00143	0f ba f0 0c	 btr	 eax, 12
  00147	48 8b 4c 24 20	 mov	 rcx, QWORD PTR this$[rsp]
  0014c	89 81 b4 00 00
	00		 mov	 DWORD PTR [rcx+180], eax
$LN10@setLoggerB:

; 333  : 	m_nSizeLimit = nSizeLimit;

  00152	48 8b 44 24 20	 mov	 rax, QWORD PTR this$[rsp]
  00157	8b 4c 24 38	 mov	 ecx, DWORD PTR nSizeLimit$[rsp]
  0015b	89 88 c0 00 00
	00		 mov	 DWORD PTR [rax+192], ecx

; 334  : }

  00161	48 83 c4 18	 add	 rsp, 24
  00165	c3		 ret	 0
?_setLoggerBasic@CLogger@@AEAAXHHH@Z ENDP		; CLogger::_setLoggerBasic
_TEXT	ENDS
; Function compile flags: /Odtp
; File e:\infinia-library-3.0\com\src\comlogger.cpp
;	COMDAT ?_setHeaderFormat@CLogger@@AEAA_NH@Z
_TEXT	SEGMENT
pDTE$ = 32
this$ = 64
nTimeStempNo$ = 72
?_setHeaderFormat@CLogger@@AEAA_NH@Z PROC		; CLogger::_setHeaderFormat, COMDAT

; 336  : {

$LN6:
  00000	89 54 24 10	 mov	 DWORD PTR [rsp+16], edx
  00004	48 89 4c 24 08	 mov	 QWORD PTR [rsp+8], rcx
  00009	48 83 ec 38	 sub	 rsp, 56			; 00000038H

; 337  : 	STLogDateTimeExp *pDTE = gs_DTEManager.getDTE(nTimeStempNo);

  0000d	8b 54 24 48	 mov	 edx, DWORD PTR nTimeStempNo$[rsp]
  00011	48 8d 0d 00 00
	00 00		 lea	 rcx, OFFSET FLAT:?gs_DTEManager@@3VCTimeExpManager@@A ; gs_DTEManager
  00018	e8 00 00 00 00	 call	 ?getDTE@CTimeExpManager@@QEAAPEAUSTLogDateTimeExp@@H@Z ; CTimeExpManager::getDTE
  0001d	48 89 44 24 20	 mov	 QWORD PTR pDTE$[rsp], rax

; 338  : 	if (!pDTE) {

  00022	48 83 7c 24 20
	00		 cmp	 QWORD PTR pDTE$[rsp], 0
  00028	75 37		 jne	 SHORT $LN2@setHeaderF

; 339  : 		_stprintf(g_szMessage, _T("m_pDTE is NULL! nTimeStempNo[%d]"), nTimeStempNo);

  0002a	44 8b 44 24 48	 mov	 r8d, DWORD PTR nTimeStempNo$[rsp]
  0002f	48 8d 15 00 00
	00 00		 lea	 rdx, OFFSET FLAT:$SG86556
  00036	48 8d 0d 00 00
	00 00		 lea	 rcx, OFFSET FLAT:?g_szMessage@@3PADA ; g_szMessage
  0003d	e8 00 00 00 00	 call	 sprintf

; 340  : 		comErrorPrint(g_szMessage);

  00042	41 b8 54 01 00
	00		 mov	 r8d, 340		; 00000154H
  00048	48 8d 15 00 00
	00 00		 lea	 rdx, OFFSET FLAT:$SG86557
  0004f	48 8d 0d 00 00
	00 00		 lea	 rcx, OFFSET FLAT:?g_szMessage@@3PADA ; g_szMessage
  00056	e8 00 00 00 00	 call	 ?comGlobalErrorProc@@YAXPEADPEBDH@Z ; comGlobalErrorProc

; 341  : 		return false;

  0005b	32 c0		 xor	 al, al
  0005d	eb 37		 jmp	 SHORT $LN1@setHeaderF
  0005f	eb 33		 jmp	 SHORT $LN3@setHeaderF
$LN2@setHeaderF:

; 342  : 	}
; 343  : 	else if (m_pDTE != pDTE) {

  00061	48 8b 44 24 40	 mov	 rax, QWORD PTR this$[rsp]
  00066	48 8b 4c 24 20	 mov	 rcx, QWORD PTR pDTE$[rsp]
  0006b	48 39 88 80 00
	00 00		 cmp	 QWORD PTR [rax+128], rcx
  00072	74 20		 je	 SHORT $LN4@setHeaderF

; 344  : 		setDateTimeFormat(pDTE);

  00074	48 8b 54 24 20	 mov	 rdx, QWORD PTR pDTE$[rsp]
  00079	48 8b 4c 24 40	 mov	 rcx, QWORD PTR this$[rsp]
  0007e	e8 00 00 00 00	 call	 ?setDateTimeFormat@CLogger@@AEAAXPEAUSTLogDateTimeExp@@@Z ; CLogger::setDateTimeFormat

; 345  : 		m_pDTE = pDTE;

  00083	48 8b 44 24 40	 mov	 rax, QWORD PTR this$[rsp]
  00088	48 8b 4c 24 20	 mov	 rcx, QWORD PTR pDTE$[rsp]
  0008d	48 89 88 80 00
	00 00		 mov	 QWORD PTR [rax+128], rcx
$LN4@setHeaderF:
$LN3@setHeaderF:

; 346  : 	}
; 347  : 	return true;

  00094	b0 01		 mov	 al, 1
$LN1@setHeaderF:

; 348  : }

  00096	48 83 c4 38	 add	 rsp, 56			; 00000038H
  0009a	c3		 ret	 0
?_setHeaderFormat@CLogger@@AEAA_NH@Z ENDP		; CLogger::_setHeaderFormat
_TEXT	ENDS
; Function compile flags: /Odtp
; File e:\infinia-library-3.0\com\src\comlogger.cpp
;	COMDAT ?_initCom@CLogger@@AEAAXPEAD000@Z
_TEXT	SEGMENT
bSet$ = 32
tv89 = 33
tv150 = 34
tv164 = 35
tv187 = 40
tv87 = 48
tv175 = 56
tv148 = 64
tv162 = 72
tv85 = 80
nStrLen$ = 88
tv146 = 96
tv160 = 104
tv186 = 112
$T1 = 120
$T2 = 128
$T3 = 136
tv174 = 144
$T4 = 152
tv88 = 160
tv149 = 168
tv163 = 176
this$ = 208
pDir$ = 216
pName$ = 224
pFileExtension$ = 232
pKeepDuration$ = 240
?_initCom@CLogger@@AEAAXPEAD000@Z PROC			; CLogger::_initCom, COMDAT

; 261  : {

$LN17:
  00000	4c 89 4c 24 20	 mov	 QWORD PTR [rsp+32], r9
  00005	4c 89 44 24 18	 mov	 QWORD PTR [rsp+24], r8
  0000a	48 89 54 24 10	 mov	 QWORD PTR [rsp+16], rdx
  0000f	48 89 4c 24 08	 mov	 QWORD PTR [rsp+8], rcx
  00014	48 81 ec c8 00
	00 00		 sub	 rsp, 200		; 000000c8H

; 262  : 	size_t nStrLen = _tcslen(pDir);

  0001b	48 8b 84 24 d8
	00 00 00	 mov	 rax, QWORD PTR pDir$[rsp]
  00023	48 89 44 24 70	 mov	 QWORD PTR tv186[rsp], rax
  00028	48 c7 44 24 28
	ff ff ff ff	 mov	 QWORD PTR tv187[rsp], -1
$LL16@initCom:
  00031	48 ff 44 24 28	 inc	 QWORD PTR tv187[rsp]
  00036	48 8b 44 24 70	 mov	 rax, QWORD PTR tv186[rsp]
  0003b	48 8b 4c 24 28	 mov	 rcx, QWORD PTR tv187[rsp]
  00040	80 3c 08 00	 cmp	 BYTE PTR [rax+rcx], 0
  00044	75 eb		 jne	 SHORT $LL16@initCom
  00046	48 8b 44 24 28	 mov	 rax, QWORD PTR tv187[rsp]
  0004b	48 89 44 24 58	 mov	 QWORD PTR nStrLen$[rsp], rax

; 263  : 	bool bSet = true;

  00050	c6 44 24 20 01	 mov	 BYTE PTR bSet$[rsp], 1

; 264  : 	if (m_pLogDir) {

  00055	48 8b 84 24 d0
	00 00 00	 mov	 rax, QWORD PTR this$[rsp]
  0005d	48 83 b8 98 00
	00 00 00	 cmp	 QWORD PTR [rax+152], 0
  00065	74 45		 je	 SHORT $LN2@initCom

; 265  : 		if (_tcscmp(pDir, m_pLogDir)) {

  00067	48 8b 84 24 d0
	00 00 00	 mov	 rax, QWORD PTR this$[rsp]
  0006f	48 8b 90 98 00
	00 00		 mov	 rdx, QWORD PTR [rax+152]
  00076	48 8b 8c 24 d8
	00 00 00	 mov	 rcx, QWORD PTR pDir$[rsp]
  0007e	e8 00 00 00 00	 call	 _tcscmp
  00083	85 c0		 test	 eax, eax
  00085	74 20		 je	 SHORT $LN3@initCom

; 266  : 			delete[] m_pLogDir;

  00087	48 8b 84 24 d0
	00 00 00	 mov	 rax, QWORD PTR this$[rsp]
  0008f	48 8b 80 98 00
	00 00		 mov	 rax, QWORD PTR [rax+152]
  00096	48 89 44 24 78	 mov	 QWORD PTR $T1[rsp], rax
  0009b	48 8b 4c 24 78	 mov	 rcx, QWORD PTR $T1[rsp]
  000a0	e8 00 00 00 00	 call	 ??_V@YAXPEAX@Z		; operator delete[]
  000a5	eb 05		 jmp	 SHORT $LN4@initCom
$LN3@initCom:

; 267  : 		}
; 268  : 		else bSet = false;

  000a7	c6 44 24 20 00	 mov	 BYTE PTR bSet$[rsp], 0
$LN4@initCom:
$LN2@initCom:

; 269  : 	}
; 270  : 
; 271  : 	if (bSet) {

  000ac	0f b6 44 24 20	 movzx	 eax, BYTE PTR bSet$[rsp]
  000b1	85 c0		 test	 eax, eax
  000b3	0f 84 96 00 00
	00		 je	 $LN5@initCom

; 272  : 		m_pLogDir = new TCHAR[nStrLen + 1];

  000b9	48 8b 44 24 58	 mov	 rax, QWORD PTR nStrLen$[rsp]
  000be	48 ff c0	 inc	 rax
  000c1	48 8b c8	 mov	 rcx, rax
  000c4	e8 00 00 00 00	 call	 ??_U@YAPEAX_K@Z		; operator new[]
  000c9	48 89 84 24 80
	00 00 00	 mov	 QWORD PTR $T2[rsp], rax
  000d1	48 8b 84 24 d0
	00 00 00	 mov	 rax, QWORD PTR this$[rsp]
  000d9	48 8b 8c 24 80
	00 00 00	 mov	 rcx, QWORD PTR $T2[rsp]
  000e1	48 89 88 98 00
	00 00		 mov	 QWORD PTR [rax+152], rcx

; 273  : 		_tcscpy(m_pLogDir, pDir);

  000e8	48 8b 84 24 d8
	00 00 00	 mov	 rax, QWORD PTR pDir$[rsp]
  000f0	48 89 44 24 50	 mov	 QWORD PTR tv85[rsp], rax
  000f5	48 8b 84 24 d0
	00 00 00	 mov	 rax, QWORD PTR this$[rsp]
  000fd	48 8b 80 98 00
	00 00		 mov	 rax, QWORD PTR [rax+152]
  00104	48 89 44 24 30	 mov	 QWORD PTR tv87[rsp], rax
  00109	48 8b 44 24 30	 mov	 rax, QWORD PTR tv87[rsp]
  0010e	48 89 84 24 a0
	00 00 00	 mov	 QWORD PTR tv88[rsp], rax
$LN12@initCom:
  00116	48 8b 44 24 50	 mov	 rax, QWORD PTR tv85[rsp]
  0011b	0f b6 00	 movzx	 eax, BYTE PTR [rax]
  0011e	88 44 24 21	 mov	 BYTE PTR tv89[rsp], al
  00122	48 8b 44 24 30	 mov	 rax, QWORD PTR tv87[rsp]
  00127	0f b6 4c 24 21	 movzx	 ecx, BYTE PTR tv89[rsp]
  0012c	88 08		 mov	 BYTE PTR [rax], cl
  0012e	48 8b 44 24 50	 mov	 rax, QWORD PTR tv85[rsp]
  00133	48 ff c0	 inc	 rax
  00136	48 89 44 24 50	 mov	 QWORD PTR tv85[rsp], rax
  0013b	48 8b 44 24 30	 mov	 rax, QWORD PTR tv87[rsp]
  00140	48 ff c0	 inc	 rax
  00143	48 89 44 24 30	 mov	 QWORD PTR tv87[rsp], rax
  00148	80 7c 24 21 00	 cmp	 BYTE PTR tv89[rsp], 0
  0014d	75 c7		 jne	 SHORT $LN12@initCom
$LN5@initCom:

; 274  : 	}
; 275  : 
; 276  : 	bSet = true;

  0014f	c6 44 24 20 01	 mov	 BYTE PTR bSet$[rsp], 1

; 277  : 	if (m_pLogName) {

  00154	48 8b 84 24 d0
	00 00 00	 mov	 rax, QWORD PTR this$[rsp]
  0015c	48 83 b8 a0 00
	00 00 00	 cmp	 QWORD PTR [rax+160], 0
  00164	74 4b		 je	 SHORT $LN6@initCom

; 278  : 		if (_tcscmp(pDir, m_pLogName)) {

  00166	48 8b 84 24 d0
	00 00 00	 mov	 rax, QWORD PTR this$[rsp]
  0016e	48 8b 90 a0 00
	00 00		 mov	 rdx, QWORD PTR [rax+160]
  00175	48 8b 8c 24 d8
	00 00 00	 mov	 rcx, QWORD PTR pDir$[rsp]
  0017d	e8 00 00 00 00	 call	 _tcscmp
  00182	85 c0		 test	 eax, eax
  00184	74 26		 je	 SHORT $LN7@initCom

; 279  : 			delete[] m_pLogName;

  00186	48 8b 84 24 d0
	00 00 00	 mov	 rax, QWORD PTR this$[rsp]
  0018e	48 8b 80 a0 00
	00 00		 mov	 rax, QWORD PTR [rax+160]
  00195	48 89 84 24 88
	00 00 00	 mov	 QWORD PTR $T3[rsp], rax
  0019d	48 8b 8c 24 88
	00 00 00	 mov	 rcx, QWORD PTR $T3[rsp]
  001a5	e8 00 00 00 00	 call	 ??_V@YAXPEAX@Z		; operator delete[]
  001aa	eb 05		 jmp	 SHORT $LN8@initCom
$LN7@initCom:

; 280  : 		}
; 281  : 		else bSet = false;

  001ac	c6 44 24 20 00	 mov	 BYTE PTR bSet$[rsp], 0
$LN8@initCom:
$LN6@initCom:

; 282  : 	}
; 283  : 
; 284  : 	if (bSet) {

  001b1	0f b6 44 24 20	 movzx	 eax, BYTE PTR bSet$[rsp]
  001b6	85 c0		 test	 eax, eax
  001b8	0f 84 d1 00 00
	00		 je	 $LN9@initCom

; 285  : 		nStrLen = _tcslen(pName);

  001be	48 8b 84 24 e0
	00 00 00	 mov	 rax, QWORD PTR pName$[rsp]
  001c6	48 89 84 24 90
	00 00 00	 mov	 QWORD PTR tv174[rsp], rax
  001ce	48 c7 44 24 38
	ff ff ff ff	 mov	 QWORD PTR tv175[rsp], -1
$LL15@initCom:
  001d7	48 ff 44 24 38	 inc	 QWORD PTR tv175[rsp]
  001dc	48 8b 84 24 90
	00 00 00	 mov	 rax, QWORD PTR tv174[rsp]
  001e4	48 8b 4c 24 38	 mov	 rcx, QWORD PTR tv175[rsp]
  001e9	80 3c 08 00	 cmp	 BYTE PTR [rax+rcx], 0
  001ed	75 e8		 jne	 SHORT $LL15@initCom
  001ef	48 8b 44 24 38	 mov	 rax, QWORD PTR tv175[rsp]
  001f4	48 89 44 24 58	 mov	 QWORD PTR nStrLen$[rsp], rax

; 286  : 		m_pLogName = new TCHAR[nStrLen + 1];

  001f9	48 8b 44 24 58	 mov	 rax, QWORD PTR nStrLen$[rsp]
  001fe	48 ff c0	 inc	 rax
  00201	48 8b c8	 mov	 rcx, rax
  00204	e8 00 00 00 00	 call	 ??_U@YAPEAX_K@Z		; operator new[]
  00209	48 89 84 24 98
	00 00 00	 mov	 QWORD PTR $T4[rsp], rax
  00211	48 8b 84 24 d0
	00 00 00	 mov	 rax, QWORD PTR this$[rsp]
  00219	48 8b 8c 24 98
	00 00 00	 mov	 rcx, QWORD PTR $T4[rsp]
  00221	48 89 88 a0 00
	00 00		 mov	 QWORD PTR [rax+160], rcx

; 287  : 		_tcscpy(m_pLogName, pName);

  00228	48 8b 84 24 e0
	00 00 00	 mov	 rax, QWORD PTR pName$[rsp]
  00230	48 89 44 24 60	 mov	 QWORD PTR tv146[rsp], rax
  00235	48 8b 84 24 d0
	00 00 00	 mov	 rax, QWORD PTR this$[rsp]
  0023d	48 8b 80 a0 00
	00 00		 mov	 rax, QWORD PTR [rax+160]
  00244	48 89 44 24 40	 mov	 QWORD PTR tv148[rsp], rax
  00249	48 8b 44 24 40	 mov	 rax, QWORD PTR tv148[rsp]
  0024e	48 89 84 24 a8
	00 00 00	 mov	 QWORD PTR tv149[rsp], rax
$LN13@initCom:
  00256	48 8b 44 24 60	 mov	 rax, QWORD PTR tv146[rsp]
  0025b	0f b6 00	 movzx	 eax, BYTE PTR [rax]
  0025e	88 44 24 22	 mov	 BYTE PTR tv150[rsp], al
  00262	48 8b 44 24 40	 mov	 rax, QWORD PTR tv148[rsp]
  00267	0f b6 4c 24 22	 movzx	 ecx, BYTE PTR tv150[rsp]
  0026c	88 08		 mov	 BYTE PTR [rax], cl
  0026e	48 8b 44 24 60	 mov	 rax, QWORD PTR tv146[rsp]
  00273	48 ff c0	 inc	 rax
  00276	48 89 44 24 60	 mov	 QWORD PTR tv146[rsp], rax
  0027b	48 8b 44 24 40	 mov	 rax, QWORD PTR tv148[rsp]
  00280	48 ff c0	 inc	 rax
  00283	48 89 44 24 40	 mov	 QWORD PTR tv148[rsp], rax
  00288	80 7c 24 22 00	 cmp	 BYTE PTR tv150[rsp], 0
  0028d	75 c7		 jne	 SHORT $LN13@initCom
$LN9@initCom:

; 288  : 	}
; 289  : 
; 290  : 	if (_tcscmp(pFileExtension, m_szFileExtension)) {

  0028f	48 8b 84 24 d0
	00 00 00	 mov	 rax, QWORD PTR this$[rsp]
  00297	48 05 a8 00 00
	00		 add	 rax, 168		; 000000a8H
  0029d	48 8b d0	 mov	 rdx, rax
  002a0	48 8b 8c 24 e8
	00 00 00	 mov	 rcx, QWORD PTR pFileExtension$[rsp]
  002a8	e8 00 00 00 00	 call	 _tcscmp
  002ad	85 c0		 test	 eax, eax
  002af	74 66		 je	 SHORT $LN10@initCom

; 291  : 		_tcscpy(m_szFileExtension, pFileExtension);

  002b1	48 8b 84 24 e8
	00 00 00	 mov	 rax, QWORD PTR pFileExtension$[rsp]
  002b9	48 89 44 24 68	 mov	 QWORD PTR tv160[rsp], rax
  002be	48 8b 84 24 d0
	00 00 00	 mov	 rax, QWORD PTR this$[rsp]
  002c6	48 05 a8 00 00
	00		 add	 rax, 168		; 000000a8H
  002cc	48 89 44 24 48	 mov	 QWORD PTR tv162[rsp], rax
  002d1	48 8b 44 24 48	 mov	 rax, QWORD PTR tv162[rsp]
  002d6	48 89 84 24 b0
	00 00 00	 mov	 QWORD PTR tv163[rsp], rax
$LN14@initCom:
  002de	48 8b 44 24 68	 mov	 rax, QWORD PTR tv160[rsp]
  002e3	0f b6 00	 movzx	 eax, BYTE PTR [rax]
  002e6	88 44 24 23	 mov	 BYTE PTR tv164[rsp], al
  002ea	48 8b 44 24 48	 mov	 rax, QWORD PTR tv162[rsp]
  002ef	0f b6 4c 24 23	 movzx	 ecx, BYTE PTR tv164[rsp]
  002f4	88 08		 mov	 BYTE PTR [rax], cl
  002f6	48 8b 44 24 68	 mov	 rax, QWORD PTR tv160[rsp]
  002fb	48 ff c0	 inc	 rax
  002fe	48 89 44 24 68	 mov	 QWORD PTR tv160[rsp], rax
  00303	48 8b 44 24 48	 mov	 rax, QWORD PTR tv162[rsp]
  00308	48 ff c0	 inc	 rax
  0030b	48 89 44 24 48	 mov	 QWORD PTR tv162[rsp], rax
  00310	80 7c 24 23 00	 cmp	 BYTE PTR tv164[rsp], 0
  00315	75 c7		 jne	 SHORT $LN14@initCom
$LN10@initCom:

; 292  : 	}
; 293  : 
; 294  : 	GetKeepInfo(pKeepDuration);

  00317	48 8b 94 24 f0
	00 00 00	 mov	 rdx, QWORD PTR pKeepDuration$[rsp]
  0031f	48 8b 8c 24 d0
	00 00 00	 mov	 rcx, QWORD PTR this$[rsp]
  00327	e8 00 00 00 00	 call	 ?GetKeepInfo@CLogger@@AEAAHPEBD@Z ; CLogger::GetKeepInfo

; 295  : }

  0032c	48 81 c4 c8 00
	00 00		 add	 rsp, 200		; 000000c8H
  00333	c3		 ret	 0
?_initCom@CLogger@@AEAAXPEAD000@Z ENDP			; CLogger::_initCom
_TEXT	ENDS
; Function compile flags: /Odtp
; File e:\infinia-library-3.0\com\include\comlogger.h
;	COMDAT ?putQueue@CLogger@@QEAAXPEAD@Z
_TEXT	SEGMENT
this$ = 48
p$ = 56
?putQueue@CLogger@@QEAAXPEAD@Z PROC			; CLogger::putQueue, COMDAT

; 207  : 	void putQueue(TCHAR *p) { if (m_sLogQueue.push(p)) m_pCondition->signal(); }

$LN4:
  00000	48 89 54 24 10	 mov	 QWORD PTR [rsp+16], rdx
  00005	48 89 4c 24 08	 mov	 QWORD PTR [rsp+8], rcx
  0000a	48 83 ec 28	 sub	 rsp, 40			; 00000028H
  0000e	48 8b 44 24 30	 mov	 rax, QWORD PTR this$[rsp]
  00013	48 8b 54 24 38	 mov	 rdx, QWORD PTR p$[rsp]
  00018	48 8b c8	 mov	 rcx, rax
  0001b	e8 00 00 00 00	 call	 ?push@CQueueS@@QEAA_NPEAX@Z ; CQueueS::push
  00020	0f b6 c0	 movzx	 eax, al
  00023	85 c0		 test	 eax, eax
  00025	74 18		 je	 SHORT $LN2@putQueue
  00027	48 8b 44 24 30	 mov	 rax, QWORD PTR this$[rsp]
  0002c	48 8b 40 68	 mov	 rax, QWORD PTR [rax+104]
  00030	48 8b 4c 24 30	 mov	 rcx, QWORD PTR this$[rsp]
  00035	48 8b 49 68	 mov	 rcx, QWORD PTR [rcx+104]
  00039	48 8b 00	 mov	 rax, QWORD PTR [rax]
  0003c	ff 50 08	 call	 QWORD PTR [rax+8]
$LN2@putQueue:
  0003f	48 83 c4 28	 add	 rsp, 40			; 00000028H
  00043	c3		 ret	 0
?putQueue@CLogger@@QEAAXPEAD@Z ENDP			; CLogger::putQueue
_TEXT	ENDS
; Function compile flags: /Odtp
; File e:\infinia-library-3.0\com\src\comlogger.cpp
;	COMDAT ?getString@CLogger@@QEAAHPEAD@Z
_TEXT	SEGMENT
nLen$ = 48
$T1 = 52
$T2 = 56
cDateTime$ = 64
szBuf$ = 176
__$ArrayPad$ = 240
this$ = 288
pDest$ = 296
?getString@CLogger@@QEAAHPEAD@Z PROC			; CLogger::getString, COMDAT

; 229  : {

$LN10:
  00000	48 89 54 24 10	 mov	 QWORD PTR [rsp+16], rdx
  00005	48 89 4c 24 08	 mov	 QWORD PTR [rsp+8], rcx
  0000a	56		 push	 rsi
  0000b	57		 push	 rdi
  0000c	48 81 ec 08 01
	00 00		 sub	 rsp, 264		; 00000108H
  00013	48 c7 44 24 38
	fe ff ff ff	 mov	 QWORD PTR $T2[rsp], -2
  0001c	48 8b 05 00 00
	00 00		 mov	 rax, QWORD PTR __security_cookie
  00023	48 33 c4	 xor	 rax, rsp
  00026	48 89 84 24 f0
	00 00 00	 mov	 QWORD PTR __$ArrayPad$[rsp], rax

; 230  : 	int nLen;
; 231  : 	if (!isLogFlag(IS_LOG_SET_COMPLETE)) {

  0002e	ba 00 00 02 00	 mov	 edx, 131072		; 00020000H
  00033	48 8b 8c 24 20
	01 00 00	 mov	 rcx, QWORD PTR this$[rsp]
  0003b	e8 00 00 00 00	 call	 ?isLogFlag@CLogger@@QEAA_NW4E_LOG_FLAG@@@Z ; CLogger::isLogFlag
  00040	0f b6 c0	 movzx	 eax, al
  00043	85 c0		 test	 eax, eax
  00045	75 19		 jne	 SHORT $LN2@getString

; 232  : 		_tcscpy(pDest, _T("Logger is not Initialized!"));

  00047	48 8d 05 00 00
	00 00		 lea	 rax, OFFSET FLAT:$SG86480
  0004e	48 8b bc 24 28
	01 00 00	 mov	 rdi, QWORD PTR pDest$[rsp]
  00056	48 8b f0	 mov	 rsi, rax
  00059	b9 1b 00 00 00	 mov	 ecx, 27
  0005e	f3 a4		 rep movsb
$LN2@getString:

; 233  : 	}
; 234  : 
; 235  : 	TCHAR szBuf[64];
; 236  : 	CDateTime cDateTime(DT_NONE);

  00060	45 33 c0	 xor	 r8d, r8d
  00063	33 d2		 xor	 edx, edx
  00065	48 8d 4c 24 40	 lea	 rcx, QWORD PTR cDateTime$[rsp]
  0006a	e8 00 00 00 00	 call	 ??0CDateTime@@QEAA@W4DT_TYPE@@W4TZ_TYPE@@@Z ; CDateTime::CDateTime
  0006f	90		 npad	 1

; 237  : 
; 238  : 	if (m_nLogFlag & LOG_FLAG_DAILY) {

  00070	48 8b 84 24 20
	01 00 00	 mov	 rax, QWORD PTR this$[rsp]
  00078	8b 80 b4 00 00
	00		 mov	 eax, DWORD PTR [rax+180]
  0007e	25 00 02 00 00	 and	 eax, 512		; 00000200H
  00083	85 c0		 test	 eax, eax
  00085	74 1e		 je	 SHORT $LN3@getString

; 239  : 		_tcscpy(szBuf, _T("TYPE_DAILY"));

  00087	48 8d 84 24 b0
	00 00 00	 lea	 rax, QWORD PTR szBuf$[rsp]
  0008f	48 8d 0d 00 00
	00 00		 lea	 rcx, OFFSET FLAT:$SG86483
  00096	48 8b f8	 mov	 rdi, rax
  00099	48 8b f1	 mov	 rsi, rcx
  0009c	b9 0b 00 00 00	 mov	 ecx, 11
  000a1	f3 a4		 rep movsb
  000a3	eb 68		 jmp	 SHORT $LN4@getString
$LN3@getString:

; 240  : 	}
; 241  : 	else if (m_nLogFlag & LOG_FLAG_HOURLY) {

  000a5	48 8b 84 24 20
	01 00 00	 mov	 rax, QWORD PTR this$[rsp]
  000ad	8b 80 b4 00 00
	00		 mov	 eax, DWORD PTR [rax+180]
  000b3	25 00 04 00 00	 and	 eax, 1024		; 00000400H
  000b8	85 c0		 test	 eax, eax
  000ba	74 1e		 je	 SHORT $LN5@getString

; 242  : 		_tcscpy(szBuf, _T("TYPE_HOURLY"));

  000bc	48 8d 84 24 b0
	00 00 00	 lea	 rax, QWORD PTR szBuf$[rsp]
  000c4	48 8d 0d 00 00
	00 00		 lea	 rcx, OFFSET FLAT:$SG86486
  000cb	48 8b f8	 mov	 rdi, rax
  000ce	48 8b f1	 mov	 rsi, rcx
  000d1	b9 0c 00 00 00	 mov	 ecx, 12
  000d6	f3 a4		 rep movsb
  000d8	eb 33		 jmp	 SHORT $LN4@getString
$LN5@getString:

; 243  : 	}
; 244  : 	else if (m_nLogFlag & LOG_FLAG_FILE) {

  000da	48 8b 84 24 20
	01 00 00	 mov	 rax, QWORD PTR this$[rsp]
  000e2	8b 80 b4 00 00
	00		 mov	 eax, DWORD PTR [rax+180]
  000e8	25 00 08 00 00	 and	 eax, 2048		; 00000800H
  000ed	85 c0		 test	 eax, eax
  000ef	74 1c		 je	 SHORT $LN4@getString

; 245  : 		_tcscpy(szBuf, _T("TYPE_FILE"));

  000f1	48 8d 84 24 b0
	00 00 00	 lea	 rax, QWORD PTR szBuf$[rsp]
  000f9	48 8d 0d 00 00
	00 00		 lea	 rcx, OFFSET FLAT:$SG86488
  00100	48 8b f8	 mov	 rdi, rax
  00103	48 8b f1	 mov	 rsi, rcx
  00106	b9 0a 00 00 00	 mov	 ecx, 10
  0010b	f3 a4		 rep movsb
$LN4@getString:

; 246  : 	}
; 247  : 
; 248  : 	nLen = _stprintf(pDest, _T("================================================\n"));

  0010d	48 8d 15 00 00
	00 00		 lea	 rdx, OFFSET FLAT:$SG86489
  00114	48 8b 8c 24 28
	01 00 00	 mov	 rcx, QWORD PTR pDest$[rsp]
  0011c	e8 00 00 00 00	 call	 sprintf
  00121	89 44 24 30	 mov	 DWORD PTR nLen$[rsp], eax

; 249  : 	nLen += _stprintf(pDest + nLen, _T("Logger Path[%s] Prefix[%s] Extension[%s]\n"), m_pLogDir, m_pLogName, m_szFileExtension);

  00125	48 8b 84 24 20
	01 00 00	 mov	 rax, QWORD PTR this$[rsp]
  0012d	48 05 a8 00 00
	00		 add	 rax, 168		; 000000a8H
  00133	48 63 4c 24 30	 movsxd	 rcx, DWORD PTR nLen$[rsp]
  00138	48 8b 94 24 28
	01 00 00	 mov	 rdx, QWORD PTR pDest$[rsp]
  00140	48 03 d1	 add	 rdx, rcx
  00143	48 8b ca	 mov	 rcx, rdx
  00146	48 89 44 24 20	 mov	 QWORD PTR [rsp+32], rax
  0014b	48 8b 84 24 20
	01 00 00	 mov	 rax, QWORD PTR this$[rsp]
  00153	4c 8b 88 a0 00
	00 00		 mov	 r9, QWORD PTR [rax+160]
  0015a	48 8b 84 24 20
	01 00 00	 mov	 rax, QWORD PTR this$[rsp]
  00162	4c 8b 80 98 00
	00 00		 mov	 r8, QWORD PTR [rax+152]
  00169	48 8d 15 00 00
	00 00		 lea	 rdx, OFFSET FLAT:$SG86490
  00170	e8 00 00 00 00	 call	 sprintf
  00175	8b 4c 24 30	 mov	 ecx, DWORD PTR nLen$[rsp]
  00179	03 c8		 add	 ecx, eax
  0017b	8b c1		 mov	 eax, ecx
  0017d	89 44 24 30	 mov	 DWORD PTR nLen$[rsp], eax

; 250  : 	nLen += _stprintf(pDest + nLen, _T("Logger SizeLimit[%d] LogLevel[%d] LogType[%s]\n"), m_nSizeLimit, m_nLogLevel, szBuf);

  00181	48 63 44 24 30	 movsxd	 rax, DWORD PTR nLen$[rsp]
  00186	48 8b 8c 24 28
	01 00 00	 mov	 rcx, QWORD PTR pDest$[rsp]
  0018e	48 03 c8	 add	 rcx, rax
  00191	48 8b c1	 mov	 rax, rcx
  00194	48 8d 8c 24 b0
	00 00 00	 lea	 rcx, QWORD PTR szBuf$[rsp]
  0019c	48 89 4c 24 20	 mov	 QWORD PTR [rsp+32], rcx
  001a1	48 8b 8c 24 20
	01 00 00	 mov	 rcx, QWORD PTR this$[rsp]
  001a9	44 8b 49 78	 mov	 r9d, DWORD PTR [rcx+120]
  001ad	48 8b 8c 24 20
	01 00 00	 mov	 rcx, QWORD PTR this$[rsp]
  001b5	44 8b 81 c0 00
	00 00		 mov	 r8d, DWORD PTR [rcx+192]
  001bc	48 8d 15 00 00
	00 00		 lea	 rdx, OFFSET FLAT:$SG86491
  001c3	48 8b c8	 mov	 rcx, rax
  001c6	e8 00 00 00 00	 call	 sprintf
  001cb	8b 4c 24 30	 mov	 ecx, DWORD PTR nLen$[rsp]
  001cf	03 c8		 add	 ecx, eax
  001d1	8b c1		 mov	 eax, ecx
  001d3	89 44 24 30	 mov	 DWORD PTR nLen$[rsp], eax

; 251  : 
; 252  : 	cDateTime.SetSecondsValue(m_nDeleteInterval);

  001d7	48 8b 84 24 20
	01 00 00	 mov	 rax, QWORD PTR this$[rsp]
  001df	8b 90 10 01 00
	00		 mov	 edx, DWORD PTR [rax+272]
  001e5	48 8d 4c 24 40	 lea	 rcx, QWORD PTR cDateTime$[rsp]
  001ea	e8 00 00 00 00	 call	 ?SetSecondsValue@CDateTime@@QEAAXH@Z ; CDateTime::SetSecondsValue

; 253  : 	cDateTime.setString(szBuf, _T("KeepDuration : %02d days %02d:%02d:%02d"), LOG_DATE_DDHHMMSS);

  001ef	41 b9 09 00 00
	00		 mov	 r9d, 9
  001f5	4c 8d 05 00 00
	00 00		 lea	 r8, OFFSET FLAT:$SG86492
  001fc	48 8d 94 24 b0
	00 00 00	 lea	 rdx, QWORD PTR szBuf$[rsp]
  00204	48 8d 4c 24 40	 lea	 rcx, QWORD PTR cDateTime$[rsp]
  00209	e8 00 00 00 00	 call	 ?setString@CDateTime@@QEAAHPEAD0W4DT_FORMAT@@@Z ; CDateTime::setString

; 254  : 
; 255  : 	nLen += _stprintf(pDest + nLen, _T("Logger KeepDuration[%s]\n"), szBuf);

  0020e	48 63 44 24 30	 movsxd	 rax, DWORD PTR nLen$[rsp]
  00213	48 8b 8c 24 28
	01 00 00	 mov	 rcx, QWORD PTR pDest$[rsp]
  0021b	48 03 c8	 add	 rcx, rax
  0021e	48 8b c1	 mov	 rax, rcx
  00221	4c 8d 84 24 b0
	00 00 00	 lea	 r8, QWORD PTR szBuf$[rsp]
  00229	48 8d 15 00 00
	00 00		 lea	 rdx, OFFSET FLAT:$SG86493
  00230	48 8b c8	 mov	 rcx, rax
  00233	e8 00 00 00 00	 call	 sprintf
  00238	8b 4c 24 30	 mov	 ecx, DWORD PTR nLen$[rsp]
  0023c	03 c8		 add	 ecx, eax
  0023e	8b c1		 mov	 eax, ecx
  00240	89 44 24 30	 mov	 DWORD PTR nLen$[rsp], eax

; 256  : 	nLen += _stprintf(pDest + nLen, _T("================================================\n"));

  00244	48 63 44 24 30	 movsxd	 rax, DWORD PTR nLen$[rsp]
  00249	48 8b 8c 24 28
	01 00 00	 mov	 rcx, QWORD PTR pDest$[rsp]
  00251	48 03 c8	 add	 rcx, rax
  00254	48 8b c1	 mov	 rax, rcx
  00257	48 8d 15 00 00
	00 00		 lea	 rdx, OFFSET FLAT:$SG86494
  0025e	48 8b c8	 mov	 rcx, rax
  00261	e8 00 00 00 00	 call	 sprintf
  00266	8b 4c 24 30	 mov	 ecx, DWORD PTR nLen$[rsp]
  0026a	03 c8		 add	 ecx, eax
  0026c	8b c1		 mov	 eax, ecx
  0026e	89 44 24 30	 mov	 DWORD PTR nLen$[rsp], eax

; 257  : 	return nLen;

  00272	8b 44 24 30	 mov	 eax, DWORD PTR nLen$[rsp]
  00276	89 44 24 34	 mov	 DWORD PTR $T1[rsp], eax
  0027a	48 8d 4c 24 40	 lea	 rcx, QWORD PTR cDateTime$[rsp]
  0027f	e8 00 00 00 00	 call	 ??1CDateTime@@QEAA@XZ	; CDateTime::~CDateTime
  00284	8b 44 24 34	 mov	 eax, DWORD PTR $T1[rsp]

; 258  : }

  00288	48 8b 8c 24 f0
	00 00 00	 mov	 rcx, QWORD PTR __$ArrayPad$[rsp]
  00290	48 33 cc	 xor	 rcx, rsp
  00293	e8 00 00 00 00	 call	 __security_check_cookie
  00298	48 81 c4 08 01
	00 00		 add	 rsp, 264		; 00000108H
  0029f	5f		 pop	 rdi
  002a0	5e		 pop	 rsi
  002a1	c3		 ret	 0
?getString@CLogger@@QEAAHPEAD@Z ENDP			; CLogger::getString
_TEXT	ENDS
;	COMDAT text$x
text$x	SEGMENT
nLen$ = 48
$T1 = 52
$T2 = 56
cDateTime$ = 64
szBuf$ = 176
__$ArrayPad$ = 240
this$ = 288
pDest$ = 296
?dtor$0@?0??getString@CLogger@@QEAAHPEAD@Z@4HA PROC	; `CLogger::getString'::`1'::dtor$0
  00000	40 55		 push	 rbp
  00002	48 83 ec 20	 sub	 rsp, 32			; 00000020H
  00006	48 8b ea	 mov	 rbp, rdx
  00009	48 8d 4d 40	 lea	 rcx, QWORD PTR cDateTime$[rbp]
  0000d	e8 00 00 00 00	 call	 ??1CDateTime@@QEAA@XZ	; CDateTime::~CDateTime
  00012	48 83 c4 20	 add	 rsp, 32			; 00000020H
  00016	5d		 pop	 rbp
  00017	c3		 ret	 0
?dtor$0@?0??getString@CLogger@@QEAAHPEAD@Z@4HA ENDP	; `CLogger::getString'::`1'::dtor$0
text$x	ENDS
; Function compile flags: /Odtp
;	COMDAT text$x
text$x	SEGMENT
nLen$ = 48
$T1 = 52
$T2 = 56
cDateTime$ = 64
szBuf$ = 176
__$ArrayPad$ = 240
this$ = 288
pDest$ = 296
?dtor$0@?0??getString@CLogger@@QEAAHPEAD@Z@4HA PROC	; `CLogger::getString'::`1'::dtor$0
  00000	40 55		 push	 rbp
  00002	48 83 ec 20	 sub	 rsp, 32			; 00000020H
  00006	48 8b ea	 mov	 rbp, rdx
  00009	48 8d 4d 40	 lea	 rcx, QWORD PTR cDateTime$[rbp]
  0000d	e8 00 00 00 00	 call	 ??1CDateTime@@QEAA@XZ	; CDateTime::~CDateTime
  00012	48 83 c4 20	 add	 rsp, 32			; 00000020H
  00016	5d		 pop	 rbp
  00017	c3		 ret	 0
?dtor$0@?0??getString@CLogger@@QEAAHPEAD@Z@4HA ENDP	; `CLogger::getString'::`1'::dtor$0
text$x	ENDS
; Function compile flags: /Odtp
; File e:\infinia-library-3.0\com\src\comlogger.cpp
;	COMDAT ?__debugLog@CLogger@@QEAAXHPEBDH0ZZ
_TEXT	SEGMENT
tv130 = 48
nLen$ = 52
nLen2$ = 56
tv128 = 64
pBuf$ = 72
tv95 = 80
tv129 = 88
ap$ = 96
header$ = 112
msgBuf$ = 624
__$ArrayPad$ = 8816
this$ = 8848
level$ = 8856
_szFunc$ = 8864
_nLine$ = 8872
_szFormat$ = 8880
?__debugLog@CLogger@@QEAAXHPEBDH0ZZ PROC		; CLogger::__debugLog, COMDAT

; 607  : {

$LN6:
  00000	44 89 4c 24 20	 mov	 DWORD PTR [rsp+32], r9d
  00005	4c 89 44 24 18	 mov	 QWORD PTR [rsp+24], r8
  0000a	89 54 24 10	 mov	 DWORD PTR [rsp+16], edx
  0000e	48 89 4c 24 08	 mov	 QWORD PTR [rsp+8], rcx
  00013	b8 88 22 00 00	 mov	 eax, 8840		; 00002288H
  00018	e8 00 00 00 00	 call	 __chkstk
  0001d	48 2b e0	 sub	 rsp, rax
  00020	48 8b 05 00 00
	00 00		 mov	 rax, QWORD PTR __security_cookie
  00027	48 33 c4	 xor	 rax, rsp
  0002a	48 89 84 24 70
	22 00 00	 mov	 QWORD PTR __$ArrayPad$[rsp], rax

; 608  : 	if (!isLogFlag(IS_LOG_ENABLE)) return;

  00032	ba 00 00 08 00	 mov	 edx, 524288		; 00080000H
  00037	48 8b 8c 24 90
	22 00 00	 mov	 rcx, QWORD PTR this$[rsp]
  0003f	e8 00 00 00 00	 call	 ?isLogFlag@CLogger@@QEAA_NW4E_LOG_FLAG@@@Z ; CLogger::isLogFlag
  00044	0f b6 c0	 movzx	 eax, al
  00047	85 c0		 test	 eax, eax
  00049	75 05		 jne	 SHORT $LN2@debugLog
  0004b	e9 55 01 00 00	 jmp	 $LN1@debugLog
$LN2@debugLog:

; 609  : 	if (level < m_nLogLevel) return;

  00050	48 8b 84 24 90
	22 00 00	 mov	 rax, QWORD PTR this$[rsp]
  00058	8b 40 78	 mov	 eax, DWORD PTR [rax+120]
  0005b	39 84 24 98 22
	00 00		 cmp	 DWORD PTR level$[rsp], eax
  00062	7d 05		 jge	 SHORT $LN3@debugLog
  00064	e9 3c 01 00 00	 jmp	 $LN1@debugLog
$LN3@debugLog:

; 610  : 
; 611  : //	TCHAR tmpBuf[512];
; 612  : 	int nLen, nLen2=0;

  00069	c7 44 24 38 00
	00 00 00	 mov	 DWORD PTR nLen2$[rsp], 0

; 613  : 
; 614  : 	TCHAR	msgBuf[MAX_LOGBUF_LEN];
; 615  : 	TCHAR	header[512];
; 616  : 	va_list	ap;
; 617  : 
; 618  : 	nLen2 = setHeader(header, level);

  00071	44 8b 84 24 98
	22 00 00	 mov	 r8d, DWORD PTR level$[rsp]
  00079	48 8d 54 24 70	 lea	 rdx, QWORD PTR header$[rsp]
  0007e	48 8b 8c 24 90
	22 00 00	 mov	 rcx, QWORD PTR this$[rsp]
  00086	e8 00 00 00 00	 call	 ?setHeader@CLogger@@QEAAHPEADH@Z ; CLogger::setHeader
  0008b	89 44 24 38	 mov	 DWORD PTR nLen2$[rsp], eax

; 619  : 	sprintf(header+nLen2, " %s, %d, %s ", _szFunc, _nLine, _szFormat);

  0008f	48 63 44 24 38	 movsxd	 rax, DWORD PTR nLen2$[rsp]
  00094	48 8d 44 04 70	 lea	 rax, QWORD PTR header$[rsp+rax]
  00099	48 8b 8c 24 b0
	22 00 00	 mov	 rcx, QWORD PTR _szFormat$[rsp]
  000a1	48 89 4c 24 20	 mov	 QWORD PTR [rsp+32], rcx
  000a6	44 8b 8c 24 a8
	22 00 00	 mov	 r9d, DWORD PTR _nLine$[rsp]
  000ae	4c 8b 84 24 a0
	22 00 00	 mov	 r8, QWORD PTR _szFunc$[rsp]
  000b6	48 8d 15 00 00
	00 00		 lea	 rdx, OFFSET FLAT:$SG86749
  000bd	48 8b c8	 mov	 rcx, rax
  000c0	e8 00 00 00 00	 call	 sprintf

; 620  : 	va_start(ap, _szFormat);

  000c5	e8 00 00 00 00	 call	 ??$__vcrt_va_start_verify_argument_type@PEBD@@YAXXZ ; __vcrt_va_start_verify_argument_type<char const * __ptr64>
  000ca	48 8d 84 24 b8
	22 00 00	 lea	 rax, QWORD PTR _szFormat$[rsp+8]
  000d2	48 89 44 24 60	 mov	 QWORD PTR ap$[rsp], rax

; 621  : 	nLen = vsnprintf(msgBuf, MAX_LOGBUF_LEN - 1, header, ap);

  000d7	4c 8b 4c 24 60	 mov	 r9, QWORD PTR ap$[rsp]
  000dc	4c 8d 44 24 70	 lea	 r8, QWORD PTR header$[rsp]
  000e1	ba ff 1f 00 00	 mov	 edx, 8191		; 00001fffH
  000e6	48 8d 8c 24 70
	02 00 00	 lea	 rcx, QWORD PTR msgBuf$[rsp]
  000ee	e8 00 00 00 00	 call	 vsnprintf
  000f3	89 44 24 34	 mov	 DWORD PTR nLen$[rsp], eax

; 622  : 	va_end(ap);

  000f7	48 c7 44 24 60
	00 00 00 00	 mov	 QWORD PTR ap$[rsp], 0

; 623  : 
; 624  : 	TCHAR *pBuf = (TCHAR *)gs_pMMgr->newBuf(LEN_TO_SIZE(nLen + 2));

  00100	8b 44 24 34	 mov	 eax, DWORD PTR nLen$[rsp]
  00104	83 c0 02	 add	 eax, 2
  00107	8b d0		 mov	 edx, eax
  00109	48 8b 0d 00 00
	00 00		 mov	 rcx, QWORD PTR ?gs_pMMgr@@3PEAVCMemManager@@EA ; gs_pMMgr
  00110	e8 00 00 00 00	 call	 ?newBuf@CMemManager@@QEAAPEADH@Z ; CMemManager::newBuf
  00115	48 89 44 24 48	 mov	 QWORD PTR pBuf$[rsp], rax

; 625  : 	_tcscpy(pBuf, msgBuf);

  0011a	48 8d 84 24 70
	02 00 00	 lea	 rax, QWORD PTR msgBuf$[rsp]
  00122	48 89 44 24 50	 mov	 QWORD PTR tv95[rsp], rax
  00127	48 8b 44 24 48	 mov	 rax, QWORD PTR pBuf$[rsp]
  0012c	48 89 44 24 40	 mov	 QWORD PTR tv128[rsp], rax
  00131	48 8b 44 24 40	 mov	 rax, QWORD PTR tv128[rsp]
  00136	48 89 44 24 58	 mov	 QWORD PTR tv129[rsp], rax
$LN5@debugLog:
  0013b	48 8b 44 24 50	 mov	 rax, QWORD PTR tv95[rsp]
  00140	0f b6 00	 movzx	 eax, BYTE PTR [rax]
  00143	88 44 24 30	 mov	 BYTE PTR tv130[rsp], al
  00147	48 8b 44 24 40	 mov	 rax, QWORD PTR tv128[rsp]
  0014c	0f b6 4c 24 30	 movzx	 ecx, BYTE PTR tv130[rsp]
  00151	88 08		 mov	 BYTE PTR [rax], cl
  00153	48 8b 44 24 50	 mov	 rax, QWORD PTR tv95[rsp]
  00158	48 ff c0	 inc	 rax
  0015b	48 89 44 24 50	 mov	 QWORD PTR tv95[rsp], rax
  00160	48 8b 44 24 40	 mov	 rax, QWORD PTR tv128[rsp]
  00165	48 ff c0	 inc	 rax
  00168	48 89 44 24 40	 mov	 QWORD PTR tv128[rsp], rax
  0016d	80 7c 24 30 00	 cmp	 BYTE PTR tv130[rsp], 0
  00172	75 c7		 jne	 SHORT $LN5@debugLog

; 626  : 	pBuf[nLen] = '\n';

  00174	48 63 44 24 34	 movsxd	 rax, DWORD PTR nLen$[rsp]
  00179	48 8b 4c 24 48	 mov	 rcx, QWORD PTR pBuf$[rsp]
  0017e	c6 04 01 0a	 mov	 BYTE PTR [rcx+rax], 10

; 627  : 	pBuf[nLen + 1] = 0;

  00182	8b 44 24 34	 mov	 eax, DWORD PTR nLen$[rsp]
  00186	ff c0		 inc	 eax
  00188	48 98		 cdqe
  0018a	48 8b 4c 24 48	 mov	 rcx, QWORD PTR pBuf$[rsp]
  0018f	c6 04 01 00	 mov	 BYTE PTR [rcx+rax], 0

; 628  : 
; 629  : 	putQueue(pBuf);

  00193	48 8b 54 24 48	 mov	 rdx, QWORD PTR pBuf$[rsp]
  00198	48 8b 8c 24 90
	22 00 00	 mov	 rcx, QWORD PTR this$[rsp]
  001a0	e8 00 00 00 00	 call	 ?putQueue@CLogger@@QEAAXPEAD@Z ; CLogger::putQueue
$LN1@debugLog:

; 630  : }

  001a5	48 8b 8c 24 70
	22 00 00	 mov	 rcx, QWORD PTR __$ArrayPad$[rsp]
  001ad	48 33 cc	 xor	 rcx, rsp
  001b0	e8 00 00 00 00	 call	 __security_check_cookie
  001b5	48 81 c4 88 22
	00 00		 add	 rsp, 8840		; 00002288H
  001bc	c3		 ret	 0
?__debugLog@CLogger@@QEAAXHPEBDH0ZZ ENDP		; CLogger::__debugLog
_TEXT	ENDS
; Function compile flags: /Odtp
; File e:\infinia-library-3.0\com\src\comlogger.cpp
;	COMDAT ?checkChangeProc@CLogger@@QEAAXH@Z
_TEXT	SEGMENT
szFile$ = 64
__$ArrayPad$ = 576
this$ = 608
nFlag$ = 616
?checkChangeProc@CLogger@@QEAAXH@Z PROC			; CLogger::checkChangeProc, COMDAT

; 685  : {

$LN10:
  00000	89 54 24 10	 mov	 DWORD PTR [rsp+16], edx
  00004	48 89 4c 24 08	 mov	 QWORD PTR [rsp+8], rcx
  00009	48 81 ec 58 02
	00 00		 sub	 rsp, 600		; 00000258H
  00010	48 8b 05 00 00
	00 00		 mov	 rax, QWORD PTR __security_cookie
  00017	48 33 c4	 xor	 rax, rsp
  0001a	48 89 84 24 40
	02 00 00	 mov	 QWORD PTR __$ArrayPad$[rsp], rax

; 686  : 	TCHAR szFile[512];
; 687  : 
; 688  : 	// delete proc
; 689  : 	if (m_nDeleteInterval) checkDeleteProc();

  00022	48 8b 84 24 60
	02 00 00	 mov	 rax, QWORD PTR this$[rsp]
  0002a	83 b8 10 01 00
	00 00		 cmp	 DWORD PTR [rax+272], 0
  00031	74 0d		 je	 SHORT $LN2@checkChang
  00033	48 8b 8c 24 60
	02 00 00	 mov	 rcx, QWORD PTR this$[rsp]
  0003b	e8 00 00 00 00	 call	 ?checkDeleteProc@CLogger@@AEAAXXZ ; CLogger::checkDeleteProc
$LN2@checkChang:

; 690  : 
; 691  : 	if (nFlag & LOG_FLAG_DAYCHANGE) {

  00040	8b 84 24 68 02
	00 00		 mov	 eax, DWORD PTR nFlag$[rsp]
  00047	83 e0 01	 and	 eax, 1
  0004a	85 c0		 test	 eax, eax
  0004c	0f 84 91 00 00
	00		 je	 $LN3@checkChang

; 692  : 		if (m_nLogFlag & LOG_FLAG_DAILY) { 

  00052	48 8b 84 24 60
	02 00 00	 mov	 rax, QWORD PTR this$[rsp]
  0005a	8b 80 b4 00 00
	00		 mov	 eax, DWORD PTR [rax+180]
  00060	25 00 02 00 00	 and	 eax, 512		; 00000200H
  00065	85 c0		 test	 eax, eax
  00067	74 7a		 je	 SHORT $LN4@checkChang

; 693  : 			_stprintf(szFile, _T("%s/%d_%s.%s"), m_pLogDir, gs_today_time.date, m_pLogName, m_szFileExtension);

  00069	48 8b 84 24 60
	02 00 00	 mov	 rax, QWORD PTR this$[rsp]
  00071	48 05 a8 00 00
	00		 add	 rax, 168		; 000000a8H
  00077	48 89 44 24 28	 mov	 QWORD PTR [rsp+40], rax
  0007c	48 8b 84 24 60
	02 00 00	 mov	 rax, QWORD PTR this$[rsp]
  00084	48 8b 80 a0 00
	00 00		 mov	 rax, QWORD PTR [rax+160]
  0008b	48 89 44 24 20	 mov	 QWORD PTR [rsp+32], rax
  00090	44 8b 0d 18 00
	00 00		 mov	 r9d, DWORD PTR ?gs_today_time@@3USTTodayTime@@A+24
  00097	48 8b 84 24 60
	02 00 00	 mov	 rax, QWORD PTR this$[rsp]
  0009f	4c 8b 80 98 00
	00 00		 mov	 r8, QWORD PTR [rax+152]
  000a6	48 8d 15 00 00
	00 00		 lea	 rdx, OFFSET FLAT:$SG86789
  000ad	48 8d 4c 24 40	 lea	 rcx, QWORD PTR szFile$[rsp]
  000b2	e8 00 00 00 00	 call	 sprintf

; 694  : 			__openLogger(szFile);

  000b7	45 33 c0	 xor	 r8d, r8d
  000ba	48 8d 54 24 40	 lea	 rdx, QWORD PTR szFile$[rsp]
  000bf	48 8b 8c 24 60
	02 00 00	 mov	 rcx, QWORD PTR this$[rsp]
  000c7	e8 00 00 00 00	 call	 ?__openLogger@CLogger@@AEAAXPEBDH@Z ; CLogger::__openLogger

; 695  : 			m_nSeq = 0;

  000cc	48 8b 84 24 60
	02 00 00	 mov	 rax, QWORD PTR this$[rsp]
  000d4	c7 80 b8 00 00
	00 00 00 00 00	 mov	 DWORD PTR [rax+184], 0

; 696  : 			return;

  000de	e9 26 01 00 00	 jmp	 $LN1@checkChang
$LN4@checkChang:
$LN3@checkChang:

; 697  : 		}
; 698  : 	}
; 699  : 	if (nFlag & LOG_FLAG_HOURCHANGE) {

  000e3	8b 84 24 68 02
	00 00		 mov	 eax, DWORD PTR nFlag$[rsp]
  000ea	83 e0 02	 and	 eax, 2
  000ed	85 c0		 test	 eax, eax
  000ef	0f 84 9c 00 00
	00		 je	 $LN5@checkChang

; 700  : 		if (m_nLogFlag & LOG_FLAG_HOURLY) {

  000f5	48 8b 84 24 60
	02 00 00	 mov	 rax, QWORD PTR this$[rsp]
  000fd	8b 80 b4 00 00
	00		 mov	 eax, DWORD PTR [rax+180]
  00103	25 00 04 00 00	 and	 eax, 1024		; 00000400H
  00108	85 c0		 test	 eax, eax
  0010a	0f 84 81 00 00
	00		 je	 $LN6@checkChang

; 701  : 			_stprintf(szFile, _T("%s/%d/%s_%02d.%s"), m_pLogDir, gs_today_time.date, m_pLogName, gs_today_time.hour, m_szFileExtension);

  00110	48 8b 84 24 60
	02 00 00	 mov	 rax, QWORD PTR this$[rsp]
  00118	48 05 a8 00 00
	00		 add	 rax, 168		; 000000a8H
  0011e	48 89 44 24 30	 mov	 QWORD PTR [rsp+48], rax
  00123	8b 05 0c 00 00
	00		 mov	 eax, DWORD PTR ?gs_today_time@@3USTTodayTime@@A+12
  00129	89 44 24 28	 mov	 DWORD PTR [rsp+40], eax
  0012d	48 8b 84 24 60
	02 00 00	 mov	 rax, QWORD PTR this$[rsp]
  00135	48 8b 80 a0 00
	00 00		 mov	 rax, QWORD PTR [rax+160]
  0013c	48 89 44 24 20	 mov	 QWORD PTR [rsp+32], rax
  00141	44 8b 0d 18 00
	00 00		 mov	 r9d, DWORD PTR ?gs_today_time@@3USTTodayTime@@A+24
  00148	48 8b 84 24 60
	02 00 00	 mov	 rax, QWORD PTR this$[rsp]
  00150	4c 8b 80 98 00
	00 00		 mov	 r8, QWORD PTR [rax+152]
  00157	48 8d 15 00 00
	00 00		 lea	 rdx, OFFSET FLAT:$SG86792
  0015e	48 8d 4c 24 40	 lea	 rcx, QWORD PTR szFile$[rsp]
  00163	e8 00 00 00 00	 call	 sprintf

; 702  : 			__openLogger(szFile);

  00168	45 33 c0	 xor	 r8d, r8d
  0016b	48 8d 54 24 40	 lea	 rdx, QWORD PTR szFile$[rsp]
  00170	48 8b 8c 24 60
	02 00 00	 mov	 rcx, QWORD PTR this$[rsp]
  00178	e8 00 00 00 00	 call	 ?__openLogger@CLogger@@AEAAXPEBDH@Z ; CLogger::__openLogger

; 703  : 			m_nSeq = 0;

  0017d	48 8b 84 24 60
	02 00 00	 mov	 rax, QWORD PTR this$[rsp]
  00185	c7 80 b8 00 00
	00 00 00 00 00	 mov	 DWORD PTR [rax+184], 0

; 704  : 			return;

  0018f	eb 78		 jmp	 SHORT $LN1@checkChang
$LN6@checkChang:
$LN5@checkChang:

; 705  : 		}
; 706  : 	}
; 707  : 	if(m_nSizeLimit) {

  00191	48 8b 84 24 60
	02 00 00	 mov	 rax, QWORD PTR this$[rsp]
  00199	83 b8 c0 00 00
	00 00		 cmp	 DWORD PTR [rax+192], 0
  001a0	74 67		 je	 SHORT $LN7@checkChang

; 708  : 		if (m_nSizeLimit < m_nLogSize) {

  001a2	48 8b 84 24 60
	02 00 00	 mov	 rax, QWORD PTR this$[rsp]
  001aa	48 8b 8c 24 60
	02 00 00	 mov	 rcx, QWORD PTR this$[rsp]
  001b2	8b 89 c4 00 00
	00		 mov	 ecx, DWORD PTR [rcx+196]
  001b8	39 88 c0 00 00
	00		 cmp	 DWORD PTR [rax+192], ecx
  001be	73 49		 jae	 SHORT $LN8@checkChang

; 709  : 			m_nSeq++;

  001c0	48 8b 84 24 60
	02 00 00	 mov	 rax, QWORD PTR this$[rsp]
  001c8	8b 80 b8 00 00
	00		 mov	 eax, DWORD PTR [rax+184]
  001ce	ff c0		 inc	 eax
  001d0	48 8b 8c 24 60
	02 00 00	 mov	 rcx, QWORD PTR this$[rsp]
  001d8	89 81 b8 00 00
	00		 mov	 DWORD PTR [rcx+184], eax

; 710  : 			__openLogger(m_pFName, m_nSeq);

  001de	48 8b 84 24 60
	02 00 00	 mov	 rax, QWORD PTR this$[rsp]
  001e6	44 8b 80 b8 00
	00 00		 mov	 r8d, DWORD PTR [rax+184]
  001ed	48 8b 84 24 60
	02 00 00	 mov	 rax, QWORD PTR this$[rsp]
  001f5	48 8b 90 90 00
	00 00		 mov	 rdx, QWORD PTR [rax+144]
  001fc	48 8b 8c 24 60
	02 00 00	 mov	 rcx, QWORD PTR this$[rsp]
  00204	e8 00 00 00 00	 call	 ?__openLogger@CLogger@@AEAAXPEBDH@Z ; CLogger::__openLogger
$LN8@checkChang:
$LN7@checkChang:
$LN1@checkChang:

; 711  : 		}
; 712  : 	}
; 713  : 
; 714  : 	// LOG_FLAG_FILE
; 715  : 	// no need to open a new file
; 716  : 
; 717  : }

  00209	48 8b 8c 24 40
	02 00 00	 mov	 rcx, QWORD PTR __$ArrayPad$[rsp]
  00211	48 33 cc	 xor	 rcx, rsp
  00214	e8 00 00 00 00	 call	 __security_check_cookie
  00219	48 81 c4 58 02
	00 00		 add	 rsp, 600		; 00000258H
  00220	c3		 ret	 0
?checkChangeProc@CLogger@@QEAAXH@Z ENDP			; CLogger::checkChangeProc
_TEXT	ENDS
; Function compile flags: /Odtp
; File e:\infinia-library-3.0\com\src\comlogger.cpp
;	COMDAT ?disable@CLogger@@QEAAXXZ
_TEXT	SEGMENT
this$ = 48
?disable@CLogger@@QEAAXXZ PROC				; CLogger::disable, COMDAT

; 474  : {

$LN4:
  00000	48 89 4c 24 08	 mov	 QWORD PTR [rsp+8], rcx
  00005	48 83 ec 28	 sub	 rsp, 40			; 00000028H

; 475  : 	clearLogFlag(IS_LOG_ENABLE);

  00009	ba 00 00 08 00	 mov	 edx, 524288		; 00080000H
  0000e	48 8b 4c 24 30	 mov	 rcx, QWORD PTR this$[rsp]
  00013	e8 00 00 00 00	 call	 ?clearLogFlag@CLogger@@QEAAXW4E_LOG_FLAG@@@Z ; CLogger::clearLogFlag

; 476  : 	if (m_hFile) {

  00018	48 8b 44 24 30	 mov	 rax, QWORD PTR this$[rsp]
  0001d	48 83 b8 88 00
	00 00 00	 cmp	 QWORD PTR [rax+136], 0
  00025	74 31		 je	 SHORT $LN2@disable

; 477  : 		clearLogFlag(IS_LOG_OPEN);

  00027	ba 00 00 04 00	 mov	 edx, 262144		; 00040000H
  0002c	48 8b 4c 24 30	 mov	 rcx, QWORD PTR this$[rsp]
  00031	e8 00 00 00 00	 call	 ?clearLogFlag@CLogger@@QEAAXW4E_LOG_FLAG@@@Z ; CLogger::clearLogFlag

; 478  : 		fclose(m_hFile); m_hFile = NULL;

  00036	48 8b 44 24 30	 mov	 rax, QWORD PTR this$[rsp]
  0003b	48 8b 88 88 00
	00 00		 mov	 rcx, QWORD PTR [rax+136]
  00042	ff 15 00 00 00
	00		 call	 QWORD PTR __imp_fclose
  00048	48 8b 44 24 30	 mov	 rax, QWORD PTR this$[rsp]
  0004d	48 c7 80 88 00
	00 00 00 00 00
	00		 mov	 QWORD PTR [rax+136], 0
$LN2@disable:

; 479  : 	}
; 480  : }

  00058	48 83 c4 28	 add	 rsp, 40			; 00000028H
  0005c	c3		 ret	 0
?disable@CLogger@@QEAAXXZ ENDP				; CLogger::disable
_TEXT	ENDS
; Function compile flags: /Odtp
; File e:\infinia-library-3.0\com\src\comlogger.cpp
;	COMDAT ?WritePacket@CLogger@@QEAAXHHHPEADH@Z
_TEXT	SEGMENT
tv133 = 48
nLen$ = 52
i$ = 56
pBuf$ = 64
tv164 = 72
tv131 = 80
nLCompare$ = 88
tv139 = 92
tv130 = 96
tv163 = 104
fmtStr$ = 112
tv132 = 152
header$ = 160
__$ArrayPad$ = 224
this$ = 256
nLevel$ = 264
nKind$ = 272
nSocket$ = 280
szBuffer$ = 288
nPacketSize$ = 296
?WritePacket@CLogger@@QEAAXHHHPEADH@Z PROC		; CLogger::WritePacket, COMDAT

; 569  : {

$LN11:
  00000	44 89 4c 24 20	 mov	 DWORD PTR [rsp+32], r9d
  00005	44 89 44 24 18	 mov	 DWORD PTR [rsp+24], r8d
  0000a	89 54 24 10	 mov	 DWORD PTR [rsp+16], edx
  0000e	48 89 4c 24 08	 mov	 QWORD PTR [rsp+8], rcx
  00013	48 81 ec f8 00
	00 00		 sub	 rsp, 248		; 000000f8H
  0001a	48 8b 05 00 00
	00 00		 mov	 rax, QWORD PTR __security_cookie
  00021	48 33 c4	 xor	 rax, rsp
  00024	48 89 84 24 e0
	00 00 00	 mov	 QWORD PTR __$ArrayPad$[rsp], rax

; 570  : 	if (!isLogFlag(IS_LOG_ENABLE)) return;

  0002c	ba 00 00 08 00	 mov	 edx, 524288		; 00080000H
  00031	48 8b 8c 24 00
	01 00 00	 mov	 rcx, QWORD PTR this$[rsp]
  00039	e8 00 00 00 00	 call	 ?isLogFlag@CLogger@@QEAA_NW4E_LOG_FLAG@@@Z ; CLogger::isLogFlag
  0003e	0f b6 c0	 movzx	 eax, al
  00041	85 c0		 test	 eax, eax
  00043	75 05		 jne	 SHORT $LN4@WritePacke
  00045	e9 3b 02 00 00	 jmp	 $LN1@WritePacke
$LN4@WritePacke:

; 571  : 	if (nLevel < m_nLogLevel) return;

  0004a	48 8b 84 24 00
	01 00 00	 mov	 rax, QWORD PTR this$[rsp]
  00052	8b 40 78	 mov	 eax, DWORD PTR [rax+120]
  00055	39 84 24 08 01
	00 00		 cmp	 DWORD PTR nLevel$[rsp], eax
  0005c	7d 05		 jge	 SHORT $LN5@WritePacke
  0005e	e9 22 02 00 00	 jmp	 $LN1@WritePacke
$LN5@WritePacke:

; 572  : 
; 573  : 	TCHAR header[LEN_LOG_HEADER];
; 574  : 	const TCHAR	*fmtStr[5] = {
; 575  : 		_T(" nSIdx[%d] Send [%d] PKIdx[%d] "),

  00063	48 8d 05 00 00
	00 00		 lea	 rax, OFFSET FLAT:$SG86721
  0006a	48 89 44 24 70	 mov	 QWORD PTR fmtStr$[rsp], rax

; 576  : 		_T(" nSIdx[%d] Recv [%d] PKIdx[%d] "),

  0006f	48 8d 05 00 00
	00 00		 lea	 rax, OFFSET FLAT:$SG86722
  00076	48 89 44 24 78	 mov	 QWORD PTR fmtStr$[rsp+8], rax

; 577  : 		_T(" nSIdx[%d] send Queue [%d] PKIdx[%d] "),

  0007b	48 8d 05 00 00
	00 00		 lea	 rax, OFFSET FLAT:$SG86723
  00082	48 89 84 24 80
	00 00 00	 mov	 QWORD PTR fmtStr$[rsp+16], rax

; 578  : 		_T(" nSIdx[%d] recv Queue [%d] PKIdx[%d] "),

  0008a	48 8d 05 00 00
	00 00		 lea	 rax, OFFSET FLAT:$SG86724
  00091	48 89 84 24 88
	00 00 00	 mov	 QWORD PTR fmtStr$[rsp+24], rax

; 579  : 		_T(" Undefind nkind[%d] [%d] PKIdx[%d] ")

  00099	48 8d 05 00 00
	00 00		 lea	 rax, OFFSET FLAT:$SG86725
  000a0	48 89 84 24 90
	00 00 00	 mov	 QWORD PTR fmtStr$[rsp+32], rax

; 580  : 	};
; 581  : 
; 582  : 	if (nKind < 0 || nKind > 4) nKind = 4;

  000a8	83 bc 24 10 01
	00 00 00	 cmp	 DWORD PTR nKind$[rsp], 0
  000b0	7c 0a		 jl	 SHORT $LN7@WritePacke
  000b2	83 bc 24 10 01
	00 00 04	 cmp	 DWORD PTR nKind$[rsp], 4
  000ba	7e 0b		 jle	 SHORT $LN6@WritePacke
$LN7@WritePacke:
  000bc	c7 84 24 10 01
	00 00 04 00 00
	00		 mov	 DWORD PTR nKind$[rsp], 4
$LN6@WritePacke:

; 583  : 
; 584  : 	int	i=0, nLCompare, nLen;

  000c7	c7 44 24 38 00
	00 00 00	 mov	 DWORD PTR i$[rsp], 0

; 585  : 	nLen = setHeader(header, nLevel);

  000cf	44 8b 84 24 08
	01 00 00	 mov	 r8d, DWORD PTR nLevel$[rsp]
  000d7	48 8d 94 24 a0
	00 00 00	 lea	 rdx, QWORD PTR header$[rsp]
  000df	48 8b 8c 24 00
	01 00 00	 mov	 rcx, QWORD PTR this$[rsp]
  000e7	e8 00 00 00 00	 call	 ?setHeader@CLogger@@QEAAHPEADH@Z ; CLogger::setHeader
  000ec	89 44 24 34	 mov	 DWORD PTR nLen$[rsp], eax

; 586  : 
; 587  : 
; 588  : 	nLen += _stprintf(header +nLen, fmtStr[nKind], nSocket, nPacketSize, nKind);

  000f0	48 63 84 24 10
	01 00 00	 movsxd	 rax, DWORD PTR nKind$[rsp]
  000f8	48 63 4c 24 34	 movsxd	 rcx, DWORD PTR nLen$[rsp]
  000fd	48 8d 8c 0c a0
	00 00 00	 lea	 rcx, QWORD PTR header$[rsp+rcx]
  00105	8b 94 24 10 01
	00 00		 mov	 edx, DWORD PTR nKind$[rsp]
  0010c	89 54 24 20	 mov	 DWORD PTR [rsp+32], edx
  00110	44 8b 8c 24 28
	01 00 00	 mov	 r9d, DWORD PTR nPacketSize$[rsp]
  00118	44 8b 84 24 18
	01 00 00	 mov	 r8d, DWORD PTR nSocket$[rsp]
  00120	48 8b 54 c4 70	 mov	 rdx, QWORD PTR fmtStr$[rsp+rax*8]
  00125	e8 00 00 00 00	 call	 sprintf
  0012a	8b 4c 24 34	 mov	 ecx, DWORD PTR nLen$[rsp]
  0012e	03 c8		 add	 ecx, eax
  00130	8b c1		 mov	 eax, ecx
  00132	89 44 24 34	 mov	 DWORD PTR nLen$[rsp], eax

; 589  : 	nLCompare = (int)_tcslen(szBuffer);

  00136	48 8b 84 24 20
	01 00 00	 mov	 rax, QWORD PTR szBuffer$[rsp]
  0013e	48 89 44 24 68	 mov	 QWORD PTR tv163[rsp], rax
  00143	48 c7 44 24 48
	ff ff ff ff	 mov	 QWORD PTR tv164[rsp], -1
$LL10@WritePacke:
  0014c	48 ff 44 24 48	 inc	 QWORD PTR tv164[rsp]
  00151	48 8b 44 24 68	 mov	 rax, QWORD PTR tv163[rsp]
  00156	48 8b 4c 24 48	 mov	 rcx, QWORD PTR tv164[rsp]
  0015b	80 3c 08 00	 cmp	 BYTE PTR [rax+rcx], 0
  0015f	75 eb		 jne	 SHORT $LL10@WritePacke
  00161	48 8b 44 24 48	 mov	 rax, QWORD PTR tv164[rsp]
  00166	89 44 24 58	 mov	 DWORD PTR nLCompare$[rsp], eax

; 590  : 	
; 591  : 	TCHAR *pBuf = (TCHAR *)gs_pMMgr->newBuf(LEN_TO_SIZE(nLen + nLCompare + 2));

  0016a	8b 44 24 34	 mov	 eax, DWORD PTR nLen$[rsp]
  0016e	8b 4c 24 58	 mov	 ecx, DWORD PTR nLCompare$[rsp]
  00172	8d 44 08 02	 lea	 eax, DWORD PTR [rax+rcx+2]
  00176	8b d0		 mov	 edx, eax
  00178	48 8b 0d 00 00
	00 00		 mov	 rcx, QWORD PTR ?gs_pMMgr@@3PEAVCMemManager@@EA ; gs_pMMgr
  0017f	e8 00 00 00 00	 call	 ?newBuf@CMemManager@@QEAAPEADH@Z ; CMemManager::newBuf
  00184	48 89 44 24 40	 mov	 QWORD PTR pBuf$[rsp], rax

; 592  : 
; 593  : 	_tcscpy(pBuf, header);

  00189	48 8d 84 24 a0
	00 00 00	 lea	 rax, QWORD PTR header$[rsp]
  00191	48 89 44 24 60	 mov	 QWORD PTR tv130[rsp], rax
  00196	48 8b 44 24 40	 mov	 rax, QWORD PTR pBuf$[rsp]
  0019b	48 89 44 24 50	 mov	 QWORD PTR tv131[rsp], rax
  001a0	48 8b 44 24 50	 mov	 rax, QWORD PTR tv131[rsp]
  001a5	48 89 84 24 98
	00 00 00	 mov	 QWORD PTR tv132[rsp], rax
$LN9@WritePacke:
  001ad	48 8b 44 24 60	 mov	 rax, QWORD PTR tv130[rsp]
  001b2	0f b6 00	 movzx	 eax, BYTE PTR [rax]
  001b5	88 44 24 30	 mov	 BYTE PTR tv133[rsp], al
  001b9	48 8b 44 24 50	 mov	 rax, QWORD PTR tv131[rsp]
  001be	0f b6 4c 24 30	 movzx	 ecx, BYTE PTR tv133[rsp]
  001c3	88 08		 mov	 BYTE PTR [rax], cl
  001c5	48 8b 44 24 60	 mov	 rax, QWORD PTR tv130[rsp]
  001ca	48 ff c0	 inc	 rax
  001cd	48 89 44 24 60	 mov	 QWORD PTR tv130[rsp], rax
  001d2	48 8b 44 24 50	 mov	 rax, QWORD PTR tv131[rsp]
  001d7	48 ff c0	 inc	 rax
  001da	48 89 44 24 50	 mov	 QWORD PTR tv131[rsp], rax
  001df	80 7c 24 30 00	 cmp	 BYTE PTR tv133[rsp], 0
  001e4	75 c7		 jne	 SHORT $LN9@WritePacke
$LN2@WritePacke:

; 594  : 
; 595  : 	while (nPacketSize--) {

  001e6	8b 84 24 28 01
	00 00		 mov	 eax, DWORD PTR nPacketSize$[rsp]
  001ed	89 44 24 5c	 mov	 DWORD PTR tv139[rsp], eax
  001f1	8b 84 24 28 01
	00 00		 mov	 eax, DWORD PTR nPacketSize$[rsp]
  001f8	ff c8		 dec	 eax
  001fa	89 84 24 28 01
	00 00		 mov	 DWORD PTR nPacketSize$[rsp], eax
  00201	83 7c 24 5c 00	 cmp	 DWORD PTR tv139[rsp], 0
  00206	74 4c		 je	 SHORT $LN3@WritePacke

; 596  : 		_stprintf(pBuf+nLen, _T("%02x "), szBuffer[i] & 0x0ff);

  00208	48 63 44 24 38	 movsxd	 rax, DWORD PTR i$[rsp]
  0020d	48 8b 8c 24 20
	01 00 00	 mov	 rcx, QWORD PTR szBuffer$[rsp]
  00215	0f be 04 01	 movsx	 eax, BYTE PTR [rcx+rax]
  00219	25 ff 00 00 00	 and	 eax, 255		; 000000ffH
  0021e	48 63 4c 24 34	 movsxd	 rcx, DWORD PTR nLen$[rsp]
  00223	48 8b 54 24 40	 mov	 rdx, QWORD PTR pBuf$[rsp]
  00228	48 03 d1	 add	 rdx, rcx
  0022b	48 8b ca	 mov	 rcx, rdx
  0022e	44 8b c0	 mov	 r8d, eax
  00231	48 8d 15 00 00
	00 00		 lea	 rdx, OFFSET FLAT:$SG86728
  00238	e8 00 00 00 00	 call	 sprintf

; 597  : 		nLen += 3; i++;

  0023d	8b 44 24 34	 mov	 eax, DWORD PTR nLen$[rsp]
  00241	83 c0 03	 add	 eax, 3
  00244	89 44 24 34	 mov	 DWORD PTR nLen$[rsp], eax
  00248	8b 44 24 38	 mov	 eax, DWORD PTR i$[rsp]
  0024c	ff c0		 inc	 eax
  0024e	89 44 24 38	 mov	 DWORD PTR i$[rsp], eax

; 598  : 	}

  00252	eb 92		 jmp	 SHORT $LN2@WritePacke
$LN3@WritePacke:

; 599  : 	pBuf[nLen] = '\n';

  00254	48 63 44 24 34	 movsxd	 rax, DWORD PTR nLen$[rsp]
  00259	48 8b 4c 24 40	 mov	 rcx, QWORD PTR pBuf$[rsp]
  0025e	c6 04 01 0a	 mov	 BYTE PTR [rcx+rax], 10

; 600  : 	pBuf[nLen + 1] = 0;

  00262	8b 44 24 34	 mov	 eax, DWORD PTR nLen$[rsp]
  00266	ff c0		 inc	 eax
  00268	48 98		 cdqe
  0026a	48 8b 4c 24 40	 mov	 rcx, QWORD PTR pBuf$[rsp]
  0026f	c6 04 01 00	 mov	 BYTE PTR [rcx+rax], 0

; 601  : 
; 602  : 	putQueue(pBuf);

  00273	48 8b 54 24 40	 mov	 rdx, QWORD PTR pBuf$[rsp]
  00278	48 8b 8c 24 00
	01 00 00	 mov	 rcx, QWORD PTR this$[rsp]
  00280	e8 00 00 00 00	 call	 ?putQueue@CLogger@@QEAAXPEAD@Z ; CLogger::putQueue
$LN1@WritePacke:

; 603  : }

  00285	48 8b 8c 24 e0
	00 00 00	 mov	 rcx, QWORD PTR __$ArrayPad$[rsp]
  0028d	48 33 cc	 xor	 rcx, rsp
  00290	e8 00 00 00 00	 call	 __security_check_cookie
  00295	48 81 c4 f8 00
	00 00		 add	 rsp, 248		; 000000f8H
  0029c	c3		 ret	 0
?WritePacket@CLogger@@QEAAXHHHPEADH@Z ENDP		; CLogger::WritePacket
_TEXT	ENDS
; Function compile flags: /Odtp
; File e:\infinia-library-3.0\com\src\comlogger.cpp
;	COMDAT ?LogPrint@CLogger@@QEAAXHPEBDZZ
_TEXT	SEGMENT
tv128 = 32
nLen$ = 36
tv94 = 40
pBuf$ = 48
tv93 = 56
tv95 = 64
ap$ = 72
header$ = 80
msgBuf$ = 592
__$ArrayPad$ = 8784
this$ = 8816
level$ = 8824
_szFormat$ = 8832
?LogPrint@CLogger@@QEAAXHPEBDZZ PROC			; CLogger::LogPrint, COMDAT

; 542  : {

$LN6:
  00000	4c 89 44 24 18	 mov	 QWORD PTR [rsp+24], r8
  00005	89 54 24 10	 mov	 DWORD PTR [rsp+16], edx
  00009	48 89 4c 24 08	 mov	 QWORD PTR [rsp+8], rcx
  0000e	4c 89 4c 24 20	 mov	 QWORD PTR [rsp+32], r9
  00013	b8 68 22 00 00	 mov	 eax, 8808		; 00002268H
  00018	e8 00 00 00 00	 call	 __chkstk
  0001d	48 2b e0	 sub	 rsp, rax
  00020	48 8b 05 00 00
	00 00		 mov	 rax, QWORD PTR __security_cookie
  00027	48 33 c4	 xor	 rax, rsp
  0002a	48 89 84 24 50
	22 00 00	 mov	 QWORD PTR __$ArrayPad$[rsp], rax

; 543  : 	if (!isLogFlag(IS_LOG_ENABLE)) return;

  00032	ba 00 00 08 00	 mov	 edx, 524288		; 00080000H
  00037	48 8b 8c 24 70
	22 00 00	 mov	 rcx, QWORD PTR this$[rsp]
  0003f	e8 00 00 00 00	 call	 ?isLogFlag@CLogger@@QEAA_NW4E_LOG_FLAG@@@Z ; CLogger::isLogFlag
  00044	0f b6 c0	 movzx	 eax, al
  00047	85 c0		 test	 eax, eax
  00049	75 05		 jne	 SHORT $LN2@LogPrint
  0004b	e9 38 01 00 00	 jmp	 $LN1@LogPrint
$LN2@LogPrint:

; 544  : 	if (level < m_nLogLevel) return;

  00050	48 8b 84 24 70
	22 00 00	 mov	 rax, QWORD PTR this$[rsp]
  00058	8b 40 78	 mov	 eax, DWORD PTR [rax+120]
  0005b	39 84 24 78 22
	00 00		 cmp	 DWORD PTR level$[rsp], eax
  00062	7d 05		 jge	 SHORT $LN3@LogPrint
  00064	e9 1f 01 00 00	 jmp	 $LN1@LogPrint
$LN3@LogPrint:

; 545  : 
; 546  : //	char tmpBuf[512];
; 547  : 	int nLen;
; 548  : 
; 549  : 	TCHAR	msgBuf[MAX_LOGBUF_LEN];
; 550  : 	TCHAR	header[512];
; 551  : 	va_list	ap;
; 552  : 
; 553  : 	nLen = setHeader(header, level);

  00069	44 8b 84 24 78
	22 00 00	 mov	 r8d, DWORD PTR level$[rsp]
  00071	48 8d 54 24 50	 lea	 rdx, QWORD PTR header$[rsp]
  00076	48 8b 8c 24 70
	22 00 00	 mov	 rcx, QWORD PTR this$[rsp]
  0007e	e8 00 00 00 00	 call	 ?setHeader@CLogger@@QEAAHPEADH@Z ; CLogger::setHeader
  00083	89 44 24 24	 mov	 DWORD PTR nLen$[rsp], eax

; 554  : 	sprintf(header + nLen, " %s ", _szFormat);

  00087	48 63 44 24 24	 movsxd	 rax, DWORD PTR nLen$[rsp]
  0008c	48 8d 44 04 50	 lea	 rax, QWORD PTR header$[rsp+rax]
  00091	4c 8b 84 24 80
	22 00 00	 mov	 r8, QWORD PTR _szFormat$[rsp]
  00099	48 8d 15 00 00
	00 00		 lea	 rdx, OFFSET FLAT:$SG86700
  000a0	48 8b c8	 mov	 rcx, rax
  000a3	e8 00 00 00 00	 call	 sprintf

; 555  : 	va_start(ap, _szFormat);

  000a8	e8 00 00 00 00	 call	 ??$__vcrt_va_start_verify_argument_type@PEBD@@YAXXZ ; __vcrt_va_start_verify_argument_type<char const * __ptr64>
  000ad	48 8d 84 24 88
	22 00 00	 lea	 rax, QWORD PTR _szFormat$[rsp+8]
  000b5	48 89 44 24 48	 mov	 QWORD PTR ap$[rsp], rax

; 556  : 	nLen = vsnprintf(msgBuf, MAX_LOGBUF_LEN - 1, header, ap);

  000ba	4c 8b 4c 24 48	 mov	 r9, QWORD PTR ap$[rsp]
  000bf	4c 8d 44 24 50	 lea	 r8, QWORD PTR header$[rsp]
  000c4	ba ff 1f 00 00	 mov	 edx, 8191		; 00001fffH
  000c9	48 8d 8c 24 50
	02 00 00	 lea	 rcx, QWORD PTR msgBuf$[rsp]
  000d1	e8 00 00 00 00	 call	 vsnprintf
  000d6	89 44 24 24	 mov	 DWORD PTR nLen$[rsp], eax

; 557  : 	va_end(ap);

  000da	48 c7 44 24 48
	00 00 00 00	 mov	 QWORD PTR ap$[rsp], 0

; 558  : 
; 559  : 	TCHAR *pBuf = (TCHAR *)gs_pMMgr->newBuf(LEN_TO_SIZE(nLen + 2));

  000e3	8b 44 24 24	 mov	 eax, DWORD PTR nLen$[rsp]
  000e7	83 c0 02	 add	 eax, 2
  000ea	8b d0		 mov	 edx, eax
  000ec	48 8b 0d 00 00
	00 00		 mov	 rcx, QWORD PTR ?gs_pMMgr@@3PEAVCMemManager@@EA ; gs_pMMgr
  000f3	e8 00 00 00 00	 call	 ?newBuf@CMemManager@@QEAAPEADH@Z ; CMemManager::newBuf
  000f8	48 89 44 24 30	 mov	 QWORD PTR pBuf$[rsp], rax

; 560  : 	_tcscpy(pBuf, msgBuf);

  000fd	48 8d 84 24 50
	02 00 00	 lea	 rax, QWORD PTR msgBuf$[rsp]
  00105	48 89 44 24 38	 mov	 QWORD PTR tv93[rsp], rax
  0010a	48 8b 44 24 30	 mov	 rax, QWORD PTR pBuf$[rsp]
  0010f	48 89 44 24 28	 mov	 QWORD PTR tv94[rsp], rax
  00114	48 8b 44 24 28	 mov	 rax, QWORD PTR tv94[rsp]
  00119	48 89 44 24 40	 mov	 QWORD PTR tv95[rsp], rax
$LN5@LogPrint:
  0011e	48 8b 44 24 38	 mov	 rax, QWORD PTR tv93[rsp]
  00123	0f b6 00	 movzx	 eax, BYTE PTR [rax]
  00126	88 44 24 20	 mov	 BYTE PTR tv128[rsp], al
  0012a	48 8b 44 24 28	 mov	 rax, QWORD PTR tv94[rsp]
  0012f	0f b6 4c 24 20	 movzx	 ecx, BYTE PTR tv128[rsp]
  00134	88 08		 mov	 BYTE PTR [rax], cl
  00136	48 8b 44 24 38	 mov	 rax, QWORD PTR tv93[rsp]
  0013b	48 ff c0	 inc	 rax
  0013e	48 89 44 24 38	 mov	 QWORD PTR tv93[rsp], rax
  00143	48 8b 44 24 28	 mov	 rax, QWORD PTR tv94[rsp]
  00148	48 ff c0	 inc	 rax
  0014b	48 89 44 24 28	 mov	 QWORD PTR tv94[rsp], rax
  00150	80 7c 24 20 00	 cmp	 BYTE PTR tv128[rsp], 0
  00155	75 c7		 jne	 SHORT $LN5@LogPrint

; 561  : 	pBuf[nLen] = '\n';

  00157	48 63 44 24 24	 movsxd	 rax, DWORD PTR nLen$[rsp]
  0015c	48 8b 4c 24 30	 mov	 rcx, QWORD PTR pBuf$[rsp]
  00161	c6 04 01 0a	 mov	 BYTE PTR [rcx+rax], 10

; 562  : 	pBuf[nLen + 1] = 0;

  00165	8b 44 24 24	 mov	 eax, DWORD PTR nLen$[rsp]
  00169	ff c0		 inc	 eax
  0016b	48 98		 cdqe
  0016d	48 8b 4c 24 30	 mov	 rcx, QWORD PTR pBuf$[rsp]
  00172	c6 04 01 00	 mov	 BYTE PTR [rcx+rax], 0

; 563  : 
; 564  : 	LogPrint(pBuf);

  00176	48 8b 54 24 30	 mov	 rdx, QWORD PTR pBuf$[rsp]
  0017b	48 8b 8c 24 70
	22 00 00	 mov	 rcx, QWORD PTR this$[rsp]
  00183	e8 00 00 00 00	 call	 ?LogPrint@CLogger@@QEAAXPEAD@Z ; CLogger::LogPrint
$LN1@LogPrint:

; 565  : }

  00188	48 8b 8c 24 50
	22 00 00	 mov	 rcx, QWORD PTR __$ArrayPad$[rsp]
  00190	48 33 cc	 xor	 rcx, rsp
  00193	e8 00 00 00 00	 call	 __security_check_cookie
  00198	48 81 c4 68 22
	00 00		 add	 rsp, 8808		; 00002268H
  0019f	c3		 ret	 0
?LogPrint@CLogger@@QEAAXHPEBDZZ ENDP			; CLogger::LogPrint
_TEXT	ENDS
; Function compile flags: /Odtp
; File e:\infinia-library-3.0\com\src\comlogger.cpp
;	COMDAT ?LogPrint@CLogger@@QEAAXPEAD@Z
_TEXT	SEGMENT
this$ = 48
pLog$ = 56
?LogPrint@CLogger@@QEAAXPEAD@Z PROC			; CLogger::LogPrint, COMDAT

; 483  : {

$LN7:
  00000	48 89 54 24 10	 mov	 QWORD PTR [rsp+16], rdx
  00005	48 89 4c 24 08	 mov	 QWORD PTR [rsp+8], rcx
  0000a	48 83 ec 28	 sub	 rsp, 40			; 00000028H

; 484  : 	if (m_fpDataProc) m_fpDataProc(pLog, m_pObj);

  0000e	48 8b 44 24 30	 mov	 rax, QWORD PTR this$[rsp]
  00013	48 83 78 60 00	 cmp	 QWORD PTR [rax+96], 0
  00018	74 16		 je	 SHORT $LN2@LogPrint
  0001a	48 8b 44 24 30	 mov	 rax, QWORD PTR this$[rsp]
  0001f	48 8b 50 70	 mov	 rdx, QWORD PTR [rax+112]
  00023	48 8b 4c 24 38	 mov	 rcx, QWORD PTR pLog$[rsp]
  00028	48 8b 44 24 30	 mov	 rax, QWORD PTR this$[rsp]
  0002d	ff 50 60	 call	 QWORD PTR [rax+96]
$LN2@LogPrint:

; 485  : 	if (m_hFile) {

  00030	48 8b 44 24 30	 mov	 rax, QWORD PTR this$[rsp]
  00035	48 83 b8 88 00
	00 00 00	 cmp	 QWORD PTR [rax+136], 0
  0003d	74 5c		 je	 SHORT $LN3@LogPrint

; 486  : 		if (m_nLogFlag & IS_PRINT) _tprintf(pLog);

  0003f	48 8b 44 24 30	 mov	 rax, QWORD PTR this$[rsp]
  00044	8b 80 b4 00 00
	00		 mov	 eax, DWORD PTR [rax+180]
  0004a	25 00 20 00 00	 and	 eax, 8192		; 00002000H
  0004f	85 c0		 test	 eax, eax
  00051	74 0a		 je	 SHORT $LN4@LogPrint
  00053	48 8b 4c 24 38	 mov	 rcx, QWORD PTR pLog$[rsp]
  00058	e8 00 00 00 00	 call	 printf
$LN4@LogPrint:

; 487  : 		if (isLogFlag(IS_LOG_OPEN)) {

  0005d	ba 00 00 04 00	 mov	 edx, 262144		; 00040000H
  00062	48 8b 4c 24 30	 mov	 rcx, QWORD PTR this$[rsp]
  00067	e8 00 00 00 00	 call	 ?isLogFlag@CLogger@@QEAA_NW4E_LOG_FLAG@@@Z ; CLogger::isLogFlag
  0006c	0f b6 c0	 movzx	 eax, al
  0006f	85 c0		 test	 eax, eax
  00071	74 28		 je	 SHORT $LN5@LogPrint

; 488  : 			_ftprintf(m_hFile, pLog);

  00073	48 8b 54 24 38	 mov	 rdx, QWORD PTR pLog$[rsp]
  00078	48 8b 44 24 30	 mov	 rax, QWORD PTR this$[rsp]
  0007d	48 8b 88 88 00
	00 00		 mov	 rcx, QWORD PTR [rax+136]
  00084	e8 00 00 00 00	 call	 fprintf

; 489  : 			fflush(m_hFile);

  00089	48 8b 44 24 30	 mov	 rax, QWORD PTR this$[rsp]
  0008e	48 8b 88 88 00
	00 00		 mov	 rcx, QWORD PTR [rax+136]
  00095	ff 15 00 00 00
	00		 call	 QWORD PTR __imp_fflush
$LN5@LogPrint:
$LN3@LogPrint:

; 490  : 		}
; 491  : 		//else {
; 492  : 		//	//m_cLock.enter();
; 493  : 		//	_ftprintf(m_hFile, pLog);
; 494  : 		//	fflush(m_hFile);
; 495  : 		//	//m_cLock.leave();
; 496  : 		//}
; 497  : 
; 498  : 	}
; 499  : }

  0009b	48 83 c4 28	 add	 rsp, 40			; 00000028H
  0009f	c3		 ret	 0
?LogPrint@CLogger@@QEAAXPEAD@Z ENDP			; CLogger::LogPrint
_TEXT	ENDS
; Function compile flags: /Odtp
; File e:\infinia-library-3.0\com\src\comlogger.cpp
;	COMDAT ?Log@CLogger@@QEAAXHPEBD00_N@Z
_TEXT	SEGMENT
tv82 = 32
tv139 = 33
tv149 = 34
tv161 = 35
tv174 = 36
tv184 = 37
headerLen$ = 40
totlen$ = 44
pBuf$ = 48
bodyLen$ = 56
tv80 = 64
tv219 = 72
tv212 = 80
tv205 = 88
tv137 = 96
tv147 = 104
tv159 = 112
tv172 = 120
tv182 = 128
tv77 = 136
tv136 = 144
tv144 = 152
tv154 = 160
tv171 = 168
tv179 = 176
tv218 = 184
tv211 = 192
tv204 = 200
tv81 = 208
tv138 = 216
tv148 = 224
tv160 = 232
tv173 = 240
tv183 = 248
headerBuf$ = 256
__$ArrayPad$ = 8448
this$ = 8480
level$ = 8488
body$ = 8496
header$ = 8504
tail$ = 8512
bToFile$ = 8520
?Log@CLogger@@QEAAXHPEBD00_N@Z PROC			; CLogger::Log, COMDAT

; 502  : {

$LN18:
  00000	4c 89 4c 24 20	 mov	 QWORD PTR [rsp+32], r9
  00005	4c 89 44 24 18	 mov	 QWORD PTR [rsp+24], r8
  0000a	89 54 24 10	 mov	 DWORD PTR [rsp+16], edx
  0000e	48 89 4c 24 08	 mov	 QWORD PTR [rsp+8], rcx
  00013	b8 18 21 00 00	 mov	 eax, 8472		; 00002118H
  00018	e8 00 00 00 00	 call	 __chkstk
  0001d	48 2b e0	 sub	 rsp, rax
  00020	48 8b 05 00 00
	00 00		 mov	 rax, QWORD PTR __security_cookie
  00027	48 33 c4	 xor	 rax, rsp
  0002a	48 89 84 24 00
	21 00 00	 mov	 QWORD PTR __$ArrayPad$[rsp], rax

; 503  : 	if (!isLogFlag(IS_LOG_ENABLE)) return;

  00032	ba 00 00 08 00	 mov	 edx, 524288		; 00080000H
  00037	48 8b 8c 24 20
	21 00 00	 mov	 rcx, QWORD PTR this$[rsp]
  0003f	e8 00 00 00 00	 call	 ?isLogFlag@CLogger@@QEAA_NW4E_LOG_FLAG@@@Z ; CLogger::isLogFlag
  00044	0f b6 c0	 movzx	 eax, al
  00047	85 c0		 test	 eax, eax
  00049	75 05		 jne	 SHORT $LN2@Log
  0004b	e9 7c 04 00 00	 jmp	 $LN1@Log
$LN2@Log:

; 504  : 	if (level < m_nLogLevel) return;

  00050	48 8b 84 24 20
	21 00 00	 mov	 rax, QWORD PTR this$[rsp]
  00058	8b 40 78	 mov	 eax, DWORD PTR [rax+120]
  0005b	39 84 24 28 21
	00 00		 cmp	 DWORD PTR level$[rsp], eax
  00062	7d 05		 jge	 SHORT $LN3@Log
  00064	e9 63 04 00 00	 jmp	 $LN1@Log
$LN3@Log:

; 505  : 
; 506  : 	int headerLen, bodyLen=0, totlen=0;

  00069	c7 44 24 38 00
	00 00 00	 mov	 DWORD PTR bodyLen$[rsp], 0
  00071	c7 44 24 2c 00
	00 00 00	 mov	 DWORD PTR totlen$[rsp], 0

; 507  : 
; 508  : 	TCHAR    headerBuf[MAX_LOGBUF_LEN];
; 509  : 	TCHAR *pBuf;
; 510  : 
; 511  : 	headerLen = setHeader(headerBuf, level);

  00079	44 8b 84 24 28
	21 00 00	 mov	 r8d, DWORD PTR level$[rsp]
  00081	48 8d 94 24 00
	01 00 00	 lea	 rdx, QWORD PTR headerBuf$[rsp]
  00089	48 8b 8c 24 20
	21 00 00	 mov	 rcx, QWORD PTR this$[rsp]
  00091	e8 00 00 00 00	 call	 ?setHeader@CLogger@@QEAAHPEADH@Z ; CLogger::setHeader
  00096	89 44 24 28	 mov	 DWORD PTR headerLen$[rsp], eax

; 512  : 
; 513  : 	// calculate total length ----------------
; 514  : 	if (header) {

  0009a	48 83 bc 24 38
	21 00 00 00	 cmp	 QWORD PTR header$[rsp], 0
  000a3	0f 84 b3 00 00
	00		 je	 $LN4@Log

; 515  : 		_tcscpy(headerBuf + headerLen, header); headerLen += (int)_tcslen(header);;

  000a9	48 8b 84 24 38
	21 00 00	 mov	 rax, QWORD PTR header$[rsp]
  000b1	48 89 84 24 88
	00 00 00	 mov	 QWORD PTR tv77[rsp], rax
  000b9	48 63 44 24 28	 movsxd	 rax, DWORD PTR headerLen$[rsp]
  000be	48 8d 84 04 00
	01 00 00	 lea	 rax, QWORD PTR headerBuf$[rsp+rax]
  000c6	48 89 44 24 40	 mov	 QWORD PTR tv80[rsp], rax
  000cb	48 8b 44 24 40	 mov	 rax, QWORD PTR tv80[rsp]
  000d0	48 89 84 24 d0
	00 00 00	 mov	 QWORD PTR tv81[rsp], rax
$LN9@Log:
  000d8	48 8b 84 24 88
	00 00 00	 mov	 rax, QWORD PTR tv77[rsp]
  000e0	0f b6 00	 movzx	 eax, BYTE PTR [rax]
  000e3	88 44 24 20	 mov	 BYTE PTR tv82[rsp], al
  000e7	48 8b 44 24 40	 mov	 rax, QWORD PTR tv80[rsp]
  000ec	0f b6 4c 24 20	 movzx	 ecx, BYTE PTR tv82[rsp]
  000f1	88 08		 mov	 BYTE PTR [rax], cl
  000f3	48 8b 84 24 88
	00 00 00	 mov	 rax, QWORD PTR tv77[rsp]
  000fb	48 ff c0	 inc	 rax
  000fe	48 89 84 24 88
	00 00 00	 mov	 QWORD PTR tv77[rsp], rax
  00106	48 8b 44 24 40	 mov	 rax, QWORD PTR tv80[rsp]
  0010b	48 ff c0	 inc	 rax
  0010e	48 89 44 24 40	 mov	 QWORD PTR tv80[rsp], rax
  00113	80 7c 24 20 00	 cmp	 BYTE PTR tv82[rsp], 0
  00118	75 be		 jne	 SHORT $LN9@Log
  0011a	48 8b 84 24 38
	21 00 00	 mov	 rax, QWORD PTR header$[rsp]
  00122	48 89 84 24 b8
	00 00 00	 mov	 QWORD PTR tv218[rsp], rax
  0012a	48 c7 44 24 48
	ff ff ff ff	 mov	 QWORD PTR tv219[rsp], -1
$LL17@Log:
  00133	48 ff 44 24 48	 inc	 QWORD PTR tv219[rsp]
  00138	48 8b 84 24 b8
	00 00 00	 mov	 rax, QWORD PTR tv218[rsp]
  00140	48 8b 4c 24 48	 mov	 rcx, QWORD PTR tv219[rsp]
  00145	80 3c 08 00	 cmp	 BYTE PTR [rax+rcx], 0
  00149	75 e8		 jne	 SHORT $LL17@Log
  0014b	48 8b 44 24 48	 mov	 rax, QWORD PTR tv219[rsp]
  00150	8b 4c 24 28	 mov	 ecx, DWORD PTR headerLen$[rsp]
  00154	03 c8		 add	 ecx, eax
  00156	8b c1		 mov	 eax, ecx
  00158	89 44 24 28	 mov	 DWORD PTR headerLen$[rsp], eax
$LN4@Log:

; 516  : 	}
; 517  : 	bodyLen = (int)_tcslen(body);

  0015c	48 8b 84 24 30
	21 00 00	 mov	 rax, QWORD PTR body$[rsp]
  00164	48 89 84 24 c0
	00 00 00	 mov	 QWORD PTR tv211[rsp], rax
  0016c	48 c7 44 24 50
	ff ff ff ff	 mov	 QWORD PTR tv212[rsp], -1
$LL16@Log:
  00175	48 ff 44 24 50	 inc	 QWORD PTR tv212[rsp]
  0017a	48 8b 84 24 c0
	00 00 00	 mov	 rax, QWORD PTR tv211[rsp]
  00182	48 8b 4c 24 50	 mov	 rcx, QWORD PTR tv212[rsp]
  00187	80 3c 08 00	 cmp	 BYTE PTR [rax+rcx], 0
  0018b	75 e8		 jne	 SHORT $LL16@Log
  0018d	48 8b 44 24 50	 mov	 rax, QWORD PTR tv212[rsp]
  00192	89 44 24 38	 mov	 DWORD PTR bodyLen$[rsp], eax

; 518  : 	if (tail) { 

  00196	48 83 bc 24 40
	21 00 00 00	 cmp	 QWORD PTR tail$[rsp], 0
  0019f	0f 84 c0 01 00
	00		 je	 $LN5@Log

; 519  : 		totlen = headerLen + bodyLen + (int)_tcslen(tail);

  001a5	8b 44 24 38	 mov	 eax, DWORD PTR bodyLen$[rsp]
  001a9	8b 4c 24 28	 mov	 ecx, DWORD PTR headerLen$[rsp]
  001ad	03 c8		 add	 ecx, eax
  001af	8b c1		 mov	 eax, ecx
  001b1	48 8b 8c 24 40
	21 00 00	 mov	 rcx, QWORD PTR tail$[rsp]
  001b9	48 89 8c 24 c8
	00 00 00	 mov	 QWORD PTR tv204[rsp], rcx
  001c1	48 c7 44 24 58
	ff ff ff ff	 mov	 QWORD PTR tv205[rsp], -1
$LL15@Log:
  001ca	48 ff 44 24 58	 inc	 QWORD PTR tv205[rsp]
  001cf	48 8b 8c 24 c8
	00 00 00	 mov	 rcx, QWORD PTR tv204[rsp]
  001d7	48 8b 54 24 58	 mov	 rdx, QWORD PTR tv205[rsp]
  001dc	80 3c 11 00	 cmp	 BYTE PTR [rcx+rdx], 0
  001e0	75 e8		 jne	 SHORT $LL15@Log
  001e2	48 8b 4c 24 58	 mov	 rcx, QWORD PTR tv205[rsp]
  001e7	03 c1		 add	 eax, ecx
  001e9	89 44 24 2c	 mov	 DWORD PTR totlen$[rsp], eax

; 520  : 		pBuf = (TCHAR *)gs_pMMgr->newBuf(LEN_TO_SIZE(totlen + 2));

  001ed	8b 44 24 2c	 mov	 eax, DWORD PTR totlen$[rsp]
  001f1	83 c0 02	 add	 eax, 2
  001f4	8b d0		 mov	 edx, eax
  001f6	48 8b 0d 00 00
	00 00		 mov	 rcx, QWORD PTR ?gs_pMMgr@@3PEAVCMemManager@@EA ; gs_pMMgr
  001fd	e8 00 00 00 00	 call	 ?newBuf@CMemManager@@QEAAPEADH@Z ; CMemManager::newBuf
  00202	48 89 44 24 30	 mov	 QWORD PTR pBuf$[rsp], rax

; 521  : 		_tcscpy(pBuf, headerBuf);

  00207	48 8d 84 24 00
	01 00 00	 lea	 rax, QWORD PTR headerBuf$[rsp]
  0020f	48 89 84 24 90
	00 00 00	 mov	 QWORD PTR tv136[rsp], rax
  00217	48 8b 44 24 30	 mov	 rax, QWORD PTR pBuf$[rsp]
  0021c	48 89 44 24 60	 mov	 QWORD PTR tv137[rsp], rax
  00221	48 8b 44 24 60	 mov	 rax, QWORD PTR tv137[rsp]
  00226	48 89 84 24 d8
	00 00 00	 mov	 QWORD PTR tv138[rsp], rax
$LN10@Log:
  0022e	48 8b 84 24 90
	00 00 00	 mov	 rax, QWORD PTR tv136[rsp]
  00236	0f b6 00	 movzx	 eax, BYTE PTR [rax]
  00239	88 44 24 21	 mov	 BYTE PTR tv139[rsp], al
  0023d	48 8b 44 24 60	 mov	 rax, QWORD PTR tv137[rsp]
  00242	0f b6 4c 24 21	 movzx	 ecx, BYTE PTR tv139[rsp]
  00247	88 08		 mov	 BYTE PTR [rax], cl
  00249	48 8b 84 24 90
	00 00 00	 mov	 rax, QWORD PTR tv136[rsp]
  00251	48 ff c0	 inc	 rax
  00254	48 89 84 24 90
	00 00 00	 mov	 QWORD PTR tv136[rsp], rax
  0025c	48 8b 44 24 60	 mov	 rax, QWORD PTR tv137[rsp]
  00261	48 ff c0	 inc	 rax
  00264	48 89 44 24 60	 mov	 QWORD PTR tv137[rsp], rax
  00269	80 7c 24 21 00	 cmp	 BYTE PTR tv139[rsp], 0
  0026e	75 be		 jne	 SHORT $LN10@Log

; 522  : 		_tcscpy(pBuf + headerLen, body);

  00270	48 8b 84 24 30
	21 00 00	 mov	 rax, QWORD PTR body$[rsp]
  00278	48 89 84 24 98
	00 00 00	 mov	 QWORD PTR tv144[rsp], rax
  00280	48 63 44 24 28	 movsxd	 rax, DWORD PTR headerLen$[rsp]
  00285	48 8b 4c 24 30	 mov	 rcx, QWORD PTR pBuf$[rsp]
  0028a	48 03 c8	 add	 rcx, rax
  0028d	48 8b c1	 mov	 rax, rcx
  00290	48 89 44 24 68	 mov	 QWORD PTR tv147[rsp], rax
  00295	48 8b 44 24 68	 mov	 rax, QWORD PTR tv147[rsp]
  0029a	48 89 84 24 e0
	00 00 00	 mov	 QWORD PTR tv148[rsp], rax
$LN11@Log:
  002a2	48 8b 84 24 98
	00 00 00	 mov	 rax, QWORD PTR tv144[rsp]
  002aa	0f b6 00	 movzx	 eax, BYTE PTR [rax]
  002ad	88 44 24 22	 mov	 BYTE PTR tv149[rsp], al
  002b1	48 8b 44 24 68	 mov	 rax, QWORD PTR tv147[rsp]
  002b6	0f b6 4c 24 22	 movzx	 ecx, BYTE PTR tv149[rsp]
  002bb	88 08		 mov	 BYTE PTR [rax], cl
  002bd	48 8b 84 24 98
	00 00 00	 mov	 rax, QWORD PTR tv144[rsp]
  002c5	48 ff c0	 inc	 rax
  002c8	48 89 84 24 98
	00 00 00	 mov	 QWORD PTR tv144[rsp], rax
  002d0	48 8b 44 24 68	 mov	 rax, QWORD PTR tv147[rsp]
  002d5	48 ff c0	 inc	 rax
  002d8	48 89 44 24 68	 mov	 QWORD PTR tv147[rsp], rax
  002dd	80 7c 24 22 00	 cmp	 BYTE PTR tv149[rsp], 0
  002e2	75 be		 jne	 SHORT $LN11@Log

; 523  : 		_tcscpy(pBuf + headerLen + bodyLen, tail);

  002e4	48 8b 84 24 40
	21 00 00	 mov	 rax, QWORD PTR tail$[rsp]
  002ec	48 89 84 24 a0
	00 00 00	 mov	 QWORD PTR tv154[rsp], rax
  002f4	48 63 44 24 28	 movsxd	 rax, DWORD PTR headerLen$[rsp]
  002f9	48 8b 4c 24 30	 mov	 rcx, QWORD PTR pBuf$[rsp]
  002fe	48 03 c8	 add	 rcx, rax
  00301	48 8b c1	 mov	 rax, rcx
  00304	48 63 4c 24 38	 movsxd	 rcx, DWORD PTR bodyLen$[rsp]
  00309	48 03 c1	 add	 rax, rcx
  0030c	48 89 44 24 70	 mov	 QWORD PTR tv159[rsp], rax
  00311	48 8b 44 24 70	 mov	 rax, QWORD PTR tv159[rsp]
  00316	48 89 84 24 e8
	00 00 00	 mov	 QWORD PTR tv160[rsp], rax
$LN12@Log:
  0031e	48 8b 84 24 a0
	00 00 00	 mov	 rax, QWORD PTR tv154[rsp]
  00326	0f b6 00	 movzx	 eax, BYTE PTR [rax]
  00329	88 44 24 23	 mov	 BYTE PTR tv161[rsp], al
  0032d	48 8b 44 24 70	 mov	 rax, QWORD PTR tv159[rsp]
  00332	0f b6 4c 24 23	 movzx	 ecx, BYTE PTR tv161[rsp]
  00337	88 08		 mov	 BYTE PTR [rax], cl
  00339	48 8b 84 24 a0
	00 00 00	 mov	 rax, QWORD PTR tv154[rsp]
  00341	48 ff c0	 inc	 rax
  00344	48 89 84 24 a0
	00 00 00	 mov	 QWORD PTR tv154[rsp], rax
  0034c	48 8b 44 24 70	 mov	 rax, QWORD PTR tv159[rsp]
  00351	48 ff c0	 inc	 rax
  00354	48 89 44 24 70	 mov	 QWORD PTR tv159[rsp], rax
  00359	80 7c 24 23 00	 cmp	 BYTE PTR tv161[rsp], 0
  0035e	75 be		 jne	 SHORT $LN12@Log

; 524  : 	}
; 525  : 	else {

  00360	e9 16 01 00 00	 jmp	 $LN6@Log
$LN5@Log:

; 526  : 		totlen = headerLen + bodyLen;

  00365	8b 44 24 38	 mov	 eax, DWORD PTR bodyLen$[rsp]
  00369	8b 4c 24 28	 mov	 ecx, DWORD PTR headerLen$[rsp]
  0036d	03 c8		 add	 ecx, eax
  0036f	8b c1		 mov	 eax, ecx
  00371	89 44 24 2c	 mov	 DWORD PTR totlen$[rsp], eax

; 527  : 		pBuf = (TCHAR *)gs_pMMgr->newBuf(LEN_TO_SIZE(totlen + 2));

  00375	8b 44 24 2c	 mov	 eax, DWORD PTR totlen$[rsp]
  00379	83 c0 02	 add	 eax, 2
  0037c	8b d0		 mov	 edx, eax
  0037e	48 8b 0d 00 00
	00 00		 mov	 rcx, QWORD PTR ?gs_pMMgr@@3PEAVCMemManager@@EA ; gs_pMMgr
  00385	e8 00 00 00 00	 call	 ?newBuf@CMemManager@@QEAAPEADH@Z ; CMemManager::newBuf
  0038a	48 89 44 24 30	 mov	 QWORD PTR pBuf$[rsp], rax

; 528  : 		_tcscpy(pBuf, headerBuf);

  0038f	48 8d 84 24 00
	01 00 00	 lea	 rax, QWORD PTR headerBuf$[rsp]
  00397	48 89 84 24 a8
	00 00 00	 mov	 QWORD PTR tv171[rsp], rax
  0039f	48 8b 44 24 30	 mov	 rax, QWORD PTR pBuf$[rsp]
  003a4	48 89 44 24 78	 mov	 QWORD PTR tv172[rsp], rax
  003a9	48 8b 44 24 78	 mov	 rax, QWORD PTR tv172[rsp]
  003ae	48 89 84 24 f0
	00 00 00	 mov	 QWORD PTR tv173[rsp], rax
$LN13@Log:
  003b6	48 8b 84 24 a8
	00 00 00	 mov	 rax, QWORD PTR tv171[rsp]
  003be	0f b6 00	 movzx	 eax, BYTE PTR [rax]
  003c1	88 44 24 24	 mov	 BYTE PTR tv174[rsp], al
  003c5	48 8b 44 24 78	 mov	 rax, QWORD PTR tv172[rsp]
  003ca	0f b6 4c 24 24	 movzx	 ecx, BYTE PTR tv174[rsp]
  003cf	88 08		 mov	 BYTE PTR [rax], cl
  003d1	48 8b 84 24 a8
	00 00 00	 mov	 rax, QWORD PTR tv171[rsp]
  003d9	48 ff c0	 inc	 rax
  003dc	48 89 84 24 a8
	00 00 00	 mov	 QWORD PTR tv171[rsp], rax
  003e4	48 8b 44 24 78	 mov	 rax, QWORD PTR tv172[rsp]
  003e9	48 ff c0	 inc	 rax
  003ec	48 89 44 24 78	 mov	 QWORD PTR tv172[rsp], rax
  003f1	80 7c 24 24 00	 cmp	 BYTE PTR tv174[rsp], 0
  003f6	75 be		 jne	 SHORT $LN13@Log

; 529  : 		_tcscpy(pBuf + headerLen, body);

  003f8	48 8b 84 24 30
	21 00 00	 mov	 rax, QWORD PTR body$[rsp]
  00400	48 89 84 24 b0
	00 00 00	 mov	 QWORD PTR tv179[rsp], rax
  00408	48 63 44 24 28	 movsxd	 rax, DWORD PTR headerLen$[rsp]
  0040d	48 8b 4c 24 30	 mov	 rcx, QWORD PTR pBuf$[rsp]
  00412	48 03 c8	 add	 rcx, rax
  00415	48 8b c1	 mov	 rax, rcx
  00418	48 89 84 24 80
	00 00 00	 mov	 QWORD PTR tv182[rsp], rax
  00420	48 8b 84 24 80
	00 00 00	 mov	 rax, QWORD PTR tv182[rsp]
  00428	48 89 84 24 f8
	00 00 00	 mov	 QWORD PTR tv183[rsp], rax
$LN14@Log:
  00430	48 8b 84 24 b0
	00 00 00	 mov	 rax, QWORD PTR tv179[rsp]
  00438	0f b6 00	 movzx	 eax, BYTE PTR [rax]
  0043b	88 44 24 25	 mov	 BYTE PTR tv184[rsp], al
  0043f	48 8b 84 24 80
	00 00 00	 mov	 rax, QWORD PTR tv182[rsp]
  00447	0f b6 4c 24 25	 movzx	 ecx, BYTE PTR tv184[rsp]
  0044c	88 08		 mov	 BYTE PTR [rax], cl
  0044e	48 8b 84 24 b0
	00 00 00	 mov	 rax, QWORD PTR tv179[rsp]
  00456	48 ff c0	 inc	 rax
  00459	48 89 84 24 b0
	00 00 00	 mov	 QWORD PTR tv179[rsp], rax
  00461	48 8b 84 24 80
	00 00 00	 mov	 rax, QWORD PTR tv182[rsp]
  00469	48 ff c0	 inc	 rax
  0046c	48 89 84 24 80
	00 00 00	 mov	 QWORD PTR tv182[rsp], rax
  00474	80 7c 24 25 00	 cmp	 BYTE PTR tv184[rsp], 0
  00479	75 b5		 jne	 SHORT $LN14@Log
$LN6@Log:

; 530  : 	}
; 531  : 	// calcuate end -------------------------
; 532  : 
; 533  : 	pBuf[totlen] = '\n';

  0047b	48 63 44 24 2c	 movsxd	 rax, DWORD PTR totlen$[rsp]
  00480	48 8b 4c 24 30	 mov	 rcx, QWORD PTR pBuf$[rsp]
  00485	c6 04 01 0a	 mov	 BYTE PTR [rcx+rax], 10

; 534  : 	pBuf[totlen+1] = 0;

  00489	8b 44 24 2c	 mov	 eax, DWORD PTR totlen$[rsp]
  0048d	ff c0		 inc	 eax
  0048f	48 98		 cdqe
  00491	48 8b 4c 24 30	 mov	 rcx, QWORD PTR pBuf$[rsp]
  00496	c6 04 01 00	 mov	 BYTE PTR [rcx+rax], 0

; 535  : 	if (bToFile) {

  0049a	0f b6 84 24 48
	21 00 00	 movzx	 eax, BYTE PTR bToFile$[rsp]
  004a2	85 c0		 test	 eax, eax
  004a4	74 14		 je	 SHORT $LN7@Log

; 536  : 		LogPrint(pBuf); return;

  004a6	48 8b 54 24 30	 mov	 rdx, QWORD PTR pBuf$[rsp]
  004ab	48 8b 8c 24 20
	21 00 00	 mov	 rcx, QWORD PTR this$[rsp]
  004b3	e8 00 00 00 00	 call	 ?LogPrint@CLogger@@QEAAXPEAD@Z ; CLogger::LogPrint
  004b8	eb 12		 jmp	 SHORT $LN1@Log
$LN7@Log:

; 537  : 	}
; 538  : 	putQueue(pBuf);

  004ba	48 8b 54 24 30	 mov	 rdx, QWORD PTR pBuf$[rsp]
  004bf	48 8b 8c 24 20
	21 00 00	 mov	 rcx, QWORD PTR this$[rsp]
  004c7	e8 00 00 00 00	 call	 ?putQueue@CLogger@@QEAAXPEAD@Z ; CLogger::putQueue
$LN1@Log:

; 539  : }

  004cc	48 8b 8c 24 00
	21 00 00	 mov	 rcx, QWORD PTR __$ArrayPad$[rsp]
  004d4	48 33 cc	 xor	 rcx, rsp
  004d7	e8 00 00 00 00	 call	 __security_check_cookie
  004dc	48 81 c4 18 21
	00 00		 add	 rsp, 8472		; 00002118H
  004e3	c3		 ret	 0
?Log@CLogger@@QEAAXHPEBD00_N@Z ENDP			; CLogger::Log
_TEXT	ENDS
; Function compile flags: /Odtp
; File e:\infinia-library-3.0\com\src\comlogger.cpp
;	COMDAT ?PutLogQueue@CLogger@@QEAAXHPEAD@Z
_TEXT	SEGMENT
tv87 = 32
tv129 = 33
nLen$ = 36
nLen2$ = 40
pBuf$ = 48
tv145 = 56
tv85 = 64
tv95 = 72
tv84 = 80
tv92 = 88
tv144 = 96
tv86 = 104
tv128 = 112
header$ = 128
__$ArrayPad$ = 640
this$ = 672
level$ = 680
pBody$ = 688
?PutLogQueue@CLogger@@QEAAXHPEAD@Z PROC			; CLogger::PutLogQueue, COMDAT

; 667  : {

$LN8:
  00000	4c 89 44 24 18	 mov	 QWORD PTR [rsp+24], r8
  00005	89 54 24 10	 mov	 DWORD PTR [rsp+16], edx
  00009	48 89 4c 24 08	 mov	 QWORD PTR [rsp+8], rcx
  0000e	48 81 ec 98 02
	00 00		 sub	 rsp, 664		; 00000298H
  00015	48 8b 05 00 00
	00 00		 mov	 rax, QWORD PTR __security_cookie
  0001c	48 33 c4	 xor	 rax, rsp
  0001f	48 89 84 24 80
	02 00 00	 mov	 QWORD PTR __$ArrayPad$[rsp], rax

; 668  : 	if (!isLogFlag(IS_LOG_ENABLE)) return;

  00027	ba 00 00 08 00	 mov	 edx, 524288		; 00080000H
  0002c	48 8b 8c 24 a0
	02 00 00	 mov	 rcx, QWORD PTR this$[rsp]
  00034	e8 00 00 00 00	 call	 ?isLogFlag@CLogger@@QEAA_NW4E_LOG_FLAG@@@Z ; CLogger::isLogFlag
  00039	0f b6 c0	 movzx	 eax, al
  0003c	85 c0		 test	 eax, eax
  0003e	75 05		 jne	 SHORT $LN2@PutLogQueu
  00040	e9 7c 01 00 00	 jmp	 $LN1@PutLogQueu
$LN2@PutLogQueu:

; 669  : 	if (level < m_nLogLevel) return;

  00045	48 8b 84 24 a0
	02 00 00	 mov	 rax, QWORD PTR this$[rsp]
  0004d	8b 40 78	 mov	 eax, DWORD PTR [rax+120]
  00050	39 84 24 a8 02
	00 00		 cmp	 DWORD PTR level$[rsp], eax
  00057	7d 05		 jge	 SHORT $LN3@PutLogQueu
  00059	e9 63 01 00 00	 jmp	 $LN1@PutLogQueu
$LN3@PutLogQueu:

; 670  : 	
; 671  : 	TCHAR	header[512];
; 672  : 
; 673  : 	int nLen2	= setHeader(header, level);

  0005e	44 8b 84 24 a8
	02 00 00	 mov	 r8d, DWORD PTR level$[rsp]
  00066	48 8d 94 24 80
	00 00 00	 lea	 rdx, QWORD PTR header$[rsp]
  0006e	48 8b 8c 24 a0
	02 00 00	 mov	 rcx, QWORD PTR this$[rsp]
  00076	e8 00 00 00 00	 call	 ?setHeader@CLogger@@QEAAHPEADH@Z ; CLogger::setHeader
  0007b	89 44 24 28	 mov	 DWORD PTR nLen2$[rsp], eax

; 674  : 	int nLen = (int)_tcslen(pBody) + nLen2;

  0007f	48 8b 84 24 b0
	02 00 00	 mov	 rax, QWORD PTR pBody$[rsp]
  00087	48 89 44 24 60	 mov	 QWORD PTR tv144[rsp], rax
  0008c	48 c7 44 24 38
	ff ff ff ff	 mov	 QWORD PTR tv145[rsp], -1
$LL7@PutLogQueu:
  00095	48 ff 44 24 38	 inc	 QWORD PTR tv145[rsp]
  0009a	48 8b 44 24 60	 mov	 rax, QWORD PTR tv144[rsp]
  0009f	48 8b 4c 24 38	 mov	 rcx, QWORD PTR tv145[rsp]
  000a4	80 3c 08 00	 cmp	 BYTE PTR [rax+rcx], 0
  000a8	75 eb		 jne	 SHORT $LL7@PutLogQueu
  000aa	48 8b 44 24 38	 mov	 rax, QWORD PTR tv145[rsp]
  000af	03 44 24 28	 add	 eax, DWORD PTR nLen2$[rsp]
  000b3	89 44 24 24	 mov	 DWORD PTR nLen$[rsp], eax

; 675  : 
; 676  : 	TCHAR *pBuf = (TCHAR *)gs_pMMgr->newBuf(LEN_TO_SIZE(nLen + 2));

  000b7	8b 44 24 24	 mov	 eax, DWORD PTR nLen$[rsp]
  000bb	83 c0 02	 add	 eax, 2
  000be	8b d0		 mov	 edx, eax
  000c0	48 8b 0d 00 00
	00 00		 mov	 rcx, QWORD PTR ?gs_pMMgr@@3PEAVCMemManager@@EA ; gs_pMMgr
  000c7	e8 00 00 00 00	 call	 ?newBuf@CMemManager@@QEAAPEADH@Z ; CMemManager::newBuf
  000cc	48 89 44 24 30	 mov	 QWORD PTR pBuf$[rsp], rax

; 677  : 	_tcscpy(pBuf, header);

  000d1	48 8d 84 24 80
	00 00 00	 lea	 rax, QWORD PTR header$[rsp]
  000d9	48 89 44 24 50	 mov	 QWORD PTR tv84[rsp], rax
  000de	48 8b 44 24 30	 mov	 rax, QWORD PTR pBuf$[rsp]
  000e3	48 89 44 24 40	 mov	 QWORD PTR tv85[rsp], rax
  000e8	48 8b 44 24 40	 mov	 rax, QWORD PTR tv85[rsp]
  000ed	48 89 44 24 68	 mov	 QWORD PTR tv86[rsp], rax
$LN5@PutLogQueu:
  000f2	48 8b 44 24 50	 mov	 rax, QWORD PTR tv84[rsp]
  000f7	0f b6 00	 movzx	 eax, BYTE PTR [rax]
  000fa	88 44 24 20	 mov	 BYTE PTR tv87[rsp], al
  000fe	48 8b 44 24 40	 mov	 rax, QWORD PTR tv85[rsp]
  00103	0f b6 4c 24 20	 movzx	 ecx, BYTE PTR tv87[rsp]
  00108	88 08		 mov	 BYTE PTR [rax], cl
  0010a	48 8b 44 24 50	 mov	 rax, QWORD PTR tv84[rsp]
  0010f	48 ff c0	 inc	 rax
  00112	48 89 44 24 50	 mov	 QWORD PTR tv84[rsp], rax
  00117	48 8b 44 24 40	 mov	 rax, QWORD PTR tv85[rsp]
  0011c	48 ff c0	 inc	 rax
  0011f	48 89 44 24 40	 mov	 QWORD PTR tv85[rsp], rax
  00124	80 7c 24 20 00	 cmp	 BYTE PTR tv87[rsp], 0
  00129	75 c7		 jne	 SHORT $LN5@PutLogQueu

; 678  : 	_tcscpy(pBuf + nLen2, pBody);

  0012b	48 8b 84 24 b0
	02 00 00	 mov	 rax, QWORD PTR pBody$[rsp]
  00133	48 89 44 24 58	 mov	 QWORD PTR tv92[rsp], rax
  00138	48 63 44 24 28	 movsxd	 rax, DWORD PTR nLen2$[rsp]
  0013d	48 8b 4c 24 30	 mov	 rcx, QWORD PTR pBuf$[rsp]
  00142	48 03 c8	 add	 rcx, rax
  00145	48 8b c1	 mov	 rax, rcx
  00148	48 89 44 24 48	 mov	 QWORD PTR tv95[rsp], rax
  0014d	48 8b 44 24 48	 mov	 rax, QWORD PTR tv95[rsp]
  00152	48 89 44 24 70	 mov	 QWORD PTR tv128[rsp], rax
$LN6@PutLogQueu:
  00157	48 8b 44 24 58	 mov	 rax, QWORD PTR tv92[rsp]
  0015c	0f b6 00	 movzx	 eax, BYTE PTR [rax]
  0015f	88 44 24 21	 mov	 BYTE PTR tv129[rsp], al
  00163	48 8b 44 24 48	 mov	 rax, QWORD PTR tv95[rsp]
  00168	0f b6 4c 24 21	 movzx	 ecx, BYTE PTR tv129[rsp]
  0016d	88 08		 mov	 BYTE PTR [rax], cl
  0016f	48 8b 44 24 58	 mov	 rax, QWORD PTR tv92[rsp]
  00174	48 ff c0	 inc	 rax
  00177	48 89 44 24 58	 mov	 QWORD PTR tv92[rsp], rax
  0017c	48 8b 44 24 48	 mov	 rax, QWORD PTR tv95[rsp]
  00181	48 ff c0	 inc	 rax
  00184	48 89 44 24 48	 mov	 QWORD PTR tv95[rsp], rax
  00189	80 7c 24 21 00	 cmp	 BYTE PTR tv129[rsp], 0
  0018e	75 c7		 jne	 SHORT $LN6@PutLogQueu

; 679  : 	pBuf[nLen] = '\n';

  00190	48 63 44 24 24	 movsxd	 rax, DWORD PTR nLen$[rsp]
  00195	48 8b 4c 24 30	 mov	 rcx, QWORD PTR pBuf$[rsp]
  0019a	c6 04 01 0a	 mov	 BYTE PTR [rcx+rax], 10

; 680  : 	pBuf[nLen + 1] = 0;

  0019e	8b 44 24 24	 mov	 eax, DWORD PTR nLen$[rsp]
  001a2	ff c0		 inc	 eax
  001a4	48 98		 cdqe
  001a6	48 8b 4c 24 30	 mov	 rcx, QWORD PTR pBuf$[rsp]
  001ab	c6 04 01 00	 mov	 BYTE PTR [rcx+rax], 0

; 681  : 	putQueue(pBuf);

  001af	48 8b 54 24 30	 mov	 rdx, QWORD PTR pBuf$[rsp]
  001b4	48 8b 8c 24 a0
	02 00 00	 mov	 rcx, QWORD PTR this$[rsp]
  001bc	e8 00 00 00 00	 call	 ?putQueue@CLogger@@QEAAXPEAD@Z ; CLogger::putQueue
$LN1@PutLogQueu:

; 682  : }

  001c1	48 8b 8c 24 80
	02 00 00	 mov	 rcx, QWORD PTR __$ArrayPad$[rsp]
  001c9	48 33 cc	 xor	 rcx, rsp
  001cc	e8 00 00 00 00	 call	 __security_check_cookie
  001d1	48 81 c4 98 02
	00 00		 add	 rsp, 664		; 00000298H
  001d8	c3		 ret	 0
?PutLogQueue@CLogger@@QEAAXHPEAD@Z ENDP			; CLogger::PutLogQueue
_TEXT	ENDS
; Function compile flags: /Odtp
; File e:\infinia-library-3.0\com\src\comlogger.cpp
;	COMDAT ?PutLogQueue@CLogger@@QEAAXHPEBDZZ
_TEXT	SEGMENT
tv128 = 32
nLen$ = 36
tv94 = 40
pBuf$ = 48
tv93 = 56
tv95 = 64
ap$ = 72
header$ = 80
msgBuf$ = 592
__$ArrayPad$ = 8784
this$ = 8816
level$ = 8824
_szFormat$ = 8832
?PutLogQueue@CLogger@@QEAAXHPEBDZZ PROC			; CLogger::PutLogQueue, COMDAT

; 644  : {

$LN6:
  00000	4c 89 44 24 18	 mov	 QWORD PTR [rsp+24], r8
  00005	89 54 24 10	 mov	 DWORD PTR [rsp+16], edx
  00009	48 89 4c 24 08	 mov	 QWORD PTR [rsp+8], rcx
  0000e	4c 89 4c 24 20	 mov	 QWORD PTR [rsp+32], r9
  00013	b8 68 22 00 00	 mov	 eax, 8808		; 00002268H
  00018	e8 00 00 00 00	 call	 __chkstk
  0001d	48 2b e0	 sub	 rsp, rax
  00020	48 8b 05 00 00
	00 00		 mov	 rax, QWORD PTR __security_cookie
  00027	48 33 c4	 xor	 rax, rsp
  0002a	48 89 84 24 50
	22 00 00	 mov	 QWORD PTR __$ArrayPad$[rsp], rax

; 645  : 	if (!isLogFlag(IS_LOG_ENABLE)) return;

  00032	ba 00 00 08 00	 mov	 edx, 524288		; 00080000H
  00037	48 8b 8c 24 70
	22 00 00	 mov	 rcx, QWORD PTR this$[rsp]
  0003f	e8 00 00 00 00	 call	 ?isLogFlag@CLogger@@QEAA_NW4E_LOG_FLAG@@@Z ; CLogger::isLogFlag
  00044	0f b6 c0	 movzx	 eax, al
  00047	85 c0		 test	 eax, eax
  00049	75 05		 jne	 SHORT $LN2@PutLogQueu
  0004b	e9 38 01 00 00	 jmp	 $LN1@PutLogQueu
$LN2@PutLogQueu:

; 646  : 	if (level < m_nLogLevel) return;

  00050	48 8b 84 24 70
	22 00 00	 mov	 rax, QWORD PTR this$[rsp]
  00058	8b 40 78	 mov	 eax, DWORD PTR [rax+120]
  0005b	39 84 24 78 22
	00 00		 cmp	 DWORD PTR level$[rsp], eax
  00062	7d 05		 jge	 SHORT $LN3@PutLogQueu
  00064	e9 1f 01 00 00	 jmp	 $LN1@PutLogQueu
$LN3@PutLogQueu:

; 647  : 
; 648  : 	int nLen;
; 649  : 
; 650  : 	TCHAR	msgBuf[MAX_LOGBUF_LEN];
; 651  : 	TCHAR	header[512];
; 652  : 	va_list	ap;
; 653  : 
; 654  : 	nLen = setHeader(header, level);

  00069	44 8b 84 24 78
	22 00 00	 mov	 r8d, DWORD PTR level$[rsp]
  00071	48 8d 54 24 50	 lea	 rdx, QWORD PTR header$[rsp]
  00076	48 8b 8c 24 70
	22 00 00	 mov	 rcx, QWORD PTR this$[rsp]
  0007e	e8 00 00 00 00	 call	 ?setHeader@CLogger@@QEAAHPEADH@Z ; CLogger::setHeader
  00083	89 44 24 24	 mov	 DWORD PTR nLen$[rsp], eax

; 655  : 	sprintf(header + nLen, " %s ", _szFormat);

  00087	48 63 44 24 24	 movsxd	 rax, DWORD PTR nLen$[rsp]
  0008c	48 8d 44 04 50	 lea	 rax, QWORD PTR header$[rsp+rax]
  00091	4c 8b 84 24 80
	22 00 00	 mov	 r8, QWORD PTR _szFormat$[rsp]
  00099	48 8d 15 00 00
	00 00		 lea	 rdx, OFFSET FLAT:$SG86767
  000a0	48 8b c8	 mov	 rcx, rax
  000a3	e8 00 00 00 00	 call	 sprintf

; 656  : 	va_start(ap, _szFormat);

  000a8	e8 00 00 00 00	 call	 ??$__vcrt_va_start_verify_argument_type@PEBD@@YAXXZ ; __vcrt_va_start_verify_argument_type<char const * __ptr64>
  000ad	48 8d 84 24 88
	22 00 00	 lea	 rax, QWORD PTR _szFormat$[rsp+8]
  000b5	48 89 44 24 48	 mov	 QWORD PTR ap$[rsp], rax

; 657  : 	nLen = _vsntprintf(msgBuf, MAX_LOGBUF_LEN - 1, header, ap);

  000ba	4c 8b 4c 24 48	 mov	 r9, QWORD PTR ap$[rsp]
  000bf	4c 8d 44 24 50	 lea	 r8, QWORD PTR header$[rsp]
  000c4	ba ff 1f 00 00	 mov	 edx, 8191		; 00001fffH
  000c9	48 8d 8c 24 50
	02 00 00	 lea	 rcx, QWORD PTR msgBuf$[rsp]
  000d1	e8 00 00 00 00	 call	 _vsnprintf
  000d6	89 44 24 24	 mov	 DWORD PTR nLen$[rsp], eax

; 658  : 	va_end(ap);

  000da	48 c7 44 24 48
	00 00 00 00	 mov	 QWORD PTR ap$[rsp], 0

; 659  : 	TCHAR *pBuf = (TCHAR *)gs_pMMgr->newBuf(LEN_TO_SIZE(nLen+2));

  000e3	8b 44 24 24	 mov	 eax, DWORD PTR nLen$[rsp]
  000e7	83 c0 02	 add	 eax, 2
  000ea	8b d0		 mov	 edx, eax
  000ec	48 8b 0d 00 00
	00 00		 mov	 rcx, QWORD PTR ?gs_pMMgr@@3PEAVCMemManager@@EA ; gs_pMMgr
  000f3	e8 00 00 00 00	 call	 ?newBuf@CMemManager@@QEAAPEADH@Z ; CMemManager::newBuf
  000f8	48 89 44 24 30	 mov	 QWORD PTR pBuf$[rsp], rax

; 660  : 	_tcscpy(pBuf, msgBuf);

  000fd	48 8d 84 24 50
	02 00 00	 lea	 rax, QWORD PTR msgBuf$[rsp]
  00105	48 89 44 24 38	 mov	 QWORD PTR tv93[rsp], rax
  0010a	48 8b 44 24 30	 mov	 rax, QWORD PTR pBuf$[rsp]
  0010f	48 89 44 24 28	 mov	 QWORD PTR tv94[rsp], rax
  00114	48 8b 44 24 28	 mov	 rax, QWORD PTR tv94[rsp]
  00119	48 89 44 24 40	 mov	 QWORD PTR tv95[rsp], rax
$LN5@PutLogQueu:
  0011e	48 8b 44 24 38	 mov	 rax, QWORD PTR tv93[rsp]
  00123	0f b6 00	 movzx	 eax, BYTE PTR [rax]
  00126	88 44 24 20	 mov	 BYTE PTR tv128[rsp], al
  0012a	48 8b 44 24 28	 mov	 rax, QWORD PTR tv94[rsp]
  0012f	0f b6 4c 24 20	 movzx	 ecx, BYTE PTR tv128[rsp]
  00134	88 08		 mov	 BYTE PTR [rax], cl
  00136	48 8b 44 24 38	 mov	 rax, QWORD PTR tv93[rsp]
  0013b	48 ff c0	 inc	 rax
  0013e	48 89 44 24 38	 mov	 QWORD PTR tv93[rsp], rax
  00143	48 8b 44 24 28	 mov	 rax, QWORD PTR tv94[rsp]
  00148	48 ff c0	 inc	 rax
  0014b	48 89 44 24 28	 mov	 QWORD PTR tv94[rsp], rax
  00150	80 7c 24 20 00	 cmp	 BYTE PTR tv128[rsp], 0
  00155	75 c7		 jne	 SHORT $LN5@PutLogQueu

; 661  : 	pBuf[nLen] = '\n';

  00157	48 63 44 24 24	 movsxd	 rax, DWORD PTR nLen$[rsp]
  0015c	48 8b 4c 24 30	 mov	 rcx, QWORD PTR pBuf$[rsp]
  00161	c6 04 01 0a	 mov	 BYTE PTR [rcx+rax], 10

; 662  : 	pBuf[nLen + 1] = 0;

  00165	8b 44 24 24	 mov	 eax, DWORD PTR nLen$[rsp]
  00169	ff c0		 inc	 eax
  0016b	48 98		 cdqe
  0016d	48 8b 4c 24 30	 mov	 rcx, QWORD PTR pBuf$[rsp]
  00172	c6 04 01 00	 mov	 BYTE PTR [rcx+rax], 0

; 663  : 	putQueue(pBuf);

  00176	48 8b 54 24 30	 mov	 rdx, QWORD PTR pBuf$[rsp]
  0017b	48 8b 8c 24 70
	22 00 00	 mov	 rcx, QWORD PTR this$[rsp]
  00183	e8 00 00 00 00	 call	 ?putQueue@CLogger@@QEAAXPEAD@Z ; CLogger::putQueue
$LN1@PutLogQueu:

; 664  : }

  00188	48 8b 8c 24 50
	22 00 00	 mov	 rcx, QWORD PTR __$ArrayPad$[rsp]
  00190	48 33 cc	 xor	 rcx, rsp
  00193	e8 00 00 00 00	 call	 __security_check_cookie
  00198	48 81 c4 68 22
	00 00		 add	 rsp, 8808		; 00002268H
  0019f	c3		 ret	 0
?PutLogQueue@CLogger@@QEAAXHPEBDZZ ENDP			; CLogger::PutLogQueue
_TEXT	ENDS
; Function compile flags: /Odtp
; File e:\infinia-library-3.0\com\src\comlogger.cpp
;	COMDAT ?setHeader@CLogger@@QEAAHPEADH@Z
_TEXT	SEGMENT
nLen$ = 32
$T1 = 36
$T2 = 40
cDateTime$ = 48
__$ArrayPad$ = 160
this$ = 192
pHeader$ = 200
nLevel$ = 208
?setHeader@CLogger@@QEAAHPEADH@Z PROC			; CLogger::setHeader, COMDAT

; 414  : {

$LN6:
  00000	44 89 44 24 18	 mov	 DWORD PTR [rsp+24], r8d
  00005	48 89 54 24 10	 mov	 QWORD PTR [rsp+16], rdx
  0000a	48 89 4c 24 08	 mov	 QWORD PTR [rsp+8], rcx
  0000f	48 81 ec b8 00
	00 00		 sub	 rsp, 184		; 000000b8H
  00016	48 c7 44 24 28
	fe ff ff ff	 mov	 QWORD PTR $T2[rsp], -2
  0001f	48 8b 05 00 00
	00 00		 mov	 rax, QWORD PTR __security_cookie
  00026	48 33 c4	 xor	 rax, rsp
  00029	48 89 84 24 a0
	00 00 00	 mov	 QWORD PTR __$ArrayPad$[rsp], rax

; 415  : 	CDateTime	cDateTime(m_pDTE->nLastType, m_pDTE->nTZType);

  00031	48 8b 84 24 c0
	00 00 00	 mov	 rax, QWORD PTR this$[rsp]
  00039	48 8b 80 80 00
	00 00		 mov	 rax, QWORD PTR [rax+128]
  00040	48 8b 8c 24 c0
	00 00 00	 mov	 rcx, QWORD PTR this$[rsp]
  00048	48 8b 89 80 00
	00 00		 mov	 rcx, QWORD PTR [rcx+128]
  0004f	44 8b 40 08	 mov	 r8d, DWORD PTR [rax+8]
  00053	8b 51 04	 mov	 edx, DWORD PTR [rcx+4]
  00056	48 8d 4c 24 30	 lea	 rcx, QWORD PTR cDateTime$[rsp]
  0005b	e8 00 00 00 00	 call	 ??0CDateTime@@QEAA@W4DT_TYPE@@W4TZ_TYPE@@@Z ; CDateTime::CDateTime
  00060	90		 npad	 1

; 416  : 	int nLen = 0;

  00061	c7 44 24 20 00
	00 00 00	 mov	 DWORD PTR nLen$[rsp], 0

; 417  : 	nLen = cDateTime.setString(pHeader, m_szHeaderFormat, (DT_FORMAT)m_nDateTimeFormat);

  00069	48 8b 84 24 c0
	00 00 00	 mov	 rax, QWORD PTR this$[rsp]
  00071	48 05 c8 00 00
	00		 add	 rax, 200		; 000000c8H
  00077	48 8b 8c 24 c0
	00 00 00	 mov	 rcx, QWORD PTR this$[rsp]
  0007f	44 8b 49 7c	 mov	 r9d, DWORD PTR [rcx+124]
  00083	4c 8b c0	 mov	 r8, rax
  00086	48 8b 94 24 c8
	00 00 00	 mov	 rdx, QWORD PTR pHeader$[rsp]
  0008e	48 8d 4c 24 30	 lea	 rcx, QWORD PTR cDateTime$[rsp]
  00093	e8 00 00 00 00	 call	 ?setString@CDateTime@@QEAAHPEAD0W4DT_FORMAT@@@Z ; CDateTime::setString
  00098	89 44 24 20	 mov	 DWORD PTR nLen$[rsp], eax

; 418  : 	if (m_pDTE->nTZType) {

  0009c	48 8b 84 24 c0
	00 00 00	 mov	 rax, QWORD PTR this$[rsp]
  000a4	48 8b 80 80 00
	00 00		 mov	 rax, QWORD PTR [rax+128]
  000ab	83 78 08 00	 cmp	 DWORD PTR [rax+8], 0
  000af	74 38		 je	 SHORT $LN2@setHeader

; 419  : 		nLen += _stprintf(pHeader + nLen, _T("%s"), cDateTime.TimezoneString());

  000b1	48 8d 4c 24 30	 lea	 rcx, QWORD PTR cDateTime$[rsp]
  000b6	e8 00 00 00 00	 call	 ?TimezoneString@CDateTime@@QEAAPEBDXZ ; CDateTime::TimezoneString
  000bb	48 63 4c 24 20	 movsxd	 rcx, DWORD PTR nLen$[rsp]
  000c0	48 8b 94 24 c8
	00 00 00	 mov	 rdx, QWORD PTR pHeader$[rsp]
  000c8	48 03 d1	 add	 rdx, rcx
  000cb	48 8b ca	 mov	 rcx, rdx
  000ce	4c 8b c0	 mov	 r8, rax
  000d1	48 8d 15 00 00
	00 00		 lea	 rdx, OFFSET FLAT:$SG86623
  000d8	e8 00 00 00 00	 call	 sprintf
  000dd	8b 4c 24 20	 mov	 ecx, DWORD PTR nLen$[rsp]
  000e1	03 c8		 add	 ecx, eax
  000e3	8b c1		 mov	 eax, ecx
  000e5	89 44 24 20	 mov	 DWORD PTR nLen$[rsp], eax
$LN2@setHeader:

; 420  : 	}
; 421  : 	if (m_nLogFlag & IS_PRINT_LEVEL)

  000e9	48 8b 84 24 c0
	00 00 00	 mov	 rax, QWORD PTR this$[rsp]
  000f1	8b 80 b4 00 00
	00		 mov	 eax, DWORD PTR [rax+180]
  000f7	25 00 40 00 00	 and	 eax, 16384		; 00004000H
  000fc	85 c0		 test	 eax, eax
  000fe	74 47		 je	 SHORT $LN3@setHeader

; 422  : 	{
; 423  : 		nLen += _stprintf(pHeader + nLen,_T(" %s"), gs_fmtStr[nLevel]);

  00100	48 63 84 24 d0
	00 00 00	 movsxd	 rax, DWORD PTR nLevel$[rsp]
  00108	48 6b c0 0c	 imul	 rax, rax, 12
  0010c	48 8d 0d 00 00
	00 00		 lea	 rcx, OFFSET FLAT:?gs_fmtStr@@3QAY0M@$$CBDA
  00113	48 03 c8	 add	 rcx, rax
  00116	48 8b c1	 mov	 rax, rcx
  00119	48 63 4c 24 20	 movsxd	 rcx, DWORD PTR nLen$[rsp]
  0011e	48 8b 94 24 c8
	00 00 00	 mov	 rdx, QWORD PTR pHeader$[rsp]
  00126	48 03 d1	 add	 rdx, rcx
  00129	48 8b ca	 mov	 rcx, rdx
  0012c	4c 8b c0	 mov	 r8, rax
  0012f	48 8d 15 00 00
	00 00		 lea	 rdx, OFFSET FLAT:$SG86625
  00136	e8 00 00 00 00	 call	 sprintf
  0013b	8b 4c 24 20	 mov	 ecx, DWORD PTR nLen$[rsp]
  0013f	03 c8		 add	 ecx, eax
  00141	8b c1		 mov	 eax, ecx
  00143	89 44 24 20	 mov	 DWORD PTR nLen$[rsp], eax
$LN3@setHeader:

; 424  : 	}
; 425  : 	return nLen;

  00147	8b 44 24 20	 mov	 eax, DWORD PTR nLen$[rsp]
  0014b	89 44 24 24	 mov	 DWORD PTR $T1[rsp], eax
  0014f	48 8d 4c 24 30	 lea	 rcx, QWORD PTR cDateTime$[rsp]
  00154	e8 00 00 00 00	 call	 ??1CDateTime@@QEAA@XZ	; CDateTime::~CDateTime
  00159	8b 44 24 24	 mov	 eax, DWORD PTR $T1[rsp]

; 426  : }

  0015d	48 8b 8c 24 a0
	00 00 00	 mov	 rcx, QWORD PTR __$ArrayPad$[rsp]
  00165	48 33 cc	 xor	 rcx, rsp
  00168	e8 00 00 00 00	 call	 __security_check_cookie
  0016d	48 81 c4 b8 00
	00 00		 add	 rsp, 184		; 000000b8H
  00174	c3		 ret	 0
?setHeader@CLogger@@QEAAHPEADH@Z ENDP			; CLogger::setHeader
_TEXT	ENDS
;	COMDAT text$x
text$x	SEGMENT
nLen$ = 32
$T1 = 36
$T2 = 40
cDateTime$ = 48
__$ArrayPad$ = 160
this$ = 192
pHeader$ = 200
nLevel$ = 208
?dtor$0@?0??setHeader@CLogger@@QEAAHPEADH@Z@4HA PROC	; `CLogger::setHeader'::`1'::dtor$0
  00000	40 55		 push	 rbp
  00002	48 83 ec 20	 sub	 rsp, 32			; 00000020H
  00006	48 8b ea	 mov	 rbp, rdx
  00009	48 8d 4d 30	 lea	 rcx, QWORD PTR cDateTime$[rbp]
  0000d	e8 00 00 00 00	 call	 ??1CDateTime@@QEAA@XZ	; CDateTime::~CDateTime
  00012	48 83 c4 20	 add	 rsp, 32			; 00000020H
  00016	5d		 pop	 rbp
  00017	c3		 ret	 0
?dtor$0@?0??setHeader@CLogger@@QEAAHPEADH@Z@4HA ENDP	; `CLogger::setHeader'::`1'::dtor$0
text$x	ENDS
; Function compile flags: /Odtp
;	COMDAT text$x
text$x	SEGMENT
nLen$ = 32
$T1 = 36
$T2 = 40
cDateTime$ = 48
__$ArrayPad$ = 160
this$ = 192
pHeader$ = 200
nLevel$ = 208
?dtor$0@?0??setHeader@CLogger@@QEAAHPEADH@Z@4HA PROC	; `CLogger::setHeader'::`1'::dtor$0
  00000	40 55		 push	 rbp
  00002	48 83 ec 20	 sub	 rsp, 32			; 00000020H
  00006	48 8b ea	 mov	 rbp, rdx
  00009	48 8d 4d 30	 lea	 rcx, QWORD PTR cDateTime$[rbp]
  0000d	e8 00 00 00 00	 call	 ??1CDateTime@@QEAA@XZ	; CDateTime::~CDateTime
  00012	48 83 c4 20	 add	 rsp, 32			; 00000020H
  00016	5d		 pop	 rbp
  00017	c3		 ret	 0
?dtor$0@?0??setHeader@CLogger@@QEAAHPEADH@Z@4HA ENDP	; `CLogger::setHeader'::`1'::dtor$0
text$x	ENDS
; Function compile flags: /Odtp
; File e:\infinia-library-3.0\com\include\comlogger.h
;	COMDAT ?isLogFlag@CLogger@@QEAA_NW4E_LOG_FLAG@@@Z
_TEXT	SEGMENT
tv67 = 0
this$ = 32
nFlag$ = 40
?isLogFlag@CLogger@@QEAA_NW4E_LOG_FLAG@@@Z PROC		; CLogger::isLogFlag, COMDAT

; 185  : 	inline bool isLogFlag(E_LOG_FLAG nFlag) { return (m_nLogFlag & nFlag)?true:false; }

$LN5:
  00000	89 54 24 10	 mov	 DWORD PTR [rsp+16], edx
  00004	48 89 4c 24 08	 mov	 QWORD PTR [rsp+8], rcx
  00009	48 83 ec 18	 sub	 rsp, 24
  0000d	48 8b 44 24 20	 mov	 rax, QWORD PTR this$[rsp]
  00012	8b 4c 24 28	 mov	 ecx, DWORD PTR nFlag$[rsp]
  00016	8b 80 b4 00 00
	00		 mov	 eax, DWORD PTR [rax+180]
  0001c	23 c1		 and	 eax, ecx
  0001e	85 c0		 test	 eax, eax
  00020	74 06		 je	 SHORT $LN3@isLogFlag
  00022	c6 04 24 01	 mov	 BYTE PTR tv67[rsp], 1
  00026	eb 04		 jmp	 SHORT $LN4@isLogFlag
$LN3@isLogFlag:
  00028	c6 04 24 00	 mov	 BYTE PTR tv67[rsp], 0
$LN4@isLogFlag:
  0002c	0f b6 04 24	 movzx	 eax, BYTE PTR tv67[rsp]
  00030	48 83 c4 18	 add	 rsp, 24
  00034	c3		 ret	 0
?isLogFlag@CLogger@@QEAA_NW4E_LOG_FLAG@@@Z ENDP		; CLogger::isLogFlag
_TEXT	ENDS
; Function compile flags: /Odtp
; File e:\infinia-library-3.0\com\include\comlogger.h
;	COMDAT ?clearLogFlag@CLogger@@QEAAXW4E_LOG_FLAG@@@Z
_TEXT	SEGMENT
this$ = 8
nFlag$ = 16
?clearLogFlag@CLogger@@QEAAXW4E_LOG_FLAG@@@Z PROC	; CLogger::clearLogFlag, COMDAT

; 184  : 	inline void clearLogFlag(E_LOG_FLAG nFlag) { m_nLogFlag &= ~nFlag; }

  00000	89 54 24 10	 mov	 DWORD PTR [rsp+16], edx
  00004	48 89 4c 24 08	 mov	 QWORD PTR [rsp+8], rcx
  00009	8b 44 24 10	 mov	 eax, DWORD PTR nFlag$[rsp]
  0000d	f7 d0		 not	 eax
  0000f	48 8b 4c 24 08	 mov	 rcx, QWORD PTR this$[rsp]
  00014	8b 89 b4 00 00
	00		 mov	 ecx, DWORD PTR [rcx+180]
  0001a	23 c8		 and	 ecx, eax
  0001c	8b c1		 mov	 eax, ecx
  0001e	48 8b 4c 24 08	 mov	 rcx, QWORD PTR this$[rsp]
  00023	89 81 b4 00 00
	00		 mov	 DWORD PTR [rcx+180], eax
  00029	c3		 ret	 0
?clearLogFlag@CLogger@@QEAAXW4E_LOG_FLAG@@@Z ENDP	; CLogger::clearLogFlag
_TEXT	ENDS
; Function compile flags: /Odtp
; File e:\infinia-library-3.0\com\include\comlogger.h
;	COMDAT ?setLogFlag@CLogger@@QEAAXW4E_LOG_FLAG@@@Z
_TEXT	SEGMENT
this$ = 8
nFlag$ = 16
?setLogFlag@CLogger@@QEAAXW4E_LOG_FLAG@@@Z PROC		; CLogger::setLogFlag, COMDAT

; 183  : 	inline void setLogFlag(E_LOG_FLAG nFlag) { m_nLogFlag |= nFlag; }

  00000	89 54 24 10	 mov	 DWORD PTR [rsp+16], edx
  00004	48 89 4c 24 08	 mov	 QWORD PTR [rsp+8], rcx
  00009	48 8b 44 24 08	 mov	 rax, QWORD PTR this$[rsp]
  0000e	8b 4c 24 10	 mov	 ecx, DWORD PTR nFlag$[rsp]
  00012	8b 80 b4 00 00
	00		 mov	 eax, DWORD PTR [rax+180]
  00018	0b c1		 or	 eax, ecx
  0001a	48 8b 4c 24 08	 mov	 rcx, QWORD PTR this$[rsp]
  0001f	89 81 b4 00 00
	00		 mov	 DWORD PTR [rcx+180], eax
  00025	c3		 ret	 0
?setLogFlag@CLogger@@QEAAXW4E_LOG_FLAG@@@Z ENDP		; CLogger::setLogFlag
_TEXT	ENDS
; Function compile flags: /Odtp
; File e:\infinia-library-3.0\com\src\comlogger.cpp
;	COMDAT ?OpenLogger@CLogger@@QEAAXXZ
_TEXT	SEGMENT
szBuf$ = 64
__$ArrayPad$ = 192
this$ = 224
?OpenLogger@CLogger@@QEAAXXZ PROC			; CLogger::OpenLogger, COMDAT

; 351  : {

$LN8:
  00000	48 89 4c 24 08	 mov	 QWORD PTR [rsp+8], rcx
  00005	48 81 ec d8 00
	00 00		 sub	 rsp, 216		; 000000d8H
  0000c	48 8b 05 00 00
	00 00		 mov	 rax, QWORD PTR __security_cookie
  00013	48 33 c4	 xor	 rax, rsp
  00016	48 89 84 24 c0
	00 00 00	 mov	 QWORD PTR __$ArrayPad$[rsp], rax

; 352  : 	TCHAR szBuf[128];
; 353  : 	if (m_nLogFlag & LOG_FLAG_DAILY) {

  0001e	48 8b 84 24 e0
	00 00 00	 mov	 rax, QWORD PTR this$[rsp]
  00026	8b 80 b4 00 00
	00		 mov	 eax, DWORD PTR [rax+180]
  0002c	25 00 02 00 00	 and	 eax, 512		; 00000200H
  00031	85 c0		 test	 eax, eax
  00033	74 53		 je	 SHORT $LN2@OpenLogger

; 354  : 		_stprintf(szBuf, _T("%s%d_%s.%s"), m_pLogDir, gs_today_time.date, m_pLogName, m_szFileExtension);

  00035	48 8b 84 24 e0
	00 00 00	 mov	 rax, QWORD PTR this$[rsp]
  0003d	48 05 a8 00 00
	00		 add	 rax, 168		; 000000a8H
  00043	48 89 44 24 28	 mov	 QWORD PTR [rsp+40], rax
  00048	48 8b 84 24 e0
	00 00 00	 mov	 rax, QWORD PTR this$[rsp]
  00050	48 8b 80 a0 00
	00 00		 mov	 rax, QWORD PTR [rax+160]
  00057	48 89 44 24 20	 mov	 QWORD PTR [rsp+32], rax
  0005c	44 8b 0d 18 00
	00 00		 mov	 r9d, DWORD PTR ?gs_today_time@@3USTTodayTime@@A+24
  00063	48 8b 84 24 e0
	00 00 00	 mov	 rax, QWORD PTR this$[rsp]
  0006b	4c 8b 80 98 00
	00 00		 mov	 r8, QWORD PTR [rax+152]
  00072	48 8d 15 00 00
	00 00		 lea	 rdx, OFFSET FLAT:$SG86565
  00079	48 8d 4c 24 40	 lea	 rcx, QWORD PTR szBuf$[rsp]
  0007e	e8 00 00 00 00	 call	 sprintf
  00083	e9 d2 00 00 00	 jmp	 $LN3@OpenLogger
$LN2@OpenLogger:

; 355  : 	}
; 356  : 	else if (m_nLogFlag & LOG_FLAG_HOURLY) {

  00088	48 8b 84 24 e0
	00 00 00	 mov	 rax, QWORD PTR this$[rsp]
  00090	8b 80 b4 00 00
	00		 mov	 eax, DWORD PTR [rax+180]
  00096	25 00 04 00 00	 and	 eax, 1024		; 00000400H
  0009b	85 c0		 test	 eax, eax
  0009d	74 62		 je	 SHORT $LN4@OpenLogger

; 357  : 		_stprintf(szBuf, _T("%s%d%c%s_%02d.%s"), m_pLogDir, gs_today_time.date, g_s, m_pLogName, gs_today_time.hour, m_szFileExtension);

  0009f	48 8b 84 24 e0
	00 00 00	 mov	 rax, QWORD PTR this$[rsp]
  000a7	48 05 a8 00 00
	00		 add	 rax, 168		; 000000a8H
  000ad	48 89 44 24 38	 mov	 QWORD PTR [rsp+56], rax
  000b2	8b 05 0c 00 00
	00		 mov	 eax, DWORD PTR ?gs_today_time@@3USTTodayTime@@A+12
  000b8	89 44 24 30	 mov	 DWORD PTR [rsp+48], eax
  000bc	48 8b 84 24 e0
	00 00 00	 mov	 rax, QWORD PTR this$[rsp]
  000c4	48 8b 80 a0 00
	00 00		 mov	 rax, QWORD PTR [rax+160]
  000cb	48 89 44 24 28	 mov	 QWORD PTR [rsp+40], rax
  000d0	c7 44 24 20 5c
	00 00 00	 mov	 DWORD PTR [rsp+32], 92	; 0000005cH
  000d8	44 8b 0d 18 00
	00 00		 mov	 r9d, DWORD PTR ?gs_today_time@@3USTTodayTime@@A+24
  000df	48 8b 84 24 e0
	00 00 00	 mov	 rax, QWORD PTR this$[rsp]
  000e7	4c 8b 80 98 00
	00 00		 mov	 r8, QWORD PTR [rax+152]
  000ee	48 8d 15 00 00
	00 00		 lea	 rdx, OFFSET FLAT:$SG86568
  000f5	48 8d 4c 24 40	 lea	 rcx, QWORD PTR szBuf$[rsp]
  000fa	e8 00 00 00 00	 call	 sprintf
  000ff	eb 59		 jmp	 SHORT $LN5@OpenLogger
$LN4@OpenLogger:

; 358  : 	}
; 359  : 	else if (m_nLogFlag & LOG_FLAG_FILE) {

  00101	48 8b 84 24 e0
	00 00 00	 mov	 rax, QWORD PTR this$[rsp]
  00109	8b 80 b4 00 00
	00		 mov	 eax, DWORD PTR [rax+180]
  0010f	25 00 08 00 00	 and	 eax, 2048		; 00000800H
  00114	85 c0		 test	 eax, eax
  00116	74 42		 je	 SHORT $LN6@OpenLogger

; 360  : 		_stprintf(szBuf, _T("%s%s.%s"), m_pLogDir, m_pLogName, m_szFileExtension);

  00118	48 8b 84 24 e0
	00 00 00	 mov	 rax, QWORD PTR this$[rsp]
  00120	48 05 a8 00 00
	00		 add	 rax, 168		; 000000a8H
  00126	48 89 44 24 20	 mov	 QWORD PTR [rsp+32], rax
  0012b	48 8b 84 24 e0
	00 00 00	 mov	 rax, QWORD PTR this$[rsp]
  00133	4c 8b 88 a0 00
	00 00		 mov	 r9, QWORD PTR [rax+160]
  0013a	48 8b 84 24 e0
	00 00 00	 mov	 rax, QWORD PTR this$[rsp]
  00142	4c 8b 80 98 00
	00 00		 mov	 r8, QWORD PTR [rax+152]
  00149	48 8d 15 00 00
	00 00		 lea	 rdx, OFFSET FLAT:$SG86570
  00150	48 8d 4c 24 40	 lea	 rcx, QWORD PTR szBuf$[rsp]
  00155	e8 00 00 00 00	 call	 sprintf
$LN6@OpenLogger:
$LN5@OpenLogger:
$LN3@OpenLogger:

; 361  : 	}
; 362  : 
; 363  : 	__openLogger(szBuf);

  0015a	45 33 c0	 xor	 r8d, r8d
  0015d	48 8d 54 24 40	 lea	 rdx, QWORD PTR szBuf$[rsp]
  00162	48 8b 8c 24 e0
	00 00 00	 mov	 rcx, QWORD PTR this$[rsp]
  0016a	e8 00 00 00 00	 call	 ?__openLogger@CLogger@@AEAAXPEBDH@Z ; CLogger::__openLogger

; 364  : }

  0016f	48 8b 8c 24 c0
	00 00 00	 mov	 rcx, QWORD PTR __$ArrayPad$[rsp]
  00177	48 33 cc	 xor	 rcx, rsp
  0017a	e8 00 00 00 00	 call	 __security_check_cookie
  0017f	48 81 c4 d8 00
	00 00		 add	 rsp, 216		; 000000d8H
  00186	c3		 ret	 0
?OpenLogger@CLogger@@QEAAXXZ ENDP			; CLogger::OpenLogger
_TEXT	ENDS
; Function compile flags: /Odtp
; File e:\infinia-library-3.0\com\src\comlogger.cpp
;	COMDAT ?initConfig@CLogger@@QEAA?AW4E_LOG_INIT_RES@@PEAD0@Z
_TEXT	SEGMENT
nRes$ = 48
eRes$ = 52
nMax$ = 56
nVal$ = 60
szValue4$ = 64
szValue3$ = 72
szValue2$ = 80
szValue$ = 208
__$ArrayPad$ = 336
this$ = 368
pConfig$ = 376
pSection$ = 384
?initConfig@CLogger@@QEAA?AW4E_LOG_INIT_RES@@PEAD0@Z PROC ; CLogger::initConfig, COMDAT

; 172  : {

$LN15:
  00000	4c 89 44 24 18	 mov	 QWORD PTR [rsp+24], r8
  00005	48 89 54 24 10	 mov	 QWORD PTR [rsp+16], rdx
  0000a	48 89 4c 24 08	 mov	 QWORD PTR [rsp+8], rcx
  0000f	48 81 ec 68 01
	00 00		 sub	 rsp, 360		; 00000168H
  00016	48 8b 05 00 00
	00 00		 mov	 rax, QWORD PTR __security_cookie
  0001d	48 33 c4	 xor	 rax, rsp
  00020	48 89 84 24 50
	01 00 00	 mov	 QWORD PTR __$ArrayPad$[rsp], rax

; 173  : 	int nMax, nRes, nVal;
; 174  : 	TCHAR szValue[128], szValue2[128], szValue3[8], szValue4[8];
; 175  : 	E_LOG_INIT_RES eRes;
; 176  : 
; 177  : 	nRes = GetPrivateProfileString(pSection, "LOGNAME", "", szValue2, 128, pConfig);

  00028	48 8b 84 24 78
	01 00 00	 mov	 rax, QWORD PTR pConfig$[rsp]
  00030	48 89 44 24 28	 mov	 QWORD PTR [rsp+40], rax
  00035	c7 44 24 20 80
	00 00 00	 mov	 DWORD PTR [rsp+32], 128	; 00000080H
  0003d	4c 8d 4c 24 50	 lea	 r9, QWORD PTR szValue2$[rsp]
  00042	4c 8d 05 00 00
	00 00		 lea	 r8, OFFSET FLAT:$SG86437
  00049	48 8d 15 00 00
	00 00		 lea	 rdx, OFFSET FLAT:$SG86438
  00050	48 8b 8c 24 80
	01 00 00	 mov	 rcx, QWORD PTR pSection$[rsp]
  00058	ff 15 00 00 00
	00		 call	 QWORD PTR __imp_GetPrivateProfileStringA
  0005e	89 44 24 30	 mov	 DWORD PTR nRes$[rsp], eax

; 178  : 	if (!nRes) {

  00062	83 7c 24 30 00	 cmp	 DWORD PTR nRes$[rsp], 0
  00067	75 48		 jne	 SHORT $LN2@initConfig

; 179  : 		if (&gs_cLogger == this) { eRes = LOG_INIT_NO_FILE; goto SET_DISABLE; }

  00069	48 8d 05 00 00
	00 00		 lea	 rax, OFFSET FLAT:?gs_cLogger@@3VCLogger@@A ; gs_cLogger
  00070	48 3b 84 24 70
	01 00 00	 cmp	 rax, QWORD PTR this$[rsp]
  00078	75 14		 jne	 SHORT $LN3@initConfig
  0007a	c7 44 24 34 00
	00 00 00	 mov	 DWORD PTR eRes$[rsp], 0
  00082	e9 bc 03 00 00	 jmp	 $LN5@initConfig
  00087	e9 b7 03 00 00	 jmp	 $SET_DISABLE$16
  0008c	eb 23		 jmp	 SHORT $LN4@initConfig
$LN3@initConfig:

; 180  : 		else {	comErrorPrint(_T("LOGNAME is NULL!"));	return LOG_INIT_ERROR;}

  0008e	41 b8 b4 00 00
	00		 mov	 r8d, 180		; 000000b4H
  00094	48 8d 15 00 00
	00 00		 lea	 rdx, OFFSET FLAT:$SG86443
  0009b	48 8d 0d 00 00
	00 00		 lea	 rcx, OFFSET FLAT:$SG86444
  000a2	e8 00 00 00 00	 call	 ?comGlobalErrorProc@@YAXPEADPEBDH@Z ; comGlobalErrorProc
  000a7	b8 ff ff ff ff	 mov	 eax, -1
  000ac	e9 c1 03 00 00	 jmp	 $LN1@initConfig
$LN4@initConfig:
$LN2@initConfig:

; 181  : 	}
; 182  : 	nRes = GetPrivateProfileInt(pSection, _T("ISENABLE"), 0, pConfig);

  000b1	4c 8b 8c 24 78
	01 00 00	 mov	 r9, QWORD PTR pConfig$[rsp]
  000b9	45 33 c0	 xor	 r8d, r8d
  000bc	48 8d 15 00 00
	00 00		 lea	 rdx, OFFSET FLAT:$SG86445
  000c3	48 8b 8c 24 80
	01 00 00	 mov	 rcx, QWORD PTR pSection$[rsp]
  000cb	ff 15 00 00 00
	00		 call	 QWORD PTR __imp_GetPrivateProfileIntA
  000d1	89 44 24 30	 mov	 DWORD PTR nRes$[rsp], eax

; 183  : 	if (!nRes) { eRes = LOG_INIT_SUCCESS; goto SET_DISABLE; }

  000d5	83 7c 24 30 00	 cmp	 DWORD PTR nRes$[rsp], 0
  000da	75 12		 jne	 SHORT $LN6@initConfig
  000dc	c7 44 24 34 01
	00 00 00	 mov	 DWORD PTR eRes$[rsp], 1
  000e4	e9 5a 03 00 00	 jmp	 $LN7@initConfig
  000e9	e9 55 03 00 00	 jmp	 $SET_DISABLE$16
$LN6@initConfig:

; 184  : 
; 185  : 	nRes = GetProfilePath(pSection, _T("LOGDIR"), _T("Log"), szValue, pConfig);

  000ee	48 8b 84 24 78
	01 00 00	 mov	 rax, QWORD PTR pConfig$[rsp]
  000f6	48 89 44 24 20	 mov	 QWORD PTR [rsp+32], rax
  000fb	4c 8d 8c 24 d0
	00 00 00	 lea	 r9, QWORD PTR szValue$[rsp]
  00103	4c 8d 05 00 00
	00 00		 lea	 r8, OFFSET FLAT:$SG86448
  0010a	48 8d 15 00 00
	00 00		 lea	 rdx, OFFSET FLAT:$SG86449
  00111	48 8b 8c 24 80
	01 00 00	 mov	 rcx, QWORD PTR pSection$[rsp]
  00119	e8 00 00 00 00	 call	 ?GetProfilePath@@YAHPEBD00PEAD0@Z ; GetProfilePath
  0011e	89 44 24 30	 mov	 DWORD PTR nRes$[rsp], eax

; 186  : 	GetPrivateProfileString(pSection, _T("EXTENSION"), g_szLogExtension, szValue3, sizeof(szValue3), pConfig);

  00122	48 8b 84 24 78
	01 00 00	 mov	 rax, QWORD PTR pConfig$[rsp]
  0012a	48 89 44 24 28	 mov	 QWORD PTR [rsp+40], rax
  0012f	c7 44 24 20 08
	00 00 00	 mov	 DWORD PTR [rsp+32], 8
  00137	4c 8d 4c 24 48	 lea	 r9, QWORD PTR szValue3$[rsp]
  0013c	4c 8d 05 00 00
	00 00		 lea	 r8, OFFSET FLAT:?g_szLogExtension@@3PADA ; g_szLogExtension
  00143	48 8d 15 00 00
	00 00		 lea	 rdx, OFFSET FLAT:$SG86450
  0014a	48 8b 8c 24 80
	01 00 00	 mov	 rcx, QWORD PTR pSection$[rsp]
  00152	ff 15 00 00 00
	00		 call	 QWORD PTR __imp_GetPrivateProfileStringA

; 187  : 	GetPrivateProfileString(pSection, _T("KEEP_DURATION"), g_szKeepDuratrion, szValue4, sizeof(szValue4), pConfig);

  00158	48 8b 84 24 78
	01 00 00	 mov	 rax, QWORD PTR pConfig$[rsp]
  00160	48 89 44 24 28	 mov	 QWORD PTR [rsp+40], rax
  00165	c7 44 24 20 08
	00 00 00	 mov	 DWORD PTR [rsp+32], 8
  0016d	4c 8d 4c 24 40	 lea	 r9, QWORD PTR szValue4$[rsp]
  00172	4c 8d 05 00 00
	00 00		 lea	 r8, OFFSET FLAT:?g_szKeepDuratrion@@3PADA ; g_szKeepDuratrion
  00179	48 8d 15 00 00
	00 00		 lea	 rdx, OFFSET FLAT:$SG86451
  00180	48 8b 8c 24 80
	01 00 00	 mov	 rcx, QWORD PTR pSection$[rsp]
  00188	ff 15 00 00 00
	00		 call	 QWORD PTR __imp_GetPrivateProfileStringA

; 188  : 	_initCom(szValue, szValue2, szValue3, szValue4);

  0018e	48 8d 44 24 40	 lea	 rax, QWORD PTR szValue4$[rsp]
  00193	48 89 44 24 20	 mov	 QWORD PTR [rsp+32], rax
  00198	4c 8d 4c 24 48	 lea	 r9, QWORD PTR szValue3$[rsp]
  0019d	4c 8d 44 24 50	 lea	 r8, QWORD PTR szValue2$[rsp]
  001a2	48 8d 94 24 d0
	00 00 00	 lea	 rdx, QWORD PTR szValue$[rsp]
  001aa	48 8b 8c 24 70
	01 00 00	 mov	 rcx, QWORD PTR this$[rsp]
  001b2	e8 00 00 00 00	 call	 ?_initCom@CLogger@@AEAAXPEAD000@Z ; CLogger::_initCom

; 189  : 
; 190  : 	nMax = GetPrivateProfileInt(pSection, _T("LIST_MAX"), eLDOPT_LISTMAX, pConfig);

  001b7	4c 8b 8c 24 78
	01 00 00	 mov	 r9, QWORD PTR pConfig$[rsp]
  001bf	41 b8 14 00 00
	00		 mov	 r8d, 20
  001c5	48 8d 15 00 00
	00 00		 lea	 rdx, OFFSET FLAT:$SG86452
  001cc	48 8b 8c 24 80
	01 00 00	 mov	 rcx, QWORD PTR pSection$[rsp]
  001d4	ff 15 00 00 00
	00		 call	 QWORD PTR __imp_GetPrivateProfileIntA
  001da	89 44 24 38	 mov	 DWORD PTR nMax$[rsp], eax

; 191  : 	if (!_setLoggerQueue(nMax)) {

  001de	8b 54 24 38	 mov	 edx, DWORD PTR nMax$[rsp]
  001e2	48 8b 8c 24 70
	01 00 00	 mov	 rcx, QWORD PTR this$[rsp]
  001ea	e8 00 00 00 00	 call	 ?_setLoggerQueue@CLogger@@AEAA_NH@Z ; CLogger::_setLoggerQueue
  001ef	0f b6 c0	 movzx	 eax, al
  001f2	85 c0		 test	 eax, eax
  001f4	75 23		 jne	 SHORT $LN8@initConfig

; 192  : 		comErrorPrint(_T("_setLoggerQueue has Failed"));

  001f6	41 b8 c0 00 00
	00		 mov	 r8d, 192		; 000000c0H
  001fc	48 8d 15 00 00
	00 00		 lea	 rdx, OFFSET FLAT:$SG86454
  00203	48 8d 0d 00 00
	00 00		 lea	 rcx, OFFSET FLAT:$SG86455
  0020a	e8 00 00 00 00	 call	 ?comGlobalErrorProc@@YAXPEADPEBDH@Z ; comGlobalErrorProc

; 193  : 		return LOG_INIT_ERROR;

  0020f	b8 ff ff ff ff	 mov	 eax, -1
  00214	e9 59 02 00 00	 jmp	 $LN1@initConfig
$LN8@initConfig:

; 194  : 	}
; 195  : 	nRes = GetPrivateProfileInt(pSection, _T("TIMESTEMP_NO"), eLDOPT_TIMESTEMP_NO, pConfig);

  00219	4c 8b 8c 24 78
	01 00 00	 mov	 r9, QWORD PTR pConfig$[rsp]
  00221	45 33 c0	 xor	 r8d, r8d
  00224	48 8d 15 00 00
	00 00		 lea	 rdx, OFFSET FLAT:$SG86456
  0022b	48 8b 8c 24 80
	01 00 00	 mov	 rcx, QWORD PTR pSection$[rsp]
  00233	ff 15 00 00 00
	00		 call	 QWORD PTR __imp_GetPrivateProfileIntA
  00239	89 44 24 30	 mov	 DWORD PTR nRes$[rsp], eax

; 196  : 	if (nRes < 0) {

  0023d	83 7c 24 30 00	 cmp	 DWORD PTR nRes$[rsp], 0
  00242	7d 43		 jge	 SHORT $LN9@initConfig

; 197  : 		_stprintf(g_szMessage, _T("invalid value[%d]! pSection[%s]"), nRes, pSection);

  00244	4c 8b 8c 24 80
	01 00 00	 mov	 r9, QWORD PTR pSection$[rsp]
  0024c	44 8b 44 24 30	 mov	 r8d, DWORD PTR nRes$[rsp]
  00251	48 8d 15 00 00
	00 00		 lea	 rdx, OFFSET FLAT:$SG86458
  00258	48 8d 0d 00 00
	00 00		 lea	 rcx, OFFSET FLAT:?g_szMessage@@3PADA ; g_szMessage
  0025f	e8 00 00 00 00	 call	 sprintf

; 198  : 		comErrorPrint(g_szMessage);

  00264	41 b8 c6 00 00
	00		 mov	 r8d, 198		; 000000c6H
  0026a	48 8d 15 00 00
	00 00		 lea	 rdx, OFFSET FLAT:$SG86459
  00271	48 8d 0d 00 00
	00 00		 lea	 rcx, OFFSET FLAT:?g_szMessage@@3PADA ; g_szMessage
  00278	e8 00 00 00 00	 call	 ?comGlobalErrorProc@@YAXPEADPEBDH@Z ; comGlobalErrorProc

; 199  : 		return LOG_INIT_ERROR;

  0027d	b8 ff ff ff ff	 mov	 eax, -1
  00282	e9 eb 01 00 00	 jmp	 $LN1@initConfig
$LN9@initConfig:

; 200  : 	}
; 201  : 	if (!_setHeaderFormat(nRes)) {

  00287	8b 54 24 30	 mov	 edx, DWORD PTR nRes$[rsp]
  0028b	48 8b 8c 24 70
	01 00 00	 mov	 rcx, QWORD PTR this$[rsp]
  00293	e8 00 00 00 00	 call	 ?_setHeaderFormat@CLogger@@AEAA_NH@Z ; CLogger::_setHeaderFormat
  00298	0f b6 c0	 movzx	 eax, al
  0029b	85 c0		 test	 eax, eax
  0029d	75 23		 jne	 SHORT $LN10@initConfig

; 202  : 		comErrorPrint(_T("_setHeaderFormat has Failed"));

  0029f	41 b8 ca 00 00
	00		 mov	 r8d, 202		; 000000caH
  002a5	48 8d 15 00 00
	00 00		 lea	 rdx, OFFSET FLAT:$SG86461
  002ac	48 8d 0d 00 00
	00 00		 lea	 rcx, OFFSET FLAT:$SG86462
  002b3	e8 00 00 00 00	 call	 ?comGlobalErrorProc@@YAXPEADPEBDH@Z ; comGlobalErrorProc

; 203  : 		return LOG_INIT_ERROR;

  002b8	b8 ff ff ff ff	 mov	 eax, -1
  002bd	e9 b0 01 00 00	 jmp	 $LN1@initConfig
$LN10@initConfig:

; 204  : 	}
; 205  : 	m_nStlNo = GetPrivateProfileInt(pSection, _T("STL_NO"), eLDOPT_STL_NO, pConfig);

  002c2	4c 8b 8c 24 78
	01 00 00	 mov	 r9, QWORD PTR pConfig$[rsp]
  002ca	45 33 c0	 xor	 r8d, r8d
  002cd	48 8d 15 00 00
	00 00		 lea	 rdx, OFFSET FLAT:$SG86463
  002d4	48 8b 8c 24 80
	01 00 00	 mov	 rcx, QWORD PTR pSection$[rsp]
  002dc	ff 15 00 00 00
	00		 call	 QWORD PTR __imp_GetPrivateProfileIntA
  002e2	48 8b 8c 24 70
	01 00 00	 mov	 rcx, QWORD PTR this$[rsp]
  002ea	89 81 bc 00 00
	00		 mov	 DWORD PTR [rcx+188], eax

; 206  : 
; 207  : 	nRes = GetPrivateProfileInt(pSection, _T("LOGTYPE"), eLDOPT_LOGTYPE, pConfig);

  002f0	4c 8b 8c 24 78
	01 00 00	 mov	 r9, QWORD PTR pConfig$[rsp]
  002f8	41 b8 03 00 00
	00		 mov	 r8d, 3
  002fe	48 8d 15 00 00
	00 00		 lea	 rdx, OFFSET FLAT:$SG86464
  00305	48 8b 8c 24 80
	01 00 00	 mov	 rcx, QWORD PTR pSection$[rsp]
  0030d	ff 15 00 00 00
	00		 call	 QWORD PTR __imp_GetPrivateProfileIntA
  00313	89 44 24 30	 mov	 DWORD PTR nRes$[rsp], eax

; 208  : 	m_nSizeLimit = GetPrivateProfileInt(pSection, _T("SIZE_LIMIT"), eLDOPT_SIZE_LIMIT, pConfig);

  00317	4c 8b 8c 24 78
	01 00 00	 mov	 r9, QWORD PTR pConfig$[rsp]
  0031f	45 33 c0	 xor	 r8d, r8d
  00322	48 8d 15 00 00
	00 00		 lea	 rdx, OFFSET FLAT:$SG86465
  00329	48 8b 8c 24 80
	01 00 00	 mov	 rcx, QWORD PTR pSection$[rsp]
  00331	ff 15 00 00 00
	00		 call	 QWORD PTR __imp_GetPrivateProfileIntA
  00337	48 8b 8c 24 70
	01 00 00	 mov	 rcx, QWORD PTR this$[rsp]
  0033f	89 81 c0 00 00
	00		 mov	 DWORD PTR [rcx+192], eax

; 209  : 	nVal = GetPrivateProfileInt(pSection, _T("IS_PRINT_LEVEL"), eLDOPT_IS_PRINT_LEVEL, pConfig);

  00345	4c 8b 8c 24 78
	01 00 00	 mov	 r9, QWORD PTR pConfig$[rsp]
  0034d	41 b8 01 00 00
	00		 mov	 r8d, 1
  00353	48 8d 15 00 00
	00 00		 lea	 rdx, OFFSET FLAT:$SG86466
  0035a	48 8b 8c 24 80
	01 00 00	 mov	 rcx, QWORD PTR pSection$[rsp]
  00362	ff 15 00 00 00
	00		 call	 QWORD PTR __imp_GetPrivateProfileIntA
  00368	89 44 24 3c	 mov	 DWORD PTR nVal$[rsp], eax

; 210  : 	_setLoggerBasic(nRes, nVal, m_nSizeLimit);

  0036c	48 8b 84 24 70
	01 00 00	 mov	 rax, QWORD PTR this$[rsp]
  00374	44 8b 88 c0 00
	00 00		 mov	 r9d, DWORD PTR [rax+192]
  0037b	44 8b 44 24 3c	 mov	 r8d, DWORD PTR nVal$[rsp]
  00380	8b 54 24 30	 mov	 edx, DWORD PTR nRes$[rsp]
  00384	48 8b 8c 24 70
	01 00 00	 mov	 rcx, QWORD PTR this$[rsp]
  0038c	e8 00 00 00 00	 call	 ?_setLoggerBasic@CLogger@@AEAAXHHH@Z ; CLogger::_setLoggerBasic

; 211  : 
; 212  : 	nRes = GetPrivateProfileInt(pSection, _T("IS_PRINT"), eLDOPT_ISPRINTF, pConfig);

  00391	4c 8b 8c 24 78
	01 00 00	 mov	 r9, QWORD PTR pConfig$[rsp]
  00399	45 33 c0	 xor	 r8d, r8d
  0039c	48 8d 15 00 00
	00 00		 lea	 rdx, OFFSET FLAT:$SG86467
  003a3	48 8b 8c 24 80
	01 00 00	 mov	 rcx, QWORD PTR pSection$[rsp]
  003ab	ff 15 00 00 00
	00		 call	 QWORD PTR __imp_GetPrivateProfileIntA
  003b1	89 44 24 30	 mov	 DWORD PTR nRes$[rsp], eax

; 213  : 	if (nRes) m_nLogFlag |= IS_PRINT;

  003b5	83 7c 24 30 00	 cmp	 DWORD PTR nRes$[rsp], 0
  003ba	74 20		 je	 SHORT $LN11@initConfig
  003bc	48 8b 84 24 70
	01 00 00	 mov	 rax, QWORD PTR this$[rsp]
  003c4	8b 80 b4 00 00
	00		 mov	 eax, DWORD PTR [rax+180]
  003ca	0f ba e8 0d	 bts	 eax, 13
  003ce	48 8b 8c 24 70
	01 00 00	 mov	 rcx, QWORD PTR this$[rsp]
  003d6	89 81 b4 00 00
	00		 mov	 DWORD PTR [rcx+180], eax
$LN11@initConfig:

; 214  : 	m_nLogLevel = GetPrivateProfileInt(pSection, _T("LOGLEVEL"), eLDOPT_LOGLEVEL, pConfig);

  003dc	4c 8b 8c 24 78
	01 00 00	 mov	 r9, QWORD PTR pConfig$[rsp]
  003e4	41 b8 03 00 00
	00		 mov	 r8d, 3
  003ea	48 8d 15 00 00
	00 00		 lea	 rdx, OFFSET FLAT:$SG86469
  003f1	48 8b 8c 24 80
	01 00 00	 mov	 rcx, QWORD PTR pSection$[rsp]
  003f9	ff 15 00 00 00
	00		 call	 QWORD PTR __imp_GetPrivateProfileIntA
  003ff	48 8b 8c 24 70
	01 00 00	 mov	 rcx, QWORD PTR this$[rsp]
  00407	89 41 78	 mov	 DWORD PTR [rcx+120], eax

; 215  : 
; 216  : 	if (isLogFlag(IS_LOG_ENABLE)) return LOG_INIT_CHANGED_SUCCESS;

  0040a	ba 00 00 08 00	 mov	 edx, 524288		; 00080000H
  0040f	48 8b 8c 24 70
	01 00 00	 mov	 rcx, QWORD PTR this$[rsp]
  00417	e8 00 00 00 00	 call	 ?isLogFlag@CLogger@@QEAA_NW4E_LOG_FLAG@@@Z ; CLogger::isLogFlag
  0041c	0f b6 c0	 movzx	 eax, al
  0041f	85 c0		 test	 eax, eax
  00421	74 07		 je	 SHORT $LN12@initConfig
  00423	b8 02 00 00 00	 mov	 eax, 2
  00428	eb 48		 jmp	 SHORT $LN1@initConfig
$LN12@initConfig:

; 217  : 
; 218  : 	setLogFlag(IS_LOG_SET_COMPLETE);

  0042a	ba 00 00 02 00	 mov	 edx, 131072		; 00020000H
  0042f	48 8b 8c 24 70
	01 00 00	 mov	 rcx, QWORD PTR this$[rsp]
  00437	e8 00 00 00 00	 call	 ?setLogFlag@CLogger@@QEAAXW4E_LOG_FLAG@@@Z ; CLogger::setLogFlag

; 219  : 	return LOG_INIT_SUCCESS;

  0043c	b8 01 00 00 00	 mov	 eax, 1
  00441	eb 2f		 jmp	 SHORT $LN1@initConfig
$LN5@initConfig:
$LN7@initConfig:
$SET_DISABLE$16:

; 220  : 
; 221  : SET_DISABLE : 
; 222  : 	if (isLogFlag(IS_LOG_ENABLE)) {

  00443	ba 00 00 08 00	 mov	 edx, 524288		; 00080000H
  00448	48 8b 8c 24 70
	01 00 00	 mov	 rcx, QWORD PTR this$[rsp]
  00450	e8 00 00 00 00	 call	 ?isLogFlag@CLogger@@QEAA_NW4E_LOG_FLAG@@@Z ; CLogger::isLogFlag
  00455	0f b6 c0	 movzx	 eax, al
  00458	85 c0		 test	 eax, eax
  0045a	74 12		 je	 SHORT $LN13@initConfig

; 223  : 		clearLogFlag(IS_LOG_ENABLE);

  0045c	ba 00 00 08 00	 mov	 edx, 524288		; 00080000H
  00461	48 8b 8c 24 70
	01 00 00	 mov	 rcx, QWORD PTR this$[rsp]
  00469	e8 00 00 00 00	 call	 ?clearLogFlag@CLogger@@QEAAXW4E_LOG_FLAG@@@Z ; CLogger::clearLogFlag
$LN13@initConfig:

; 224  : 	}
; 225  : 	return eRes;

  0046e	8b 44 24 34	 mov	 eax, DWORD PTR eRes$[rsp]
$LN1@initConfig:

; 226  : }

  00472	48 8b 8c 24 50
	01 00 00	 mov	 rcx, QWORD PTR __$ArrayPad$[rsp]
  0047a	48 33 cc	 xor	 rcx, rsp
  0047d	e8 00 00 00 00	 call	 __security_check_cookie
  00482	48 81 c4 68 01
	00 00		 add	 rsp, 360		; 00000168H
  00489	c3		 ret	 0
?initConfig@CLogger@@QEAA?AW4E_LOG_INIT_RES@@PEAD0@Z ENDP ; CLogger::initConfig
_TEXT	ENDS
; Function compile flags: /Odtp
; File e:\infinia-library-3.0\com\src\comlogger.cpp
;	COMDAT ?initDefault@CLogger@@QEAA_NPEAD0HHH0@Z
_TEXT	SEGMENT
szValue$ = 48
szValue2$ = 176
__$ArrayPad$ = 304
this$ = 336
pDir$ = 344
pName$ = 352
nLogType$ = 360
nLogLevel$ = 368
nSizeLimit$ = 376
pFileExtension$ = 384
?initDefault@CLogger@@QEAA_NPEAD0HHH0@Z PROC		; CLogger::initDefault, COMDAT

; 135  : {

$LN9:
  00000	44 89 4c 24 20	 mov	 DWORD PTR [rsp+32], r9d
  00005	4c 89 44 24 18	 mov	 QWORD PTR [rsp+24], r8
  0000a	48 89 54 24 10	 mov	 QWORD PTR [rsp+16], rdx
  0000f	48 89 4c 24 08	 mov	 QWORD PTR [rsp+8], rcx
  00014	48 81 ec 48 01
	00 00		 sub	 rsp, 328		; 00000148H
  0001b	48 8b 05 00 00
	00 00		 mov	 rax, QWORD PTR __security_cookie
  00022	48 33 c4	 xor	 rax, rsp
  00025	48 89 84 24 30
	01 00 00	 mov	 QWORD PTR __$ArrayPad$[rsp], rax

; 136  : 	TCHAR szValue[128], szValue2[128];
; 137  : 
; 138  : 	if (!pDir) {

  0002d	48 83 bc 24 58
	01 00 00 00	 cmp	 QWORD PTR pDir$[rsp], 0
  00036	75 20		 jne	 SHORT $LN2@initDefaul

; 139  : 		comErrorPrint(_T("pDir is NULL"));

  00038	41 b8 8b 00 00
	00		 mov	 r8d, 139		; 0000008bH
  0003e	48 8d 15 00 00
	00 00		 lea	 rdx, OFFSET FLAT:$SG86412
  00045	48 8d 0d 00 00
	00 00		 lea	 rcx, OFFSET FLAT:$SG86413
  0004c	e8 00 00 00 00	 call	 ?comGlobalErrorProc@@YAXPEADPEBDH@Z ; comGlobalErrorProc

; 140  : 		return false;

  00051	32 c0		 xor	 al, al
  00053	e9 74 01 00 00	 jmp	 $LN1@initDefaul
$LN2@initDefaul:

; 141  : 	}
; 142  : 	if (pName) {

  00058	48 83 bc 24 60
	01 00 00 00	 cmp	 QWORD PTR pName$[rsp], 0
  00061	74 3b		 je	 SHORT $LN3@initDefaul

; 143  : 		if (pDir[0] == '~') {

  00063	b8 01 00 00 00	 mov	 eax, 1
  00068	48 6b c0 00	 imul	 rax, rax, 0
  0006c	48 8b 8c 24 58
	01 00 00	 mov	 rcx, QWORD PTR pDir$[rsp]
  00074	0f be 04 01	 movsx	 eax, BYTE PTR [rcx+rax]
  00078	83 f8 7e	 cmp	 eax, 126		; 0000007eH
  0007b	75 1f		 jne	 SHORT $LN5@initDefaul

; 144  : 			changeToAbsolutePath(szValue, pDir);

  0007d	48 8b 94 24 58
	01 00 00	 mov	 rdx, QWORD PTR pDir$[rsp]
  00085	48 8d 4c 24 30	 lea	 rcx, QWORD PTR szValue$[rsp]
  0008a	e8 00 00 00 00	 call	 ?changeToAbsolutePath@@YAXPEADPEBD@Z ; changeToAbsolutePath

; 145  : 			pDir = szValue;

  0008f	48 8d 44 24 30	 lea	 rax, QWORD PTR szValue$[rsp]
  00094	48 89 84 24 58
	01 00 00	 mov	 QWORD PTR pDir$[rsp], rax
$LN5@initDefaul:

; 146  : 		}
; 147  : 	}
; 148  : 	else {

  0009c	eb 37		 jmp	 SHORT $LN4@initDefaul
$LN3@initDefaul:

; 149  : 		detachFullPath(pDir, szValue, szValue2);

  0009e	4c 8d 84 24 b0
	00 00 00	 lea	 r8, QWORD PTR szValue2$[rsp]
  000a6	48 8d 54 24 30	 lea	 rdx, QWORD PTR szValue$[rsp]
  000ab	48 8b 8c 24 58
	01 00 00	 mov	 rcx, QWORD PTR pDir$[rsp]
  000b3	e8 00 00 00 00	 call	 ?detachFullPath@@YAXPEBDPEAD1@Z ; detachFullPath

; 150  : 		pDir = szValue; pName = szValue2;

  000b8	48 8d 44 24 30	 lea	 rax, QWORD PTR szValue$[rsp]
  000bd	48 89 84 24 58
	01 00 00	 mov	 QWORD PTR pDir$[rsp], rax
  000c5	48 8d 84 24 b0
	00 00 00	 lea	 rax, QWORD PTR szValue2$[rsp]
  000cd	48 89 84 24 60
	01 00 00	 mov	 QWORD PTR pName$[rsp], rax
$LN4@initDefaul:

; 151  : 	}
; 152  : 
; 153  : 	_initCom(pDir, pName, pFileExtension);

  000d5	48 8d 05 00 00
	00 00		 lea	 rax, OFFSET FLAT:?g_szKeepDuratrion@@3PADA ; g_szKeepDuratrion
  000dc	48 89 44 24 20	 mov	 QWORD PTR [rsp+32], rax
  000e1	4c 8b 8c 24 80
	01 00 00	 mov	 r9, QWORD PTR pFileExtension$[rsp]
  000e9	4c 8b 84 24 60
	01 00 00	 mov	 r8, QWORD PTR pName$[rsp]
  000f1	48 8b 94 24 58
	01 00 00	 mov	 rdx, QWORD PTR pDir$[rsp]
  000f9	48 8b 8c 24 50
	01 00 00	 mov	 rcx, QWORD PTR this$[rsp]
  00101	e8 00 00 00 00	 call	 ?_initCom@CLogger@@AEAAXPEAD000@Z ; CLogger::_initCom

; 154  : 
; 155  : 	if (!_setLoggerQueue(eLDOPT_LISTMAX)) {

  00106	ba 14 00 00 00	 mov	 edx, 20
  0010b	48 8b 8c 24 50
	01 00 00	 mov	 rcx, QWORD PTR this$[rsp]
  00113	e8 00 00 00 00	 call	 ?_setLoggerQueue@CLogger@@AEAA_NH@Z ; CLogger::_setLoggerQueue
  00118	0f b6 c0	 movzx	 eax, al
  0011b	85 c0		 test	 eax, eax
  0011d	75 20		 jne	 SHORT $LN6@initDefaul

; 156  : 		comErrorPrint(_T("_setLoggerQueue has Failed"));

  0011f	41 b8 9c 00 00
	00		 mov	 r8d, 156		; 0000009cH
  00125	48 8d 15 00 00
	00 00		 lea	 rdx, OFFSET FLAT:$SG86418
  0012c	48 8d 0d 00 00
	00 00		 lea	 rcx, OFFSET FLAT:$SG86419
  00133	e8 00 00 00 00	 call	 ?comGlobalErrorProc@@YAXPEADPEBDH@Z ; comGlobalErrorProc

; 157  : 		return false;

  00138	32 c0		 xor	 al, al
  0013a	e9 8d 00 00 00	 jmp	 $LN1@initDefaul
$LN6@initDefaul:

; 158  : 	}
; 159  : 	if (!_setHeaderFormat(eLDOPT_TIMESTEMP_NO)) {

  0013f	33 d2		 xor	 edx, edx
  00141	48 8b 8c 24 50
	01 00 00	 mov	 rcx, QWORD PTR this$[rsp]
  00149	e8 00 00 00 00	 call	 ?_setHeaderFormat@CLogger@@AEAA_NH@Z ; CLogger::_setHeaderFormat
  0014e	0f b6 c0	 movzx	 eax, al
  00151	85 c0		 test	 eax, eax
  00153	75 1d		 jne	 SHORT $LN7@initDefaul

; 160  : 		comErrorPrint(_T("_setHeaderFormat has Failed"));

  00155	41 b8 a0 00 00
	00		 mov	 r8d, 160		; 000000a0H
  0015b	48 8d 15 00 00
	00 00		 lea	 rdx, OFFSET FLAT:$SG86421
  00162	48 8d 0d 00 00
	00 00		 lea	 rcx, OFFSET FLAT:$SG86422
  00169	e8 00 00 00 00	 call	 ?comGlobalErrorProc@@YAXPEADPEBDH@Z ; comGlobalErrorProc

; 161  : 		return false;

  0016e	32 c0		 xor	 al, al
  00170	eb 5a		 jmp	 SHORT $LN1@initDefaul
$LN7@initDefaul:

; 162  : 	}
; 163  : 
; 164  : 	m_nStlNo = 0;

  00172	48 8b 84 24 50
	01 00 00	 mov	 rax, QWORD PTR this$[rsp]
  0017a	c7 80 bc 00 00
	00 00 00 00 00	 mov	 DWORD PTR [rax+188], 0

; 165  : 	m_nLogLevel = nLogLevel;

  00184	48 8b 84 24 50
	01 00 00	 mov	 rax, QWORD PTR this$[rsp]
  0018c	8b 8c 24 70 01
	00 00		 mov	 ecx, DWORD PTR nLogLevel$[rsp]
  00193	89 48 78	 mov	 DWORD PTR [rax+120], ecx

; 166  : 	_setLoggerBasic(nLogType, eLDOPT_IS_PRINT_LEVEL, nSizeLimit);

  00196	44 8b 8c 24 78
	01 00 00	 mov	 r9d, DWORD PTR nSizeLimit$[rsp]
  0019e	41 b8 01 00 00
	00		 mov	 r8d, 1
  001a4	8b 94 24 68 01
	00 00		 mov	 edx, DWORD PTR nLogType$[rsp]
  001ab	48 8b 8c 24 50
	01 00 00	 mov	 rcx, QWORD PTR this$[rsp]
  001b3	e8 00 00 00 00	 call	 ?_setLoggerBasic@CLogger@@AEAAXHHH@Z ; CLogger::_setLoggerBasic

; 167  : 	setLogFlag(IS_LOG_SET_COMPLETE);

  001b8	ba 00 00 02 00	 mov	 edx, 131072		; 00020000H
  001bd	48 8b 8c 24 50
	01 00 00	 mov	 rcx, QWORD PTR this$[rsp]
  001c5	e8 00 00 00 00	 call	 ?setLogFlag@CLogger@@QEAAXW4E_LOG_FLAG@@@Z ; CLogger::setLogFlag

; 168  : 	return true;

  001ca	b0 01		 mov	 al, 1
$LN1@initDefaul:

; 169  : }

  001cc	48 8b 8c 24 30
	01 00 00	 mov	 rcx, QWORD PTR __$ArrayPad$[rsp]
  001d4	48 33 cc	 xor	 rcx, rsp
  001d7	e8 00 00 00 00	 call	 __security_check_cookie
  001dc	48 81 c4 48 01
	00 00		 add	 rsp, 328		; 00000148H
  001e3	c3		 ret	 0
?initDefault@CLogger@@QEAA_NPEAD0HHH0@Z ENDP		; CLogger::initDefault
_TEXT	ENDS
; Function compile flags: /Odtp
; File e:\infinia-library-3.0\com\src\comlogger.cpp
;	COMDAT ??1CLogger@@QEAA@XZ
_TEXT	SEGMENT
$T1 = 32
$T2 = 40
$T3 = 48
$T4 = 56
this$ = 80
??1CLogger@@QEAA@XZ PROC				; CLogger::~CLogger, COMDAT

; 118  : {

$LN8:
  00000	48 89 4c 24 08	 mov	 QWORD PTR [rsp+8], rcx
  00005	48 83 ec 48	 sub	 rsp, 72			; 00000048H
  00009	48 c7 44 24 38
	fe ff ff ff	 mov	 QWORD PTR $T4[rsp], -2

; 119  : 	if (isLogFlag(IS_LOG_ENABLE)) {

  00012	ba 00 00 08 00	 mov	 edx, 524288		; 00080000H
  00017	48 8b 4c 24 50	 mov	 rcx, QWORD PTR this$[rsp]
  0001c	e8 00 00 00 00	 call	 ?isLogFlag@CLogger@@QEAA_NW4E_LOG_FLAG@@@Z ; CLogger::isLogFlag
  00021	90		 npad	 1
  00022	0f b6 c0	 movzx	 eax, al
  00025	85 c0		 test	 eax, eax
  00027	74 10		 je	 SHORT $LN2@CLogger

; 120  : 		clearLogFlag(IS_LOG_ENABLE);

  00029	ba 00 00 08 00	 mov	 edx, 524288		; 00080000H
  0002e	48 8b 4c 24 50	 mov	 rcx, QWORD PTR this$[rsp]
  00033	e8 00 00 00 00	 call	 ?clearLogFlag@CLogger@@QEAAXW4E_LOG_FLAG@@@Z ; CLogger::clearLogFlag
  00038	90		 npad	 1
$LN2@CLogger:

; 121  : 	}
; 122  : 	if (m_hFile) { fclose(m_hFile); m_hFile = NULL;	}

  00039	48 8b 44 24 50	 mov	 rax, QWORD PTR this$[rsp]
  0003e	48 83 b8 88 00
	00 00 00	 cmp	 QWORD PTR [rax+136], 0
  00046	74 23		 je	 SHORT $LN3@CLogger
  00048	48 8b 44 24 50	 mov	 rax, QWORD PTR this$[rsp]
  0004d	48 8b 88 88 00
	00 00		 mov	 rcx, QWORD PTR [rax+136]
  00054	ff 15 00 00 00
	00		 call	 QWORD PTR __imp_fclose
  0005a	90		 npad	 1
  0005b	48 8b 44 24 50	 mov	 rax, QWORD PTR this$[rsp]
  00060	48 c7 80 88 00
	00 00 00 00 00
	00		 mov	 QWORD PTR [rax+136], 0
$LN3@CLogger:

; 123  : 	if (m_pLogDir) {

  0006b	48 8b 44 24 50	 mov	 rax, QWORD PTR this$[rsp]
  00070	48 83 b8 98 00
	00 00 00	 cmp	 QWORD PTR [rax+152], 0
  00078	74 31		 je	 SHORT $LN4@CLogger

; 124  : 		delete m_pLogDir; m_pLogDir = NULL;

  0007a	48 8b 44 24 50	 mov	 rax, QWORD PTR this$[rsp]
  0007f	48 8b 80 98 00
	00 00		 mov	 rax, QWORD PTR [rax+152]
  00086	48 89 44 24 20	 mov	 QWORD PTR $T1[rsp], rax
  0008b	ba 01 00 00 00	 mov	 edx, 1
  00090	48 8b 4c 24 20	 mov	 rcx, QWORD PTR $T1[rsp]
  00095	e8 00 00 00 00	 call	 ??3@YAXPEAX_K@Z		; operator delete
  0009a	90		 npad	 1
  0009b	48 8b 44 24 50	 mov	 rax, QWORD PTR this$[rsp]
  000a0	48 c7 80 98 00
	00 00 00 00 00
	00		 mov	 QWORD PTR [rax+152], 0
$LN4@CLogger:

; 125  : 	}
; 126  : 	if (m_pLogName) {

  000ab	48 8b 44 24 50	 mov	 rax, QWORD PTR this$[rsp]
  000b0	48 83 b8 a0 00
	00 00 00	 cmp	 QWORD PTR [rax+160], 0
  000b8	74 31		 je	 SHORT $LN5@CLogger

; 127  : 		delete m_pLogName; m_pLogName = NULL;

  000ba	48 8b 44 24 50	 mov	 rax, QWORD PTR this$[rsp]
  000bf	48 8b 80 a0 00
	00 00		 mov	 rax, QWORD PTR [rax+160]
  000c6	48 89 44 24 28	 mov	 QWORD PTR $T2[rsp], rax
  000cb	ba 01 00 00 00	 mov	 edx, 1
  000d0	48 8b 4c 24 28	 mov	 rcx, QWORD PTR $T2[rsp]
  000d5	e8 00 00 00 00	 call	 ??3@YAXPEAX_K@Z		; operator delete
  000da	90		 npad	 1
  000db	48 8b 44 24 50	 mov	 rax, QWORD PTR this$[rsp]
  000e0	48 c7 80 a0 00
	00 00 00 00 00
	00		 mov	 QWORD PTR [rax+160], 0
$LN5@CLogger:

; 128  : 	}
; 129  : 	if (m_pFName) {

  000eb	48 8b 44 24 50	 mov	 rax, QWORD PTR this$[rsp]
  000f0	48 83 b8 90 00
	00 00 00	 cmp	 QWORD PTR [rax+144], 0
  000f8	74 31		 je	 SHORT $LN6@CLogger

; 130  : 		delete m_pFName; m_pFName = NULL;

  000fa	48 8b 44 24 50	 mov	 rax, QWORD PTR this$[rsp]
  000ff	48 8b 80 90 00
	00 00		 mov	 rax, QWORD PTR [rax+144]
  00106	48 89 44 24 30	 mov	 QWORD PTR $T3[rsp], rax
  0010b	ba 01 00 00 00	 mov	 edx, 1
  00110	48 8b 4c 24 30	 mov	 rcx, QWORD PTR $T3[rsp]
  00115	e8 00 00 00 00	 call	 ??3@YAXPEAX_K@Z		; operator delete
  0011a	90		 npad	 1
  0011b	48 8b 44 24 50	 mov	 rax, QWORD PTR this$[rsp]
  00120	48 c7 80 90 00
	00 00 00 00 00
	00		 mov	 QWORD PTR [rax+144], 0
$LN6@CLogger:

; 131  : 	}
; 132  : }

  0012b	48 8b 44 24 50	 mov	 rax, QWORD PTR this$[rsp]
  00130	48 8b c8	 mov	 rcx, rax
  00133	e8 00 00 00 00	 call	 ??1CQueueS@@QEAA@XZ	; CQueueS::~CQueueS
  00138	90		 npad	 1
  00139	48 83 c4 48	 add	 rsp, 72			; 00000048H
  0013d	c3		 ret	 0
??1CLogger@@QEAA@XZ ENDP				; CLogger::~CLogger
_TEXT	ENDS
; Function compile flags: /Odtp
; File e:\infinia-library-3.0\com\src\comlogger.cpp
;	COMDAT ??0CLogger@@QEAA@XZ
_TEXT	SEGMENT
tv82 = 32
tv80 = 40
tv78 = 48
tv81 = 56
this$ = 80
??0CLogger@@QEAA@XZ PROC				; CLogger::CLogger, COMDAT

; 90   : {

$LN5:
  00000	48 89 4c 24 08	 mov	 QWORD PTR [rsp+8], rcx
  00005	48 83 ec 48	 sub	 rsp, 72			; 00000048H
  00009	48 8b 44 24 50	 mov	 rax, QWORD PTR this$[rsp]
  0000e	48 8b c8	 mov	 rcx, rax
  00011	e8 00 00 00 00	 call	 ??0CQueueS@@QEAA@XZ	; CQueueS::CQueueS

; 91   : 	m_hFile = NULL;

  00016	48 8b 44 24 50	 mov	 rax, QWORD PTR this$[rsp]
  0001b	48 c7 80 88 00
	00 00 00 00 00
	00		 mov	 QWORD PTR [rax+136], 0

; 92   : 	m_pFName = NULL;

  00026	48 8b 44 24 50	 mov	 rax, QWORD PTR this$[rsp]
  0002b	48 c7 80 90 00
	00 00 00 00 00
	00		 mov	 QWORD PTR [rax+144], 0

; 93   : 
; 94   : 	m_nLogLevel = eLDOPT_LOGLEVEL;

  00036	48 8b 44 24 50	 mov	 rax, QWORD PTR this$[rsp]
  0003b	c7 40 78 03 00
	00 00		 mov	 DWORD PTR [rax+120], 3

; 95   : 	m_nLogSize = 0;

  00042	48 8b 44 24 50	 mov	 rax, QWORD PTR this$[rsp]
  00047	c7 80 c4 00 00
	00 00 00 00 00	 mov	 DWORD PTR [rax+196], 0

; 96   : 	m_nLogFlag = 0;

  00051	48 8b 44 24 50	 mov	 rax, QWORD PTR this$[rsp]
  00056	c7 80 b4 00 00
	00 00 00 00 00	 mov	 DWORD PTR [rax+180], 0

; 97   : 	m_nStlNo = eLDOPT_STL_NO;

  00060	48 8b 44 24 50	 mov	 rax, QWORD PTR this$[rsp]
  00065	c7 80 bc 00 00
	00 00 00 00 00	 mov	 DWORD PTR [rax+188], 0

; 98   : 
; 99   : 	m_pLogDir = NULL;

  0006f	48 8b 44 24 50	 mov	 rax, QWORD PTR this$[rsp]
  00074	48 c7 80 98 00
	00 00 00 00 00
	00		 mov	 QWORD PTR [rax+152], 0

; 100  : 	m_pLogName = NULL;

  0007f	48 8b 44 24 50	 mov	 rax, QWORD PTR this$[rsp]
  00084	48 c7 80 a0 00
	00 00 00 00 00
	00		 mov	 QWORD PTR [rax+160], 0

; 101  : 	strcpy(m_szFileExtension,g_szLogExtension);

  0008f	48 8d 05 00 00
	00 00		 lea	 rax, OFFSET FLAT:?g_szLogExtension@@3PADA ; g_szLogExtension
  00096	48 89 44 24 30	 mov	 QWORD PTR tv78[rsp], rax
  0009b	48 8b 44 24 50	 mov	 rax, QWORD PTR this$[rsp]
  000a0	48 05 a8 00 00
	00		 add	 rax, 168		; 000000a8H
  000a6	48 89 44 24 28	 mov	 QWORD PTR tv80[rsp], rax
  000ab	48 8b 44 24 28	 mov	 rax, QWORD PTR tv80[rsp]
  000b0	48 89 44 24 38	 mov	 QWORD PTR tv81[rsp], rax
$LN3@CLogger:
  000b5	48 8b 44 24 30	 mov	 rax, QWORD PTR tv78[rsp]
  000ba	0f b6 00	 movzx	 eax, BYTE PTR [rax]
  000bd	88 44 24 20	 mov	 BYTE PTR tv82[rsp], al
  000c1	48 8b 44 24 28	 mov	 rax, QWORD PTR tv80[rsp]
  000c6	0f b6 4c 24 20	 movzx	 ecx, BYTE PTR tv82[rsp]
  000cb	88 08		 mov	 BYTE PTR [rax], cl
  000cd	48 8b 44 24 30	 mov	 rax, QWORD PTR tv78[rsp]
  000d2	48 ff c0	 inc	 rax
  000d5	48 89 44 24 30	 mov	 QWORD PTR tv78[rsp], rax
  000da	48 8b 44 24 28	 mov	 rax, QWORD PTR tv80[rsp]
  000df	48 ff c0	 inc	 rax
  000e2	48 89 44 24 28	 mov	 QWORD PTR tv80[rsp], rax
  000e7	80 7c 24 20 00	 cmp	 BYTE PTR tv82[rsp], 0
  000ec	75 c7		 jne	 SHORT $LN3@CLogger

; 102  : 	m_nSeq = 0;

  000ee	48 8b 44 24 50	 mov	 rax, QWORD PTR this$[rsp]
  000f3	c7 80 b8 00 00
	00 00 00 00 00	 mov	 DWORD PTR [rax+184], 0

; 103  : 	m_nSizeLimit = eLDOPT_SIZE_LIMIT;

  000fd	48 8b 44 24 50	 mov	 rax, QWORD PTR this$[rsp]
  00102	c7 80 c0 00 00
	00 00 00 00 00	 mov	 DWORD PTR [rax+192], 0

; 104  : 	m_nLogSize = 0;

  0010c	48 8b 44 24 50	 mov	 rax, QWORD PTR this$[rsp]
  00111	c7 80 c4 00 00
	00 00 00 00 00	 mov	 DWORD PTR [rax+196], 0

; 105  : 	m_nDateTimeFormat = 0;

  0011b	48 8b 44 24 50	 mov	 rax, QWORD PTR this$[rsp]
  00120	c7 40 7c 00 00
	00 00		 mov	 DWORD PTR [rax+124], 0

; 106  : 	m_fpDataProc = NULL;

  00127	48 8b 44 24 50	 mov	 rax, QWORD PTR this$[rsp]
  0012c	48 c7 40 60 00
	00 00 00	 mov	 QWORD PTR [rax+96], 0

; 107  : 
; 108  : 	m_szHeaderFormat[0] = 0;

  00134	b8 01 00 00 00	 mov	 eax, 1
  00139	48 6b c0 00	 imul	 rax, rax, 0
  0013d	48 8b 4c 24 50	 mov	 rcx, QWORD PTR this$[rsp]
  00142	c6 84 01 c8 00
	00 00 00	 mov	 BYTE PTR [rcx+rax+200], 0

; 109  : 	m_pObj = NULL;

  0014a	48 8b 44 24 50	 mov	 rax, QWORD PTR this$[rsp]
  0014f	48 c7 40 70 00
	00 00 00	 mov	 QWORD PTR [rax+112], 0

; 110  : 
; 111  : 	m_nDeleteInterval = 0;

  00157	48 8b 44 24 50	 mov	 rax, QWORD PTR this$[rsp]
  0015c	c7 80 10 01 00
	00 00 00 00 00	 mov	 DWORD PTR [rax+272], 0

; 112  : 	m_tDeleteGoal = 0;

  00166	48 8b 44 24 50	 mov	 rax, QWORD PTR this$[rsp]
  0016b	48 c7 80 08 01
	00 00 00 00 00
	00		 mov	 QWORD PTR [rax+264], 0

; 113  : }

  00176	48 8b 44 24 50	 mov	 rax, QWORD PTR this$[rsp]
  0017b	48 83 c4 48	 add	 rsp, 72			; 00000048H
  0017f	c3		 ret	 0
??0CLogger@@QEAA@XZ ENDP				; CLogger::CLogger
_TEXT	ENDS
; Function compile flags: /Odtp
;	COMDAT ?__autoclassinit2@CTimeExpManager@@QEAAX_K@Z
_TEXT	SEGMENT
this$ = 16
classSize$ = 24
?__autoclassinit2@CTimeExpManager@@QEAAX_K@Z PROC	; CTimeExpManager::__autoclassinit2, COMDAT
$LN3:
  00000	48 89 54 24 10	 mov	 QWORD PTR [rsp+16], rdx
  00005	48 89 4c 24 08	 mov	 QWORD PTR [rsp+8], rcx
  0000a	57		 push	 rdi
  0000b	48 8b 7c 24 10	 mov	 rdi, QWORD PTR this$[rsp]
  00010	33 c0		 xor	 eax, eax
  00012	48 8b 4c 24 18	 mov	 rcx, QWORD PTR classSize$[rsp]
  00017	f3 aa		 rep stosb
  00019	5f		 pop	 rdi
  0001a	c3		 ret	 0
?__autoclassinit2@CTimeExpManager@@QEAAX_K@Z ENDP	; CTimeExpManager::__autoclassinit2
_TEXT	ENDS
; Function compile flags: /Odtp
; File e:\infinia-library-3.0\com\src\comlogger.cpp
;	COMDAT ?getDTE@CTimeExpManager@@QEAAPEAUSTLogDateTimeExp@@H@Z
_TEXT	SEGMENT
this$ = 48
nIdx$ = 56
?getDTE@CTimeExpManager@@QEAAPEAUSTLogDateTimeExp@@H@Z PROC ; CTimeExpManager::getDTE, COMDAT

; 38   : STLogDateTimeExp *CTimeExpManager::getDTE(int nIdx) { if (!m_pTimeExpList) return NULL;  return (STLogDateTimeExp *)m_pTimeExpList->getObj(nIdx); }

$LN4:
  00000	89 54 24 10	 mov	 DWORD PTR [rsp+16], edx
  00004	48 89 4c 24 08	 mov	 QWORD PTR [rsp+8], rcx
  00009	48 83 ec 28	 sub	 rsp, 40			; 00000028H
  0000d	48 8b 44 24 30	 mov	 rax, QWORD PTR this$[rsp]
  00012	48 83 38 00	 cmp	 QWORD PTR [rax], 0
  00016	75 04		 jne	 SHORT $LN2@getDTE
  00018	33 c0		 xor	 eax, eax
  0001a	eb 11		 jmp	 SHORT $LN1@getDTE
$LN2@getDTE:
  0001c	8b 54 24 38	 mov	 edx, DWORD PTR nIdx$[rsp]
  00020	48 8b 44 24 30	 mov	 rax, QWORD PTR this$[rsp]
  00025	48 8b 08	 mov	 rcx, QWORD PTR [rax]
  00028	e8 00 00 00 00	 call	 ?getObj@CSList@@QEAAPEAXH@Z ; CSList::getObj
$LN1@getDTE:
  0002d	48 83 c4 28	 add	 rsp, 40			; 00000028H
  00031	c3		 ret	 0
?getDTE@CTimeExpManager@@QEAAPEAUSTLogDateTimeExp@@H@Z ENDP ; CTimeExpManager::getDTE
_TEXT	ENDS
; Function compile flags: /Odtp
; File e:\infinia-library-3.0\com\src\comlogger.cpp
;	COMDAT ?initConfig@CTimeExpManager@@QEAA_NPEAD@Z
_TEXT	SEGMENT
pDTE$ = 32
nCount$ = 40
i$ = 44
$T1 = 48
tv83 = 56
nDTESize$ = 64
$T2 = 72
$T3 = 80
szSection$ = 96
__$ArrayPad$ = 160
this$ = 192
pConfig$ = 200
?initConfig@CTimeExpManager@@QEAA_NPEAD@Z PROC		; CTimeExpManager::initConfig, COMDAT

; 41   : {

$LN13:
  00000	48 89 54 24 10	 mov	 QWORD PTR [rsp+16], rdx
  00005	48 89 4c 24 08	 mov	 QWORD PTR [rsp+8], rcx
  0000a	48 81 ec b8 00
	00 00		 sub	 rsp, 184		; 000000b8H
  00011	48 c7 44 24 50
	fe ff ff ff	 mov	 QWORD PTR $T3[rsp], -2
  0001a	48 8b 05 00 00
	00 00		 mov	 rax, QWORD PTR __security_cookie
  00021	48 33 c4	 xor	 rax, rsp
  00024	48 89 84 24 a0
	00 00 00	 mov	 QWORD PTR __$ArrayPad$[rsp], rax

; 42   : 	TCHAR szSection[64];
; 43   : 	STLogDateTimeExp *pDTE;
; 44   : 	size_t nDTESize = sizeof(STLogDateTimeExp);

  0002c	48 c7 44 24 40
	0c 00 00 00	 mov	 QWORD PTR nDTESize$[rsp], 12

; 45   : 	int nCount;
; 46   : 
; 47   : 
; 48   : 	nCount = GetPrivateProfileInt(_T("DATETIME_EXPRESSION"), _T("LIST_MAX"), 0, pConfig);

  00035	4c 8b 8c 24 c8
	00 00 00	 mov	 r9, QWORD PTR pConfig$[rsp]
  0003d	45 33 c0	 xor	 r8d, r8d
  00040	48 8d 15 00 00
	00 00		 lea	 rdx, OFFSET FLAT:$SG86365
  00047	48 8d 0d 00 00
	00 00		 lea	 rcx, OFFSET FLAT:$SG86366
  0004e	ff 15 00 00 00
	00		 call	 QWORD PTR __imp_GetPrivateProfileIntA
  00054	89 44 24 28	 mov	 DWORD PTR nCount$[rsp], eax

; 49   : 	int i;
; 50   : 	m_pTimeExpList = new CSList();

  00058	b9 20 00 00 00	 mov	 ecx, 32			; 00000020H
  0005d	e8 00 00 00 00	 call	 ??2@YAPEAX_K@Z		; operator new
  00062	48 89 44 24 30	 mov	 QWORD PTR $T1[rsp], rax
  00067	48 83 7c 24 30
	00		 cmp	 QWORD PTR $T1[rsp], 0
  0006d	74 20		 je	 SHORT $LN10@initConfig
  0006f	ba 20 00 00 00	 mov	 edx, 32			; 00000020H
  00074	48 8b 4c 24 30	 mov	 rcx, QWORD PTR $T1[rsp]
  00079	e8 00 00 00 00	 call	 ?__autoclassinit2@CSList@@QEAAX_K@Z
  0007e	48 8b 4c 24 30	 mov	 rcx, QWORD PTR $T1[rsp]
  00083	e8 00 00 00 00	 call	 ??0CSList@@QEAA@XZ	; CSList::CSList
  00088	48 89 44 24 38	 mov	 QWORD PTR tv83[rsp], rax
  0008d	eb 09		 jmp	 SHORT $LN11@initConfig
$LN10@initConfig:
  0008f	48 c7 44 24 38
	00 00 00 00	 mov	 QWORD PTR tv83[rsp], 0
$LN11@initConfig:
  00098	48 8b 44 24 38	 mov	 rax, QWORD PTR tv83[rsp]
  0009d	48 89 44 24 48	 mov	 QWORD PTR $T2[rsp], rax
  000a2	48 8b 84 24 c0
	00 00 00	 mov	 rax, QWORD PTR this$[rsp]
  000aa	48 8b 4c 24 48	 mov	 rcx, QWORD PTR $T2[rsp]
  000af	48 89 08	 mov	 QWORD PTR [rax], rcx

; 51   : 	if (!m_pTimeExpList) {

  000b2	48 8b 84 24 c0
	00 00 00	 mov	 rax, QWORD PTR this$[rsp]
  000ba	48 83 38 00	 cmp	 QWORD PTR [rax], 0
  000be	75 20		 jne	 SHORT $LN5@initConfig

; 52   : 		printf("new CList() is NULL!\t%s%d\n", __FUNCTION__, __LINE__);

  000c0	41 b8 34 00 00
	00		 mov	 r8d, 52			; 00000034H
  000c6	48 8d 15 00 00
	00 00		 lea	 rdx, OFFSET FLAT:$SG86369
  000cd	48 8d 0d 00 00
	00 00		 lea	 rcx, OFFSET FLAT:$SG86370
  000d4	e8 00 00 00 00	 call	 printf

; 53   : 		return false;

  000d9	32 c0		 xor	 al, al
  000db	e9 0d 02 00 00	 jmp	 $LN1@initConfig
$LN5@initConfig:

; 54   : 	}
; 55   : 	if (!m_pTimeExpList->alloc(nCount + LIST_ADD_COUNT, eAlloc_Type_alloc)) {

  000e0	8b 44 24 28	 mov	 eax, DWORD PTR nCount$[rsp]
  000e4	83 c0 0a	 add	 eax, 10
  000e7	41 b8 03 00 00
	00		 mov	 r8d, 3
  000ed	8b d0		 mov	 edx, eax
  000ef	48 8b 84 24 c0
	00 00 00	 mov	 rax, QWORD PTR this$[rsp]
  000f7	48 8b 08	 mov	 rcx, QWORD PTR [rax]
  000fa	e8 00 00 00 00	 call	 ?alloc@CSList@@QEAAHHW4E_ALLOC_TYPE@@@Z ; CSList::alloc
  000ff	85 c0		 test	 eax, eax
  00101	75 20		 jne	 SHORT $LN6@initConfig

; 56   : 		printf("m_pTimeExpList->alloc has Failed!\t%s%d\n", __FUNCTION__, __LINE__);

  00103	41 b8 38 00 00
	00		 mov	 r8d, 56			; 00000038H
  00109	48 8d 15 00 00
	00 00		 lea	 rdx, OFFSET FLAT:$SG86372
  00110	48 8d 0d 00 00
	00 00		 lea	 rcx, OFFSET FLAT:$SG86373
  00117	e8 00 00 00 00	 call	 printf

; 57   : 		return false;

  0011c	32 c0		 xor	 al, al
  0011e	e9 ca 01 00 00	 jmp	 $LN1@initConfig
$LN6@initConfig:

; 58   : 	}
; 59   : 	
; 60   : 	// Default
; 61   : 	if (!nCount) {

  00123	83 7c 24 28 00	 cmp	 DWORD PTR nCount$[rsp], 0
  00128	75 70		 jne	 SHORT $LN7@initConfig

; 62   : 		nCount = 1;

  0012a	c7 44 24 28 01
	00 00 00	 mov	 DWORD PTR nCount$[rsp], 1

; 63   : 		pDTE = (STLogDateTimeExp *)malloc(nDTESize);

  00132	48 8b 4c 24 40	 mov	 rcx, QWORD PTR nDTESize$[rsp]
  00137	ff 15 00 00 00
	00		 call	 QWORD PTR __imp_malloc
  0013d	48 89 44 24 20	 mov	 QWORD PTR pDTE$[rsp], rax

; 64   : 		pDTE->bTimeDelimeter = 1;

  00142	48 8b 44 24 20	 mov	 rax, QWORD PTR pDTE$[rsp]
  00147	c6 40 02 01	 mov	 BYTE PTR [rax+2], 1

; 65   : 		pDTE->cDateDelimeter = '/';

  0014b	48 8b 44 24 20	 mov	 rax, QWORD PTR pDTE$[rsp]
  00150	c6 40 01 2f	 mov	 BYTE PTR [rax+1], 47	; 0000002fH

; 66   : 		pDTE->bBracketEnclosed = 1;

  00154	48 8b 44 24 20	 mov	 rax, QWORD PTR pDTE$[rsp]
  00159	c6 00 01	 mov	 BYTE PTR [rax], 1

; 67   : 		pDTE->nLastType = DT_MILLISEC;

  0015c	48 8b 44 24 20	 mov	 rax, QWORD PTR pDTE$[rsp]
  00161	c7 40 04 02 00
	00 00		 mov	 DWORD PTR [rax+4], 2

; 68   : 		pDTE->nYearLen = 4;

  00168	48 8b 44 24 20	 mov	 rax, QWORD PTR pDTE$[rsp]
  0016d	c6 40 03 04	 mov	 BYTE PTR [rax+3], 4

; 69   : 		pDTE->nTZType = TZ_NONE;

  00171	48 8b 44 24 20	 mov	 rax, QWORD PTR pDTE$[rsp]
  00176	c7 40 08 00 00
	00 00		 mov	 DWORD PTR [rax+8], 0

; 70   : 		m_pTimeExpList->push_back(pDTE);

  0017d	45 33 c0	 xor	 r8d, r8d
  00180	48 8b 54 24 20	 mov	 rdx, QWORD PTR pDTE$[rsp]
  00185	48 8b 84 24 c0
	00 00 00	 mov	 rax, QWORD PTR this$[rsp]
  0018d	48 8b 08	 mov	 rcx, QWORD PTR [rax]
  00190	e8 00 00 00 00	 call	 ?push_back@CSList@@QEAA_NPEAXPEAH@Z ; CSList::push_back

; 71   : 	}
; 72   : 	else {

  00195	e9 51 01 00 00	 jmp	 $LN8@initConfig
$LN7@initConfig:

; 73   : 		for (i = 0; i < nCount; i++) {

  0019a	c7 44 24 2c 00
	00 00 00	 mov	 DWORD PTR i$[rsp], 0
  001a2	eb 0a		 jmp	 SHORT $LN4@initConfig
$LN2@initConfig:
  001a4	8b 44 24 2c	 mov	 eax, DWORD PTR i$[rsp]
  001a8	ff c0		 inc	 eax
  001aa	89 44 24 2c	 mov	 DWORD PTR i$[rsp], eax
$LN4@initConfig:
  001ae	8b 44 24 28	 mov	 eax, DWORD PTR nCount$[rsp]
  001b2	39 44 24 2c	 cmp	 DWORD PTR i$[rsp], eax
  001b6	0f 8d 2f 01 00
	00		 jge	 $LN8@initConfig

; 74   : 			pDTE = (STLogDateTimeExp *)malloc(nDTESize);

  001bc	48 8b 4c 24 40	 mov	 rcx, QWORD PTR nDTESize$[rsp]
  001c1	ff 15 00 00 00
	00		 call	 QWORD PTR __imp_malloc
  001c7	48 89 44 24 20	 mov	 QWORD PTR pDTE$[rsp], rax

; 75   : 			_stprintf(szSection, _T("DATETIME_EXPRESSION_%d"), i);

  001cc	44 8b 44 24 2c	 mov	 r8d, DWORD PTR i$[rsp]
  001d1	48 8d 15 00 00
	00 00		 lea	 rdx, OFFSET FLAT:$SG86376
  001d8	48 8d 4c 24 60	 lea	 rcx, QWORD PTR szSection$[rsp]
  001dd	e8 00 00 00 00	 call	 sprintf

; 76   : 			pDTE->bTimeDelimeter = GetPrivateProfileInt(szSection, _T("IS_TIME_DELIMETER"), 1, pConfig);

  001e2	4c 8b 8c 24 c8
	00 00 00	 mov	 r9, QWORD PTR pConfig$[rsp]
  001ea	41 b8 01 00 00
	00		 mov	 r8d, 1
  001f0	48 8d 15 00 00
	00 00		 lea	 rdx, OFFSET FLAT:$SG86377
  001f7	48 8d 4c 24 60	 lea	 rcx, QWORD PTR szSection$[rsp]
  001fc	ff 15 00 00 00
	00		 call	 QWORD PTR __imp_GetPrivateProfileIntA
  00202	48 8b 4c 24 20	 mov	 rcx, QWORD PTR pDTE$[rsp]
  00207	88 41 02	 mov	 BYTE PTR [rcx+2], al

; 77   : 			pDTE->cDateDelimeter = (char)GetPrivateProfileInt(szSection, _T("DATE_DELIMETER"), '/', pConfig);

  0020a	4c 8b 8c 24 c8
	00 00 00	 mov	 r9, QWORD PTR pConfig$[rsp]
  00212	41 b8 2f 00 00
	00		 mov	 r8d, 47			; 0000002fH
  00218	48 8d 15 00 00
	00 00		 lea	 rdx, OFFSET FLAT:$SG86378
  0021f	48 8d 4c 24 60	 lea	 rcx, QWORD PTR szSection$[rsp]
  00224	ff 15 00 00 00
	00		 call	 QWORD PTR __imp_GetPrivateProfileIntA
  0022a	48 8b 4c 24 20	 mov	 rcx, QWORD PTR pDTE$[rsp]
  0022f	88 41 01	 mov	 BYTE PTR [rcx+1], al

; 78   : 			pDTE->bBracketEnclosed = GetPrivateProfileInt(szSection, _T("IS_BRACKET_ENCLOSED"), 1, pConfig);

  00232	4c 8b 8c 24 c8
	00 00 00	 mov	 r9, QWORD PTR pConfig$[rsp]
  0023a	41 b8 01 00 00
	00		 mov	 r8d, 1
  00240	48 8d 15 00 00
	00 00		 lea	 rdx, OFFSET FLAT:$SG86379
  00247	48 8d 4c 24 60	 lea	 rcx, QWORD PTR szSection$[rsp]
  0024c	ff 15 00 00 00
	00		 call	 QWORD PTR __imp_GetPrivateProfileIntA
  00252	48 8b 4c 24 20	 mov	 rcx, QWORD PTR pDTE$[rsp]
  00257	88 01		 mov	 BYTE PTR [rcx], al

; 79   : 			pDTE->nLastType = (DT_TYPE)GetPrivateProfileInt(szSection, _T("LAST_TYPE"), DT_MILLISEC, pConfig);

  00259	4c 8b 8c 24 c8
	00 00 00	 mov	 r9, QWORD PTR pConfig$[rsp]
  00261	41 b8 02 00 00
	00		 mov	 r8d, 2
  00267	48 8d 15 00 00
	00 00		 lea	 rdx, OFFSET FLAT:$SG86380
  0026e	48 8d 4c 24 60	 lea	 rcx, QWORD PTR szSection$[rsp]
  00273	ff 15 00 00 00
	00		 call	 QWORD PTR __imp_GetPrivateProfileIntA
  00279	48 8b 4c 24 20	 mov	 rcx, QWORD PTR pDTE$[rsp]
  0027e	89 41 04	 mov	 DWORD PTR [rcx+4], eax

; 80   : 			pDTE->nYearLen = GetPrivateProfileInt(szSection, _T("YEAR_LEN"), 4, pConfig);

  00281	4c 8b 8c 24 c8
	00 00 00	 mov	 r9, QWORD PTR pConfig$[rsp]
  00289	41 b8 04 00 00
	00		 mov	 r8d, 4
  0028f	48 8d 15 00 00
	00 00		 lea	 rdx, OFFSET FLAT:$SG86381
  00296	48 8d 4c 24 60	 lea	 rcx, QWORD PTR szSection$[rsp]
  0029b	ff 15 00 00 00
	00		 call	 QWORD PTR __imp_GetPrivateProfileIntA
  002a1	48 8b 4c 24 20	 mov	 rcx, QWORD PTR pDTE$[rsp]
  002a6	88 41 03	 mov	 BYTE PTR [rcx+3], al

; 81   : 			pDTE->nTZType = (TZ_TYPE)GetPrivateProfileInt(szSection, _T("TZ_TYPE"), TZ_NONE, pConfig);

  002a9	4c 8b 8c 24 c8
	00 00 00	 mov	 r9, QWORD PTR pConfig$[rsp]
  002b1	45 33 c0	 xor	 r8d, r8d
  002b4	48 8d 15 00 00
	00 00		 lea	 rdx, OFFSET FLAT:$SG86382
  002bb	48 8d 4c 24 60	 lea	 rcx, QWORD PTR szSection$[rsp]
  002c0	ff 15 00 00 00
	00		 call	 QWORD PTR __imp_GetPrivateProfileIntA
  002c6	48 8b 4c 24 20	 mov	 rcx, QWORD PTR pDTE$[rsp]
  002cb	89 41 08	 mov	 DWORD PTR [rcx+8], eax

; 82   : 			m_pTimeExpList->push_back(pDTE);

  002ce	45 33 c0	 xor	 r8d, r8d
  002d1	48 8b 54 24 20	 mov	 rdx, QWORD PTR pDTE$[rsp]
  002d6	48 8b 84 24 c0
	00 00 00	 mov	 rax, QWORD PTR this$[rsp]
  002de	48 8b 08	 mov	 rcx, QWORD PTR [rax]
  002e1	e8 00 00 00 00	 call	 ?push_back@CSList@@QEAA_NPEAXPEAH@Z ; CSList::push_back

; 83   : 		}

  002e6	e9 b9 fe ff ff	 jmp	 $LN2@initConfig
$LN8@initConfig:

; 84   : 	}
; 85   : 	return true;

  002eb	b0 01		 mov	 al, 1
$LN1@initConfig:

; 86   : }

  002ed	48 8b 8c 24 a0
	00 00 00	 mov	 rcx, QWORD PTR __$ArrayPad$[rsp]
  002f5	48 33 cc	 xor	 rcx, rsp
  002f8	e8 00 00 00 00	 call	 __security_check_cookie
  002fd	48 81 c4 b8 00
	00 00		 add	 rsp, 184		; 000000b8H
  00304	c3		 ret	 0
?initConfig@CTimeExpManager@@QEAA_NPEAD@Z ENDP		; CTimeExpManager::initConfig
_TEXT	ENDS
;	COMDAT text$x
text$x	SEGMENT
pDTE$ = 32
nCount$ = 40
i$ = 44
$T1 = 48
tv83 = 56
nDTESize$ = 64
$T2 = 72
$T3 = 80
szSection$ = 96
__$ArrayPad$ = 160
this$ = 192
pConfig$ = 200
?dtor$0@?0??initConfig@CTimeExpManager@@QEAA_NPEAD@Z@4HA PROC ; `CTimeExpManager::initConfig'::`1'::dtor$0
  00000	40 55		 push	 rbp
  00002	48 83 ec 20	 sub	 rsp, 32			; 00000020H
  00006	48 8b ea	 mov	 rbp, rdx
  00009	ba 20 00 00 00	 mov	 edx, 32			; 00000020H
  0000e	48 8b 4d 30	 mov	 rcx, QWORD PTR $T1[rbp]
  00012	e8 00 00 00 00	 call	 ??3@YAXPEAX_K@Z		; operator delete
  00017	48 83 c4 20	 add	 rsp, 32			; 00000020H
  0001b	5d		 pop	 rbp
  0001c	c3		 ret	 0
?dtor$0@?0??initConfig@CTimeExpManager@@QEAA_NPEAD@Z@4HA ENDP ; `CTimeExpManager::initConfig'::`1'::dtor$0
text$x	ENDS
; Function compile flags: /Odtp
;	COMDAT text$x
text$x	SEGMENT
pDTE$ = 32
nCount$ = 40
i$ = 44
$T1 = 48
tv83 = 56
nDTESize$ = 64
$T2 = 72
$T3 = 80
szSection$ = 96
__$ArrayPad$ = 160
this$ = 192
pConfig$ = 200
?dtor$0@?0??initConfig@CTimeExpManager@@QEAA_NPEAD@Z@4HA PROC ; `CTimeExpManager::initConfig'::`1'::dtor$0
  00000	40 55		 push	 rbp
  00002	48 83 ec 20	 sub	 rsp, 32			; 00000020H
  00006	48 8b ea	 mov	 rbp, rdx
  00009	ba 20 00 00 00	 mov	 edx, 32			; 00000020H
  0000e	48 8b 4d 30	 mov	 rcx, QWORD PTR $T1[rbp]
  00012	e8 00 00 00 00	 call	 ??3@YAXPEAX_K@Z		; operator delete
  00017	48 83 c4 20	 add	 rsp, 32			; 00000020H
  0001b	5d		 pop	 rbp
  0001c	c3		 ret	 0
?dtor$0@?0??initConfig@CTimeExpManager@@QEAA_NPEAD@Z@4HA ENDP ; `CTimeExpManager::initConfig'::`1'::dtor$0
text$x	ENDS
; Function compile flags: /Odtp
; File e:\infinia-library-3.0\com\src\comlogger.cpp
;	COMDAT ??1CTimeExpManager@@QEAA@XZ
_TEXT	SEGMENT
$T1 = 32
$T2 = 40
tv71 = 48
this$ = 80
??1CTimeExpManager@@QEAA@XZ PROC			; CTimeExpManager::~CTimeExpManager, COMDAT

; 34   : {

$LN6:
  00000	48 89 4c 24 08	 mov	 QWORD PTR [rsp+8], rcx
  00005	48 83 ec 48	 sub	 rsp, 72			; 00000048H

; 35   : 	if (m_pTimeExpList) delete m_pTimeExpList; //  malloc   destroy

  00009	48 8b 44 24 50	 mov	 rax, QWORD PTR this$[rsp]
  0000e	48 83 38 00	 cmp	 QWORD PTR [rax], 0
  00012	74 3e		 je	 SHORT $LN2@CTimeExpMa
  00014	48 8b 44 24 50	 mov	 rax, QWORD PTR this$[rsp]
  00019	48 8b 00	 mov	 rax, QWORD PTR [rax]
  0001c	48 89 44 24 28	 mov	 QWORD PTR $T2[rsp], rax
  00021	48 8b 44 24 28	 mov	 rax, QWORD PTR $T2[rsp]
  00026	48 89 44 24 20	 mov	 QWORD PTR $T1[rsp], rax
  0002b	48 83 7c 24 20
	00		 cmp	 QWORD PTR $T1[rsp], 0
  00031	74 16		 je	 SHORT $LN4@CTimeExpMa
  00033	ba 01 00 00 00	 mov	 edx, 1
  00038	48 8b 4c 24 20	 mov	 rcx, QWORD PTR $T1[rsp]
  0003d	e8 00 00 00 00	 call	 ??_GCSList@@QEAAPEAXI@Z
  00042	48 89 44 24 30	 mov	 QWORD PTR tv71[rsp], rax
  00047	eb 09		 jmp	 SHORT $LN2@CTimeExpMa
$LN4@CTimeExpMa:
  00049	48 c7 44 24 30
	00 00 00 00	 mov	 QWORD PTR tv71[rsp], 0
$LN2@CTimeExpMa:

; 36   : }

  00052	48 83 c4 48	 add	 rsp, 72			; 00000048H
  00056	c3		 ret	 0
??1CTimeExpManager@@QEAA@XZ ENDP			; CTimeExpManager::~CTimeExpManager
_TEXT	ENDS
; Function compile flags: /Odtp
; File e:\infinia-library-3.0\com\src\comlogger.cpp
