; Listing generated by Microsoft (R) Optimizing Compiler Version 19.00.24215.1 

include listing.inc

INCLUDELIB MSVCRT
INCLUDELIB OLDNAMES

_DATA	SEGMENT
$SG85916 DB	'%d', 00H
_DATA	ENDS
PUBLIC	PutPrivateProfileInt
PUBLIC	PutPrivateProfileString
PUBLIC	SavePrivateProfile
PUBLIC	confEntryDestroy
PUBLIC	__local_stdio_printf_options
PUBLIC	_vsnprintf_l
PUBLIC	_vsprintf_l
PUBLIC	sprintf
EXTRN	__imp___stdio_common_vsprintf:PROC
EXTRN	__imp_WritePrivateProfileStringA:PROC
EXTRN	__GSHandlerCheck:PROC
EXTRN	__security_check_cookie:PROC
EXTRN	__security_cookie:QWORD
_DATA	SEGMENT
COMM	?_OptionsStorage@?1??__local_stdio_printf_options@@9@9:QWORD							; `__local_stdio_printf_options'::`2'::_OptionsStorage
_DATA	ENDS
;	COMDAT pdata
pdata	SEGMENT
$pdata$PutPrivateProfileInt DD imagerel $LN3
	DD	imagerel $LN3+124
	DD	imagerel $unwind$PutPrivateProfileInt
pdata	ENDS
;	COMDAT pdata
pdata	SEGMENT
$pdata$PutPrivateProfileString DD imagerel $LN3
	DD	imagerel $LN3+55
	DD	imagerel $unwind$PutPrivateProfileString
pdata	ENDS
;	COMDAT pdata
pdata	SEGMENT
$pdata$_vsnprintf_l DD imagerel $LN5
	DD	imagerel $LN5+118
	DD	imagerel $unwind$_vsnprintf_l
pdata	ENDS
;	COMDAT pdata
pdata	SEGMENT
$pdata$_vsprintf_l DD imagerel $LN3
	DD	imagerel $LN3+66
	DD	imagerel $unwind$_vsprintf_l
pdata	ENDS
;	COMDAT pdata
pdata	SEGMENT
$pdata$sprintf DD imagerel $LN3
	DD	imagerel $LN3+107
	DD	imagerel $unwind$sprintf
pdata	ENDS
;	COMDAT xdata
xdata	SEGMENT
$unwind$sprintf DD 012719H
	DD	08218H
	DD	imagerel __GSHandlerCheck
	DD	030H
xdata	ENDS
;	COMDAT xdata
xdata	SEGMENT
$unwind$_vsprintf_l DD 011801H
	DD	06218H
xdata	ENDS
;	COMDAT xdata
xdata	SEGMENT
$unwind$_vsnprintf_l DD 011801H
	DD	08218H
xdata	ENDS
;	COMDAT xdata
xdata	SEGMENT
$unwind$PutPrivateProfileString DD 011801H
	DD	04218H
xdata	ENDS
;	COMDAT xdata
xdata	SEGMENT
$unwind$PutPrivateProfileInt DD 022819H
	DD	070159219H
	DD	imagerel __GSHandlerCheck
	DD	040H
xdata	ENDS
; Function compile flags: /Odtp
; File c:\program files (x86)\windows kits\10\include\10.0.10240.0\ucrt\stdio.h
;	COMDAT sprintf
_TEXT	SEGMENT
_Result$ = 32
_ArgList$ = 40
__$ArrayPad$ = 48
_Buffer$ = 80
_Format$ = 88
sprintf	PROC						; COMDAT

; 1776 : {

$LN3:
  00000	48 89 54 24 10	 mov	 QWORD PTR [rsp+16], rdx
  00005	48 89 4c 24 08	 mov	 QWORD PTR [rsp+8], rcx
  0000a	4c 89 44 24 18	 mov	 QWORD PTR [rsp+24], r8
  0000f	4c 89 4c 24 20	 mov	 QWORD PTR [rsp+32], r9
  00014	48 83 ec 48	 sub	 rsp, 72			; 00000048H
  00018	48 8b 05 00 00
	00 00		 mov	 rax, QWORD PTR __security_cookie
  0001f	48 33 c4	 xor	 rax, rsp
  00022	48 89 44 24 30	 mov	 QWORD PTR __$ArrayPad$[rsp], rax

; 1777 :     int _Result;
; 1778 :     va_list _ArgList;
; 1779 :     __crt_va_start(_ArgList, _Format);

  00027	48 8d 44 24 60	 lea	 rax, QWORD PTR _Format$[rsp+8]
  0002c	48 89 44 24 28	 mov	 QWORD PTR _ArgList$[rsp], rax

; 1780 : 
; 1781 :     #pragma warning(push)
; 1782 :     #pragma warning(disable: 4996) // Deprecation
; 1783 :     _Result = _vsprintf_l(_Buffer, _Format, NULL, _ArgList);

  00031	4c 8b 4c 24 28	 mov	 r9, QWORD PTR _ArgList$[rsp]
  00036	45 33 c0	 xor	 r8d, r8d
  00039	48 8b 54 24 58	 mov	 rdx, QWORD PTR _Format$[rsp]
  0003e	48 8b 4c 24 50	 mov	 rcx, QWORD PTR _Buffer$[rsp]
  00043	e8 00 00 00 00	 call	 _vsprintf_l
  00048	89 44 24 20	 mov	 DWORD PTR _Result$[rsp], eax

; 1784 :     #pragma warning(pop)
; 1785 : 
; 1786 :     __crt_va_end(_ArgList);

  0004c	48 c7 44 24 28
	00 00 00 00	 mov	 QWORD PTR _ArgList$[rsp], 0

; 1787 :     return _Result;

  00055	8b 44 24 20	 mov	 eax, DWORD PTR _Result$[rsp]

; 1788 : }

  00059	48 8b 4c 24 30	 mov	 rcx, QWORD PTR __$ArrayPad$[rsp]
  0005e	48 33 cc	 xor	 rcx, rsp
  00061	e8 00 00 00 00	 call	 __security_check_cookie
  00066	48 83 c4 48	 add	 rsp, 72			; 00000048H
  0006a	c3		 ret	 0
sprintf	ENDP
_TEXT	ENDS
; Function compile flags: /Odtp
; File c:\program files (x86)\windows kits\10\include\10.0.10240.0\ucrt\stdio.h
;	COMDAT _vsprintf_l
_TEXT	SEGMENT
_Buffer$ = 64
_Format$ = 72
_Locale$ = 80
_ArgList$ = 88
_vsprintf_l PROC					; COMDAT

; 1455 : {

$LN3:
  00000	4c 89 4c 24 20	 mov	 QWORD PTR [rsp+32], r9
  00005	4c 89 44 24 18	 mov	 QWORD PTR [rsp+24], r8
  0000a	48 89 54 24 10	 mov	 QWORD PTR [rsp+16], rdx
  0000f	48 89 4c 24 08	 mov	 QWORD PTR [rsp+8], rcx
  00014	48 83 ec 38	 sub	 rsp, 56			; 00000038H

; 1456 :     #pragma warning(push)
; 1457 :     #pragma warning(disable: 4996) // Deprecation
; 1458 :     return _vsnprintf_l(_Buffer, (size_t)-1, _Format, _Locale, _ArgList);

  00018	48 8b 44 24 58	 mov	 rax, QWORD PTR _ArgList$[rsp]
  0001d	48 89 44 24 20	 mov	 QWORD PTR [rsp+32], rax
  00022	4c 8b 4c 24 50	 mov	 r9, QWORD PTR _Locale$[rsp]
  00027	4c 8b 44 24 48	 mov	 r8, QWORD PTR _Format$[rsp]
  0002c	48 c7 c2 ff ff
	ff ff		 mov	 rdx, -1
  00033	48 8b 4c 24 40	 mov	 rcx, QWORD PTR _Buffer$[rsp]
  00038	e8 00 00 00 00	 call	 _vsnprintf_l

; 1459 :     #pragma warning(pop)
; 1460 : }

  0003d	48 83 c4 38	 add	 rsp, 56			; 00000038H
  00041	c3		 ret	 0
_vsprintf_l ENDP
_TEXT	ENDS
; Function compile flags: /Odtp
; File c:\program files (x86)\windows kits\10\include\10.0.10240.0\ucrt\stdio.h
;	COMDAT _vsnprintf_l
_TEXT	SEGMENT
_Result$ = 48
tv74 = 52
_Buffer$ = 80
_BufferCount$ = 88
_Format$ = 96
_Locale$ = 104
_ArgList$ = 112
_vsnprintf_l PROC					; COMDAT

; 1385 : {

$LN5:
  00000	4c 89 4c 24 20	 mov	 QWORD PTR [rsp+32], r9
  00005	4c 89 44 24 18	 mov	 QWORD PTR [rsp+24], r8
  0000a	48 89 54 24 10	 mov	 QWORD PTR [rsp+16], rdx
  0000f	48 89 4c 24 08	 mov	 QWORD PTR [rsp+8], rcx
  00014	48 83 ec 48	 sub	 rsp, 72			; 00000048H

; 1386 :     int const _Result = __stdio_common_vsprintf(

  00018	e8 00 00 00 00	 call	 __local_stdio_printf_options
  0001d	48 8b 00	 mov	 rax, QWORD PTR [rax]
  00020	48 83 c8 01	 or	 rax, 1
  00024	48 8b 4c 24 70	 mov	 rcx, QWORD PTR _ArgList$[rsp]
  00029	48 89 4c 24 28	 mov	 QWORD PTR [rsp+40], rcx
  0002e	48 8b 4c 24 68	 mov	 rcx, QWORD PTR _Locale$[rsp]
  00033	48 89 4c 24 20	 mov	 QWORD PTR [rsp+32], rcx
  00038	4c 8b 4c 24 60	 mov	 r9, QWORD PTR _Format$[rsp]
  0003d	4c 8b 44 24 58	 mov	 r8, QWORD PTR _BufferCount$[rsp]
  00042	48 8b 54 24 50	 mov	 rdx, QWORD PTR _Buffer$[rsp]
  00047	48 8b c8	 mov	 rcx, rax
  0004a	ff 15 00 00 00
	00		 call	 QWORD PTR __imp___stdio_common_vsprintf
  00050	89 44 24 30	 mov	 DWORD PTR _Result$[rsp], eax

; 1387 :         _CRT_INTERNAL_LOCAL_PRINTF_OPTIONS | _CRT_INTERNAL_PRINTF_LEGACY_VSPRINTF_NULL_TERMINATION,
; 1388 :         _Buffer, _BufferCount, _Format, _Locale, _ArgList);
; 1389 : 
; 1390 :     return _Result < 0 ? -1 : _Result;

  00054	83 7c 24 30 00	 cmp	 DWORD PTR _Result$[rsp], 0
  00059	7d 0a		 jge	 SHORT $LN3@vsnprintf_
  0005b	c7 44 24 34 ff
	ff ff ff	 mov	 DWORD PTR tv74[rsp], -1
  00063	eb 08		 jmp	 SHORT $LN4@vsnprintf_
$LN3@vsnprintf_:
  00065	8b 44 24 30	 mov	 eax, DWORD PTR _Result$[rsp]
  00069	89 44 24 34	 mov	 DWORD PTR tv74[rsp], eax
$LN4@vsnprintf_:
  0006d	8b 44 24 34	 mov	 eax, DWORD PTR tv74[rsp]

; 1391 : }

  00071	48 83 c4 48	 add	 rsp, 72			; 00000048H
  00075	c3		 ret	 0
_vsnprintf_l ENDP
_TEXT	ENDS
; Function compile flags: /Odtp
; File c:\program files (x86)\windows kits\10\include\10.0.10240.0\ucrt\corecrt_stdio_config.h
;	COMDAT __local_stdio_printf_options
_TEXT	SEGMENT
__local_stdio_printf_options PROC			; COMDAT

; 74   :     static unsigned __int64 _OptionsStorage;
; 75   :     return &_OptionsStorage;

  00000	48 8d 05 00 00
	00 00		 lea	 rax, OFFSET FLAT:?_OptionsStorage@?1??__local_stdio_printf_options@@9@9 ; `__local_stdio_printf_options'::`2'::_OptionsStorage

; 76   : }

  00007	c3		 ret	 0
__local_stdio_printf_options ENDP
_TEXT	ENDS
; Function compile flags: /Odtp
; File e:\infinia-library-3.0\com\src\comprofileutil.c
;	COMDAT confEntryDestroy
_TEXT	SEGMENT
confEntryDestroy PROC					; COMDAT

; 638  : void  confEntryDestroy() {}

  00000	c3		 ret	 0
confEntryDestroy ENDP
_TEXT	ENDS
; Function compile flags: /Odtp
; File e:\infinia-library-3.0\com\src\comprofileutil.c
;	COMDAT SavePrivateProfile
_TEXT	SEGMENT
SavePrivateProfile PROC					; COMDAT

; 637  : void  SavePrivateProfile() {}

  00000	c3		 ret	 0
SavePrivateProfile ENDP
_TEXT	ENDS
; Function compile flags: /Odtp
; File e:\infinia-library-3.0\com\src\comprofileutil.c
;	COMDAT PutPrivateProfileString
_TEXT	SEGMENT
section$ = 48
key$ = 56
val$ = 64
fName$ = 72
PutPrivateProfileString PROC				; COMDAT

; 629  : {

$LN3:
  00000	4c 89 4c 24 20	 mov	 QWORD PTR [rsp+32], r9
  00005	4c 89 44 24 18	 mov	 QWORD PTR [rsp+24], r8
  0000a	48 89 54 24 10	 mov	 QWORD PTR [rsp+16], rdx
  0000f	48 89 4c 24 08	 mov	 QWORD PTR [rsp+8], rcx
  00014	48 83 ec 28	 sub	 rsp, 40			; 00000028H

; 630  : #ifndef UNICODE
; 631  : 	WritePrivateProfileStringA(section, key, val, fName);

  00018	4c 8b 4c 24 48	 mov	 r9, QWORD PTR fName$[rsp]
  0001d	4c 8b 44 24 40	 mov	 r8, QWORD PTR val$[rsp]
  00022	48 8b 54 24 38	 mov	 rdx, QWORD PTR key$[rsp]
  00027	48 8b 4c 24 30	 mov	 rcx, QWORD PTR section$[rsp]
  0002c	ff 15 00 00 00
	00		 call	 QWORD PTR __imp_WritePrivateProfileStringA

; 632  : #else
; 633  : 	WritePrivateProfileString(section, key, val, fName);
; 634  : #endif
; 635  : }

  00032	48 83 c4 28	 add	 rsp, 40			; 00000028H
  00036	c3		 ret	 0
PutPrivateProfileString ENDP
_TEXT	ENDS
; Function compile flags: /Odtp
; File e:\infinia-library-3.0\com\src\comprofileutil.c
;	COMDAT PutPrivateProfileInt
_TEXT	SEGMENT
szVal$ = 32
__$ArrayPad$ = 64
section$ = 96
key$ = 104
val$ = 112
fName$ = 120
PutPrivateProfileInt PROC				; COMDAT

; 613  : {

$LN3:
  00000	4c 89 4c 24 20	 mov	 QWORD PTR [rsp+32], r9
  00005	44 89 44 24 18	 mov	 DWORD PTR [rsp+24], r8d
  0000a	48 89 54 24 10	 mov	 QWORD PTR [rsp+16], rdx
  0000f	48 89 4c 24 08	 mov	 QWORD PTR [rsp+8], rcx
  00014	57		 push	 rdi
  00015	48 83 ec 50	 sub	 rsp, 80			; 00000050H
  00019	48 8b 05 00 00
	00 00		 mov	 rax, QWORD PTR __security_cookie
  00020	48 33 c4	 xor	 rax, rsp
  00023	48 89 44 24 40	 mov	 QWORD PTR __$ArrayPad$[rsp], rax

; 614  : 	TCHAR	szVal[32];
; 615  : 
; 616  : 	memset(szVal, 0x00, sizeof(szVal));

  00028	48 8d 44 24 20	 lea	 rax, QWORD PTR szVal$[rsp]
  0002d	48 8b f8	 mov	 rdi, rax
  00030	33 c0		 xor	 eax, eax
  00032	b9 20 00 00 00	 mov	 ecx, 32			; 00000020H
  00037	f3 aa		 rep stosb

; 617  : 	_stprintf(szVal, _T("%d"), val);

  00039	44 8b 44 24 70	 mov	 r8d, DWORD PTR val$[rsp]
  0003e	48 8d 15 00 00
	00 00		 lea	 rdx, OFFSET FLAT:$SG85916
  00045	48 8d 4c 24 20	 lea	 rcx, QWORD PTR szVal$[rsp]
  0004a	e8 00 00 00 00	 call	 sprintf

; 618  : #ifndef UNICODE
; 619  : 	WritePrivateProfileStringA(section, key, szVal, fName);

  0004f	4c 8b 4c 24 78	 mov	 r9, QWORD PTR fName$[rsp]
  00054	4c 8d 44 24 20	 lea	 r8, QWORD PTR szVal$[rsp]
  00059	48 8b 54 24 68	 mov	 rdx, QWORD PTR key$[rsp]
  0005e	48 8b 4c 24 60	 mov	 rcx, QWORD PTR section$[rsp]
  00063	ff 15 00 00 00
	00		 call	 QWORD PTR __imp_WritePrivateProfileStringA

; 620  : #else
; 621  : 	WritePrivateProfileString(section, key, szVal, fName);
; 622  : #endif
; 623  : 
; 624  : }

  00069	48 8b 4c 24 40	 mov	 rcx, QWORD PTR __$ArrayPad$[rsp]
  0006e	48 33 cc	 xor	 rcx, rsp
  00071	e8 00 00 00 00	 call	 __security_check_cookie
  00076	48 83 c4 50	 add	 rsp, 80			; 00000050H
  0007a	5f		 pop	 rdi
  0007b	c3		 ret	 0
PutPrivateProfileInt ENDP
_TEXT	ENDS
END
