; Listing generated by Microsoft (R) Optimizing Compiler Version 19.00.24215.1 

include listing.inc

INCLUDELIB MSVCRT
INCLUDELIB OLDNAMES

CONST	SEGMENT
$SG84547 DB	'Socket select error', 00H
	ORG $+4
$SG84594 DB	'WVSocket::ConnectTo Socket create Error', 00H
$SG84596 DB	'WVSocket::ConnectTo Socket connect Error', 00H
	ORG $+7
$SG84606 DB	'WVSocket::ConnectTo Socket send Error', 00H
	ORG $+2
$SG84622 DB	'WVSocket::PutData Socket send Error', 00H
	ORG $+4
$SG84627 DB	'WVSocket::PutData Socket send Error - 2', 00H
$SG84629 DB	'WVSocket::PutData send timeout Error', 00H
	ORG $+3
$SG84647 DB	'WVSocket::GetData recv Error', 00H
	ORG $+3
$SG84665 DB	'WVSocket::RecvStringData length Reading Down!', 00H
	ORG $+2
$SG84667 DB	'WVSocket::RecvStringData length Reading Timeout!', 00H
	ORG $+7
$SG84687 DB	'%d.%d.%d.%d', 00H
CONST	ENDS
PUBLIC	__local_stdio_printf_options
PUBLIC	??$__vcrt_va_start_verify_argument_type@QEBD@@YAXXZ ; __vcrt_va_start_verify_argument_type<char const * __ptr64 const>
PUBLIC	_vsnprintf_l
PUBLIC	_vsprintf_l
PUBLIC	sprintf
PUBLIC	?c_memcpy@@YAPEAXPEAXPEBXH@Z			; c_memcpy
PUBLIC	??0WVSocket@@QEAA@XZ				; WVSocket::WVSocket
PUBLIC	??0WVSocket@@QEAA@PEBDH@Z			; WVSocket::WVSocket
PUBLIC	??1WVSocket@@QEAA@XZ				; WVSocket::~WVSocket
PUBLIC	?IsRecvData@WVSocket@@QEAA_NXZ			; WVSocket::IsRecvData
PUBLIC	?SetOption@WVSocket@@QEAAHHHPEBXH@Z		; WVSocket::SetOption
PUBLIC	?GetOption@WVSocket@@QEAAHHHPEAXPEAH@Z		; WVSocket::GetOption
PUBLIC	?GetData@WVSocket@@QEAAHPEADHJ@Z		; WVSocket::GetData
PUBLIC	?PutData@WVSocket@@QEAAHPEADHJ@Z		; WVSocket::PutData
PUBLIC	?SetAcceptedSocket@WVSocket@@QEAAXH@Z		; WVSocket::SetAcceptedSocket
PUBLIC	?GetRecvData@WVSocket@@QEAAHPEADH@Z		; WVSocket::GetRecvData
PUBLIC	?ConnectTo@WVSocket@@QEAAHPEBDH@Z		; WVSocket::ConnectTo
PUBLIC	?SendNRecv@WVSocket@@QEAAHPEAHPEADH@Z		; WVSocket::SendNRecv
PUBLIC	?RecvStringData@WVSocket@@QEAAHPEADH@Z		; WVSocket::RecvStringData
PUBLIC	?GetHostIP@WVSocket@@SAPEBDXZ			; WVSocket::GetHostIP
PUBLIC	?ConnectWithTimeout@WVSocket@@QEAAHPEADHH@Z	; WVSocket::ConnectWithTimeout
PUBLIC	?onClose@WVSocket@@IEAAXXZ			; WVSocket::onClose
PUBLIC	?_OptionsStorage@?1??__local_stdio_printf_options@@9@4_KA ; `__local_stdio_printf_options'::`2'::_OptionsStorage
EXTRN	??_U@YAPEAX_K@Z:PROC				; operator new[]
EXTRN	??_V@YAXPEAX@Z:PROC				; operator delete[]
EXTRN	__imp_Sleep:PROC
EXTRN	__imp_atoi:PROC
EXTRN	__WSAFDIsSet:PROC
EXTRN	__imp_closesocket:PROC
EXTRN	__imp_connect:PROC
EXTRN	__imp_getsockopt:PROC
EXTRN	__imp_htons:PROC
EXTRN	__imp_inet_addr:PROC
EXTRN	__imp_recv:PROC
EXTRN	__imp_select:PROC
EXTRN	__imp_send:PROC
EXTRN	__imp_setsockopt:PROC
EXTRN	__imp_socket:PROC
EXTRN	__imp_gethostbyname:PROC
EXTRN	__imp_gethostname:PROC
EXTRN	__imp_WSAGetLastError:PROC
EXTRN	__imp__time64:PROC
EXTRN	__imp___stdio_common_vsprintf:PROC
EXTRN	__CxxFrameHandler3:PROC
EXTRN	__GSHandlerCheck:PROC
EXTRN	__security_check_cookie:PROC
EXTRN	__security_cookie:QWORD
;	COMDAT ?_OptionsStorage@?1??__local_stdio_printf_options@@9@4_KA
_BSS	SEGMENT
?_OptionsStorage@?1??__local_stdio_printf_options@@9@4_KA DQ 01H DUP (?) ; `__local_stdio_printf_options'::`2'::_OptionsStorage
_BSS	ENDS
;	COMDAT ?_hostIP@?1??GetHostIP@WVSocket@@SAPEBDXZ@4PADA
_BSS	SEGMENT
?_hostIP@?1??GetHostIP@WVSocket@@SAPEBDXZ@4PADA DB 014H DUP (?) ; `WVSocket::GetHostIP'::`2'::_hostIP
_BSS	ENDS
;	COMDAT pdata
pdata	SEGMENT
$pdata$time DD	imagerel time
	DD	imagerel time+25
	DD	imagerel $unwind$time
pdata	ENDS
;	COMDAT pdata
pdata	SEGMENT
$pdata$_vsnprintf_l DD imagerel $LN5
	DD	imagerel $LN5+118
	DD	imagerel $unwind$_vsnprintf_l
pdata	ENDS
;	COMDAT pdata
pdata	SEGMENT
$pdata$_vsprintf_l DD imagerel $LN3
	DD	imagerel $LN3+66
	DD	imagerel $unwind$_vsprintf_l
pdata	ENDS
;	COMDAT pdata
pdata	SEGMENT
$pdata$sprintf DD imagerel $LN3
	DD	imagerel $LN3+112
	DD	imagerel $unwind$sprintf
pdata	ENDS
;	COMDAT pdata
pdata	SEGMENT
$pdata$?c_memcpy@@YAPEAXPEAXPEBXH@Z DD imagerel $LN5
	DD	imagerel $LN5+115
	DD	imagerel $unwind$?c_memcpy@@YAPEAXPEAXPEBXH@Z
pdata	ENDS
;	COMDAT pdata
pdata	SEGMENT
$pdata$??0WVSocket@@QEAA@XZ DD imagerel $LN3
	DD	imagerel $LN3+140
	DD	imagerel $unwind$??0WVSocket@@QEAA@XZ
pdata	ENDS
;	COMDAT pdata
pdata	SEGMENT
$pdata$??0WVSocket@@QEAA@PEBDH@Z DD imagerel $LN3
	DD	imagerel $LN3+142
	DD	imagerel $unwind$??0WVSocket@@QEAA@PEBDH@Z
pdata	ENDS
;	COMDAT pdata
pdata	SEGMENT
$pdata$??1WVSocket@@QEAA@XZ DD imagerel $LN5
	DD	imagerel $LN5+107
	DD	imagerel $unwind$??1WVSocket@@QEAA@XZ
pdata	ENDS
;	COMDAT pdata
pdata	SEGMENT
$pdata$?IsRecvData@WVSocket@@QEAA_NXZ DD imagerel $LN15
	DD	imagerel $LN15+354
	DD	imagerel $unwind$?IsRecvData@WVSocket@@QEAA_NXZ
pdata	ENDS
;	COMDAT pdata
pdata	SEGMENT
$pdata$?SetOption@WVSocket@@QEAAHHHPEBXH@Z DD imagerel $LN4
	DD	imagerel $LN4+84
	DD	imagerel $unwind$?SetOption@WVSocket@@QEAAHHHPEBXH@Z
pdata	ENDS
;	COMDAT pdata
pdata	SEGMENT
$pdata$?GetOption@WVSocket@@QEAAHHHPEAXPEAH@Z DD imagerel $LN4
	DD	imagerel $LN4+86
	DD	imagerel $unwind$?GetOption@WVSocket@@QEAAHHHPEAXPEAH@Z
pdata	ENDS
;	COMDAT pdata
pdata	SEGMENT
$pdata$?GetData@WVSocket@@QEAAHPEADHJ@Z DD imagerel $LN13
	DD	imagerel $LN13+323
	DD	imagerel $unwind$?GetData@WVSocket@@QEAAHPEADHJ@Z
pdata	ENDS
;	COMDAT pdata
pdata	SEGMENT
$pdata$?PutData@WVSocket@@QEAAHPEADHJ@Z DD imagerel $LN14
	DD	imagerel $LN14+439
	DD	imagerel $unwind$?PutData@WVSocket@@QEAAHPEADHJ@Z
pdata	ENDS
;	COMDAT pdata
pdata	SEGMENT
$pdata$?SetAcceptedSocket@WVSocket@@QEAAXH@Z DD imagerel $LN4
	DD	imagerel $LN4+67
	DD	imagerel $unwind$?SetAcceptedSocket@WVSocket@@QEAAXH@Z
pdata	ENDS
;	COMDAT pdata
pdata	SEGMENT
$pdata$?GetRecvData@WVSocket@@QEAAHPEADH@Z DD imagerel $LN5
	DD	imagerel $LN5+126
	DD	imagerel $unwind$?GetRecvData@WVSocket@@QEAAHPEADH@Z
pdata	ENDS
;	COMDAT pdata
pdata	SEGMENT
$pdata$?ConnectTo@WVSocket@@QEAAHPEBDH@Z DD imagerel $LN7
	DD	imagerel $LN7+439
	DD	imagerel $unwind$?ConnectTo@WVSocket@@QEAAHPEBDH@Z
pdata	ENDS
;	COMDAT pdata
pdata	SEGMENT
$pdata$?SendNRecv@WVSocket@@QEAAHPEAHPEADH@Z DD imagerel $LN7
	DD	imagerel $LN7+219
	DD	imagerel $unwind$?SendNRecv@WVSocket@@QEAAHPEAHPEADH@Z
pdata	ENDS
;	COMDAT pdata
pdata	SEGMENT
$pdata$?RecvStringData@WVSocket@@QEAAHPEADH@Z DD imagerel $LN14
	DD	imagerel $LN14+761
	DD	imagerel $unwind$?RecvStringData@WVSocket@@QEAAHPEADH@Z
pdata	ENDS
;	COMDAT pdata
pdata	SEGMENT
$pdata$?GetHostIP@WVSocket@@SAPEBDXZ DD imagerel $LN5
	DD	imagerel $LN5+334
	DD	imagerel $unwind$?GetHostIP@WVSocket@@SAPEBDXZ
pdata	ENDS
;	COMDAT pdata
pdata	SEGMENT
$pdata$?onClose@WVSocket@@IEAAXXZ DD imagerel $LN3
	DD	imagerel $LN3+50
	DD	imagerel $unwind$?onClose@WVSocket@@IEAAXXZ
pdata	ENDS
;	COMDAT xdata
xdata	SEGMENT
$unwind$?onClose@WVSocket@@IEAAXXZ DD 010901H
	DD	04209H
xdata	ENDS
;	COMDAT xdata
xdata	SEGMENT
$unwind$?GetHostIP@WVSocket@@SAPEBDXZ DD 021919H
	DD	01b0107H
	DD	imagerel __GSHandlerCheck
	DD	0c0H
xdata	ENDS
;	COMDAT xdata
xdata	SEGMENT
$unwind$?RecvStringData@WVSocket@@QEAAHPEADH@Z DD 032419H
	DD	07011e215H
	DD	06010H
	DD	imagerel __GSHandlerCheck
	DD	068H
xdata	ENDS
;	COMDAT xdata
xdata	SEGMENT
$unwind$?SendNRecv@WVSocket@@QEAAHPEAHPEADH@Z DD 031a01H
	DD	07016621aH
	DD	06015H
xdata	ENDS
;	COMDAT xdata
xdata	SEGMENT
$unwind$?ConnectTo@WVSocket@@QEAAHPEBDH@Z DD 032419H
	DD	07011c215H
	DD	06010H
	DD	imagerel __GSHandlerCheck
	DD	050H
xdata	ENDS
;	COMDAT xdata
xdata	SEGMENT
$unwind$?GetRecvData@WVSocket@@QEAAHPEADH@Z DD 011301H
	DD	04213H
xdata	ENDS
;	COMDAT xdata
xdata	SEGMENT
$unwind$?SetAcceptedSocket@WVSocket@@QEAAXH@Z DD 010d01H
	DD	0420dH
xdata	ENDS
;	COMDAT xdata
xdata	SEGMENT
$unwind$?PutData@WVSocket@@QEAAHPEADHJ@Z DD 031a01H
	DD	07016821aH
	DD	06015H
xdata	ENDS
;	COMDAT xdata
xdata	SEGMENT
$unwind$?GetData@WVSocket@@QEAAHPEADHJ@Z DD 031a01H
	DD	07016821aH
	DD	06015H
xdata	ENDS
;	COMDAT xdata
xdata	SEGMENT
$unwind$?GetOption@WVSocket@@QEAAHHHPEAXPEAH@Z DD 011701H
	DD	06217H
xdata	ENDS
;	COMDAT xdata
xdata	SEGMENT
$unwind$?SetOption@WVSocket@@QEAAHHHPEBXH@Z DD 011701H
	DD	06217H
xdata	ENDS
;	COMDAT xdata
xdata	SEGMENT
$unwind$?IsRecvData@WVSocket@@QEAA_NXZ DD 042019H
	DD	04f010eH
	DD	060067007H
	DD	imagerel __GSHandlerCheck
	DD	0260H
xdata	ENDS
;	COMDAT xdata
xdata	SEGMENT
$ip2state$??1WVSocket@@QEAA@XZ DD imagerel ??1WVSocket@@QEAA@XZ
	DD	0ffffffffH
xdata	ENDS
;	COMDAT CONST
CONST	SEGMENT
$cppxdata$??1WVSocket@@QEAA@XZ DD 019930522H
	DD	00H
	DD	00H
	DD	00H
	DD	00H
	DD	01H
	DD	imagerel $ip2state$??1WVSocket@@QEAA@XZ
	DD	028H
	DD	00H
	DD	05H
CONST	ENDS
;	COMDAT xdata
xdata	SEGMENT
$unwind$??1WVSocket@@QEAA@XZ DD 011219H
	DD	06209H
	DD	imagerel __CxxFrameHandler3
	DD	imagerel $cppxdata$??1WVSocket@@QEAA@XZ
xdata	ENDS
;	COMDAT xdata
xdata	SEGMENT
$unwind$??0WVSocket@@QEAA@PEBDH@Z DD 021401H
	DD	070103214H
xdata	ENDS
;	COMDAT xdata
xdata	SEGMENT
$unwind$??0WVSocket@@QEAA@XZ DD 020a01H
	DD	07006320aH
xdata	ENDS
;	COMDAT xdata
xdata	SEGMENT
$unwind$?c_memcpy@@YAPEAXPEAXPEBXH@Z DD 011301H
	DD	04213H
xdata	ENDS
;	COMDAT xdata
xdata	SEGMENT
$unwind$sprintf DD 012719H
	DD	08218H
	DD	imagerel __GSHandlerCheck
	DD	030H
xdata	ENDS
;	COMDAT xdata
xdata	SEGMENT
$unwind$_vsprintf_l DD 011801H
	DD	06218H
xdata	ENDS
;	COMDAT xdata
xdata	SEGMENT
$unwind$_vsnprintf_l DD 011801H
	DD	08218H
xdata	ENDS
;	COMDAT xdata
xdata	SEGMENT
$unwind$time DD	010901H
	DD	04209H
xdata	ENDS
; Function compile flags: /Odtp
; File e:\infinia-library-3.0\com\src\wvsocket.cpp
;	COMDAT ?onClose@WVSocket@@IEAAXXZ
_TEXT	SEGMENT
this$ = 48
?onClose@WVSocket@@IEAAXXZ PROC				; WVSocket::onClose, COMDAT

; 97   : {

$LN3:
  00000	48 89 4c 24 08	 mov	 QWORD PTR [rsp+8], rcx
  00005	48 83 ec 28	 sub	 rsp, 40			; 00000028H

; 98   : 	SOCKETCLOSE(m_nSocket);

  00009	48 8b 44 24 30	 mov	 rax, QWORD PTR this$[rsp]
  0000e	48 8b 48 08	 mov	 rcx, QWORD PTR [rax+8]
  00012	ff 15 00 00 00
	00		 call	 QWORD PTR __imp_closesocket

; 99   : 	m_nSocket = -1;

  00018	48 8b 44 24 30	 mov	 rax, QWORD PTR this$[rsp]
  0001d	48 c7 40 08 ff
	ff ff ff	 mov	 QWORD PTR [rax+8], -1

; 100  : 	m_bConnected = false;

  00025	48 8b 44 24 30	 mov	 rax, QWORD PTR this$[rsp]
  0002a	c6 00 00	 mov	 BYTE PTR [rax], 0

; 101  : }

  0002d	48 83 c4 28	 add	 rsp, 40			; 00000028H
  00031	c3		 ret	 0
?onClose@WVSocket@@IEAAXXZ ENDP				; WVSocket::onClose
_TEXT	ENDS
; Function compile flags: /Odtp
; File e:\infinia-library-3.0\com\src\wvsocket.cpp
;	COMDAT ?ConnectWithTimeout@WVSocket@@QEAAHPEADHH@Z
_TEXT	SEGMENT
this$ = 8
szIP$ = 16
nPort$ = 24
nTimeout$ = 32
?ConnectWithTimeout@WVSocket@@QEAAHPEADHH@Z PROC	; WVSocket::ConnectWithTimeout, COMDAT

; 368  : {

  00000	44 89 4c 24 20	 mov	 DWORD PTR [rsp+32], r9d
  00005	44 89 44 24 18	 mov	 DWORD PTR [rsp+24], r8d
  0000a	48 89 54 24 10	 mov	 QWORD PTR [rsp+16], rdx
  0000f	48 89 4c 24 08	 mov	 QWORD PTR [rsp+8], rcx

; 369  : #ifndef WIN32
; 370  : 	struct sockaddr_in sa;
; 371  : 	struct	timeval tmval;
; 372  : 	int nRet, flags, error;
; 373  : 	fd_set	wset, rset;
; 374  : 	
; 375  : 	strcpy(m_szIP, szIP);
; 376  : 	m_nPort = nPort;
; 377  : 	if (m_nSocket == -1) {
; 378  : 		m_nSocket = ::socket(SOCK_FLAG, SOCK_STREAM, 0);
; 379  : 		if (m_nSocket == -1) {
; 380  : 			return -1;
; 381  : 		}
; 382  : 	}
; 383  : 
; 384  : 	memset(&sa, 0x00, sizeof(sa));
; 385  : 	
; 386  : 	sa.sin_family = AF_INET;
; 387  : 	sa.sin_port = htons((short)nPort);
; 388  : 	sa.sin_addr.s_addr = inet_addr(szIP);
; 389  : 	
; 390  : 	if (!nTimeout) {
; 391  : 		if (m_cLogger)
; 392  : 			m_cLogger->LogPrint(LOG_DEBUG, "Normal connect\n");
; 393  : 		nRet = connect(m_nSocket, (struct sockaddr*)&sa, sizeof(sockaddr_in));
; 394  : 		if(nRet == -1) {
; 395  : 			onClose();
; 396  : 			return nRet;
; 397  : 		}
; 398  : 		else {
; 399  : 			m_bConnected = true;
; 400  : 			return 1;
; 401  : 		}
; 402  : 	}
; 403  : 
; 404  : 
; 405  : 	memset(&tmval, 0, sizeof(tmval));
; 406  : 	tmval.tv_sec = nTimeout;
; 407  : 
; 408  : 	flags = fcntl(m_nSocket, F_GETFL, 0);
; 409  : 	fcntl(m_nSocket, F_SETFL, flags | O_NONBLOCK);
; 410  : 
; 411  : 	error = 0;
; 412  : 
; 413  : 	nRet = connect(m_nSocket, (struct sockaddr*)&sa, sizeof(sockaddr_in));
; 414  : 	if (nRet < 0 && errno != EINPROGRESS) {
; 415  : 		onClose();
; 416  : 		return nRet;
; 417  : 	}
; 418  : 
; 419  : 	if (nRet == 0)
; 420  : 		goto done;
; 421  : 
; 422  : 	FD_ZERO(&rset);
; 423  : 	FD_SET(m_nSocket, &rset);
; 424  : 	wset = rset;
; 425  : 
; 426  : 	if (select(m_nSocket + 1, &rset, &wset, NULL, &tmval) == 0) {
; 427  : 		printf("TImeout Error\n");
; 428  : 		errno = ETIMEDOUT;
; 429  : 		return -1;
; 430  : 	}
; 431  : 
; 432  : 	if (FD_ISSET(m_nSocket, &rset) || FD_ISSET(m_nSocket, &wset)) {
; 433  : 		int len = sizeof(error);
; 434  : #if	defined(__ia64)
; 435  : 		if (getsockopt(m_nSocket, SOL_SOCKET, SO_ERROR, (void*)&error, &len) < 0) {
; 436  : #else
; 437  : 		if (getsockopt(m_nSocket, SOL_SOCKET, SO_ERROR, (void*)&error, (socklen_t *)&len) < 0) {
; 438  : #endif
; 439  : 			onClose();
; 440  : 			return -1;
; 441  : 		}
; 442  : 	}
; 443  : 	
; 444  : done:
; 445  : 	fcntl(m_nSocket, F_SETFL, flags);
; 446  : 	if (error != 0) {
; 447  : 		errno = error;
; 448  : 		onClose();
; 449  : 		return -1;
; 450  : 	}
; 451  : 	
; 452  : 	m_bConnected = true;
; 453  : #endif
; 454  : 	return 1;

  00014	b8 01 00 00 00	 mov	 eax, 1

; 455  : }

  00019	c3		 ret	 0
?ConnectWithTimeout@WVSocket@@QEAAHPEADHH@Z ENDP	; WVSocket::ConnectWithTimeout
_TEXT	ENDS
; Function compile flags: /Odtp
; File e:\infinia-library-3.0\com\src\wvsocket.cpp
;	COMDAT ?GetHostIP@WVSocket@@SAPEBDXZ
_TEXT	SEGMENT
hEntry$ = 48
szHName$ = 64
__$ArrayPad$ = 192
?GetHostIP@WVSocket@@SAPEBDXZ PROC			; WVSocket::GetHostIP, COMDAT

; 347  : {

$LN5:
  00000	48 81 ec d8 00
	00 00		 sub	 rsp, 216		; 000000d8H
  00007	48 8b 05 00 00
	00 00		 mov	 rax, QWORD PTR __security_cookie
  0000e	48 33 c4	 xor	 rax, rsp
  00011	48 89 84 24 c0
	00 00 00	 mov	 QWORD PTR __$ArrayPad$[rsp], rax

; 348  : 	static	char _hostIP[20];
; 349  :     struct  hostent *hEntry;
; 350  : 	char    szHName[128];
; 351  : 
; 352  : 	if (gethostname(szHName, sizeof(szHName)) == 0) {

  00019	ba 80 00 00 00	 mov	 edx, 128		; 00000080H
  0001e	48 8d 4c 24 40	 lea	 rcx, QWORD PTR szHName$[rsp]
  00023	ff 15 00 00 00
	00		 call	 QWORD PTR __imp_gethostname
  00029	85 c0		 test	 eax, eax
  0002b	0f 85 03 01 00
	00		 jne	 $LN2@GetHostIP

; 353  : 		hEntry = gethostbyname(szHName);

  00031	48 8d 4c 24 40	 lea	 rcx, QWORD PTR szHName$[rsp]
  00036	ff 15 00 00 00
	00		 call	 QWORD PTR __imp_gethostbyname
  0003c	48 89 44 24 30	 mov	 QWORD PTR hEntry$[rsp], rax

; 354  : 		if (hEntry && hEntry->h_addr_list && hEntry->h_addr_list[0]) {

  00041	48 83 7c 24 30
	00		 cmp	 QWORD PTR hEntry$[rsp], 0
  00047	0f 84 e7 00 00
	00		 je	 $LN3@GetHostIP
  0004d	48 8b 44 24 30	 mov	 rax, QWORD PTR hEntry$[rsp]
  00052	48 83 78 18 00	 cmp	 QWORD PTR [rax+24], 0
  00057	0f 84 d7 00 00
	00		 je	 $LN3@GetHostIP
  0005d	b8 08 00 00 00	 mov	 eax, 8
  00062	48 6b c0 00	 imul	 rax, rax, 0
  00066	48 8b 4c 24 30	 mov	 rcx, QWORD PTR hEntry$[rsp]
  0006b	48 8b 49 18	 mov	 rcx, QWORD PTR [rcx+24]
  0006f	48 83 3c 08 00	 cmp	 QWORD PTR [rax+rcx], 0
  00074	0f 84 ba 00 00
	00		 je	 $LN3@GetHostIP

; 355  : 			sprintf(_hostIP, "%d.%d.%d.%d", 

  0007a	b8 08 00 00 00	 mov	 eax, 8
  0007f	48 6b c0 00	 imul	 rax, rax, 0
  00083	48 8b 4c 24 30	 mov	 rcx, QWORD PTR hEntry$[rsp]
  00088	48 8b 49 18	 mov	 rcx, QWORD PTR [rcx+24]
  0008c	ba 01 00 00 00	 mov	 edx, 1
  00091	48 6b d2 03	 imul	 rdx, rdx, 3
  00095	48 8b 04 01	 mov	 rax, QWORD PTR [rcx+rax]
  00099	0f b6 04 10	 movzx	 eax, BYTE PTR [rax+rdx]
  0009d	b9 08 00 00 00	 mov	 ecx, 8
  000a2	48 6b c9 00	 imul	 rcx, rcx, 0
  000a6	48 8b 54 24 30	 mov	 rdx, QWORD PTR hEntry$[rsp]
  000ab	48 8b 52 18	 mov	 rdx, QWORD PTR [rdx+24]
  000af	41 b8 01 00 00
	00		 mov	 r8d, 1
  000b5	4d 6b c0 02	 imul	 r8, r8, 2
  000b9	48 8b 0c 0a	 mov	 rcx, QWORD PTR [rdx+rcx]
  000bd	42 0f b6 0c 01	 movzx	 ecx, BYTE PTR [rcx+r8]
  000c2	ba 08 00 00 00	 mov	 edx, 8
  000c7	48 6b d2 00	 imul	 rdx, rdx, 0
  000cb	4c 8b 44 24 30	 mov	 r8, QWORD PTR hEntry$[rsp]
  000d0	4d 8b 40 18	 mov	 r8, QWORD PTR [r8+24]
  000d4	41 b9 01 00 00
	00		 mov	 r9d, 1
  000da	4d 6b c9 01	 imul	 r9, r9, 1
  000de	49 8b 14 10	 mov	 rdx, QWORD PTR [r8+rdx]
  000e2	42 0f b6 14 0a	 movzx	 edx, BYTE PTR [rdx+r9]
  000e7	41 b8 08 00 00
	00		 mov	 r8d, 8
  000ed	4d 6b c0 00	 imul	 r8, r8, 0
  000f1	4c 8b 4c 24 30	 mov	 r9, QWORD PTR hEntry$[rsp]
  000f6	4d 8b 49 18	 mov	 r9, QWORD PTR [r9+24]
  000fa	41 ba 01 00 00
	00		 mov	 r10d, 1
  00100	4d 6b d2 00	 imul	 r10, r10, 0
  00104	4f 8b 04 01	 mov	 r8, QWORD PTR [r9+r8]
  00108	47 0f b6 04 10	 movzx	 r8d, BYTE PTR [r8+r10]
  0010d	89 44 24 28	 mov	 DWORD PTR [rsp+40], eax
  00111	89 4c 24 20	 mov	 DWORD PTR [rsp+32], ecx
  00115	44 8b ca	 mov	 r9d, edx
  00118	48 8d 15 00 00
	00 00		 lea	 rdx, OFFSET FLAT:$SG84687
  0011f	48 8d 0d 00 00
	00 00		 lea	 rcx, OFFSET FLAT:?_hostIP@?1??GetHostIP@WVSocket@@SAPEBDXZ@4PADA
  00126	e8 00 00 00 00	 call	 sprintf

; 356  : 				(unsigned char)hEntry->h_addr_list[0][0],
; 357  : 				(unsigned char)hEntry->h_addr_list[0][1],
; 358  : 				(unsigned char)hEntry->h_addr_list[0][2],
; 359  : 				(unsigned char)hEntry->h_addr_list[0][3]);
; 360  : 			return _hostIP;

  0012b	48 8d 05 00 00
	00 00		 lea	 rax, OFFSET FLAT:?_hostIP@?1??GetHostIP@WVSocket@@SAPEBDXZ@4PADA
  00132	eb 02		 jmp	 SHORT $LN1@GetHostIP
$LN3@GetHostIP:
$LN2@GetHostIP:

; 361  : 		}
; 362  : 	}
; 363  : 	return NULL;

  00134	33 c0		 xor	 eax, eax
$LN1@GetHostIP:

; 364  : }

  00136	48 8b 8c 24 c0
	00 00 00	 mov	 rcx, QWORD PTR __$ArrayPad$[rsp]
  0013e	48 33 cc	 xor	 rcx, rsp
  00141	e8 00 00 00 00	 call	 __security_check_cookie
  00146	48 81 c4 d8 00
	00 00		 add	 rsp, 216		; 000000d8H
  0014d	c3		 ret	 0
?GetHostIP@WVSocket@@SAPEBDXZ ENDP			; WVSocket::GetHostIP
_TEXT	ENDS
; Function compile flags: /Odtp
; File e:\infinia-library-3.0\com\src\wvsocket.cpp
;	COMDAT ?RecvStringData@WVSocket@@QEAAHPEADH@Z
_TEXT	SEGMENT
tv176 = 32
nPos$ = 36
nTmp$ = 40
nSize$ = 44
tv174 = 48
tv173 = 56
$T1 = 64
$T2 = 72
tv149 = 80
tv175 = 88
tmpBuf$ = 96
__$ArrayPad$ = 104
this$ = 144
szBuffer$ = 152
nBLen$ = 160
?RecvStringData@WVSocket@@QEAAHPEADH@Z PROC		; WVSocket::RecvStringData, COMDAT

; 293  : {

$LN14:
  00000	44 89 44 24 18	 mov	 DWORD PTR [rsp+24], r8d
  00005	48 89 54 24 10	 mov	 QWORD PTR [rsp+16], rdx
  0000a	48 89 4c 24 08	 mov	 QWORD PTR [rsp+8], rcx
  0000f	56		 push	 rsi
  00010	57		 push	 rdi
  00011	48 83 ec 78	 sub	 rsp, 120		; 00000078H
  00015	48 8b 05 00 00
	00 00		 mov	 rax, QWORD PTR __security_cookie
  0001c	48 33 c4	 xor	 rax, rsp
  0001f	48 89 44 24 68	 mov	 QWORD PTR __$ArrayPad$[rsp], rax

; 294  : 	int nSize = 0;

  00024	c7 44 24 2c 00
	00 00 00	 mov	 DWORD PTR nSize$[rsp], 0

; 295  : 	int nPos = 0;

  0002c	c7 44 24 24 00
	00 00 00	 mov	 DWORD PTR nPos$[rsp], 0

; 296  : 	int nTmp = 0;

  00034	c7 44 24 28 00
	00 00 00	 mov	 DWORD PTR nTmp$[rsp], 0

; 297  : 	char	tmpBuf[5];
; 298  : 
; 299  : 	nTmp = GetData(tmpBuf, 3, DEF_TIMEOUT);

  0003c	41 b9 03 00 00
	00		 mov	 r9d, 3
  00042	41 b8 03 00 00
	00		 mov	 r8d, 3
  00048	48 8d 54 24 60	 lea	 rdx, QWORD PTR tmpBuf$[rsp]
  0004d	48 8b 8c 24 90
	00 00 00	 mov	 rcx, QWORD PTR this$[rsp]
  00055	e8 00 00 00 00	 call	 ?GetData@WVSocket@@QEAAHPEADHJ@Z ; WVSocket::GetData
  0005a	89 44 24 28	 mov	 DWORD PTR nTmp$[rsp], eax

; 300  : 	nPos += 3;

  0005e	8b 44 24 24	 mov	 eax, DWORD PTR nPos$[rsp]
  00062	83 c0 03	 add	 eax, 3
  00065	89 44 24 24	 mov	 DWORD PTR nPos$[rsp], eax

; 301  : 
; 302  : 	if (nTmp == -1) {

  00069	83 7c 24 28 ff	 cmp	 DWORD PTR nTmp$[rsp], -1
  0006e	75 36		 jne	 SHORT $LN2@RecvString

; 303  : 		onClose();

  00070	48 8b 8c 24 90
	00 00 00	 mov	 rcx, QWORD PTR this$[rsp]
  00078	e8 00 00 00 00	 call	 ?onClose@WVSocket@@IEAAXXZ ; WVSocket::onClose

; 304  : 		strcpy(m_szErrMsg, "WVSocket::RecvStringData length Reading Down!");

  0007d	48 8b 84 24 90
	00 00 00	 mov	 rax, QWORD PTR this$[rsp]
  00085	48 8d 0d 00 00
	00 00		 lea	 rcx, OFFSET FLAT:$SG84665
  0008c	48 8d 78 44	 lea	 rdi, QWORD PTR [rax+68]
  00090	48 8b f1	 mov	 rsi, rcx
  00093	b9 2e 00 00 00	 mov	 ecx, 46			; 0000002eH
  00098	f3 a4		 rep movsb

; 305  : 		return -1;

  0009a	b8 ff ff ff ff	 mov	 eax, -1
  0009f	e9 41 02 00 00	 jmp	 $LN1@RecvString
  000a4	eb 3b		 jmp	 SHORT $LN3@RecvString
$LN2@RecvString:

; 306  : 	}
; 307  : 	else if (nTmp == -2) {

  000a6	83 7c 24 28 fe	 cmp	 DWORD PTR nTmp$[rsp], -2
  000ab	75 34		 jne	 SHORT $LN4@RecvString

; 308  : 		onClose();

  000ad	48 8b 8c 24 90
	00 00 00	 mov	 rcx, QWORD PTR this$[rsp]
  000b5	e8 00 00 00 00	 call	 ?onClose@WVSocket@@IEAAXXZ ; WVSocket::onClose

; 309  : 		strcpy(m_szErrMsg, "WVSocket::RecvStringData length Reading Timeout!");

  000ba	48 8b 84 24 90
	00 00 00	 mov	 rax, QWORD PTR this$[rsp]
  000c2	48 8d 0d 00 00
	00 00		 lea	 rcx, OFFSET FLAT:$SG84667
  000c9	48 8d 78 44	 lea	 rdi, QWORD PTR [rax+68]
  000cd	48 8b f1	 mov	 rsi, rcx
  000d0	b9 31 00 00 00	 mov	 ecx, 49			; 00000031H
  000d5	f3 a4		 rep movsb

; 310  : 		return -1;

  000d7	b8 ff ff ff ff	 mov	 eax, -1
  000dc	e9 04 02 00 00	 jmp	 $LN1@RecvString
$LN4@RecvString:
$LN3@RecvString:

; 311  : 	}
; 312  : 	SLEEP(1);

  000e1	b9 e8 03 00 00	 mov	 ecx, 1000		; 000003e8H
  000e6	ff 15 00 00 00
	00		 call	 QWORD PTR __imp_Sleep

; 313  : 	//패킷 총 길이 계산하기
; 314  : 	nSize = atoi(tmpBuf);

  000ec	48 8d 4c 24 60	 lea	 rcx, QWORD PTR tmpBuf$[rsp]
  000f1	ff 15 00 00 00
	00		 call	 QWORD PTR __imp_atoi
  000f7	89 44 24 2c	 mov	 DWORD PTR nSize$[rsp], eax

; 315  : 	if (m_nRecvBLen < nPos + nSize + 1) {

  000fb	8b 44 24 24	 mov	 eax, DWORD PTR nPos$[rsp]
  000ff	8b 4c 24 2c	 mov	 ecx, DWORD PTR nSize$[rsp]
  00103	8d 44 08 01	 lea	 eax, DWORD PTR [rax+rcx+1]
  00107	48 8b 8c 24 90
	00 00 00	 mov	 rcx, QWORD PTR this$[rsp]
  0010f	39 41 18	 cmp	 DWORD PTR [rcx+24], eax
  00112	0f 8d 84 00 00
	00		 jge	 $LN5@RecvString

; 316  : 		if (m_szRecvData)

  00118	48 8b 84 24 90
	00 00 00	 mov	 rax, QWORD PTR this$[rsp]
  00120	48 83 78 10 00	 cmp	 QWORD PTR [rax+16], 0
  00125	74 1b		 je	 SHORT $LN6@RecvString

; 317  : 			delete [] m_szRecvData;	//20100127

  00127	48 8b 84 24 90
	00 00 00	 mov	 rax, QWORD PTR this$[rsp]
  0012f	48 8b 40 10	 mov	 rax, QWORD PTR [rax+16]
  00133	48 89 44 24 40	 mov	 QWORD PTR $T1[rsp], rax
  00138	48 8b 4c 24 40	 mov	 rcx, QWORD PTR $T1[rsp]
  0013d	e8 00 00 00 00	 call	 ??_V@YAXPEAX@Z		; operator delete[]
$LN6@RecvString:

; 318  : 		m_nRecvBLen = nPos+nSize+1;

  00142	8b 44 24 24	 mov	 eax, DWORD PTR nPos$[rsp]
  00146	8b 4c 24 2c	 mov	 ecx, DWORD PTR nSize$[rsp]
  0014a	8d 44 08 01	 lea	 eax, DWORD PTR [rax+rcx+1]
  0014e	48 8b 8c 24 90
	00 00 00	 mov	 rcx, QWORD PTR this$[rsp]
  00156	89 41 18	 mov	 DWORD PTR [rcx+24], eax

; 319  : 		m_szRecvData = new char[m_nRecvBLen];

  00159	48 8b 84 24 90
	00 00 00	 mov	 rax, QWORD PTR this$[rsp]
  00161	48 63 40 18	 movsxd	 rax, DWORD PTR [rax+24]
  00165	48 8b c8	 mov	 rcx, rax
  00168	e8 00 00 00 00	 call	 ??_U@YAPEAX_K@Z		; operator new[]
  0016d	48 89 44 24 48	 mov	 QWORD PTR $T2[rsp], rax
  00172	48 8b 84 24 90
	00 00 00	 mov	 rax, QWORD PTR this$[rsp]
  0017a	48 8b 4c 24 48	 mov	 rcx, QWORD PTR $T2[rsp]
  0017f	48 89 48 10	 mov	 QWORD PTR [rax+16], rcx

; 320  : 		if (m_szRecvData == NULL)

  00183	48 8b 84 24 90
	00 00 00	 mov	 rax, QWORD PTR this$[rsp]
  0018b	48 83 78 10 00	 cmp	 QWORD PTR [rax+16], 0
  00190	75 0a		 jne	 SHORT $LN7@RecvString

; 321  : 			return -1;

  00192	b8 ff ff ff ff	 mov	 eax, -1
  00197	e9 49 01 00 00	 jmp	 $LN1@RecvString
$LN7@RecvString:
$LN5@RecvString:

; 322  : 	}
; 323  : 	memset(m_szRecvData, 0, m_nRecvBLen);

  0019c	48 8b 84 24 90
	00 00 00	 mov	 rax, QWORD PTR this$[rsp]
  001a4	48 63 40 18	 movsxd	 rax, DWORD PTR [rax+24]
  001a8	48 89 44 24 50	 mov	 QWORD PTR tv149[rsp], rax
  001ad	48 8b 8c 24 90
	00 00 00	 mov	 rcx, QWORD PTR this$[rsp]
  001b5	48 8b 79 10	 mov	 rdi, QWORD PTR [rcx+16]
  001b9	33 c0		 xor	 eax, eax
  001bb	48 8b 4c 24 50	 mov	 rcx, QWORD PTR tv149[rsp]
  001c0	f3 aa		 rep stosb

; 324  : 	c_memcpy(m_szRecvData, tmpBuf, nPos);

  001c2	44 8b 44 24 24	 mov	 r8d, DWORD PTR nPos$[rsp]
  001c7	48 8d 54 24 60	 lea	 rdx, QWORD PTR tmpBuf$[rsp]
  001cc	48 8b 84 24 90
	00 00 00	 mov	 rax, QWORD PTR this$[rsp]
  001d4	48 8b 48 10	 mov	 rcx, QWORD PTR [rax+16]
  001d8	e8 00 00 00 00	 call	 ?c_memcpy@@YAPEAXPEAXPEBXH@Z ; c_memcpy

; 325  : 	
; 326  : 	if((nTmp = GetData(m_szRecvData+nPos, nSize - nPos, DEF_TIMEOUT)) == -1) {

  001dd	8b 44 24 24	 mov	 eax, DWORD PTR nPos$[rsp]
  001e1	8b 4c 24 2c	 mov	 ecx, DWORD PTR nSize$[rsp]
  001e5	2b c8		 sub	 ecx, eax
  001e7	8b c1		 mov	 eax, ecx
  001e9	48 63 4c 24 24	 movsxd	 rcx, DWORD PTR nPos$[rsp]
  001ee	48 8b 94 24 90
	00 00 00	 mov	 rdx, QWORD PTR this$[rsp]
  001f6	48 03 4a 10	 add	 rcx, QWORD PTR [rdx+16]
  001fa	41 b9 03 00 00
	00		 mov	 r9d, 3
  00200	44 8b c0	 mov	 r8d, eax
  00203	48 8b d1	 mov	 rdx, rcx
  00206	48 8b 8c 24 90
	00 00 00	 mov	 rcx, QWORD PTR this$[rsp]
  0020e	e8 00 00 00 00	 call	 ?GetData@WVSocket@@QEAAHPEADHJ@Z ; WVSocket::GetData
  00213	89 44 24 28	 mov	 DWORD PTR nTmp$[rsp], eax
  00217	83 7c 24 28 ff	 cmp	 DWORD PTR nTmp$[rsp], -1
  0021c	75 19		 jne	 SHORT $LN8@RecvString

; 327  : 		onClose();

  0021e	48 8b 8c 24 90
	00 00 00	 mov	 rcx, QWORD PTR this$[rsp]
  00226	e8 00 00 00 00	 call	 ?onClose@WVSocket@@IEAAXXZ ; WVSocket::onClose

; 328  : 		return -1;

  0022b	b8 ff ff ff ff	 mov	 eax, -1
  00230	e9 b0 00 00 00	 jmp	 $LN1@RecvString
  00235	eb 1e		 jmp	 SHORT $LN9@RecvString
$LN8@RecvString:

; 329  : 	}
; 330  : 	else if (nTmp == -2) {

  00237	83 7c 24 28 fe	 cmp	 DWORD PTR nTmp$[rsp], -2
  0023c	75 17		 jne	 SHORT $LN10@RecvString

; 331  : 		onClose();

  0023e	48 8b 8c 24 90
	00 00 00	 mov	 rcx, QWORD PTR this$[rsp]
  00246	e8 00 00 00 00	 call	 ?onClose@WVSocket@@IEAAXXZ ; WVSocket::onClose

; 332  : 		return -1;

  0024b	b8 ff ff ff ff	 mov	 eax, -1
  00250	e9 90 00 00 00	 jmp	 $LN1@RecvString
$LN10@RecvString:
$LN9@RecvString:

; 333  : 	}
; 334  : 
; 335  : 	nPos = nSize;

  00255	8b 44 24 2c	 mov	 eax, DWORD PTR nSize$[rsp]
  00259	89 44 24 24	 mov	 DWORD PTR nPos$[rsp], eax

; 336  : 	if (nBLen < nPos) {

  0025d	8b 44 24 24	 mov	 eax, DWORD PTR nPos$[rsp]
  00261	39 84 24 a0 00
	00 00		 cmp	 DWORD PTR nBLen$[rsp], eax
  00268	7d 07		 jge	 SHORT $LN11@RecvString

; 337  : 		return -2;

  0026a	b8 fe ff ff ff	 mov	 eax, -2
  0026f	eb 74		 jmp	 SHORT $LN1@RecvString
$LN11@RecvString:

; 338  : 	}
; 339  : 
; 340  : 	strcpy(szBuffer, m_szRecvData);

  00271	48 8b 84 24 90
	00 00 00	 mov	 rax, QWORD PTR this$[rsp]
  00279	48 8b 40 10	 mov	 rax, QWORD PTR [rax+16]
  0027d	48 89 44 24 38	 mov	 QWORD PTR tv173[rsp], rax
  00282	48 8b 84 24 98
	00 00 00	 mov	 rax, QWORD PTR szBuffer$[rsp]
  0028a	48 89 44 24 30	 mov	 QWORD PTR tv174[rsp], rax
  0028f	48 8b 44 24 30	 mov	 rax, QWORD PTR tv174[rsp]
  00294	48 89 44 24 58	 mov	 QWORD PTR tv175[rsp], rax
$LN13@RecvString:
  00299	48 8b 44 24 38	 mov	 rax, QWORD PTR tv173[rsp]
  0029e	0f b6 00	 movzx	 eax, BYTE PTR [rax]
  002a1	88 44 24 20	 mov	 BYTE PTR tv176[rsp], al
  002a5	48 8b 44 24 30	 mov	 rax, QWORD PTR tv174[rsp]
  002aa	0f b6 4c 24 20	 movzx	 ecx, BYTE PTR tv176[rsp]
  002af	88 08		 mov	 BYTE PTR [rax], cl
  002b1	48 8b 44 24 38	 mov	 rax, QWORD PTR tv173[rsp]
  002b6	48 ff c0	 inc	 rax
  002b9	48 89 44 24 38	 mov	 QWORD PTR tv173[rsp], rax
  002be	48 8b 44 24 30	 mov	 rax, QWORD PTR tv174[rsp]
  002c3	48 ff c0	 inc	 rax
  002c6	48 89 44 24 30	 mov	 QWORD PTR tv174[rsp], rax
  002cb	80 7c 24 20 00	 cmp	 BYTE PTR tv176[rsp], 0
  002d0	75 c7		 jne	 SHORT $LN13@RecvString

; 341  : 	m_nRecvDLen = nPos;

  002d2	48 8b 84 24 90
	00 00 00	 mov	 rax, QWORD PTR this$[rsp]
  002da	8b 4c 24 24	 mov	 ecx, DWORD PTR nPos$[rsp]
  002de	89 48 1c	 mov	 DWORD PTR [rax+28], ecx

; 342  : 	return nPos;

  002e1	8b 44 24 24	 mov	 eax, DWORD PTR nPos$[rsp]
$LN1@RecvString:

; 343  : }

  002e5	48 8b 4c 24 68	 mov	 rcx, QWORD PTR __$ArrayPad$[rsp]
  002ea	48 33 cc	 xor	 rcx, rsp
  002ed	e8 00 00 00 00	 call	 __security_check_cookie
  002f2	48 83 c4 78	 add	 rsp, 120		; 00000078H
  002f6	5f		 pop	 rdi
  002f7	5e		 pop	 rsi
  002f8	c3		 ret	 0
?RecvStringData@WVSocket@@QEAAHPEADH@Z ENDP		; WVSocket::RecvStringData
_TEXT	ENDS
; Function compile flags: /Odtp
; File e:\infinia-library-3.0\com\src\wvsocket.cpp
;	COMDAT ?SendNRecv@WVSocket@@QEAAHPEAHPEADH@Z
_TEXT	SEGMENT
tv88 = 32
nSize$ = 36
this$ = 80
nLen$ = 88
szBuffer$ = 96
nBLen$ = 104
?SendNRecv@WVSocket@@QEAAHPEAHPEADH@Z PROC		; WVSocket::SendNRecv, COMDAT

; 181  : {

$LN7:
  00000	44 89 4c 24 20	 mov	 DWORD PTR [rsp+32], r9d
  00005	4c 89 44 24 18	 mov	 QWORD PTR [rsp+24], r8
  0000a	48 89 54 24 10	 mov	 QWORD PTR [rsp+16], rdx
  0000f	48 89 4c 24 08	 mov	 QWORD PTR [rsp+8], rcx
  00014	56		 push	 rsi
  00015	57		 push	 rdi
  00016	48 83 ec 38	 sub	 rsp, 56			; 00000038H

; 182  : 	if(m_nSocket < 0)	return -1;

  0001a	48 8b 44 24 50	 mov	 rax, QWORD PTR this$[rsp]
  0001f	48 83 78 08 00	 cmp	 QWORD PTR [rax+8], 0
  00024	73 0a		 jae	 SHORT $LN2@SendNRecv
  00026	b8 ff ff ff ff	 mov	 eax, -1
  0002b	e9 a4 00 00 00	 jmp	 $LN1@SendNRecv
$LN2@SendNRecv:

; 183  : 
; 184  : 	int nSize = send(m_nSocket, szBuffer, *nLen, NODELAY);

  00030	45 33 c9	 xor	 r9d, r9d
  00033	48 8b 44 24 58	 mov	 rax, QWORD PTR nLen$[rsp]
  00038	44 8b 00	 mov	 r8d, DWORD PTR [rax]
  0003b	48 8b 54 24 60	 mov	 rdx, QWORD PTR szBuffer$[rsp]
  00040	48 8b 44 24 50	 mov	 rax, QWORD PTR this$[rsp]
  00045	48 8b 48 08	 mov	 rcx, QWORD PTR [rax+8]
  00049	ff 15 00 00 00
	00		 call	 QWORD PTR __imp_send
  0004f	89 44 24 24	 mov	 DWORD PTR nSize$[rsp], eax

; 185  : 	if(nSize != *nLen) {

  00053	48 8b 44 24 58	 mov	 rax, QWORD PTR nLen$[rsp]
  00058	8b 00		 mov	 eax, DWORD PTR [rax]
  0005a	39 44 24 24	 cmp	 DWORD PTR nSize$[rsp], eax
  0005e	74 2b		 je	 SHORT $LN3@SendNRecv

; 186  : 		strcpy(m_szErrMsg, "WVSocket::ConnectTo Socket send Error");		

  00060	48 8b 44 24 50	 mov	 rax, QWORD PTR this$[rsp]
  00065	48 8d 0d 00 00
	00 00		 lea	 rcx, OFFSET FLAT:$SG84606
  0006c	48 8d 78 44	 lea	 rdi, QWORD PTR [rax+68]
  00070	48 8b f1	 mov	 rsi, rcx
  00073	b9 26 00 00 00	 mov	 ecx, 38			; 00000026H
  00078	f3 a4		 rep movsb

; 187  : 		onClose();

  0007a	48 8b 4c 24 50	 mov	 rcx, QWORD PTR this$[rsp]
  0007f	e8 00 00 00 00	 call	 ?onClose@WVSocket@@IEAAXXZ ; WVSocket::onClose

; 188  : 		return -1;

  00084	b8 ff ff ff ff	 mov	 eax, -1
  00089	eb 49		 jmp	 SHORT $LN1@SendNRecv
$LN3@SendNRecv:

; 189  : 	}
; 190  : 	SLEEP(1);

  0008b	b9 e8 03 00 00	 mov	 ecx, 1000		; 000003e8H
  00090	ff 15 00 00 00
	00		 call	 QWORD PTR __imp_Sleep

; 191  : 	*nLen = RecvStringData(szBuffer, nBLen);

  00096	44 8b 44 24 68	 mov	 r8d, DWORD PTR nBLen$[rsp]
  0009b	48 8b 54 24 60	 mov	 rdx, QWORD PTR szBuffer$[rsp]
  000a0	48 8b 4c 24 50	 mov	 rcx, QWORD PTR this$[rsp]
  000a5	e8 00 00 00 00	 call	 ?RecvStringData@WVSocket@@QEAAHPEADH@Z ; WVSocket::RecvStringData
  000aa	48 8b 4c 24 58	 mov	 rcx, QWORD PTR nLen$[rsp]
  000af	89 01		 mov	 DWORD PTR [rcx], eax

; 192  : 	return *nLen < 0 ? -1 : *nLen;

  000b1	48 8b 44 24 58	 mov	 rax, QWORD PTR nLen$[rsp]
  000b6	83 38 00	 cmp	 DWORD PTR [rax], 0
  000b9	7d 0a		 jge	 SHORT $LN5@SendNRecv
  000bb	c7 44 24 20 ff
	ff ff ff	 mov	 DWORD PTR tv88[rsp], -1
  000c3	eb 0b		 jmp	 SHORT $LN6@SendNRecv
$LN5@SendNRecv:
  000c5	48 8b 44 24 58	 mov	 rax, QWORD PTR nLen$[rsp]
  000ca	8b 00		 mov	 eax, DWORD PTR [rax]
  000cc	89 44 24 20	 mov	 DWORD PTR tv88[rsp], eax
$LN6@SendNRecv:
  000d0	8b 44 24 20	 mov	 eax, DWORD PTR tv88[rsp]
$LN1@SendNRecv:

; 193  : }

  000d4	48 83 c4 38	 add	 rsp, 56			; 00000038H
  000d8	5f		 pop	 rdi
  000d9	5e		 pop	 rsi
  000da	c3		 ret	 0
?SendNRecv@WVSocket@@QEAAHPEAHPEADH@Z ENDP		; WVSocket::SendNRecv
_TEXT	ENDS
; Function compile flags: /Odtp
; File e:\infinia-library-3.0\com\src\wvsocket.cpp
;	COMDAT ?ConnectTo@WVSocket@@QEAAHPEBDH@Z
_TEXT	SEGMENT
tv69 = 32
nRet$ = 36
tv67 = 40
tv65 = 48
tv68 = 56
sa$ = 64
__$ArrayPad$ = 80
this$ = 128
szIP$ = 136
nPort$ = 144
?ConnectTo@WVSocket@@QEAAHPEBDH@Z PROC			; WVSocket::ConnectTo, COMDAT

; 151  : {

$LN7:
  00000	44 89 44 24 18	 mov	 DWORD PTR [rsp+24], r8d
  00005	48 89 54 24 10	 mov	 QWORD PTR [rsp+16], rdx
  0000a	48 89 4c 24 08	 mov	 QWORD PTR [rsp+8], rcx
  0000f	56		 push	 rsi
  00010	57		 push	 rdi
  00011	48 83 ec 68	 sub	 rsp, 104		; 00000068H
  00015	48 8b 05 00 00
	00 00		 mov	 rax, QWORD PTR __security_cookie
  0001c	48 33 c4	 xor	 rax, rsp
  0001f	48 89 44 24 50	 mov	 QWORD PTR __$ArrayPad$[rsp], rax

; 152  : 	struct sockaddr_in sa;
; 153  : 	
; 154  : 	strcpy(m_szIP, szIP);

  00024	48 8b 84 24 88
	00 00 00	 mov	 rax, QWORD PTR szIP$[rsp]
  0002c	48 89 44 24 30	 mov	 QWORD PTR tv65[rsp], rax
  00031	48 8b 84 24 80
	00 00 00	 mov	 rax, QWORD PTR this$[rsp]
  00039	48 83 c0 20	 add	 rax, 32			; 00000020H
  0003d	48 89 44 24 28	 mov	 QWORD PTR tv67[rsp], rax
  00042	48 8b 44 24 28	 mov	 rax, QWORD PTR tv67[rsp]
  00047	48 89 44 24 38	 mov	 QWORD PTR tv68[rsp], rax
$LN6@ConnectTo:
  0004c	48 8b 44 24 30	 mov	 rax, QWORD PTR tv65[rsp]
  00051	0f b6 00	 movzx	 eax, BYTE PTR [rax]
  00054	88 44 24 20	 mov	 BYTE PTR tv69[rsp], al
  00058	48 8b 44 24 28	 mov	 rax, QWORD PTR tv67[rsp]
  0005d	0f b6 4c 24 20	 movzx	 ecx, BYTE PTR tv69[rsp]
  00062	88 08		 mov	 BYTE PTR [rax], cl
  00064	48 8b 44 24 30	 mov	 rax, QWORD PTR tv65[rsp]
  00069	48 ff c0	 inc	 rax
  0006c	48 89 44 24 30	 mov	 QWORD PTR tv65[rsp], rax
  00071	48 8b 44 24 28	 mov	 rax, QWORD PTR tv67[rsp]
  00076	48 ff c0	 inc	 rax
  00079	48 89 44 24 28	 mov	 QWORD PTR tv67[rsp], rax
  0007e	80 7c 24 20 00	 cmp	 BYTE PTR tv69[rsp], 0
  00083	75 c7		 jne	 SHORT $LN6@ConnectTo

; 155  : 	m_nPort = nPort;

  00085	48 8b 84 24 80
	00 00 00	 mov	 rax, QWORD PTR this$[rsp]
  0008d	8b 8c 24 90 00
	00 00		 mov	 ecx, DWORD PTR nPort$[rsp]
  00094	89 48 40	 mov	 DWORD PTR [rax+64], ecx

; 156  : 	if (m_nSocket == -1) {

  00097	48 8b 84 24 80
	00 00 00	 mov	 rax, QWORD PTR this$[rsp]
  0009f	48 83 78 08 ff	 cmp	 QWORD PTR [rax+8], -1
  000a4	75 55		 jne	 SHORT $LN2@ConnectTo

; 157  : 		m_nSocket = ::socket(SOCK_FLAG, SOCK_STREAM, 0);

  000a6	45 33 c0	 xor	 r8d, r8d
  000a9	ba 01 00 00 00	 mov	 edx, 1
  000ae	b9 02 00 00 00	 mov	 ecx, 2
  000b3	ff 15 00 00 00
	00		 call	 QWORD PTR __imp_socket
  000b9	48 8b 8c 24 80
	00 00 00	 mov	 rcx, QWORD PTR this$[rsp]
  000c1	48 89 41 08	 mov	 QWORD PTR [rcx+8], rax

; 158  : 		if (m_nSocket == -1) {

  000c5	48 8b 84 24 80
	00 00 00	 mov	 rax, QWORD PTR this$[rsp]
  000cd	48 83 78 08 ff	 cmp	 QWORD PTR [rax+8], -1
  000d2	75 27		 jne	 SHORT $LN3@ConnectTo

; 159  : 			strcpy(m_szErrMsg, "WVSocket::ConnectTo Socket create Error");

  000d4	48 8b 84 24 80
	00 00 00	 mov	 rax, QWORD PTR this$[rsp]
  000dc	48 8d 0d 00 00
	00 00		 lea	 rcx, OFFSET FLAT:$SG84594
  000e3	48 8d 78 44	 lea	 rdi, QWORD PTR [rax+68]
  000e7	48 8b f1	 mov	 rsi, rcx
  000ea	b9 28 00 00 00	 mov	 ecx, 40			; 00000028H
  000ef	f3 a4		 rep movsb

; 160  : 			return -1;

  000f1	b8 ff ff ff ff	 mov	 eax, -1
  000f6	e9 a8 00 00 00	 jmp	 $LN1@ConnectTo
$LN3@ConnectTo:
$LN2@ConnectTo:

; 161  : 		}
; 162  : 	}
; 163  : 
; 164  : 	memset(&sa, 0x00, sizeof(sa));

  000fb	48 8d 44 24 40	 lea	 rax, QWORD PTR sa$[rsp]
  00100	48 8b f8	 mov	 rdi, rax
  00103	33 c0		 xor	 eax, eax
  00105	b9 10 00 00 00	 mov	 ecx, 16
  0010a	f3 aa		 rep stosb

; 165  : 	
; 166  : 	sa.sin_family = AF_INET;

  0010c	b8 02 00 00 00	 mov	 eax, 2
  00111	66 89 44 24 40	 mov	 WORD PTR sa$[rsp], ax

; 167  : 	sa.sin_port = htons((short)nPort);

  00116	0f b7 8c 24 90
	00 00 00	 movzx	 ecx, WORD PTR nPort$[rsp]
  0011e	ff 15 00 00 00
	00		 call	 QWORD PTR __imp_htons
  00124	66 89 44 24 42	 mov	 WORD PTR sa$[rsp+2], ax

; 168  : 	sa.sin_addr.s_addr = inet_addr(szIP);

  00129	48 8b 8c 24 88
	00 00 00	 mov	 rcx, QWORD PTR szIP$[rsp]
  00131	ff 15 00 00 00
	00		 call	 QWORD PTR __imp_inet_addr
  00137	89 44 24 44	 mov	 DWORD PTR sa$[rsp+4], eax

; 169  : 	
; 170  : 	int nRet = connect(m_nSocket, (struct sockaddr*)&sa, sizeof(sockaddr_in));

  0013b	41 b8 10 00 00
	00		 mov	 r8d, 16
  00141	48 8d 54 24 40	 lea	 rdx, QWORD PTR sa$[rsp]
  00146	48 8b 84 24 80
	00 00 00	 mov	 rax, QWORD PTR this$[rsp]
  0014e	48 8b 48 08	 mov	 rcx, QWORD PTR [rax+8]
  00152	ff 15 00 00 00
	00		 call	 QWORD PTR __imp_connect
  00158	89 44 24 24	 mov	 DWORD PTR nRet$[rsp], eax

; 171  : 	if(nRet == -1) {

  0015c	83 7c 24 24 ff	 cmp	 DWORD PTR nRet$[rsp], -1
  00161	75 30		 jne	 SHORT $LN4@ConnectTo

; 172  : 		strcpy(m_szErrMsg, "WVSocket::ConnectTo Socket connect Error");		

  00163	48 8b 84 24 80
	00 00 00	 mov	 rax, QWORD PTR this$[rsp]
  0016b	48 8d 0d 00 00
	00 00		 lea	 rcx, OFFSET FLAT:$SG84596
  00172	48 8d 78 44	 lea	 rdi, QWORD PTR [rax+68]
  00176	48 8b f1	 mov	 rsi, rcx
  00179	b9 29 00 00 00	 mov	 ecx, 41			; 00000029H
  0017e	f3 a4		 rep movsb

; 173  : 		onClose();

  00180	48 8b 8c 24 80
	00 00 00	 mov	 rcx, QWORD PTR this$[rsp]
  00188	e8 00 00 00 00	 call	 ?onClose@WVSocket@@IEAAXXZ ; WVSocket::onClose

; 174  : 		return nRet;

  0018d	8b 44 24 24	 mov	 eax, DWORD PTR nRet$[rsp]
  00191	eb 10		 jmp	 SHORT $LN1@ConnectTo
$LN4@ConnectTo:

; 175  : 	}
; 176  : 	m_bConnected = true;

  00193	48 8b 84 24 80
	00 00 00	 mov	 rax, QWORD PTR this$[rsp]
  0019b	c6 00 01	 mov	 BYTE PTR [rax], 1

; 177  : 	return 1;

  0019e	b8 01 00 00 00	 mov	 eax, 1
$LN1@ConnectTo:

; 178  : }

  001a3	48 8b 4c 24 50	 mov	 rcx, QWORD PTR __$ArrayPad$[rsp]
  001a8	48 33 cc	 xor	 rcx, rsp
  001ab	e8 00 00 00 00	 call	 __security_check_cookie
  001b0	48 83 c4 68	 add	 rsp, 104		; 00000068H
  001b4	5f		 pop	 rdi
  001b5	5e		 pop	 rsi
  001b6	c3		 ret	 0
?ConnectTo@WVSocket@@QEAAHPEBDH@Z ENDP			; WVSocket::ConnectTo
_TEXT	ENDS
; Function compile flags: /Odtp
; File e:\infinia-library-3.0\com\src\wvsocket.cpp
;	COMDAT ?GetRecvData@WVSocket@@QEAAHPEADH@Z
_TEXT	SEGMENT
this$ = 48
pBuf$ = 56
nBLen$ = 64
?GetRecvData@WVSocket@@QEAAHPEADH@Z PROC		; WVSocket::GetRecvData, COMDAT

; 112  : {

$LN5:
  00000	44 89 44 24 18	 mov	 DWORD PTR [rsp+24], r8d
  00005	48 89 54 24 10	 mov	 QWORD PTR [rsp+16], rdx
  0000a	48 89 4c 24 08	 mov	 QWORD PTR [rsp+8], rcx
  0000f	48 83 ec 28	 sub	 rsp, 40			; 00000028H

; 113  : 	if (m_szRecvData && pBuf) {

  00013	48 8b 44 24 30	 mov	 rax, QWORD PTR this$[rsp]
  00018	48 83 78 10 00	 cmp	 QWORD PTR [rax+16], 0
  0001d	74 58		 je	 SHORT $LN2@GetRecvDat
  0001f	48 83 7c 24 38
	00		 cmp	 QWORD PTR pBuf$[rsp], 0
  00025	74 50		 je	 SHORT $LN2@GetRecvDat

; 114  : 		if (nBLen < m_nRecvDLen) {

  00027	48 8b 44 24 30	 mov	 rax, QWORD PTR this$[rsp]
  0002c	8b 40 1c	 mov	 eax, DWORD PTR [rax+28]
  0002f	39 44 24 40	 cmp	 DWORD PTR nBLen$[rsp], eax
  00033	7d 1f		 jge	 SHORT $LN3@GetRecvDat

; 115  : 			c_memcpy(pBuf, m_szRecvData, nBLen);

  00035	44 8b 44 24 40	 mov	 r8d, DWORD PTR nBLen$[rsp]
  0003a	48 8b 44 24 30	 mov	 rax, QWORD PTR this$[rsp]
  0003f	48 8b 50 10	 mov	 rdx, QWORD PTR [rax+16]
  00043	48 8b 4c 24 38	 mov	 rcx, QWORD PTR pBuf$[rsp]
  00048	e8 00 00 00 00	 call	 ?c_memcpy@@YAPEAXPEAXPEBXH@Z ; c_memcpy

; 116  : 			return -1;

  0004d	b8 ff ff ff ff	 mov	 eax, -1
  00052	eb 25		 jmp	 SHORT $LN1@GetRecvDat
$LN3@GetRecvDat:

; 117  : 		}
; 118  : 		c_memcpy(pBuf, m_szRecvData, m_nRecvDLen);

  00054	48 8b 44 24 30	 mov	 rax, QWORD PTR this$[rsp]
  00059	44 8b 40 1c	 mov	 r8d, DWORD PTR [rax+28]
  0005d	48 8b 44 24 30	 mov	 rax, QWORD PTR this$[rsp]
  00062	48 8b 50 10	 mov	 rdx, QWORD PTR [rax+16]
  00066	48 8b 4c 24 38	 mov	 rcx, QWORD PTR pBuf$[rsp]
  0006b	e8 00 00 00 00	 call	 ?c_memcpy@@YAPEAXPEAXPEBXH@Z ; c_memcpy

; 119  : 		return 1;

  00070	b8 01 00 00 00	 mov	 eax, 1
  00075	eb 02		 jmp	 SHORT $LN1@GetRecvDat
$LN2@GetRecvDat:

; 120  : 	}
; 121  : 	return 0;

  00077	33 c0		 xor	 eax, eax
$LN1@GetRecvDat:

; 122  : }

  00079	48 83 c4 28	 add	 rsp, 40			; 00000028H
  0007d	c3		 ret	 0
?GetRecvData@WVSocket@@QEAAHPEADH@Z ENDP		; WVSocket::GetRecvData
_TEXT	ENDS
; Function compile flags: /Odtp
; File e:\infinia-library-3.0\com\src\wvsocket.cpp
;	COMDAT ?SetAcceptedSocket@WVSocket@@QEAAXH@Z
_TEXT	SEGMENT
this$ = 48
nSocket$ = 56
?SetAcceptedSocket@WVSocket@@QEAAXH@Z PROC		; WVSocket::SetAcceptedSocket, COMDAT

; 104  : {

$LN4:
  00000	89 54 24 10	 mov	 DWORD PTR [rsp+16], edx
  00004	48 89 4c 24 08	 mov	 QWORD PTR [rsp+8], rcx
  00009	48 83 ec 28	 sub	 rsp, 40			; 00000028H

; 105  : 	if (m_nSocket >= 0)

  0000d	48 8b 44 24 30	 mov	 rax, QWORD PTR this$[rsp]
  00012	48 83 78 08 00	 cmp	 QWORD PTR [rax+8], 0
  00017	72 0f		 jb	 SHORT $LN2@SetAccepte

; 106  : 		SOCKETCLOSE(m_nSocket);

  00019	48 8b 44 24 30	 mov	 rax, QWORD PTR this$[rsp]
  0001e	48 8b 48 08	 mov	 rcx, QWORD PTR [rax+8]
  00022	ff 15 00 00 00
	00		 call	 QWORD PTR __imp_closesocket
$LN2@SetAccepte:

; 107  : 	m_nSocket = nSocket;

  00028	48 63 44 24 38	 movsxd	 rax, DWORD PTR nSocket$[rsp]
  0002d	48 8b 4c 24 30	 mov	 rcx, QWORD PTR this$[rsp]
  00032	48 89 41 08	 mov	 QWORD PTR [rcx+8], rax

; 108  : 	m_bConnected = true;

  00036	48 8b 44 24 30	 mov	 rax, QWORD PTR this$[rsp]
  0003b	c6 00 01	 mov	 BYTE PTR [rax], 1

; 109  : }

  0003e	48 83 c4 28	 add	 rsp, 40			; 00000028H
  00042	c3		 ret	 0
?SetAcceptedSocket@WVSocket@@QEAAXH@Z ENDP		; WVSocket::SetAcceptedSocket
_TEXT	ENDS
; Function compile flags: /Odtp
; File e:\infinia-library-3.0\com\src\wvsocket.cpp
;	COMDAT ?PutData@WVSocket@@QEAAHPEADHJ@Z
_TEXT	SEGMENT
sLen$ = 32
sPos$ = 36
tmCur$ = 40
tmIn$ = 48
this$ = 96
szBuf$ = 104
nLen$ = 112
ltimeOut$ = 120
?PutData@WVSocket@@QEAAHPEADHJ@Z PROC			; WVSocket::PutData, COMDAT

; 198  : {

$LN14:
  00000	44 89 4c 24 20	 mov	 DWORD PTR [rsp+32], r9d
  00005	44 89 44 24 18	 mov	 DWORD PTR [rsp+24], r8d
  0000a	48 89 54 24 10	 mov	 QWORD PTR [rsp+16], rdx
  0000f	48 89 4c 24 08	 mov	 QWORD PTR [rsp+8], rcx
  00014	56		 push	 rsi
  00015	57		 push	 rdi
  00016	48 83 ec 48	 sub	 rsp, 72			; 00000048H

; 199  : 	time_t	tmIn, tmCur;
; 200  : 	int	sLen, sPos;
; 201  : 
; 202  : 	if (m_nSocket < 0)

  0001a	48 8b 44 24 60	 mov	 rax, QWORD PTR this$[rsp]
  0001f	48 83 78 08 00	 cmp	 QWORD PTR [rax+8], 0
  00024	73 0a		 jae	 SHORT $LN4@PutData

; 203  : 		return -1;

  00026	b8 ff ff ff ff	 mov	 eax, -1
  0002b	e9 80 01 00 00	 jmp	 $LN1@PutData
$LN4@PutData:

; 204  : 	
; 205  : 	if (ltimeOut == 0) {

  00030	83 7c 24 78 00	 cmp	 DWORD PTR ltimeOut$[rsp], 0
  00035	75 5e		 jne	 SHORT $LN5@PutData

; 206  : 		sLen = send(m_nSocket, szBuf, nLen, 0);

  00037	45 33 c9	 xor	 r9d, r9d
  0003a	44 8b 44 24 70	 mov	 r8d, DWORD PTR nLen$[rsp]
  0003f	48 8b 54 24 68	 mov	 rdx, QWORD PTR szBuf$[rsp]
  00044	48 8b 44 24 60	 mov	 rax, QWORD PTR this$[rsp]
  00049	48 8b 48 08	 mov	 rcx, QWORD PTR [rax+8]
  0004d	ff 15 00 00 00
	00		 call	 QWORD PTR __imp_send
  00053	89 44 24 20	 mov	 DWORD PTR sLen$[rsp], eax

; 207  : 		if (sLen < 0) 

  00057	83 7c 24 20 00	 cmp	 DWORD PTR sLen$[rsp], 0
  0005c	7d 2e		 jge	 SHORT $LN6@PutData

; 208  : 		{
; 209  : 			strcpy(m_szErrMsg, "WVSocket::PutData Socket send Error");	

  0005e	48 8b 44 24 60	 mov	 rax, QWORD PTR this$[rsp]
  00063	48 8d 0d 00 00
	00 00		 lea	 rcx, OFFSET FLAT:$SG84622
  0006a	48 8d 78 44	 lea	 rdi, QWORD PTR [rax+68]
  0006e	48 8b f1	 mov	 rsi, rcx
  00071	b9 24 00 00 00	 mov	 ecx, 36			; 00000024H
  00076	f3 a4		 rep movsb

; 210  : 			onClose();

  00078	48 8b 4c 24 60	 mov	 rcx, QWORD PTR this$[rsp]
  0007d	e8 00 00 00 00	 call	 ?onClose@WVSocket@@IEAAXXZ ; WVSocket::onClose

; 211  : 			return -1;

  00082	b8 ff ff ff ff	 mov	 eax, -1
  00087	e9 24 01 00 00	 jmp	 $LN1@PutData
$LN6@PutData:

; 212  : 		}
; 213  : 		return sLen;

  0008c	8b 44 24 20	 mov	 eax, DWORD PTR sLen$[rsp]
  00090	e9 1b 01 00 00	 jmp	 $LN1@PutData
$LN5@PutData:

; 214  : 	}
; 215  : 
; 216  : 	sPos = sLen = 0;

  00095	c7 44 24 20 00
	00 00 00	 mov	 DWORD PTR sLen$[rsp], 0
  0009d	8b 44 24 20	 mov	 eax, DWORD PTR sLen$[rsp]
  000a1	89 44 24 24	 mov	 DWORD PTR sPos$[rsp], eax

; 217  : 	tmIn = tmCur = time(NULL);

  000a5	33 c9		 xor	 ecx, ecx
  000a7	e8 00 00 00 00	 call	 time
  000ac	48 89 44 24 28	 mov	 QWORD PTR tmCur$[rsp], rax
  000b1	48 8b 44 24 28	 mov	 rax, QWORD PTR tmCur$[rsp]
  000b6	48 89 44 24 30	 mov	 QWORD PTR tmIn$[rsp], rax
$LN13@PutData:
$LN2@PutData:

; 218  : 	while (sPos < nLen) {

  000bb	8b 44 24 70	 mov	 eax, DWORD PTR nLen$[rsp]
  000bf	39 44 24 24	 cmp	 DWORD PTR sPos$[rsp], eax
  000c3	0f 8d e3 00 00
	00		 jge	 $LN3@PutData

; 219  : 		sLen = send(m_nSocket, szBuf + sPos, nLen - sPos, NODELAY);

  000c9	8b 44 24 24	 mov	 eax, DWORD PTR sPos$[rsp]
  000cd	8b 4c 24 70	 mov	 ecx, DWORD PTR nLen$[rsp]
  000d1	2b c8		 sub	 ecx, eax
  000d3	8b c1		 mov	 eax, ecx
  000d5	48 63 4c 24 24	 movsxd	 rcx, DWORD PTR sPos$[rsp]
  000da	48 8b 54 24 68	 mov	 rdx, QWORD PTR szBuf$[rsp]
  000df	48 03 d1	 add	 rdx, rcx
  000e2	48 8b ca	 mov	 rcx, rdx
  000e5	45 33 c9	 xor	 r9d, r9d
  000e8	44 8b c0	 mov	 r8d, eax
  000eb	48 8b d1	 mov	 rdx, rcx
  000ee	48 8b 44 24 60	 mov	 rax, QWORD PTR this$[rsp]
  000f3	48 8b 48 08	 mov	 rcx, QWORD PTR [rax+8]
  000f7	ff 15 00 00 00
	00		 call	 QWORD PTR __imp_send
  000fd	89 44 24 20	 mov	 DWORD PTR sLen$[rsp], eax

; 220  : 		if (sLen < 0) {

  00101	83 7c 24 20 00	 cmp	 DWORD PTR sLen$[rsp], 0
  00106	7d 49		 jge	 SHORT $LN7@PutData

; 221  : #ifdef WIN32
; 222  : 			if (WSAGetLastError() == WSAEWOULDBLOCK) {

  00108	ff 15 00 00 00
	00		 call	 QWORD PTR __imp_WSAGetLastError
  0010e	3d 33 27 00 00	 cmp	 eax, 10035		; 00002733H
  00113	75 0f		 jne	 SHORT $LN9@PutData

; 223  : #else
; 224  : 			if (errno == EWOULDBLOCK) {
; 225  : #endif
; 226  : 				SLEEP(1);

  00115	b9 e8 03 00 00	 mov	 ecx, 1000		; 000003e8H
  0011a	ff 15 00 00 00
	00		 call	 QWORD PTR __imp_Sleep

; 227  : 				continue;

  00120	eb 99		 jmp	 SHORT $LN2@PutData

; 228  : 			}
; 229  : 			else {

  00122	eb 1a		 jmp	 SHORT $LN10@PutData
$LN9@PutData:

; 230  : 				strcpy(m_szErrMsg, "WVSocket::PutData Socket send Error - 2");	

  00124	48 8b 44 24 60	 mov	 rax, QWORD PTR this$[rsp]
  00129	48 8d 0d 00 00
	00 00		 lea	 rcx, OFFSET FLAT:$SG84627
  00130	48 8d 78 44	 lea	 rdi, QWORD PTR [rax+68]
  00134	48 8b f1	 mov	 rsi, rcx
  00137	b9 28 00 00 00	 mov	 ecx, 40			; 00000028H
  0013c	f3 a4		 rep movsb
$LN10@PutData:

; 231  : 			}
; 232  : 			onClose();

  0013e	48 8b 4c 24 60	 mov	 rcx, QWORD PTR this$[rsp]
  00143	e8 00 00 00 00	 call	 ?onClose@WVSocket@@IEAAXXZ ; WVSocket::onClose

; 233  : 			return -1;

  00148	b8 ff ff ff ff	 mov	 eax, -1
  0014d	eb 61		 jmp	 SHORT $LN1@PutData

; 234  : 
; 235  : 		}
; 236  : 		else

  0014f	eb 10		 jmp	 SHORT $LN8@PutData
$LN7@PutData:

; 237  : 			sPos += sLen;

  00151	8b 44 24 20	 mov	 eax, DWORD PTR sLen$[rsp]
  00155	8b 4c 24 24	 mov	 ecx, DWORD PTR sPos$[rsp]
  00159	03 c8		 add	 ecx, eax
  0015b	8b c1		 mov	 eax, ecx
  0015d	89 44 24 24	 mov	 DWORD PTR sPos$[rsp], eax
$LN8@PutData:

; 238  : 
; 239  : 		tmCur = time(NULL); // 20090420 rivo

  00161	33 c9		 xor	 ecx, ecx
  00163	e8 00 00 00 00	 call	 time
  00168	48 89 44 24 28	 mov	 QWORD PTR tmCur$[rsp], rax

; 240  : 
; 241  : 		if (tmCur - tmIn > ltimeOut) {

  0016d	48 8b 44 24 30	 mov	 rax, QWORD PTR tmIn$[rsp]
  00172	48 8b 4c 24 28	 mov	 rcx, QWORD PTR tmCur$[rsp]
  00177	48 2b c8	 sub	 rcx, rax
  0017a	48 8b c1	 mov	 rax, rcx
  0017d	48 63 4c 24 78	 movsxd	 rcx, DWORD PTR ltimeOut$[rsp]
  00182	48 3b c1	 cmp	 rax, rcx
  00185	7e 20		 jle	 SHORT $LN11@PutData

; 242  : 			strcpy(m_szErrMsg, "WVSocket::PutData send timeout Error");

  00187	48 8b 44 24 60	 mov	 rax, QWORD PTR this$[rsp]
  0018c	48 8d 0d 00 00
	00 00		 lea	 rcx, OFFSET FLAT:$SG84629
  00193	48 8d 78 44	 lea	 rdi, QWORD PTR [rax+68]
  00197	48 8b f1	 mov	 rsi, rcx
  0019a	b9 25 00 00 00	 mov	 ecx, 37			; 00000025H
  0019f	f3 a4		 rep movsb

; 243  : 			return sPos;

  001a1	8b 44 24 24	 mov	 eax, DWORD PTR sPos$[rsp]
  001a5	eb 09		 jmp	 SHORT $LN1@PutData
$LN11@PutData:

; 244  : 		}
; 245  : 	}

  001a7	e9 0f ff ff ff	 jmp	 $LN13@PutData
$LN3@PutData:

; 246  : 
; 247  : 	return sPos;

  001ac	8b 44 24 24	 mov	 eax, DWORD PTR sPos$[rsp]
$LN1@PutData:

; 248  : }

  001b0	48 83 c4 48	 add	 rsp, 72			; 00000048H
  001b4	5f		 pop	 rdi
  001b5	5e		 pop	 rsi
  001b6	c3		 ret	 0
?PutData@WVSocket@@QEAAHPEADHJ@Z ENDP			; WVSocket::PutData
_TEXT	ENDS
; Function compile flags: /Odtp
; File e:\infinia-library-3.0\com\src\wvsocket.cpp
;	COMDAT ?GetData@WVSocket@@QEAAHPEADHJ@Z
_TEXT	SEGMENT
nPos$ = 32
nRet$ = 36
curTm$ = 40
stTm$ = 48
this$ = 96
szBuf$ = 104
nLen$ = 112
ltimeOut$ = 120
?GetData@WVSocket@@QEAAHPEADHJ@Z PROC			; WVSocket::GetData, COMDAT

; 251  : {

$LN13:
  00000	44 89 4c 24 20	 mov	 DWORD PTR [rsp+32], r9d
  00005	44 89 44 24 18	 mov	 DWORD PTR [rsp+24], r8d
  0000a	48 89 54 24 10	 mov	 QWORD PTR [rsp+16], rdx
  0000f	48 89 4c 24 08	 mov	 QWORD PTR [rsp+8], rcx
  00014	56		 push	 rsi
  00015	57		 push	 rdi
  00016	48 83 ec 48	 sub	 rsp, 72			; 00000048H

; 252  : 	int	nRet, nPos = 0;

  0001a	c7 44 24 20 00
	00 00 00	 mov	 DWORD PTR nPos$[rsp], 0

; 253  : 	time_t	stTm, curTm;
; 254  : 
; 255  : 	if (m_nSocket < 0)

  00022	48 8b 44 24 60	 mov	 rax, QWORD PTR this$[rsp]
  00027	48 83 78 08 00	 cmp	 QWORD PTR [rax+8], 0
  0002c	73 0a		 jae	 SHORT $LN4@GetData

; 256  : 		return -1;

  0002e	b8 ff ff ff ff	 mov	 eax, -1
  00033	e9 04 01 00 00	 jmp	 $LN1@GetData
$LN4@GetData:

; 257  : 
; 258  : 	if (ltimeOut)

  00038	83 7c 24 78 00	 cmp	 DWORD PTR ltimeOut$[rsp], 0
  0003d	74 16		 je	 SHORT $LN5@GetData

; 259  : 		stTm = curTm = time(NULL);

  0003f	33 c9		 xor	 ecx, ecx
  00041	e8 00 00 00 00	 call	 time
  00046	48 89 44 24 28	 mov	 QWORD PTR curTm$[rsp], rax
  0004b	48 8b 44 24 28	 mov	 rax, QWORD PTR curTm$[rsp]
  00050	48 89 44 24 30	 mov	 QWORD PTR stTm$[rsp], rax
$LN5@GetData:
$LN2@GetData:

; 260  : 
; 261  : 	while (1) {

  00055	33 c0		 xor	 eax, eax
  00057	83 f8 01	 cmp	 eax, 1
  0005a	0f 84 d8 00 00
	00		 je	 $LN3@GetData

; 262  : 		nRet = recv(m_nSocket, szBuf+nPos, nLen-nPos, NODELAY);

  00060	8b 44 24 20	 mov	 eax, DWORD PTR nPos$[rsp]
  00064	8b 4c 24 70	 mov	 ecx, DWORD PTR nLen$[rsp]
  00068	2b c8		 sub	 ecx, eax
  0006a	8b c1		 mov	 eax, ecx
  0006c	48 63 4c 24 20	 movsxd	 rcx, DWORD PTR nPos$[rsp]
  00071	48 8b 54 24 68	 mov	 rdx, QWORD PTR szBuf$[rsp]
  00076	48 03 d1	 add	 rdx, rcx
  00079	48 8b ca	 mov	 rcx, rdx
  0007c	45 33 c9	 xor	 r9d, r9d
  0007f	44 8b c0	 mov	 r8d, eax
  00082	48 8b d1	 mov	 rdx, rcx
  00085	48 8b 44 24 60	 mov	 rax, QWORD PTR this$[rsp]
  0008a	48 8b 48 08	 mov	 rcx, QWORD PTR [rax+8]
  0008e	ff 15 00 00 00
	00		 call	 QWORD PTR __imp_recv
  00094	89 44 24 24	 mov	 DWORD PTR nRet$[rsp], eax

; 263  : 		if (nRet <= 0) {

  00098	83 7c 24 24 00	 cmp	 DWORD PTR nRet$[rsp], 0
  0009d	7f 45		 jg	 SHORT $LN6@GetData

; 264  : #ifdef WIN32
; 265  : 			if (WSAGetLastError() != WSAEWOULDBLOCK) {

  0009f	ff 15 00 00 00
	00		 call	 QWORD PTR __imp_WSAGetLastError
  000a5	3d 33 27 00 00	 cmp	 eax, 10035		; 00002733H
  000aa	74 2b		 je	 SHORT $LN8@GetData

; 266  : #else
; 267  : 			if (errno != EWOULDBLOCK) {
; 268  : #endif
; 269  : 				strcpy(m_szErrMsg, "WVSocket::GetData recv Error");

  000ac	48 8b 44 24 60	 mov	 rax, QWORD PTR this$[rsp]
  000b1	48 8d 0d 00 00
	00 00		 lea	 rcx, OFFSET FLAT:$SG84647
  000b8	48 8d 78 44	 lea	 rdi, QWORD PTR [rax+68]
  000bc	48 8b f1	 mov	 rsi, rcx
  000bf	b9 1d 00 00 00	 mov	 ecx, 29
  000c4	f3 a4		 rep movsb

; 270  : 				onClose();

  000c6	48 8b 4c 24 60	 mov	 rcx, QWORD PTR this$[rsp]
  000cb	e8 00 00 00 00	 call	 ?onClose@WVSocket@@IEAAXXZ ; WVSocket::onClose

; 271  : 				return -1;

  000d0	b8 ff ff ff ff	 mov	 eax, -1
  000d5	eb 65		 jmp	 SHORT $LN1@GetData
$LN8@GetData:

; 272  : 			}
; 273  : 			SLEEP(1);

  000d7	b9 e8 03 00 00	 mov	 ecx, 1000		; 000003e8H
  000dc	ff 15 00 00 00
	00		 call	 QWORD PTR __imp_Sleep

; 274  : 		}
; 275  : 		else

  000e2	eb 10		 jmp	 SHORT $LN7@GetData
$LN6@GetData:

; 276  : 			nPos += nRet;

  000e4	8b 44 24 24	 mov	 eax, DWORD PTR nRet$[rsp]
  000e8	8b 4c 24 20	 mov	 ecx, DWORD PTR nPos$[rsp]
  000ec	03 c8		 add	 ecx, eax
  000ee	8b c1		 mov	 eax, ecx
  000f0	89 44 24 20	 mov	 DWORD PTR nPos$[rsp], eax
$LN7@GetData:

; 277  : 		if (nPos >= nLen)

  000f4	8b 44 24 70	 mov	 eax, DWORD PTR nLen$[rsp]
  000f8	39 44 24 20	 cmp	 DWORD PTR nPos$[rsp], eax
  000fc	7c 02		 jl	 SHORT $LN9@GetData

; 278  : 			break;

  000fe	eb 38		 jmp	 SHORT $LN3@GetData
$LN9@GetData:

; 279  : 
; 280  : 		if (ltimeOut) {

  00100	83 7c 24 78 00	 cmp	 DWORD PTR ltimeOut$[rsp], 0
  00105	74 2c		 je	 SHORT $LN10@GetData

; 281  : 			curTm = time(NULL);

  00107	33 c9		 xor	 ecx, ecx
  00109	e8 00 00 00 00	 call	 time
  0010e	48 89 44 24 28	 mov	 QWORD PTR curTm$[rsp], rax

; 282  : 
; 283  : 			if (curTm - stTm > ltimeOut)

  00113	48 8b 44 24 30	 mov	 rax, QWORD PTR stTm$[rsp]
  00118	48 8b 4c 24 28	 mov	 rcx, QWORD PTR curTm$[rsp]
  0011d	48 2b c8	 sub	 rcx, rax
  00120	48 8b c1	 mov	 rax, rcx
  00123	48 63 4c 24 78	 movsxd	 rcx, DWORD PTR ltimeOut$[rsp]
  00128	48 3b c1	 cmp	 rax, rcx
  0012b	7e 06		 jle	 SHORT $LN11@GetData

; 284  : 				return nPos;

  0012d	8b 44 24 20	 mov	 eax, DWORD PTR nPos$[rsp]
  00131	eb 09		 jmp	 SHORT $LN1@GetData
$LN11@GetData:
$LN10@GetData:

; 285  : 		}
; 286  : 	}

  00133	e9 1d ff ff ff	 jmp	 $LN2@GetData
$LN3@GetData:

; 287  : 	return nPos;

  00138	8b 44 24 20	 mov	 eax, DWORD PTR nPos$[rsp]
$LN1@GetData:

; 288  : }

  0013c	48 83 c4 48	 add	 rsp, 72			; 00000048H
  00140	5f		 pop	 rdi
  00141	5e		 pop	 rsi
  00142	c3		 ret	 0
?GetData@WVSocket@@QEAAHPEADHJ@Z ENDP			; WVSocket::GetData
_TEXT	ENDS
; Function compile flags: /Odtp
; File e:\infinia-library-3.0\com\src\wvsocket.cpp
;	COMDAT ?GetOption@WVSocket@@QEAAHHHPEAXPEAH@Z
_TEXT	SEGMENT
this$ = 64
level$ = 72
optname$ = 80
optval$ = 88
optlen$ = 96
?GetOption@WVSocket@@QEAAHHHPEAXPEAH@Z PROC		; WVSocket::GetOption, COMDAT

; 137  : {

$LN4:
  00000	4c 89 4c 24 20	 mov	 QWORD PTR [rsp+32], r9
  00005	44 89 44 24 18	 mov	 DWORD PTR [rsp+24], r8d
  0000a	89 54 24 10	 mov	 DWORD PTR [rsp+16], edx
  0000e	48 89 4c 24 08	 mov	 QWORD PTR [rsp+8], rcx
  00013	48 83 ec 38	 sub	 rsp, 56			; 00000038H

; 138  : 	if (m_nSocket < 0)

  00017	48 8b 44 24 40	 mov	 rax, QWORD PTR this$[rsp]
  0001c	48 83 78 08 00	 cmp	 QWORD PTR [rax+8], 0
  00021	73 07		 jae	 SHORT $LN2@GetOption

; 139  : 		return -1;

  00023	b8 ff ff ff ff	 mov	 eax, -1
  00028	eb 27		 jmp	 SHORT $LN1@GetOption
$LN2@GetOption:

; 140  : 
; 141  : #ifdef WIN32
; 142  : 	return getsockopt(m_nSocket, level, optname, (char*)optval, optlen);

  0002a	48 8b 44 24 60	 mov	 rax, QWORD PTR optlen$[rsp]
  0002f	48 89 44 24 20	 mov	 QWORD PTR [rsp+32], rax
  00034	4c 8b 4c 24 58	 mov	 r9, QWORD PTR optval$[rsp]
  00039	44 8b 44 24 50	 mov	 r8d, DWORD PTR optname$[rsp]
  0003e	8b 54 24 48	 mov	 edx, DWORD PTR level$[rsp]
  00042	48 8b 44 24 40	 mov	 rax, QWORD PTR this$[rsp]
  00047	48 8b 48 08	 mov	 rcx, QWORD PTR [rax+8]
  0004b	ff 15 00 00 00
	00		 call	 QWORD PTR __imp_getsockopt
$LN1@GetOption:

; 143  : #elif defined(__ia64)
; 144  : 	return getsockopt(m_nSocket, level, optname, optval, (int *)optlen);
; 145  : #else
; 146  : 	return getsockopt(m_nSocket, level, optname, optval, optlen);
; 147  : #endif
; 148  : }

  00051	48 83 c4 38	 add	 rsp, 56			; 00000038H
  00055	c3		 ret	 0
?GetOption@WVSocket@@QEAAHHHPEAXPEAH@Z ENDP		; WVSocket::GetOption
_TEXT	ENDS
; Function compile flags: /Odtp
; File e:\infinia-library-3.0\com\src\wvsocket.cpp
;	COMDAT ?SetOption@WVSocket@@QEAAHHHPEBXH@Z
_TEXT	SEGMENT
this$ = 64
level$ = 72
optname$ = 80
optval$ = 88
optlen$ = 96
?SetOption@WVSocket@@QEAAHHHPEBXH@Z PROC		; WVSocket::SetOption, COMDAT

; 125  : {

$LN4:
  00000	4c 89 4c 24 20	 mov	 QWORD PTR [rsp+32], r9
  00005	44 89 44 24 18	 mov	 DWORD PTR [rsp+24], r8d
  0000a	89 54 24 10	 mov	 DWORD PTR [rsp+16], edx
  0000e	48 89 4c 24 08	 mov	 QWORD PTR [rsp+8], rcx
  00013	48 83 ec 38	 sub	 rsp, 56			; 00000038H

; 126  : 	if (m_nSocket < 0)

  00017	48 8b 44 24 40	 mov	 rax, QWORD PTR this$[rsp]
  0001c	48 83 78 08 00	 cmp	 QWORD PTR [rax+8], 0
  00021	73 07		 jae	 SHORT $LN2@SetOption

; 127  : 		return -1;

  00023	b8 ff ff ff ff	 mov	 eax, -1
  00028	eb 25		 jmp	 SHORT $LN1@SetOption
$LN2@SetOption:

; 128  : 
; 129  : #ifdef WIN32
; 130  : 	return setsockopt(m_nSocket, level, optname, (char*)optval, optlen);

  0002a	8b 44 24 60	 mov	 eax, DWORD PTR optlen$[rsp]
  0002e	89 44 24 20	 mov	 DWORD PTR [rsp+32], eax
  00032	4c 8b 4c 24 58	 mov	 r9, QWORD PTR optval$[rsp]
  00037	44 8b 44 24 50	 mov	 r8d, DWORD PTR optname$[rsp]
  0003c	8b 54 24 48	 mov	 edx, DWORD PTR level$[rsp]
  00040	48 8b 44 24 40	 mov	 rax, QWORD PTR this$[rsp]
  00045	48 8b 48 08	 mov	 rcx, QWORD PTR [rax+8]
  00049	ff 15 00 00 00
	00		 call	 QWORD PTR __imp_setsockopt
$LN1@SetOption:

; 131  : #else
; 132  : 	return setsockopt(m_nSocket, level, optname, optval, optlen);
; 133  : #endif
; 134  : }

  0004f	48 83 c4 38	 add	 rsp, 56			; 00000038H
  00053	c3		 ret	 0
?SetOption@WVSocket@@QEAAHHHPEBXH@Z ENDP		; WVSocket::SetOption
_TEXT	ENDS
; Function compile flags: /Odtp
; File e:\infinia-library-3.0\com\src\wvsocket.cpp
;	COMDAT ?IsRecvData@WVSocket@@QEAA_NXZ
_TEXT	SEGMENT
__i$1 = 48
nfds$ = 52
nCount$ = 56
tv$ = 64
stFds$ = 80
__$ArrayPad$ = 608
this$ = 656
?IsRecvData@WVSocket@@QEAA_NXZ PROC			; WVSocket::IsRecvData, COMDAT

; 67   : {

$LN15:
  00000	48 89 4c 24 08	 mov	 QWORD PTR [rsp+8], rcx
  00005	56		 push	 rsi
  00006	57		 push	 rdi
  00007	48 81 ec 78 02
	00 00		 sub	 rsp, 632		; 00000278H
  0000e	48 8b 05 00 00
	00 00		 mov	 rax, QWORD PTR __security_cookie
  00015	48 33 c4	 xor	 rax, rsp
  00018	48 89 84 24 60
	02 00 00	 mov	 QWORD PTR __$ArrayPad$[rsp], rax

; 68   : 	struct timeval	tv;
; 69   : 	fd_set	stFds;
; 70   : 	int	nCount;
; 71   : 	int nfds;
; 72   : 
; 73   : 	if (m_nSocket < 0)

  00020	48 8b 84 24 90
	02 00 00	 mov	 rax, QWORD PTR this$[rsp]
  00028	48 83 78 08 00	 cmp	 QWORD PTR [rax+8], 0
  0002d	73 07		 jae	 SHORT $LN8@IsRecvData

; 74   : 		return false;

  0002f	32 c0		 xor	 al, al
  00031	e9 12 01 00 00	 jmp	 $LN1@IsRecvData
$LN8@IsRecvData:

; 75   : 
; 76   : 	tv.tv_sec	= 0;

  00036	c7 44 24 40 00
	00 00 00	 mov	 DWORD PTR tv$[rsp], 0

; 77   : 	tv.tv_usec	= 10000;

  0003e	c7 44 24 44 10
	27 00 00	 mov	 DWORD PTR tv$[rsp+4], 10000 ; 00002710H

; 78   : 
; 79   : 	FD_ZERO(&stFds);

  00046	c7 44 24 50 00
	00 00 00	 mov	 DWORD PTR stFds$[rsp], 0
$LN4@IsRecvData:

; 80   : 
; 81   : 	FD_SET(m_nSocket, &stFds);

  0004e	c7 44 24 30 00
	00 00 00	 mov	 DWORD PTR __i$1[rsp], 0
  00056	eb 0a		 jmp	 SHORT $LN7@IsRecvData
$LN5@IsRecvData:
  00058	8b 44 24 30	 mov	 eax, DWORD PTR __i$1[rsp]
  0005c	ff c0		 inc	 eax
  0005e	89 44 24 30	 mov	 DWORD PTR __i$1[rsp], eax
$LN7@IsRecvData:
  00062	8b 44 24 50	 mov	 eax, DWORD PTR stFds$[rsp]
  00066	39 44 24 30	 cmp	 DWORD PTR __i$1[rsp], eax
  0006a	73 1b		 jae	 SHORT $LN6@IsRecvData
  0006c	8b 44 24 30	 mov	 eax, DWORD PTR __i$1[rsp]
  00070	48 8b 8c 24 90
	02 00 00	 mov	 rcx, QWORD PTR this$[rsp]
  00078	48 8b 49 08	 mov	 rcx, QWORD PTR [rcx+8]
  0007c	48 39 4c c4 58	 cmp	 QWORD PTR stFds$[rsp+rax*8+8], rcx
  00081	75 02		 jne	 SHORT $LN9@IsRecvData
  00083	eb 02		 jmp	 SHORT $LN6@IsRecvData
$LN9@IsRecvData:
  00085	eb d1		 jmp	 SHORT $LN5@IsRecvData
$LN6@IsRecvData:
  00087	8b 44 24 50	 mov	 eax, DWORD PTR stFds$[rsp]
  0008b	39 44 24 30	 cmp	 DWORD PTR __i$1[rsp], eax
  0008f	75 26		 jne	 SHORT $LN10@IsRecvData
  00091	83 7c 24 50 40	 cmp	 DWORD PTR stFds$[rsp], 64 ; 00000040H
  00096	73 1f		 jae	 SHORT $LN11@IsRecvData
  00098	8b 44 24 30	 mov	 eax, DWORD PTR __i$1[rsp]
  0009c	48 8b 8c 24 90
	02 00 00	 mov	 rcx, QWORD PTR this$[rsp]
  000a4	48 8b 49 08	 mov	 rcx, QWORD PTR [rcx+8]
  000a8	48 89 4c c4 58	 mov	 QWORD PTR stFds$[rsp+rax*8+8], rcx
  000ad	8b 44 24 50	 mov	 eax, DWORD PTR stFds$[rsp]
  000b1	ff c0		 inc	 eax
  000b3	89 44 24 50	 mov	 DWORD PTR stFds$[rsp], eax
$LN11@IsRecvData:
$LN10@IsRecvData:
  000b7	33 c0		 xor	 eax, eax
  000b9	85 c0		 test	 eax, eax
  000bb	75 91		 jne	 SHORT $LN4@IsRecvData

; 82   : 	nfds = (int)m_nSocket;

  000bd	48 8b 84 24 90
	02 00 00	 mov	 rax, QWORD PTR this$[rsp]
  000c5	8b 40 08	 mov	 eax, DWORD PTR [rax+8]
  000c8	89 44 24 34	 mov	 DWORD PTR nfds$[rsp], eax

; 83   : 	nCount =  select (nfds + 1, &stFds, NULL, NULL, &tv);

  000cc	8b 44 24 34	 mov	 eax, DWORD PTR nfds$[rsp]
  000d0	ff c0		 inc	 eax
  000d2	48 8d 4c 24 40	 lea	 rcx, QWORD PTR tv$[rsp]
  000d7	48 89 4c 24 20	 mov	 QWORD PTR [rsp+32], rcx
  000dc	45 33 c9	 xor	 r9d, r9d
  000df	45 33 c0	 xor	 r8d, r8d
  000e2	48 8d 54 24 50	 lea	 rdx, QWORD PTR stFds$[rsp]
  000e7	8b c8		 mov	 ecx, eax
  000e9	ff 15 00 00 00
	00		 call	 QWORD PTR __imp_select
  000ef	89 44 24 38	 mov	 DWORD PTR nCount$[rsp], eax

; 84   : 	if (nCount  == -1) {

  000f3	83 7c 24 38 ff	 cmp	 DWORD PTR nCount$[rsp], -1
  000f8	75 2e		 jne	 SHORT $LN12@IsRecvData

; 85   : 		strcpy(m_szErrMsg, "Socket select error");

  000fa	48 8b 84 24 90
	02 00 00	 mov	 rax, QWORD PTR this$[rsp]
  00102	48 8d 0d 00 00
	00 00		 lea	 rcx, OFFSET FLAT:$SG84547
  00109	48 8d 78 44	 lea	 rdi, QWORD PTR [rax+68]
  0010d	48 8b f1	 mov	 rsi, rcx
  00110	b9 14 00 00 00	 mov	 ecx, 20
  00115	f3 a4		 rep movsb

; 86   : 		onClose();

  00117	48 8b 8c 24 90
	02 00 00	 mov	 rcx, QWORD PTR this$[rsp]
  0011f	e8 00 00 00 00	 call	 ?onClose@WVSocket@@IEAAXXZ ; WVSocket::onClose

; 87   : 		return false;

  00124	32 c0		 xor	 al, al
  00126	eb 20		 jmp	 SHORT $LN1@IsRecvData
$LN12@IsRecvData:

; 88   : 	}
; 89   : 
; 90   : 	if (FD_ISSET(m_nSocket, &stFds))

  00128	48 8d 54 24 50	 lea	 rdx, QWORD PTR stFds$[rsp]
  0012d	48 8b 84 24 90
	02 00 00	 mov	 rax, QWORD PTR this$[rsp]
  00135	48 8b 48 08	 mov	 rcx, QWORD PTR [rax+8]
  00139	e8 00 00 00 00	 call	 __WSAFDIsSet
  0013e	85 c0		 test	 eax, eax
  00140	74 04		 je	 SHORT $LN13@IsRecvData

; 91   : 		return true;

  00142	b0 01		 mov	 al, 1
  00144	eb 02		 jmp	 SHORT $LN1@IsRecvData
$LN13@IsRecvData:

; 92   : 
; 93   : 	return false;

  00146	32 c0		 xor	 al, al
$LN1@IsRecvData:

; 94   : }

  00148	48 8b 8c 24 60
	02 00 00	 mov	 rcx, QWORD PTR __$ArrayPad$[rsp]
  00150	48 33 cc	 xor	 rcx, rsp
  00153	e8 00 00 00 00	 call	 __security_check_cookie
  00158	48 81 c4 78 02
	00 00		 add	 rsp, 632		; 00000278H
  0015f	5f		 pop	 rdi
  00160	5e		 pop	 rsi
  00161	c3		 ret	 0
?IsRecvData@WVSocket@@QEAA_NXZ ENDP			; WVSocket::IsRecvData
_TEXT	ENDS
; Function compile flags: /Odtp
; File e:\infinia-library-3.0\com\src\wvsocket.cpp
;	COMDAT ??1WVSocket@@QEAA@XZ
_TEXT	SEGMENT
$T1 = 32
$T2 = 40
this$ = 64
??1WVSocket@@QEAA@XZ PROC				; WVSocket::~WVSocket, COMDAT

; 54   : {

$LN5:
  00000	48 89 4c 24 08	 mov	 QWORD PTR [rsp+8], rcx
  00005	48 83 ec 38	 sub	 rsp, 56			; 00000038H
  00009	48 c7 44 24 28
	fe ff ff ff	 mov	 QWORD PTR $T2[rsp], -2

; 55   : 	if (m_nSocket > 0) 

  00012	48 8b 44 24 40	 mov	 rax, QWORD PTR this$[rsp]
  00017	48 83 78 08 00	 cmp	 QWORD PTR [rax+8], 0
  0001c	76 0b		 jbe	 SHORT $LN2@WVSocket

; 56   : 		onClose();

  0001e	48 8b 4c 24 40	 mov	 rcx, QWORD PTR this$[rsp]
  00023	e8 00 00 00 00	 call	 ?onClose@WVSocket@@IEAAXXZ ; WVSocket::onClose
  00028	90		 npad	 1
$LN2@WVSocket:

; 57   : 
; 58   : 	if (m_szRecvData)

  00029	48 8b 44 24 40	 mov	 rax, QWORD PTR this$[rsp]
  0002e	48 83 78 10 00	 cmp	 QWORD PTR [rax+16], 0
  00033	74 19		 je	 SHORT $LN3@WVSocket

; 59   : 		delete [] m_szRecvData;	//20100127

  00035	48 8b 44 24 40	 mov	 rax, QWORD PTR this$[rsp]
  0003a	48 8b 40 10	 mov	 rax, QWORD PTR [rax+16]
  0003e	48 89 44 24 20	 mov	 QWORD PTR $T1[rsp], rax
  00043	48 8b 4c 24 20	 mov	 rcx, QWORD PTR $T1[rsp]
  00048	e8 00 00 00 00	 call	 ??_V@YAXPEAX@Z		; operator delete[]
  0004d	90		 npad	 1
$LN3@WVSocket:

; 60   : 
; 61   : 	m_nRecvBLen = m_nRecvDLen = 0;

  0004e	48 8b 44 24 40	 mov	 rax, QWORD PTR this$[rsp]
  00053	c7 40 1c 00 00
	00 00		 mov	 DWORD PTR [rax+28], 0
  0005a	48 8b 44 24 40	 mov	 rax, QWORD PTR this$[rsp]
  0005f	c7 40 18 00 00
	00 00		 mov	 DWORD PTR [rax+24], 0

; 62   : 
; 63   : }

  00066	48 83 c4 38	 add	 rsp, 56			; 00000038H
  0006a	c3		 ret	 0
??1WVSocket@@QEAA@XZ ENDP				; WVSocket::~WVSocket
_TEXT	ENDS
; Function compile flags: /Odtp
; File e:\infinia-library-3.0\com\src\wvsocket.cpp
;	COMDAT ??0WVSocket@@QEAA@PEBDH@Z
_TEXT	SEGMENT
this$ = 48
szIP$ = 56
nPort$ = 64
??0WVSocket@@QEAA@PEBDH@Z PROC				; WVSocket::WVSocket, COMDAT

; 38   : {

$LN3:
  00000	44 89 44 24 18	 mov	 DWORD PTR [rsp+24], r8d
  00005	48 89 54 24 10	 mov	 QWORD PTR [rsp+16], rdx
  0000a	48 89 4c 24 08	 mov	 QWORD PTR [rsp+8], rcx
  0000f	57		 push	 rdi
  00010	48 83 ec 20	 sub	 rsp, 32			; 00000020H

; 39   : 	m_bConnected = false;

  00014	48 8b 44 24 30	 mov	 rax, QWORD PTR this$[rsp]
  00019	c6 00 00	 mov	 BYTE PTR [rax], 0

; 40   : 	m_nSocket = -1;

  0001c	48 8b 44 24 30	 mov	 rax, QWORD PTR this$[rsp]
  00021	48 c7 40 08 ff
	ff ff ff	 mov	 QWORD PTR [rax+8], -1

; 41   : 	m_szRecvData = NULL;

  00029	48 8b 44 24 30	 mov	 rax, QWORD PTR this$[rsp]
  0002e	48 c7 40 10 00
	00 00 00	 mov	 QWORD PTR [rax+16], 0

; 42   : 	m_nRecvDLen = 0;

  00036	48 8b 44 24 30	 mov	 rax, QWORD PTR this$[rsp]
  0003b	c7 40 1c 00 00
	00 00		 mov	 DWORD PTR [rax+28], 0

; 43   : 	m_nRecvBLen = 0;

  00042	48 8b 44 24 30	 mov	 rax, QWORD PTR this$[rsp]
  00047	c7 40 18 00 00
	00 00		 mov	 DWORD PTR [rax+24], 0

; 44   : 
; 45   : 
; 46   : 	memset(m_szIP, 0, sizeof(m_szIP));

  0004e	48 8b 44 24 30	 mov	 rax, QWORD PTR this$[rsp]
  00053	48 83 c0 20	 add	 rax, 32			; 00000020H
  00057	48 8b f8	 mov	 rdi, rax
  0005a	33 c0		 xor	 eax, eax
  0005c	b9 1e 00 00 00	 mov	 ecx, 30
  00061	f3 aa		 rep stosb

; 47   : 	m_nPort = -1;

  00063	48 8b 44 24 30	 mov	 rax, QWORD PTR this$[rsp]
  00068	c7 40 40 ff ff
	ff ff		 mov	 DWORD PTR [rax+64], -1

; 48   : 
; 49   : 
; 50   : 	ConnectTo(szIP, nPort);

  0006f	44 8b 44 24 40	 mov	 r8d, DWORD PTR nPort$[rsp]
  00074	48 8b 54 24 38	 mov	 rdx, QWORD PTR szIP$[rsp]
  00079	48 8b 4c 24 30	 mov	 rcx, QWORD PTR this$[rsp]
  0007e	e8 00 00 00 00	 call	 ?ConnectTo@WVSocket@@QEAAHPEBDH@Z ; WVSocket::ConnectTo

; 51   : }

  00083	48 8b 44 24 30	 mov	 rax, QWORD PTR this$[rsp]
  00088	48 83 c4 20	 add	 rsp, 32			; 00000020H
  0008c	5f		 pop	 rdi
  0008d	c3		 ret	 0
??0WVSocket@@QEAA@PEBDH@Z ENDP				; WVSocket::WVSocket
_TEXT	ENDS
; Function compile flags: /Odtp
; File e:\infinia-library-3.0\com\src\wvsocket.cpp
;	COMDAT ??0WVSocket@@QEAA@XZ
_TEXT	SEGMENT
this$ = 48
??0WVSocket@@QEAA@XZ PROC				; WVSocket::WVSocket, COMDAT

; 24   : {

$LN3:
  00000	48 89 4c 24 08	 mov	 QWORD PTR [rsp+8], rcx
  00005	57		 push	 rdi
  00006	48 83 ec 20	 sub	 rsp, 32			; 00000020H

; 25   : 	m_bConnected = false;

  0000a	48 8b 44 24 30	 mov	 rax, QWORD PTR this$[rsp]
  0000f	c6 00 00	 mov	 BYTE PTR [rax], 0

; 26   : 	m_nSocket = -1;

  00012	48 8b 44 24 30	 mov	 rax, QWORD PTR this$[rsp]
  00017	48 c7 40 08 ff
	ff ff ff	 mov	 QWORD PTR [rax+8], -1

; 27   : 	m_szRecvData = NULL;

  0001f	48 8b 44 24 30	 mov	 rax, QWORD PTR this$[rsp]
  00024	48 c7 40 10 00
	00 00 00	 mov	 QWORD PTR [rax+16], 0

; 28   : 	m_nRecvDLen = 0;

  0002c	48 8b 44 24 30	 mov	 rax, QWORD PTR this$[rsp]
  00031	c7 40 1c 00 00
	00 00		 mov	 DWORD PTR [rax+28], 0

; 29   : 	m_nRecvBLen = 0;

  00038	48 8b 44 24 30	 mov	 rax, QWORD PTR this$[rsp]
  0003d	c7 40 18 00 00
	00 00		 mov	 DWORD PTR [rax+24], 0

; 30   : 	memset(m_szIP, 0, sizeof(m_szIP));

  00044	48 8b 44 24 30	 mov	 rax, QWORD PTR this$[rsp]
  00049	48 83 c0 20	 add	 rax, 32			; 00000020H
  0004d	48 8b f8	 mov	 rdi, rax
  00050	33 c0		 xor	 eax, eax
  00052	b9 1e 00 00 00	 mov	 ecx, 30
  00057	f3 aa		 rep stosb

; 31   : 	m_nPort = -1;

  00059	48 8b 44 24 30	 mov	 rax, QWORD PTR this$[rsp]
  0005e	c7 40 40 ff ff
	ff ff		 mov	 DWORD PTR [rax+64], -1

; 32   : 
; 33   : 	m_nSocket = ::socket(SOCK_FLAG, SOCK_STREAM, 0);

  00065	45 33 c0	 xor	 r8d, r8d
  00068	ba 01 00 00 00	 mov	 edx, 1
  0006d	b9 02 00 00 00	 mov	 ecx, 2
  00072	ff 15 00 00 00
	00		 call	 QWORD PTR __imp_socket
  00078	48 8b 4c 24 30	 mov	 rcx, QWORD PTR this$[rsp]
  0007d	48 89 41 08	 mov	 QWORD PTR [rcx+8], rax

; 34   : 
; 35   : }

  00081	48 8b 44 24 30	 mov	 rax, QWORD PTR this$[rsp]
  00086	48 83 c4 20	 add	 rsp, 32			; 00000020H
  0008a	5f		 pop	 rdi
  0008b	c3		 ret	 0
??0WVSocket@@QEAA@XZ ENDP				; WVSocket::WVSocket
_TEXT	ENDS
; Function compile flags: /Odtp
; File e:\infinia-library-3.0\com\include\comtypes.h
;	COMDAT ?c_memcpy@@YAPEAXPEAXPEBXH@Z
_TEXT	SEGMENT
tv66 = 0
d$ = 8
s$ = 16
de$ = 48
so$ = 56
l$ = 64
?c_memcpy@@YAPEAXPEAXPEBXH@Z PROC			; c_memcpy, COMDAT

; 309  : inline void *c_memcpy(void *de, const void *so, int l) { char *d = (char*)de; const char *s = (char*)so; while (l--) *d++ = *s++; return de;}

$LN5:
  00000	44 89 44 24 18	 mov	 DWORD PTR [rsp+24], r8d
  00005	48 89 54 24 10	 mov	 QWORD PTR [rsp+16], rdx
  0000a	48 89 4c 24 08	 mov	 QWORD PTR [rsp+8], rcx
  0000f	48 83 ec 28	 sub	 rsp, 40			; 00000028H
  00013	48 8b 44 24 30	 mov	 rax, QWORD PTR de$[rsp]
  00018	48 89 44 24 08	 mov	 QWORD PTR d$[rsp], rax
  0001d	48 8b 44 24 38	 mov	 rax, QWORD PTR so$[rsp]
  00022	48 89 44 24 10	 mov	 QWORD PTR s$[rsp], rax
$LN2@c_memcpy:
  00027	8b 44 24 40	 mov	 eax, DWORD PTR l$[rsp]
  0002b	89 04 24	 mov	 DWORD PTR tv66[rsp], eax
  0002e	8b 44 24 40	 mov	 eax, DWORD PTR l$[rsp]
  00032	ff c8		 dec	 eax
  00034	89 44 24 40	 mov	 DWORD PTR l$[rsp], eax
  00038	83 3c 24 00	 cmp	 DWORD PTR tv66[rsp], 0
  0003c	74 2b		 je	 SHORT $LN3@c_memcpy
  0003e	48 8b 44 24 08	 mov	 rax, QWORD PTR d$[rsp]
  00043	48 8b 4c 24 10	 mov	 rcx, QWORD PTR s$[rsp]
  00048	0f b6 09	 movzx	 ecx, BYTE PTR [rcx]
  0004b	88 08		 mov	 BYTE PTR [rax], cl
  0004d	48 8b 44 24 08	 mov	 rax, QWORD PTR d$[rsp]
  00052	48 ff c0	 inc	 rax
  00055	48 89 44 24 08	 mov	 QWORD PTR d$[rsp], rax
  0005a	48 8b 44 24 10	 mov	 rax, QWORD PTR s$[rsp]
  0005f	48 ff c0	 inc	 rax
  00062	48 89 44 24 10	 mov	 QWORD PTR s$[rsp], rax
  00067	eb be		 jmp	 SHORT $LN2@c_memcpy
$LN3@c_memcpy:
  00069	48 8b 44 24 30	 mov	 rax, QWORD PTR de$[rsp]
  0006e	48 83 c4 28	 add	 rsp, 40			; 00000028H
  00072	c3		 ret	 0
?c_memcpy@@YAPEAXPEAXPEBXH@Z ENDP			; c_memcpy
_TEXT	ENDS
; Function compile flags: /Odtp
; File c:\program files (x86)\windows kits\10\include\10.0.10240.0\ucrt\stdio.h
;	COMDAT sprintf
_TEXT	SEGMENT
_Result$ = 32
_ArgList$ = 40
__$ArrayPad$ = 48
_Buffer$ = 80
_Format$ = 88
sprintf	PROC						; COMDAT

; 1776 : {

$LN3:
  00000	48 89 54 24 10	 mov	 QWORD PTR [rsp+16], rdx
  00005	48 89 4c 24 08	 mov	 QWORD PTR [rsp+8], rcx
  0000a	4c 89 44 24 18	 mov	 QWORD PTR [rsp+24], r8
  0000f	4c 89 4c 24 20	 mov	 QWORD PTR [rsp+32], r9
  00014	48 83 ec 48	 sub	 rsp, 72			; 00000048H
  00018	48 8b 05 00 00
	00 00		 mov	 rax, QWORD PTR __security_cookie
  0001f	48 33 c4	 xor	 rax, rsp
  00022	48 89 44 24 30	 mov	 QWORD PTR __$ArrayPad$[rsp], rax

; 1777 :     int _Result;
; 1778 :     va_list _ArgList;
; 1779 :     __crt_va_start(_ArgList, _Format);

  00027	e8 00 00 00 00	 call	 ??$__vcrt_va_start_verify_argument_type@QEBD@@YAXXZ ; __vcrt_va_start_verify_argument_type<char const * __ptr64 const>
  0002c	48 8d 44 24 60	 lea	 rax, QWORD PTR _Format$[rsp+8]
  00031	48 89 44 24 28	 mov	 QWORD PTR _ArgList$[rsp], rax

; 1780 : 
; 1781 :     #pragma warning(push)
; 1782 :     #pragma warning(disable: 4996) // Deprecation
; 1783 :     _Result = _vsprintf_l(_Buffer, _Format, NULL, _ArgList);

  00036	4c 8b 4c 24 28	 mov	 r9, QWORD PTR _ArgList$[rsp]
  0003b	45 33 c0	 xor	 r8d, r8d
  0003e	48 8b 54 24 58	 mov	 rdx, QWORD PTR _Format$[rsp]
  00043	48 8b 4c 24 50	 mov	 rcx, QWORD PTR _Buffer$[rsp]
  00048	e8 00 00 00 00	 call	 _vsprintf_l
  0004d	89 44 24 20	 mov	 DWORD PTR _Result$[rsp], eax

; 1784 :     #pragma warning(pop)
; 1785 : 
; 1786 :     __crt_va_end(_ArgList);

  00051	48 c7 44 24 28
	00 00 00 00	 mov	 QWORD PTR _ArgList$[rsp], 0

; 1787 :     return _Result;

  0005a	8b 44 24 20	 mov	 eax, DWORD PTR _Result$[rsp]

; 1788 : }

  0005e	48 8b 4c 24 30	 mov	 rcx, QWORD PTR __$ArrayPad$[rsp]
  00063	48 33 cc	 xor	 rcx, rsp
  00066	e8 00 00 00 00	 call	 __security_check_cookie
  0006b	48 83 c4 48	 add	 rsp, 72			; 00000048H
  0006f	c3		 ret	 0
sprintf	ENDP
_TEXT	ENDS
; Function compile flags: /Odtp
; File c:\program files (x86)\windows kits\10\include\10.0.10240.0\ucrt\stdio.h
;	COMDAT _vsprintf_l
_TEXT	SEGMENT
_Buffer$ = 64
_Format$ = 72
_Locale$ = 80
_ArgList$ = 88
_vsprintf_l PROC					; COMDAT

; 1455 : {

$LN3:
  00000	4c 89 4c 24 20	 mov	 QWORD PTR [rsp+32], r9
  00005	4c 89 44 24 18	 mov	 QWORD PTR [rsp+24], r8
  0000a	48 89 54 24 10	 mov	 QWORD PTR [rsp+16], rdx
  0000f	48 89 4c 24 08	 mov	 QWORD PTR [rsp+8], rcx
  00014	48 83 ec 38	 sub	 rsp, 56			; 00000038H

; 1456 :     #pragma warning(push)
; 1457 :     #pragma warning(disable: 4996) // Deprecation
; 1458 :     return _vsnprintf_l(_Buffer, (size_t)-1, _Format, _Locale, _ArgList);

  00018	48 8b 44 24 58	 mov	 rax, QWORD PTR _ArgList$[rsp]
  0001d	48 89 44 24 20	 mov	 QWORD PTR [rsp+32], rax
  00022	4c 8b 4c 24 50	 mov	 r9, QWORD PTR _Locale$[rsp]
  00027	4c 8b 44 24 48	 mov	 r8, QWORD PTR _Format$[rsp]
  0002c	48 c7 c2 ff ff
	ff ff		 mov	 rdx, -1
  00033	48 8b 4c 24 40	 mov	 rcx, QWORD PTR _Buffer$[rsp]
  00038	e8 00 00 00 00	 call	 _vsnprintf_l

; 1459 :     #pragma warning(pop)
; 1460 : }

  0003d	48 83 c4 38	 add	 rsp, 56			; 00000038H
  00041	c3		 ret	 0
_vsprintf_l ENDP
_TEXT	ENDS
; Function compile flags: /Odtp
; File c:\program files (x86)\windows kits\10\include\10.0.10240.0\ucrt\stdio.h
;	COMDAT _vsnprintf_l
_TEXT	SEGMENT
_Result$ = 48
tv74 = 52
_Buffer$ = 80
_BufferCount$ = 88
_Format$ = 96
_Locale$ = 104
_ArgList$ = 112
_vsnprintf_l PROC					; COMDAT

; 1385 : {

$LN5:
  00000	4c 89 4c 24 20	 mov	 QWORD PTR [rsp+32], r9
  00005	4c 89 44 24 18	 mov	 QWORD PTR [rsp+24], r8
  0000a	48 89 54 24 10	 mov	 QWORD PTR [rsp+16], rdx
  0000f	48 89 4c 24 08	 mov	 QWORD PTR [rsp+8], rcx
  00014	48 83 ec 48	 sub	 rsp, 72			; 00000048H

; 1386 :     int const _Result = __stdio_common_vsprintf(

  00018	e8 00 00 00 00	 call	 __local_stdio_printf_options
  0001d	48 8b 00	 mov	 rax, QWORD PTR [rax]
  00020	48 83 c8 01	 or	 rax, 1
  00024	48 8b 4c 24 70	 mov	 rcx, QWORD PTR _ArgList$[rsp]
  00029	48 89 4c 24 28	 mov	 QWORD PTR [rsp+40], rcx
  0002e	48 8b 4c 24 68	 mov	 rcx, QWORD PTR _Locale$[rsp]
  00033	48 89 4c 24 20	 mov	 QWORD PTR [rsp+32], rcx
  00038	4c 8b 4c 24 60	 mov	 r9, QWORD PTR _Format$[rsp]
  0003d	4c 8b 44 24 58	 mov	 r8, QWORD PTR _BufferCount$[rsp]
  00042	48 8b 54 24 50	 mov	 rdx, QWORD PTR _Buffer$[rsp]
  00047	48 8b c8	 mov	 rcx, rax
  0004a	ff 15 00 00 00
	00		 call	 QWORD PTR __imp___stdio_common_vsprintf
  00050	89 44 24 30	 mov	 DWORD PTR _Result$[rsp], eax

; 1387 :         _CRT_INTERNAL_LOCAL_PRINTF_OPTIONS | _CRT_INTERNAL_PRINTF_LEGACY_VSPRINTF_NULL_TERMINATION,
; 1388 :         _Buffer, _BufferCount, _Format, _Locale, _ArgList);
; 1389 : 
; 1390 :     return _Result < 0 ? -1 : _Result;

  00054	83 7c 24 30 00	 cmp	 DWORD PTR _Result$[rsp], 0
  00059	7d 0a		 jge	 SHORT $LN3@vsnprintf_
  0005b	c7 44 24 34 ff
	ff ff ff	 mov	 DWORD PTR tv74[rsp], -1
  00063	eb 08		 jmp	 SHORT $LN4@vsnprintf_
$LN3@vsnprintf_:
  00065	8b 44 24 30	 mov	 eax, DWORD PTR _Result$[rsp]
  00069	89 44 24 34	 mov	 DWORD PTR tv74[rsp], eax
$LN4@vsnprintf_:
  0006d	8b 44 24 34	 mov	 eax, DWORD PTR tv74[rsp]

; 1391 : }

  00071	48 83 c4 48	 add	 rsp, 72			; 00000048H
  00075	c3		 ret	 0
_vsnprintf_l ENDP
_TEXT	ENDS
; Function compile flags: /Odtp
; File c:\program files (x86)\microsoft visual studio 14.0\vc\include\vadefs.h
;	COMDAT ??$__vcrt_va_start_verify_argument_type@QEBD@@YAXXZ
_TEXT	SEGMENT
??$__vcrt_va_start_verify_argument_type@QEBD@@YAXXZ PROC ; __vcrt_va_start_verify_argument_type<char const * __ptr64 const>, COMDAT

; 145  :             static_assert(!__vcrt_va_list_is_reference<_Ty>::__the_value, "va_start argument must not have reference type and must not be parenthesized");
; 146  :         }

  00000	c3		 ret	 0
??$__vcrt_va_start_verify_argument_type@QEBD@@YAXXZ ENDP ; __vcrt_va_start_verify_argument_type<char const * __ptr64 const>
_TEXT	ENDS
; Function compile flags: /Odtp
; File c:\program files (x86)\windows kits\10\include\10.0.10240.0\ucrt\corecrt_stdio_config.h
;	COMDAT __local_stdio_printf_options
_TEXT	SEGMENT
__local_stdio_printf_options PROC			; COMDAT

; 74   :     static unsigned __int64 _OptionsStorage;
; 75   :     return &_OptionsStorage;

  00000	48 8d 05 00 00
	00 00		 lea	 rax, OFFSET FLAT:?_OptionsStorage@?1??__local_stdio_printf_options@@9@4_KA ; `__local_stdio_printf_options'::`2'::_OptionsStorage

; 76   : }

  00007	c3		 ret	 0
__local_stdio_printf_options ENDP
_TEXT	ENDS
; Function compile flags: /Odtp
; File c:\program files (x86)\windows kits\10\include\10.0.10240.0\ucrt\time.h
;	COMDAT time
_TEXT	SEGMENT
_Time$ = 48
time	PROC						; COMDAT

; 534  :         {

  00000	48 89 4c 24 08	 mov	 QWORD PTR [rsp+8], rcx
  00005	48 83 ec 28	 sub	 rsp, 40			; 00000028H

; 535  :             return _time64(_Time);

  00009	48 8b 4c 24 30	 mov	 rcx, QWORD PTR _Time$[rsp]
  0000e	ff 15 00 00 00
	00		 call	 QWORD PTR __imp__time64

; 536  :         }

  00014	48 83 c4 28	 add	 rsp, 40			; 00000028H
  00018	c3		 ret	 0
time	ENDP
_TEXT	ENDS
END
